(dp0
S'01'
p1
(dp2
VROUGE-L
p3
(lp4
(lp5
VAverage_R
p6
aV0.62972
p7
aV0.62972
p8
aV0.62972
p9
aa(lp10
VAverage_P
p11
aV0.61346
p12
aV0.61346
p13
aV0.61346
p14
aa(lp15
VAverage_F
p16
aV0.62148
p17
aV0.62148
p18
aV0.62148
p19
aasVROUGE-4
p20
(lp21
(lp22
VAverage_R
p23
aV0.26392
p24
aV0.26392
p25
aV0.26392
p26
aa(lp27
VAverage_P
p28
aV0.25708
p29
aV0.25708
p30
aV0.25708
p31
aa(lp32
VAverage_F
p33
aV0.26046
p34
aV0.26046
p35
aV0.26046
p36
aasVROUGE-2
p37
(lp38
(lp39
VAverage_R
p40
aV0.36927
p41
aV0.36927
p42
aV0.36927
p43
aa(lp44
VAverage_P
p45
aV0.35972
p46
aV0.35972
p47
aV0.35972
p48
aa(lp49
VAverage_F
p50
aV0.36443
p51
aV0.36443
p52
aV0.36443
p53
aasVROUGE-3
p54
(lp55
(lp56
VAverage_R
p57
aV0.29412
p58
aV0.29412
p59
aV0.29412
p60
aa(lp61
VAverage_P
p62
aV0.28650
p63
aV0.28650
p64
aV0.28650
p65
aa(lp66
VAverage_F
p67
aV0.29026
p68
aV0.29026
p69
aV0.29026
p70
aasVROUGE-1
p71
(lp72
(lp73
VAverage_R
p74
aV0.64096
p75
aV0.64096
p76
aV0.64096
p77
aa(lp78
VAverage_P
p79
aV0.62441
p80
aV0.62441
p81
aV0.62441
p82
aa(lp83
VAverage_F
p84
aV0.63258
p85
aV0.63258
p86
aV0.63258
p87
aassS'06'
p88
(dp89
VROUGE-L
p90
(lp91
(lp92
VAverage_R
p93
aV0.63133
p94
aV0.63133
p95
aV0.63133
p96
aa(lp97
VAverage_P
p98
aV0.59009
p99
aV0.59009
p100
aV0.59009
p101
aa(lp102
VAverage_F
p103
aV0.61001
p104
aV0.61001
p105
aV0.61001
p106
aasVROUGE-4
p107
(lp108
(lp109
VAverage_R
p110
aV0.30105
p111
aV0.30105
p112
aV0.30105
p113
aa(lp114
VAverage_P
p115
aV0.28130
p116
aV0.28130
p117
aV0.28130
p118
aa(lp119
VAverage_F
p120
aV0.29084
p121
aV0.29084
p122
aV0.29084
p123
aasVROUGE-2
p124
(lp125
(lp126
VAverage_R
p127
aV0.39743
p128
aV0.39743
p129
aV0.39743
p130
aa(lp131
VAverage_P
p132
aV0.37143
p133
aV0.37143
p134
aV0.37143
p135
aa(lp136
VAverage_F
p137
aV0.38399
p138
aV0.38399
p139
aV0.38399
p140
aasVROUGE-3
p141
(lp142
(lp143
VAverage_R
p144
aV0.33280
p145
aV0.33280
p146
aV0.33280
p147
aa(lp148
VAverage_P
p149
aV0.31099
p150
aV0.31099
p151
aV0.31099
p152
aa(lp153
VAverage_F
p154
aV0.32153
p155
aV0.32153
p156
aV0.32153
p157
aasVROUGE-1
p158
(lp159
(lp160
VAverage_R
p161
aV0.64016
p162
aV0.64016
p163
aV0.64016
p164
aa(lp165
VAverage_P
p166
aV0.59835
p167
aV0.59835
p168
aV0.59835
p169
aa(lp170
VAverage_F
p171
aV0.61855
p172
aV0.61855
p173
aV0.61855
p174
aassS'07'
p175
(dp176
VROUGE-L
p177
(lp178
(lp179
VAverage_R
p180
aV0.62490
p181
aV0.62490
p182
aV0.62490
p183
aa(lp184
VAverage_P
p185
aV0.59938
p186
aV0.59938
p187
aV0.59938
p188
aa(lp189
VAverage_F
p190
aV0.61187
p191
aV0.61187
p192
aV0.61187
p193
aasVROUGE-4
p194
(lp195
(lp196
VAverage_R
p197
aV0.27038
p198
aV0.27038
p199
aV0.27038
p200
aa(lp201
VAverage_P
p202
aV0.25929
p203
aV0.25929
p204
aV0.25929
p205
aa(lp206
VAverage_F
p207
aV0.26472
p208
aV0.26472
p209
aV0.26472
p210
aasVROUGE-2
p211
(lp212
(lp213
VAverage_R
p214
aV0.37329
p215
aV0.37329
p216
aV0.37329
p217
aa(lp218
VAverage_P
p219
aV0.35802
p220
aV0.35802
p221
aV0.35802
p222
aa(lp223
VAverage_F
p224
aV0.36550
p225
aV0.36550
p226
aV0.36550
p227
aasVROUGE-3
p228
(lp229
(lp230
VAverage_R
p231
aV0.30137
p232
aV0.30137
p233
aV0.30137
p234
aa(lp235
VAverage_P
p236
aV0.28903
p237
aV0.28903
p238
aV0.28903
p239
aa(lp240
VAverage_F
p241
aV0.29507
p242
aV0.29507
p243
aV0.29507
p244
aasVROUGE-1
p245
(lp246
(lp247
VAverage_R
p248
aV0.63695
p249
aV0.63695
p250
aV0.63695
p251
aa(lp252
VAverage_P
p253
aV0.61094
p254
aV0.61094
p255
aV0.61094
p256
aa(lp257
VAverage_F
p258
aV0.62367
p259
aV0.62367
p260
aV0.62367
p261
aassS'48'
p262
(dp263
VROUGE-L
p264
(lp265
(lp266
VAverage_R
p267
aV0.59357
p268
aV0.59357
p269
aV0.59357
p270
aa(lp271
VAverage_P
p272
aV0.59790
p273
aV0.59790
p274
aV0.59790
p275
aa(lp276
VAverage_F
p277
aV0.59573
p278
aV0.59573
p279
aV0.59573
p280
aasVROUGE-4
p281
(lp282
(lp283
VAverage_R
p284
aV0.19209
p285
aV0.19209
p286
aV0.19209
p287
aa(lp288
VAverage_P
p289
aV0.19350
p290
aV0.19350
p291
aV0.19350
p292
aa(lp293
VAverage_F
p294
aV0.19279
p295
aV0.19279
p296
aV0.19279
p297
aasVROUGE-2
p298
(lp299
(lp300
VAverage_R
p301
aV0.29204
p302
aV0.29204
p303
aV0.29204
p304
aa(lp305
VAverage_P
p306
aV0.29417
p307
aV0.29417
p308
aV0.29417
p309
aa(lp310
VAverage_F
p311
aV0.29310
p312
aV0.29310
p313
aV0.29310
p314
aasVROUGE-3
p315
(lp316
(lp317
VAverage_R
p318
aV0.21757
p319
aV0.21757
p320
aV0.21757
p321
aa(lp322
VAverage_P
p323
aV0.21916
p324
aV0.21916
p325
aV0.21916
p326
aa(lp327
VAverage_F
p328
aV0.21836
p329
aV0.21836
p330
aV0.21836
p331
aasVROUGE-1
p332
(lp333
(lp334
VAverage_R
p335
aV0.61526
p336
aV0.61526
p337
aV0.61526
p338
aa(lp339
VAverage_P
p340
aV0.61974
p341
aV0.61974
p342
aV0.61974
p343
aa(lp344
VAverage_F
p345
aV0.61749
p346
aV0.61749
p347
aV0.61749
p348
aassS'05'
p349
(dp350
VROUGE-L
p351
(lp352
(lp353
VAverage_R
p354
aV0.64016
p355
aV0.64016
p356
aV0.64016
p357
aa(lp358
VAverage_P
p359
aV0.61975
p360
aV0.61975
p361
aV0.61975
p362
aa(lp363
VAverage_F
p364
aV0.62979
p365
aV0.62979
p366
aV0.62979
p367
aasVROUGE-4
p368
(lp369
(lp370
VAverage_R
p371
aV0.26715
p372
aV0.26715
p373
aV0.26715
p374
aa(lp375
VAverage_P
p376
aV0.25859
p377
aV0.25859
p378
aV0.25859
p379
aa(lp380
VAverage_F
p381
aV0.26280
p382
aV0.26280
p383
aV0.26280
p384
aasVROUGE-2
p385
(lp386
(lp387
VAverage_R
p388
aV0.38134
p389
aV0.38134
p390
aV0.38134
p391
aa(lp392
VAverage_P
p393
aV0.36916
p394
aV0.36916
p395
aV0.36916
p396
aa(lp397
VAverage_F
p398
aV0.37515
p399
aV0.37515
p400
aV0.37515
p401
aasVROUGE-3
p402
(lp403
(lp404
VAverage_R
p405
aV0.30056
p406
aV0.30056
p407
aV0.30056
p408
aa(lp409
VAverage_P
p410
aV0.29095
p411
aV0.29095
p412
aV0.29095
p413
aa(lp414
VAverage_F
p415
aV0.29568
p416
aV0.29568
p417
aV0.29568
p418
aasVROUGE-1
p419
(lp420
(lp421
VAverage_R
p422
aV0.64819
p423
aV0.64819
p424
aV0.64819
p425
aa(lp426
VAverage_P
p427
aV0.62753
p428
aV0.62753
p429
aV0.62753
p430
aa(lp431
VAverage_F
p432
aV0.63769
p433
aV0.63769
p434
aV0.63769
p435
aassS'46'
p436
(dp437
VROUGE-L
p438
(lp439
(lp440
VAverage_R
p441
aV0.58635
p442
aV0.58635
p443
aV0.58635
p444
aa(lp445
VAverage_P
p446
aV0.59543
p447
aV0.59543
p448
aV0.59543
p449
aa(lp450
VAverage_F
p451
aV0.59086
p452
aV0.59086
p453
aV0.59086
p454
aasVROUGE-4
p455
(lp456
(lp457
VAverage_R
p458
aV0.19128
p459
aV0.19128
p460
aV0.19128
p461
aa(lp462
VAverage_P
p463
aV0.19426
p464
aV0.19426
p465
aV0.19426
p466
aa(lp467
VAverage_F
p468
aV0.19276
p469
aV0.19276
p470
aV0.19276
p471
aasVROUGE-2
p472
(lp473
(lp474
VAverage_R
p475
aV0.28640
p476
aV0.28640
p477
aV0.28640
p478
aa(lp479
VAverage_P
p480
aV0.29085
p481
aV0.29085
p482
aV0.29085
p483
aa(lp484
VAverage_F
p485
aV0.28861
p486
aV0.28861
p487
aV0.28861
p488
aasVROUGE-3
p489
(lp490
(lp491
VAverage_R
p492
aV0.21676
p493
aV0.21676
p494
aV0.21676
p495
aa(lp496
VAverage_P
p497
aV0.22013
p498
aV0.22013
p499
aV0.22013
p500
aa(lp501
VAverage_F
p502
aV0.21843
p503
aV0.21843
p504
aV0.21843
p505
aasVROUGE-1
p506
(lp507
(lp508
VAverage_R
p509
aV0.60803
p510
aV0.60803
p511
aV0.60803
p512
aa(lp513
VAverage_P
p514
aV0.61746
p515
aV0.61746
p516
aV0.61746
p517
aa(lp518
VAverage_F
p519
aV0.61271
p520
aV0.61271
p521
aV0.61271
p522
aassS'47'
p523
(dp524
VROUGE-L
p525
(lp526
(lp527
VAverage_R
p528
aV0.58635
p529
aV0.58635
p530
aV0.58635
p531
aa(lp532
VAverage_P
p533
aV0.59543
p534
aV0.59543
p535
aV0.59543
p536
aa(lp537
VAverage_F
p538
aV0.59086
p539
aV0.59086
p540
aV0.59086
p541
aasVROUGE-4
p542
(lp543
(lp544
VAverage_R
p545
aV0.19209
p546
aV0.19209
p547
aV0.19209
p548
aa(lp549
VAverage_P
p550
aV0.19508
p551
aV0.19508
p552
aV0.19508
p553
aa(lp554
VAverage_F
p555
aV0.19357
p556
aV0.19357
p557
aV0.19357
p558
aasVROUGE-2
p559
(lp560
(lp561
VAverage_R
p562
aV0.28721
p563
aV0.28721
p564
aV0.28721
p565
aa(lp566
VAverage_P
p567
aV0.29167
p568
aV0.29167
p569
aV0.29167
p570
aa(lp571
VAverage_F
p572
aV0.28942
p573
aV0.28942
p574
aV0.28942
p575
aasVROUGE-3
p576
(lp577
(lp578
VAverage_R
p579
aV0.21757
p580
aV0.21757
p581
aV0.21757
p582
aa(lp583
VAverage_P
p584
aV0.22095
p585
aV0.22095
p586
aV0.22095
p587
aa(lp588
VAverage_F
p589
aV0.21925
p590
aV0.21925
p591
aV0.21925
p592
aasVROUGE-1
p593
(lp594
(lp595
VAverage_R
p596
aV0.60803
p597
aV0.60803
p598
aV0.60803
p599
aa(lp600
VAverage_P
p601
aV0.61746
p602
aV0.61746
p603
aV0.61746
p604
aa(lp605
VAverage_F
p606
aV0.61271
p607
aV0.61271
p608
aV0.61271
p609
aassS'08'
p610
(dp611
VROUGE-L
p612
(lp613
(lp614
VAverage_R
p615
aV0.62972
p616
aV0.62972
p617
aV0.62972
p618
aa(lp619
VAverage_P
p620
aV0.60401
p621
aV0.60401
p622
aV0.60401
p623
aa(lp624
VAverage_F
p625
aV0.61660
p626
aV0.61660
p627
aV0.61660
p628
aasVROUGE-4
p629
(lp630
(lp631
VAverage_R
p632
aV0.25747
p633
aV0.25747
p634
aV0.25747
p635
aa(lp636
VAverage_P
p637
aV0.24690
p638
aV0.24690
p639
aV0.24690
p640
aa(lp641
VAverage_F
p642
aV0.25207
p643
aV0.25207
p644
aV0.25207
p645
aasVROUGE-2
p646
(lp647
(lp648
VAverage_R
p649
aV0.37249
p650
aV0.37249
p651
aV0.37249
p652
aa(lp653
VAverage_P
p654
aV0.35725
p655
aV0.35725
p656
aV0.35725
p657
aa(lp658
VAverage_F
p659
aV0.36471
p660
aV0.36471
p661
aV0.36471
p662
aasVROUGE-3
p663
(lp664
(lp665
VAverage_R
p666
aV0.29089
p667
aV0.29089
p668
aV0.29089
p669
aa(lp670
VAverage_P
p671
aV0.27898
p672
aV0.27898
p673
aV0.27898
p674
aa(lp675
VAverage_F
p676
aV0.28481
p677
aV0.28481
p678
aV0.28481
p679
aasVROUGE-1
p680
(lp681
(lp682
VAverage_R
p683
aV0.63695
p684
aV0.63695
p685
aV0.63695
p686
aa(lp687
VAverage_P
p688
aV0.61094
p689
aV0.61094
p690
aV0.61094
p691
aa(lp692
VAverage_F
p693
aV0.62367
p694
aV0.62367
p695
aV0.62367
p696
aassS'09'
p697
(dp698
VROUGE-L
p699
(lp700
(lp701
VAverage_R
p702
aV0.56466
p703
aV0.56466
p704
aV0.56466
p705
aa(lp706
VAverage_P
p707
aV0.55354
p708
aV0.55354
p709
aV0.55354
p710
aa(lp711
VAverage_F
p712
aV0.55904
p713
aV0.55904
p714
aV0.55904
p715
aasVROUGE-4
p716
(lp717
(lp718
VAverage_R
p719
aV0.24697
p720
aV0.24697
p721
aV0.24697
p722
aa(lp723
VAverage_P
p724
aV0.24209
p725
aV0.24209
p726
aV0.24209
p727
aa(lp728
VAverage_F
p729
aV0.24451
p730
aV0.24451
p731
aV0.24451
p732
aasVROUGE-2
p733
(lp734
(lp735
VAverage_R
p736
aV0.31698
p737
aV0.31698
p738
aV0.31698
p739
aa(lp740
VAverage_P
p741
aV0.31073
p742
aV0.31073
p743
aV0.31073
p744
aa(lp745
VAverage_F
p746
aV0.31382
p747
aV0.31382
p748
aV0.31382
p749
aasVROUGE-3
p750
(lp751
(lp752
VAverage_R
p753
aV0.26994
p754
aV0.26994
p755
aV0.26994
p756
aa(lp757
VAverage_P
p758
aV0.26461
p759
aV0.26461
p760
aV0.26461
p761
aa(lp762
VAverage_F
p763
aV0.26725
p764
aV0.26725
p765
aV0.26725
p766
aasVROUGE-1
p767
(lp768
(lp769
VAverage_R
p770
aV0.57912
p771
aV0.57912
p772
aV0.57912
p773
aa(lp774
VAverage_P
p775
aV0.56772
p776
aV0.56772
p777
aV0.56772
p778
aa(lp779
VAverage_F
p780
aV0.57336
p781
aV0.57336
p782
aV0.57336
p783
aassS'45'
p784
(dp785
VROUGE-L
p786
(lp787
(lp788
VAverage_R
p789
aV0.59357
p790
aV0.59357
p791
aV0.59357
p792
aa(lp793
VAverage_P
p794
aV0.59790
p795
aV0.59790
p796
aV0.59790
p797
aa(lp798
VAverage_F
p799
aV0.59573
p800
aV0.59573
p801
aV0.59573
p802
aasVROUGE-4
p803
(lp804
(lp805
VAverage_R
p806
aV0.19128
p807
aV0.19128
p808
aV0.19128
p809
aa(lp810
VAverage_P
p811
aV0.19268
p812
aV0.19268
p813
aV0.19268
p814
aa(lp815
VAverage_F
p816
aV0.19198
p817
aV0.19198
p818
aV0.19198
p819
aasVROUGE-2
p820
(lp821
(lp822
VAverage_R
p823
aV0.29123
p824
aV0.29123
p825
aV0.29123
p826
aa(lp827
VAverage_P
p828
aV0.29335
p829
aV0.29335
p830
aV0.29335
p831
aa(lp832
VAverage_F
p833
aV0.29229
p834
aV0.29229
p835
aV0.29229
p836
aasVROUGE-3
p837
(lp838
(lp839
VAverage_R
p840
aV0.21676
p841
aV0.21676
p842
aV0.21676
p843
aa(lp844
VAverage_P
p845
aV0.21834
p846
aV0.21834
p847
aV0.21834
p848
aa(lp849
VAverage_F
p850
aV0.21755
p851
aV0.21755
p852
aV0.21755
p853
aasVROUGE-1
p854
(lp855
(lp856
VAverage_R
p857
aV0.61526
p858
aV0.61526
p859
aV0.61526
p860
aa(lp861
VAverage_P
p862
aV0.61974
p863
aV0.61974
p864
aV0.61974
p865
aa(lp866
VAverage_F
p867
aV0.61749
p868
aV0.61749
p869
aV0.61749
p870
aassS'41'
p871
(dp872
VROUGE-L
p873
(lp874
(lp875
VAverage_R
p876
aV0.59920
p877
aV0.59920
p878
aV0.59920
p879
aa(lp880
VAverage_P
p881
aV0.59490
p882
aV0.59490
p883
aV0.59490
p884
aa(lp885
VAverage_F
p886
aV0.59704
p887
aV0.59704
p888
aV0.59704
p889
aasVROUGE-4
p890
(lp891
(lp892
VAverage_R
p893
aV0.19128
p894
aV0.19128
p895
aV0.19128
p896
aa(lp897
VAverage_P
p898
aV0.18990
p899
aV0.18990
p900
aV0.18990
p901
aa(lp902
VAverage_F
p903
aV0.19059
p904
aV0.19059
p905
aV0.19059
p906
aasVROUGE-2
p907
(lp908
(lp909
VAverage_R
p910
aV0.29284
p911
aV0.29284
p912
aV0.29284
p913
aa(lp914
VAverage_P
p915
aV0.29073
p916
aV0.29073
p917
aV0.29073
p918
aa(lp919
VAverage_F
p920
aV0.29178
p921
aV0.29178
p922
aV0.29178
p923
aasVROUGE-3
p924
(lp925
(lp926
VAverage_R
p927
aV0.21676
p928
aV0.21676
p929
aV0.21676
p930
aa(lp931
VAverage_P
p932
aV0.21520
p933
aV0.21520
p934
aV0.21520
p935
aa(lp936
VAverage_F
p937
aV0.21598
p938
aV0.21598
p939
aV0.21598
p940
aasVROUGE-1
p941
(lp942
(lp943
VAverage_R
p944
aV0.62008
p945
aV0.62008
p946
aV0.62008
p947
aa(lp948
VAverage_P
p949
aV0.61563
p950
aV0.61563
p951
aV0.61563
p952
aa(lp953
VAverage_F
p954
aV0.61785
p955
aV0.61785
p956
aV0.61785
p957
aassS'49'
p958
(dp959
VROUGE-L
p960
(lp961
(lp962
VAverage_R
p963
aV0.58635
p964
aV0.58635
p965
aV0.58635
p966
aa(lp967
VAverage_P
p968
aV0.59543
p969
aV0.59543
p970
aV0.59543
p971
aa(lp972
VAverage_F
p973
aV0.59086
p974
aV0.59086
p975
aV0.59086
p976
aasVROUGE-4
p977
(lp978
(lp979
VAverage_R
p980
aV0.19048
p981
aV0.19048
p982
aV0.19048
p983
aa(lp984
VAverage_P
p985
aV0.19344
p986
aV0.19344
p987
aV0.19344
p988
aa(lp989
VAverage_F
p990
aV0.19195
p991
aV0.19195
p992
aV0.19195
p993
aasVROUGE-2
p994
(lp995
(lp996
VAverage_R
p997
aV0.28560
p998
aV0.28560
p999
aV0.28560
p1000
aa(lp1001
VAverage_P
p1002
aV0.29003
p1003
aV0.29003
p1004
aV0.29003
p1005
aa(lp1006
VAverage_F
p1007
aV0.28780
p1008
aV0.28780
p1009
aV0.28780
p1010
aasVROUGE-3
p1011
(lp1012
(lp1013
VAverage_R
p1014
aV0.21595
p1015
aV0.21595
p1016
aV0.21595
p1017
aa(lp1018
VAverage_P
p1019
aV0.21931
p1020
aV0.21931
p1021
aV0.21931
p1022
aa(lp1023
VAverage_F
p1024
aV0.21762
p1025
aV0.21762
p1026
aV0.21762
p1027
aasVROUGE-1
p1028
(lp1029
(lp1030
VAverage_R
p1031
aV0.60803
p1032
aV0.60803
p1033
aV0.60803
p1034
aa(lp1035
VAverage_P
p1036
aV0.61746
p1037
aV0.61746
p1038
aV0.61746
p1039
aa(lp1040
VAverage_F
p1041
aV0.61271
p1042
aV0.61271
p1043
aV0.61271
p1044
aass.