(dp0
S'02'
p1
(dp2
VROUGE-L
p3
(lp4
(lp5
VAverage_R
p6
aV0.74026
p7
aV0.74026
p8
aV0.74026
p9
aa(lp10
VAverage_P
p11
aV0.67217
p12
aV0.67217
p13
aV0.67217
p14
aa(lp15
VAverage_F
p16
aV0.70457
p17
aV0.70457
p18
aV0.70457
p19
aasVROUGE-4
p20
(lp21
(lp22
VAverage_R
p23
aV0.48285
p24
aV0.48285
p25
aV0.48285
p26
aa(lp27
VAverage_P
p28
aV0.43780
p29
aV0.43780
p30
aV0.43780
p31
aa(lp32
VAverage_F
p33
aV0.45922
p34
aV0.45922
p35
aV0.45922
p36
aasVROUGE-2
p37
(lp38
(lp39
VAverage_R
p40
aV0.56136
p41
aV0.56136
p42
aV0.56136
p43
aa(lp44
VAverage_P
p45
aV0.50948
p46
aV0.50948
p47
aV0.50948
p48
aa(lp49
VAverage_F
p50
aV0.53416
p51
aV0.53416
p52
aV0.53416
p53
aasVROUGE-3
p54
(lp55
(lp56
VAverage_R
p57
aV0.50656
p58
aV0.50656
p59
aV0.50656
p60
aa(lp61
VAverage_P
p62
aV0.45952
p63
aV0.45952
p64
aV0.45952
p65
aa(lp66
VAverage_F
p67
aV0.48189
p68
aV0.48189
p69
aV0.48189
p70
aasVROUGE-1
p71
(lp72
(lp73
VAverage_R
p74
aV0.76364
p75
aV0.76364
p76
aV0.76364
p77
aa(lp78
VAverage_P
p79
aV0.69340
p80
aV0.69340
p81
aV0.69340
p82
aa(lp83
VAverage_F
p84
aV0.72683
p85
aV0.72683
p86
aV0.72683
p87
aassS'03'
p88
(dp89
VROUGE-L
p90
(lp91
(lp92
VAverage_R
p93
aV0.63896
p94
aV0.63896
p95
aV0.63896
p96
aa(lp97
VAverage_P
p98
aV0.51681
p99
aV0.51681
p100
aV0.51681
p101
aa(lp102
VAverage_F
p103
aV0.57143
p104
aV0.57143
p105
aV0.57143
p106
aasVROUGE-4
p107
(lp108
(lp109
VAverage_R
p110
aV0.31662
p111
aV0.31662
p112
aV0.31662
p113
aa(lp114
VAverage_P
p115
aV0.25532
p116
aV0.25532
p117
aV0.25532
p118
aa(lp119
VAverage_F
p120
aV0.28268
p121
aV0.28268
p122
aV0.28268
p123
aasVROUGE-2
p124
(lp125
(lp126
VAverage_R
p127
aV0.41775
p128
aV0.41775
p129
aV0.41775
p130
aa(lp131
VAverage_P
p132
aV0.33755
p133
aV0.33755
p134
aV0.33755
p135
aa(lp136
VAverage_F
p137
aV0.37339
p138
aV0.37339
p139
aV0.37339
p140
aasVROUGE-3
p141
(lp142
(lp143
VAverage_R
p144
aV0.35171
p145
aV0.35171
p146
aV0.35171
p147
aa(lp148
VAverage_P
p149
aV0.28390
p150
aV0.28390
p151
aV0.28390
p152
aa(lp153
VAverage_F
p154
aV0.31419
p155
aV0.31419
p156
aV0.31419
p157
aasVROUGE-1
p158
(lp159
(lp160
VAverage_R
p161
aV0.66753
p162
aV0.66753
p163
aV0.66753
p164
aa(lp165
VAverage_P
p166
aV0.53992
p167
aV0.53992
p168
aV0.53992
p169
aa(lp170
VAverage_F
p171
aV0.59698
p172
aV0.59698
p173
aV0.59698
p174
aassS'01'
p175
(dp176
VROUGE-L
p177
(lp178
(lp179
VAverage_R
p180
aV0.75065
p181
aV0.75065
p182
aV0.75065
p183
aa(lp184
VAverage_P
p185
aV0.62017
p186
aV0.62017
p187
aV0.62017
p188
aa(lp189
VAverage_F
p190
aV0.67920
p191
aV0.67920
p192
aV0.67920
p193
aasVROUGE-4
p194
(lp195
(lp196
VAverage_R
p197
aV0.48021
p198
aV0.48021
p199
aV0.48021
p200
aa(lp201
VAverage_P
p202
aV0.39565
p203
aV0.39565
p204
aV0.39565
p205
aa(lp206
VAverage_F
p207
aV0.43385
p208
aV0.43385
p209
aV0.43385
p210
aasVROUGE-2
p211
(lp212
(lp213
VAverage_R
p214
aV0.56397
p215
aV0.56397
p216
aV0.56397
p217
aa(lp218
VAverage_P
p219
aV0.46552
p220
aV0.46552
p221
aV0.46552
p222
aa(lp223
VAverage_F
p224
aV0.51004
p225
aV0.51004
p226
aV0.51004
p227
aasVROUGE-3
p228
(lp229
(lp230
VAverage_R
p231
aV0.50656
p232
aV0.50656
p233
aV0.50656
p234
aa(lp235
VAverage_P
p236
aV0.41775
p237
aV0.41775
p238
aV0.41775
p239
aa(lp240
VAverage_F
p241
aV0.45789
p242
aV0.45789
p243
aV0.45789
p244
aasVROUGE-1
p245
(lp246
(lp247
VAverage_R
p248
aV0.76364
p249
aV0.76364
p250
aV0.76364
p251
aa(lp252
VAverage_P
p253
aV0.63090
p254
aV0.63090
p255
aV0.63090
p256
aa(lp257
VAverage_F
p258
aV0.69095
p259
aV0.69095
p260
aV0.69095
p261
aassS'06'
p262
(dp263
VROUGE-L
p264
(lp265
(lp266
VAverage_R
p267
aV0.75065
p268
aV0.75065
p269
aV0.75065
p270
aa(lp271
VAverage_P
p272
aV0.62017
p273
aV0.62017
p274
aV0.62017
p275
aa(lp276
VAverage_F
p277
aV0.67920
p278
aV0.67920
p279
aV0.67920
p280
aasVROUGE-4
p281
(lp282
(lp283
VAverage_R
p284
aV0.48021
p285
aV0.48021
p286
aV0.48021
p287
aa(lp288
VAverage_P
p289
aV0.39565
p290
aV0.39565
p291
aV0.39565
p292
aa(lp293
VAverage_F
p294
aV0.43385
p295
aV0.43385
p296
aV0.43385
p297
aasVROUGE-2
p298
(lp299
(lp300
VAverage_R
p301
aV0.56397
p302
aV0.56397
p303
aV0.56397
p304
aa(lp305
VAverage_P
p306
aV0.46552
p307
aV0.46552
p308
aV0.46552
p309
aa(lp310
VAverage_F
p311
aV0.51004
p312
aV0.51004
p313
aV0.51004
p314
aasVROUGE-3
p315
(lp316
(lp317
VAverage_R
p318
aV0.50656
p319
aV0.50656
p320
aV0.50656
p321
aa(lp322
VAverage_P
p323
aV0.41775
p324
aV0.41775
p325
aV0.41775
p326
aa(lp327
VAverage_F
p328
aV0.45789
p329
aV0.45789
p330
aV0.45789
p331
aasVROUGE-1
p332
(lp333
(lp334
VAverage_R
p335
aV0.76364
p336
aV0.76364
p337
aV0.76364
p338
aa(lp339
VAverage_P
p340
aV0.63090
p341
aV0.63090
p342
aV0.63090
p343
aa(lp344
VAverage_F
p345
aV0.69095
p346
aV0.69095
p347
aV0.69095
p348
aassS'07'
p349
(dp350
VROUGE-L
p351
(lp352
(lp353
VAverage_R
p354
aV0.75065
p355
aV0.75065
p356
aV0.75065
p357
aa(lp358
VAverage_P
p359
aV0.62017
p360
aV0.62017
p361
aV0.62017
p362
aa(lp363
VAverage_F
p364
aV0.67920
p365
aV0.67920
p366
aV0.67920
p367
aasVROUGE-4
p368
(lp369
(lp370
VAverage_R
p371
aV0.49077
p372
aV0.49077
p373
aV0.49077
p374
aa(lp375
VAverage_P
p376
aV0.40435
p377
aV0.40435
p378
aV0.40435
p379
aa(lp380
VAverage_F
p381
aV0.44339
p382
aV0.44339
p383
aV0.44339
p384
aasVROUGE-2
p385
(lp386
(lp387
VAverage_R
p388
aV0.56919
p389
aV0.56919
p390
aV0.56919
p391
aa(lp392
VAverage_P
p393
aV0.46983
p394
aV0.46983
p395
aV0.46983
p396
aa(lp397
VAverage_F
p398
aV0.51476
p399
aV0.51476
p400
aV0.51476
p401
aasVROUGE-3
p402
(lp403
(lp404
VAverage_R
p405
aV0.51706
p406
aV0.51706
p407
aV0.51706
p408
aa(lp409
VAverage_P
p410
aV0.42641
p411
aV0.42641
p412
aV0.42641
p413
aa(lp414
VAverage_F
p415
aV0.46738
p416
aV0.46738
p417
aV0.46738
p418
aasVROUGE-1
p419
(lp420
(lp421
VAverage_R
p422
aV0.76364
p423
aV0.76364
p424
aV0.76364
p425
aa(lp426
VAverage_P
p427
aV0.63090
p428
aV0.63090
p429
aV0.63090
p430
aa(lp431
VAverage_F
p432
aV0.69095
p433
aV0.69095
p434
aV0.69095
p435
aassS'04'
p436
(dp437
VROUGE-L
p438
(lp439
(lp440
VAverage_R
p441
aV0.69351
p442
aV0.69351
p443
aV0.69351
p444
aa(lp445
VAverage_P
p446
aV0.63571
p447
aV0.63571
p448
aV0.63571
p449
aa(lp450
VAverage_F
p451
aV0.66335
p452
aV0.66335
p453
aV0.66335
p454
aasVROUGE-4
p455
(lp456
(lp457
VAverage_R
p458
aV0.43008
p459
aV0.43008
p460
aV0.43008
p461
aa(lp462
VAverage_P
p463
aV0.39372
p464
aV0.39372
p465
aV0.39372
p466
aa(lp467
VAverage_F
p468
aV0.41110
p469
aV0.41110
p470
aV0.41110
p471
aasVROUGE-2
p472
(lp473
(lp474
VAverage_R
p475
aV0.49347
p476
aV0.49347
p477
aV0.49347
p478
aa(lp479
VAverage_P
p480
aV0.45215
p481
aV0.45215
p482
aV0.45215
p483
aa(lp484
VAverage_F
p485
aV0.47191
p486
aV0.47191
p487
aV0.47191
p488
aasVROUGE-3
p489
(lp490
(lp491
VAverage_R
p492
aV0.44357
p493
aV0.44357
p494
aV0.44357
p495
aa(lp496
VAverage_P
p497
aV0.40625
p498
aV0.40625
p499
aV0.40625
p500
aa(lp501
VAverage_F
p502
aV0.42409
p503
aV0.42409
p504
aV0.42409
p505
aasVROUGE-1
p506
(lp507
(lp508
VAverage_R
p509
aV0.71688
p510
aV0.71688
p511
aV0.71688
p512
aa(lp513
VAverage_P
p514
aV0.65714
p515
aV0.65714
p516
aV0.65714
p517
aa(lp518
VAverage_F
p519
aV0.68571
p520
aV0.68571
p521
aV0.68571
p522
aassS'05'
p523
(dp524
VROUGE-L
p525
(lp526
(lp527
VAverage_R
p528
aV0.75065
p529
aV0.75065
p530
aV0.75065
p531
aa(lp532
VAverage_P
p533
aV0.62017
p534
aV0.62017
p535
aV0.62017
p536
aa(lp537
VAverage_F
p538
aV0.67920
p539
aV0.67920
p540
aV0.67920
p541
aasVROUGE-4
p542
(lp543
(lp544
VAverage_R
p545
aV0.48021
p546
aV0.48021
p547
aV0.48021
p548
aa(lp549
VAverage_P
p550
aV0.39565
p551
aV0.39565
p552
aV0.39565
p553
aa(lp554
VAverage_F
p555
aV0.43385
p556
aV0.43385
p557
aV0.43385
p558
aasVROUGE-2
p559
(lp560
(lp561
VAverage_R
p562
aV0.56397
p563
aV0.56397
p564
aV0.56397
p565
aa(lp566
VAverage_P
p567
aV0.46552
p568
aV0.46552
p569
aV0.46552
p570
aa(lp571
VAverage_F
p572
aV0.51004
p573
aV0.51004
p574
aV0.51004
p575
aasVROUGE-3
p576
(lp577
(lp578
VAverage_R
p579
aV0.50656
p580
aV0.50656
p581
aV0.50656
p582
aa(lp583
VAverage_P
p584
aV0.41775
p585
aV0.41775
p586
aV0.41775
p587
aa(lp588
VAverage_F
p589
aV0.45789
p590
aV0.45789
p591
aV0.45789
p592
aasVROUGE-1
p593
(lp594
(lp595
VAverage_R
p596
aV0.76364
p597
aV0.76364
p598
aV0.76364
p599
aa(lp600
VAverage_P
p601
aV0.63090
p602
aV0.63090
p603
aV0.63090
p604
aa(lp605
VAverage_F
p606
aV0.69095
p607
aV0.69095
p608
aV0.69095
p609
aassS'46'
p610
(dp611
VROUGE-L
p612
(lp613
(lp614
VAverage_R
p615
aV0.82597
p616
aV0.82597
p617
aV0.82597
p618
aa(lp619
VAverage_P
p620
aV0.67949
p621
aV0.67949
p622
aV0.67949
p623
aa(lp624
VAverage_F
p625
aV0.74560
p626
aV0.74560
p627
aV0.74560
p628
aasVROUGE-4
p629
(lp630
(lp631
VAverage_R
p632
aV0.57256
p633
aV0.57256
p634
aV0.57256
p635
aa(lp636
VAverage_P
p637
aV0.46970
p638
aV0.46970
p639
aV0.46970
p640
aa(lp641
VAverage_F
p642
aV0.51605
p643
aV0.51605
p644
aV0.51605
p645
aasVROUGE-2
p646
(lp647
(lp648
VAverage_R
p649
aV0.68668
p650
aV0.68668
p651
aV0.68668
p652
aa(lp653
VAverage_P
p654
aV0.56438
p655
aV0.56438
p656
aV0.56438
p657
aa(lp658
VAverage_F
p659
aV0.61955
p660
aV0.61955
p661
aV0.61955
p662
aasVROUGE-3
p663
(lp664
(lp665
VAverage_R
p666
aV0.62205
p667
aV0.62205
p668
aV0.62205
p669
aa(lp670
VAverage_P
p671
aV0.51078
p672
aV0.51078
p673
aV0.51078
p674
aa(lp675
VAverage_F
p676
aV0.56095
p677
aV0.56095
p678
aV0.56095
p679
aasVROUGE-1
p680
(lp681
(lp682
VAverage_R
p683
aV0.83636
p684
aV0.83636
p685
aV0.83636
p686
aa(lp687
VAverage_P
p688
aV0.68803
p689
aV0.68803
p690
aV0.68803
p691
aa(lp692
VAverage_F
p693
aV0.75498
p694
aV0.75498
p695
aV0.75498
p696
aassS'47'
p697
(dp698
VROUGE-L
p699
(lp700
(lp701
VAverage_R
p702
aV0.79221
p703
aV0.79221
p704
aV0.79221
p705
aa(lp706
VAverage_P
p707
aV0.70930
p708
aV0.70930
p709
aV0.70930
p710
aa(lp711
VAverage_F
p712
aV0.74847
p713
aV0.74847
p714
aV0.74847
p715
aasVROUGE-4
p716
(lp717
(lp718
VAverage_R
p719
aV0.54090
p720
aV0.54090
p721
aV0.54090
p722
aa(lp723
VAverage_P
p724
aV0.48349
p725
aV0.48349
p726
aV0.48349
p727
aa(lp728
VAverage_F
p729
aV0.51059
p730
aV0.51059
p731
aV0.51059
p732
aasVROUGE-2
p733
(lp734
(lp735
VAverage_R
p736
aV0.64491
p737
aV0.64491
p738
aV0.64491
p739
aa(lp740
VAverage_P
p741
aV0.57710
p742
aV0.57710
p743
aV0.57710
p744
aa(lp745
VAverage_F
p746
aV0.60912
p747
aV0.60912
p748
aV0.60912
p749
aasVROUGE-3
p750
(lp751
(lp752
VAverage_R
p753
aV0.58005
p754
aV0.58005
p755
aV0.58005
p756
aa(lp757
VAverage_P
p758
aV0.51878
p759
aV0.51878
p760
aV0.51878
p761
aa(lp762
VAverage_F
p763
aV0.54771
p764
aV0.54771
p765
aV0.54771
p766
aasVROUGE-1
p767
(lp768
(lp769
VAverage_R
p770
aV0.80519
p771
aV0.80519
p772
aV0.80519
p773
aa(lp774
VAverage_P
p775
aV0.72093
p776
aV0.72093
p777
aV0.72093
p778
aa(lp779
VAverage_F
p780
aV0.76073
p781
aV0.76073
p782
aV0.76073
p783
aassS'08'
p784
(dp785
VROUGE-L
p786
(lp787
(lp788
VAverage_R
p789
aV0.75065
p790
aV0.75065
p791
aV0.75065
p792
aa(lp793
VAverage_P
p794
aV0.62017
p795
aV0.62017
p796
aV0.62017
p797
aa(lp798
VAverage_F
p799
aV0.67920
p800
aV0.67920
p801
aV0.67920
p802
aasVROUGE-4
p803
(lp804
(lp805
VAverage_R
p806
aV0.48021
p807
aV0.48021
p808
aV0.48021
p809
aa(lp810
VAverage_P
p811
aV0.39565
p812
aV0.39565
p813
aV0.39565
p814
aa(lp815
VAverage_F
p816
aV0.43385
p817
aV0.43385
p818
aV0.43385
p819
aasVROUGE-2
p820
(lp821
(lp822
VAverage_R
p823
aV0.56397
p824
aV0.56397
p825
aV0.56397
p826
aa(lp827
VAverage_P
p828
aV0.46552
p829
aV0.46552
p830
aV0.46552
p831
aa(lp832
VAverage_F
p833
aV0.51004
p834
aV0.51004
p835
aV0.51004
p836
aasVROUGE-3
p837
(lp838
(lp839
VAverage_R
p840
aV0.50656
p841
aV0.50656
p842
aV0.50656
p843
aa(lp844
VAverage_P
p845
aV0.41775
p846
aV0.41775
p847
aV0.41775
p848
aa(lp849
VAverage_F
p850
aV0.45789
p851
aV0.45789
p852
aV0.45789
p853
aasVROUGE-1
p854
(lp855
(lp856
VAverage_R
p857
aV0.76364
p858
aV0.76364
p859
aV0.76364
p860
aa(lp861
VAverage_P
p862
aV0.63090
p863
aV0.63090
p864
aV0.63090
p865
aa(lp866
VAverage_F
p867
aV0.69095
p868
aV0.69095
p869
aV0.69095
p870
aassS'09'
p871
(dp872
VROUGE-L
p873
(lp874
(lp875
VAverage_R
p876
aV0.75065
p877
aV0.75065
p878
aV0.75065
p879
aa(lp880
VAverage_P
p881
aV0.62017
p882
aV0.62017
p883
aV0.62017
p884
aa(lp885
VAverage_F
p886
aV0.67920
p887
aV0.67920
p888
aV0.67920
p889
aasVROUGE-4
p890
(lp891
(lp892
VAverage_R
p893
aV0.48021
p894
aV0.48021
p895
aV0.48021
p896
aa(lp897
VAverage_P
p898
aV0.39565
p899
aV0.39565
p900
aV0.39565
p901
aa(lp902
VAverage_F
p903
aV0.43385
p904
aV0.43385
p905
aV0.43385
p906
aasVROUGE-2
p907
(lp908
(lp909
VAverage_R
p910
aV0.56397
p911
aV0.56397
p912
aV0.56397
p913
aa(lp914
VAverage_P
p915
aV0.46552
p916
aV0.46552
p917
aV0.46552
p918
aa(lp919
VAverage_F
p920
aV0.51004
p921
aV0.51004
p922
aV0.51004
p923
aasVROUGE-3
p924
(lp925
(lp926
VAverage_R
p927
aV0.50656
p928
aV0.50656
p929
aV0.50656
p930
aa(lp931
VAverage_P
p932
aV0.41775
p933
aV0.41775
p934
aV0.41775
p935
aa(lp936
VAverage_F
p937
aV0.45789
p938
aV0.45789
p939
aV0.45789
p940
aasVROUGE-1
p941
(lp942
(lp943
VAverage_R
p944
aV0.76364
p945
aV0.76364
p946
aV0.76364
p947
aa(lp948
VAverage_P
p949
aV0.63090
p950
aV0.63090
p951
aV0.63090
p952
aa(lp953
VAverage_F
p954
aV0.69095
p955
aV0.69095
p956
aV0.69095
p957
aassS'42'
p958
(dp959
VROUGE-L
p960
(lp961
(lp962
VAverage_R
p963
aV0.75584
p964
aV0.75584
p965
aV0.75584
p966
aa(lp967
VAverage_P
p968
aV0.67674
p969
aV0.67674
p970
aV0.67674
p971
aa(lp972
VAverage_F
p973
aV0.71411
p974
aV0.71411
p975
aV0.71411
p976
aasVROUGE-4
p977
(lp978
(lp979
VAverage_R
p980
aV0.50660
p981
aV0.50660
p982
aV0.50660
p983
aa(lp984
VAverage_P
p985
aV0.45283
p986
aV0.45283
p987
aV0.45283
p988
aa(lp989
VAverage_F
p990
aV0.47821
p991
aV0.47821
p992
aV0.47821
p993
aasVROUGE-2
p994
(lp995
(lp996
VAverage_R
p997
aV0.60836
p998
aV0.60836
p999
aV0.60836
p1000
aa(lp1001
VAverage_P
p1002
aV0.54439
p1003
aV0.54439
p1004
aV0.54439
p1005
aa(lp1006
VAverage_F
p1007
aV0.57460
p1008
aV0.57460
p1009
aV0.57460
p1010
aasVROUGE-3
p1011
(lp1012
(lp1013
VAverage_R
p1014
aV0.54856
p1015
aV0.54856
p1016
aV0.54856
p1017
aa(lp1018
VAverage_P
p1019
aV0.49061
p1020
aV0.49061
p1021
aV0.49061
p1022
aa(lp1023
VAverage_F
p1024
aV0.51797
p1025
aV0.51797
p1026
aV0.51797
p1027
aasVROUGE-1
p1028
(lp1029
(lp1030
VAverage_R
p1031
aV0.76623
p1032
aV0.76623
p1033
aV0.76623
p1034
aa(lp1035
VAverage_P
p1036
aV0.68605
p1037
aV0.68605
p1038
aV0.68605
p1039
aa(lp1040
VAverage_F
p1041
aV0.72393
p1042
aV0.72393
p1043
aV0.72393
p1044
aassS'43'
p1045
(dp1046
VROUGE-L
p1047
(lp1048
(lp1049
VAverage_R
p1050
aV0.82597
p1051
aV0.82597
p1052
aV0.82597
p1053
aa(lp1054
VAverage_P
p1055
aV0.67949
p1056
aV0.67949
p1057
aV0.67949
p1058
aa(lp1059
VAverage_F
p1060
aV0.74560
p1061
aV0.74560
p1062
aV0.74560
p1063
aasVROUGE-4
p1064
(lp1065
(lp1066
VAverage_R
p1067
aV0.60422
p1068
aV0.60422
p1069
aV0.60422
p1070
aa(lp1071
VAverage_P
p1072
aV0.49567
p1073
aV0.49567
p1074
aV0.49567
p1075
aa(lp1076
VAverage_F
p1077
aV0.54459
p1078
aV0.54459
p1079
aV0.54459
p1080
aasVROUGE-2
p1081
(lp1082
(lp1083
VAverage_R
p1084
aV0.69713
p1085
aV0.69713
p1086
aV0.69713
p1087
aa(lp1088
VAverage_P
p1089
aV0.57296
p1090
aV0.57296
p1091
aV0.57296
p1092
aa(lp1093
VAverage_F
p1094
aV0.62898
p1095
aV0.62898
p1096
aV0.62898
p1097
aasVROUGE-3
p1098
(lp1099
(lp1100
VAverage_R
p1101
aV0.64304
p1102
aV0.64304
p1103
aV0.64304
p1104
aa(lp1105
VAverage_P
p1106
aV0.52802
p1107
aV0.52802
p1108
aV0.52802
p1109
aa(lp1110
VAverage_F
p1111
aV0.57988
p1112
aV0.57988
p1113
aV0.57988
p1114
aasVROUGE-1
p1115
(lp1116
(lp1117
VAverage_R
p1118
aV0.83636
p1119
aV0.83636
p1120
aV0.83636
p1121
aa(lp1122
VAverage_P
p1123
aV0.68803
p1124
aV0.68803
p1125
aV0.68803
p1126
aa(lp1127
VAverage_F
p1128
aV0.75498
p1129
aV0.75498
p1130
aV0.75498
p1131
aassS'41'
p1132
(dp1133
VROUGE-L
p1134
(lp1135
(lp1136
VAverage_R
p1137
aV0.79221
p1138
aV0.79221
p1139
aV0.79221
p1140
aa(lp1141
VAverage_P
p1142
aV0.70930
p1143
aV0.70930
p1144
aV0.70930
p1145
aa(lp1146
VAverage_F
p1147
aV0.74847
p1148
aV0.74847
p1149
aV0.74847
p1150
aasVROUGE-4
p1151
(lp1152
(lp1153
VAverage_R
p1154
aV0.52507
p1155
aV0.52507
p1156
aV0.52507
p1157
aa(lp1158
VAverage_P
p1159
aV0.46934
p1160
aV0.46934
p1161
aV0.46934
p1162
aa(lp1163
VAverage_F
p1164
aV0.49564
p1165
aV0.49564
p1166
aV0.49564
p1167
aasVROUGE-2
p1168
(lp1169
(lp1170
VAverage_R
p1171
aV0.63969
p1172
aV0.63969
p1173
aV0.63969
p1174
aa(lp1175
VAverage_P
p1176
aV0.57243
p1177
aV0.57243
p1178
aV0.57243
p1179
aa(lp1180
VAverage_F
p1181
aV0.60419
p1182
aV0.60419
p1183
aV0.60419
p1184
aasVROUGE-3
p1185
(lp1186
(lp1187
VAverage_R
p1188
aV0.56955
p1189
aV0.56955
p1190
aV0.56955
p1191
aa(lp1192
VAverage_P
p1193
aV0.50939
p1194
aV0.50939
p1195
aV0.50939
p1196
aa(lp1197
VAverage_F
p1198
aV0.53779
p1199
aV0.53779
p1200
aV0.53779
p1201
aasVROUGE-1
p1202
(lp1203
(lp1204
VAverage_R
p1205
aV0.80519
p1206
aV0.80519
p1207
aV0.80519
p1208
aa(lp1209
VAverage_P
p1210
aV0.72093
p1211
aV0.72093
p1212
aV0.72093
p1213
aa(lp1214
VAverage_F
p1215
aV0.76073
p1216
aV0.76073
p1217
aV0.76073
p1218
aassS'49'
p1219
(dp1220
VROUGE-L
p1221
(lp1222
(lp1223
VAverage_R
p1224
aV0.82597
p1225
aV0.82597
p1226
aV0.82597
p1227
aa(lp1228
VAverage_P
p1229
aV0.67949
p1230
aV0.67949
p1231
aV0.67949
p1232
aa(lp1233
VAverage_F
p1234
aV0.74560
p1235
aV0.74560
p1236
aV0.74560
p1237
aasVROUGE-4
p1238
(lp1239
(lp1240
VAverage_R
p1241
aV0.58047
p1242
aV0.58047
p1243
aV0.58047
p1244
aa(lp1245
VAverage_P
p1246
aV0.47619
p1247
aV0.47619
p1248
aV0.47619
p1249
aa(lp1250
VAverage_F
p1251
aV0.52318
p1252
aV0.52318
p1253
aV0.52318
p1254
aasVROUGE-2
p1255
(lp1256
(lp1257
VAverage_R
p1258
aV0.68930
p1259
aV0.68930
p1260
aV0.68930
p1261
aa(lp1262
VAverage_P
p1263
aV0.56652
p1264
aV0.56652
p1265
aV0.56652
p1266
aa(lp1267
VAverage_F
p1268
aV0.62191
p1269
aV0.62191
p1270
aV0.62191
p1271
aasVROUGE-3
p1272
(lp1273
(lp1274
VAverage_R
p1275
aV0.62730
p1276
aV0.62730
p1277
aV0.62730
p1278
aa(lp1279
VAverage_P
p1280
aV0.51509
p1281
aV0.51509
p1282
aV0.51509
p1283
aa(lp1284
VAverage_F
p1285
aV0.56568
p1286
aV0.56568
p1287
aV0.56568
p1288
aasVROUGE-1
p1289
(lp1290
(lp1291
VAverage_R
p1292
aV0.83636
p1293
aV0.83636
p1294
aV0.83636
p1295
aa(lp1296
VAverage_P
p1297
aV0.68803
p1298
aV0.68803
p1299
aV0.68803
p1300
aa(lp1301
VAverage_F
p1302
aV0.75498
p1303
aV0.75498
p1304
aV0.75498
p1305
aassS'48'
p1306
(dp1307
VROUGE-L
p1308
(lp1309
(lp1310
VAverage_R
p1311
aV0.82597
p1312
aV0.82597
p1313
aV0.82597
p1314
aa(lp1315
VAverage_P
p1316
aV0.67949
p1317
aV0.67949
p1318
aV0.67949
p1319
aa(lp1320
VAverage_F
p1321
aV0.74560
p1322
aV0.74560
p1323
aV0.74560
p1324
aasVROUGE-4
p1325
(lp1326
(lp1327
VAverage_R
p1328
aV0.60422
p1329
aV0.60422
p1330
aV0.60422
p1331
aa(lp1332
VAverage_P
p1333
aV0.49567
p1334
aV0.49567
p1335
aV0.49567
p1336
aa(lp1337
VAverage_F
p1338
aV0.54459
p1339
aV0.54459
p1340
aV0.54459
p1341
aasVROUGE-2
p1342
(lp1343
(lp1344
VAverage_R
p1345
aV0.69713
p1346
aV0.69713
p1347
aV0.69713
p1348
aa(lp1349
VAverage_P
p1350
aV0.57296
p1351
aV0.57296
p1352
aV0.57296
p1353
aa(lp1354
VAverage_F
p1355
aV0.62898
p1356
aV0.62898
p1357
aV0.62898
p1358
aasVROUGE-3
p1359
(lp1360
(lp1361
VAverage_R
p1362
aV0.64304
p1363
aV0.64304
p1364
aV0.64304
p1365
aa(lp1366
VAverage_P
p1367
aV0.52802
p1368
aV0.52802
p1369
aV0.52802
p1370
aa(lp1371
VAverage_F
p1372
aV0.57988
p1373
aV0.57988
p1374
aV0.57988
p1375
aasVROUGE-1
p1376
(lp1377
(lp1378
VAverage_R
p1379
aV0.83636
p1380
aV0.83636
p1381
aV0.83636
p1382
aa(lp1383
VAverage_P
p1384
aV0.68803
p1385
aV0.68803
p1386
aV0.68803
p1387
aa(lp1388
VAverage_F
p1389
aV0.75498
p1390
aV0.75498
p1391
aV0.75498
p1392
aassS'45'
p1393
(dp1394
VROUGE-L
p1395
(lp1396
(lp1397
VAverage_R
p1398
aV0.79221
p1399
aV0.79221
p1400
aV0.79221
p1401
aa(lp1402
VAverage_P
p1403
aV0.70930
p1404
aV0.70930
p1405
aV0.70930
p1406
aa(lp1407
VAverage_F
p1408
aV0.74847
p1409
aV0.74847
p1410
aV0.74847
p1411
aasVROUGE-4
p1412
(lp1413
(lp1414
VAverage_R
p1415
aV0.52507
p1416
aV0.52507
p1417
aV0.52507
p1418
aa(lp1419
VAverage_P
p1420
aV0.46934
p1421
aV0.46934
p1422
aV0.46934
p1423
aa(lp1424
VAverage_F
p1425
aV0.49564
p1426
aV0.49564
p1427
aV0.49564
p1428
aasVROUGE-2
p1429
(lp1430
(lp1431
VAverage_R
p1432
aV0.63969
p1433
aV0.63969
p1434
aV0.63969
p1435
aa(lp1436
VAverage_P
p1437
aV0.57243
p1438
aV0.57243
p1439
aV0.57243
p1440
aa(lp1441
VAverage_F
p1442
aV0.60419
p1443
aV0.60419
p1444
aV0.60419
p1445
aasVROUGE-3
p1446
(lp1447
(lp1448
VAverage_R
p1449
aV0.56955
p1450
aV0.56955
p1451
aV0.56955
p1452
aa(lp1453
VAverage_P
p1454
aV0.50939
p1455
aV0.50939
p1456
aV0.50939
p1457
aa(lp1458
VAverage_F
p1459
aV0.53779
p1460
aV0.53779
p1461
aV0.53779
p1462
aasVROUGE-1
p1463
(lp1464
(lp1465
VAverage_R
p1466
aV0.80519
p1467
aV0.80519
p1468
aV0.80519
p1469
aa(lp1470
VAverage_P
p1471
aV0.72093
p1472
aV0.72093
p1473
aV0.72093
p1474
aa(lp1475
VAverage_F
p1476
aV0.76073
p1477
aV0.76073
p1478
aV0.76073
p1479
aassS'44'
p1480
(dp1481
VROUGE-L
p1482
(lp1483
(lp1484
VAverage_R
p1485
aV0.75584
p1486
aV0.75584
p1487
aV0.75584
p1488
aa(lp1489
VAverage_P
p1490
aV0.67674
p1491
aV0.67674
p1492
aV0.67674
p1493
aa(lp1494
VAverage_F
p1495
aV0.71411
p1496
aV0.71411
p1497
aV0.71411
p1498
aasVROUGE-4
p1499
(lp1500
(lp1501
VAverage_R
p1502
aV0.50132
p1503
aV0.50132
p1504
aV0.50132
p1505
aa(lp1506
VAverage_P
p1507
aV0.44811
p1508
aV0.44811
p1509
aV0.44811
p1510
aa(lp1511
VAverage_F
p1512
aV0.47322
p1513
aV0.47322
p1514
aV0.47322
p1515
aasVROUGE-2
p1516
(lp1517
(lp1518
VAverage_R
p1519
aV0.60836
p1520
aV0.60836
p1521
aV0.60836
p1522
aa(lp1523
VAverage_P
p1524
aV0.54439
p1525
aV0.54439
p1526
aV0.54439
p1527
aa(lp1528
VAverage_F
p1529
aV0.57460
p1530
aV0.57460
p1531
aV0.57460
p1532
aasVROUGE-3
p1533
(lp1534
(lp1535
VAverage_R
p1536
aV0.54593
p1537
aV0.54593
p1538
aV0.54593
p1539
aa(lp1540
VAverage_P
p1541
aV0.48826
p1542
aV0.48826
p1543
aV0.48826
p1544
aa(lp1545
VAverage_F
p1546
aV0.51549
p1547
aV0.51549
p1548
aV0.51549
p1549
aasVROUGE-1
p1550
(lp1551
(lp1552
VAverage_R
p1553
aV0.76623
p1554
aV0.76623
p1555
aV0.76623
p1556
aa(lp1557
VAverage_P
p1558
aV0.68605
p1559
aV0.68605
p1560
aV0.68605
p1561
aa(lp1562
VAverage_F
p1563
aV0.72393
p1564
aV0.72393
p1565
aV0.72393
p1566
aass.