(dp0
S'02'
p1
(dp2
VROUGE-L
p3
(lp4
(lp5
VAverage_R
p6
aV0.43868
p7
aV0.40616
p8
aV0.47001
p9
aa(lp10
VAverage_P
p11
aV0.26787
p12
aV0.24097
p13
aV0.29650
p14
aa(lp15
VAverage_F
p16
aV0.32903
p17
aV0.29995
p18
aV0.35698
p19
aasVROUGE-4
p20
(lp21
(lp22
VAverage_R
p23
aV0.02370
p24
aV0.01196
p25
aV0.03888
p26
aa(lp27
VAverage_P
p28
aV0.01556
p29
aV0.00705
p30
aV0.02787
p31
aa(lp32
VAverage_F
p33
aV0.01841
p34
aV0.00872
p35
aV0.03158
p36
aasVROUGE-2
p37
(lp38
(lp39
VAverage_R
p40
aV0.10692
p41
aV0.08533
p42
aV0.12930
p43
aa(lp44
VAverage_P
p45
aV0.06595
p46
aV0.05152
p47
aV0.08274
p48
aa(lp49
VAverage_F
p50
aV0.08057
p51
aV0.06372
p52
aV0.09898
p53
aasVROUGE-3
p54
(lp55
(lp56
VAverage_R
p57
aV0.03845
p58
aV0.02328
p59
aV0.05676
p60
aa(lp61
VAverage_P
p62
aV0.02433
p63
aV0.01405
p64
aV0.03844
p65
aa(lp66
VAverage_F
p67
aV0.02927
p68
aV0.01743
p69
aV0.04457
p70
aasVROUGE-1
p71
(lp72
(lp73
VAverage_R
p74
aV0.47380
p75
aV0.44036
p76
aV0.50576
p77
aa(lp78
VAverage_P
p79
aV0.28912
p80
aV0.26142
p81
aV0.31900
p82
aa(lp83
VAverage_F
p84
aV0.35522
p85
aV0.32517
p86
aV0.38385
p87
aassS'03'
p88
(dp89
VROUGE-L
p90
(lp91
(lp92
VAverage_R
p93
aV0.35262
p94
aV0.32449
p95
aV0.38173
p96
aa(lp97
VAverage_P
p98
aV0.34110
p99
aV0.30642
p100
aV0.37576
p101
aa(lp102
VAverage_F
p103
aV0.34043
p104
aV0.31251
p105
aV0.36899
p106
aasVROUGE-4
p107
(lp108
(lp109
VAverage_R
p110
aV0.00852
p111
aV0.00467
p112
aV0.01286
p113
aa(lp114
VAverage_P
p115
aV0.00816
p116
aV0.00440
p117
aV0.01296
p118
aa(lp119
VAverage_F
p120
aV0.00823
p121
aV0.00439
p122
aV0.01278
p123
aasVROUGE-2
p124
(lp125
(lp126
VAverage_R
p127
aV0.08653
p128
aV0.07185
p129
aV0.10167
p130
aa(lp131
VAverage_P
p132
aV0.08489
p133
aV0.06789
p134
aV0.10147
p135
aa(lp136
VAverage_F
p137
aV0.08406
p138
aV0.06871
p139
aV0.09889
p140
aasVROUGE-3
p141
(lp142
(lp143
VAverage_R
p144
aV0.02453
p145
aV0.01751
p146
aV0.03191
p147
aa(lp148
VAverage_P
p149
aV0.02406
p150
aV0.01679
p151
aV0.03236
p152
aa(lp153
VAverage_F
p154
aV0.02382
p155
aV0.01681
p156
aV0.03158
p157
aasVROUGE-1
p158
(lp159
(lp160
VAverage_R
p161
aV0.38045
p162
aV0.35252
p163
aV0.40887
p164
aa(lp165
VAverage_P
p166
aV0.36890
p167
aV0.33212
p168
aV0.40614
p169
aa(lp170
VAverage_F
p171
aV0.36767
p172
aV0.33906
p173
aV0.39633
p174
aassS'01'
p175
(dp176
VROUGE-L
p177
(lp178
(lp179
VAverage_R
p180
aV0.33840
p181
aV0.30433
p182
aV0.37150
p183
aa(lp184
VAverage_P
p185
aV0.32801
p186
aV0.29247
p187
aV0.36296
p188
aa(lp189
VAverage_F
p190
aV0.32842
p191
aV0.29549
p192
aV0.35908
p193
aasVROUGE-4
p194
(lp195
(lp196
VAverage_R
p197
aV0.01809
p198
aV0.00910
p199
aV0.02981
p200
aa(lp201
VAverage_P
p202
aV0.02020
p203
aV0.00839
p204
aV0.03878
p205
aa(lp206
VAverage_F
p207
aV0.01851
p208
aV0.00862
p209
aV0.03214
p210
aasVROUGE-2
p211
(lp212
(lp213
VAverage_R
p214
aV0.09334
p215
aV0.07371
p216
aV0.11387
p217
aa(lp218
VAverage_P
p219
aV0.09216
p220
aV0.07050
p221
aV0.11883
p222
aa(lp223
VAverage_F
p224
aV0.09120
p225
aV0.07176
p226
aV0.11336
p227
aasVROUGE-3
p228
(lp229
(lp230
VAverage_R
p231
aV0.03268
p232
aV0.02115
p233
aV0.04692
p234
aa(lp235
VAverage_P
p236
aV0.03419
p237
aV0.01976
p238
aV0.05458
p239
aa(lp240
VAverage_F
p241
aV0.03261
p242
aV0.02019
p243
aV0.04917
p244
aasVROUGE-1
p245
(lp246
(lp247
VAverage_R
p248
aV0.36243
p249
aV0.32782
p250
aV0.39630
p251
aa(lp252
VAverage_P
p253
aV0.35159
p254
aV0.31510
p255
aV0.38773
p256
aa(lp257
VAverage_F
p258
aV0.35183
p259
aV0.31823
p260
aV0.38323
p261
aassS'04'
p262
(dp263
VROUGE-L
p264
(lp265
(lp266
VAverage_R
p267
aV0.46538
p268
aV0.42742
p269
aV0.50166
p270
aa(lp271
VAverage_P
p272
aV0.28054
p273
aV0.24691
p274
aV0.31644
p275
aa(lp276
VAverage_F
p277
aV0.34342
p278
aV0.30973
p279
aV0.37905
p280
aasVROUGE-4
p281
(lp282
(lp283
VAverage_R
p284
aV0.03357
p285
aV0.01163
p286
aV0.06479
p287
aa(lp288
VAverage_P
p289
aV0.02407
p290
aV0.00662
p291
aV0.05111
p292
aa(lp293
VAverage_F
p294
aV0.02738
p295
aV0.00835
p296
aV0.05579
p297
aasVROUGE-2
p298
(lp299
(lp300
VAverage_R
p301
aV0.13573
p302
aV0.11060
p303
aV0.16701
p304
aa(lp305
VAverage_P
p306
aV0.08502
p307
aV0.06438
p308
aV0.11186
p309
aa(lp310
VAverage_F
p311
aV0.10235
p312
aV0.08092
p313
aV0.12973
p314
aasVROUGE-3
p315
(lp316
(lp317
VAverage_R
p318
aV0.05472
p319
aV0.03264
p320
aV0.08579
p321
aa(lp322
VAverage_P
p323
aV0.03630
p324
aV0.01791
p325
aV0.06304
p326
aa(lp327
VAverage_F
p328
aV0.04253
p329
aV0.02290
p330
aV0.07183
p331
aasVROUGE-1
p332
(lp333
(lp334
VAverage_R
p335
aV0.50176
p336
aV0.46556
p337
aV0.53708
p338
aa(lp339
VAverage_P
p340
aV0.30285
p341
aV0.26791
p342
aV0.33974
p343
aa(lp344
VAverage_F
p345
aV0.37077
p346
aV0.33548
p347
aV0.40793
p348
aassS'33'
p349
(dp350
VROUGE-L
p351
(lp352
(lp353
VAverage_R
p354
aV0.39579
p355
aV0.35910
p356
aV0.43222
p357
aa(lp358
VAverage_P
p359
aV0.32000
p360
aV0.28875
p361
aV0.35160
p362
aa(lp363
VAverage_F
p364
aV0.35066
p365
aV0.31739
p366
aV0.38336
p367
aasVROUGE-4
p368
(lp369
(lp370
VAverage_R
p371
aV0.02048
p372
aV0.00898
p373
aV0.03583
p374
aa(lp375
VAverage_P
p376
aV0.01718
p377
aV0.00747
p378
aV0.02987
p379
aa(lp380
VAverage_F
p381
aV0.01852
p382
aV0.00802
p383
aV0.03217
p384
aasVROUGE-2
p385
(lp386
(lp387
VAverage_R
p388
aV0.10052
p389
aV0.07999
p390
aV0.12179
p391
aa(lp392
VAverage_P
p393
aV0.08228
p394
aV0.06482
p395
aV0.10125
p396
aa(lp397
VAverage_F
p398
aV0.08976
p399
aV0.07133
p400
aV0.10956
p401
aasVROUGE-3
p402
(lp403
(lp404
VAverage_R
p405
aV0.03625
p406
aV0.02236
p407
aV0.05320
p408
aa(lp409
VAverage_P
p410
aV0.03034
p411
aV0.01841
p412
aV0.04533
p413
aa(lp414
VAverage_F
p415
aV0.03277
p416
aV0.02021
p417
aV0.04841
p418
aasVROUGE-1
p419
(lp420
(lp421
VAverage_R
p422
aV0.42632
p423
aV0.38681
p424
aV0.46364
p425
aa(lp426
VAverage_P
p427
aV0.34528
p428
aV0.31183
p429
aV0.37747
p430
aa(lp431
VAverage_F
p432
aV0.37801
p433
aV0.34329
p434
aV0.41083
p435
aassS'32'
p436
(dp437
VROUGE-L
p438
(lp439
(lp440
VAverage_R
p441
aV0.41880
p442
aV0.38325
p443
aV0.45386
p444
aa(lp445
VAverage_P
p446
aV0.30173
p447
aV0.27267
p448
aV0.33152
p449
aa(lp450
VAverage_F
p451
aV0.34710
p452
aV0.31598
p453
aV0.37873
p454
aasVROUGE-4
p455
(lp456
(lp457
VAverage_R
p458
aV0.02309
p459
aV0.00968
p460
aV0.04079
p461
aa(lp462
VAverage_P
p463
aV0.01686
p464
aV0.00738
p465
aV0.02952
p466
aa(lp467
VAverage_F
p468
aV0.01936
p469
aV0.00826
p470
aV0.03440
p471
aasVROUGE-2
p472
(lp473
(lp474
VAverage_R
p475
aV0.10800
p476
aV0.08521
p477
aV0.13166
p478
aa(lp479
VAverage_P
p480
aV0.07858
p481
aV0.06139
p482
aV0.09699
p483
aa(lp484
VAverage_F
p485
aV0.09021
p486
aV0.07087
p487
aV0.11071
p488
aasVROUGE-3
p489
(lp490
(lp491
VAverage_R
p492
aV0.03929
p493
aV0.02357
p494
aV0.05920
p495
aa(lp496
VAverage_P
p497
aV0.02872
p498
aV0.01726
p499
aV0.04371
p500
aa(lp501
VAverage_F
p502
aV0.03293
p503
aV0.01981
p504
aV0.04989
p505
aasVROUGE-1
p506
(lp507
(lp508
VAverage_R
p509
aV0.45087
p510
aV0.41333
p511
aV0.48683
p512
aa(lp513
VAverage_P
p514
aV0.32569
p515
aV0.29458
p516
aV0.35689
p517
aa(lp518
VAverage_F
p519
aV0.37421
p520
aV0.34157
p521
aV0.40720
p522
aassS'31'
p523
(dp524
VROUGE-L
p525
(lp526
(lp527
VAverage_R
p528
aV0.37428
p529
aV0.33807
p530
aV0.40787
p531
aa(lp532
VAverage_P
p533
aV0.31211
p534
aV0.27871
p535
aV0.34716
p536
aa(lp537
VAverage_F
p538
aV0.33615
p539
aV0.30340
p540
aV0.36833
p541
aasVROUGE-4
p542
(lp543
(lp544
VAverage_R
p545
aV0.01784
p546
aV0.00710
p547
aV0.03256
p548
aa(lp549
VAverage_P
p550
aV0.01788
p551
aV0.00597
p552
aV0.03671
p553
aa(lp554
VAverage_F
p555
aV0.01757
p556
aV0.00648
p557
aV0.03377
p558
aasVROUGE-2
p559
(lp560
(lp561
VAverage_R
p562
aV0.09342
p563
aV0.07294
p564
aV0.11555
p565
aa(lp566
VAverage_P
p567
aV0.08108
p568
aV0.06111
p569
aV0.10578
p570
aa(lp571
VAverage_F
p572
aV0.08559
p573
aV0.06621
p574
aV0.10815
p575
aasVROUGE-3
p576
(lp577
(lp578
VAverage_R
p579
aV0.03282
p580
aV0.01930
p581
aV0.04993
p582
aa(lp583
VAverage_P
p584
aV0.03088
p585
aV0.01672
p586
aV0.05174
p587
aa(lp588
VAverage_F
p589
aV0.03132
p590
aV0.01763
p591
aV0.04938
p592
aasVROUGE-1
p593
(lp594
(lp595
VAverage_R
p596
aV0.40587
p597
aV0.36838
p598
aV0.44083
p599
aa(lp600
VAverage_P
p601
aV0.33713
p602
aV0.30365
p603
aV0.37262
p604
aa(lp605
VAverage_F
p606
aV0.36375
p607
aV0.32970
p608
aV0.39528
p609
aassS'34'
p610
(dp611
VROUGE-L
p612
(lp613
(lp614
VAverage_R
p615
aV0.43935
p616
aV0.39944
p617
aV0.47589
p618
aa(lp619
VAverage_P
p620
aV0.28178
p621
aV0.25313
p622
aV0.31115
p623
aa(lp624
VAverage_F
p625
aV0.33969
p626
aV0.30836
p627
aV0.37031
p628
aasVROUGE-4
p629
(lp630
(lp631
VAverage_R
p632
aV0.02345
p633
aV0.00851
p634
aV0.04433
p635
aa(lp636
VAverage_P
p637
aV0.01533
p638
aV0.00558
p639
aV0.03062
p640
aa(lp641
VAverage_F
p642
aV0.01828
p643
aV0.00664
p644
aV0.03576
p645
aasVROUGE-2
p646
(lp647
(lp648
VAverage_R
p649
aV0.11751
p650
aV0.09457
p651
aV0.14396
p652
aa(lp653
VAverage_P
p654
aV0.07518
p655
aV0.05907
p656
aV0.09502
p657
aa(lp658
VAverage_F
p659
aV0.09066
p660
aV0.07248
p661
aV0.11276
p662
aasVROUGE-3
p663
(lp664
(lp665
VAverage_R
p666
aV0.04215
p667
aV0.02499
p668
aV0.06559
p669
aa(lp670
VAverage_P
p671
aV0.02704
p672
aV0.01533
p673
aV0.04432
p674
aa(lp675
VAverage_F
p676
aV0.03252
p677
aV0.01880
p678
aV0.05162
p679
aasVROUGE-1
p680
(lp681
(lp682
VAverage_R
p683
aV0.47588
p684
aV0.43488
p685
aV0.51275
p686
aa(lp687
VAverage_P
p688
aV0.30567
p689
aV0.27458
p690
aV0.33654
p691
aa(lp692
VAverage_F
p693
aV0.36831
p694
aV0.33646
p695
aV0.39972
p696
aass.