(dp0
S'02'
p1
(dp2
VROUGE-L
p3
(lp4
(lp5
VAverage_R
p6
aV0.63774
p7
aV0.63774
p8
aV0.63774
p9
aa(lp10
VAverage_P
p11
aV0.58103
p12
aV0.58103
p13
aV0.58103
p14
aa(lp15
VAverage_F
p16
aV0.60807
p17
aV0.60807
p18
aV0.60807
p19
aasVROUGE-4
p20
(lp21
(lp22
VAverage_R
p23
aV0.31429
p24
aV0.31429
p25
aV0.31429
p26
aa(lp27
VAverage_P
p28
aV0.28600
p29
aV0.28600
p30
aV0.28600
p31
aa(lp32
VAverage_F
p33
aV0.29948
p34
aV0.29948
p35
aV0.29948
p36
aasVROUGE-2
p37
(lp38
(lp39
VAverage_R
p40
aV0.42266
p41
aV0.42266
p42
aV0.42266
p43
aa(lp44
VAverage_P
p45
aV0.38492
p46
aV0.38492
p47
aV0.38492
p48
aa(lp49
VAverage_F
p50
aV0.40291
p51
aV0.40291
p52
aV0.40291
p53
aasVROUGE-3
p54
(lp55
(lp56
VAverage_R
p57
aV0.35011
p58
aV0.35011
p59
aV0.35011
p60
aa(lp61
VAverage_P
p62
aV0.31873
p63
aV0.31873
p64
aV0.31873
p65
aa(lp66
VAverage_F
p67
aV0.33368
p68
aV0.33368
p69
aV0.33368
p70
aasVROUGE-1
p71
(lp72
(lp73
VAverage_R
p74
aV0.65293
p75
aV0.65293
p76
aV0.65293
p77
aa(lp78
VAverage_P
p79
aV0.59486
p80
aV0.59486
p81
aV0.59486
p82
aa(lp83
VAverage_F
p84
aV0.62254
p85
aV0.62254
p86
aV0.62254
p87
aassS'03'
p88
(dp89
VROUGE-L
p90
(lp91
(lp92
VAverage_R
p93
aV0.60521
p94
aV0.60521
p95
aV0.60521
p96
aa(lp97
VAverage_P
p98
aV0.55138
p99
aV0.55138
p100
aV0.55138
p101
aa(lp102
VAverage_F
p103
aV0.57704
p104
aV0.57704
p105
aV0.57704
p106
aasVROUGE-4
p107
(lp108
(lp109
VAverage_R
p110
aV0.15165
p111
aV0.15165
p112
aV0.15165
p113
aa(lp114
VAverage_P
p115
aV0.13800
p116
aV0.13800
p117
aV0.13800
p118
aa(lp119
VAverage_F
p120
aV0.14450
p121
aV0.14450
p122
aV0.14450
p123
aasVROUGE-2
p124
(lp125
(lp126
VAverage_R
p127
aV0.28758
p128
aV0.28758
p129
aV0.28758
p130
aa(lp131
VAverage_P
p132
aV0.26190
p133
aV0.26190
p134
aV0.26190
p135
aa(lp136
VAverage_F
p137
aV0.27414
p138
aV0.27414
p139
aV0.27414
p140
aasVROUGE-3
p141
(lp142
(lp143
VAverage_R
p144
aV0.18600
p145
aV0.18600
p146
aV0.18600
p147
aa(lp148
VAverage_P
p149
aV0.16932
p150
aV0.16932
p151
aV0.16932
p152
aa(lp153
VAverage_F
p154
aV0.17727
p155
aV0.17727
p156
aV0.17727
p157
aasVROUGE-1
p158
(lp159
(lp160
VAverage_R
p161
aV0.64208
p162
aV0.64208
p163
aV0.64208
p164
aa(lp165
VAverage_P
p166
aV0.58498
p167
aV0.58498
p168
aV0.58498
p169
aa(lp170
VAverage_F
p171
aV0.61220
p172
aV0.61220
p173
aV0.61220
p174
aassS'01'
p175
(dp176
VROUGE-L
p177
(lp178
(lp179
VAverage_R
p180
aV0.59002
p181
aV0.59002
p182
aV0.59002
p183
aa(lp184
VAverage_P
p185
aV0.57872
p186
aV0.57872
p187
aV0.57872
p188
aa(lp189
VAverage_F
p190
aV0.58432
p191
aV0.58432
p192
aV0.58432
p193
aasVROUGE-4
p194
(lp195
(lp196
VAverage_R
p197
aV0.31868
p198
aV0.31868
p199
aV0.31868
p200
aa(lp201
VAverage_P
p202
aV0.31250
p203
aV0.31250
p204
aV0.31250
p205
aa(lp206
VAverage_F
p207
aV0.31556
p208
aV0.31556
p209
aV0.31556
p210
aasVROUGE-2
p211
(lp212
(lp213
VAverage_R
p214
aV0.40959
p215
aV0.40959
p216
aV0.40959
p217
aa(lp218
VAverage_P
p219
aV0.40171
p220
aV0.40171
p221
aV0.40171
p222
aa(lp223
VAverage_F
p224
aV0.40561
p225
aV0.40561
p226
aV0.40561
p227
aasVROUGE-3
p228
(lp229
(lp230
VAverage_R
p231
aV0.35230
p232
aV0.35230
p233
aV0.35230
p234
aa(lp235
VAverage_P
p236
aV0.34549
p237
aV0.34549
p238
aV0.34549
p239
aa(lp240
VAverage_F
p241
aV0.34886
p242
aV0.34886
p243
aV0.34886
p244
aasVROUGE-1
p245
(lp246
(lp247
VAverage_R
p248
aV0.61388
p249
aV0.61388
p250
aV0.61388
p251
aa(lp252
VAverage_P
p253
aV0.60213
p254
aV0.60213
p255
aV0.60213
p256
aa(lp257
VAverage_F
p258
aV0.60795
p259
aV0.60795
p260
aV0.60795
p261
aassS'06'
p262
(dp263
VROUGE-L
p264
(lp265
(lp266
VAverage_R
p267
aV0.59436
p268
aV0.59436
p269
aV0.59436
p270
aa(lp271
VAverage_P
p272
aV0.58298
p273
aV0.58298
p274
aV0.58298
p275
aa(lp276
VAverage_F
p277
aV0.58862
p278
aV0.58862
p279
aV0.58862
p280
aasVROUGE-4
p281
(lp282
(lp283
VAverage_R
p284
aV0.22637
p285
aV0.22637
p286
aV0.22637
p287
aa(lp288
VAverage_P
p289
aV0.22198
p290
aV0.22198
p291
aV0.22198
p292
aa(lp293
VAverage_F
p294
aV0.22415
p295
aV0.22415
p296
aV0.22415
p297
aasVROUGE-2
p298
(lp299
(lp300
VAverage_R
p301
aV0.34858
p302
aV0.34858
p303
aV0.34858
p304
aa(lp305
VAverage_P
p306
aV0.34188
p307
aV0.34188
p308
aV0.34188
p309
aa(lp310
VAverage_F
p311
aV0.34520
p312
aV0.34520
p313
aV0.34520
p314
aasVROUGE-3
p315
(lp316
(lp317
VAverage_R
p318
aV0.26696
p319
aV0.26696
p320
aV0.26696
p321
aa(lp322
VAverage_P
p323
aV0.26180
p324
aV0.26180
p325
aV0.26180
p326
aa(lp327
VAverage_F
p328
aV0.26435
p329
aV0.26435
p330
aV0.26435
p331
aasVROUGE-1
p332
(lp333
(lp334
VAverage_R
p335
aV0.63341
p336
aV0.63341
p337
aV0.63341
p338
aa(lp339
VAverage_P
p340
aV0.62128
p341
aV0.62128
p342
aV0.62128
p343
aa(lp344
VAverage_F
p345
aV0.62729
p346
aV0.62729
p347
aV0.62729
p348
aassS'07'
p349
(dp350
VROUGE-L
p351
(lp352
(lp353
VAverage_R
p354
aV0.59436
p355
aV0.59436
p356
aV0.59436
p357
aa(lp358
VAverage_P
p359
aV0.58298
p360
aV0.58298
p361
aV0.58298
p362
aa(lp363
VAverage_F
p364
aV0.58862
p365
aV0.58862
p366
aV0.58862
p367
aasVROUGE-4
p368
(lp369
(lp370
VAverage_R
p371
aV0.22637
p372
aV0.22637
p373
aV0.22637
p374
aa(lp375
VAverage_P
p376
aV0.22198
p377
aV0.22198
p378
aV0.22198
p379
aa(lp380
VAverage_F
p381
aV0.22415
p382
aV0.22415
p383
aV0.22415
p384
aasVROUGE-2
p385
(lp386
(lp387
VAverage_R
p388
aV0.34858
p389
aV0.34858
p390
aV0.34858
p391
aa(lp392
VAverage_P
p393
aV0.34188
p394
aV0.34188
p395
aV0.34188
p396
aa(lp397
VAverage_F
p398
aV0.34520
p399
aV0.34520
p400
aV0.34520
p401
aasVROUGE-3
p402
(lp403
(lp404
VAverage_R
p405
aV0.26696
p406
aV0.26696
p407
aV0.26696
p408
aa(lp409
VAverage_P
p410
aV0.26180
p411
aV0.26180
p412
aV0.26180
p413
aa(lp414
VAverage_F
p415
aV0.26435
p416
aV0.26435
p417
aV0.26435
p418
aasVROUGE-1
p419
(lp420
(lp421
VAverage_R
p422
aV0.63341
p423
aV0.63341
p424
aV0.63341
p425
aa(lp426
VAverage_P
p427
aV0.62128
p428
aV0.62128
p429
aV0.62128
p430
aa(lp431
VAverage_F
p432
aV0.62729
p433
aV0.62729
p434
aV0.62729
p435
aassS'04'
p436
(dp437
VROUGE-L
p438
(lp439
(lp440
VAverage_R
p441
aV0.61822
p442
aV0.61822
p443
aV0.61822
p444
aa(lp445
VAverage_P
p446
aV0.59874
p447
aV0.59874
p448
aV0.59874
p449
aa(lp450
VAverage_F
p451
aV0.60832
p452
aV0.60832
p453
aV0.60832
p454
aasVROUGE-4
p455
(lp456
(lp457
VAverage_R
p458
aV0.30989
p459
aV0.30989
p460
aV0.30989
p461
aa(lp462
VAverage_P
p463
aV0.30000
p464
aV0.30000
p465
aV0.30000
p466
aa(lp467
VAverage_F
p468
aV0.30486
p469
aV0.30486
p470
aV0.30486
p471
aasVROUGE-2
p472
(lp473
(lp474
VAverage_R
p475
aV0.41612
p476
aV0.41612
p477
aV0.41612
p478
aa(lp479
VAverage_P
p480
aV0.40295
p481
aV0.40295
p482
aV0.40295
p483
aa(lp484
VAverage_F
p485
aV0.40943
p486
aV0.40943
p487
aV0.40943
p488
aasVROUGE-3
p489
(lp490
(lp491
VAverage_R
p492
aV0.34354
p493
aV0.34354
p494
aV0.34354
p495
aa(lp496
VAverage_P
p497
aV0.33263
p498
aV0.33263
p499
aV0.33263
p500
aa(lp501
VAverage_F
p502
aV0.33800
p503
aV0.33800
p504
aV0.33800
p505
aasVROUGE-1
p506
(lp507
(lp508
VAverage_R
p509
aV0.63774
p510
aV0.63774
p511
aV0.63774
p512
aa(lp513
VAverage_P
p514
aV0.61765
p515
aV0.61765
p516
aV0.61765
p517
aa(lp518
VAverage_F
p519
aV0.62753
p520
aV0.62753
p521
aV0.62753
p522
aassS'05'
p523
(dp524
VROUGE-L
p525
(lp526
(lp527
VAverage_R
p528
aV0.59002
p529
aV0.59002
p530
aV0.59002
p531
aa(lp532
VAverage_P
p533
aV0.57872
p534
aV0.57872
p535
aV0.57872
p536
aa(lp537
VAverage_F
p538
aV0.58432
p539
aV0.58432
p540
aV0.58432
p541
aasVROUGE-4
p542
(lp543
(lp544
VAverage_R
p545
aV0.31868
p546
aV0.31868
p547
aV0.31868
p548
aa(lp549
VAverage_P
p550
aV0.31250
p551
aV0.31250
p552
aV0.31250
p553
aa(lp554
VAverage_F
p555
aV0.31556
p556
aV0.31556
p557
aV0.31556
p558
aasVROUGE-2
p559
(lp560
(lp561
VAverage_R
p562
aV0.40959
p563
aV0.40959
p564
aV0.40959
p565
aa(lp566
VAverage_P
p567
aV0.40171
p568
aV0.40171
p569
aV0.40171
p570
aa(lp571
VAverage_F
p572
aV0.40561
p573
aV0.40561
p574
aV0.40561
p575
aasVROUGE-3
p576
(lp577
(lp578
VAverage_R
p579
aV0.35230
p580
aV0.35230
p581
aV0.35230
p582
aa(lp583
VAverage_P
p584
aV0.34549
p585
aV0.34549
p586
aV0.34549
p587
aa(lp588
VAverage_F
p589
aV0.34886
p590
aV0.34886
p591
aV0.34886
p592
aasVROUGE-1
p593
(lp594
(lp595
VAverage_R
p596
aV0.61388
p597
aV0.61388
p598
aV0.61388
p599
aa(lp600
VAverage_P
p601
aV0.60213
p602
aV0.60213
p603
aV0.60213
p604
aa(lp605
VAverage_F
p606
aV0.60795
p607
aV0.60795
p608
aV0.60795
p609
aassS'46'
p610
(dp611
VROUGE-L
p612
(lp613
(lp614
VAverage_R
p615
aV0.71150
p616
aV0.71150
p617
aV0.71150
p618
aa(lp619
VAverage_P
p620
aV0.55405
p621
aV0.55405
p622
aV0.55405
p623
aa(lp624
VAverage_F
p625
aV0.62298
p626
aV0.62298
p627
aV0.62298
p628
aasVROUGE-4
p629
(lp630
(lp631
VAverage_R
p632
aV0.35165
p633
aV0.35165
p634
aV0.35165
p635
aa(lp636
VAverage_P
p637
aV0.27304
p638
aV0.27304
p639
aV0.27304
p640
aa(lp641
VAverage_F
p642
aV0.30740
p643
aV0.30740
p644
aV0.30740
p645
aasVROUGE-2
p646
(lp647
(lp648
VAverage_R
p649
aV0.48366
p650
aV0.48366
p651
aV0.48366
p652
aa(lp653
VAverage_P
p654
aV0.37627
p655
aV0.37627
p656
aV0.37627
p657
aa(lp658
VAverage_F
p659
aV0.42326
p660
aV0.42326
p661
aV0.42326
p662
aasVROUGE-3
p663
(lp664
(lp665
VAverage_R
p666
aV0.40263
p667
aV0.40263
p668
aV0.40263
p669
aa(lp670
VAverage_P
p671
aV0.31293
p672
aV0.31293
p673
aV0.31293
p674
aa(lp675
VAverage_F
p676
aV0.35216
p677
aV0.35216
p678
aV0.35216
p679
aasVROUGE-1
p680
(lp681
(lp682
VAverage_R
p683
aV0.73319
p684
aV0.73319
p685
aV0.73319
p686
aa(lp687
VAverage_P
p688
aV0.57095
p689
aV0.57095
p690
aV0.57095
p691
aa(lp692
VAverage_F
p693
aV0.64198
p694
aV0.64198
p695
aV0.64198
p696
aassS'47'
p697
(dp698
VROUGE-L
p699
(lp700
(lp701
VAverage_R
p702
aV0.71150
p703
aV0.71150
p704
aV0.71150
p705
aa(lp706
VAverage_P
p707
aV0.55405
p708
aV0.55405
p709
aV0.55405
p710
aa(lp711
VAverage_F
p712
aV0.62298
p713
aV0.62298
p714
aV0.62298
p715
aasVROUGE-4
p716
(lp717
(lp718
VAverage_R
p719
aV0.35165
p720
aV0.35165
p721
aV0.35165
p722
aa(lp723
VAverage_P
p724
aV0.27304
p725
aV0.27304
p726
aV0.27304
p727
aa(lp728
VAverage_F
p729
aV0.30740
p730
aV0.30740
p731
aV0.30740
p732
aasVROUGE-2
p733
(lp734
(lp735
VAverage_R
p736
aV0.48366
p737
aV0.48366
p738
aV0.48366
p739
aa(lp740
VAverage_P
p741
aV0.37627
p742
aV0.37627
p743
aV0.37627
p744
aa(lp745
VAverage_F
p746
aV0.42326
p747
aV0.42326
p748
aV0.42326
p749
aasVROUGE-3
p750
(lp751
(lp752
VAverage_R
p753
aV0.40263
p754
aV0.40263
p755
aV0.40263
p756
aa(lp757
VAverage_P
p758
aV0.31293
p759
aV0.31293
p760
aV0.31293
p761
aa(lp762
VAverage_F
p763
aV0.35216
p764
aV0.35216
p765
aV0.35216
p766
aasVROUGE-1
p767
(lp768
(lp769
VAverage_R
p770
aV0.73319
p771
aV0.73319
p772
aV0.73319
p773
aa(lp774
VAverage_P
p775
aV0.57095
p776
aV0.57095
p777
aV0.57095
p778
aa(lp779
VAverage_F
p780
aV0.64198
p781
aV0.64198
p782
aV0.64198
p783
aassS'08'
p784
(dp785
VROUGE-L
p786
(lp787
(lp788
VAverage_R
p789
aV0.65076
p790
aV0.65076
p791
aV0.65076
p792
aa(lp793
VAverage_P
p794
aV0.52817
p795
aV0.52817
p796
aV0.52817
p797
aa(lp798
VAverage_F
p799
aV0.58309
p800
aV0.58309
p801
aV0.58309
p802
aasVROUGE-4
p803
(lp804
(lp805
VAverage_R
p806
aV0.29670
p807
aV0.29670
p808
aV0.29670
p809
aa(lp810
VAverage_P
p811
aV0.24021
p812
aV0.24021
p813
aV0.24021
p814
aa(lp815
VAverage_F
p816
aV0.26548
p817
aV0.26548
p818
aV0.26548
p819
aasVROUGE-2
p820
(lp821
(lp822
VAverage_R
p823
aV0.42702
p824
aV0.42702
p825
aV0.42702
p826
aa(lp827
VAverage_P
p828
aV0.34629
p829
aV0.34629
p830
aV0.34629
p831
aa(lp832
VAverage_F
p833
aV0.38244
p834
aV0.38244
p835
aV0.38244
p836
aasVROUGE-3
p837
(lp838
(lp839
VAverage_R
p840
aV0.34354
p841
aV0.34354
p842
aV0.34354
p843
aa(lp844
VAverage_P
p845
aV0.27837
p846
aV0.27837
p847
aV0.27837
p848
aa(lp849
VAverage_F
p850
aV0.30754
p851
aV0.30754
p852
aV0.30754
p853
aasVROUGE-1
p854
(lp855
(lp856
VAverage_R
p857
aV0.67896
p858
aV0.67896
p859
aV0.67896
p860
aa(lp861
VAverage_P
p862
aV0.55106
p863
aV0.55106
p864
aV0.55106
p865
aa(lp866
VAverage_F
p867
aV0.60836
p868
aV0.60836
p869
aV0.60836
p870
aassS'09'
p871
(dp872
VROUGE-L
p873
(lp874
(lp875
VAverage_R
p876
aV0.59436
p877
aV0.59436
p878
aV0.59436
p879
aa(lp880
VAverage_P
p881
aV0.58298
p882
aV0.58298
p883
aV0.58298
p884
aa(lp885
VAverage_F
p886
aV0.58862
p887
aV0.58862
p888
aV0.58862
p889
aasVROUGE-4
p890
(lp891
(lp892
VAverage_R
p893
aV0.22198
p894
aV0.22198
p895
aV0.22198
p896
aa(lp897
VAverage_P
p898
aV0.21767
p899
aV0.21767
p900
aV0.21767
p901
aa(lp902
VAverage_F
p903
aV0.21980
p904
aV0.21980
p905
aV0.21980
p906
aasVROUGE-2
p907
(lp908
(lp909
VAverage_R
p910
aV0.34641
p911
aV0.34641
p912
aV0.34641
p913
aa(lp914
VAverage_P
p915
aV0.33974
p916
aV0.33974
p917
aV0.33974
p918
aa(lp919
VAverage_F
p920
aV0.34304
p921
aV0.34304
p922
aV0.34304
p923
aasVROUGE-3
p924
(lp925
(lp926
VAverage_R
p927
aV0.26258
p928
aV0.26258
p929
aV0.26258
p930
aa(lp931
VAverage_P
p932
aV0.25751
p933
aV0.25751
p934
aV0.25751
p935
aa(lp936
VAverage_F
p937
aV0.26002
p938
aV0.26002
p939
aV0.26002
p940
aasVROUGE-1
p941
(lp942
(lp943
VAverage_R
p944
aV0.63341
p945
aV0.63341
p946
aV0.63341
p947
aa(lp948
VAverage_P
p949
aV0.62128
p950
aV0.62128
p951
aV0.62128
p952
aa(lp953
VAverage_F
p954
aV0.62729
p955
aV0.62729
p956
aV0.62729
p957
aassS'42'
p958
(dp959
VROUGE-L
p960
(lp961
(lp962
VAverage_R
p963
aV0.67462
p964
aV0.67462
p965
aV0.67462
p966
aa(lp967
VAverage_P
p968
aV0.58679
p969
aV0.58679
p970
aV0.58679
p971
aa(lp972
VAverage_F
p973
aV0.62765
p974
aV0.62765
p975
aV0.62765
p976
aasVROUGE-4
p977
(lp978
(lp979
VAverage_R
p980
aV0.32088
p981
aV0.32088
p982
aV0.32088
p983
aa(lp984
VAverage_P
p985
aV0.27863
p986
aV0.27863
p987
aV0.27863
p988
aa(lp989
VAverage_F
p990
aV0.29827
p991
aV0.29827
p992
aV0.29827
p993
aasVROUGE-2
p994
(lp995
(lp996
VAverage_R
p997
aV0.44880
p998
aV0.44880
p999
aV0.44880
p1000
aa(lp1001
VAverage_P
p1002
aV0.39015
p1003
aV0.39015
p1004
aV0.39015
p1005
aa(lp1006
VAverage_F
p1007
aV0.41742
p1008
aV0.41742
p1009
aV0.41742
p1010
aasVROUGE-3
p1011
(lp1012
(lp1013
VAverage_R
p1014
aV0.36980
p1015
aV0.36980
p1016
aV0.36980
p1017
aa(lp1018
VAverage_P
p1019
aV0.32129
p1020
aV0.32129
p1021
aV0.32129
p1022
aa(lp1023
VAverage_F
p1024
aV0.34384
p1025
aV0.34384
p1026
aV0.34384
p1027
aasVROUGE-1
p1028
(lp1029
(lp1030
VAverage_R
p1031
aV0.69631
p1032
aV0.69631
p1033
aV0.69631
p1034
aa(lp1035
VAverage_P
p1036
aV0.60566
p1037
aV0.60566
p1038
aV0.60566
p1039
aa(lp1040
VAverage_F
p1041
aV0.64783
p1042
aV0.64783
p1043
aV0.64783
p1044
aassS'43'
p1045
(dp1046
VROUGE-L
p1047
(lp1048
(lp1049
VAverage_R
p1050
aV0.66811
p1051
aV0.66811
p1052
aV0.66811
p1053
aa(lp1054
VAverage_P
p1055
aV0.58555
p1056
aV0.58555
p1057
aV0.58555
p1058
aa(lp1059
VAverage_F
p1060
aV0.62411
p1061
aV0.62411
p1062
aV0.62411
p1063
aasVROUGE-4
p1064
(lp1065
(lp1066
VAverage_R
p1067
aV0.31429
p1068
aV0.31429
p1069
aV0.31429
p1070
aa(lp1071
VAverage_P
p1072
aV0.27500
p1073
aV0.27500
p1074
aV0.27500
p1075
aa(lp1076
VAverage_F
p1077
aV0.29334
p1078
aV0.29334
p1079
aV0.29334
p1080
aasVROUGE-2
p1081
(lp1082
(lp1083
VAverage_R
p1084
aV0.44227
p1085
aV0.44227
p1086
aV0.44227
p1087
aa(lp1088
VAverage_P
p1089
aV0.38740
p1090
aV0.38740
p1091
aV0.38740
p1092
aa(lp1093
VAverage_F
p1094
aV0.41302
p1095
aV0.41302
p1096
aV0.41302
p1097
aasVROUGE-3
p1098
(lp1099
(lp1100
VAverage_R
p1101
aV0.36105
p1102
aV0.36105
p1103
aV0.36105
p1104
aa(lp1105
VAverage_P
p1106
aV0.31609
p1107
aV0.31609
p1108
aV0.31609
p1109
aa(lp1110
VAverage_F
p1111
aV0.33708
p1112
aV0.33708
p1113
aV0.33708
p1114
aasVROUGE-1
p1115
(lp1116
(lp1117
VAverage_R
p1118
aV0.68980
p1119
aV0.68980
p1120
aV0.68980
p1121
aa(lp1122
VAverage_P
p1123
aV0.60456
p1124
aV0.60456
p1125
aV0.60456
p1126
aa(lp1127
VAverage_F
p1128
aV0.64437
p1129
aV0.64437
p1130
aV0.64437
p1131
aassS'41'
p1132
(dp1133
VROUGE-L
p1134
(lp1135
(lp1136
VAverage_R
p1137
aV0.70933
p1138
aV0.70933
p1139
aV0.70933
p1140
aa(lp1141
VAverage_P
p1142
aV0.54682
p1143
aV0.54682
p1144
aV0.54682
p1145
aa(lp1146
VAverage_F
p1147
aV0.61756
p1148
aV0.61756
p1149
aV0.61756
p1150
aasVROUGE-4
p1151
(lp1152
(lp1153
VAverage_R
p1154
aV0.32527
p1155
aV0.32527
p1156
aV0.32527
p1157
aa(lp1158
VAverage_P
p1159
aV0.25000
p1160
aV0.25000
p1161
aV0.25000
p1162
aa(lp1163
VAverage_F
p1164
aV0.28271
p1165
aV0.28271
p1166
aV0.28271
p1167
aasVROUGE-2
p1168
(lp1169
(lp1170
VAverage_R
p1171
aV0.47495
p1172
aV0.47495
p1173
aV0.47495
p1174
aa(lp1175
VAverage_P
p1176
aV0.36577
p1177
aV0.36577
p1178
aV0.36577
p1179
aa(lp1180
VAverage_F
p1181
aV0.41327
p1182
aV0.41327
p1183
aV0.41327
p1184
aasVROUGE-3
p1185
(lp1186
(lp1187
VAverage_R
p1188
aV0.38512
p1189
aV0.38512
p1190
aV0.38512
p1191
aa(lp1192
VAverage_P
p1193
aV0.29630
p1194
aV0.29630
p1195
aV0.29630
p1196
aa(lp1197
VAverage_F
p1198
aV0.33492
p1199
aV0.33492
p1200
aV0.33492
p1201
aasVROUGE-1
p1202
(lp1203
(lp1204
VAverage_R
p1205
aV0.73319
p1206
aV0.73319
p1207
aV0.73319
p1208
aa(lp1209
VAverage_P
p1210
aV0.56522
p1211
aV0.56522
p1212
aV0.56522
p1213
aa(lp1214
VAverage_F
p1215
aV0.63834
p1216
aV0.63834
p1217
aV0.63834
p1218
aassS'49'
p1219
(dp1220
VROUGE-L
p1221
(lp1222
(lp1223
VAverage_R
p1224
aV0.71150
p1225
aV0.71150
p1226
aV0.71150
p1227
aa(lp1228
VAverage_P
p1229
aV0.55405
p1230
aV0.55405
p1231
aV0.55405
p1232
aa(lp1233
VAverage_F
p1234
aV0.62298
p1235
aV0.62298
p1236
aV0.62298
p1237
aasVROUGE-4
p1238
(lp1239
(lp1240
VAverage_R
p1241
aV0.35165
p1242
aV0.35165
p1243
aV0.35165
p1244
aa(lp1245
VAverage_P
p1246
aV0.27304
p1247
aV0.27304
p1248
aV0.27304
p1249
aa(lp1250
VAverage_F
p1251
aV0.30740
p1252
aV0.30740
p1253
aV0.30740
p1254
aasVROUGE-2
p1255
(lp1256
(lp1257
VAverage_R
p1258
aV0.48366
p1259
aV0.48366
p1260
aV0.48366
p1261
aa(lp1262
VAverage_P
p1263
aV0.37627
p1264
aV0.37627
p1265
aV0.37627
p1266
aa(lp1267
VAverage_F
p1268
aV0.42326
p1269
aV0.42326
p1270
aV0.42326
p1271
aasVROUGE-3
p1272
(lp1273
(lp1274
VAverage_R
p1275
aV0.40263
p1276
aV0.40263
p1277
aV0.40263
p1278
aa(lp1279
VAverage_P
p1280
aV0.31293
p1281
aV0.31293
p1282
aV0.31293
p1283
aa(lp1284
VAverage_F
p1285
aV0.35216
p1286
aV0.35216
p1287
aV0.35216
p1288
aasVROUGE-1
p1289
(lp1290
(lp1291
VAverage_R
p1292
aV0.73319
p1293
aV0.73319
p1294
aV0.73319
p1295
aa(lp1296
VAverage_P
p1297
aV0.57095
p1298
aV0.57095
p1299
aV0.57095
p1300
aa(lp1301
VAverage_F
p1302
aV0.64198
p1303
aV0.64198
p1304
aV0.64198
p1305
aassS'48'
p1306
(dp1307
VROUGE-L
p1308
(lp1309
(lp1310
VAverage_R
p1311
aV0.66811
p1312
aV0.66811
p1313
aV0.66811
p1314
aa(lp1315
VAverage_P
p1316
aV0.58555
p1317
aV0.58555
p1318
aV0.58555
p1319
aa(lp1320
VAverage_F
p1321
aV0.62411
p1322
aV0.62411
p1323
aV0.62411
p1324
aasVROUGE-4
p1325
(lp1326
(lp1327
VAverage_R
p1328
aV0.31209
p1329
aV0.31209
p1330
aV0.31209
p1331
aa(lp1332
VAverage_P
p1333
aV0.27308
p1334
aV0.27308
p1335
aV0.27308
p1336
aa(lp1337
VAverage_F
p1338
aV0.29128
p1339
aV0.29128
p1340
aV0.29128
p1341
aasVROUGE-2
p1342
(lp1343
(lp1344
VAverage_R
p1345
aV0.44662
p1346
aV0.44662
p1347
aV0.44662
p1348
aa(lp1349
VAverage_P
p1350
aV0.39122
p1351
aV0.39122
p1352
aV0.39122
p1353
aa(lp1354
VAverage_F
p1355
aV0.41709
p1356
aV0.41709
p1357
aV0.41709
p1358
aasVROUGE-3
p1359
(lp1360
(lp1361
VAverage_R
p1362
aV0.36105
p1363
aV0.36105
p1364
aV0.36105
p1365
aa(lp1366
VAverage_P
p1367
aV0.31609
p1368
aV0.31609
p1369
aV0.31609
p1370
aa(lp1371
VAverage_F
p1372
aV0.33708
p1373
aV0.33708
p1374
aV0.33708
p1375
aasVROUGE-1
p1376
(lp1377
(lp1378
VAverage_R
p1379
aV0.68980
p1380
aV0.68980
p1381
aV0.68980
p1382
aa(lp1383
VAverage_P
p1384
aV0.60456
p1385
aV0.60456
p1386
aV0.60456
p1387
aa(lp1388
VAverage_F
p1389
aV0.64437
p1390
aV0.64437
p1391
aV0.64437
p1392
aassS'45'
p1393
(dp1394
VROUGE-L
p1395
(lp1396
(lp1397
VAverage_R
p1398
aV0.70933
p1399
aV0.70933
p1400
aV0.70933
p1401
aa(lp1402
VAverage_P
p1403
aV0.54682
p1404
aV0.54682
p1405
aV0.54682
p1406
aa(lp1407
VAverage_F
p1408
aV0.61756
p1409
aV0.61756
p1410
aV0.61756
p1411
aasVROUGE-4
p1412
(lp1413
(lp1414
VAverage_R
p1415
aV0.33187
p1416
aV0.33187
p1417
aV0.33187
p1418
aa(lp1419
VAverage_P
p1420
aV0.25507
p1421
aV0.25507
p1422
aV0.25507
p1423
aa(lp1424
VAverage_F
p1425
aV0.28845
p1426
aV0.28845
p1427
aV0.28845
p1428
aasVROUGE-2
p1429
(lp1430
(lp1431
VAverage_R
p1432
aV0.47712
p1433
aV0.47712
p1434
aV0.47712
p1435
aa(lp1436
VAverage_P
p1437
aV0.36745
p1438
aV0.36745
p1439
aV0.36745
p1440
aa(lp1441
VAverage_F
p1442
aV0.41516
p1443
aV0.41516
p1444
aV0.41516
p1445
aasVROUGE-3
p1446
(lp1447
(lp1448
VAverage_R
p1449
aV0.38950
p1450
aV0.38950
p1451
aV0.38950
p1452
aa(lp1453
VAverage_P
p1454
aV0.29966
p1455
aV0.29966
p1456
aV0.29966
p1457
aa(lp1458
VAverage_F
p1459
aV0.33872
p1460
aV0.33872
p1461
aV0.33872
p1462
aasVROUGE-1
p1463
(lp1464
(lp1465
VAverage_R
p1466
aV0.73319
p1467
aV0.73319
p1468
aV0.73319
p1469
aa(lp1470
VAverage_P
p1471
aV0.56522
p1472
aV0.56522
p1473
aV0.56522
p1474
aa(lp1475
VAverage_F
p1476
aV0.63834
p1477
aV0.63834
p1478
aV0.63834
p1479
aassS'44'
p1480
(dp1481
VROUGE-L
p1482
(lp1483
(lp1484
VAverage_R
p1485
aV0.66377
p1486
aV0.66377
p1487
aV0.66377
p1488
aa(lp1489
VAverage_P
p1490
aV0.61943
p1491
aV0.61943
p1492
aV0.61943
p1493
aa(lp1494
VAverage_F
p1495
aV0.64083
p1496
aV0.64083
p1497
aV0.64083
p1498
aasVROUGE-4
p1499
(lp1500
(lp1501
VAverage_R
p1502
aV0.32088
p1503
aV0.32088
p1504
aV0.32088
p1505
aa(lp1506
VAverage_P
p1507
aV0.29918
p1508
aV0.29918
p1509
aV0.29918
p1510
aa(lp1511
VAverage_F
p1512
aV0.30965
p1513
aV0.30965
p1514
aV0.30965
p1515
aasVROUGE-2
p1516
(lp1517
(lp1518
VAverage_R
p1519
aV0.43791
p1520
aV0.43791
p1521
aV0.43791
p1522
aa(lp1523
VAverage_P
p1524
aV0.40854
p1525
aV0.40854
p1526
aV0.40854
p1527
aa(lp1528
VAverage_F
p1529
aV0.42272
p1530
aV0.42272
p1531
aV0.42272
p1532
aasVROUGE-3
p1533
(lp1534
(lp1535
VAverage_R
p1536
aV0.36980
p1537
aV0.36980
p1538
aV0.36980
p1539
aa(lp1540
VAverage_P
p1541
aV0.34490
p1542
aV0.34490
p1543
aV0.34490
p1544
aa(lp1545
VAverage_F
p1546
aV0.35692
p1547
aV0.35692
p1548
aV0.35692
p1549
aasVROUGE-1
p1550
(lp1551
(lp1552
VAverage_R
p1553
aV0.68764
p1554
aV0.68764
p1555
aV0.68764
p1556
aa(lp1557
VAverage_P
p1558
aV0.64170
p1559
aV0.64170
p1560
aV0.64170
p1561
aa(lp1562
VAverage_F
p1563
aV0.66388
p1564
aV0.66388
p1565
aV0.66388
p1566
aass.