(dp0
S'01'
p1
(dp2
VROUGE-L
p3
(lp4
(lp5
VAverage_R
p6
aV0.75740
p7
aV0.75740
p8
aV0.75740
p9
aa(lp10
VAverage_P
p11
aV0.64000
p12
aV0.64000
p13
aV0.64000
p14
aa(lp15
VAverage_F
p16
aV0.69377
p17
aV0.69377
p18
aV0.69377
p19
aasVROUGE-4
p20
(lp21
(lp22
VAverage_R
p23
aV0.56442
p24
aV0.56442
p25
aV0.56442
p26
aa(lp27
VAverage_P
p28
aV0.47423
p29
aV0.47423
p30
aV0.47423
p31
aa(lp32
VAverage_F
p33
aV0.51541
p34
aV0.51541
p35
aV0.51541
p36
aasVROUGE-2
p37
(lp38
(lp39
VAverage_R
p40
aV0.65269
p41
aV0.65269
p42
aV0.65269
p43
aa(lp44
VAverage_P
p45
aV0.55051
p46
aV0.55051
p47
aV0.55051
p48
aa(lp49
VAverage_F
p50
aV0.59726
p51
aV0.59726
p52
aV0.59726
p53
aasVROUGE-3
p54
(lp55
(lp56
VAverage_R
p57
aV0.60606
p58
aV0.60606
p59
aV0.60606
p60
aa(lp61
VAverage_P
p62
aV0.51020
p63
aV0.51020
p64
aV0.51020
p65
aa(lp66
VAverage_F
p67
aV0.55401
p68
aV0.55401
p69
aV0.55401
p70
aasVROUGE-1
p71
(lp72
(lp73
VAverage_R
p74
aV0.76923
p75
aV0.76923
p76
aV0.76923
p77
aa(lp78
VAverage_P
p79
aV0.65000
p80
aV0.65000
p81
aV0.65000
p82
aa(lp83
VAverage_F
p84
aV0.70461
p85
aV0.70461
p86
aV0.70461
p87
aassS'06'
p88
(dp89
VROUGE-L
p90
(lp91
(lp92
VAverage_R
p93
aV0.42604
p94
aV0.42604
p95
aV0.42604
p96
aa(lp97
VAverage_P
p98
aV0.45000
p99
aV0.45000
p100
aV0.45000
p101
aa(lp102
VAverage_F
p103
aV0.43769
p104
aV0.43769
p105
aV0.43769
p106
aasVROUGE-4
p107
(lp108
(lp109
VAverage_R
p110
aV0.23926
p111
aV0.23926
p112
aV0.23926
p113
aa(lp114
VAverage_P
p115
aV0.25325
p116
aV0.25325
p117
aV0.25325
p118
aa(lp119
VAverage_F
p120
aV0.24606
p121
aV0.24606
p122
aV0.24606
p123
aasVROUGE-2
p124
(lp125
(lp126
VAverage_R
p127
aV0.28743
p128
aV0.28743
p129
aV0.28743
p130
aa(lp131
VAverage_P
p132
aV0.30380
p133
aV0.30380
p134
aV0.30380
p135
aa(lp136
VAverage_F
p137
aV0.29539
p138
aV0.29539
p139
aV0.29539
p140
aasVROUGE-3
p141
(lp142
(lp143
VAverage_R
p144
aV0.25455
p145
aV0.25455
p146
aV0.25455
p147
aa(lp148
VAverage_P
p149
aV0.26923
p150
aV0.26923
p151
aV0.26923
p152
aa(lp153
VAverage_F
p154
aV0.26168
p155
aV0.26168
p156
aV0.26168
p157
aasVROUGE-1
p158
(lp159
(lp160
VAverage_R
p161
aV0.42604
p162
aV0.42604
p163
aV0.42604
p164
aa(lp165
VAverage_P
p166
aV0.45000
p167
aV0.45000
p168
aV0.45000
p169
aa(lp170
VAverage_F
p171
aV0.43769
p172
aV0.43769
p173
aV0.43769
p174
aassS'07'
p175
(dp176
VROUGE-L
p177
(lp178
(lp179
VAverage_R
p180
aV0.42604
p181
aV0.42604
p182
aV0.42604
p183
aa(lp184
VAverage_P
p185
aV0.45000
p186
aV0.45000
p187
aV0.45000
p188
aa(lp189
VAverage_F
p190
aV0.43769
p191
aV0.43769
p192
aV0.43769
p193
aasVROUGE-4
p194
(lp195
(lp196
VAverage_R
p197
aV0.23926
p198
aV0.23926
p199
aV0.23926
p200
aa(lp201
VAverage_P
p202
aV0.25325
p203
aV0.25325
p204
aV0.25325
p205
aa(lp206
VAverage_F
p207
aV0.24606
p208
aV0.24606
p209
aV0.24606
p210
aasVROUGE-2
p211
(lp212
(lp213
VAverage_R
p214
aV0.28743
p215
aV0.28743
p216
aV0.28743
p217
aa(lp218
VAverage_P
p219
aV0.30380
p220
aV0.30380
p221
aV0.30380
p222
aa(lp223
VAverage_F
p224
aV0.29539
p225
aV0.29539
p226
aV0.29539
p227
aasVROUGE-3
p228
(lp229
(lp230
VAverage_R
p231
aV0.25455
p232
aV0.25455
p233
aV0.25455
p234
aa(lp235
VAverage_P
p236
aV0.26923
p237
aV0.26923
p238
aV0.26923
p239
aa(lp240
VAverage_F
p241
aV0.26168
p242
aV0.26168
p243
aV0.26168
p244
aasVROUGE-1
p245
(lp246
(lp247
VAverage_R
p248
aV0.42604
p249
aV0.42604
p250
aV0.42604
p251
aa(lp252
VAverage_P
p253
aV0.45000
p254
aV0.45000
p255
aV0.45000
p256
aa(lp257
VAverage_F
p258
aV0.43769
p259
aV0.43769
p260
aV0.43769
p261
aassS'05'
p262
(dp263
VROUGE-L
p264
(lp265
(lp266
VAverage_R
p267
aV0.75740
p268
aV0.75740
p269
aV0.75740
p270
aa(lp271
VAverage_P
p272
aV0.64000
p273
aV0.64000
p274
aV0.64000
p275
aa(lp276
VAverage_F
p277
aV0.69377
p278
aV0.69377
p279
aV0.69377
p280
aasVROUGE-4
p281
(lp282
(lp283
VAverage_R
p284
aV0.56442
p285
aV0.56442
p286
aV0.56442
p287
aa(lp288
VAverage_P
p289
aV0.47423
p290
aV0.47423
p291
aV0.47423
p292
aa(lp293
VAverage_F
p294
aV0.51541
p295
aV0.51541
p296
aV0.51541
p297
aasVROUGE-2
p298
(lp299
(lp300
VAverage_R
p301
aV0.65269
p302
aV0.65269
p303
aV0.65269
p304
aa(lp305
VAverage_P
p306
aV0.55051
p307
aV0.55051
p308
aV0.55051
p309
aa(lp310
VAverage_F
p311
aV0.59726
p312
aV0.59726
p313
aV0.59726
p314
aasVROUGE-3
p315
(lp316
(lp317
VAverage_R
p318
aV0.60606
p319
aV0.60606
p320
aV0.60606
p321
aa(lp322
VAverage_P
p323
aV0.51020
p324
aV0.51020
p325
aV0.51020
p326
aa(lp327
VAverage_F
p328
aV0.55401
p329
aV0.55401
p330
aV0.55401
p331
aasVROUGE-1
p332
(lp333
(lp334
VAverage_R
p335
aV0.76923
p336
aV0.76923
p337
aV0.76923
p338
aa(lp339
VAverage_P
p340
aV0.65000
p341
aV0.65000
p342
aV0.65000
p343
aa(lp344
VAverage_F
p345
aV0.70461
p346
aV0.70461
p347
aV0.70461
p348
aassS'55'
p349
(dp350
VROUGE-L
p351
(lp352
(lp353
VAverage_R
p354
aV0.52663
p355
aV0.52663
p356
aV0.52663
p357
aa(lp358
VAverage_P
p359
aV0.50568
p360
aV0.50568
p361
aV0.50568
p362
aa(lp363
VAverage_F
p364
aV0.51594
p365
aV0.51594
p366
aV0.51594
p367
aasVROUGE-4
p368
(lp369
(lp370
VAverage_R
p371
aV0.30675
p372
aV0.30675
p373
aV0.30675
p374
aa(lp375
VAverage_P
p376
aV0.29412
p377
aV0.29412
p378
aV0.29412
p379
aa(lp380
VAverage_F
p381
aV0.30030
p382
aV0.30030
p383
aV0.30030
p384
aasVROUGE-2
p385
(lp386
(lp387
VAverage_R
p388
aV0.38922
p389
aV0.38922
p390
aV0.38922
p391
aa(lp392
VAverage_P
p393
aV0.37356
p394
aV0.37356
p395
aV0.37356
p396
aa(lp397
VAverage_F
p398
aV0.38123
p399
aV0.38123
p400
aV0.38123
p401
aasVROUGE-3
p402
(lp403
(lp404
VAverage_R
p405
aV0.34545
p406
aV0.34545
p407
aV0.34545
p408
aa(lp409
VAverage_P
p410
aV0.33140
p411
aV0.33140
p412
aV0.33140
p413
aa(lp414
VAverage_F
p415
aV0.33828
p416
aV0.33828
p417
aV0.33828
p418
aasVROUGE-1
p419
(lp420
(lp421
VAverage_R
p422
aV0.53846
p423
aV0.53846
p424
aV0.53846
p425
aa(lp426
VAverage_P
p427
aV0.51705
p428
aV0.51705
p429
aV0.51705
p430
aa(lp431
VAverage_F
p432
aV0.52754
p433
aV0.52754
p434
aV0.52754
p435
aassS'56'
p436
(dp437
VROUGE-L
p438
(lp439
(lp440
VAverage_R
p441
aV0.52663
p442
aV0.52663
p443
aV0.52663
p444
aa(lp445
VAverage_P
p446
aV0.50568
p447
aV0.50568
p448
aV0.50568
p449
aa(lp450
VAverage_F
p451
aV0.51594
p452
aV0.51594
p453
aV0.51594
p454
aasVROUGE-4
p455
(lp456
(lp457
VAverage_R
p458
aV0.30675
p459
aV0.30675
p460
aV0.30675
p461
aa(lp462
VAverage_P
p463
aV0.29412
p464
aV0.29412
p465
aV0.29412
p466
aa(lp467
VAverage_F
p468
aV0.30030
p469
aV0.30030
p470
aV0.30030
p471
aasVROUGE-2
p472
(lp473
(lp474
VAverage_R
p475
aV0.38922
p476
aV0.38922
p477
aV0.38922
p478
aa(lp479
VAverage_P
p480
aV0.37356
p481
aV0.37356
p482
aV0.37356
p483
aa(lp484
VAverage_F
p485
aV0.38123
p486
aV0.38123
p487
aV0.38123
p488
aasVROUGE-3
p489
(lp490
(lp491
VAverage_R
p492
aV0.34545
p493
aV0.34545
p494
aV0.34545
p495
aa(lp496
VAverage_P
p497
aV0.33140
p498
aV0.33140
p499
aV0.33140
p500
aa(lp501
VAverage_F
p502
aV0.33828
p503
aV0.33828
p504
aV0.33828
p505
aasVROUGE-1
p506
(lp507
(lp508
VAverage_R
p509
aV0.53846
p510
aV0.53846
p511
aV0.53846
p512
aa(lp513
VAverage_P
p514
aV0.51705
p515
aV0.51705
p516
aV0.51705
p517
aa(lp518
VAverage_F
p519
aV0.52754
p520
aV0.52754
p521
aV0.52754
p522
aassS'08'
p523
(dp524
VROUGE-L
p525
(lp526
(lp527
VAverage_R
p528
aV0.75740
p529
aV0.75740
p530
aV0.75740
p531
aa(lp532
VAverage_P
p533
aV0.64000
p534
aV0.64000
p535
aV0.64000
p536
aa(lp537
VAverage_F
p538
aV0.69377
p539
aV0.69377
p540
aV0.69377
p541
aasVROUGE-4
p542
(lp543
(lp544
VAverage_R
p545
aV0.56442
p546
aV0.56442
p547
aV0.56442
p548
aa(lp549
VAverage_P
p550
aV0.47423
p551
aV0.47423
p552
aV0.47423
p553
aa(lp554
VAverage_F
p555
aV0.51541
p556
aV0.51541
p557
aV0.51541
p558
aasVROUGE-2
p559
(lp560
(lp561
VAverage_R
p562
aV0.65269
p563
aV0.65269
p564
aV0.65269
p565
aa(lp566
VAverage_P
p567
aV0.55051
p568
aV0.55051
p569
aV0.55051
p570
aa(lp571
VAverage_F
p572
aV0.59726
p573
aV0.59726
p574
aV0.59726
p575
aasVROUGE-3
p576
(lp577
(lp578
VAverage_R
p579
aV0.60606
p580
aV0.60606
p581
aV0.60606
p582
aa(lp583
VAverage_P
p584
aV0.51020
p585
aV0.51020
p586
aV0.51020
p587
aa(lp588
VAverage_F
p589
aV0.55401
p590
aV0.55401
p591
aV0.55401
p592
aasVROUGE-1
p593
(lp594
(lp595
VAverage_R
p596
aV0.76923
p597
aV0.76923
p598
aV0.76923
p599
aa(lp600
VAverage_P
p601
aV0.65000
p602
aV0.65000
p603
aV0.65000
p604
aa(lp605
VAverage_F
p606
aV0.70461
p607
aV0.70461
p608
aV0.70461
p609
aassS'09'
p610
(dp611
VROUGE-L
p612
(lp613
(lp614
VAverage_R
p615
aV0.43195
p616
aV0.43195
p617
aV0.43195
p618
aa(lp619
VAverage_P
p620
aV0.42941
p621
aV0.42941
p622
aV0.42941
p623
aa(lp624
VAverage_F
p625
aV0.43068
p626
aV0.43068
p627
aV0.43068
p628
aasVROUGE-4
p629
(lp630
(lp631
VAverage_R
p632
aV0.22086
p633
aV0.22086
p634
aV0.22086
p635
aa(lp636
VAverage_P
p637
aV0.21951
p638
aV0.21951
p639
aV0.21951
p640
aa(lp641
VAverage_F
p642
aV0.22018
p643
aV0.22018
p644
aV0.22018
p645
aasVROUGE-2
p646
(lp647
(lp648
VAverage_R
p649
aV0.28144
p650
aV0.28144
p651
aV0.28144
p652
aa(lp653
VAverage_P
p654
aV0.27976
p655
aV0.27976
p656
aV0.27976
p657
aa(lp658
VAverage_F
p659
aV0.28060
p660
aV0.28060
p661
aV0.28060
p662
aasVROUGE-3
p663
(lp664
(lp665
VAverage_R
p666
aV0.24242
p667
aV0.24242
p668
aV0.24242
p669
aa(lp670
VAverage_P
p671
aV0.24096
p672
aV0.24096
p673
aV0.24096
p674
aa(lp675
VAverage_F
p676
aV0.24169
p677
aV0.24169
p678
aV0.24169
p679
aasVROUGE-1
p680
(lp681
(lp682
VAverage_R
p683
aV0.43195
p684
aV0.43195
p685
aV0.43195
p686
aa(lp687
VAverage_P
p688
aV0.42941
p689
aV0.42941
p690
aV0.42941
p691
aa(lp692
VAverage_F
p693
aV0.43068
p694
aV0.43068
p695
aV0.43068
p696
aassS'51'
p697
(dp698
VROUGE-L
p699
(lp700
(lp701
VAverage_R
p702
aV0.52663
p703
aV0.52663
p704
aV0.52663
p705
aa(lp706
VAverage_P
p707
aV0.50568
p708
aV0.50568
p709
aV0.50568
p710
aa(lp711
VAverage_F
p712
aV0.51594
p713
aV0.51594
p714
aV0.51594
p715
aasVROUGE-4
p716
(lp717
(lp718
VAverage_R
p719
aV0.30675
p720
aV0.30675
p721
aV0.30675
p722
aa(lp723
VAverage_P
p724
aV0.29412
p725
aV0.29412
p726
aV0.29412
p727
aa(lp728
VAverage_F
p729
aV0.30030
p730
aV0.30030
p731
aV0.30030
p732
aasVROUGE-2
p733
(lp734
(lp735
VAverage_R
p736
aV0.38922
p737
aV0.38922
p738
aV0.38922
p739
aa(lp740
VAverage_P
p741
aV0.37356
p742
aV0.37356
p743
aV0.37356
p744
aa(lp745
VAverage_F
p746
aV0.38123
p747
aV0.38123
p748
aV0.38123
p749
aasVROUGE-3
p750
(lp751
(lp752
VAverage_R
p753
aV0.34545
p754
aV0.34545
p755
aV0.34545
p756
aa(lp757
VAverage_P
p758
aV0.33140
p759
aV0.33140
p760
aV0.33140
p761
aa(lp762
VAverage_F
p763
aV0.33828
p764
aV0.33828
p765
aV0.33828
p766
aasVROUGE-1
p767
(lp768
(lp769
VAverage_R
p770
aV0.53846
p771
aV0.53846
p772
aV0.53846
p773
aa(lp774
VAverage_P
p775
aV0.51705
p776
aV0.51705
p777
aV0.51705
p778
aa(lp779
VAverage_F
p780
aV0.52754
p781
aV0.52754
p782
aV0.52754
p783
aassS'59'
p784
(dp785
VROUGE-L
p786
(lp787
(lp788
VAverage_R
p789
aV0.52663
p790
aV0.52663
p791
aV0.52663
p792
aa(lp793
VAverage_P
p794
aV0.50568
p795
aV0.50568
p796
aV0.50568
p797
aa(lp798
VAverage_F
p799
aV0.51594
p800
aV0.51594
p801
aV0.51594
p802
aasVROUGE-4
p803
(lp804
(lp805
VAverage_R
p806
aV0.30675
p807
aV0.30675
p808
aV0.30675
p809
aa(lp810
VAverage_P
p811
aV0.29412
p812
aV0.29412
p813
aV0.29412
p814
aa(lp815
VAverage_F
p816
aV0.30030
p817
aV0.30030
p818
aV0.30030
p819
aasVROUGE-2
p820
(lp821
(lp822
VAverage_R
p823
aV0.38922
p824
aV0.38922
p825
aV0.38922
p826
aa(lp827
VAverage_P
p828
aV0.37356
p829
aV0.37356
p830
aV0.37356
p831
aa(lp832
VAverage_F
p833
aV0.38123
p834
aV0.38123
p835
aV0.38123
p836
aasVROUGE-3
p837
(lp838
(lp839
VAverage_R
p840
aV0.34545
p841
aV0.34545
p842
aV0.34545
p843
aa(lp844
VAverage_P
p845
aV0.33140
p846
aV0.33140
p847
aV0.33140
p848
aa(lp849
VAverage_F
p850
aV0.33828
p851
aV0.33828
p852
aV0.33828
p853
aasVROUGE-1
p854
(lp855
(lp856
VAverage_R
p857
aV0.53846
p858
aV0.53846
p859
aV0.53846
p860
aa(lp861
VAverage_P
p862
aV0.51705
p863
aV0.51705
p864
aV0.51705
p865
aa(lp866
VAverage_F
p867
aV0.52754
p868
aV0.52754
p869
aV0.52754
p870
aassS'57'
p871
(dp872
VROUGE-L
p873
(lp874
(lp875
VAverage_R
p876
aV0.52663
p877
aV0.52663
p878
aV0.52663
p879
aa(lp880
VAverage_P
p881
aV0.50568
p882
aV0.50568
p883
aV0.50568
p884
aa(lp885
VAverage_F
p886
aV0.51594
p887
aV0.51594
p888
aV0.51594
p889
aasVROUGE-4
p890
(lp891
(lp892
VAverage_R
p893
aV0.30675
p894
aV0.30675
p895
aV0.30675
p896
aa(lp897
VAverage_P
p898
aV0.29412
p899
aV0.29412
p900
aV0.29412
p901
aa(lp902
VAverage_F
p903
aV0.30030
p904
aV0.30030
p905
aV0.30030
p906
aasVROUGE-2
p907
(lp908
(lp909
VAverage_R
p910
aV0.38922
p911
aV0.38922
p912
aV0.38922
p913
aa(lp914
VAverage_P
p915
aV0.37356
p916
aV0.37356
p917
aV0.37356
p918
aa(lp919
VAverage_F
p920
aV0.38123
p921
aV0.38123
p922
aV0.38123
p923
aasVROUGE-3
p924
(lp925
(lp926
VAverage_R
p927
aV0.34545
p928
aV0.34545
p929
aV0.34545
p930
aa(lp931
VAverage_P
p932
aV0.33140
p933
aV0.33140
p934
aV0.33140
p935
aa(lp936
VAverage_F
p937
aV0.33828
p938
aV0.33828
p939
aV0.33828
p940
aasVROUGE-1
p941
(lp942
(lp943
VAverage_R
p944
aV0.53846
p945
aV0.53846
p946
aV0.53846
p947
aa(lp948
VAverage_P
p949
aV0.51705
p950
aV0.51705
p951
aV0.51705
p952
aa(lp953
VAverage_F
p954
aV0.52754
p955
aV0.52754
p956
aV0.52754
p957
aassS'58'
p958
(dp959
VROUGE-L
p960
(lp961
(lp962
VAverage_R
p963
aV0.70414
p964
aV0.70414
p965
aV0.70414
p966
aa(lp967
VAverage_P
p968
aV0.62632
p969
aV0.62632
p970
aV0.62632
p971
aa(lp972
VAverage_F
p973
aV0.66295
p974
aV0.66295
p975
aV0.66295
p976
aasVROUGE-4
p977
(lp978
(lp979
VAverage_R
p980
aV0.46012
p981
aV0.46012
p982
aV0.46012
p983
aa(lp984
VAverage_P
p985
aV0.40761
p986
aV0.40761
p987
aV0.40761
p988
aa(lp989
VAverage_F
p990
aV0.43228
p991
aV0.43228
p992
aV0.43228
p993
aasVROUGE-2
p994
(lp995
(lp996
VAverage_R
p997
aV0.57485
p998
aV0.57485
p999
aV0.57485
p1000
aa(lp1001
VAverage_P
p1002
aV0.51064
p1003
aV0.51064
p1004
aV0.51064
p1005
aa(lp1006
VAverage_F
p1007
aV0.54085
p1008
aV0.54085
p1009
aV0.54085
p1010
aasVROUGE-3
p1011
(lp1012
(lp1013
VAverage_R
p1014
aV0.51515
p1015
aV0.51515
p1016
aV0.51515
p1017
aa(lp1018
VAverage_P
p1019
aV0.45699
p1020
aV0.45699
p1021
aV0.45699
p1022
aa(lp1023
VAverage_F
p1024
aV0.48433
p1025
aV0.48433
p1026
aV0.48433
p1027
aasVROUGE-1
p1028
(lp1029
(lp1030
VAverage_R
p1031
aV0.71598
p1032
aV0.71598
p1033
aV0.71598
p1034
aa(lp1035
VAverage_P
p1036
aV0.63684
p1037
aV0.63684
p1038
aV0.63684
p1039
aa(lp1040
VAverage_F
p1041
aV0.67410
p1042
aV0.67410
p1043
aV0.67410
p1044
aass.