(dp0
S'01'
p1
(dp2
VROUGE-L
p3
(lp4
(lp5
VAverage_R
p6
aV0.56422
p7
aV0.56422
p8
aV0.56422
p9
aa(lp10
VAverage_P
p11
aV0.49200
p12
aV0.49200
p13
aV0.49200
p14
aa(lp15
VAverage_F
p16
aV0.52564
p17
aV0.52564
p18
aV0.52564
p19
aasVROUGE-4
p20
(lp21
(lp22
VAverage_R
p23
aV0.22642
p24
aV0.22642
p25
aV0.22642
p26
aa(lp27
VAverage_P
p28
aV0.19672
p29
aV0.19672
p30
aV0.19672
p31
aa(lp32
VAverage_F
p33
aV0.21053
p34
aV0.21053
p35
aV0.21053
p36
aasVROUGE-2
p37
(lp38
(lp39
VAverage_R
p40
aV0.31481
p41
aV0.31481
p42
aV0.31481
p43
aa(lp44
VAverage_P
p45
aV0.27419
p46
aV0.27419
p47
aV0.27419
p48
aa(lp49
VAverage_F
p50
aV0.29310
p51
aV0.29310
p52
aV0.29310
p53
aasVROUGE-3
p54
(lp55
(lp56
VAverage_R
p57
aV0.24766
p58
aV0.24766
p59
aV0.24766
p60
aa(lp61
VAverage_P
p62
aV0.21545
p63
aV0.21545
p64
aV0.21545
p65
aa(lp66
VAverage_F
p67
aV0.23043
p68
aV0.23043
p69
aV0.23043
p70
aasVROUGE-1
p71
(lp72
(lp73
VAverage_R
p74
aV0.60092
p75
aV0.60092
p76
aV0.60092
p77
aa(lp78
VAverage_P
p79
aV0.52400
p80
aV0.52400
p81
aV0.52400
p82
aa(lp83
VAverage_F
p84
aV0.55983
p85
aV0.55983
p86
aV0.55983
p87
aassS'06'
p88
(dp89
VROUGE-L
p90
(lp91
(lp92
VAverage_R
p93
aV0.63761
p94
aV0.63761
p95
aV0.63761
p96
aa(lp97
VAverage_P
p98
aV0.59914
p99
aV0.59914
p100
aV0.59914
p101
aa(lp102
VAverage_F
p103
aV0.61778
p104
aV0.61778
p105
aV0.61778
p106
aasVROUGE-4
p107
(lp108
(lp109
VAverage_R
p110
aV0.40566
p111
aV0.40566
p112
aV0.40566
p113
aa(lp114
VAverage_P
p115
aV0.38053
p116
aV0.38053
p117
aV0.38053
p118
aa(lp119
VAverage_F
p120
aV0.39269
p121
aV0.39269
p122
aV0.39269
p123
aasVROUGE-2
p124
(lp125
(lp126
VAverage_R
p127
aV0.47222
p128
aV0.47222
p129
aV0.47222
p130
aa(lp131
VAverage_P
p132
aV0.44348
p133
aV0.44348
p134
aV0.44348
p135
aa(lp136
VAverage_F
p137
aV0.45740
p138
aV0.45740
p139
aV0.45740
p140
aasVROUGE-3
p141
(lp142
(lp143
VAverage_R
p144
aV0.42991
p145
aV0.42991
p146
aV0.42991
p147
aa(lp148
VAverage_P
p149
aV0.40351
p150
aV0.40351
p151
aV0.40351
p152
aa(lp153
VAverage_F
p154
aV0.41629
p155
aV0.41629
p156
aV0.41629
p157
aasVROUGE-1
p158
(lp159
(lp160
VAverage_R
p161
aV0.67431
p162
aV0.67431
p163
aV0.67431
p164
aa(lp165
VAverage_P
p166
aV0.63362
p167
aV0.63362
p168
aV0.63362
p169
aa(lp170
VAverage_F
p171
aV0.65333
p172
aV0.65333
p173
aV0.65333
p174
aassS'07'
p175
(dp176
VROUGE-L
p177
(lp178
(lp179
VAverage_R
p180
aV0.63761
p181
aV0.63761
p182
aV0.63761
p183
aa(lp184
VAverage_P
p185
aV0.59914
p186
aV0.59914
p187
aV0.59914
p188
aa(lp189
VAverage_F
p190
aV0.61778
p191
aV0.61778
p192
aV0.61778
p193
aasVROUGE-4
p194
(lp195
(lp196
VAverage_R
p197
aV0.40566
p198
aV0.40566
p199
aV0.40566
p200
aa(lp201
VAverage_P
p202
aV0.38053
p203
aV0.38053
p204
aV0.38053
p205
aa(lp206
VAverage_F
p207
aV0.39269
p208
aV0.39269
p209
aV0.39269
p210
aasVROUGE-2
p211
(lp212
(lp213
VAverage_R
p214
aV0.47222
p215
aV0.47222
p216
aV0.47222
p217
aa(lp218
VAverage_P
p219
aV0.44348
p220
aV0.44348
p221
aV0.44348
p222
aa(lp223
VAverage_F
p224
aV0.45740
p225
aV0.45740
p226
aV0.45740
p227
aasVROUGE-3
p228
(lp229
(lp230
VAverage_R
p231
aV0.42991
p232
aV0.42991
p233
aV0.42991
p234
aa(lp235
VAverage_P
p236
aV0.40351
p237
aV0.40351
p238
aV0.40351
p239
aa(lp240
VAverage_F
p241
aV0.41629
p242
aV0.41629
p243
aV0.41629
p244
aasVROUGE-1
p245
(lp246
(lp247
VAverage_R
p248
aV0.67431
p249
aV0.67431
p250
aV0.67431
p251
aa(lp252
VAverage_P
p253
aV0.63362
p254
aV0.63362
p255
aV0.63362
p256
aa(lp257
VAverage_F
p258
aV0.65333
p259
aV0.65333
p260
aV0.65333
p261
aassS'05'
p262
(dp263
VROUGE-L
p264
(lp265
(lp266
VAverage_R
p267
aV0.56422
p268
aV0.56422
p269
aV0.56422
p270
aa(lp271
VAverage_P
p272
aV0.49200
p273
aV0.49200
p274
aV0.49200
p275
aa(lp276
VAverage_F
p277
aV0.52564
p278
aV0.52564
p279
aV0.52564
p280
aasVROUGE-4
p281
(lp282
(lp283
VAverage_R
p284
aV0.22642
p285
aV0.22642
p286
aV0.22642
p287
aa(lp288
VAverage_P
p289
aV0.19672
p290
aV0.19672
p291
aV0.19672
p292
aa(lp293
VAverage_F
p294
aV0.21053
p295
aV0.21053
p296
aV0.21053
p297
aasVROUGE-2
p298
(lp299
(lp300
VAverage_R
p301
aV0.31481
p302
aV0.31481
p303
aV0.31481
p304
aa(lp305
VAverage_P
p306
aV0.27419
p307
aV0.27419
p308
aV0.27419
p309
aa(lp310
VAverage_F
p311
aV0.29310
p312
aV0.29310
p313
aV0.29310
p314
aasVROUGE-3
p315
(lp316
(lp317
VAverage_R
p318
aV0.24766
p319
aV0.24766
p320
aV0.24766
p321
aa(lp322
VAverage_P
p323
aV0.21545
p324
aV0.21545
p325
aV0.21545
p326
aa(lp327
VAverage_F
p328
aV0.23043
p329
aV0.23043
p330
aV0.23043
p331
aasVROUGE-1
p332
(lp333
(lp334
VAverage_R
p335
aV0.60092
p336
aV0.60092
p337
aV0.60092
p338
aa(lp339
VAverage_P
p340
aV0.52400
p341
aV0.52400
p342
aV0.52400
p343
aa(lp344
VAverage_F
p345
aV0.55983
p346
aV0.55983
p347
aV0.55983
p348
aassS'55'
p349
(dp350
VROUGE-L
p351
(lp352
(lp353
VAverage_R
p354
aV0.55963
p355
aV0.55963
p356
aV0.55963
p357
aa(lp358
VAverage_P
p359
aV0.48800
p360
aV0.48800
p361
aV0.48800
p362
aa(lp363
VAverage_F
p364
aV0.52137
p365
aV0.52137
p366
aV0.52137
p367
aasVROUGE-4
p368
(lp369
(lp370
VAverage_R
p371
aV0.24057
p372
aV0.24057
p373
aV0.24057
p374
aa(lp375
VAverage_P
p376
aV0.20902
p377
aV0.20902
p378
aV0.20902
p379
aa(lp380
VAverage_F
p381
aV0.22369
p382
aV0.22369
p383
aV0.22369
p384
aasVROUGE-2
p385
(lp386
(lp387
VAverage_R
p388
aV0.31944
p389
aV0.31944
p390
aV0.31944
p391
aa(lp392
VAverage_P
p393
aV0.27823
p394
aV0.27823
p395
aV0.27823
p396
aa(lp397
VAverage_F
p398
aV0.29741
p399
aV0.29741
p400
aV0.29741
p401
aasVROUGE-3
p402
(lp403
(lp404
VAverage_R
p405
aV0.25701
p406
aV0.25701
p407
aV0.25701
p408
aa(lp409
VAverage_P
p410
aV0.22358
p411
aV0.22358
p412
aV0.22358
p413
aa(lp414
VAverage_F
p415
aV0.23913
p416
aV0.23913
p417
aV0.23913
p418
aasVROUGE-1
p419
(lp420
(lp421
VAverage_R
p422
aV0.58257
p423
aV0.58257
p424
aV0.58257
p425
aa(lp426
VAverage_P
p427
aV0.50800
p428
aV0.50800
p429
aV0.50800
p430
aa(lp431
VAverage_F
p432
aV0.54274
p433
aV0.54274
p434
aV0.54274
p435
aassS'56'
p436
(dp437
VROUGE-L
p438
(lp439
(lp440
VAverage_R
p441
aV0.66514
p442
aV0.66514
p443
aV0.66514
p444
aa(lp445
VAverage_P
p446
aV0.55769
p447
aV0.55769
p448
aV0.55769
p449
aa(lp450
VAverage_F
p451
aV0.60669
p452
aV0.60669
p453
aV0.60669
p454
aasVROUGE-4
p455
(lp456
(lp457
VAverage_R
p458
aV0.37264
p459
aV0.37264
p460
aV0.37264
p461
aa(lp462
VAverage_P
p463
aV0.31102
p464
aV0.31102
p465
aV0.31102
p466
aa(lp467
VAverage_F
p468
aV0.33905
p469
aV0.33905
p470
aV0.33905
p471
aasVROUGE-2
p472
(lp473
(lp474
VAverage_R
p475
aV0.44907
p476
aV0.44907
p477
aV0.44907
p478
aa(lp479
VAverage_P
p480
aV0.37597
p481
aV0.37597
p482
aV0.37597
p483
aa(lp484
VAverage_F
p485
aV0.40928
p486
aV0.40928
p487
aV0.40928
p488
aasVROUGE-3
p489
(lp490
(lp491
VAverage_R
p492
aV0.39720
p493
aV0.39720
p494
aV0.39720
p495
aa(lp496
VAverage_P
p497
aV0.33203
p498
aV0.33203
p499
aV0.33203
p500
aa(lp501
VAverage_F
p502
aV0.36170
p503
aV0.36170
p504
aV0.36170
p505
aasVROUGE-1
p506
(lp507
(lp508
VAverage_R
p509
aV0.68349
p510
aV0.68349
p511
aV0.68349
p512
aa(lp513
VAverage_P
p514
aV0.57308
p515
aV0.57308
p516
aV0.57308
p517
aa(lp518
VAverage_F
p519
aV0.62343
p520
aV0.62343
p521
aV0.62343
p522
aassS'08'
p523
(dp524
VROUGE-L
p525
(lp526
(lp527
VAverage_R
p528
aV0.56422
p529
aV0.56422
p530
aV0.56422
p531
aa(lp532
VAverage_P
p533
aV0.49200
p534
aV0.49200
p535
aV0.49200
p536
aa(lp537
VAverage_F
p538
aV0.52564
p539
aV0.52564
p540
aV0.52564
p541
aasVROUGE-4
p542
(lp543
(lp544
VAverage_R
p545
aV0.22642
p546
aV0.22642
p547
aV0.22642
p548
aa(lp549
VAverage_P
p550
aV0.19672
p551
aV0.19672
p552
aV0.19672
p553
aa(lp554
VAverage_F
p555
aV0.21053
p556
aV0.21053
p557
aV0.21053
p558
aasVROUGE-2
p559
(lp560
(lp561
VAverage_R
p562
aV0.31481
p563
aV0.31481
p564
aV0.31481
p565
aa(lp566
VAverage_P
p567
aV0.27419
p568
aV0.27419
p569
aV0.27419
p570
aa(lp571
VAverage_F
p572
aV0.29310
p573
aV0.29310
p574
aV0.29310
p575
aasVROUGE-3
p576
(lp577
(lp578
VAverage_R
p579
aV0.24766
p580
aV0.24766
p581
aV0.24766
p582
aa(lp583
VAverage_P
p584
aV0.21545
p585
aV0.21545
p586
aV0.21545
p587
aa(lp588
VAverage_F
p589
aV0.23043
p590
aV0.23043
p591
aV0.23043
p592
aasVROUGE-1
p593
(lp594
(lp595
VAverage_R
p596
aV0.60092
p597
aV0.60092
p598
aV0.60092
p599
aa(lp600
VAverage_P
p601
aV0.52400
p602
aV0.52400
p603
aV0.52400
p604
aa(lp605
VAverage_F
p606
aV0.55983
p607
aV0.55983
p608
aV0.55983
p609
aassS'09'
p610
(dp611
VROUGE-L
p612
(lp613
(lp614
VAverage_R
p615
aV0.64220
p616
aV0.64220
p617
aV0.64220
p618
aa(lp619
VAverage_P
p620
aV0.55556
p621
aV0.55556
p622
aV0.55556
p623
aa(lp624
VAverage_F
p625
aV0.59575
p626
aV0.59575
p627
aV0.59575
p628
aasVROUGE-4
p629
(lp630
(lp631
VAverage_R
p632
aV0.40566
p633
aV0.40566
p634
aV0.40566
p635
aa(lp636
VAverage_P
p637
aV0.34959
p638
aV0.34959
p639
aV0.34959
p640
aa(lp641
VAverage_F
p642
aV0.37554
p643
aV0.37554
p644
aV0.37554
p645
aasVROUGE-2
p646
(lp647
(lp648
VAverage_R
p649
aV0.47222
p650
aV0.47222
p651
aV0.47222
p652
aa(lp653
VAverage_P
p654
aV0.40800
p655
aV0.40800
p656
aV0.40800
p657
aa(lp658
VAverage_F
p659
aV0.43777
p660
aV0.43777
p661
aV0.43777
p662
aasVROUGE-3
p663
(lp664
(lp665
VAverage_R
p666
aV0.42991
p667
aV0.42991
p668
aV0.42991
p669
aa(lp670
VAverage_P
p671
aV0.37097
p672
aV0.37097
p673
aV0.37097
p674
aa(lp675
VAverage_F
p676
aV0.39827
p677
aV0.39827
p678
aV0.39827
p679
aasVROUGE-1
p680
(lp681
(lp682
VAverage_R
p683
aV0.68807
p684
aV0.68807
p685
aV0.68807
p686
aa(lp687
VAverage_P
p688
aV0.59524
p689
aV0.59524
p690
aV0.59524
p691
aa(lp692
VAverage_F
p693
aV0.63830
p694
aV0.63830
p695
aV0.63830
p696
aassS'51'
p697
(dp698
VROUGE-L
p699
(lp700
(lp701
VAverage_R
p702
aV0.64220
p703
aV0.64220
p704
aV0.64220
p705
aa(lp706
VAverage_P
p707
aV0.52239
p708
aV0.52239
p709
aV0.52239
p710
aa(lp711
VAverage_F
p712
aV0.57613
p713
aV0.57613
p714
aV0.57613
p715
aasVROUGE-4
p716
(lp717
(lp718
VAverage_R
p719
aV0.38679
p720
aV0.38679
p721
aV0.38679
p722
aa(lp723
VAverage_P
p724
aV0.31298
p725
aV0.31298
p726
aV0.31298
p727
aa(lp728
VAverage_F
p729
aV0.34599
p730
aV0.34599
p731
aV0.34599
p732
aasVROUGE-2
p733
(lp734
(lp735
VAverage_R
p736
aV0.46759
p737
aV0.46759
p738
aV0.46759
p739
aa(lp740
VAverage_P
p741
aV0.37970
p742
aV0.37970
p743
aV0.37970
p744
aa(lp745
VAverage_F
p746
aV0.41909
p747
aV0.41909
p748
aV0.41909
p749
aasVROUGE-3
p750
(lp751
(lp752
VAverage_R
p753
aV0.40654
p754
aV0.40654
p755
aV0.40654
p756
aa(lp757
VAverage_P
p758
aV0.32955
p759
aV0.32955
p760
aV0.32955
p761
aa(lp762
VAverage_F
p763
aV0.36402
p764
aV0.36402
p765
aV0.36402
p766
aasVROUGE-1
p767
(lp768
(lp769
VAverage_R
p770
aV0.66514
p771
aV0.66514
p772
aV0.66514
p773
aa(lp774
VAverage_P
p775
aV0.54104
p776
aV0.54104
p777
aV0.54104
p778
aa(lp779
VAverage_F
p780
aV0.59671
p781
aV0.59671
p782
aV0.59671
p783
aassS'59'
p784
(dp785
VROUGE-L
p786
(lp787
(lp788
VAverage_R
p789
aV0.66514
p790
aV0.66514
p791
aV0.66514
p792
aa(lp793
VAverage_P
p794
aV0.55769
p795
aV0.55769
p796
aV0.55769
p797
aa(lp798
VAverage_F
p799
aV0.60669
p800
aV0.60669
p801
aV0.60669
p802
aasVROUGE-4
p803
(lp804
(lp805
VAverage_R
p806
aV0.37264
p807
aV0.37264
p808
aV0.37264
p809
aa(lp810
VAverage_P
p811
aV0.31102
p812
aV0.31102
p813
aV0.31102
p814
aa(lp815
VAverage_F
p816
aV0.33905
p817
aV0.33905
p818
aV0.33905
p819
aasVROUGE-2
p820
(lp821
(lp822
VAverage_R
p823
aV0.44907
p824
aV0.44907
p825
aV0.44907
p826
aa(lp827
VAverage_P
p828
aV0.37597
p829
aV0.37597
p830
aV0.37597
p831
aa(lp832
VAverage_F
p833
aV0.40928
p834
aV0.40928
p835
aV0.40928
p836
aasVROUGE-3
p837
(lp838
(lp839
VAverage_R
p840
aV0.39720
p841
aV0.39720
p842
aV0.39720
p843
aa(lp844
VAverage_P
p845
aV0.33203
p846
aV0.33203
p847
aV0.33203
p848
aa(lp849
VAverage_F
p850
aV0.36170
p851
aV0.36170
p852
aV0.36170
p853
aasVROUGE-1
p854
(lp855
(lp856
VAverage_R
p857
aV0.68349
p858
aV0.68349
p859
aV0.68349
p860
aa(lp861
VAverage_P
p862
aV0.57308
p863
aV0.57308
p864
aV0.57308
p865
aa(lp866
VAverage_F
p867
aV0.62343
p868
aV0.62343
p869
aV0.62343
p870
aassS'57'
p871
(dp872
VROUGE-L
p873
(lp874
(lp875
VAverage_R
p876
aV0.55963
p877
aV0.55963
p878
aV0.55963
p879
aa(lp880
VAverage_P
p881
aV0.48800
p882
aV0.48800
p883
aV0.48800
p884
aa(lp885
VAverage_F
p886
aV0.52137
p887
aV0.52137
p888
aV0.52137
p889
aasVROUGE-4
p890
(lp891
(lp892
VAverage_R
p893
aV0.24057
p894
aV0.24057
p895
aV0.24057
p896
aa(lp897
VAverage_P
p898
aV0.20902
p899
aV0.20902
p900
aV0.20902
p901
aa(lp902
VAverage_F
p903
aV0.22369
p904
aV0.22369
p905
aV0.22369
p906
aasVROUGE-2
p907
(lp908
(lp909
VAverage_R
p910
aV0.31944
p911
aV0.31944
p912
aV0.31944
p913
aa(lp914
VAverage_P
p915
aV0.27823
p916
aV0.27823
p917
aV0.27823
p918
aa(lp919
VAverage_F
p920
aV0.29741
p921
aV0.29741
p922
aV0.29741
p923
aasVROUGE-3
p924
(lp925
(lp926
VAverage_R
p927
aV0.25701
p928
aV0.25701
p929
aV0.25701
p930
aa(lp931
VAverage_P
p932
aV0.22358
p933
aV0.22358
p934
aV0.22358
p935
aa(lp936
VAverage_F
p937
aV0.23913
p938
aV0.23913
p939
aV0.23913
p940
aasVROUGE-1
p941
(lp942
(lp943
VAverage_R
p944
aV0.58257
p945
aV0.58257
p946
aV0.58257
p947
aa(lp948
VAverage_P
p949
aV0.50800
p950
aV0.50800
p951
aV0.50800
p952
aa(lp953
VAverage_F
p954
aV0.54274
p955
aV0.54274
p956
aV0.54274
p957
aassS'58'
p958
(dp959
VROUGE-L
p960
(lp961
(lp962
VAverage_R
p963
aV0.55963
p964
aV0.55963
p965
aV0.55963
p966
aa(lp967
VAverage_P
p968
aV0.48800
p969
aV0.48800
p970
aV0.48800
p971
aa(lp972
VAverage_F
p973
aV0.52137
p974
aV0.52137
p975
aV0.52137
p976
aasVROUGE-4
p977
(lp978
(lp979
VAverage_R
p980
aV0.24057
p981
aV0.24057
p982
aV0.24057
p983
aa(lp984
VAverage_P
p985
aV0.20902
p986
aV0.20902
p987
aV0.20902
p988
aa(lp989
VAverage_F
p990
aV0.22369
p991
aV0.22369
p992
aV0.22369
p993
aasVROUGE-2
p994
(lp995
(lp996
VAverage_R
p997
aV0.31944
p998
aV0.31944
p999
aV0.31944
p1000
aa(lp1001
VAverage_P
p1002
aV0.27823
p1003
aV0.27823
p1004
aV0.27823
p1005
aa(lp1006
VAverage_F
p1007
aV0.29741
p1008
aV0.29741
p1009
aV0.29741
p1010
aasVROUGE-3
p1011
(lp1012
(lp1013
VAverage_R
p1014
aV0.25701
p1015
aV0.25701
p1016
aV0.25701
p1017
aa(lp1018
VAverage_P
p1019
aV0.22358
p1020
aV0.22358
p1021
aV0.22358
p1022
aa(lp1023
VAverage_F
p1024
aV0.23913
p1025
aV0.23913
p1026
aV0.23913
p1027
aasVROUGE-1
p1028
(lp1029
(lp1030
VAverage_R
p1031
aV0.58257
p1032
aV0.58257
p1033
aV0.58257
p1034
aa(lp1035
VAverage_P
p1036
aV0.50800
p1037
aV0.50800
p1038
aV0.50800
p1039
aa(lp1040
VAverage_F
p1041
aV0.54274
p1042
aV0.54274
p1043
aV0.54274
p1044
aass.