(dp0
S'02'
p1
(dp2
VROUGE-L
p3
(lp4
(lp5
VAverage_R
p6
aV0.46135
p7
aV0.38719
p8
aV0.52194
p9
aa(lp10
VAverage_P
p11
aV0.30183
p12
aV0.22925
p13
aV0.36255
p14
aa(lp15
VAverage_F
p16
aV0.36268
p17
aV0.28824
p18
aV0.42237
p19
aasVROUGE-4
p20
(lp21
(lp22
VAverage_R
p23
aV0.01874
p24
aV0.00048
p25
aV0.04674
p26
aa(lp27
VAverage_P
p28
aV0.01145
p29
aV0.00040
p30
aV0.02827
p31
aa(lp32
VAverage_F
p33
aV0.01421
p34
aV0.00044
p35
aV0.03524
p36
aasVROUGE-2
p37
(lp38
(lp39
VAverage_R
p40
aV0.10446
p41
aV0.06128
p42
aV0.15156
p43
aa(lp44
VAverage_P
p45
aV0.06831
p46
aV0.04093
p47
aV0.09565
p48
aa(lp49
VAverage_F
p50
aV0.08226
p51
aV0.04925
p52
aV0.11672
p53
aasVROUGE-3
p54
(lp55
(lp56
VAverage_R
p57
aV0.03080
p58
aV0.00569
p59
aV0.06687
p60
aa(lp61
VAverage_P
p62
aV0.01928
p63
aV0.00395
p64
aV0.04047
p65
aa(lp66
VAverage_F
p67
aV0.02366
p68
aV0.00482
p69
aV0.05043
p70
aasVROUGE-1
p71
(lp72
(lp73
VAverage_R
p74
aV0.49654
p75
aV0.41913
p76
aV0.56282
p77
aa(lp78
VAverage_P
p79
aV0.32377
p80
aV0.24926
p81
aV0.38585
p82
aa(lp83
VAverage_F
p84
aV0.38956
p85
aV0.31280
p86
aV0.45068
p87
aassS'03'
p88
(dp89
VROUGE-L
p90
(lp91
(lp92
VAverage_R
p93
aV0.38612
p94
aV0.31232
p95
aV0.45452
p96
aa(lp97
VAverage_P
p98
aV0.39825
p99
aV0.31528
p100
aV0.46230
p101
aa(lp102
VAverage_F
p103
aV0.38809
p104
aV0.31339
p105
aV0.45026
p106
aasVROUGE-4
p107
(lp108
(lp109
VAverage_R
p110
aV0.00631
p111
aV0.00229
p112
aV0.01133
p113
aa(lp114
VAverage_P
p115
aV0.00732
p116
aV0.00278
p117
aV0.01295
p118
aa(lp119
VAverage_F
p120
aV0.00675
p121
aV0.00249
p122
aV0.01202
p123
aasVROUGE-2
p124
(lp125
(lp126
VAverage_R
p127
aV0.09690
p128
aV0.06581
p129
aV0.12047
p130
aa(lp131
VAverage_P
p132
aV0.10526
p133
aV0.07306
p134
aV0.13323
p135
aa(lp136
VAverage_F
p137
aV0.10009
p138
aV0.06906
p139
aV0.12395
p140
aasVROUGE-3
p141
(lp142
(lp143
VAverage_R
p144
aV0.02375
p145
aV0.01430
p146
aV0.03303
p147
aa(lp148
VAverage_P
p149
aV0.02675
p150
aV0.01523
p151
aV0.03853
p152
aa(lp153
VAverage_F
p154
aV0.02500
p155
aV0.01453
p156
aV0.03506
p157
aasVROUGE-1
p158
(lp159
(lp160
VAverage_R
p161
aV0.41350
p162
aV0.34136
p163
aV0.48004
p164
aa(lp165
VAverage_P
p166
aV0.42556
p167
aV0.34203
p168
aV0.48864
p169
aa(lp170
VAverage_F
p171
aV0.41508
p172
aV0.34394
p173
aV0.47504
p174
aassS'01'
p175
(dp176
VROUGE-L
p177
(lp178
(lp179
VAverage_R
p180
aV0.35610
p181
aV0.29803
p182
aV0.41399
p183
aa(lp184
VAverage_P
p185
aV0.34757
p186
aV0.26931
p187
aV0.41098
p188
aa(lp189
VAverage_F
p190
aV0.34940
p191
aV0.27961
p192
aV0.41047
p193
aasVROUGE-4
p194
(lp195
(lp196
VAverage_R
p197
aV0.01545
p198
aV0.00317
p199
aV0.04110
p200
aa(lp201
VAverage_P
p202
aV0.01660
p203
aV0.00299
p204
aV0.04419
p205
aa(lp206
VAverage_F
p207
aV0.01598
p208
aV0.00308
p209
aV0.04267
p210
aasVROUGE-2
p211
(lp212
(lp213
VAverage_R
p214
aV0.08695
p215
aV0.05522
p216
aV0.12098
p217
aa(lp218
VAverage_P
p219
aV0.08843
p220
aV0.05398
p221
aV0.12507
p222
aa(lp223
VAverage_F
p224
aV0.08741
p225
aV0.05503
p226
aV0.12189
p227
aasVROUGE-3
p228
(lp229
(lp230
VAverage_R
p231
aV0.02519
p232
aV0.00889
p233
aV0.05469
p234
aa(lp235
VAverage_P
p236
aV0.02672
p237
aV0.00846
p238
aV0.05878
p239
aa(lp240
VAverage_F
p241
aV0.02587
p242
aV0.00867
p243
aV0.05632
p244
aasVROUGE-1
p245
(lp246
(lp247
VAverage_R
p248
aV0.37950
p249
aV0.32406
p250
aV0.43807
p251
aa(lp252
VAverage_P
p253
aV0.36906
p254
aV0.29001
p255
aV0.43412
p256
aa(lp257
VAverage_F
p258
aV0.37153
p259
aV0.30212
p260
aV0.43228
p261
aassS'21'
p262
(dp263
VROUGE-L
p264
(lp265
(lp266
VAverage_R
p267
aV0.41034
p268
aV0.35163
p269
aV0.46906
p270
aa(lp271
VAverage_P
p272
aV0.37467
p273
aV0.31011
p274
aV0.42897
p275
aa(lp276
VAverage_F
p277
aV0.38835
p278
aV0.33157
p279
aV0.44076
p280
aasVROUGE-4
p281
(lp282
(lp283
VAverage_R
p284
aV0.01718
p285
aV0.00411
p286
aV0.04342
p287
aa(lp288
VAverage_P
p289
aV0.01965
p290
aV0.00352
p291
aV0.05255
p292
aa(lp293
VAverage_F
p294
aV0.01822
p295
aV0.00382
p296
aV0.04734
p297
aasVROUGE-2
p298
(lp299
(lp300
VAverage_R
p301
aV0.10670
p302
aV0.08090
p303
aV0.13473
p304
aa(lp305
VAverage_P
p306
aV0.10235
p307
aV0.06980
p308
aV0.14126
p309
aa(lp310
VAverage_F
p311
aV0.10349
p312
aV0.07527
p313
aV0.13697
p314
aasVROUGE-3
p315
(lp316
(lp317
VAverage_R
p318
aV0.03293
p319
aV0.01491
p320
aV0.06346
p321
aa(lp322
VAverage_P
p323
aV0.03491
p324
aV0.01293
p325
aV0.07374
p326
aa(lp327
VAverage_F
p328
aV0.03359
p329
aV0.01389
p330
aV0.06808
p331
aasVROUGE-1
p332
(lp333
(lp334
VAverage_R
p335
aV0.44030
p336
aV0.37321
p337
aV0.50626
p338
aa(lp339
VAverage_P
p340
aV0.40201
p341
aV0.33043
p342
aV0.45814
p343
aa(lp344
VAverage_F
p345
aV0.41669
p346
aV0.35119
p347
aV0.47376
p348
aassS'22'
p349
(dp350
VROUGE-L
p351
(lp352
(lp353
VAverage_R
p354
aV0.41737
p355
aV0.34291
p356
aV0.48362
p357
aa(lp358
VAverage_P
p359
aV0.36994
p360
aV0.28665
p361
aV0.43164
p362
aa(lp363
VAverage_F
p364
aV0.38861
p365
aV0.30528
p366
aV0.45019
p367
aasVROUGE-4
p368
(lp369
(lp370
VAverage_R
p371
aV0.01404
p372
aV0.00151
p373
aV0.03946
p374
aa(lp375
VAverage_P
p376
aV0.01332
p377
aV0.00121
p378
aV0.03893
p379
aa(lp380
VAverage_F
p381
aV0.01363
p382
aV0.00135
p383
aV0.03916
p384
aasVROUGE-2
p385
(lp386
(lp387
VAverage_R
p388
aV0.09933
p389
aV0.06642
p390
aV0.13205
p391
aa(lp392
VAverage_P
p393
aV0.09145
p394
aV0.06179
p395
aV0.12588
p396
aa(lp397
VAverage_F
p398
aV0.09470
p399
aV0.06376
p400
aV0.12857
p401
aasVROUGE-3
p402
(lp403
(lp404
VAverage_R
p405
aV0.02861
p406
aV0.01051
p407
aV0.06034
p408
aa(lp409
VAverage_P
p410
aV0.02655
p411
aV0.00916
p412
aV0.05872
p413
aa(lp414
VAverage_F
p415
aV0.02743
p416
aV0.00965
p417
aV0.05941
p418
aasVROUGE-1
p419
(lp420
(lp421
VAverage_R
p422
aV0.44923
p423
aV0.37395
p424
aV0.51736
p425
aa(lp426
VAverage_P
p427
aV0.39646
p428
aV0.31176
p429
aV0.46075
p430
aa(lp431
VAverage_F
p432
aV0.41717
p433
aV0.33466
p434
aV0.48188
p435
aassS'23'
p436
(dp437
VROUGE-L
p438
(lp439
(lp440
VAverage_R
p441
aV0.39490
p442
aV0.31195
p443
aV0.46587
p444
aa(lp445
VAverage_P
p446
aV0.39890
p447
aV0.31623
p448
aV0.45388
p449
aa(lp450
VAverage_F
p451
aV0.39394
p452
aV0.31232
p453
aV0.45244
p454
aasVROUGE-4
p455
(lp456
(lp457
VAverage_R
p458
aV0.01392
p459
aV0.00116
p460
aV0.03896
p461
aa(lp462
VAverage_P
p463
aV0.01424
p464
aV0.00114
p465
aV0.04154
p466
aa(lp467
VAverage_F
p468
aV0.01404
p469
aV0.00115
p470
aV0.04020
p471
aasVROUGE-2
p472
(lp473
(lp474
VAverage_R
p475
aV0.09540
p476
aV0.06135
p477
aV0.12781
p478
aa(lp479
VAverage_P
p480
aV0.09606
p481
aV0.06342
p482
aV0.13102
p483
aa(lp484
VAverage_F
p485
aV0.09512
p486
aV0.06220
p487
aV0.12769
p488
aasVROUGE-3
p489
(lp490
(lp491
VAverage_R
p492
aV0.02905
p493
aV0.00984
p494
aV0.05966
p495
aa(lp496
VAverage_P
p497
aV0.02918
p498
aV0.01035
p499
aV0.06271
p500
aa(lp501
VAverage_F
p502
aV0.02898
p503
aV0.01009
p504
aV0.06116
p505
aasVROUGE-1
p506
(lp507
(lp508
VAverage_R
p509
aV0.42754
p510
aV0.35602
p511
aV0.49282
p512
aa(lp513
VAverage_P
p514
aV0.43088
p515
aV0.35954
p516
aV0.48450
p517
aa(lp518
VAverage_F
p519
aV0.42607
p520
aV0.35738
p521
aV0.48218
p522
aassS'24'
p523
(dp524
VROUGE-L
p525
(lp526
(lp527
VAverage_R
p528
aV0.43226
p529
aV0.35465
p530
aV0.48900
p531
aa(lp532
VAverage_P
p533
aV0.35857
p534
aV0.29079
p535
aV0.40980
p536
aa(lp537
VAverage_F
p538
aV0.39021
p539
aV0.31709
p540
aV0.44180
p541
aasVROUGE-4
p542
(lp543
(lp544
VAverage_R
p545
aV0.01320
p546
aV0.00108
p547
aV0.03854
p548
aa(lp549
VAverage_P
p550
aV0.01249
p551
aV0.00076
p552
aV0.03819
p553
aa(lp554
VAverage_F
p555
aV0.01278
p556
aV0.00090
p557
aV0.03829
p558
aasVROUGE-2
p559
(lp560
(lp561
VAverage_R
p562
aV0.09793
p563
aV0.06424
p564
aV0.12947
p565
aa(lp566
VAverage_P
p567
aV0.08285
p568
aV0.05278
p569
aV0.11711
p570
aa(lp571
VAverage_F
p572
aV0.08929
p573
aV0.05731
p574
aV0.12189
p575
aasVROUGE-3
p576
(lp577
(lp578
VAverage_R
p579
aV0.02976
p580
aV0.01118
p581
aV0.06191
p582
aa(lp583
VAverage_P
p584
aV0.02640
p585
aV0.00913
p586
aV0.05922
p587
aa(lp588
VAverage_F
p589
aV0.02781
p590
aV0.00987
p591
aV0.06026
p592
aasVROUGE-1
p593
(lp594
(lp595
VAverage_R
p596
aV0.47237
p597
aV0.40601
p598
aV0.52462
p599
aa(lp600
VAverage_P
p601
aV0.39152
p602
aV0.33122
p603
aV0.44282
p604
aa(lp605
VAverage_F
p606
aV0.42621
p607
aV0.36183
p608
aV0.47451
p609
aassS'04'
p610
(dp611
VROUGE-L
p612
(lp613
(lp614
VAverage_R
p615
aV0.47136
p616
aV0.37696
p617
aV0.53546
p618
aa(lp619
VAverage_P
p620
aV0.30177
p621
aV0.22978
p622
aV0.37128
p623
aa(lp624
VAverage_F
p625
aV0.36438
p626
aV0.28501
p627
aV0.43287
p628
aasVROUGE-4
p629
(lp630
(lp631
VAverage_R
p632
aV0.00552
p633
aV0.00299
p634
aV0.00810
p635
aa(lp636
VAverage_P
p637
aV0.00340
p638
aV0.00174
p639
aV0.00507
p640
aa(lp641
VAverage_F
p642
aV0.00416
p643
aV0.00227
p644
aV0.00621
p645
aasVROUGE-2
p646
(lp647
(lp648
VAverage_R
p649
aV0.12348
p650
aV0.08618
p651
aV0.15191
p652
aa(lp653
VAverage_P
p654
aV0.07843
p655
aV0.05224
p656
aV0.10187
p657
aa(lp658
VAverage_F
p659
aV0.09493
p660
aV0.06519
p661
aV0.12002
p662
aasVROUGE-3
p663
(lp664
(lp665
VAverage_R
p666
aV0.02694
p667
aV0.01783
p668
aV0.03569
p669
aa(lp670
VAverage_P
p671
aV0.01699
p672
aV0.01058
p673
aV0.02299
p674
aa(lp675
VAverage_F
p676
aV0.02064
p677
aV0.01331
p678
aV0.02766
p679
aasVROUGE-1
p680
(lp681
(lp682
VAverage_R
p683
aV0.50915
p684
aV0.41190
p685
aV0.57267
p686
aa(lp687
VAverage_P
p688
aV0.32652
p689
aV0.25252
p690
aV0.39737
p691
aa(lp692
VAverage_F
p693
aV0.39412
p694
aV0.31362
p695
aV0.46455
p696
aass.