(i__main__
cmySecCE
p0
(dp1
S'sentenceset'
p2
(lp3
(isxpPackage
sxpSent
p4
(dp5
S'sentence_text'
p6
VUnderstanding common sense capability is now a hot area of research in artificial intelligence, but there is not yet any consensus.
p7
sS'id_sec'
p8
I0
sS'sysCEidlst'
p9
(lp10
sS'id_para'
p11
I0
sS'id'
p12
I0
sS'manCEidlst'
p13
(lp14
sba(isxpPackage
sxpSent
p15
(dp16
g6
VWe will try to divide common sense capability into common sense knowledge and common sense reasoning, but even this cannot be made firm.
p17
sg8
I0
sg9
(lp18
sg11
I0
sg12
I1
sg13
(lp19
sba(isxpPackage
sxpSent
p20
(dp21
g6
VNamely, what one man builds as a reasoning method into his program, another can express as a fact using a richer ontology.
p22
sg8
I0
sg9
(lp23
I0
asg11
I0
sg12
I2
sg13
(lp24
sba(isxpPackage
sxpSent
p25
(dp26
g6
VHowever, the latter can have problems in handling in a good way the generality he has introduced.
p27
sg8
I0
sg9
(lp28
sg11
I0
sg12
I3
sg13
(lp29
sbasS'sysce_id_dict'
p30
(dp31
I14
I0
ssS'para_tfidf'
p32
(isxpPackage
sxpTFIDF
p33
(dp34
S'tfidf'
p35
ccopy_reg
_reconstructor
p36
(cscipy.sparse.csr
csr_matrix
p37
c__builtin__
object
p38
Ntp39
Rp40
(dp41
S'indices'
p42
cnumpy.core.multiarray
_reconstruct
p43
(cnumpy
ndarray
p44
(I0
tp45
S'b'
p46
tp47
Rp48
(I1
(I63
tp49
cnumpy
dtype
p50
(S'i4'
p51
I0
I1
tp52
Rp53
(I3
S'<'
p54
NNNI-1
I-1
I0
tp55
bI00
S'8\x00\x00\x00\r\x00\x00\x002\x00\x00\x00\x0c\x00\x00\x00!\x00\x00\x00)\x00\x00\x00\x00\x00\x00\x00\x1b\x00\x00\x00\x04\x00\x00\x00*\x00\x00\x000\x00\x00\x00\x1d\x00\x00\x00\x05\x00\x00\x00\x1e\x00\x00\x00\t\x00\x00\x004\x00\x00\x00(\x00\x00\x00>\x00\x00\x00\x03\x00\x00\x00\x0e\x00\x00\x00;\x00\x00\x00=\x00\x00\x007\x00\x00\x006\x00\x00\x00\x0f\x00\x00\x00\x1f\x00\x00\x00"\x00\x00\x00\x01\x00\x00\x00/\x00\x00\x00\x10\x00\x00\x005\x00\x00\x00\x0b\x00\x00\x00\x07\x00\x00\x00$\x00\x00\x00\x13\x00\x00\x00\'\x00\x00\x00<\x00\x00\x00+\x00\x00\x00%\x00\x00\x00\x08\x00\x00\x00\x06\x00\x00\x00&\x00\x00\x00\x1a\x00\x00\x00.\x00\x00\x00\x02\x00\x00\x00\n\x00\x00\x00\x11\x00\x00\x00\x12\x00\x00\x009\x00\x00\x001\x00\x00\x00,\x00\x00\x00\x1c\x00\x00\x003\x00\x00\x00#\x00\x00\x00\x18\x00\x00\x00-\x00\x00\x00\x16\x00\x00\x00\x15\x00\x00\x00:\x00\x00\x00\x14\x00\x00\x00\x19\x00\x00\x00\x17\x00\x00\x00 \x00\x00\x00'
p56
tp57
bsS'indptr'
p58
g43
(g44
(I0
tp59
g46
tp60
Rp61
(I1
(I2
tp62
g53
I00
S'\x00\x00\x00\x00?\x00\x00\x00'
p63
tp64
bsS'maxprint'
p65
I50
sS'_shape'
p66
(I1
I63
tp67
sS'data'
p68
g43
(g44
(I0
tp69
g46
tp70
Rp71
(I1
(I63
tp72
g50
(S'f8'
p73
I0
I1
tp74
Rp75
(I3
S'<'
p76
NNNI-1
I-1
I0
tp77
bI00
S'K\x98\xa5\x16\xeb\xf8\xb4?K\x98\xa5\x16\xeb\xf8\xd4?K\x98\xa5\x16\xeb\xf8\xd4?K\x98\xa5\x16\xeb\xf8\xc4?K\x98\xa5\x16\xeb\xf8\xc4?K\x98\xa5\x16\xeb\xf8\xb4?]\xfeN\xdc%7\xda?K\x98\xa5\x16\xeb\xf8\xb4?K\x98\xa5\x16\xeb\xf8\xb4?K\x98\xa5\x16\xeb\xf8\xb4?K\x98\xa5\x16\xeb\xf8\xb4?pd\xf8\xa1`u\xcf?K\x98\xa5\x16\xeb\xf8\xb4?K\x98\xa5\x16\xeb\xf8\xb4?K\x98\xa5\x16\xeb\xf8\xc4?K\x98\xa5\x16\xeb\xf8\xb4?K\x98\xa5\x16\xeb\xf8\xb4?K\x98\xa5\x16\xeb\xf8\xb4?K\x98\xa5\x16\xeb\xf8\xb4?K\x98\xa5\x16\xeb\xf8\xb4?K\x98\xa5\x16\xeb\xf8\xb4?K\x98\xa5\x16\xeb\xf8\xb4?K\x98\xa5\x16\xeb\xf8\xb4?K\x98\xa5\x16\xeb\xf8\xb4?K\x98\xa5\x16\xeb\xf8\xb4?K\x98\xa5\x16\xeb\xf8\xc4?K\x98\xa5\x16\xeb\xf8\xb4?K\x98\xa5\x16\xeb\xf8\xb4?K\x98\xa5\x16\xeb\xf8\xc4?K\x98\xa5\x16\xeb\xf8\xb4?K\x98\xa5\x16\xeb\xf8\xb4?K\x98\xa5\x16\xeb\xf8\xb4?K\x98\xa5\x16\xeb\xf8\xb4?K\x98\xa5\x16\xeb\xf8\xb4?K\x98\xa5\x16\xeb\xf8\xb4?K\x98\xa5\x16\xeb\xf8\xb4?K\x98\xa5\x16\xeb\xf8\xb4?K\x98\xa5\x16\xeb\xf8\xb4?K\x98\xa5\x16\xeb\xf8\xb4?K\x98\xa5\x16\xeb\xf8\xb4?K\x98\xa5\x16\xeb\xf8\xc4?K\x98\xa5\x16\xeb\xf8\xb4?K\x98\xa5\x16\xeb\xf8\xb4?K\x98\xa5\x16\xeb\xf8\xb4?K\x98\xa5\x16\xeb\xf8\xb4?K\x98\xa5\x16\xeb\xf8\xc4?K\x98\xa5\x16\xeb\xf8\xb4?K\x98\xa5\x16\xeb\xf8\xb4?K\x98\xa5\x16\xeb\xf8\xb4?K\x98\xa5\x16\xeb\xf8\xb4?K\x98\xa5\x16\xeb\xf8\xb4?K\x98\xa5\x16\xeb\xf8\xb4?K\x98\xa5\x16\xeb\xf8\xc4?K\x98\xa5\x16\xeb\xf8\xb4?K\x98\xa5\x16\xeb\xf8\xb4?K\x98\xa5\x16\xeb\xf8\xb4?K\x98\xa5\x16\xeb\xf8\xb4?K\x98\xa5\x16\xeb\xf8\xb4?K\x98\xa5\x16\xeb\xf8\xb4?K\x98\xa5\x16\xeb\xf8\xb4?K\x98\xa5\x16\xeb\xf8\xb4?K\x98\xa5\x16\xeb\xf8\xb4?K\x98\xa5\x16\xeb\xf8\xb4?'
p78
tp79
bsbsS'word'
p80
(lp81
Va
p82
aVand
p83
aVanother
p84
aVany
p85
aVarea
p86
aVartificial
p87
aVas
p88
aVbe
p89
aVbuilds
p90
aVbut
p91
aVcan
p92
aVcannot
p93
aVcapability
p94
aVcommon
p95
aVconsensus
p96
aVdivide
p97
aVeven
p98
aVexpress
p99
aVfact
p100
aVfirm
p101
aVgenerality
p102
aVgood
p103
aVhandling
p104
aVhas
p105
aVhave
p106
aVhe
p107
aVhis
p108
aVhot
p109
aVhowever
p110
aVin
p111
aVintelligence
p112
aVinto
p113
aVintroduced
p114
aVis
p115
aVknowledge
p116
aVlatter
p117
aVmade
p118
aVman
p119
aVmethod
p120
aVnamely
p121
aVnot
p122
aVnow
p123
aVof
p124
aVone
p125
aVontology
p126
aVproblems
p127
aVprogram
p128
aVreasoning
p129
aVresearch
p130
aVricher
p131
aVsense
p132
aVthe
p133
aVthere
p134
aVthis
p135
aVto
p136
aVtry
p137
aVunderstanding
p138
aVusing
p139
aVway
p140
aVwe
p141
aVwhat
p142
aVwill
p143
aVyet
p144
asS'weight'
p145
g43
(g44
(I0
tp146
g46
tp147
Rp148
(I1
(I1
I63
tp149
g75
I00
S']\xfeN\xdc%7\xda?K\x98\xa5\x16\xeb\xf8\xb4?K\x98\xa5\x16\xeb\xf8\xb4?K\x98\xa5\x16\xeb\xf8\xb4?K\x98\xa5\x16\xeb\xf8\xb4?K\x98\xa5\x16\xeb\xf8\xb4?K\x98\xa5\x16\xeb\xf8\xc4?K\x98\xa5\x16\xeb\xf8\xb4?K\x98\xa5\x16\xeb\xf8\xb4?K\x98\xa5\x16\xeb\xf8\xc4?K\x98\xa5\x16\xeb\xf8\xc4?K\x98\xa5\x16\xeb\xf8\xb4?K\x98\xa5\x16\xeb\xf8\xc4?K\x98\xa5\x16\xeb\xf8\xd4?K\x98\xa5\x16\xeb\xf8\xb4?K\x98\xa5\x16\xeb\xf8\xb4?K\x98\xa5\x16\xeb\xf8\xb4?K\x98\xa5\x16\xeb\xf8\xb4?K\x98\xa5\x16\xeb\xf8\xb4?K\x98\xa5\x16\xeb\xf8\xb4?K\x98\xa5\x16\xeb\xf8\xb4?K\x98\xa5\x16\xeb\xf8\xb4?K\x98\xa5\x16\xeb\xf8\xb4?K\x98\xa5\x16\xeb\xf8\xb4?K\x98\xa5\x16\xeb\xf8\xb4?K\x98\xa5\x16\xeb\xf8\xb4?K\x98\xa5\x16\xeb\xf8\xb4?K\x98\xa5\x16\xeb\xf8\xb4?K\x98\xa5\x16\xeb\xf8\xb4?pd\xf8\xa1`u\xcf?K\x98\xa5\x16\xeb\xf8\xb4?K\x98\xa5\x16\xeb\xf8\xc4?K\x98\xa5\x16\xeb\xf8\xb4?K\x98\xa5\x16\xeb\xf8\xc4?K\x98\xa5\x16\xeb\xf8\xb4?K\x98\xa5\x16\xeb\xf8\xb4?K\x98\xa5\x16\xeb\xf8\xb4?K\x98\xa5\x16\xeb\xf8\xb4?K\x98\xa5\x16\xeb\xf8\xb4?K\x98\xa5\x16\xeb\xf8\xb4?K\x98\xa5\x16\xeb\xf8\xb4?K\x98\xa5\x16\xeb\xf8\xb4?K\x98\xa5\x16\xeb\xf8\xb4?K\x98\xa5\x16\xeb\xf8\xb4?K\x98\xa5\x16\xeb\xf8\xb4?K\x98\xa5\x16\xeb\xf8\xb4?K\x98\xa5\x16\xeb\xf8\xb4?K\x98\xa5\x16\xeb\xf8\xc4?K\x98\xa5\x16\xeb\xf8\xb4?K\x98\xa5\x16\xeb\xf8\xb4?K\x98\xa5\x16\xeb\xf8\xd4?K\x98\xa5\x16\xeb\xf8\xc4?K\x98\xa5\x16\xeb\xf8\xb4?K\x98\xa5\x16\xeb\xf8\xb4?K\x98\xa5\x16\xeb\xf8\xb4?K\x98\xa5\x16\xeb\xf8\xb4?K\x98\xa5\x16\xeb\xf8\xb4?K\x98\xa5\x16\xeb\xf8\xb4?K\x98\xa5\x16\xeb\xf8\xb4?K\x98\xa5\x16\xeb\xf8\xb4?K\x98\xa5\x16\xeb\xf8\xb4?K\x98\xa5\x16\xeb\xf8\xb4?K\x98\xa5\x16\xeb\xf8\xb4?'
p150
tp151
bsS'ct'
p152
g36
(g37
g38
Ntp153
Rp154
(dp155
g42
g43
(g44
(I0
tp156
g46
tp157
Rp158
(I1
(I63
tp159
g53
I00
S' \x00\x00\x00\x17\x00\x00\x00\x19\x00\x00\x00\x14\x00\x00\x00:\x00\x00\x00\x15\x00\x00\x00\x16\x00\x00\x00-\x00\x00\x00\x18\x00\x00\x00#\x00\x00\x003\x00\x00\x00\x1c\x00\x00\x00,\x00\x00\x001\x00\x00\x009\x00\x00\x00\x12\x00\x00\x00\x11\x00\x00\x00\n\x00\x00\x00\x02\x00\x00\x00.\x00\x00\x00\x1a\x00\x00\x00&\x00\x00\x00\x06\x00\x00\x00\x08\x00\x00\x00%\x00\x00\x00+\x00\x00\x00<\x00\x00\x00\'\x00\x00\x00\x13\x00\x00\x00$\x00\x00\x00\x07\x00\x00\x00\x0b\x00\x00\x005\x00\x00\x00\x10\x00\x00\x00/\x00\x00\x00\x01\x00\x00\x00"\x00\x00\x00\x1f\x00\x00\x00\x0f\x00\x00\x006\x00\x00\x007\x00\x00\x00=\x00\x00\x00;\x00\x00\x00\x0e\x00\x00\x00\x03\x00\x00\x00>\x00\x00\x00(\x00\x00\x004\x00\x00\x00\t\x00\x00\x00\x1e\x00\x00\x00\x05\x00\x00\x00\x1d\x00\x00\x000\x00\x00\x00*\x00\x00\x00\x04\x00\x00\x00\x1b\x00\x00\x00\x00\x00\x00\x00)\x00\x00\x00!\x00\x00\x00\x0c\x00\x00\x002\x00\x00\x00\r\x00\x00\x008\x00\x00\x00'
p160
tp161
bsg58
g43
(g44
(I0
tp162
g46
tp163
Rp164
(I1
(I2
tp165
g53
I00
S'\x00\x00\x00\x00?\x00\x00\x00'
p166
tp167
bsg65
I50
sg66
(I1
I63
tp168
sg68
g43
(g44
(I0
tp169
g46
tp170
Rp171
(I1
(I63
tp172
g50
(S'i8'
p173
I0
I1
tp174
Rp175
(I3
S'<'
p176
NNNI-1
I-1
I0
tp177
bI00
S'\x01\x00\x00\x00\x00\x00\x00\x00\x01\x00\x00\x00\x00\x00\x00\x00\x01\x00\x00\x00\x00\x00\x00\x00\x01\x00\x00\x00\x00\x00\x00\x00\x01\x00\x00\x00\x00\x00\x00\x00\x01\x00\x00\x00\x00\x00\x00\x00\x01\x00\x00\x00\x00\x00\x00\x00\x01\x00\x00\x00\x00\x00\x00\x00\x01\x00\x00\x00\x00\x00\x00\x00\x01\x00\x00\x00\x00\x00\x00\x00\x02\x00\x00\x00\x00\x00\x00\x00\x01\x00\x00\x00\x00\x00\x00\x00\x01\x00\x00\x00\x00\x00\x00\x00\x01\x00\x00\x00\x00\x00\x00\x00\x01\x00\x00\x00\x00\x00\x00\x00\x01\x00\x00\x00\x00\x00\x00\x00\x01\x00\x00\x00\x00\x00\x00\x00\x02\x00\x00\x00\x00\x00\x00\x00\x01\x00\x00\x00\x00\x00\x00\x00\x01\x00\x00\x00\x00\x00\x00\x00\x01\x00\x00\x00\x00\x00\x00\x00\x01\x00\x00\x00\x00\x00\x00\x00\x02\x00\x00\x00\x00\x00\x00\x00\x01\x00\x00\x00\x00\x00\x00\x00\x01\x00\x00\x00\x00\x00\x00\x00\x01\x00\x00\x00\x00\x00\x00\x00\x01\x00\x00\x00\x00\x00\x00\x00\x01\x00\x00\x00\x00\x00\x00\x00\x01\x00\x00\x00\x00\x00\x00\x00\x01\x00\x00\x00\x00\x00\x00\x00\x01\x00\x00\x00\x00\x00\x00\x00\x01\x00\x00\x00\x00\x00\x00\x00\x01\x00\x00\x00\x00\x00\x00\x00\x01\x00\x00\x00\x00\x00\x00\x00\x02\x00\x00\x00\x00\x00\x00\x00\x01\x00\x00\x00\x00\x00\x00\x00\x01\x00\x00\x00\x00\x00\x00\x00\x02\x00\x00\x00\x00\x00\x00\x00\x01\x00\x00\x00\x00\x00\x00\x00\x01\x00\x00\x00\x00\x00\x00\x00\x01\x00\x00\x00\x00\x00\x00\x00\x01\x00\x00\x00\x00\x00\x00\x00\x01\x00\x00\x00\x00\x00\x00\x00\x01\x00\x00\x00\x00\x00\x00\x00\x01\x00\x00\x00\x00\x00\x00\x00\x01\x00\x00\x00\x00\x00\x00\x00\x01\x00\x00\x00\x00\x00\x00\x00\x01\x00\x00\x00\x00\x00\x00\x00\x02\x00\x00\x00\x00\x00\x00\x00\x01\x00\x00\x00\x00\x00\x00\x00\x01\x00\x00\x00\x00\x00\x00\x00\x03\x00\x00\x00\x00\x00\x00\x00\x01\x00\x00\x00\x00\x00\x00\x00\x01\x00\x00\x00\x00\x00\x00\x00\x01\x00\x00\x00\x00\x00\x00\x00\x01\x00\x00\x00\x00\x00\x00\x00\x05\x00\x00\x00\x00\x00\x00\x00\x01\x00\x00\x00\x00\x00\x00\x00\x02\x00\x00\x00\x00\x00\x00\x00\x02\x00\x00\x00\x00\x00\x00\x00\x04\x00\x00\x00\x00\x00\x00\x00\x04\x00\x00\x00\x00\x00\x00\x00\x01\x00\x00\x00\x00\x00\x00\x00'
p178
tp179
bsbsbsS'abstract'
p180
S''
p181
sS'sys_CE_list'
p182
(lp183
(icmyPackage
CELink1
p184
(dp185
S'sysCEid'
p186
I0
sS'ew_span'
p187
(lp188
(I0
I3
tp189
a(I0
I5
tp190
asS'cw_span'
p191
(lp192
(I0
I7
tp193
a(I0
I24
tp194
asS'pt'
p195
(icmyPackage
pattern
p196
(dp197
S'pfreq'
p198
I26
sS'moresent'
p199
I1
sS'main_token'
p200
(lp201
(lp202
S'as'
p203
aasS'ptype'
p204
(lp205
I3
aI1
aI1
asS'cases'
p206
(lp207
S'You do not need to worry about the operation, as the software is very easy to use.'
p208
asS'constraints'
p209
(lp210
(lp211
S'&R@Complete@'
p212
aS'(,)'
p213
aS'(-such/-same/-seem/-regard/-regards/-regarded/-view/-views/-viewed/-denote/-denoted/-denotes)'
p214
aa(lp215
S'(-if/-follow/-follows/-&adv)'
p216
aS'&C@Complete@'
p217
aasbsS'Staglst'
p218
(lp219
I2
asbasS'p_t'
p220
g36
(g37
g38
Ntp221
Rp222
(dp223
g66
(I1
I1
tp224
sS'_has_sorted_indices'
p225
I01
sg58
g43
(g44
(I0
tp226
g46
tp227
Rp228
(I1
(I2
tp229
g50
(S'i4'
p230
I0
I1
tp231
Rp232
(I3
S'<'
p233
NNNI-1
I-1
I0
tp234
bI00
S'\x00\x00\x00\x00\x01\x00\x00\x00'
p235
tp236
bsg42
g43
(g44
(I0
tp237
g46
tp238
Rp239
(I1
(I1
tp240
g232
I00
S'\x00\x00\x00\x00'
p241
tp242
bsg65
I50
sg68
g43
(g44
(I0
tp243
g46
tp244
Rp245
(I1
(I1
tp246
g75
I00
S'\x00\x00\x00\x00\x00\x00\xf0?'
p247
tp248
bsbsS'sec_id_dict'
p249
(dp250
I2
I0
ssS'keycount'
p251
(isxpProcessParaText
sxpTextCount
p252
(dp253
S'total_keywordsize'
p254
I4501
sg251
ccollections
Counter
p255
((dp256
Vwritings
p257
I1
sVsimilarity
p258
I1
sVdynamic
p259
I1
sVyellow
p260
I1
sVfour
p261
I1
sVcircuitry
p262
I1
sVconsists
p263
I1
sVlocalized
p264
I1
sVpayoff
p265
I1
sVwhose
p266
I1
sVelectricity
p267
I1
sVsegments
p268
I1
sVPlato
p269
I1
sVcontained
p270
I1
sVpresents
p271
I1
sVAuthors
p272
I1
sVteaching
p273
I1
sVsorry
p274
I1
sVcollaborate
p275
I1
sVnavigating
p276
I1
sVdownstream
p277
I1
sVregional
p278
I1
sVconnects
p279
I1
sVregions
p280
I1
sVhandling
p281
I1
sVupdates
p282
I1
sVaffect
p283
I1
sVbringing
p284
I1
sVvast
p285
I1
sVdifferentiated
p286
I1
sVinternally
p287
I1
sVcrops
p288
I1
sVsolution
p289
I1
sVenhance
p290
I1
sVPaul
p291
I1
sVreliable
p292
I1
sVLenat
p293
I1
sVforce
p294
I1
sVconcise
p295
I1
sVSome
p296
I1
sVfeasibility
p297
I1
sVlikely
p298
I1
sVDistinguishing
p299
I1
sVimplemented
p300
I1
sVeven
p301
I1
sVpreferences
p302
I1
sVcooking
p303
I1
sVlights
p304
I1
sVpragmatism
p305
I1
sVdesigning
p306
I1
sVnew
p307
I1
sVnet
p308
I1
sVcontributes
p309
I1
sVever
p310
I1
sVmetadata
p311
I1
sVevolutionism
p312
I1
sVspecialist
p313
I1
sVevolving
p314
I1
sVnever
p315
I1
sVsunspot
p316
I1
sVhere
p317
I1
sVatoms
p318
I1
sVPatients
p319
I1
sVpossibility
p320
I1
sVactive
p321
I1
sVinterpret
p322
I1
sVascribing
p323
I1
sVsubstance
p324
I1
sVk
p325
I1
sVignoring
p326
I1
sVcredit
p327
I1
sVloop
p328
I1
sVpermit
p329
I1
sVsuitable
p330
I1
sVcriticism
p331
I1
sVappropriately
p332
I1
sVprojection
p333
I1
sVclassification
p334
I1
sVexplained
p335
I1
sVRelations
p336
I1
sVreplace
p337
I1
sVpsychological
p338
I1
sVAlso
p339
I1
sVunit
p340
I1
sVbrowse
p341
I1
sVmusic
p342
I1
sVtherefore
p343
I1
sVrecommend
p344
I1
sVrationalism
p345
I1
sVtype
p346
I1
sVuntil
p347
I1
sVRecent
p348
I1
sVsuccessful
p349
I1
sVbrings
p350
I1
sVRule
p351
I1
sVglass
p352
I1
sVV
p353
I1
sV91
p354
I1
sV90
p355
I1
sVhold
p356
I1
sVcircumstances
p357
I1
sVlocked
p358
I1
sVroom
p359
I1
sVrights
p360
I1
sVpursue
p361
I1
sVText
p362
I1
sVmovies
p363
I1
sVneurons
p364
I1
sVconcepts
p365
I1
sVexceptions
p366
I1
sVexample
p367
I1
sVgive
p368
I1
sVLin
p369
I1
sVorganized
p370
I1
sVinvolve
p371
I1
sVLiu
p372
I1
sVreviewing
p373
I1
sVwant
p374
I1
sVorganizes
p375
I1
sVworldview
p376
I1
sVelicited
p377
I1
sVfeature
p378
I1
sVmachine
p379
I1
sVhow
p380
I1
sVmethodology
p381
I1
sVhop
p382
I1
sVanswer
p383
I1
sVsymposium
p384
I1
sVclassify
p385
I1
sVA
p386
I1
sVabstraction
p387
I1
sVBates
p388
I1
sVreplacing
p389
I1
sVtyped
p390
I1
sVminimized
p391
I1
sVwrong
p392
I1
sVsummarize
p393
I1
sVunselfish
p394
I1
sVtypes
p395
I1
sVAll
p396
I1
sVattempt
p397
I1
sVeffective
p398
I1
sVneglect
p399
I1
sVmaintain
p400
I1
sVAnother
p401
I1
sVkeeps
p402
I1
sVoperate
p403
I1
sVwind
p404
I1
sVoperations
p405
I1
sVrestriction
p406
I1
sVfeedback
p407
I1
sVMacCarthy
p408
I1
sVvary
p409
I1
sVexperimentally
p410
I1
sVOrdinary
p411
I1
sVjournals
p412
I1
sVbefore
p413
I1
sVHis
p414
I1
sVfit
p415
I1
sVpersonal
p416
I1
sVbetter
p417
I1
sVdifferently
p418
I1
sVhidden
p419
I1
sVeasier
p420
I1
sVenrich
p421
I1
sVgrand
p422
I1
sVPresumably
p423
I1
sVeffects
p424
I1
sVstructural
p425
I1
sVrepresents
p426
I1
sVgrammar
p427
I1
sVIndeed
p428
I1
sVwent
p429
I1
sVside
p430
I1
sVfMRI
p431
I1
sVseries
p432
I1
sVprinciples
p433
I1
sVRecognizing
p434
I1
sVInvestigation
p435
I1
sVmethodological
p436
I1
sVclauses
p437
I1
sV399
p438
I1
sVextract
p439
I1
sVlaterbe
p440
I1
sVNLS
p441
I1
sVHahn
p442
I1
sVrestricted
p443
I1
sVcontent
p444
I1
sVre
p445
I1
sVencourage
p446
I1
sVadapt
p447
I1
sVreader
p448
I1
sVsize
p449
I1
sVfoundation
p450
I1
sVlinear
p451
I1
sVUniversity
p452
I1
sVIntercultural
p453
I1
sVexpressiveness
p454
I1
sVLuckmann
p455
I1
sVsensors
p456
I1
sVstarts
p457
I1
sVatt
p458
I1
sVisn
p459
I1
sVHuman
p460
I1
sV1970s
p461
I1
sVFacts
p462
I1
sVloudness
p463
I1
sVfeatures
p464
I1
sVElkiss
p465
I1
sVchannels
p466
I1
sVinstruct
p467
I1
sVfloors
p468
I1
sVwasn
p469
I1
sVservice
p470
I1
sVtired
p471
I1
sVneeded
p472
I1
sVCorrespondingly
p473
I1
sVmaster
p474
I1
sVhypothetical
p475
I1
sVinflow
p476
I1
sVAdapting
p477
I1
sVrewards
p478
I1
sVfeathers
p479
I1
sVpredictable
p480
I1
sVsomewhat
p481
I1
sVbegins
p482
I1
sVdistance
p483
I1
sVConsider
p484
I1
sVshowed
p485
I1
sVtree
p486
I1
sVsecond
p487
I1
sVCyber
p488
I1
sVproject
p489
I1
sVmatter
p490
I1
sVsilly
p491
I1
sVenables
p492
I1
sVextracting
p493
I1
sVsees
p494
I1
sVabstracting
p495
I1
sVexploring
p496
I1
sVmodern
p497
I1
sVmind
p498
I1
sVMethodology
p499
I1
sVseen
p500
I1
sVpolynemes
p501
I1
sVtells
p502
I1
sVThen
p503
I1
sVOptimizing
p504
I1
sVperson
p505
I1
sVresponsible
p506
I1
sVsameAge
p507
I1
sVrecommended
p508
I1
sVcausing
p509
I1
sVamusing
p510
I1
sVThey
p511
I1
sVestablished
p512
I1
sVKnight
p513
I1
sVobject
p514
I1
sVphonograph
p515
I1
sVcassettes
p516
I1
sVrevising
p517
I1
sVcollaborators
p518
I1
sVmorality
p519
I1
sVinitiator
p520
I1
sVepisode
p521
I1
sVobservation
p522
I1
sVDeMenthon
p523
I1
sVmedical
p524
I1
sVm
p525
I1
sVdog
p526
I1
sVDynasty
p527
I1
sVpoints
p528
I1
sVsimulate
p529
I1
sVprinciple
p530
I1
sVincomplete
p531
I1
sVincorporate
p532
I1
sVContinuous
p533
I1
sVattempts
p534
I1
sVgauge
p535
I1
sVparticipate
p536
I1
sVResources
p537
I1
sVRebuilding
p538
I1
sVlayout
p539
I1
sVexplain
p540
I1
sVTian
p541
I1
sVtouched
p542
I1
sVrich
p543
I1
sVOthers
p544
I1
sVintegrate
p545
I1
sVHistory
p546
I1
sVestablishes
p547
I1
sVprofessionals
p548
I1
sVNevertheless
p549
I1
sVtelephones
p550
I1
sVstop
p551
I1
sVseemly
p552
I1
sVincreasing
p553
I1
sVbar
p554
I1
sVtextbooks
p555
I1
sVCholerae
p556
I1
sVSearching
p557
I1
sVbad
p558
I1
sVarchitecture
p559
I1
sVrelease
p560
I1
sVhasten
p561
I1
sVdecides
p562
I1
sVreference
p563
I1
sVperipheral
p564
I1
sVtesting
p565
I1
sVemergent
p566
I1
sVIntends
p567
I1
sVradius
p568
I1
sVresult
p569
I1
sVJohn
p570
I1
sVbest
p571
I1
sVsubject
p572
I1
sVThings
p573
I1
sVsaid
p574
I1
sVwikipedia
p575
I1
sVartificial
p576
I1
sVsimplest
p577
I1
sVconceptual
p578
I1
sVpreserve
p579
I1
sVC
p580
I1
sVextend
p581
I1
sVnature
p582
I1
sVsmelled
p583
I1
sVrestricting
p584
I1
sVphysicist
p585
I1
sVextent
p586
I1
sVcarbon
p587
I1
sVOtherwise
p588
I1
sVsuggested
p589
I1
sVLink
p590
I1
sVcup
p591
I1
sVagainst
p592
I1
sVDreyfus
p593
I1
sVlogic
p594
I1
sVdistinction
p595
I1
sVcontribution
p596
I1
sVargue
p597
I1
sVadapted
p598
I1
sVasked
p599
I1
sVand
p600
I1
sVGiven
p601
I1
sVCompleteness
p602
I1
sVappeared
p603
I1
sVheight
p604
I1
sVClosed
p605
I1
sVsprings
p606
I1
sVPerception
p607
I1
sVbilling
p608
I1
sVbasis
p609
I1
sVunion
p610
I1
sVthree
p611
I1
sVenumerative
p612
I1
sVextraction
p613
I1
sVtrigger
p614
I1
sVinterest
p615
I1
sVbasic
p616
I1
sVprivilege
p617
I1
sVOntology
p618
I1
sVformalized
p619
I1
sVwebsite
p620
I1
sVDefinition
p621
I1
sVlife
p622
I1
sVchild
p623
I1
sVunpopular
p624
I1
sVCo
p625
I1
sVcontemplated
p626
I1
sVnear
p627
I1
sVsuppose
p628
I1
sVbalance
p629
I1
sVleaves
p630
I1
sVSchemas
p631
I1
sVremembering
p632
I1
sVreinventions
p633
I1
sVBoth
p634
I1
sVis
p635
I1
sVit
p636
I1
sVtraffic
p637
I1
sVin
p638
I1
sVactuates
p639
I1
sVtrusted
p640
I1
sVif
p641
I1
sVspecialization
p642
I1
sVthings
p643
I1
sVmake
p644
I1
sVharmony
p645
I1
sVOf
p646
I1
sVBritton
p647
I1
sVRaghavan
p648
I1
sVmeets
p649
I1
sVdiffering
p650
I1
sVUsually
p651
I1
sVopportunity
p652
I1
sVthoughts
p653
I1
sVprograms
p654
I1
sVstimuli
p655
I1
sVVn
p656
I1
sVefficient
p657
I1
sVmaterials
p658
I1
sVqualities
p659
I1
sVsimulated
p660
I1
sVparadigm
p661
I1
sV33
p662
I1
sVleft
p663
I1
sVopinions
p664
I1
sVMurphy
p665
I1
sVjust
p666
I1
sVsentence
p667
I1
sVideas
p668
I1
sVidentify
p669
I1
sVtransforms
p670
I1
sVhuman
p671
I1
sVfacts
p672
I1
sVyet
p673
I1
sVprevious
p674
I1
sVcatalytic
p675
I1
sVcandidate
p676
I1
sVsciences
p677
I1
sVease
p678
I1
sVhad
p679
I1
sVabout
p680
I1
sVFramework
p681
I1
sVtuples
p682
I1
sVcollections
p683
I1
sVeasy
p684
I1
sVsave
p685
I1
sVreuse
p686
I1
sVpossible
p687
I1
sVpossibly
p688
I1
sVbackground
p689
I1
sVperformance
p690
I1
sVclustered
p691
I1
sVshadow
p692
I1
sVSuitable
p693
I1
sVmassively
p694
I1
sVd
p695
I1
sVharmoniously
p696
I1
sVDr
p697
I1
sVperforming
p698
I1
sVmanual
p699
I1
sVunnecessary
p700
I1
sVmisled
p701
I1
sVsteps
p702
I1
sVAre
p703
I1
sVFurther
p704
I1
sVwww
p705
I1
sVright
p706
I1
sVold
p707
I1
sVshuttles
p708
I1
sVpeople
p709
I1
sVSystem
p710
I1
sVdead
p711
I1
sVparagraphs
p712
I1
sVsociology
p713
I1
sVdense
p714
I1
sVfor
p715
I1
sVelectromagnetic
p716
I1
sVsubclass
p717
I1
sVimposes
p718
I1
sVBayes
p719
I1
sVdynamicity
p720
I1
sVsubstitutes
p721
I1
sVenergy
p722
I1
sVpredicting
p723
I1
sVlosing
p724
I1
sVmanufacturing
p725
I1
sVemits
p726
I1
sVFirst
p727
I1
sVpredisposition
p728
I1
sVAbstract
p729
I1
sVIncluding
p730
I1
sVcommit
p731
I1
sVslightly
p732
I1
sVautomatically
p733
I1
sVfunctions
p734
I1
sVnerve
p735
I1
sVUse
p736
I1
sVstatements
p737
I1
sVKnowledge
p738
I1
sVfacility
p739
I1
sVSUM
p740
I1
sVrefines
p741
I1
sVintellectual
p742
I1
sVdown
p743
I1
sVFew
p744
I1
sVbeings
p745
I1
sVrefined
p746
I1
sVreducing
p747
I1
sVcoauthor
p748
I1
sVmethods
p749
I1
sVUnless
p750
I1
sVsupport
p751
I1
sVinitial
p752
I1
sVknowing
p753
I1
sVapproximate
p754
I1
sVinfluencing
p755
I1
sVfraction
p756
I1
sVtriplets
p757
I1
sVcall
p758
I1
sVhappy
p759
I1
sVDNA
p760
I1
sVform
p761
I1
sVoffer
p762
I1
sVforming
p763
I1
sVdenoting
p764
I1
sVSurvey
p765
I1
sVInteractive
p766
I1
sVbuilds
p767
I1
sVwelldefined
p768
I1
sVdevices
p769
I1
sVtell
p770
I1
sVEngineering
p771
I1
sVstages
p772
I1
sVtemper
p773
I1
sVdelete
p774
I1
sVproved
p775
I1
sVclassic
p776
I1
sVcovers
p777
I1
sVexist
p778
I1
sVDescription
p779
I1
sVdotted
p780
I1
sVlocality
p781
I1
sVauthoritative
p782
I1
sVgenerally
p783
I1
sVFriederici
p784
I1
sVrole
p785
I1
sVdigital
p786
I1
sVascription
p787
I1
sVintend
p788
I1
sVmodels
p789
I1
sVfelt
p790
I1
sVauthorities
p791
I1
sVneuroscience
p792
I1
sVReflexive
p793
I1
sVInform
p794
I1
sVassume
p795
I1
sVdaily
p796
I1
sVSecond
p797
I1
sVtime
p798
I1
sVirrigation
p799
I1
sVchain
p800
I1
sVrelieve
p801
I1
sVactivated
p802
I1
sVthemes
p803
I1
sVmild
p804
I1
sVinvolved
p805
I1
sV21st
p806
I1
sV92
p807
I1
sVtechnique
p808
I1
sV0
p809
I1
sVfinally
p810
I1
sVmarks
p811
I1
sVanalogous
p812
I1
sV1991
p813
I1
sVinnovation
p814
I1
sVMaybury
p815
I1
sVchoice
p816
I1
sVcyberphysical
p817
I1
sVrationality
p818
I1
sVword
p819
I1
sVexact
p820
I1
sVfragments
p821
I1
sVnomes
p822
I1
sV1704
p823
I1
sVdid
p824
I1
sVunify
p825
I1
sVpermits
p826
I1
sVRank
p827
I1
sVleave
p828
I1
sVitem
p829
I1
sVteam
p830
I1
sVperceptual
p831
I1
sVinsignificant
p832
I1
sVprediction
p833
I1
sVliterature
p834
I1
sVShakespeare
p835
I1
sVbacterial
p836
I1
sVUzZaman
p837
I1
sVcurrent
p838
I1
sVPopper
p839
I1
sVinternational
p840
I1
sVfalling
p841
I1
sVground
p842
I1
sVunderstanding
p843
I1
sVmagnetism
p844
I1
sVAnalogizing
p845
I1
sValong
p846
I1
sVChanges
p847
I1
sVearthquake
p848
I1
sVbox
p849
I1
sVdiagnoses
p850
I1
sVuff0c
p851
I1
sVMA
p852
I1
sVinterests
p853
I1
sVstudied
p854
I1
sVcommonly
p855
I1
sVconveniently
p856
I1
sVstudies
p857
I1
sVwindowing
p858
I1
sVtasks
p859
I1
sVuseful
p860
I1
sVmerely
p861
I1
sVWhen
p862
I1
sVlogical
p863
I1
sVindicated
p864
I1
sVworking
p865
I1
sVpositive
p866
I1
sVpredictions
p867
I1
sVby
p868
I1
sVencode
p869
I1
sVscope
p870
I1
sVMaintaining
p871
I1
sVintroducing
p872
I1
sVsharing
p873
I1
sVNeural
p874
I1
sVapparent
p875
I1
sVvalidity
p876
I1
sVRIF
p877
I1
sVvisual
p878
I1
sVappendix
p879
I1
sVGodel
p880
I1
sVeffort
p881
I1
sVeasiest
p882
I1
sVbehalf
p883
I1
sVfly
p884
I1
sVLocke
p885
I1
sVoriginally
p886
I1
sVScan
p887
I1
sVbelieves
p888
I1
sVreviews
p889
I1
sVharmonious
p890
I1
sVvalues
p891
I1
sVbelieved
p892
I1
sVOur
p893
I1
sVChildren
p894
I1
sVnearest
p895
I1
sVportals
p896
I1
sVmirrors
p897
I1
sVpredict
p898
I1
sVagent
p899
I1
sVconfuses
p900
I1
sVsubconsciously
p901
I1
sVWho
p902
I1
sVchemical
p903
I1
sVLouis
p904
I1
sVoptimal
p905
I1
sVWhy
p906
I1
sVThese
p907
I1
sVmap
p908
I1
sVdesigner
p909
I1
sVexplores
p910
I1
sVmay
p911
I1
sVapplications
p912
I1
sVexplored
p913
I1
sVdesigned
p914
I1
sVimproving
p915
I1
sVsummarizers
p916
I1
sVdata
p917
I1
sVman
p918
I1
sVnatural
p919
I1
sVcorrelate
p920
I1
sVconscious
p921
I1
sVmaybe
p922
I1
sVordinarily
p923
I1
sVfluent
p924
I1
sVso
p925
I1
sVdeposit
p926
I1
sVdefinitions
p927
I1
sVtalk
p928
I1
sVwebpage
p929
I1
sVpointed
p930
I1
sVyears
p931
I1
sVstability
p932
I1
sVcourse
p933
I1
sVexperiments
p934
I1
sVargued
p935
I1
sVtendency
p936
I1
sVderive
p937
I1
sVgroup
p938
I1
sVmonitor
p939
I1
sVinteresting
p940
I1
sVhot
p941
I1
sVconstitutes
p942
I1
sVmail
p943
I1
sVmain
p944
I1
sVSemantics
p945
I1
sVconveying
p946
I1
sVwithin
p947
I1
sVviews
p948
I1
sVmatches
p949
I1
sVsmarter
p950
I1
sVrecords
p951
I1
sVsemiotics
p952
I1
sVKrakauer
p953
I1
sVmaintaining
p954
I1
sVmatched
p955
I1
sVSimple
p956
I1
sVcognition
p957
I1
sVdidn
p958
I1
sVarrows
p959
I1
sVestablishing
p960
I1
sVlocate
p961
I1
sVepistemologically
p962
I1
sVsquare
p963
I1
sVretrieve
p964
I1
sVcyberspace
p965
I1
sVrevised
p966
I1
sVabnormal
p967
I1
sVbreakthrough
p968
I1
sVP2P
p969
I1
sVsummary
p970
I1
sVpredefined
p971
I1
sVemerges
p972
I1
sVCommonsense
p973
I1
sVsubtype
p974
I1
sVnovice
p975
I1
sVseriously
p976
I1
sVemerged
p977
I1
sVformula
p978
I1
sVsquares
p979
I1
sVcorrect
p980
I1
sVJon
p981
I1
sVunifying
p982
I1
sVearlier
p983
I1
sVcooperatively
p984
I1
sVG
p985
I1
sVtelegraphy
p986
I1
sVSometimes
p987
I1
sVmechanisms
p988
I1
sVgoverning
p989
I1
sVcomplicated
p990
I1
sVorg
p991
I1
sVinductive
p992
I1
sVadvance
p993
I1
sVtraining
p994
I1
sVderivation
p995
I1
sVlanguage
p996
I1
sVretrieving
p997
I1
sVprogramming
p998
I1
sVrouted
p999
I1
sVthing
p1000
I1
sVmassive
p1001
I1
sVthink
p1002
I1
sVfirst
p1003
I1
sVemotion
p1004
I1
sVrepositories
p1005
I1
sVsymmetry
p1006
I1
sVspoken
p1007
I1
sVone
p1008
I1
sVISI
p1009
I1
sVreflects
p1010
I1
sVlong
p1011
I1
sVcarry
p1012
I1
sVISB
p1013
I1
sVsounds
p1014
I1
sVopen
p1015
I1
sVDetect
p1016
I1
sVlittle
p1017
I1
sVpersonalities
p1018
I1
sVstructured
p1019
I1
sVanyone
p1020
I1
sVindicate
p1021
I1
sV2
p1022
I1
sVdraft
p1023
I1
sVassimilates
p1024
I1
sVstructures
p1025
I1
sVcite
p1026
I1
sVspeaking
p1027
I1
sVmining
p1028
I1
sVinefficient
p1029
I1
sVcontinuous
p1030
I1
sVaccurately
p1031
I1
sVartifact
p1032
I1
sVrepresenting
p1033
I1
sVinventor
p1034
I1
sV11
p1035
I1
sV10
p1036
I1
sV13
p1037
I1
sV12
p1038
I1
sV15
p1039
I1
sV14
p1040
I1
sV17
p1041
I1
sV16
p1042
I1
sV19
p1043
I1
sV18
p1044
I1
sVconstructionism
p1045
I1
sVfuture
p1046
I1
sVwere
p1047
I1
sVsummarizations
p1048
I1
sVinferring
p1049
I1
sVfiles
p1050
I1
sVillness
p1051
I1
sVtasted
p1052
I1
sVtopics
p1053
I1
sVturned
p1054
I1
sVlocations
p1055
I1
sVsay
p1056
I1
sVoccupied
p1057
I1
sVDo
p1058
I1
sVEco
p1059
I1
sVanswering
p1060
I1
sVnote
p1061
I1
sVintends
p1062
I1
sVImportant
p1063
I1
sVtake
p1064
I1
sVwanting
p1065
I1
sVObserving
p1066
I1
sVchannel
p1067
I1
sVformulas
p1068
I1
sVprinter
p1069
I1
sVpain
p1070
I1
sVtrace
p1071
I1
sVnormal
p1072
I1
sVtrack
p1073
I1
sVknew
p1074
I1
sVpair
p1075
I1
sVpages
p1076
I1
sVsynonym
p1077
I1
sVespecially
p1078
I1
sVdiversity
p1079
I1
sVHypertext
p1080
I1
sVinfections
p1081
I1
sVways
p1082
I1
sVwhich
p1083
I1
sVproperly
p1084
I1
sVTrained
p1085
I1
sVChen
p1086
I1
sVlaws
p1087
I1
sVprecise
p1088
I1
sVshot
p1089
I1
sVshow
p1090
I1
sVCarbonell
p1091
I1
sVmerit
p1092
I1
sVSystems
p1093
I1
sVextents
p1094
I1
sVimagined
p1095
I1
sVPervasive
p1096
I1
sVWe
p1097
I1
sVslow
p1098
I1
sVenough
p1099
I1
sVCyc
p1100
I1
sVgoing
p1101
I1
sVblack
p1102
I1
sVServices
p1103
I1
sVawareness
p1104
I1
sVranking
p1105
I1
sVuderstand
p1106
I1
sVget
p1107
I1
sVCoordinating
p1108
I1
sVLarge
p1109
I1
sVreadablitiy
p1110
I1
sVHaving
p1111
I1
sVHyperlinking
p1112
I1
sVblind
p1113
I1
sVresource
p1114
I1
sVMethods
p1115
I1
sVartist
p1116
I1
sVfanciful
p1117
I1
sVmedial
p1118
I1
sVmorning
p1119
I1
sVmedias
p1120
I1
sVuncover
p1121
I1
sVEducation
p1122
I1
sVwhere
p1123
I1
sVvision
p1124
I1
sVarouses
p1125
I1
sVrelative
p1126
I1
sVcheerfully
p1127
I1
sVsites
p1128
I1
sVsponsorship
p1129
I1
sVboundaries
p1130
I1
sVbehind
p1131
I1
sVenumerated
p1132
I1
sVnavigates
p1133
I1
sVreading
p1134
I1
sVchecks
p1135
I1
sVinfrastructure
p1136
I1
sVscreen
p1137
I1
sVascribed
p1138
I1
sVsupermarket
p1139
I1
sVrapidly
p1140
I1
sVEach
p1141
I1
sVDirectory
p1142
I1
sVkilling
p1143
I1
sVmotivations
p1144
I1
sVphilosophically
p1145
I1
sVmany
p1146
I1
sVCitation
p1147
I1
sVaccording
p1148
I1
sVdeduction
p1149
I1
sVs
p1150
I1
sVKant
p1151
I1
sVamong
p1152
I1
sVants
p1153
I1
sVinnovations
p1154
I1
sVstretched
p1155
I1
sVDynamicity
p1156
I1
sVconsiders
p1157
I1
sVconsidering
p1158
I1
sVepistemology
p1159
I1
sVTuring
p1160
I1
sVlocally
p1161
I1
sVmark
p1162
I1
sVdefined
p1163
I1
sVQazvinian
p1164
I1
sVjudging
p1165
I1
sVModeling
p1166
I1
sVprototype
p1167
I1
sVwants
p1168
I1
sVenable
p1169
I1
sVconvincible
p1170
I1
sVformed
p1171
I1
sVphotos
p1172
I1
sVobserve
p1173
I1
sVweeks
p1174
I1
sVthose
p1175
I1
sVdisconnected
p1176
I1
sVsingle
p1177
I1
sVprofiles
p1178
I1
sVImagination
p1179
I1
sVpolicies
p1180
I1
sVsituation
p1181
I1
sVconferences
p1182
I1
sVeventually
p1183
I1
sVcharacteristics
p1184
I1
sVComposing
p1185
I1
sVcoffee
p1186
I1
sVLooking
p1187
I1
sVcluster
p1188
I1
sVtechnology
p1189
I1
sVeveryday
p1190
I1
sVEmpiricism
p1191
I1
sVdifferent
p1192
I1
sVdoctor
p1193
I1
sVpay
p1194
I1
sVsame
p1195
I1
sVObjects
p1196
I1
sVspeech
p1197
I1
sVexternalizing
p1198
I1
sVlifetimes
p1199
I1
sVextended
p1200
I1
sVI
p1201
I1
sVedges
p1202
I1
sVZubiaga
p1203
I1
sVAppropriately
p1204
I1
sVtracking
p1205
I1
sVundefined
p1206
I1
sVmacro
p1207
I1
sVmotions
p1208
I1
sVknow
p1209
I1
sVObjectively
p1210
I1
sVsolve
p1211
I1
sVSigmund
p1212
I1
sVdimension
p1213
I1
sVMRI
p1214
I1
sVunsolvable
p1215
I1
sVbeing
p1216
I1
sVmoney
p1217
I1
sVrest
p1218
I1
sVrecycled
p1219
I1
sVDaniel
p1220
I1
sVaspect
p1221
I1
sVrewriting
p1222
I1
sVgrounded
p1223
I1
sV4
p1224
I1
sVAlthough
p1225
I1
sVactors
p1226
I1
sVextensive
p1227
I1
sVaspects
p1228
I1
sVaround
p1229
I1
sVSecondly
p1230
I1
sVdecomposed
p1231
I1
sVperiod
p1232
I1
sVLicklider
p1233
I1
sVgrid
p1234
I1
sVpreference
p1235
I1
sVworld
p1236
I1
sVOperations
p1237
I1
sVvending
p1238
I1
sVidentifying
p1239
I1
sVfacing
p1240
I1
sVaudience
p1241
I1
sVeither
p1242
I1
sVMoreover
p1243
I1
sVinter
p1244
I1
sVRecognition
p1245
I1
sVgrouping
p1246
I1
sVspecifies
p1247
I1
sVsatisfactory
p1248
I1
sV66
p1249
I1
sVmoving
p1250
I1
sVBrandow
p1251
I1
sVspecified
p1252
I1
sVimages
p1253
I1
sVNew
p1254
I1
sVNet
p1255
I1
sVorganizing
p1256
I1
sVmatching
p1257
I1
sVgenerates
p1258
I1
sVgenetics
p1259
I1
sVdimensions
p1260
I1
sVconfirm
p1261
I1
sVmemories
p1262
I1
sVsymbiotic
p1263
I1
sVfluids
p1264
I1
sVdisciplinary
p1265
I1
sVpioneer
p1266
I1
sVcritical
p1267
I1
sVdecomposition
p1268
I1
sVexpressing
p1269
I1
sVsemantically
p1270
I1
sVunderstandings
p1271
I1
sVEffort
p1272
I1
sVInteraction
p1273
I1
sVscientific
p1274
I1
sVpower
p1275
I1
sVcliques
p1276
I1
sVseconds
p1277
I1
sVproblems
p1278
I1
sVnotably
p1279
I1
sVBehavior
p1280
I1
sVEfforts
p1281
I1
sVrefers
p1282
I1
sVmanufacturer
p1283
I1
sVregulations
p1284
I1
sVconducting
p1285
I1
sVstations
p1286
I1
sVindustry
p1287
I1
sVfavorite
p1288
I1
sVdevelops
p1289
I1
sVpractical
p1290
I1
sVAnalyzing
p1291
I1
sVairline
p1292
I1
sVneighbor
p1293
I1
sVact
p1294
I1
sVroad
p1295
I1
sVDimensions
p1296
I1
sVNo
p1297
I1
sVimage
p1298
I1
sVreferences
p1299
I1
sVposters
p1300
I1
sVvaluable
p1301
I1
sVAlexandrian
p1302
I1
sVtechnically
p1303
I1
sVTewfik
p1304
I1
sVher
p1305
I1
sVstructure
p1306
I1
sVrecommends
p1307
I1
sVcomplete
p1308
I1
sVConfucius
p1309
I1
sVsophisticated
p1310
I1
sVtechnologies
p1311
I1
sVwith
p1312
I1
sVGuide
p1313
I1
sVEven
p1314
I1
sVcommonality
p1315
I1
sVarranged
p1316
I1
sVreasoned
p1317
I1
sVunveils
p1318
I1
sVSociety
p1319
I1
sVarranges
p1320
I1
sVexemplar
p1321
I1
sVsubclasses
p1322
I1
sVdetailed
p1323
I1
sVgone
p1324
I1
sVrequired
p1325
I1
sVLatent
p1326
I1
sVvideos
p1327
I1
sVcertain
p1328
I1
sVcitation
p1329
I1
sVam
p1330
I1
sVal
p1331
I1
sVgeneral
p1332
I1
sVHow
p1333
I1
sVas
p1334
I1
sVat
p1335
I1
sVlaboratory
p1336
I1
sVlifetime
p1337
I1
sVfilm
p1338
I1
sVReal
p1339
I1
sVagain
p1340
I1
sVassessing
p1341
I1
sVhybrid
p1342
I1
sVdepth
p1343
I1
sVfield
p1344
I1
sVspatial
p1345
I1
sVWide
p1346
I1
sV2004
p1347
I1
sVregardless
p1348
I1
sVstudents
p1349
I1
sVvertex
p1350
I1
sVa1
p1351
I1
sVimportant
p1352
I1
sVRationalists
p1353
I1
sVrequires
p1354
I1
sVDirect
p1355
I1
sVPoints
p1356
I1
sVu
p1357
I1
sVresembles
p1358
I1
sVnutrient
p1359
I1
sVstarting
p1360
I1
sVoriginal
p1361
I1
sVrepresent
p1362
I1
sVconsider
p1363
I1
sVPhysiological
p1364
I1
sVcaused
p1365
I1
sVCaesar
p1366
I1
sVFig
p1367
I1
sVcooperative
p1368
I1
sVwelfare
p1369
I1
sVexpressions
p1370
I1
sVchildren
p1371
I1
sVcauses
p1372
I1
sVTextnet
p1373
I1
sVtn
p1374
I1
sVto
p1375
I1
sVtm
p1376
I1
sVpreserved
p1377
I1
sVti
p1378
I1
sVheterogeneity
p1379
I1
sVhomepage
p1380
I1
sVstraightforward
p1381
I1
sVVehicles
p1382
I1
sVSocrates
p1383
I1
sVdifference
p1384
I1
sVcondition
p1385
I1
sVneurological
p1386
I1
sVaccompanying
p1387
I1
sVglobality
p1388
I1
sVt2
p1389
I1
sVapplicable
p1390
I1
sVt0
p1391
I1
sVintricately
p1392
I1
sVlarge
p1393
I1
sVadjust
p1394
I1
sVsmall
p1395
I1
sVbiological
p1396
I1
sVBehaving
p1397
I1
sVabbreviated
p1398
I1
sVantibiotic
p1399
I1
sVInteracting
p1400
I1
sVActually
p1401
I1
sVpast
p1402
I1
sVreact
p1403
I1
sVOnly
p1404
I1
sVperspective
p1405
I1
sVpass
p1406
I1
sVfurther
p1407
I1
sVsituated
p1408
I1
sVdial
p1409
I1
sVclock
p1410
I1
sVsection
p1411
I1
sVCultural
p1412
I1
sVsubspaces
p1413
I1
sVscientists
p1414
I1
sVapply
p1415
I1
sVpublic
p1416
I1
sVcontrast
p1417
I1
sVmovement
p1418
I1
sVrevealing
p1419
I1
sVfull
p1420
I1
sVNenkova
p1421
I1
sVK
p1422
I1
sVcalculates
p1423
I1
sVoperating
p1424
I1
sVpublisher
p1425
I1
sVsearch
p1426
I1
sVgeneralizing
p1427
I1
sVstretching
p1428
I1
sVexperience
p1429
I1
sVprior
p1430
I1
sVpublished
p1431
I1
sVaction
p1432
I1
sVmentions
p1433
I1
sVnarrow
p1434
I1
sVvia
p1435
I1
sVshorthand
p1436
I1
sVVisualizing
p1437
I1
sVcommonalities
p1438
I1
sVOntological
p1439
I1
sVestablish
p1440
I1
sVestimate
p1441
I1
sVselect
p1442
I1
sVCore
p1443
I1
sVeye
p1444
I1
sVuniformity
p1445
I1
sVdistinct
p1446
I1
sVcodify
p1447
I1
sVdestination
p1448
I1
sVtwo
p1449
I1
sVcomparing
p1450
I1
sVsplash
p1451
I1
sV6
p1452
I1
sVTeufel
p1453
I1
sVachieving
p1454
I1
sVmore
p1455
I1
sVinitiated
p1456
I1
sVconstructs
p1457
I1
sVDaume
p1458
I1
sVcontrolling
p1459
I1
sVparticular
p1460
I1
sVnormative
p1461
I1
sVevolves
p1462
I1
sVkeeping
p1463
I1
sVgravel
p1464
I1
sVhour
p1465
I1
sVmiddle
p1466
I1
sVrecall
p1467
I1
sVremain
p1468
I1
sVparagraph
p1469
I1
sVdel
p1470
I1
sVindicating
p1471
I1
sVevolved
p1472
I1
sVlearn
p1473
I1
sVstrategies
p1474
I1
sVspecialized
p1475
I1
sVIncorporating
p1476
I1
sVbeautiful
p1477
I1
sVstubborn
p1478
I1
sVcompare
p1479
I1
sVscan
p1480
I1
sVshare
p1481
I1
sVaccept
p1482
I1
sVstates
p1483
I1
sVminimum
p1484
I1
sVnumbers
p1485
I1
sVsense
p1486
I1
sVhuge
p1487
I1
sVrespective
p1488
I1
sVRaymond
p1489
I1
sVawkward
p1490
I1
sVacts
p1491
I1
sVmaps
p1492
I1
sVDon
p1493
I1
sVintended
p1494
I1
sVadvice
p1495
I1
sVmapping
p1496
I1
sVquestioning
p1497
I1
sVblood
p1498
I1
sVresponse
p1499
I1
sVsummarization
p1500
I1
sVrefuse
p1501
I1
sVbroadcasting
p1502
I1
sVfundamental
p1503
I1
sVretrieval
p1504
I1
sVCeccato
p1505
I1
sVWhat
p1506
I1
sVhypertext
p1507
I1
sVorganize
p1508
I1
sVthrough
p1509
I1
sVfilters
p1510
I1
sVsigns
p1511
I1
sVexistence
p1512
I1
sVsuffer
p1513
I1
sVTurkeltaub
p1514
I1
sV24
p1515
I1
sV25
p1516
I1
sV26
p1517
I1
sV27
p1518
I1
sV20
p1519
I1
sV21
p1520
I1
sV22
p1521
I1
sV23
p1522
I1
sV28
p1523
I1
sV29
p1524
I1
sVsymptoms
p1525
I1
sVdetected
p1526
I1
sVmicroscopic
p1527
I1
sVImplicit
p1528
I1
sVVersatile
p1529
I1
sVskipped
p1530
I1
sVseeking
p1531
I1
sVformulating
p1532
I1
sVGruber
p1533
I1
sVcomplain
p1534
I1
sVassociation
p1535
I1
sVmystery
p1536
I1
sVOriented
p1537
I1
sVGraesser
p1538
I1
sVEngelbart
p1539
I1
sValways
p1540
I1
sVNewton
p1541
I1
sVmicro
p1542
I1
sVexperiencing
p1543
I1
sVfound
p1544
I1
sVu2018
p1545
I1
sVharm
p1546
I1
sVeveryone
p1547
I1
sVmental
p1548
I1
sVhouse
p1549
I1
sVcontiguous
p1550
I1
sVhard
p1551
I1
sVreduce
p1552
I1
sVu2014
p1553
I1
sVconnect
p1554
I1
sVoperation
p1555
I1
sVpenicillin
p1556
I1
sVreally
p1557
I1
sVstands
p1558
I1
sVpsychology
p1559
I1
sVdenotes
p1560
I1
sVZooming
p1561
I1
sVReport
p1562
I1
sVevaluation
p1563
I1
sVbelief
p1564
I1
sVreformulated
p1565
I1
sVsemiotic
p1566
I1
sVdifficulty
p1567
I1
sVArchitecture
p1568
I1
sVmembers
p1569
I1
sVimagine
p1570
I1
sVbeginning
p1571
I1
sVEm
p1572
I1
sVdefinition
p1573
I1
sVpairs
p1574
I1
sVcomputers
p1575
I1
sVSelect
p1576
I1
sVEp
p1577
I1
sVmajor
p1578
I1
sVnumber
p1579
I1
sVinstances
p1580
I1
sVdone
p1581
I1
sVneglects
p1582
I1
sVRationalism
p1583
I1
sVinvariance
p1584
I1
sVguess
p1585
I1
sVdivorce
p1586
I1
sVmoderately
p1587
I1
sVparanomes
p1588
I1
sVconstruct
p1589
I1
sVregulation
p1590
I1
sVassumption
p1591
I1
sVstatement
p1592
I1
sVcompromise
p1593
I1
sVessays
p1594
I1
sVdistribu
p1595
I1
sVmuscles
p1596
I1
sVLanguage
p1597
I1
sVEuclidean
p1598
I1
sVpart
p1599
I1
sVfavorable
p1600
I1
sVdoctors
p1601
I1
sVfocusing
p1602
I1
sVbelieve
p1603
I1
sVb
p1604
I1
sVdetermines
p1605
I1
sVrecording
p1606
I1
sVdetermined
p1607
I1
sVcontrary
p1608
I1
sVelaborate
p1609
I1
sVtreated
p1610
I1
sVXu
p1611
I1
sVcontradict
p1612
I1
sVorders
p1613
I1
sVsell
p1614
I1
sVpaths
p1615
I1
sVREMARK
p1616
I1
sVbuilt
p1617
I1
sVdepending
p1618
I1
sVself
p1619
I1
sValso
p1620
I1
sVrecognizing
p1621
I1
sVinternal
p1622
I1
sVinterconnection
p1623
I1
sVanalogy
p1624
I1
sVplay
p1625
I1
sVprogrammers
p1626
I1
sVM
p1627
I1
sVmost
p1628
I1
sVvirus
p1629
I1
sVCommon
p1630
I1
sVsignificant
p1631
I1
sVservices
p1632
I1
sVextremely
p1633
I1
sVunderstands
p1634
I1
sVconstructed
p1635
I1
sVsometimes
p1636
I1
sVcover
p1637
I1
sVEncouraging
p1638
I1
sVreflections
p1639
I1
sVPhysical
p1640
I1
sVorganism
p1641
I1
sVparticularly
p1642
I1
sVconverge
p1643
I1
sVrelation
p1644
I1
sVheadlines
p1645
I1
sVfind
p1646
I1
sVimpact
p1647
I1
sVindicator
p1648
I1
sVnervous
p1649
I1
sVwriter
p1650
I1
sVdistributed
p1651
I1
sVaffiliations
p1652
I1
sVidiots
p1653
I1
sVBase
p1654
I1
sVeruptions
p1655
I1
sVfactor
p1656
I1
sV8
p1657
I1
sVcholera
p1658
I1
sVexpress
p1659
I1
sVactress
p1660
I1
sVclosely
p1661
I1
sVsill
p1662
I1
sVFeatures
p1663
I1
sVdeductive
p1664
I1
sVenemy
p1665
I1
sVOp1
p1666
I1
sVOp2
p1667
I1
sVOp3
p1668
I1
sVAnyway
p1669
I1
sVMinneapolis
p1670
I1
sVcommon
p1671
I1
sVlogistic
p1672
I1
sVrestaurants
p1673
I1
sVset
p1674
I1
sVFor
p1675
I1
sVenabled
p1676
I1
sVu2264
p1677
I1
sVu2265
p1678
I1
sVu2260
p1679
I1
sVsex
p1680
I1
sVsee
p1681
I1
sVindividual
p1682
I1
sVsea
p1683
I1
sVdegree
p1684
I1
sVexpert
p1685
I1
sVvisiting
p1686
I1
sVmovie
p1687
I1
sVavailable
p1688
I1
sVresponses
p1689
I1
sVinterfaces
p1690
I1
sVProgramming
p1691
I1
sVinterface
p1692
I1
sVencapsulate
p1693
I1
sVlast
p1694
I1
sVreverse
p1695
I1
sVhyperlink
p1696
I1
sVinfluential
p1697
I1
sVconnection
p1698
I1
sVimproves
p1699
I1
sVfocused
p1700
I1
sVwhole
p1701
I1
sVload
p1702
I1
sVvolcanic
p1703
I1
sVelaborating
p1704
I1
sVpoint
p1705
I1
sVsimple
p1706
I1
sVloan
p1707
I1
sVrecycling
p1708
I1
sVcorresponds
p1709
I1
sVcommunity
p1710
I1
sVaudios
p1711
I1
sVdimensional
p1712
I1
sVLogics
p1713
I1
sVsimply
p1714
I1
sVadaptation
p1715
I1
sVopenness
p1716
I1
sVensures
p1717
I1
sVfused
p1718
I1
sVraise
p1719
I1
sVStudents
p1720
I1
sVcreate
p1721
I1
sVacceptance
p1722
I1
sVimplicit
p1723
I1
sVsecret
p1724
I1
sVcitations
p1725
I1
sVnavigate
p1726
I1
sVtreatment
p1727
I1
sVXML
p1728
I1
sVSeparation
p1729
I1
sVGenerally
p1730
I1
sVgas
p1731
I1
sVremark
p1732
I1
sVecosystem
p1733
I1
sVadaptable
p1734
I1
sVunderstand
p1735
I1
sVrepresentative
p1736
I1
sVsystematic
p1737
I1
sVLenzerini
p1738
I1
sVuncertain
p1739
I1
sVtalking
p1740
I1
sVstraight
p1741
I1
sVempirical
p1742
I1
sVreceive
p1743
I1
sVmomentum
p1744
I1
sVevaluating
p1745
I1
sVleaning
p1746
I1
sVNavlakha
p1747
I1
sV31
p1748
I1
sVadvising
p1749
I1
sVreal
p1750
I1
sVcentury
p1751
I1
sVcents
p1752
I1
sVfaceted
p1753
I1
sVencountered
p1754
I1
sVitself
p1755
I1
sVCIKM2012
p1756
I1
sVOWL
p1757
I1
sVoverlays
p1758
I1
sVevading
p1759
I1
sVexternalize
p1760
I1
sVshorter
p1761
I1
sVread
p1762
I1
sVvirtually
p1763
I1
sVresulting
p1764
I1
sVdevelopment
p1765
I1
sVundecidable
p1766
I1
sVyesterday
p1767
I1
sVviewing
p1768
I1
sVlevels
p1769
I1
sVpurpose
p1770
I1
sVnecessity
p1771
I1
sVunveil
p1772
I1
sVstack
p1773
I1
sVrecent
p1774
I1
sVProject
p1775
I1
sVtask
p1776
I1
sVsupersede
p1777
I1
sVFigure
p1778
I1
sVOrganizing
p1779
I1
sVconcrete
p1780
I1
sVregulating
p1781
I1
sVy
p1782
I1
sVorganization
p1783
I1
sVspend
p1784
I1
sVsemiformal
p1785
I1
sVCategory
p1786
I1
sVParanomes
p1787
I1
sVisolated
p1788
I1
sVabbreviation
p1789
I1
sVshape
p1790
I1
sVusing
p1791
I1
sVdiscipline
p1792
I1
sVrelevancy
p1793
I1
sVreaders
p1794
I1
sVReaders
p1795
I1
sVadvertisements
p1796
I1
sVattractive
p1797
I1
sVsignals
p1798
I1
sVsource
p1799
I1
sVhyperlinks
p1800
I1
sVparents
p1801
I1
sVlocation
p1802
I1
sVrelevance
p1803
I1
sVinput
p1804
I1
sVsolvable
p1805
I1
sVexcited
p1806
I1
sVhates
p1807
I1
sVchess
p1808
I1
sVOn
p1809
I1
sVformat
p1810
I1
sVbig
p1811
I1
sVExploration
p1812
I1
sVemergence
p1813
I1
sVenumerable
p1814
I1
sVformal
p1815
I1
sVpertinent
p1816
I1
sVcognitive
p1817
I1
sVsemi
p1818
I1
sVfollows
p1819
I1
sVfacets
p1820
I1
sVconsensus
p1821
I1
sVindividuals
p1822
I1
sVindication
p1823
I1
sVoften
p1824
I1
sVback
p1825
I1
sVWhom
p1826
I1
sVinstantiating
p1827
I1
sVexamples
p1828
I1
sVmirror
p1829
I1
sVourselves
p1830
I1
sVscale
p1831
I1
sVdecision
p1832
I1
sVshall
p1833
I1
sVintegration
p1834
I1
sVper
p1835
I1
sVbehave
p1836
I1
sVaugmenting
p1837
I1
sVinserting
p1838
I1
sVbe
p1839
I1
sVpatient
p1840
I1
sVuse
p1841
I1
sVO
p1842
I1
sVsubconscious
p1843
I1
sVDavis
p1844
I1
sVfrom
p1845
I1
sVrelating
p1846
I1
sVTypically
p1847
I1
sVreadability
p1848
I1
sVconstrains
p1849
I1
sVanything
p1850
I1
sVconstraint
p1851
I1
sVcoexist
p1852
I1
sVLinking
p1853
I1
sVpollution
p1854
I1
sVrepair
p1855
I1
sVcomputational
p1856
I1
sVinto
p1857
I1
sVbastards
p1858
I1
sVappropriate
p1859
I1
sVprimarily
p1860
I1
sVframes
p1861
I1
sVclustering
p1862
I1
sVtasting
p1863
I1
sVbored
p1864
I1
sVRegarding
p1865
I1
sVan
p1866
I1
sVelsewhere
p1867
I1
sVposter
p1868
I1
sVQS
p1869
I1
sVlink
p1870
I1
sVdon
p1871
I1
sVline
p1872
I1
sVintestines
p1873
I1
sVdirected
p1874
I1
sVfriendOf
p1875
I1
sVup
p1876
I1
sVus
p1877
I1
sVclips
p1878
I1
sVmaturity
p1879
I1
sVverification
p1880
I1
sVmature
p1881
I1
sVSense
p1882
I1
sVcontinuously
p1883
I1
sVautonomous
p1884
I1
sVprofessor
p1885
I1
sVSpecializing
p1886
I1
sVconstant
p1887
I1
sVPerhaps
p1888
I1
sVNanba
p1889
I1
sVAnswering
p1890
I1
sVinfluence
p1891
I1
sVCross
p1892
I1
sVengineering
p1893
I1
sVdiverse
p1894
I1
sVformalism
p1895
I1
sVdefines
p1896
I1
sVcomposing
p1897
I1
sVthinks
p1898
I1
sVcoded
p1899
I1
sVimplements
p1900
I1
sVRepresentations
p1901
I1
sVexplaining
p1902
I1
sVelements
p1903
I1
sVJulius
p1904
I1
sVrobots
p1905
I1
sVprepared
p1906
I1
sVlens
p1907
I1
sVago
p1908
I1
sVimplies
p1909
I1
sValgorithm
p1910
I1
sVcooker
p1911
I1
sVage
p1912
I1
sVFlicker
p1913
I1
sVnotion
p1914
I1
sV2002
p1915
I1
sV2003
p1916
I1
sV2000
p1917
I1
sV2001
p1918
I1
sV2006
p1919
I1
sV2007
p1920
I1
sVDetermine
p1921
I1
sV2005
p1922
I1
sV2008
p1923
I1
sV2009
p1924
I1
sVhaving
p1925
I1
sVcode
p1926
I1
sVpartial
p1927
I1
sVsaying
p1928
I1
sVbroaden
p1929
I1
sVresults
p1930
I1
sVexisting
p1931
I1
sVSummarizing
p1932
I1
sVSaint
p1933
I1
sVquery
p1934
I1
sVinferences
p1935
I1
sVNotice
p1936
I1
sVcompose
p1937
I1
sVconcerned
p1938
I1
sVsend
p1939
I1
sVliterary
p1940
I1
sVciting
p1941
I1
sVhelps
p1942
I1
sVworldviews
p1943
I1
sVdislike
p1944
I1
sVfatal
p1945
I1
sVresources
p1946
I1
sVgarden
p1947
I1
sVCognition
p1948
I1
sVimplicitly
p1949
I1
sVGraphs
p1950
I1
sVNot
p1951
I1
sVanimals
p1952
I1
sVcategories
p1953
I1
sVarrange
p1954
I1
sVentire
p1955
I1
sVmoderate
p1956
I1
sVclassifications
p1957
I1
sVintegrating
p1958
I1
sVtry
p1959
I1
sVversioning
p1960
I1
sVequipments
p1961
I1
sVlogistics
p1962
I1
sVLong
p1963
I1
sVimply
p1964
I1
sVvideo
p1965
I1
sVuncomfortable
p1966
I1
sVCriteria
p1967
I1
sVTransformation
p1968
I1
sV3D
p1969
I1
sVgiving
p1970
I1
sVmultimedia
p1971
I1
sVanalogously
p1972
I1
sVexpressed
p1973
I1
sVaccess
p1974
I1
sVflowing
p1975
I1
sVbird
p1976
I1
sVpublications
p1977
I1
sVbody
p1978
I1
sVled
p1979
I1
sVfertilization
p1980
I1
sVrespectively
p1981
I1
sVdelivering
p1982
I1
sVstategy
p1983
I1
sVobjects
p1984
I1
sVlet
p1985
I1
sVothers
p1986
I1
sVconsideration
p1987
I1
sVsafer
p1988
I1
sVinvented
p1989
I1
sVphysiology
p1990
I1
sVextreme
p1991
I1
sV39
p1992
I1
sV38
p1993
I1
sVChinese
p1994
I1
sVtechnical
p1995
I1
sV32
p1996
I1
sVEnergy
p1997
I1
sV30
p1998
I1
sV37
p1999
I1
sV36
p2000
I1
sV35
p2001
I1
sV34
p2002
I1
sVsurvey
p2003
I1
sVopinion
p2004
I1
sVimplement
p2005
I1
sVproof
p2006
I1
sVmakes
p2007
I1
sVinvolves
p2008
I1
sVcomposed
p2009
I1
sVdecentralized
p2010
I1
sVimmigrating
p2011
I1
sVMultimedia
p2012
I1
sVPragmatism
p2013
I1
sVnames
p2014
I1
sVAnswer
p2015
I1
sVtools
p2016
I1
sVcausal
p2017
I1
sVcertificate
p2018
I1
sVnext
p2019
I1
sVreciprocity
p2020
I1
sVthemselves
p2021
I1
sVMathematical
p2022
I1
sVMulti
p2023
I1
sVon
p2024
I1
sVcarrying
p2025
I1
sVnormalized
p2026
I1
sVcentral
p2027
I1
sVpotential
p2028
I1
sVaccount
p2029
I1
sVpracticing
p2030
I1
sVf
p2031
I1
sVthis
p2032
I1
sVchallenge
p2033
I1
sVreproduce
p2034
I1
sVtag
p2035
I1
sVobvious
p2036
I1
sVthin
p2037
I1
sVindustrial
p2038
I1
sVfulfill
p2039
I1
sVreserved
p2040
I1
sVprocess
p2041
I1
sVpurposes
p2042
I1
sVpieces
p2043
I1
sVhigh
p2044
I1
sVeffectively
p2045
I1
sVreserves
p2046
I1
sVexpandable
p2047
I1
sVSeveral
p2048
I1
sVschemas
p2049
I1
sVu03a4
p2050
I1
sVKupiec
p2051
I1
sVvaried
p2052
I1
sVdelay
p2053
I1
sVanimal
p2054
I1
sVestablishment
p2055
I1
sVobeys
p2056
I1
sVbuildings
p2057
I1
sVHyperlink
p2058
I1
sVspecifications
p2059
I1
sVphilosophy
p2060
I1
sVcollection
p2061
I1
sVQ
p2062
I1
sVmultiplication
p2063
I1
sVefficiently
p2064
I1
sVrealized
p2065
I1
sVseparations
p2066
I1
sVcorrespond
p2067
I1
sVredundant
p2068
I1
sVOne
p2069
I1
sVmetaphors
p2070
I1
sVallow
p2071
I1
sVlooking
p2072
I1
sVRegina
p2073
I1
sVthermostatic
p2074
I1
sVareas
p2075
I1
sVdoubtful
p2076
I1
sVsymbols
p2077
I1
sVagricultural
p2078
I1
sVbunch
p2079
I1
sVindustries
p2080
I1
sVbridges
p2081
I1
sVScientific
p2082
I1
sVprognosis
p2083
I1
sVll
p2084
I1
sVrelativity
p2085
I1
sVfmk
p2086
I1
sVinstruments
p2087
I1
sVlatitude
p2088
I1
sVInventing
p2089
I1
sV2011
p2090
I1
sV2010
p2091
I1
sV2013
p2092
I1
sV2012
p2093
I1
sVDeductive
p2094
I1
sVphysicians
p2095
I1
sVgreater
p2096
I1
sVmention
p2097
I1
sVEcology
p2098
I1
sVbodies
p2099
I1
sVSocial
p2100
I1
sVcage
p2101
I1
sVday
p2102
I1
sVSymmetry
p2103
I1
sVverifying
p2104
I1
sVintelligent
p2105
I1
sVradiant
p2106
I1
sVidentified
p2107
I1
sVaccompanies
p2108
I1
sVmerge
p2109
I1
sVtruth
p2110
I1
sVtraces
p2111
I1
sVconstraints
p2112
I1
sVhomogeneous
p2113
I1
sVactivate
p2114
I1
sVFrom
p2115
I1
sVNetwork
p2116
I1
sVstrip
p2117
I1
sVprogrammed
p2118
I1
sVsociety
p2119
I1
sVintangible
p2120
I1
sVstatic
p2121
I1
sVAgarwal
p2122
I1
sVagriculture
p2123
I1
sVhypercycle
p2124
I1
sVMaterial
p2125
I1
sVmediated
p2126
I1
sVChina
p2127
I1
sVsocalled
p2128
I1
sVlecture
p2129
I1
sVadaptive
p2130
I1
sVred
p2131
I1
sVCyberspace
p2132
I1
sVretrieved
p2133
I1
sVapproaches
p2134
I1
sVHarmonious
p2135
I1
sVFirstly
p2136
I1
sVvolumes
p2137
I1
sVretrieves
p2138
I1
sVlog
p2139
I1
sVBachman
p2140
I1
sVinteraction
p2141
I1
sVcapture
p2142
I1
sVspill
p2143
I1
sVautomatic
p2144
I1
sVcould
p2145
I1
sVaren
p2146
I1
sVlength
p2147
I1
sVfacilitate
p2148
I1
sVPublished
p2149
I1
sVthere
p2150
I1
sVreflexive
p2151
I1
sVthird
p2152
I1
sVscene
p2153
I1
sVreaches
p2154
I1
sVProgram
p2155
I1
sVowner
p2156
I1
sVreached
p2157
I1
sVancient
p2158
I1
sVordering
p2159
I1
sVbehaves
p2160
I1
sVsystem
p2161
I1
sVintermediate
p2162
I1
sVsymbiosis
p2163
I1
sVpervasive
p2164
I1
sVQing
p2165
I1
sVaccompany
p2166
I1
sVstars
p2167
I1
sVcompleted
p2168
I1
sVacquire
p2169
I1
sVobserved
p2170
I1
sVReferenced
p2171
I1
sVbother
p2172
I1
sVAnderson
p2173
I1
sVExisting
p2174
I1
sVembody
p2175
I1
sVabstracts
p2176
I1
sVcollecting
p2177
I1
sVviewer
p2178
I1
sVlines
p2179
I1
sVcurves
p2180
I1
sVrobot
p2181
I1
sVMachine
p2182
I1
sVCommunity
p2183
I1
sVencyclopedias
p2184
I1
sVelement
p2185
I1
sVclearly
p2186
I1
sVviewed
p2187
I1
sVacceleration
p2188
I1
sVdocuments
p2189
I1
sVbacterium
p2190
I1
sVstudying
p2191
I1
sVgravity
p2192
I1
sVmechanism
p2193
I1
sVconcerns
p2194
I1
sVincorporating
p2195
I1
sVInvisible
p2196
I1
sVrealizes
p2197
I1
sVworldwide
p2198
I1
sVunless
p2199
I1
sVversa
p2200
I1
sVSLN
p2201
I1
sVpropagate
p2202
I1
sVpreliminary
p2203
I1
sVformalisms
p2204
I1
sVpayment
p2205
I1
sVUnified
p2206
I1
sVMCM
p2207
I1
sVDescartes
p2208
I1
sVgather
p2209
I1
sVstronger
p2210
I1
sVdisease
p2211
I1
sVSimilarly
p2212
I1
sVreachability
p2213
I1
sVNamely
p2214
I1
sVMCS
p2215
I1
sVfact
p2216
I1
sVMCP
p2217
I1
sVselection
p2218
I1
sVtext
p2219
I1
sVHardy
p2220
I1
sVterminate
p2221
I1
sVEvidences
p2222
I1
sVvisualized
p2223
I1
sVbring
p2224
I1
sVShrink
p2225
I1
sVpromote
p2226
I1
sVknowledge
p2227
I1
sV1599
p2228
I1
sVproduces
p2229
I1
sVshould
p2230
I1
sVterminal
p2231
I1
sVentities
p2232
I1
sVjam
p2233
I1
sVtape
p2234
I1
sVhope
p2235
I1
sVphotographs
p2236
I1
sVmeans
p2237
I1
sVlobe
p2238
I1
sVfamiliar
p2239
I1
sVKeep
p2240
I1
sVEnabling
p2241
I1
sVrecoded
p2242
I1
sVclicked
p2243
I1
sVorgan
p2244
I1
sVBuchanan
p2245
I1
sVcomprising
p2246
I1
sVfixed
p2247
I1
sVconstructing
p2248
I1
sVexists
p2249
I1
sVframe
p2250
I1
sVWikipedia
p2251
I1
sVmentioned
p2252
I1
sVHyperlinks
p2253
I1
sVVarious
p2254
I1
sVenhanced
p2255
I1
sVRaschia
p2256
I1
sVphases
p2257
I1
sVerror
p2258
I1
sVinteracting
p2259
I1
sVpattern
p2260
I1
sVpurses
p2261
I1
sVdifficulties
p2262
I1
sVrouting
p2263
I1
sVprogress
p2264
I1
sVboundary
p2265
I1
sVemail
p2266
I1
sVends
p2267
I1
sVhypercycles
p2268
I1
sVlinguistics
p2269
I1
sVdeliver
p2270
I1
sVimplementing
p2271
I1
sVMerging
p2272
I1
sVinterchangeable
p2273
I1
sVconfiguration
p2274
I1
sVcommenting
p2275
I1
sVfreely
p2276
I1
sVtaking
p2277
I1
sVequal
p2278
I1
sVetc
p2279
I1
sVDesign
p2280
I1
sVattributes
p2281
I1
sVpassing
p2282
I1
sVFriedman
p2283
I1
sVNonmonotonic
p2284
I1
sVcomment
p2285
I1
sVci
p2286
I1
sVrelevant
p2287
I1
sVco
p2288
I1
sVWorld
p2289
I1
sVagents
p2290
I1
sVconclude
p2291
I1
sVSolving
p2292
I1
sV576
p2293
I1
sVmodeling
p2294
I1
sVUML
p2295
I1
sVModerate
p2296
I1
sVequips
p2297
I1
sVleads
p2298
I1
sVtrajectory
p2299
I1
sVgaze
p2300
I1
sVteamwork
p2301
I1
sVCommunities
p2302
I1
sVutilizing
p2303
I1
sVtopology
p2304
I1
sVdefine
p2305
I1
sVadapting
p2306
I1
sV469
p2307
I1
sVmeningitis
p2308
I1
sVMcKeown
p2309
I1
sVairplanes
p2310
I1
sVfinished
p2311
I1
sV2014
p2312
I1
sVfellow
p2313
I1
sVmulti
p2314
I1
sVimagination
p2315
I1
sVappearance
p2316
I1
sVNumber
p2317
I1
sVvalue
p2318
I1
sVGeneral
p2319
I1
sVarchival
p2320
I1
sVpictures
p2321
I1
sVdiscoveries
p2322
I1
sVuncertainty
p2323
I1
sValmost
p2324
I1
sVvn
p2325
I1
sVrespected
p2326
I1
sVmicronemes
p2327
I1
sVSOA
p2328
I1
sVProgrammers
p2329
I1
sVhospitals
p2330
I1
sVadministration
p2331
I1
sVfinite
p2332
I1
sVinfer
p2333
I1
sVpractice
p2334
I1
sVmathematic
p2335
I1
sVanthropomorphism
p2336
I1
sVv1
p2337
I1
sVarchitectures
p2338
I1
sVinfinite
p2339
I1
sVbuild
p2340
I1
sVoff
p2341
I1
sVcenter
p2342
I1
sVneural
p2343
I1
sVconfronted
p2344
I1
sVReasoning
p2345
I1
sVthought
p2346
I1
sVpatterns
p2347
I1
sVsets
p2348
I1
sVposition
p2349
I1
sVTotal
p2350
I1
sVarising
p2351
I1
sVdepict
p2352
I1
sVless
p2353
I1
sVstorage
p2354
I1
sVpresumably
p2355
I1
sVstored
p2356
I1
sVbooks
p2357
I1
sVpredicts
p2358
I1
sVmacroscopic
p2359
I1
sVweb
p2360
I1
sVYouTube
p2361
I1
sVrecommending
p2362
I1
sVrealize
p2363
I1
sVlattice
p2364
I1
sVadd
p2365
I1
sVcombine
p2366
I1
sVspirals
p2367
I1
sVcombing
p2368
I1
sVpropositions
p2369
I1
sVmatch
p2370
I1
sVresolved
p2371
I1
sVtests
p2372
I1
sVincreased
p2373
I1
sVworlds
p2374
I1
sVchecking
p2375
I1
sVdecidable
p2376
I1
sVelapsed
p2377
I1
sVsupervise
p2378
I1
sVDijk
p2379
I1
sVinsert
p2380
I1
sVlike
p2381
I1
sVsuccess
p2382
I1
sVbecome
p2383
I1
sVworks
p2384
I1
sVsoft
p2385
I1
sVreplacement
p2386
I1
sVaccessible
p2387
I1
sVInteract
p2388
I1
sVauthority
p2389
I1
sVideals
p2390
I1
sVconvey
p2391
I1
sVrecommendation
p2392
I1
sVdiagonalizing
p2393
I1
sVrecognition
p2394
I1
sVhappens
p2395
I1
sVavoid
p2396
I1
sVdoes
p2397
I1
sVeconomical
p2398
I1
sVchains
p2399
I1
sVnoise
p2400
I1
sVpredispositions
p2401
I1
sVselecting
p2402
I1
sVpressure
p2403
I1
sValthough
p2404
I1
sVloans
p2405
I1
sVsimpler
p2406
I1
sVexhibit
p2407
I1
sVasks
p2408
I1
sVintroduces
p2409
I1
sVQuestions
p2410
I1
sVintroduced
p2411
I1
sVrevise
p2412
I1
sVswimming
p2413
I1
sVsubset
p2414
I1
sVrendered
p2415
I1
sVletters
p2416
I1
sVTwo
p2417
I1
sVassess
p2418
I1
sVScientists
p2419
I1
sVroads
p2420
I1
sVAddLink
p2421
I1
sV1986
p2422
I1
sVterminated
p2423
I1
sV1632
p2424
I1
sV1985
p2425
I1
sV1982
p2426
I1
sV1980
p2427
I1
sVpopularity
p2428
I1
sVmuch
p2429
I1
sVterminates
p2430
I1
sVnaturally
p2431
I1
sVfunction
p2432
I1
sVGeneralizing
p2433
I1
sVbut
p2434
I1
sVconstruction
p2435
I1
sVSuppose
p2436
I1
sVconvergence
p2437
I1
sVAdopting
p2438
I1
sVversatile
p2439
I1
sVpartially
p2440
I1
sVcount
p2441
I1
sVcompute
p2442
I1
sVplaces
p2443
I1
sVchained
p2444
I1
sVwish
p2445
I1
sVj
p2446
I1
sVplaced
p2447
I1
sVfrequency
p2448
I1
sVproblem
p2449
I1
sVReason
p2450
I1
sVrecognize
p2451
I1
sVcontribute
p2452
I1
sVgraphical
p2453
I1
sVdissemination
p2454
I1
sVdenote
p2455
I1
sVseparating
p2456
I1
sVcircumscription
p2457
I1
sVinf
p2458
I1
sVprogrammer
p2459
I1
sV48
p2460
I1
sV49
p2461
I1
sVAddRule
p2462
I1
sV47
p2463
I1
sV44
p2464
I1
sV45
p2465
I1
sVclaiming
p2466
I1
sV43
p2467
I1
sV40
p2468
I1
sV41
p2469
I1
sVcompares
p2470
I1
sVspecial
p2471
I1
sVmass
p2472
I1
sV85
p2473
I1
sVStructure
p2474
I1
sVclass
p2475
I1
sVecological
p2476
I1
sVU
p2477
I1
sV4D
p2478
I1
sVroadmaps
p2479
I1
sVaccelerate
p2480
I1
sVThus
p2481
I1
sVrule
p2482
I1
sVcompete
p2483
I1
sVOOP
p2484
I1
sVrural
p2485
I1
sV479
p2486
I1
sVlimited
p2487
I1
sVvalve
p2488
I1
sVmagnetic
p2489
I1
sVpersonally
p2490
I1
sVdesirable
p2491
I1
sVall
p2492
I1
sVfacilities
p2493
I1
sVsleep
p2494
I1
sVrelationships
p2495
I1
sVfeeding
p2496
I1
sVWarnings
p2497
I1
sVphysiological
p2498
I1
sVunder
p2499
I1
sVChanging
p2500
I1
sVontological
p2501
I1
sVworth
p2502
I1
sVcarried
p2503
I1
sVsummarizes
p2504
I1
sVsummarizer
p2505
I1
sVconjecture
p2506
I1
sVrisk
p2507
I1
sVincurs
p2508
I1
sVblanket
p2509
I1
sVrise
p2510
I1
sVreplication
p2511
I1
sVresoning
p2512
I1
sVevery
p2513
I1
sVsummarized
p2514
I1
sVAutomatic
p2515
I1
sVBehaviors
p2516
I1
sVexecuting
p2517
I1
sVExternalization
p2518
I1
sVsupports
p2519
I1
sVupload
p2520
I1
sVhumidity
p2521
I1
sVMAC
p2522
I1
sVenjoy
p2523
I1
sVdisciplines
p2524
I1
sVphones
p2525
I1
sVestimates
p2526
I1
sVdirect
p2527
I1
sVrigorous
p2528
I1
sVCollins
p2529
I1
sVair
p2530
I1
sVmachines
p2531
I1
sVunderstandability
p2532
I1
sVGenerating
p2533
I1
sVorganisms
p2534
I1
sVLSA
p2535
I1
sVselected
p2536
I1
sVreasoning
p2537
I1
sVabove
p2538
I1
sVsupplies
p2539
I1
sVconsisting
p2540
I1
sVtold
p2541
I1
sVmaintains
p2542
I1
sVsimultaneously
p2543
I1
sVnotions
p2544
I1
sVu2013
p2545
I1
sVinterns
p2546
I1
sVpursuit
p2547
I1
sVrepresented
p2548
I1
sVpath
p2549
I1
sVobtained
p2550
I1
sVRadev
p2551
I1
sVproperty
p2552
I1
sVShen
p2553
I1
sVstudy
p2554
I1
sVchanged
p2555
I1
sVmuseums
p2556
I1
sVEMYCIN
p2557
I1
sVbrowsing
p2558
I1
sVchanges
p2559
I1
sVpunishment
p2560
I1
sVStudying
p2561
I1
sVhighly
p2562
I1
sVHealth
p2563
I1
sVtotal
p2564
I1
sVplot
p2565
I1
sVgraphs
p2566
I1
sVwould
p2567
I1
sVhospital
p2568
I1
sVmotivate
p2569
I1
sVnegative
p2570
I1
sVNovwak
p2571
I1
sVtk
p2572
I1
sVseparated
p2573
I1
sVconclusions
p2574
I1
sVascribe
p2575
I1
sVaware
p2576
I1
sVphone
p2577
I1
sVcontinual
p2578
I1
sVstriving
p2579
I1
sVmust
p2580
I1
sVme
p2581
I1
sV1993
p2582
I1
sV1995
p2583
I1
sV1997
p2584
I1
sV1996
p2585
I1
sV1999
p2586
I1
sV1998
p2587
I1
sVwork
p2588
I1
sVgrammars
p2589
I1
sVtheories
p2590
I1
sVphrases
p2591
I1
sVmy
p2592
I1
sVShroff
p2593
I1
sVcited
p2594
I1
sVpreserving
p2595
I1
sV551
p2596
I1
sVindicates
p2597
I1
sVHoneywell
p2598
I1
sVAbu
p2599
I1
sVtimes
p2600
I1
sVattract
p2601
I1
sVcites
p2602
I1
sVguarantee
p2603
I1
sVend
p2604
I1
sVprovide
p2605
I1
sVverify
p2606
I1
sVJournal
p2607
I1
sVfar
p2608
I1
sVimbedded
p2609
I1
sVwriters
p2610
I1
sVboats
p2611
I1
sVPrevious
p2612
I1
sVIII
p2613
I1
sVclassifying
p2614
I1
sVEssentially
p2615
I1
sVfever
p2616
I1
sVdescription
p2617
I1
sVarcs
p2618
I1
sVtransforming
p2619
I1
sVafter
p2620
I1
sVEstablishing
p2621
I1
sVpredicates
p2622
I1
sVlaw
p2623
I1
sVmeaningful
p2624
I1
sVMaxwell
p2625
I1
sVhypotheses
p2626
I1
sVcomplexity
p2627
I1
sValgorithms
p2628
I1
sVultimate
p2629
I1
sVdecreasing
p2630
I1
sVorder
p2631
I1
sVinterpretation
p2632
I1
sVover
p2633
I1
sVsatisfied
p2634
I1
sVexecutes
p2635
I1
sVthesis
p2636
I1
sVinnovative
p2637
I1
sVsatisfies
p2638
I1
sVnets
p2639
I1
sVdiagonalized
p2640
I1
sVmonotonicity
p2641
I1
sVGudivada
p2642
I1
sVHere
p2643
I1
sVwriting
p2644
I1
sVdestroyed
p2645
I1
sVproduction
p2646
I1
sVFrequent
p2647
I1
sVcarton
p2648
I1
sVthen
p2649
I1
sVthem
p2650
I1
sVdiseases
p2651
I1
sVinterdisciplinary
p2652
I1
sVcollide
p2653
I1
sVAnalysis
p2654
I1
sVIgnoring
p2655
I1
sVbreak
p2656
I1
sVthey
p2657
I1
sVworkflows
p2658
I1
sVbank
p2659
I1
sVreasonably
p2660
I1
sVclassified
p2661
I1
sVbackgrounds
p2662
I1
sVl
p2663
I1
sVu2208
p2664
I1
sVgood
p2665
I1
sVEdmundson
p2666
I1
sVreasonable
p2667
I1
sVeach
p2668
I1
sVclassifies
p2669
I1
sVAdding
p2670
I1
sVschemes
p2671
I1
sVevolve
p2672
I1
sVt1
p2673
I1
sVreused
p2674
I1
sVnetwork
p2675
I1
sVcameras
p2676
I1
sVmedicine
p2677
I1
sVgot
p2678
I1
sVforth
p2679
I1
sVscopes
p2680
I1
sVperception
p2681
I1
sVassociate
p2682
I1
sVfree
p2683
I1
sVstandard
p2684
I1
sVsalient
p2685
I1
sVformation
p2686
I1
sVdetecting
p2687
I1
sVwanted
p2688
I1
sVcreated
p2689
I1
sVcorrectness
p2690
I1
sVcreates
p2691
I1
sVlousy
p2692
I1
sVhopeless
p2693
I1
sVincorporated
p2694
I1
sVCREF
p2695
I1
sValready
p2696
I1
sVrender
p2697
I1
sVresearcher
p2698
I1
sVrank
p2699
I1
sVrestrict
p2700
I1
sVphilosophical
p2701
I1
sVAsking
p2702
I1
sVrelations
p2703
I1
sVanother
p2704
I1
sVnavigator
p2705
I1
sVtop
p2706
I1
sVAnthropomorphism
p2707
I1
sVfiction
p2708
I1
sVrates
p2709
I1
sVtoo
p2710
I1
sVcorpus
p2711
I1
sVfarming
p2712
I1
sVdogs
p2713
I1
sVinsightful
p2714
I1
sVB
p2715
I1
sVenhancing
p2716
I1
sVcentered
p2717
I1
sVtool
p2718
I1
sVserve
p2719
I1
sVinexact
p2720
I1
sVPatterns
p2721
I1
sVincur
p2722
I1
sVtarget
p2723
I1
sVroles
p2724
I1
sVzero
p2725
I1
sVclasses
p2726
I1
sVkth
p2727
I1
sVhistorical
p2728
I1
sVpossessed
p2729
I1
sVdisplays
p2730
I1
sVbridge
p2731
I1
sVfashion
p2732
I1
sVrespecting
p2733
I1
sVuploading
p2734
I1
sVRelativity
p2735
I1
sVraw
p2736
I1
sVsocio
p2737
I1
sVmanner
p2738
I1
sVregulate
p2739
I1
sVcontents
p2740
I1
sVrelatively
p2741
I1
sV1968
p2742
I1
sV1969
p2743
I1
sVconvenient
p2744
I1
sVlatter
p2745
I1
sV1960
p2746
I1
sV1961
p2747
I1
sV1963
p2748
I1
sVoriented
p2749
I1
sVtransmit
p2750
I1
sVeffectiveness
p2751
I1
sVexplanation
p2752
I1
sVSummarization
p2753
I1
sVthough
p2754
I1
sVglands
p2755
I1
sVComputers
p2756
I1
sVextending
p2757
I1
sVoptimized
p2758
I1
sVinvolving
p2759
I1
sVscripts
p2760
I1
sVassessed
p2761
I1
sVpeers
p2762
I1
sVWang
p2763
I1
sVflow
p2764
I1
sVregards
p2765
I1
sVenterprise
p2766
I1
sVIts
p2767
I1
sVinspire
p2768
I1
sVlabels
p2769
I1
sVcolors
p2770
I1
sVsolutions
p2771
I1
sVkeywords
p2772
I1
sVsubtle
p2773
I1
sVd1
p2774
I1
sVEvolutionism
p2775
I1
sVlatent
p2776
I1
sVconsciousness
p2777
I1
sVspite
p2778
I1
sVimplementation
p2779
I1
sVsituations
p2780
I1
sV546
p2781
I1
sVsummarizing
p2782
I1
sVpursuing
p2783
I1
sVadequate
p2784
I1
sVaxiom
p2785
I1
sVborrowed
p2786
I1
sVdo
p2787
I1
sVdm
p2788
I1
sVdj
p2789
I1
sVCognitive
p2790
I1
sVdi
p2791
I1
sVprefaces
p2792
I1
sVfluid
p2793
I1
sVBeliefs
p2794
I1
sVproposes
p2795
I1
sVidioms
p2796
I1
sVmethod
p2797
I1
sVtwice
p2798
I1
sVgears
p2799
I1
sVimplication
p2800
I1
sVexplanations
p2801
I1
sVobserver
p2802
I1
sVhabit
p2803
I1
sVthecomputation
p2804
I1
sVinfectious
p2805
I1
sVdetection
p2806
I1
sVdepends
p2807
I1
sVprojections
p2808
I1
sVcorrelational
p2809
I1
sVtechniques
p2810
I1
sVcombustion
p2811
I1
sVcapacity
p2812
I1
sVAbility
p2813
I1
sVanalyze
p2814
I1
sVaway
p2815
I1
sVcontinually
p2816
I1
sVunable
p2817
I1
sVdiscovers
p2818
I1
sVcooperation
p2819
I1
sVdrawn
p2820
I1
sVapproach
p2821
I1
sVdiscovery
p2822
I1
sVwe
p2823
I1
sVterms
p2824
I1
sVfewest
p2825
I1
sVhowever
p2826
I1
sVExt
p2827
I1
sVnews
p2828
I1
sVimprove
p2829
I1
sVfaced
p2830
I1
sVreceived
p2831
I1
sVclimate
p2832
I1
sVpsychologists
p2833
I1
sVbiologically
p2834
I1
sVfacet
p2835
I1
sVComputer
p2836
I1
sVgames
p2837
I1
sVthreads
p2838
I1
sVrequests
p2839
I1
sVregarded
p2840
I1
sVnegotiation
p2841
I1
sVVibrio
p2842
I1
sVCompose
p2843
I1
sVcharacter
p2844
I1
sVepidemic
p2845
I1
sVCitations
p2846
I1
sVtrust
p2847
I1
sVspeak
p2848
I1
sVconference
p2849
I1
sVflexibly
p2850
I1
sVengines
p2851
I1
sVsimplification
p2852
I1
sVbeen
p2853
I1
sVquickly
p2854
I1
sVbelongs
p2855
I1
sVexpected
p2856
I1
sVYager
p2857
I1
sVduties
p2858
I1
sVconcerning
p2859
I1
sVcoherent
p2860
I1
sVConcept
p2861
I1
sVapplied
p2862
I1
sVphysician
p2863
I1
sVhas
p2864
I1
sVformalization
p2865
I1
sVn
p2866
I1
sVaim
p2867
I1
sVrationally
p2868
I1
sVOther
p2869
I1
sVteachers
p2870
I1
sVapplies
p2871
I1
sVvoice
p2872
I1
sVprecede
p2873
I1
sVprocedure
p2874
I1
sVGross
p2875
I1
sVhave
p2876
I1
sVLapata
p2877
I1
sVRichness
p2878
I1
sVBush
p2879
I1
sVexperts
p2880
I1
sVinteracts
p2881
I1
sVTell
p2882
I1
sVcontaining
p2883
I1
sVAbstraction
p2884
I1
sVStructuring
p2885
I1
sVperform
p2886
I1
sVsuggest
p2887
I1
sVCVs
p2888
I1
sVArtifact
p2889
I1
sVlinked
p2890
I1
sVbeside
p2891
I1
sVcomplex
p2892
I1
sVunrecognized
p2893
I1
sVexhaustiveness
p2894
I1
sVavoids
p2895
I1
sVhierarchies
p2896
I1
sVseveral
p2897
I1
sVcommonsense
p2898
I1
sVInstitute
p2899
I1
sVsocial
p2900
I1
sVhand
p2901
I1
sVBarzilay
p2902
I1
sVfuse
p2903
I1
sVcharacters
p2904
I1
sVcycle
p2905
I1
sVwhereby
p2906
I1
sVscenario
p2907
I1
sV1978
p2908
I1
sV1977
p2909
I1
sV1976
p2910
I1
sV1975
p2911
I1
sV1974
p2912
I1
sVMind
p2913
I1
sVfusion
p2914
I1
sVdeal
p2915
I1
sVocean
p2916
I1
sVcontact
p2917
I1
sVgreatest
p2918
I1
sVincapable
p2919
I1
sVCP3SME
p2920
I1
sVunification
p2921
I1
sVthe
p2922
I1
sVunified
p2923
I1
sVproposed
p2924
I1
sVArtifacts
p2925
I1
sVphoto
p2926
I1
sVForms
p2927
I1
sVquotes
p2928
I1
sVURIs
p2929
I1
sVadding
p2930
I1
sVunique
p2931
I1
sVmonitored
p2932
I1
sVPhotos
p2933
I1
sVpassive
p2934
I1
sVspread
p2935
I1
sVtransformed
p2936
I1
sVtechnological
p2937
I1
sVhumanity
p2938
I1
sVMihalcea
p2939
I1
sVgave
p2940
I1
sVusable
p2941
I1
sVD
p2942
I1
sVbreaks
p2943
I1
sVcultural
p2944
I1
sVdescending
p2945
I1
sVafore
p2946
I1
sVjudge
p2947
I1
sVdesigners
p2948
I1
sVadvanced
p2949
I1
sVRelevant
p2950
I1
sV59
p2951
I1
sV58
p2952
I1
sV55
p2953
I1
sVCertain
p2954
I1
sV57
p2955
I1
sV56
p2956
I1
sV51
p2957
I1
sVtemporally
p2958
I1
sV53
p2959
I1
sV52
p2960
I1
sVTopic
p2961
I1
sVinformative
p2962
I1
sVoffices
p2963
I1
sVRanking
p2964
I1
sV54
p2965
I1
sVsecurity
p2966
I1
sVEfficiently
p2967
I1
sVAgain
p2968
I1
sVrefocusing
p2969
I1
sVsuccessfully
p2970
I1
sVzoom
p2971
I1
sVborn
p2972
I1
sVMuch
p2973
I1
sVmeters
p2974
I1
sVindirect
p2975
I1
sVintellect
p2976
I1
sVspecific
p2977
I1
sVLife
p2978
I1
sVLee
p2979
I1
sVinegrated
p2980
I1
sVcomments
p2981
I1
sVHu
p2982
I1
sVeverything
p2983
I1
sVasking
p2984
I1
sVLet
p2985
I1
sVExternal
p2986
I1
sVembodies
p2987
I1
sVparticipation
p2988
I1
sVHe
p2989
I1
sVcore
p2990
I1
sVdisconfirmed
p2991
I1
sVminimization
p2992
I1
sVarbitrary
p2993
I1
sVPlace
p2994
I1
sVpeer
p2995
I1
sVproperties
p2996
I1
sVproceed
p2997
I1
sVlimitation
p2998
I1
sVImage
p2999
I1
sVintercultural
p3000
I1
sVensure
p3001
I1
sVconstructivism
p3002
I1
sVefforts
p3003
I1
sVMachines
p3004
I1
sVconsiderations
p3005
I1
sVprimitive
p3006
I1
sVthermostat
p3007
I1
sVpresence
p3008
I1
sVobtaining
p3009
I1
sVbalances
p3010
I1
sVEnvironment
p3011
I1
sVrendering
p3012
I1
sVrely
p3013
I1
sVcompression
p3014
I1
sVEnhancing
p3015
I1
sVtransform
p3016
I1
sVR
p3017
I1
sVstuck
p3018
I1
sVconservation
p3019
I1
sVway
p3020
I1
sVwas
p3021
I1
sVquestionable
p3022
I1
sVmedium
p3023
I1
sVdifferences
p3024
I1
sVEmpirical
p3025
I1
sVheat
p3026
I1
sVhear
p3027
I1
sVremoved
p3028
I1
sVtrue
p3029
I1
sVabsent
p3030
I1
sVmaximum
p3031
I1
sVmth
p3032
I1
sVproductions
p3033
I1
sVemotional
p3034
I1
sVemit
p3035
I1
sVhotter
p3036
I1
sVcomputing
p3037
I1
sVrequest
p3038
I1
sVabstract
p3039
I1
sVevidence
p3040
I1
sVPotential
p3041
I1
sVexpertise
p3042
I1
sVplan
p3043
I1
sVphysical
p3044
I1
sVni
p3045
I1
sVno
p3046
I1
sVwhen
p3047
I1
sVreality
p3048
I1
sVExtending
p3049
I1
sVinterested
p3050
I1
sVpapers
p3051
I1
sVtest
p3052
I1
sVnemes
p3053
I1
sVnode
p3054
I1
sVpicture
p3055
I1
sVMethodologies
p3056
I1
sVfootball
p3057
I1
sVuniformly
p3058
I1
sVconcurrent
p3059
I1
sVAirline
p3060
I1
sVscores
p3061
I1
sVAutonomous
p3062
I1
sVlonger
p3063
I1
sVtested
p3064
I1
sVpainting
p3065
I1
sVPrinciples
p3066
I1
sVtogether
p3067
I1
sVVSM
p3068
I1
sVstick
p3069
I1
sVconcept
p3070
I1
sVglobal
p3071
I1
sVfocus
p3072
I1
sVswitches
p3073
I1
sVcomputation
p3074
I1
sVincorporation
p3075
I1
sVdisplaying
p3076
I1
sVlayers
p3077
I1
sVcertainly
p3078
I1
sVgraph
p3079
I1
sV1947
p3080
I1
sVinteractions
p3081
I1
sV1945
p3082
I1
sVenvironment
p3083
I1
sVGrandpa
p3084
I1
sVdiscovering
p3085
I1
sVAssigning
p3086
I1
sVPresent
p3087
I1
sVRealization
p3088
I1
sVrecoding
p3089
I1
sVpredicate
p3090
I1
sVsupported
p3091
I1
sVZhu
p3092
I1
sVadvantage
p3093
I1
sVorthogonal
p3094
I1
sVemphasizes
p3095
I1
sVtrouble
p3096
I1
sVfeeble
p3097
I1
sVAbstracting
p3098
I1
sVlevel
p3099
I1
sVturns
p3100
I1
sVstandards
p3101
I1
sVdiscrete
p3102
I1
sVscience
p3103
I1
sVrevolution
p3104
I1
sVsays
p3105
I1
sVverifiable
p3106
I1
sVGray
p3107
I1
sVdiscover
p3108
I1
sVcyber
p3109
I1
sVaffiliation
p3110
I1
sVslowed
p3111
I1
sVcost
p3112
I1
sVbacteria
p3113
I1
sVstateable
p3114
I1
sVrepository
p3115
I1
sVForm
p3116
I1
sVshares
p3117
I1
sVuniform
p3118
I1
sVsequential
p3119
I1
sVSocioMental
p3120
I1
sVgoes
p3121
I1
sVreply
p3122
I1
sVsatisfy
p3123
I1
sVsupporting
p3124
I1
sVexplosion
p3125
I1
sVimprovable
p3126
I1
sVwater
p3127
I1
sVgroups
p3128
I1
sVEnglish
p3129
I1
sVteacher
p3130
I1
sVchange
p3131
I1
sVsending
p3132
I1
sVEkin
p3133
I1
sVhealthy
p3134
I1
sVguilty
p3135
I1
sVusually
p3136
I1
sVresonance
p3137
I1
sVnavigation
p3138
I1
sVemerge
p3139
I1
sVinference
p3140
I1
sV1966
p3141
I1
sVLanguages
p3142
I1
sVTherefore
p3143
I1
sVAfantenos
p3144
I1
sVprove
p3145
I1
sVDifferences
p3146
I1
sVAutomation
p3147
I1
sVPythagoras1
p3148
I1
sVlive
p3149
I1
sVolderThan
p3150
I1
sVcriteria
p3151
I1
sVsymbolized
p3152
I1
sVDesigners
p3153
I1
sVdiagrams
p3154
I1
sVanalogical
p3155
I1
sVclicking
p3156
I1
sVoutputs
p3157
I1
sVSummary
p3158
I1
sVattained
p3159
I1
sVTime
p3160
I1
sVcases
p3161
I1
sVcar
p3162
I1
sVmodified
p3163
I1
sVlongitude
p3164
I1
sVlabeled
p3165
I1
sVrenders
p3166
I1
sVcan
p3167
I1
sVCircumscription
p3168
I1
sVTrusted
p3169
I1
sVattain
p3170
I1
sVmeant
p3171
I1
sVhears
p3172
I1
sVOrdering
p3173
I1
sVexpanding
p3174
I1
sVtopic
p3175
I1
sVheard
p3176
I1
sVperformed
p3177
I1
sVconversely
p3178
I1
sVoccur
p3179
I1
sVSummarizer
p3180
I1
sVrequirements
p3181
I1
sVinheritance
p3182
I1
sVdiscussion
p3183
I1
sVwrite
p3184
I1
sVWhether
p3185
I1
sVcriterion
p3186
I1
sVCormode
p3187
I1
sVeconomy
p3188
I1
sVproduct
p3189
I1
sVSLNs
p3190
I1
sVinformation
p3191
I1
sVfascist
p3192
I1
sVoverall
p3193
I1
sVneeds
p3194
I1
sVproduce
p3195
I1
sVrepresentations
p3196
I1
sVModel
p3197
I1
sVannotation
p3198
I1
sVrecursive
p3199
I1
sVaccelerates
p3200
I1
sVwhenever
p3201
I1
sVlemmas
p3202
I1
sVexplicit
p3203
I1
sVcompressing
p3204
I1
sVinform
p3205
I1
sVgap
p3206
I1
sVrepresentation
p3207
I1
sVAuthor
p3208
I1
sVindeed
p3209
I1
sVdisplayed
p3210
I1
sVraised
p3211
I1
sVbrain
p3212
I1
sVstatistical
p3213
I1
sVcold
p3214
I1
sVstill
p3215
I1
sVbirds
p3216
I1
sVsupplemented
p3217
I1
sVRules
p3218
I1
sVcoordinates
p3219
I1
sVforms
p3220
I1
sVplatform
p3221
I1
sVwindow
p3222
I1
sVoffers
p3223
I1
sVMoving
p3224
I1
sVcoordinated
p3225
I1
sVOnce
p3226
I1
sVhappened
p3227
I1
sVcorrespondence
p3228
I1
sVnon
p3229
I1
sVunveiling
p3230
I1
sVconversations
p3231
I1
sVevolution
p3232
I1
sVhalf
p3233
I1
sVnot
p3234
I1
sVnow
p3235
I1
sV1958
p3236
I1
sVnor
p3237
I1
sVterm
p3238
I1
sVname
p3239
I1
sVservant
p3240
I1
sVrealistic
p3241
I1
sVrethinking
p3242
I1
sVdomain
p3243
I1
sVAdditive
p3244
I1
sVsignificantly
p3245
I1
sVExcept
p3246
I1
sVsnapshots
p3247
I1
sVchallenges
p3248
I1
sVyear
p3249
I1
sVet
p3250
I1
sVhappen
p3251
I1
sVavoided
p3252
I1
sVadequately
p3253
I1
sVplans
p3254
I1
sVshown
p3255
I1
sVaccomplish
p3256
I1
sVspace
p3257
I1
sVcoincidentally
p3258
I1
sVcommunicating
p3259
I1
sVincrease
p3260
I1
sVattracted
p3261
I1
sVrational
p3262
I1
sVreceiving
p3263
I1
sVshows
p3264
I1
sVinevitably
p3265
I1
sVtheory
p3266
I1
sVcars
p3267
I1
sVqueries
p3268
I1
sVquark
p3269
I1
sVunfriendly
p3270
I1
sVadvantages
p3271
I1
sVaxioms
p3272
I1
sVcare
p3273
I1
sVcycles
p3274
I1
sVcouldn
p3275
I1
sVselections
p3276
I1
sVmotion
p3277
I1
sVturn
p3278
I1
sVplace
p3279
I1
sVDuring
p3280
I1
sVorigin
p3281
I1
sVflying
p3282
I1
sV624
p3283
I1
sVvariables
p3284
I1
sVThere
p3285
I1
sVsymbolic
p3286
I1
sVyourself
p3287
I1
sVdirectly
p3288
I1
sVring
p3289
I1
sVforwarding
p3290
I1
sVEver
p3291
I1
sVengineer
p3292
I1
sVgiven
p3293
I1
sVderives
p3294
I1
sVPythagoras
p3295
I1
sVsilent
p3296
I1
sVcategorical
p3297
I1
sVremotely
p3298
I1
sVZhuge
p3299
I1
sVconvention
p3300
I1
sVSuch
p3301
I1
sVfriend
p3302
I1
sVgives
p3303
I1
sVnutrition
p3304
I1
sVhub
p3305
I1
sVthat
p3306
I1
sVbrains
p3307
I1
sVExtracting
p3308
I1
sVshort
p3309
I1
sVparanome
p3310
I1
sVSituation
p3311
I1
sVeliminated
p3312
I1
sVthan
p3313
I1
sVsemantics
p3314
I1
sVpopulation
p3315
I1
sVwide
p3316
I1
sVaccordance
p3317
I1
sVrequire
p3318
I1
sVPronomes
p3319
I1
sVr
p3320
I1
sVapples
p3321
I1
sVaccessed
p3322
I1
sVoutcome
p3323
I1
sVpre
p3324
I1
sVgenerality
p3325
I1
sVdynamically
p3326
I1
sVgeneralization
p3327
I1
sVant
p3328
I1
sVany
p3329
I1
sVShortliffe
p3330
I1
sVmanufacturers
p3331
I1
sVMapping
p3332
I1
sVequipment
p3333
I1
sVideal
p3334
I1
sVonline
p3335
I1
sVobjective
p3336
I1
sVspecifying
p3337
I1
sVbegin
p3338
I1
sVmultiple
p3339
I1
sVUnlike
p3340
I1
sVcomparisons
p3341
I1
sVprice
p3342
I1
sVfalls
p3343
I1
sVsuccessive
p3344
I1
sVMarkov
p3345
I1
sVconsidered
p3346
I1
sVlater
p3347
I1
sVHumans
p3348
I1
sVhungry
p3349
I1
sVcortex
p3350
I1
sVRecommendation
p3351
I1
sVunderstandable
p3352
I1
sVeffect
p3353
I1
sVtypically
p3354
I1
sVInteractivity
p3355
I1
sVWeb
p3356
I1
sVResearch
p3357
I1
sVdiscovered
p3358
I1
sVspaces
p3359
I1
sVRecommend
p3360
I1
sVNodes
p3361
I1
sVrealizing
p3362
I1
sVtitle
p3363
I1
sVwritten
p3364
I1
sVonly
p3365
I1
sVexplicitly
p3366
I1
sVbelieving
p3367
I1
sVdeveloped
p3368
I1
sVviewpoint
p3369
I1
sVIntegrating
p3370
I1
sVH
p3371
I1
sVcannot
p3372
I1
sVSimilar
p3373
I1
sVclosure
p3374
I1
sVreveal
p3375
I1
sVregarding
p3376
I1
sVseldom
p3377
I1
sVpenguins
p3378
I1
sVpredicted
p3379
I1
sVmapped
p3380
I1
sVdiscussing
p3381
I1
sVignored
p3382
I1
sVphysically
p3383
I1
sVreplies
p3384
I1
sVconnections
p3385
I1
sVactively
p3386
I1
sVLocation
p3387
I1
sVparking
p3388
I1
sVconcern
p3389
I1
sVfails
p3390
I1
sVdetect
p3391
I1
sVmanaging
p3392
I1
sVreview
p3393
I1
sVdefinite
p3394
I1
sVits
p3395
I1
sV3
p3396
I1
sVbetween
p3397
I1
sVjustified
p3398
I1
sVCoincidently
p3399
I1
sVmultiplied
p3400
I1
sVNatural
p3401
I1
sVChomsky
p3402
I1
sVThales
p3403
I1
sVanalyzes
p3404
I1
sVanalyzed
p3405
I1
sVarticle
p3406
I1
sVcities
p3407
I1
sVcome
p3408
I1
sVoriginates
p3409
I1
sVperceptions
p3410
I1
sVGive
p3411
I1
sVregion
p3412
I1
sVS
p3413
I1
sVGeneralization
p3414
I1
sVenabling
p3415
I1
sVpropagation
p3416
I1
sVIndividual
p3417
I1
sVThrough
p3418
I1
sV1984
p3419
I1
sVcomes
p3420
I1
sVnearby
p3421
I1
sVcolor
p3422
I1
sVPictures
p3423
I1
sVTravel
p3424
I1
sVTransform
p3425
I1
sVpop
p3426
I1
sV60
p3427
I1
sV61
p3428
I1
sV62
p3429
I1
sV63
p3430
I1
sV64
p3431
I1
sV65
p3432
I1
sVlearning
p3433
I1
sV67
p3434
I1
sV68
p3435
I1
sV69
p3436
I1
sVEvents
p3437
I1
sVsynergize
p3438
I1
sVBut
p3439
I1
sVtropical
p3440
I1
sVAgrawal
p3441
I1
sVDoctors
p3442
I1
sVlinguistic
p3443
I1
sVrebuilt
p3444
I1
sVhardly
p3445
I1
sVengine
p3446
I1
sVdirection
p3447
I1
sVexternal
p3448
I1
sVsuspected
p3449
I1
sVcareful
p3450
I1
sVirrelevant
p3451
I1
sVLaws
p3452
I1
sVcase
p3453
I1
sVdeveloping
p3454
I1
sVthese
p3455
I1
sVcash
p3456
I1
sVOpen
p3457
I1
sVStokes
p3458
I1
sVsoil
p3459
I1
sVRealizing
p3460
I1
sVDick
p3461
I1
sVtelephone
p3462
I1
sVsomeone
p3463
I1
sVSalton
p3464
I1
sVMirella
p3465
I1
sVdevelop
p3466
I1
sVauthor
p3467
I1
sVmedia
p3468
I1
sVintelligently
p3469
I1
sVfiguring
p3470
I1
sVstreams
p3471
I1
sVdocument
p3472
I1
sVevents
p3473
I1
sVgenerated
p3474
I1
sVstatus
p3475
I1
sVJbara
p3476
I1
sVIP
p3477
I1
sVIT
p3478
I1
sVdriven
p3479
I1
sVpersons
p3480
I1
sVfruit
p3481
I1
sVinvestigates
p3482
I1
sVarose
p3483
I1
sVchanging
p3484
I1
sVrelies
p3485
I1
sVmodes
p3486
I1
sVminimize
p3487
I1
sVIs
p3488
I1
sVIt
p3489
I1
sVPsychological
p3490
I1
sVwithout
p3491
I1
sVcomponents
p3492
I1
sVIn
p3493
I1
sVcoordinate
p3494
I1
sVmodel
p3495
I1
sVotherwise
p3496
I1
sVresearchers
p3497
I1
sVIf
p3498
I1
sVService
p3499
I1
sVtransmitting
p3500
I1
sVguided
p3501
I1
sVactions
p3502
I1
sVkill
p3503
I1
sVtouch
p3504
I1
sVspeed
p3505
I1
sVguides
p3506
I1
sVcaptured
p3507
I1
sVoverlapped
p3508
I1
sVdeath
p3509
I1
sVInteractions
p3510
I1
sVthinking
p3511
I1
sVrose
p3512
I1
sVseems
p3513
I1
sVexcept
p3514
I1
sVempiricism
p3515
I1
sVthermostats
p3516
I1
sVApplications
p3517
I1
sVsubtitles
p3518
I1
sVsamples
p3519
I1
sVcomplements
p3520
I1
sVinstructions
p3521
I1
sVChange
p3522
I1
sVstyles
p3523
I1
sVeasily
p3524
I1
sVrules
p3525
I1
sVMany
p3526
I1
sVusefully
p3527
I1
sVearly
p3528
I1
sVlistening
p3529
I1
sVsymbolism
p3530
I1
sVMani
p3531
I1
sVexecution
p3532
I1
sVexternalization
p3533
I1
sVconducts
p3534
I1
sVEffectively
p3535
I1
sVbenefit
p3536
I1
sVt
p3537
I1
sVoutput
p3538
I1
sVOperation
p3539
I1
sVreduced
p3540
I1
sVBefore
p3541
I1
sVevidencing
p3542
I1
sV1989
p3543
I1
sVSince
p3544
I1
sVcompetition
p3545
I1
sVchronology
p3546
I1
sVtable
p3547
I1
sVInternational
p3548
I1
sVtreatments
p3549
I1
sVKnowing
p3550
I1
sVprovided
p3551
I1
sVmood
p3552
I1
sVrecorded
p3553
I1
sVprovides
p3554
I1
sVInterface
p3555
I1
sVoN
p3556
I1
sVbusiness
p3557
I1
sVcommunicate
p3558
I1
sV1935
p3559
I1
sVontology
p3560
I1
sVcomplementation
p3561
I1
sVcomparison
p3562
I1
sVok
p3563
I1
sVoj
p3564
I1
sVof
p3565
I1
sVdiscussed
p3566
I1
sVideology
p3567
I1
sVmutually
p3568
I1
sVgreatly
p3569
I1
sVor
p3570
I1
sVsketches
p3571
I1
sVMTL
p3572
I1
sVcommunication
p3573
I1
sVAdd
p3574
I1
sVrising
p3575
I1
sVinverting
p3576
I1
sVdetermine
p3577
I1
sVheated
p3578
I1
sVelementary
p3579
I1
sVshrinking
p3580
I1
sVyour
p3581
I1
sVforwarded
p3582
I1
sVarea
p3583
I1
sVODP
p3584
I1
sVremoving
p3585
I1
sVCoherence
p3586
I1
sVstart
p3587
I1
sVlow
p3588
I1
sVlot
p3589
I1
sVcultures
p3590
I1
sVfish
p3591
I1
sVassumes
p3592
I1
sVregard
p3593
I1
sVExperience
p3594
I1
sVidea
p3595
I1
sVphilosophers
p3596
I1
sVLegionnella
p3597
I1
sVRDF
p3598
I1
sVNavier
p3599
I1
sVtrying
p3600
I1
sVOriginal
p3601
I1
sVhire
p3602
I1
sVwaste
p3603
I1
sVnonmonotonically
p3604
I1
sVSciences
p3605
I1
sVAnything
p3606
I1
sVbeliefs
p3607
I1
sVSpecial
p3608
I1
sVenriched
p3609
I1
sVstrongly
p3610
I1
sVSpace
p3611
I1
sVtaste
p3612
I1
sVfrighten
p3613
I1
sVdescribe
p3614
I1
sValarm
p3615
I1
sVtasty
p3616
I1
sVcontrolled
p3617
I1
sVHomepage
p3618
I1
sVstatuses
p3619
I1
sVReading
p3620
I1
sVdeserve
p3621
I1
sVdiarrhea
p3622
I1
sV5
p3623
I1
sVyou
p3624
I1
sVMore
p3625
I1
sVimmunity
p3626
I1
sVpoor
p3627
I1
sVrequested
p3628
I1
sVoneself
p3629
I1
sVcollaborative
p3630
I1
sVseparate
p3631
I1
sVsymbol
p3632
I1
sVpeas
p3633
I1
sVincludes
p3634
I1
sVtetracycline
p3635
I1
sVpodium
p3636
I1
sVbounded
p3637
I1
sVcoverage
p3638
I1
sVincluded
p3639
I1
sVspouse
p3640
I1
sVbuilding
p3641
I1
sVSatisfactory
p3642
I1
sVcalls
p3643
I1
sVModern
p3644
I1
sVcurve
p3645
I1
sVBrain
p3646
I1
sVdirectory
p3647
I1
sVprecondition
p3648
I1
sVsince
p3649
I1
sVsemantic
p3650
I1
sVpointing
p3651
I1
sVlack
p3652
I1
sVnone
p3653
I1
sVDennett
p3654
I1
sVgeneralize
p3655
I1
sVdish
p3656
I1
sVfollow
p3657
I1
sVresearch
p3658
I1
sVdecisions
p3659
I1
sVreferring
p3660
I1
sVequivalence
p3661
I1
sVremoval
p3662
I1
sVprogram
p3663
I1
sVnodes
p3664
I1
sVactivities
p3665
I1
sVbelonging
p3666
I1
sVvery
p3667
I1
sVdenoted
p3668
I1
sVminded
p3669
I1
sVdecide
p3670
I1
sVtreating
p3671
I1
sVSilber
p3672
I1
sVstimulus
p3673
I1
sVlist
p3674
I1
sVten
p3675
I1
sVabstracted
p3676
I1
sVtea
p3677
I1
sVrate
p3678
I1
sVinvention
p3679
I1
sVdesign
p3680
I1
sVInterest
p3681
I1
sVfunctioning
p3682
I1
sVwhat
p3683
I1
sVnonlinear
p3684
I1
sVcues
p3685
I1
sVsub
p3686
I1
sVfusing
p3687
I1
sVoverload
p3688
I1
sVTries
p3689
I1
sVversion
p3690
I1
sVattitudes
p3691
I1
sVlearned
p3692
I1
sVOOMD
p3693
I1
sVShort
p3694
I1
sVtags
p3695
I1
sVmodify
p3696
I1
sVanswers
p3697
I1
sVshouldn
p3698
I1
sVdimensionality
p3699
I1
sVcompressed
p3700
I1
sVequations
p3701
I1
sV5gt
p3702
I1
sVconcisely
p3703
I1
sVinspired
p3704
I1
sVallows
p3705
I1
sVIntuitively
p3706
I1
sVamount
p3707
I1
sVinspires
p3708
I1
sVPrinciple
p3709
I1
sVfamily
p3710
I1
sVrequiring
p3711
I1
sVscreens
p3712
I1
sVtexts
p3713
I1
sVanalyzing
p3714
I1
sVaimed
p3715
I1
sVReader
p3716
I1
sVEvaluation
p3717
I1
sVtakes
p3718
I1
sVanswered
p3719
I1
sVprobabilities
p3720
I1
sVcontains
p3721
I1
sVtaken
p3722
I1
sVdmoz
p3723
I1
sVknows
p3724
I1
sVabridged
p3725
I1
sVowners
p3726
I1
sVantibiotics
p3727
I1
sVSo
p3728
I1
sVExtensible
p3729
I1
sVknown
p3730
I1
sVRepresentation
p3731
I1
sVConfronted
p3732
I1
sVwrestled
p3733
I1
sVhardware
p3734
I1
sVInt
p3735
I1
sVequation
p3736
I1
sVSN
p3737
I1
sVMouaddib
p3738
I1
sVMinsky
p3739
I1
sVhistory
p3740
I1
sVDifferent
p3741
I1
sVchallenging
p3742
I1
sVarise
p3743
I1
sVexclude
p3744
I1
sVspecies
p3745
I1
sVCAD
p3746
I1
sVinfluenced
p3747
I1
sVgoal
p3748
I1
sVrather
p3749
I1
sVostriches
p3750
I1
sVElectron
p3751
I1
sVinfluences
p3752
I1
sVexplains
p3753
I1
sVTufts
p3754
I1
sVsimplicity
p3755
I1
sVtried
p3756
I1
sValgebra
p3757
I1
sVExplicit
p3758
I1
sVderived
p3759
I1
sVreflect
p3760
I1
sVtries
p3761
I1
sVadventure
p3762
I1
sVfk
p3763
I1
sVfm
p3764
I1
sg82
I1
sVEveryone
p3765
I1
sVprefers
p3766
I1
sVdocumentation
p3767
I1
sVanytime
p3768
I1
sVgeneric
p3769
I1
sVLikes
p3770
I1
sVhelp
p3771
I1
sVhierarchy
p3772
I1
sVessence
p3773
I1
sVpronomes
p3774
I1
sVheld
p3775
I1
sVscientist
p3776
I1
sVemphasized
p3777
I1
sVdeveloper
p3778
I1
sVstyle
p3779
I1
sVsusceptible
p3780
I1
sVWhere
p3781
I1
sVsolving
p3782
I1
sVactually
p3783
I1
sVabsence
p3784
I1
sVPutting
p3785
I1
sVsystems
p3786
I1
sVMarcu
p3787
I1
sVEstimate
p3788
I1
sVmight
p3789
I1
sValter
p3790
I1
sVfool
p3791
I1
sVwouldn
p3792
I1
sVEvolution
p3793
I1
sVincompleteness
p3794
I1
sVreturn
p3795
I1
sVgenerously
p3796
I1
sVfood
p3797
I1
sVL
p3798
I1
sVframework
p3799
I1
sVcommunities
p3800
I1
sVSenior
p3801
I1
sVlinking
p3802
I1
sVimpressive
p3803
I1
sVSemantic
p3804
I1
sVFacility
p3805
I1
sV1874
p3806
I1
sVcapability
p3807
I1
sVRau
p3808
I1
sVelaborations
p3809
I1
sVfriendship
p3810
I1
sVcharacterized
p3811
I1
sVpleasanter
p3812
I1
sVheavy
p3813
I1
sVisonomes
p3814
I1
sVweight
p3815
I1
sVgeneration
p3816
I1
sVcolder
p3817
I1
sVComplex
p3818
I1
sVexpect
p3819
I1
sVpersonalization
p3820
I1
sVloops
p3821
I1
sVbeyond
p3822
I1
sVevent
p3823
I1
sVnonmonotonic
p3824
I1
sVdivide
p3825
I1
sVp
p3826
I1
sVunnatural
p3827
I1
sVPractice
p3828
I1
sVpublish
p3829
I1
sVhealth
p3830
I1
sVhill
p3831
I1
sV7
p3832
I1
sVisPartOf
p3833
I1
sVissue
p3834
I1
sVAccording
p3835
I1
sVReiter
p3836
I1
sVreason
p3837
I1
sVbase
p3838
I1
sVput
p3839
I1
sVgenerate
p3840
I1
sVResearchers
p3841
I1
sVDelete
p3842
I1
sVthread
p3843
I1
sVPeople
p3844
I1
sVtwenty
p3845
I1
sVconsequence
p3846
I1
sVdislikes
p3847
I1
sVunhealthy
p3848
I1
sVprobability
p3849
I1
sVfeel
p3850
I1
sVrelate
p3851
I1
sVreflected
p3852
I1
sVfancy
p3853
I1
sVdisjunctions
p3854
I1
sVfeet
p3855
I1
sVenlarged
p3856
I1
sVleast
p3857
I1
sVtraveler
p3858
I1
sVstory
p3859
I1
sVtemperature
p3860
I1
sVscript
p3861
I1
sVModels
p3862
I1
sVinteract
p3863
I1
sVobtainable
p3864
I1
sVMaking
p3865
I1
sVpassed
p3866
I1
sVhundred
p3867
I1
sVstore
p3868
I1
sVheadache
p3869
I1
sVFattah
p3870
I1
sVrecursively
p3871
I1
sVhotel
p3872
I1
sVauthors
p3873
I1
sVinventing
p3874
I1
sVimposing
p3875
I1
sVconvinced
p3876
I1
sVkind
p3877
I1
sVscheme
p3878
I1
sVinstruction
p3879
I1
sVaims
p3880
I1
sVschema
p3881
I1
sVindicators
p3882
I1
sVdeciding
p3883
I1
sVmotivation
p3884
I1
sVmodeled
p3885
I1
sVelectroencephalography
p3886
I1
sVoutstanding
p3887
I1
sVDelNode
p3888
I1
sVCurrent
p3889
I1
sVsubstantial
p3890
I1
sVsentences
p3891
I1
sVorgans
p3892
I1
sVrelationship
p3893
I1
sVlim
p3894
I1
sVempirically
p3895
I1
sVfinding
p3896
I1
sVWith
p3897
I1
sVadded
p3898
I1
sVelectric
p3899
I1
sVthreatening
p3900
I1
sVmeasures
p3901
I1
sVreach
p3902
I1
sVHalevy
p3903
I1
sV77
p3904
I1
sVcigarette
p3905
I1
sV75
p3906
I1
sV74
p3907
I1
sVexperiences
p3908
I1
sV72
p3909
I1
sV71
p3910
I1
sVknotty
p3911
I1
sVnothing
p3912
I1
sVThe
p3913
I1
sVprobabilistic
p3914
I1
sV79
p3915
I1
sVappear
p3916
I1
sVaudio
p3917
I1
sVwindows
p3918
I1
sVclear
p3919
I1
sVCreation
p3920
I1
sVtraditional
p3921
I1
sVphysics
p3922
I1
sVinstitutions
p3923
I1
sVdifferentiate
p3924
I1
sVphenomenon
p3925
I1
sVThirdly
p3926
I1
sVRational
p3927
I1
sVtranslation
p3928
I1
sVparameters
p3929
I1
sVjustice
p3930
I1
sVBC
p3931
I1
sVMYCIN
p3932
I1
sVflights
p3933
I1
sVTraffic
p3934
I1
sVu0391
p3935
I1
sVu0392
p3936
I1
sVu0393
p3937
I1
sVhis
p3938
I1
sVtriangle
p3939
I1
sVinvoke
p3940
I1
sVSearle
p3941
I1
sVtrees
p3942
I1
sVWhile
p3943
I1
sVrelational
p3944
I1
sVduring
p3945
I1
sVhim
p3946
I1
sVquerying
p3947
I1
sVinvestigate
p3948
I1
sVunderlying
p3949
I1
sVPang
p3950
I1
sVrecommendations
p3951
I1
sVsustainable
p3952
I1
sVx
p3953
I1
sVMcCoy
p3954
I1
sVprecaution
p3955
I1
sVNetworks
p3956
I1
sVwrote
p3957
I1
sVconsciously
p3958
I1
sVart
p3959
I1
sVRemoving
p3960
I1
sVplausible
p3961
I1
sVculture
p3962
I1
sVare
p3963
I1
sVclose
p3964
I1
sVbark
p3965
I1
sVlearns
p3966
I1
sVprobable
p3967
I1
sVdistinctive
p3968
I1
sVfamiliarity
p3969
I1
sVformatted
p3970
I1
sVcoordination
p3971
I1
sVlibraries
p3972
I1
sVwon
p3973
I1
sVvarious
p3974
I1
sVprobably
p3975
I1
sVconditions
p3976
I1
sVrecently
p3977
I1
sVcreating
p3978
I1
sVunconscious
p3979
I1
sVmissing
p3980
I1
sVsold
p3981
I1
sVattention
p3982
I1
sVsucceed
p3983
I1
sVdistinguish
p3984
I1
sVrelying
p3985
I1
sVshared
p3986
I1
sVdepicts
p3987
I1
sVtoward
p3988
I1
sVHilda
p3989
I1
sVSymbols
p3990
I1
sVsensitive
p3991
I1
sVAppropriate
p3992
I1
sVbecame
p3993
I1
sVcontext
p3994
I1
sVforgotten
p3995
I1
sVinteractive
p3996
I1
sVCertainly
p3997
I1
sVreasons
p3998
I1
sVwhatever
p3999
I1
sVregulated
p4000
I1
sVlikes
p4001
I1
sVOnline
p4002
I1
sVBerners
p4003
I1
sVcomplication
p4004
I1
sVdescribed
p4005
I1
sVTrigg
p4006
I1
sVMy
p4007
I1
sVdue
p4008
I1
sVstrategy
p4009
I1
sVMost
p4010
I1
sVreduction
p4011
I1
sVdescribes
p4012
I1
sVCalifornia
p4013
I1
sVPlan
p4014
I1
sVmaintenance
p4015
I1
sVpj
p4016
I1
sVextends
p4017
I1
sVpi
p4018
I1
sVpm
p4019
I1
sVcompromises
p4020
I1
sVflight
p4021
I1
sV83
p4022
I1
sVmemex
p4023
I1
sVprecision
p4024
I1
sVmodelling
p4025
I1
sVelse
p4026
I1
sVlives
p4027
I1
sVdemand
p4028
I1
sVassigning
p4029
I1
sVStoring
p4030
I1
sVp1
p4031
I1
sVadvocating
p4032
I1
sVlook
p4033
I1
sVClassification
p4034
I1
sVindefinitely
p4035
I1
sVevaluated
p4036
I1
sVpervade
p4037
I1
sVwhile
p4038
I1
sVsmart
p4039
I1
sVbehavior
p4040
I1
sVOpenness
p4041
I1
sVguide
p4042
I1
sVShannon
p4043
I1
sVengineers
p4044
I1
sVreads
p4045
I1
sVobstacle
p4046
I1
sVready
p4047
I1
sVrid
p4048
I1
sVCite
p4049
I1
sVlengthy
p4050
I1
sVbelong
p4051
I1
sVUnderstanding
p4052
I1
sVwidely
p4053
I1
sVpeoples
p4054
I1
sV9
p4055
I1
sVcomposition
p4056
I1
sVhigher
p4057
I1
sVused
p4058
I1
sVflows
p4059
I1
sVTraditional
p4060
I1
sVdomains
p4061
I1
sVuses
p4062
I1
sVuser
p4063
I1
sVUsers
p4064
I1
sVlower
p4065
I1
sVdatabase
p4066
I1
sVanalysis
p4067
I1
sVobviously
p4068
I1
sVmachinery
p4069
I1
sVconsistency
p4070
I1
sVT
p4071
I1
sVdistances
p4072
I1
sVabilities
p4073
I1
sVdeployment
p4074
I1
sVquestions
p4075
I1
sVInternet
p4076
I1
sVlove
p4077
I1
sVsummaries
p4078
I1
sVtables
p4079
I1
sVextracted
p4080
I1
sVworkflow
p4081
I1
sVtheorem
p4082
I1
sVtransformation
p4083
I1
sVgeneralized
p4084
I1
sVradiator
p4085
I1
sVevaluate
p4086
I1
sVshowing
p4087
I1
sVadvocate
p4088
I1
sVunlimited
p4089
I1
sVgenetically
p4090
I1
sVgame
p4091
I1
sVdamage
p4092
I1
sVLinks
p4093
I1
sVComputing
p4094
I1
sVsignal
p4095
I1
sVcollect
p4096
I1
sVLearning
p4097
I1
sVpopular
p4098
I1
sVessential
p4099
I1
sVterminology
p4100
I1
sVmathematical
p4101
I1
sVsketch
p4102
I1
sVVannevar
p4103
I1
sVcreation
p4104
I1
sVsome
p4105
I1
sVunderstood
p4106
I1
sVeconomic
p4107
I1
sVpronome
p4108
I1
sVEMPTY
p4109
I1
sVgradually
p4110
I1
sVUnveiling
p4111
I1
sVdescribing
p4112
I1
sVReflecting
p4113
I1
sVtends
p4114
I1
sVSensors
p4115
I1
sVminimal
p4116
I1
sVpayments
p4117
I1
sVrun
p4118
I1
sVprocessing
p4119
I1
sVstep
p4120
I1
sVassists
p4121
I1
sVviewpoints
p4122
I1
sVnegatives
p4123
I1
sVpropositional
p4124
I1
sVintegers
p4125
I1
sVSPARQL
p4126
I1
sV76
p4127
I1
sVtracing
p4128
I1
sVWernicke
p4129
I1
sVsimulation
p4130
I1
sVrange
p4131
I1
sVdialog
p4132
I1
sV73
p4133
I1
sVcomplementing
p4134
I1
sVseeing
p4135
I1
sVMutual
p4136
I1
sVConcepts
p4137
I1
sVTheir
p4138
I1
sVDiscovering
p4139
I1
sVcentrality
p4140
I1
sVQuillian
p4141
I1
sVbehaving
p4142
I1
sVimpressed
p4143
I1
sVstatistics
p4144
I1
sVinnate
p4145
I1
sVextracts
p4146
I1
sVquestion
p4147
I1
sVhandles
p4148
I1
sVfast
p4149
I1
sVEvery
p4150
I1
sVFuzzy
p4151
I1
sV78
p4152
I1
sVsections
p4153
I1
sVmanufacture
p4154
I1
sVhimself
p4155
I1
sVgreat
p4156
I1
sVmemory
p4157
I1
sVIndividuals
p4158
I1
sVrepeatedly
p4159
I1
sVdeployed
p4160
I1
sVpenguin
p4161
I1
sVCities
p4162
I1
sVconsist
p4163
I1
sVcircuits
p4164
I1
sVcharacteristic
p4165
I1
sVtransmits
p4166
I1
sVpar
p4167
I1
sVmobile
p4168
I1
sVtoday
p4169
I1
sVsimilar
p4170
I1
sVcalled
p4171
I1
sVmediation
p4172
I1
sVassociated
p4173
I1
sVworthwhile
p4174
I1
sVdoesn
p4175
I1
sVTo
p4176
I1
sVTV
p4177
I1
sVA1
p4178
I1
sVapplication
p4179
I1
sVA3
p4180
I1
sVA2
p4181
I1
sVA4
p4182
I1
sVneurophysiology
p4183
I1
sVnice
p4184
I1
sVdraw
p4185
I1
sVusers
p4186
I1
sVcalculating
p4187
I1
sVAI
p4188
I1
sVbackbone
p4189
I1
sVT2
p4190
I1
sVT1
p4191
I1
sVhelping
p4192
I1
sVmeaning
p4193
I1
sVfertilizer
p4194
I1
sVOutput
p4195
I1
sVAutomatically
p4196
I1
sVindependently
p4197
I1
sVe
p4198
I1
sVvice
p4199
I1
sVzooming
p4200
I1
sVSingapore
p4201
I1
sVAn
p4202
I1
sVAs
p4203
I1
sVAt
p4204
I1
sVintentional
p4205
I1
sVonce
p4206
I1
sVBased
p4207
I1
sVissued
p4208
I1
sVSelf
p4209
I1
sVHowever
p4210
I1
sVproposition
p4211
I1
sVgo
p4212
I1
sVgolf
p4213
I1
sVadjustment
p4214
I1
sVissues
p4215
I1
sVexcludes
p4216
I1
sVMarvin
p4217
I1
sVObject
p4218
I1
sVlanguages
p4219
I1
sVWords
p4220
I1
sVvisualizing
p4221
I1
sVNow
p4222
I1
sVNor
p4223
I1
sVoverlaps
p4224
I1
sVwave
p4225
I1
sVP
p4226
I1
sVelectron
p4227
I1
sVtelling
p4228
I1
sVdrinking
p4229
I1
sVLAM
p4230
I1
sVEmerging
p4231
I1
sVpositions
p4232
I1
sVnotes
p4233
I1
sVSimilarity
p4234
I1
sVCompetition
p4235
I1
sVdeals
p4236
I1
sVassignments
p4237
I1
sVSentences
p4238
I1
sVbimetal
p4239
I1
sVdeleting
p4240
I1
sVconcluded
p4241
I1
sVsomeday
p4242
I1
sVFunctions
p4243
I1
sVjump
p4244
I1
sVtraveling
p4245
I1
sVmanipulating
p4246
I1
sVclick
p4247
I1
sVoptimize
p4248
I1
sVplays
p4249
I1
sVpaintings
p4250
I1
sVnetworks
p4251
I1
sVexperiment
p4252
I1
sVGrid
p4253
I1
sVSocio
p4254
I1
sVLine
p4255
I1
sVfocuses
p4256
I1
sVstance
p4257
I1
sVDictionaries
p4258
I1
sVfollowing
p4259
I1
sVexplore
p4260
I1
sVGreen
p4261
I1
sVseparation
p4262
I1
sVmaking
p4263
I1
sVSelection
p4264
I1
sVlarger
p4265
I1
sVsuggests
p4266
I1
sVproducts
p4267
I1
sVexamining
p4268
I1
sVHovy
p4269
I1
sVapple
p4270
I1
sVscales
p4271
I1
sVwin
p4272
I1
sVRobert
p4273
I1
sVmanage
p4274
I1
sVcollaborating
p4275
I1
sVConstruct
p4276
I1
sVmotor
p4277
I1
sVInput
p4278
I1
sVExploring
p4279
I1
sVfed
p4280
I1
sVmetaphor
p4281
I1
sVfigure
p4282
I1
sVconsumption
p4283
I1
sVfew
p4284
I1
sVdepicted
p4285
I1
sVcamera
p4286
I1
sVextractive
p4287
I1
sVattribute
p4288
I1
sVexhaustive
p4289
I1
sVstage
p4290
I1
sVAdaptability
p4291
I1
sVsort
p4292
I1
sVescience
p4293
I1
sVclever
p4294
I1
sVjournalists
p4295
I1
sVstarted
p4296
I1
sVbecomes
p4297
I1
sVMarkup
p4298
I1
sVWittgenstein
p4299
I1
sVinfection
p4300
I1
sVcooperate
p4301
I1
sVbrochure
p4302
I1
sVdistilling
p4303
I1
sVride
p4304
I1
sVanywhere
p4305
I1
sVVideo
p4306
I1
sVuniverse
p4307
I1
sVmeet
p4308
I1
sVdropped
p4309
I1
sVcontrol
p4310
I1
sVMuthukrishnan
p4311
I1
sVFilman
p4312
I1
sVlinks
p4313
I1
sVimaging
p4314
I1
sVassumptions
p4315
I1
sVsomething
p4316
I1
sVdictation
p4317
I1
sVunited
p4318
I1
sVsyndrome
p4319
I1
sVsix
p4320
I1
sVcarries
p4321
I1
sVlocated
p4322
I1
sVunites
p4323
I1
sVHence
p4324
I1
sVtransitive
p4325
I1
sVcomputations
p4326
I1
sVlight
p4327
I1
sVTexts
p4328
I1
sVsoftware
p4329
I1
sVunsolved
p4330
I1
sVcompeting
p4331
I1
sVSmith
p4332
I1
sVinterpreted
p4333
I1
sVincluding
p4334
I1
sVlooks
p4335
I1
sVreferencing
p4336
I1
sVUsage
p4337
I1
sVfacilitates
p4338
I1
sVbrittle
p4339
I1
sVEGG
p4340
I1
sV1
p4341
I1
sVMultiple
p4342
I1
sVConroy
p4343
I1
sVtemporal
p4344
I1
sVDisplay
p4345
I1
sVpreviously
p4346
I1
sVclusters
p4347
I1
sVdefining
p4348
I1
sVmaterial
p4349
I1
sVfunctional
p4350
I1
sVCan
p4351
I1
sVfront
p4352
I1
sVabstractive
p4353
I1
sVarticles
p4354
I1
sVstoryboard
p4355
I1
sVtransmitted
p4356
I1
sVStatistics
p4357
I1
sVinputs
p4358
I1
sVpursuits
p4359
I1
sVrelated
p4360
I1
sVconstitute
p4361
I1
sV88
p4362
I1
sV89
p4363
I1
sVcomputable
p4364
I1
sVHarmony
p4365
I1
sVWhich
p4366
I1
sVmeasure
p4367
I1
sV82
p4368
I1
sVour
p4369
I1
sV80
p4370
I1
sV81
p4371
I1
sV86
p4372
I1
sV87
p4373
I1
sV84
p4374
I1
sVout
p4375
I1
sVcategory
p4376
I1
sVentertainment
p4377
I1
sVSelecting
p4378
I1
sVintegrates
p4379
I1
sVinclude
p4380
I1
sVbehaviours
p4381
I1
sVperforms
p4382
I1
sVmaximized
p4383
I1
sVautopilot
p4384
I1
sVcause
p4385
I1
sVintegrated
p4386
I1
sVThis
p4387
I1
sVactivity
p4388
I1
sVEvolving
p4389
I1
sVattending
p4390
I1
sVcompletely
p4391
I1
sVintruder
p4392
I1
sVnetworking
p4393
I1
sVcompositions
p4394
I1
sVGong
p4395
I1
sVelastic
p4396
I1
sVg
p4397
I1
sVsustainability
p4398
I1
sVdetermining
p4399
I1
sVroute
p4400
I1
sVZhang
p4401
I1
sVask
p4402
I1
sVfeasible
p4403
I1
sVconversation
p4404
I1
sVErkan
p4405
I1
sVisotropic
p4406
I1
sVhence
p4407
I1
sVlocating
p4408
I1
sVprospective
p4409
I1
sVpossessing
p4410
I1
sVpowerful
p4411
I1
sVspiral
p4412
I1
sVdate
p4413
I1
sVsuch
p4414
I1
sVprecisely
p4415
I1
sVquality
p4416
I1
sVmanagement
p4417
I1
sVpublication
p4418
I1
sVprivacy
p4419
I1
sVunknown
p4420
I1
sVadopted
p4421
I1
sVpriority
p4422
I1
sVtheir
p4423
I1
sVintelligence
p4424
I1
sVfinal
p4425
I1
sVtuple
p4426
I1
sVexactly
p4427
I1
sVinnovate
p4428
I1
sVslides
p4429
I1
sVreflecting
p4430
I1
sVDelRule
p4431
I1
sVmanipulation
p4432
I1
sVupdating
p4433
I1
sVremember
p4434
I1
sVBerger
p4435
I1
sVdistinguishes
p4436
I1
sVmeasured
p4437
I1
sVricher
p4438
I1
sVbed
p4439
I1
sVbee
p4440
I1
sVclaim
p4441
I1
sVpatients
p4442
I1
sVDiverse
p4443
I1
sVbashes
p4444
I1
sVproviding
p4445
I1
sVsculpture
p4446
I1
sVdistinguished
p4447
I1
sVdescriptions
p4448
I1
sVbehaviors
p4449
I1
sVInformation
p4450
I1
sVenforced
p4451
I1
sVclip
p4452
I1
sVWriters
p4453
I1
sVsincerity
p4454
I1
sVneed
p4455
I1
sVconstrained
p4456
I1
sVNeither
p4457
I1
sVClassifying
p4458
I1
sVmappings
p4459
I1
sVactuators
p4460
I1
sVAfter
p4461
I1
sVable
p4462
I1
sVFoucault
p4463
I1
sVinstance
p4464
I1
sVrelatives
p4465
I1
sVgrounding
p4466
I1
sVpursues
p4467
I1
sVKintsch
p4468
I1
sVlectures
p4469
I1
sVcollaboration
p4470
I1
sVwho
p4471
I1
sVMinds
p4472
I1
sVintentions
p4473
I1
sVvisualize
p4474
I1
sVconnected
p4475
I1
sVcracking
p4476
I1
sVintrinsic
p4477
I1
sVwhy
p4478
I1
sVconsequences
p4479
I1
sVdatabases
p4480
I1
sV50
p4481
I1
sVimpression
p4482
I1
sVemerging
p4483
I1
sVpurely
p4484
I1
sVplanning
p4485
I1
sVargues
p4486
I1
sVpartners
p4487
I1
sVholistic
p4488
I1
sVbased
p4489
I1
sVprint
p4490
I1
sVoperational
p4491
I1
sVbases
p4492
I1
sVcandidates
p4493
I1
sVreorganizing
p4494
I1
sVinherited
p4495
I1
sVfuel
p4496
I1
sVlocal
p4497
I1
sVachieve
p4498
I1
sVwatching
p4499
I1
sVmainly
p4500
I1
sVdope
p4501
I1
sVMcCarthy
p4502
I1
sVquantified
p4503
I1
sVvehicles
p4504
I1
sVwords
p4505
I1
sVcoordinating
p4506
I1
sVentity
p4507
I1
sVprocedures
p4508
I1
sVGPS
p4509
I1
sVprocesses
p4510
I1
sVAddNode
p4511
I1
sVstructuring
p4512
I1
sVnumerous
p4513
I1
sVshe
p4514
I1
sVcontain
p4515
I1
sVqi
p4516
I1
sVAshburner
p4517
I1
sVview
p4518
I1
sVpredictive
p4519
I1
sVrequirement
p4520
I1
sVcomputed
p4521
I1
sVThinking
p4522
I1
sVhumans
p4523
I1
sVoperates
p4524
I1
sVdiffers
p4525
I1
sVcomputes
p4526
I1
sVcomputer
p4527
I1
sVusefulness
p4528
I1
sVoperated
p4529
I1
sVhumane
p4530
I1
sVOutline
p4531
I1
sVputs
p4532
I1
sVtend
p4533
I1
sVfavor
p4534
I1
sVstate
p4535
I1
sVclosed
p4536
I1
sVneither
p4537
I1
sVfrustrated
p4538
I1
sVability
p4539
I1
sVimportance
p4540
I1
sVefficiency
p4541
I1
sVVector
p4542
I1
sVkey
p4543
I1
sVdistribution
p4544
I1
sVdeclining
p4545
I1
sVundetermined
p4546
I1
sVinterpretations
p4547
I1
sVlimits
p4548
I1
sVepidemics
p4549
I1
sVminds
p4550
I1
sVdeter
p4551
I1
sVLuhn
p4552
I1
sVSummaries
p4553
I1
sVgrounds
p4554
I1
sVunclear
p4555
I1
sVLegionnaire
p4556
I1
sVenvironments
p4557
I1
sVLow
p4558
I1
sVsequences
p4559
I1
sVrespect
p4560
I1
sVaddition
p4561
I1
sVYahoo
p4562
I1
sVtreat
p4563
I1
sVMendel
p4564
I1
sVEditing
p4565
I1
sVsenses
p4566
I1
sVcorresponding
p4567
I1
sVboth
p4568
I1
sVsubspace
p4569
I1
sVc
p4570
I1
sVcontroller
p4571
I1
sVensuring
p4572
I1
sVsensed
p4573
I1
sVours
p4574
I1
sVimproved
p4575
I1
sVpresent
p4576
I1
sVAnd
p4577
I1
sVnovel
p4578
I1
sVharder
p4579
I1
sVEmpiricists
p4580
I1
sVwill
p4581
I1
sVAny
p4582
I1
sVlayer
p4583
I1
sVthus
p4584
I1
sVsurface
p4585
I1
sVexamined
p4586
I1
sVFormalized
p4587
I1
sVmemorizes
p4588
I1
sVperhaps
p4589
I1
sVprivileges
p4590
I1
sVcross
p4591
I1
sVenumeration
p4592
I1
sVmember
p4593
I1
sVunity
p4594
I1
sVparts
p4595
I1
sVlargest
p4596
I1
sVunits
p4597
I1
sVdifficult
p4598
I1
sVResource
p4599
I1
sVconceived
p4600
I1
sVMining
p4601
I1
sVtransformational
p4602
I1
sVstudent
p4603
I1
sVfrequently
p4604
I1
sVkeep
p4605
I1
sVpolymorphism
p4606
I1
sVreflection
p4607
I1
sVi
p4608
I1
sVvariety
p4609
I1
sVwell
p4610
I1
sV46
p4611
I1
sVExperiments
p4612
I1
sVStern
p4613
I1
sVfirstly
p4614
I1
sVsensing
p4615
I1
sVUsing
p4616
I1
sVdiscord
p4617
I1
sVincreasingly
p4618
I1
sV42
p4619
I1
sVaccurate
p4620
I1
sVobtain
p4621
I1
sVsources
p4622
I1
sVvirtual
p4623
I1
sVAxiom
p4624
I1
sVLaozi
p4625
I1
sVrapid
p4626
I1
sVTransforming
p4627
I1
sVsupply
p4628
I1
sVdiscuss
p4629
I1
sVbook
p4630
I1
sVadoption
p4631
I1
sVteller
p4632
I1
sVusage
p4633
I1
sVwarrant
p4634
I1
sVBy
p4635
I1
sVdetails
p4636
I1
sVidentical
p4637
I1
sVbranch
p4638
I1
sVPrograms
p4639
I1
sVdevised
p4640
I1
sVGreek
p4641
I1
sVinversion
p4642
I1
sVRecording
p4643
I1
sVNelson
p4644
I1
sVfacial
p4645
I1
sVimmediately
p4646
I1
sVloss
p4647
I1
sVnecessary
p4648
I1
sVhelpful
p4649
I1
sVlost
p4650
I1
sVsizes
p4651
I1
sVInfluence
p4652
I1
sVcandy
p4653
I1
sVloses
p4654
I1
sVB4
p4655
I1
sVB1
p4656
I1
sVB2
p4657
I1
sVB3
p4658
I1
sVTenenbaum
p4659
I1
sVpage
p4660
I1
sVfarthest
p4661
I1
sVbecause
p4662
I1
sVDelLink
p4663
I1
sVSub
p4664
I1
sVsequence
p4665
I1
sVproteins
p4666
I1
sVphenomena
p4667
I1
sVsearching
p4668
I1
sVlibrary
p4669
I1
sVplatforms
p4670
I1
sVsuperclass
p4671
I1
sVCooperation
p4672
I1
sVhome
p4673
I1
sVneglecting
p4674
I1
sVlead
p4675
I1
sVoverlay
p4676
I1
sVNewell
p4677
I1
sVphilosopher
p4678
I1
sVdemonstrated
p4679
I1
sVlimitations
p4680
I1
sVHTTP
p4681
I1
sVobey
p4682
I1
sVreaching
p4683
I1
sVjournal
p4684
I1
sVworthless
p4685
I1
sVexpansion
p4686
I1
sVpaper
p4687
I1
sVinstinct
p4688
I1
sVtransformations
p4689
I1
sVScanning
p4690
I1
sVMental
p4691
I1
sVextension
p4692
I1
sVgetting
p4693
I1
sVfreedom
p4694
I1
sVdependence
p4695
I1
sVdependency
p4696
I1
sVcancelation
p4697
I1
sVcamels
p4698
I1
sVown
p4699
I1
sVowe
p4700
I1
sVWriting
p4701
I1
sVInternal
p4702
I1
sVpromise
p4703
I1
sVNavigating
p4704
I1
sVutility
p4705
I1
sVDiversity
p4706
I1
sVadditional
p4707
I1
sVsynthesized
p4708
I1
sVartifacts
p4709
I1
sVmuseum
p4710
I1
sVcalculi
p4711
I1
sVsynthesizes
p4712
I1
sVintention
p4713
I1
sVinner
p4714
I1
sVScience
p4715
I1
sVsubjective
p4716
I1
sVcollected
p4717
I1
sVgoals
p4718
I1
sVautomated
p4719
I1
sVhe
p4720
I1
sVmade
p4721
I1
sVwhether
p4722
I1
sVcells
p4723
I1
sVrecord
p4724
I1
sVlimit
p4725
I1
sVEinstein
p4726
I1
sVpiece
p4727
I1
sVdisplay
p4728
I1
sVfirm
p4729
I1
sVuniversal
p4730
I1
sVgenerating
p4731
I1
sVwebpages
p4732
I1
sVpartly
p4733
I1
sVeducation
p4734
I1
sVhumanized
p4735
I1
sVFunction
p4736
I1
sVmutual
p4737
I1
sVcontest
p4738
I1
sVother
p4739
I1
sVBaxendale
p4740
I1
sVastrological
p4741
I1
sVImproving
p4742
I1
sVclicks
p4743
I1
sVconclusion
p4744
I1
sVkinds
p4745
I1
sVLike
p4746
I1
sVliving
p4747
I1
sVKcKeown
p4748
I1
sVFuture
p4749
I1
sVpathways
p4750
I1
sVN
p4751
I1
sVranks
p4752
I1
sVcame
p4753
I1
sVportion
p4754
I1
sVdiagnosis
p4755
I1
sVindirectly
p4756
I1
stp4757
Rp4758
sS'total_words'
p4759
I83
sbsS'sent_id_dict'
p4760
(dp4761
I56
I0
sI57
I1
sI58
I2
sI59
I3
ssS'ce_s_man'
p4762
g36
(cnetworkx.classes.graph
Graph
p4763
g38
Ntp4764
Rp4765
(dp4766
S'node'
p4767
(dp4768
sS'node_dict_factory'
p4769
c__builtin__
dict
p4770
sS'edge_attr_dict_factory'
p4771
g4770
sS'edge'
p4772
(dp4773
sS'graph'
p4774
(dp4775
sS'adjlist_dict_factory'
p4776
g4770
sS'adj'
p4777
g4773
sbsS'mance_id_dict'
p4778
(dp4779
sS'p_s'
p4780
g36
(g37
g38
Ntp4781
Rp4782
(dp4783
g66
(I1
I4
tp4784
sg225
I01
sg58
g43
(g44
(I0
tp4785
g46
tp4786
Rp4787
(I1
(I2
tp4788
g232
I00
S'\x00\x00\x00\x00\x04\x00\x00\x00'
p4789
tp4790
bsg42
g43
(g44
(I0
tp4791
g46
tp4792
Rp4793
(I1
(I4
tp4794
g232
I00
S'\x00\x00\x00\x00\x01\x00\x00\x00\x02\x00\x00\x00\x03\x00\x00\x00'
p4795
tp4796
bsg65
I50
sg68
g43
(g44
(I0
tp4797
g46
tp4798
Rp4799
(I1
(I4
tp4800
g75
I00
S'\x00\x00\x00\x00\x00\x00\xf0?\x00\x00\x00\x00\x00\x00\xf0?\x00\x00\x00\x00\x00\x00\xf0?\x00\x00\x00\x00\x00\x00\xf0?'
p4801
tp4802
bsbsS'ce_s_sys'
p4803
g36
(g4763
g38
Ntp4804
Rp4805
(dp4806
g4767
(dp4807
sg4769
g4770
sg4771
g4770
sg4772
(dp4808
sg4774
(dp4809
sg4776
g4770
sg4777
g4808
sbsS'mance_sent_id_dict'
p4810
(dp4811
sS'sentence_tfidf'
p4812
(isxpPackage
sxpTFIDF
p4813
(dp4814
g35
g36
(g37
g38
Ntp4815
Rp4816
(dp4817
g42
g43
(g44
(I0
tp4818
g46
tp4819
Rp4820
(I1
(I73
tp4821
g53
I00
S'8\x00\x00\x00\r\x00\x00\x002\x00\x00\x00\x0c\x00\x00\x00!\x00\x00\x00)\x00\x00\x00\x00\x00\x00\x00\x1b\x00\x00\x00\x04\x00\x00\x00*\x00\x00\x000\x00\x00\x00\x1d\x00\x00\x00\x05\x00\x00\x00\x1e\x00\x00\x00\t\x00\x00\x004\x00\x00\x00(\x00\x00\x00>\x00\x00\x00\x03\x00\x00\x00\x0e\x00\x00\x00\r\x00\x00\x002\x00\x00\x00\x0c\x00\x00\x00\t\x00\x00\x00;\x00\x00\x00=\x00\x00\x007\x00\x00\x006\x00\x00\x00\x0f\x00\x00\x00\x1f\x00\x00\x00"\x00\x00\x00\x01\x00\x00\x00/\x00\x00\x00\x10\x00\x00\x005\x00\x00\x00\x0b\x00\x00\x00\x07\x00\x00\x00$\x00\x00\x00\x13\x00\x00\x00\x00\x00\x00\x00\x1f\x00\x00\x00/\x00\x00\x00\'\x00\x00\x00<\x00\x00\x00+\x00\x00\x00%\x00\x00\x00\x08\x00\x00\x00\x06\x00\x00\x00&\x00\x00\x00\x1a\x00\x00\x00.\x00\x00\x00\x02\x00\x00\x00\n\x00\x00\x00\x11\x00\x00\x00\x12\x00\x00\x009\x00\x00\x001\x00\x00\x00,\x00\x00\x00\x00\x00\x00\x00\x1d\x00\x00\x00\n\x00\x00\x00\x1c\x00\x00\x003\x00\x00\x00#\x00\x00\x00\x18\x00\x00\x00-\x00\x00\x00\x16\x00\x00\x00\x15\x00\x00\x00:\x00\x00\x00\x14\x00\x00\x00\x19\x00\x00\x00\x17\x00\x00\x00 \x00\x00\x00'
p4822
tp4823
bsg58
g43
(g44
(I0
tp4824
g46
tp4825
Rp4826
(I1
(I5
tp4827
g53
I00
S"\x00\x00\x00\x00\x14\x00\x00\x00'\x00\x00\x00:\x00\x00\x00I\x00\x00\x00"
p4828
tp4829
bsg65
I50
sg66
(I4
I63
tp4830
sg68
g43
(g44
(I0
tp4831
g46
tp4832
Rp4833
(I1
(I73
tp4834
g75
I00
S'\x16\xcae=\x87B\xcc?F\xbcj\x02\xc9G\xc6?F\xbcj\x02\xc9G\xc6?F\xbcj\x02\xc9G\xc6?\x16\xcae=\x87B\xdc?\x16\xcae=\x87B\xcc?\x83\xdc\xfe\xa7\xb4\t\xc2?\x16\xcae=\x87B\xcc?\x16\xcae=\x87B\xcc?\x16\xcae=\x87B\xcc?\x16\xcae=\x87B\xcc?F\xbcj\x02\xc9G\xc6?\x16\xcae=\x87B\xcc?\x16\xcae=\x87B\xcc?F\xbcj\x02\xc9G\xc6?\x16\xcae=\x87B\xcc?\x16\xcae=\x87B\xcc?\x16\xcae=\x87B\xcc?\x16\xcae=\x87B\xcc?\x16\xcae=\x87B\xcc?|N`u\x1dO\xdd?|N`u\x1dO\xdd?\xa8\x89\x95\xa3\x13\x8a\xc3?\xa8\x89\x95\xa3\x13\x8a\xc3?\xbd\tk\x03\x80\xc8\xc8?\xbd\tk\x03\x80\xc8\xc8?\xbd\tk\x03\x80\xc8\xc8?\xbd\tk\x03\x80\xc8\xc8?\xbd\tk\x03\x80\xc8\xc8?\xa8\x89\x95\xa3\x13\x8a\xc3?\xbd\tk\x03\x80\xc8\xc8?\xbd\tk\x03\x80\xc8\xc8?\xa8\x89\x95\xa3\x13\x8a\xc3?\xbd\tk\x03\x80\xc8\xc8?\xbd\tk\x03\x80\xc8\xc8?\xbd\tk\x03\x80\xc8\xc8?\xbd\tk\x03\x80\xc8\xc8?\xbd\tk\x03\x80\xc8\xc8?\xbd\tk\x03\x80\xc8\xc8?K\xbe\x87\xb1qC\xd9?\xa2\xc5IX\xb8\xcd\xc4?\xa2\xc5IX\xb8\xcd\xc4?\xd9pB*\x00c\xca?\xd9pB*\x00c\xca?\xd9pB*\x00c\xca?\xd9pB*\x00c\xca?\xd9pB*\x00c\xca?\xd9pB*\x00c\xda?\xd9pB*\x00c\xca?\xd9pB*\x00c\xca?\xd9pB*\x00c\xca?\xd9pB*\x00c\xca?\xa2\xc5IX\xb8\xcd\xc4?\xd9pB*\x00c\xca?\xd9pB*\x00c\xca?\xd9pB*\x00c\xca?\xd9pB*\x00c\xca?\xd9pB*\x00c\xca?\x8c\x16\xa3\xcc\xb5\xfc\xc2?L!i\xad\xf1s\xd7?L!i\xad\xf1s\xc7?\xf8\x85>\xe2=\xbf\xcd?\xf8\x85>\xe2=\xbf\xdd?\xf8\x85>\xe2=\xbf\xcd?\xf8\x85>\xe2=\xbf\xcd?\xf8\x85>\xe2=\xbf\xcd?\xf8\x85>\xe2=\xbf\xcd?\xf8\x85>\xe2=\xbf\xcd?\xf8\x85>\xe2=\xbf\xcd?\xf8\x85>\xe2=\xbf\xcd?\xf8\x85>\xe2=\xbf\xcd?\xf8\x85>\xe2=\xbf\xcd?\xf8\x85>\xe2=\xbf\xcd?'
p4835
tp4836
bsbsg80
(lp4837
g82
aVand
p4838
aVanother
p4839
aVany
p4840
aVarea
p4841
aVartificial
p4842
aVas
p4843
aVbe
p4844
aVbuilds
p4845
aVbut
p4846
aVcan
p4847
aVcannot
p4848
aVcapability
p4849
aVcommon
p4850
aVconsensus
p4851
aVdivide
p4852
aVeven
p4853
aVexpress
p4854
aVfact
p4855
aVfirm
p4856
aVgenerality
p4857
aVgood
p4858
aVhandling
p4859
aVhas
p4860
aVhave
p4861
aVhe
p4862
aVhis
p4863
aVhot
p4864
aVhowever
p4865
aVin
p4866
aVintelligence
p4867
aVinto
p4868
aVintroduced
p4869
aVis
p4870
aVknowledge
p4871
aVlatter
p4872
aVmade
p4873
aVman
p4874
aVmethod
p4875
aVnamely
p4876
aVnot
p4877
aVnow
p4878
aVof
p4879
aVone
p4880
aVontology
p4881
aVproblems
p4882
aVprogram
p4883
aVreasoning
p4884
aVresearch
p4885
aVricher
p4886
aVsense
p4887
aVthe
p4888
aVthere
p4889
aVthis
p4890
aVto
p4891
aVtry
p4892
aVunderstanding
p4893
aVusing
p4894
aVway
p4895
aVwe
p4896
aVwhat
p4897
aVwill
p4898
aVyet
p4899
asg145
g43
(g44
(I0
tp4900
g46
tp4901
Rp4902
(I1
(I4
I63
tp4903
g75
I00
S'\x83\xdc\xfe\xa7\xb4\t\xc2?\x00\x00\x00\x00\x00\x00\x00\x00\x00\x00\x00\x00\x00\x00\x00\x00\x16\xcae=\x87B\xcc?\x16\xcae=\x87B\xcc?\x16\xcae=\x87B\xcc?\x00\x00\x00\x00\x00\x00\x00\x00\x00\x00\x00\x00\x00\x00\x00\x00\x00\x00\x00\x00\x00\x00\x00\x00F\xbcj\x02\xc9G\xc6?\x00\x00\x00\x00\x00\x00\x00\x00\x00\x00\x00\x00\x00\x00\x00\x00F\xbcj\x02\xc9G\xc6?F\xbcj\x02\xc9G\xc6?\x16\xcae=\x87B\xcc?\x00\x00\x00\x00\x00\x00\x00\x00\x00\x00\x00\x00\x00\x00\x00\x00\x00\x00\x00\x00\x00\x00\x00\x00\x00\x00\x00\x00\x00\x00\x00\x00\x00\x00\x00\x00\x00\x00\x00\x00\x00\x00\x00\x00\x00\x00\x00\x00\x00\x00\x00\x00\x00\x00\x00\x00\x00\x00\x00\x00\x00\x00\x00\x00\x00\x00\x00\x00\x00\x00\x00\x00\x00\x00\x00\x00\x00\x00\x00\x00\x00\x00\x00\x00\x00\x00\x00\x00\x00\x00\x00\x00\x00\x00\x00\x00\x16\xcae=\x87B\xcc?\x00\x00\x00\x00\x00\x00\x00\x00F\xbcj\x02\xc9G\xc6?\x16\xcae=\x87B\xcc?\x00\x00\x00\x00\x00\x00\x00\x00\x00\x00\x00\x00\x00\x00\x00\x00\x16\xcae=\x87B\xdc?\x00\x00\x00\x00\x00\x00\x00\x00\x00\x00\x00\x00\x00\x00\x00\x00\x00\x00\x00\x00\x00\x00\x00\x00\x00\x00\x00\x00\x00\x00\x00\x00\x00\x00\x00\x00\x00\x00\x00\x00\x00\x00\x00\x00\x00\x00\x00\x00\x16\xcae=\x87B\xcc?\x16\xcae=\x87B\xcc?\x16\xcae=\x87B\xcc?\x00\x00\x00\x00\x00\x00\x00\x00\x00\x00\x00\x00\x00\x00\x00\x00\x00\x00\x00\x00\x00\x00\x00\x00\x00\x00\x00\x00\x00\x00\x00\x00\x00\x00\x00\x00\x00\x00\x00\x00\x16\xcae=\x87B\xcc?\x00\x00\x00\x00\x00\x00\x00\x00F\xbcj\x02\xc9G\xc6?\x00\x00\x00\x00\x00\x00\x00\x00\x16\xcae=\x87B\xcc?\x00\x00\x00\x00\x00\x00\x00\x00\x00\x00\x00\x00\x00\x00\x00\x00\x00\x00\x00\x00\x00\x00\x00\x00\x16\xcae=\x87B\xcc?\x00\x00\x00\x00\x00\x00\x00\x00\x00\x00\x00\x00\x00\x00\x00\x00\x00\x00\x00\x00\x00\x00\x00\x00\x00\x00\x00\x00\x00\x00\x00\x00\x00\x00\x00\x00\x00\x00\x00\x00\x16\xcae=\x87B\xcc?\x00\x00\x00\x00\x00\x00\x00\x00\xbd\tk\x03\x80\xc8\xc8?\x00\x00\x00\x00\x00\x00\x00\x00\x00\x00\x00\x00\x00\x00\x00\x00\x00\x00\x00\x00\x00\x00\x00\x00\x00\x00\x00\x00\x00\x00\x00\x00\x00\x00\x00\x00\x00\x00\x00\x00\xbd\tk\x03\x80\xc8\xc8?\x00\x00\x00\x00\x00\x00\x00\x00\xa8\x89\x95\xa3\x13\x8a\xc3?\x00\x00\x00\x00\x00\x00\x00\x00\xbd\tk\x03\x80\xc8\xc8?\xa8\x89\x95\xa3\x13\x8a\xc3?|N`u\x1dO\xdd?\x00\x00\x00\x00\x00\x00\x00\x00\xbd\tk\x03\x80\xc8\xc8?\xbd\tk\x03\x80\xc8\xc8?\x00\x00\x00\x00\x00\x00\x00\x00\x00\x00\x00\x00\x00\x00\x00\x00\xbd\tk\x03\x80\xc8\xc8?\x00\x00\x00\x00\x00\x00\x00\x00\x00\x00\x00\x00\x00\x00\x00\x00\x00\x00\x00\x00\x00\x00\x00\x00\x00\x00\x00\x00\x00\x00\x00\x00\x00\x00\x00\x00\x00\x00\x00\x00\x00\x00\x00\x00\x00\x00\x00\x00\x00\x00\x00\x00\x00\x00\x00\x00\x00\x00\x00\x00\x00\x00\x00\x00\x00\x00\x00\x00\x00\x00\x00\x00\x00\x00\x00\x00\x00\x00\x00\x00\x00\x00\x00\x00\x00\x00\x00\x00\xa8\x89\x95\xa3\x13\x8a\xc3?\x00\x00\x00\x00\x00\x00\x00\x00\x00\x00\x00\x00\x00\x00\x00\x00\xbd\tk\x03\x80\xc8\xc8?\x00\x00\x00\x00\x00\x00\x00\x00\xbd\tk\x03\x80\xc8\xc8?\x00\x00\x00\x00\x00\x00\x00\x00\x00\x00\x00\x00\x00\x00\x00\x00\x00\x00\x00\x00\x00\x00\x00\x00\x00\x00\x00\x00\x00\x00\x00\x00\x00\x00\x00\x00\x00\x00\x00\x00\x00\x00\x00\x00\x00\x00\x00\x00\x00\x00\x00\x00\x00\x00\x00\x00\x00\x00\x00\x00\x00\x00\x00\x00\x00\x00\x00\x00\x00\x00\x00\x00\x00\x00\x00\x00\x00\x00\x00\x00\xa8\x89\x95\xa3\x13\x8a\xc3?\x00\x00\x00\x00\x00\x00\x00\x00\x00\x00\x00\x00\x00\x00\x00\x00|N`u\x1dO\xdd?\x00\x00\x00\x00\x00\x00\x00\x00\x00\x00\x00\x00\x00\x00\x00\x00\xbd\tk\x03\x80\xc8\xc8?\xbd\tk\x03\x80\xc8\xc8?\xbd\tk\x03\x80\xc8\xc8?\x00\x00\x00\x00\x00\x00\x00\x00\x00\x00\x00\x00\x00\x00\x00\x00\x00\x00\x00\x00\x00\x00\x00\x00\xbd\tk\x03\x80\xc8\xc8?\x00\x00\x00\x00\x00\x00\x00\x00\xbd\tk\x03\x80\xc8\xc8?\x00\x00\x00\x00\x00\x00\x00\x00K\xbe\x87\xb1qC\xd9?\x00\x00\x00\x00\x00\x00\x00\x00\xd9pB*\x00c\xca?\x00\x00\x00\x00\x00\x00\x00\x00\x00\x00\x00\x00\x00\x00\x00\x00\x00\x00\x00\x00\x00\x00\x00\x00\xd9pB*\x00c\xda?\x00\x00\x00\x00\x00\x00\x00\x00\xd9pB*\x00c\xca?\x00\x00\x00\x00\x00\x00\x00\x00\xa2\xc5IX\xb8\xcd\xc4?\x00\x00\x00\x00\x00\x00\x00\x00\x00\x00\x00\x00\x00\x00\x00\x00\x00\x00\x00\x00\x00\x00\x00\x00\x00\x00\x00\x00\x00\x00\x00\x00\x00\x00\x00\x00\x00\x00\x00\x00\x00\x00\x00\x00\x00\x00\x00\x00\xd9pB*\x00c\xca?\xd9pB*\x00c\xca?\x00\x00\x00\x00\x00\x00\x00\x00\x00\x00\x00\x00\x00\x00\x00\x00\x00\x00\x00\x00\x00\x00\x00\x00\x00\x00\x00\x00\x00\x00\x00\x00\x00\x00\x00\x00\x00\x00\x00\x00\x00\x00\x00\x00\x00\x00\x00\x00\x00\x00\x00\x00\x00\x00\x00\x00\xd9pB*\x00c\xca?\x00\x00\x00\x00\x00\x00\x00\x00\x00\x00\x00\x00\x00\x00\x00\x00\x00\x00\x00\x00\x00\x00\x00\x00\x00\x00\x00\x00\x00\x00\x00\x00\xa2\xc5IX\xb8\xcd\xc4?\x00\x00\x00\x00\x00\x00\x00\x00\x00\x00\x00\x00\x00\x00\x00\x00\x00\x00\x00\x00\x00\x00\x00\x00\x00\x00\x00\x00\x00\x00\x00\x00\x00\x00\x00\x00\x00\x00\x00\x00\xd9pB*\x00c\xca?\xd9pB*\x00c\xca?\xd9pB*\x00c\xca?\x00\x00\x00\x00\x00\x00\x00\x00\x00\x00\x00\x00\x00\x00\x00\x00\x00\x00\x00\x00\x00\x00\x00\x00\xd9pB*\x00c\xca?\xd9pB*\x00c\xca?\x00\x00\x00\x00\x00\x00\x00\x00\xd9pB*\x00c\xca?\xa2\xc5IX\xb8\xcd\xc4?\x00\x00\x00\x00\x00\x00\x00\x00\xd9pB*\x00c\xca?\x00\x00\x00\x00\x00\x00\x00\x00\x00\x00\x00\x00\x00\x00\x00\x00\x00\x00\x00\x00\x00\x00\x00\x00\x00\x00\x00\x00\x00\x00\x00\x00\x00\x00\x00\x00\x00\x00\x00\x00\x00\x00\x00\x00\x00\x00\x00\x00\x00\x00\x00\x00\x00\x00\x00\x00\xd9pB*\x00c\xca?\x00\x00\x00\x00\x00\x00\x00\x00\x00\x00\x00\x00\x00\x00\x00\x00\xd9pB*\x00c\xca?\x00\x00\x00\x00\x00\x00\x00\x00\x00\x00\x00\x00\x00\x00\x00\x00\x8c\x16\xa3\xcc\xb5\xfc\xc2?\x00\x00\x00\x00\x00\x00\x00\x00\x00\x00\x00\x00\x00\x00\x00\x00\x00\x00\x00\x00\x00\x00\x00\x00\x00\x00\x00\x00\x00\x00\x00\x00\x00\x00\x00\x00\x00\x00\x00\x00\x00\x00\x00\x00\x00\x00\x00\x00\x00\x00\x00\x00\x00\x00\x00\x00\x00\x00\x00\x00\x00\x00\x00\x00\x00\x00\x00\x00\x00\x00\x00\x00L!i\xad\xf1s\xc7?\x00\x00\x00\x00\x00\x00\x00\x00\x00\x00\x00\x00\x00\x00\x00\x00\x00\x00\x00\x00\x00\x00\x00\x00\x00\x00\x00\x00\x00\x00\x00\x00\x00\x00\x00\x00\x00\x00\x00\x00\x00\x00\x00\x00\x00\x00\x00\x00\x00\x00\x00\x00\x00\x00\x00\x00\x00\x00\x00\x00\x00\x00\x00\x00\x00\x00\x00\x00\x00\x00\x00\x00\xf8\x85>\xe2=\xbf\xcd?\xf8\x85>\xe2=\xbf\xcd?\xf8\x85>\xe2=\xbf\xcd?\xf8\x85>\xe2=\xbf\xcd?\xf8\x85>\xe2=\xbf\xcd?\xf8\x85>\xe2=\xbf\xcd?\x00\x00\x00\x00\x00\x00\x00\x00\x00\x00\x00\x00\x00\x00\x00\x00\xf8\x85>\xe2=\xbf\xcd?L!i\xad\xf1s\xd7?\x00\x00\x00\x00\x00\x00\x00\x00\x00\x00\x00\x00\x00\x00\x00\x00\xf8\x85>\xe2=\xbf\xcd?\x00\x00\x00\x00\x00\x00\x00\x00\x00\x00\x00\x00\x00\x00\x00\x00\xf8\x85>\xe2=\xbf\xcd?\x00\x00\x00\x00\x00\x00\x00\x00\x00\x00\x00\x00\x00\x00\x00\x00\x00\x00\x00\x00\x00\x00\x00\x00\x00\x00\x00\x00\x00\x00\x00\x00\x00\x00\x00\x00\x00\x00\x00\x00\x00\x00\x00\x00\x00\x00\x00\x00\x00\x00\x00\x00\x00\x00\x00\x00\x00\x00\x00\x00\x00\x00\x00\x00\x00\x00\x00\x00\x00\x00\x00\x00\xf8\x85>\xe2=\xbf\xcd?\x00\x00\x00\x00\x00\x00\x00\x00\x00\x00\x00\x00\x00\x00\x00\x00\x00\x00\x00\x00\x00\x00\x00\x00\x00\x00\x00\x00\x00\x00\x00\x00\x00\x00\x00\x00\x00\x00\x00\x00\xf8\x85>\xe2=\xbf\xdd?\x00\x00\x00\x00\x00\x00\x00\x00\x00\x00\x00\x00\x00\x00\x00\x00\x00\x00\x00\x00\x00\x00\x00\x00\x00\x00\x00\x00\x00\x00\x00\x00\x00\x00\x00\x00\x00\x00\x00\x00\x00\x00\x00\x00\x00\x00\x00\x00\xf8\x85>\xe2=\xbf\xcd?\x00\x00\x00\x00\x00\x00\x00\x00\x00\x00\x00\x00\x00\x00\x00\x00\x00\x00\x00\x00\x00\x00\x00\x00\x00\x00\x00\x00\x00\x00\x00\x00'
p4904
tp4905
bsg152
g36
(g37
g38
Ntp4906
Rp4907
(dp4908
g42
g43
(g44
(I0
tp4909
g46
tp4910
Rp4911
(I1
(I73
tp4912
g53
I00
S'\x0e\x00\x00\x00\x03\x00\x00\x00>\x00\x00\x00(\x00\x00\x004\x00\x00\x00\t\x00\x00\x00\x1e\x00\x00\x00\x05\x00\x00\x00\x1d\x00\x00\x000\x00\x00\x00*\x00\x00\x00\x04\x00\x00\x00\x1b\x00\x00\x00\x00\x00\x00\x00)\x00\x00\x00!\x00\x00\x00\x0c\x00\x00\x002\x00\x00\x00\r\x00\x00\x008\x00\x00\x00\x13\x00\x00\x00$\x00\x00\x00\x07\x00\x00\x00\x0b\x00\x00\x005\x00\x00\x00\x10\x00\x00\x00/\x00\x00\x00\x01\x00\x00\x00"\x00\x00\x00\x1f\x00\x00\x00\x0f\x00\x00\x006\x00\x00\x007\x00\x00\x00=\x00\x00\x00;\x00\x00\x00\t\x00\x00\x00\x0c\x00\x00\x002\x00\x00\x00\r\x00\x00\x00,\x00\x00\x001\x00\x00\x009\x00\x00\x00\x12\x00\x00\x00\x11\x00\x00\x00\n\x00\x00\x00\x02\x00\x00\x00.\x00\x00\x00\x1a\x00\x00\x00&\x00\x00\x00\x06\x00\x00\x00\x08\x00\x00\x00%\x00\x00\x00+\x00\x00\x00<\x00\x00\x00\'\x00\x00\x00/\x00\x00\x00\x1f\x00\x00\x00\x00\x00\x00\x00 \x00\x00\x00\x17\x00\x00\x00\x19\x00\x00\x00\x14\x00\x00\x00:\x00\x00\x00\x15\x00\x00\x00\x16\x00\x00\x00-\x00\x00\x00\x18\x00\x00\x00#\x00\x00\x003\x00\x00\x00\x1c\x00\x00\x00\n\x00\x00\x00\x1d\x00\x00\x00\x00\x00\x00\x00'
p4913
tp4914
bsg58
g43
(g44
(I0
tp4915
g46
tp4916
Rp4917
(I1
(I5
tp4918
g53
I00
S"\x00\x00\x00\x00\x14\x00\x00\x00'\x00\x00\x00:\x00\x00\x00I\x00\x00\x00"
p4919
tp4920
bsg65
I50
sg66
(I4
I63
tp4921
sg68
g43
(g44
(I0
tp4922
g46
tp4923
Rp4924
(I1
(I73
tp4925
g175
I00
S'\x01\x00\x00\x00\x00\x00\x00\x00\x01\x00\x00\x00\x00\x00\x00\x00\x01\x00\x00\x00\x00\x00\x00\x00\x01\x00\x00\x00\x00\x00\x00\x00\x01\x00\x00\x00\x00\x00\x00\x00\x01\x00\x00\x00\x00\x00\x00\x00\x01\x00\x00\x00\x00\x00\x00\x00\x01\x00\x00\x00\x00\x00\x00\x00\x01\x00\x00\x00\x00\x00\x00\x00\x01\x00\x00\x00\x00\x00\x00\x00\x01\x00\x00\x00\x00\x00\x00\x00\x01\x00\x00\x00\x00\x00\x00\x00\x01\x00\x00\x00\x00\x00\x00\x00\x01\x00\x00\x00\x00\x00\x00\x00\x01\x00\x00\x00\x00\x00\x00\x00\x02\x00\x00\x00\x00\x00\x00\x00\x01\x00\x00\x00\x00\x00\x00\x00\x01\x00\x00\x00\x00\x00\x00\x00\x01\x00\x00\x00\x00\x00\x00\x00\x01\x00\x00\x00\x00\x00\x00\x00\x01\x00\x00\x00\x00\x00\x00\x00\x01\x00\x00\x00\x00\x00\x00\x00\x01\x00\x00\x00\x00\x00\x00\x00\x01\x00\x00\x00\x00\x00\x00\x00\x01\x00\x00\x00\x00\x00\x00\x00\x01\x00\x00\x00\x00\x00\x00\x00\x01\x00\x00\x00\x00\x00\x00\x00\x01\x00\x00\x00\x00\x00\x00\x00\x01\x00\x00\x00\x00\x00\x00\x00\x01\x00\x00\x00\x00\x00\x00\x00\x01\x00\x00\x00\x00\x00\x00\x00\x01\x00\x00\x00\x00\x00\x00\x00\x01\x00\x00\x00\x00\x00\x00\x00\x01\x00\x00\x00\x00\x00\x00\x00\x01\x00\x00\x00\x00\x00\x00\x00\x01\x00\x00\x00\x00\x00\x00\x00\x01\x00\x00\x00\x00\x00\x00\x00\x03\x00\x00\x00\x00\x00\x00\x00\x03\x00\x00\x00\x00\x00\x00\x00\x01\x00\x00\x00\x00\x00\x00\x00\x01\x00\x00\x00\x00\x00\x00\x00\x01\x00\x00\x00\x00\x00\x00\x00\x01\x00\x00\x00\x00\x00\x00\x00\x01\x00\x00\x00\x00\x00\x00\x00\x01\x00\x00\x00\x00\x00\x00\x00\x01\x00\x00\x00\x00\x00\x00\x00\x01\x00\x00\x00\x00\x00\x00\x00\x01\x00\x00\x00\x00\x00\x00\x00\x01\x00\x00\x00\x00\x00\x00\x00\x02\x00\x00\x00\x00\x00\x00\x00\x01\x00\x00\x00\x00\x00\x00\x00\x01\x00\x00\x00\x00\x00\x00\x00\x01\x00\x00\x00\x00\x00\x00\x00\x01\x00\x00\x00\x00\x00\x00\x00\x01\x00\x00\x00\x00\x00\x00\x00\x01\x00\x00\x00\x00\x00\x00\x00\x01\x00\x00\x00\x00\x00\x00\x00\x03\x00\x00\x00\x00\x00\x00\x00\x01\x00\x00\x00\x00\x00\x00\x00\x01\x00\x00\x00\x00\x00\x00\x00\x01\x00\x00\x00\x00\x00\x00\x00\x01\x00\x00\x00\x00\x00\x00\x00\x01\x00\x00\x00\x00\x00\x00\x00\x01\x00\x00\x00\x00\x00\x00\x00\x01\x00\x00\x00\x00\x00\x00\x00\x01\x00\x00\x00\x00\x00\x00\x00\x01\x00\x00\x00\x00\x00\x00\x00\x01\x00\x00\x00\x00\x00\x00\x00\x02\x00\x00\x00\x00\x00\x00\x00\x01\x00\x00\x00\x00\x00\x00\x00\x01\x00\x00\x00\x00\x00\x00\x00\x02\x00\x00\x00\x00\x00\x00\x00\x01\x00\x00\x00\x00\x00\x00\x00'
p4926
tp4927
bsbsbsS'sysce_sent_id_dict'
p4928
(dp4929
I2
(lp4930
I0
assS's_k'
p4931
g36
(g37
g38
Ntp4932
Rp4933
(dp4934
g42
g43
(g44
(I0
tp4935
g46
tp4936
Rp4937
(I1
(I73
tp4938
g53
I00
S'8\x00\x00\x00\r\x00\x00\x002\x00\x00\x00\x0c\x00\x00\x00!\x00\x00\x00)\x00\x00\x00\x00\x00\x00\x00\x1b\x00\x00\x00\x04\x00\x00\x00*\x00\x00\x000\x00\x00\x00\x1d\x00\x00\x00\x05\x00\x00\x00\x1e\x00\x00\x00\t\x00\x00\x004\x00\x00\x00(\x00\x00\x00>\x00\x00\x00\x03\x00\x00\x00\x0e\x00\x00\x00\r\x00\x00\x002\x00\x00\x00\x0c\x00\x00\x00\t\x00\x00\x00;\x00\x00\x00=\x00\x00\x007\x00\x00\x006\x00\x00\x00\x0f\x00\x00\x00\x1f\x00\x00\x00"\x00\x00\x00\x01\x00\x00\x00/\x00\x00\x00\x10\x00\x00\x005\x00\x00\x00\x0b\x00\x00\x00\x07\x00\x00\x00$\x00\x00\x00\x13\x00\x00\x00\x00\x00\x00\x00\x1f\x00\x00\x00/\x00\x00\x00\'\x00\x00\x00<\x00\x00\x00+\x00\x00\x00%\x00\x00\x00\x08\x00\x00\x00\x06\x00\x00\x00&\x00\x00\x00\x1a\x00\x00\x00.\x00\x00\x00\x02\x00\x00\x00\n\x00\x00\x00\x11\x00\x00\x00\x12\x00\x00\x009\x00\x00\x001\x00\x00\x00,\x00\x00\x00\x00\x00\x00\x00\x1d\x00\x00\x00\n\x00\x00\x00\x1c\x00\x00\x003\x00\x00\x00#\x00\x00\x00\x18\x00\x00\x00-\x00\x00\x00\x16\x00\x00\x00\x15\x00\x00\x00:\x00\x00\x00\x14\x00\x00\x00\x19\x00\x00\x00\x17\x00\x00\x00 \x00\x00\x00'
p4939
tp4940
bsg68
g43
(g44
(I0
tp4941
g46
tp4942
Rp4943
(I1
(I73
tp4944
g75
I00
S'\x16\xcae=\x87B\xcc?F\xbcj\x02\xc9G\xc6?F\xbcj\x02\xc9G\xc6?F\xbcj\x02\xc9G\xc6?\x16\xcae=\x87B\xdc?\x16\xcae=\x87B\xcc?\x83\xdc\xfe\xa7\xb4\t\xc2?\x16\xcae=\x87B\xcc?\x16\xcae=\x87B\xcc?\x16\xcae=\x87B\xcc?\x16\xcae=\x87B\xcc?F\xbcj\x02\xc9G\xc6?\x16\xcae=\x87B\xcc?\x16\xcae=\x87B\xcc?F\xbcj\x02\xc9G\xc6?\x16\xcae=\x87B\xcc?\x16\xcae=\x87B\xcc?\x16\xcae=\x87B\xcc?\x16\xcae=\x87B\xcc?\x16\xcae=\x87B\xcc?|N`u\x1dO\xdd?|N`u\x1dO\xdd?\xa8\x89\x95\xa3\x13\x8a\xc3?\xa8\x89\x95\xa3\x13\x8a\xc3?\xbd\tk\x03\x80\xc8\xc8?\xbd\tk\x03\x80\xc8\xc8?\xbd\tk\x03\x80\xc8\xc8?\xbd\tk\x03\x80\xc8\xc8?\xbd\tk\x03\x80\xc8\xc8?\xa8\x89\x95\xa3\x13\x8a\xc3?\xbd\tk\x03\x80\xc8\xc8?\xbd\tk\x03\x80\xc8\xc8?\xa8\x89\x95\xa3\x13\x8a\xc3?\xbd\tk\x03\x80\xc8\xc8?\xbd\tk\x03\x80\xc8\xc8?\xbd\tk\x03\x80\xc8\xc8?\xbd\tk\x03\x80\xc8\xc8?\xbd\tk\x03\x80\xc8\xc8?\xbd\tk\x03\x80\xc8\xc8?K\xbe\x87\xb1qC\xd9?\xa2\xc5IX\xb8\xcd\xc4?\xa2\xc5IX\xb8\xcd\xc4?\xd9pB*\x00c\xca?\xd9pB*\x00c\xca?\xd9pB*\x00c\xca?\xd9pB*\x00c\xca?\xd9pB*\x00c\xca?\xd9pB*\x00c\xda?\xd9pB*\x00c\xca?\xd9pB*\x00c\xca?\xd9pB*\x00c\xca?\xd9pB*\x00c\xca?\xa2\xc5IX\xb8\xcd\xc4?\xd9pB*\x00c\xca?\xd9pB*\x00c\xca?\xd9pB*\x00c\xca?\xd9pB*\x00c\xca?\xd9pB*\x00c\xca?\x8c\x16\xa3\xcc\xb5\xfc\xc2?L!i\xad\xf1s\xd7?L!i\xad\xf1s\xc7?\xf8\x85>\xe2=\xbf\xcd?\xf8\x85>\xe2=\xbf\xdd?\xf8\x85>\xe2=\xbf\xcd?\xf8\x85>\xe2=\xbf\xcd?\xf8\x85>\xe2=\xbf\xcd?\xf8\x85>\xe2=\xbf\xcd?\xf8\x85>\xe2=\xbf\xcd?\xf8\x85>\xe2=\xbf\xcd?\xf8\x85>\xe2=\xbf\xcd?\xf8\x85>\xe2=\xbf\xcd?\xf8\x85>\xe2=\xbf\xcd?\xf8\x85>\xe2=\xbf\xcd?'
p4945
tp4946
bsg65
I50
sg66
(I4
I63
tp4947
sg58
g4826
sbsS'context_set'
p4948
(lp4949
(isxpPackage
sxpContext
p4950
(dp4951
S'context_sent'
p4952
(lp4953
g4
ag15
ag20
ag25
asg8
I0
sg12
I0
sg11
I0
sbasS'ce_sys'
p4954
(dp4955
sS'conclusion'
p4956
g181
sS'sec_title'
p4957
V1 WHAT IS COMMON SENSE?
p4958
sS'c_c'
p4959
g36
(g37
g38
Ntp4960
Rp4961
(dp4962
g66
(I1
I1
tp4963
sg225
I01
sg58
g43
(g44
(I0
tp4964
g46
tp4965
Rp4966
(I1
(I2
tp4967
g232
I00
S'\x00\x00\x00\x00\x01\x00\x00\x00'
p4968
tp4969
bsg42
g43
(g44
(I0
tp4970
g46
tp4971
Rp4972
(I1
(I1
tp4973
g232
I00
S'\x00\x00\x00\x00'
p4974
tp4975
bsg65
I50
sg68
g43
(g44
(I0
tp4976
g46
tp4977
Rp4978
(I1
(I1
tp4979
g75
I00
S'\x00\x00\x00\x00\x00\x00\xf0?'
p4980
tp4981
bsbsS'sec_id_str'
p4982
Vs1
p4983
sS'section_list'
p4984
(lp4985
(isxpPackage
sxpSectionTitle
p4986
(dp4987
S'level'
p4988
I1
sS'title'
p4989
g4958
sS't_type'
p4990
S'section'
p4991
sS'id_str'
p4992
g4983
sS'id_set'
p4993
(lp4994
(S'S'
p4995
S'1'
p4996
tp4997
asg12
I0
sbasS'man_CE_list'
p4998
(lp4999
sS'para_id_dict'
p5000
(dp5001
I12
I0
ssS't_s'
p5002
g36
(g37
g38
Ntp5003
Rp5004
(dp5005
g66
(I1
I4
tp5006
sg225
I01
sg58
g43
(g44
(I0
tp5007
g46
tp5008
Rp5009
(I1
(I2
tp5010
g232
I00
S'\x00\x00\x00\x00\x04\x00\x00\x00'
p5011
tp5012
bsg42
g43
(g44
(I0
tp5013
g46
tp5014
Rp5015
(I1
(I4
tp5016
g232
I00
S'\x00\x00\x00\x00\x01\x00\x00\x00\x02\x00\x00\x00\x03\x00\x00\x00'
p5017
tp5018
bsg65
I50
sg68
g43
(g44
(I0
tp5019
g46
tp5020
Rp5021
(I1
(I4
tp5022
g75
I00
S'\x00\x00\x00\x00\x00\x00\xf0?\x00\x00\x00\x00\x00\x00\xf0?\x00\x00\x00\x00\x00\x00\xf0?\x00\x00\x00\x00\x00\x00\xf0?'
p5023
tp5024
bsbsS'paraset'
p5025
(lp5026
(isxpPackage
sxpPara
p5027
(dp5028
g2
(lp5029
g4
ag15
ag20
ag25
asS'para_id'
p5030
Vs1.p1
p5031
sS'section_title'
p5032
g4958
sg32
(lp5033
sg8
I0
sS'para_text'
p5034
VUnderstanding common sense capability is now a hot area of research in artificial intelligence, but there is not yet any consensus. We will try to divide common sense capability into common sense knowledge and common sense reasoning, but even this cannot be made firm. Namely, what one man builds as a reasoning method into his program, another can express as a fact using a richer ontology. However, the latter can have problems in handling in a good way the generality he has introduced.
p5035
sS'para_tuple'
p5036
(lp5037
g4983
aS'p1'
p5038
asg12
I0
sg4948
(lp5039
g4950
asbasS'sec_id_lst'
p5040
(lp5041
I2
asS'c_p'
p5042
g36
(g37
g38
Ntp5043
Rp5044
(dp5045
g66
(I1
I1
tp5046
sg225
I01
sg58
g43
(g44
(I0
tp5047
g46
tp5048
Rp5049
(I1
(I2
tp5050
g232
I00
S'\x00\x00\x00\x00\x01\x00\x00\x00'
p5051
tp5052
bsg42
g43
(g44
(I0
tp5053
g46
tp5054
Rp5055
(I1
(I1
tp5056
g232
I00
S'\x00\x00\x00\x00'
p5057
tp5058
bsg65
I50
sg68
g43
(g44
(I0
tp5059
g46
tp5060
Rp5061
(I1
(I1
tp5062
g75
I00
S'\x00\x00\x00\x00\x00\x00\xf0?'
p5063
tp5064
bsbsS'cont_id_dict'
p5065
(dp5066
I12
I0
ssS'whole_text'
p5067
VUnderstanding common sense capability is now a hot area of research in artificial intelligence, but there is not yet any consensus. We will try to divide common sense capability into common sense knowledge and common sense reasoning, but even this cannot be made firm. Namely, what one man builds as a reasoning method into his program, another can express as a fact using a richer ontology. However, the latter can have problems in handling in a good way the generality he has introduced.
p5068
sS'ce_man'
p5069
(dp5070
sb.