(dp0
S'01'
p1
(dp2
VROUGE-L
p3
(lp4
(lp5
VAverage_R
p6
aV0.50420
p7
aV0.50420
p8
aV0.50420
p9
aa(lp10
VAverage_P
p11
aV0.51903
p12
aV0.51903
p13
aV0.51903
p14
aa(lp15
VAverage_F
p16
aV0.51151
p17
aV0.51151
p18
aV0.51151
p19
aasVROUGE-4
p20
(lp21
(lp22
VAverage_R
p23
aV0.23939
p24
aV0.23939
p25
aV0.23939
p26
aa(lp27
VAverage_P
p28
aV0.24650
p29
aV0.24650
p30
aV0.24650
p31
aa(lp32
VAverage_F
p33
aV0.24289
p34
aV0.24289
p35
aV0.24289
p36
aasVROUGE-2
p37
(lp38
(lp39
VAverage_R
p40
aV0.29848
p41
aV0.29848
p42
aV0.29848
p43
aa(lp44
VAverage_P
p45
aV0.30729
p46
aV0.30729
p47
aV0.30729
p48
aa(lp49
VAverage_F
p50
aV0.30282
p51
aV0.30282
p52
aV0.30282
p53
aasVROUGE-3
p54
(lp55
(lp56
VAverage_R
p57
aV0.25381
p58
aV0.25381
p59
aV0.25381
p60
aa(lp61
VAverage_P
p62
aV0.26132
p63
aV0.26132
p64
aV0.26132
p65
aa(lp66
VAverage_F
p67
aV0.25751
p68
aV0.25751
p69
aV0.25751
p70
aasVROUGE-1
p71
(lp72
(lp73
VAverage_R
p74
aV0.51597
p75
aV0.51597
p76
aV0.51597
p77
aa(lp78
VAverage_P
p79
aV0.53114
p80
aV0.53114
p81
aV0.53114
p82
aa(lp83
VAverage_F
p84
aV0.52345
p85
aV0.52345
p86
aV0.52345
p87
aassS'06'
p88
(dp89
VROUGE-L
p90
(lp91
(lp92
VAverage_R
p93
aV0.64874
p94
aV0.64874
p95
aV0.64874
p96
aa(lp97
VAverage_P
p98
aV0.64983
p99
aV0.64983
p100
aV0.64983
p101
aa(lp102
VAverage_F
p103
aV0.64928
p104
aV0.64928
p105
aV0.64928
p106
aasVROUGE-4
p107
(lp108
(lp109
VAverage_R
p110
aV0.37521
p111
aV0.37521
p112
aV0.37521
p113
aa(lp114
VAverage_P
p115
aV0.37585
p116
aV0.37585
p117
aV0.37585
p118
aa(lp119
VAverage_F
p120
aV0.37553
p121
aV0.37553
p122
aV0.37553
p123
aasVROUGE-2
p124
(lp125
(lp126
VAverage_R
p127
aV0.45868
p128
aV0.45868
p129
aV0.45868
p130
aa(lp131
VAverage_P
p132
aV0.45946
p133
aV0.45946
p134
aV0.45946
p135
aa(lp136
VAverage_F
p137
aV0.45907
p138
aV0.45907
p139
aV0.45907
p140
aasVROUGE-3
p141
(lp142
(lp143
VAverage_R
p144
aV0.40948
p145
aV0.40948
p146
aV0.40948
p147
aa(lp148
VAverage_P
p149
aV0.41017
p150
aV0.41017
p151
aV0.41017
p152
aa(lp153
VAverage_F
p154
aV0.40982
p155
aV0.40982
p156
aV0.40982
p157
aasVROUGE-1
p158
(lp159
(lp160
VAverage_R
p161
aV0.65210
p162
aV0.65210
p163
aV0.65210
p164
aa(lp165
VAverage_P
p166
aV0.65320
p167
aV0.65320
p168
aV0.65320
p169
aa(lp170
VAverage_F
p171
aV0.65265
p172
aV0.65265
p173
aV0.65265
p174
aassS'07'
p175
(dp176
VROUGE-L
p177
(lp178
(lp179
VAverage_R
p180
aV0.65378
p181
aV0.65378
p182
aV0.65378
p183
aa(lp184
VAverage_P
p185
aV0.64404
p186
aV0.64404
p187
aV0.64404
p188
aa(lp189
VAverage_F
p190
aV0.64887
p191
aV0.64887
p192
aV0.64887
p193
aasVROUGE-4
p194
(lp195
(lp196
VAverage_R
p197
aV0.36842
p198
aV0.36842
p199
aV0.36842
p200
aa(lp201
VAverage_P
p202
aV0.36288
p203
aV0.36288
p204
aV0.36288
p205
aa(lp206
VAverage_F
p207
aV0.36563
p208
aV0.36563
p209
aV0.36563
p210
aasVROUGE-2
p211
(lp212
(lp213
VAverage_R
p214
aV0.46374
p215
aV0.46374
p216
aV0.46374
p217
aa(lp218
VAverage_P
p219
aV0.45681
p220
aV0.45681
p221
aV0.45681
p222
aa(lp223
VAverage_F
p224
aV0.46025
p225
aV0.46025
p226
aV0.46025
p227
aasVROUGE-3
p228
(lp229
(lp230
VAverage_R
p231
aV0.40948
p232
aV0.40948
p233
aV0.40948
p234
aa(lp235
VAverage_P
p236
aV0.40333
p237
aV0.40333
p238
aV0.40333
p239
aa(lp240
VAverage_F
p241
aV0.40638
p242
aV0.40638
p243
aV0.40638
p244
aasVROUGE-1
p245
(lp246
(lp247
VAverage_R
p248
aV0.65714
p249
aV0.65714
p250
aV0.65714
p251
aa(lp252
VAverage_P
p253
aV0.64735
p254
aV0.64735
p255
aV0.64735
p256
aa(lp257
VAverage_F
p258
aV0.65221
p259
aV0.65221
p260
aV0.65221
p261
aassS'05'
p262
(dp263
VROUGE-L
p264
(lp265
(lp266
VAverage_R
p267
aV0.50420
p268
aV0.50420
p269
aV0.50420
p270
aa(lp271
VAverage_P
p272
aV0.51903
p273
aV0.51903
p274
aV0.51903
p275
aa(lp276
VAverage_F
p277
aV0.51151
p278
aV0.51151
p279
aV0.51151
p280
aasVROUGE-4
p281
(lp282
(lp283
VAverage_R
p284
aV0.23939
p285
aV0.23939
p286
aV0.23939
p287
aa(lp288
VAverage_P
p289
aV0.24650
p290
aV0.24650
p291
aV0.24650
p292
aa(lp293
VAverage_F
p294
aV0.24289
p295
aV0.24289
p296
aV0.24289
p297
aasVROUGE-2
p298
(lp299
(lp300
VAverage_R
p301
aV0.29848
p302
aV0.29848
p303
aV0.29848
p304
aa(lp305
VAverage_P
p306
aV0.30729
p307
aV0.30729
p308
aV0.30729
p309
aa(lp310
VAverage_F
p311
aV0.30282
p312
aV0.30282
p313
aV0.30282
p314
aasVROUGE-3
p315
(lp316
(lp317
VAverage_R
p318
aV0.25381
p319
aV0.25381
p320
aV0.25381
p321
aa(lp322
VAverage_P
p323
aV0.26132
p324
aV0.26132
p325
aV0.26132
p326
aa(lp327
VAverage_F
p328
aV0.25751
p329
aV0.25751
p330
aV0.25751
p331
aasVROUGE-1
p332
(lp333
(lp334
VAverage_R
p335
aV0.51597
p336
aV0.51597
p337
aV0.51597
p338
aa(lp339
VAverage_P
p340
aV0.53114
p341
aV0.53114
p342
aV0.53114
p343
aa(lp344
VAverage_F
p345
aV0.52345
p346
aV0.52345
p347
aV0.52345
p348
aassS'55'
p349
(dp350
VROUGE-L
p351
(lp352
(lp353
VAverage_R
p354
aV0.62857
p355
aV0.62857
p356
aV0.62857
p357
aa(lp358
VAverage_P
p359
aV0.60912
p360
aV0.60912
p361
aV0.60912
p362
aa(lp363
VAverage_F
p364
aV0.61869
p365
aV0.61869
p366
aV0.61869
p367
aasVROUGE-4
p368
(lp369
(lp370
VAverage_R
p371
aV0.32088
p372
aV0.32088
p373
aV0.32088
p374
aa(lp375
VAverage_P
p376
aV0.31086
p377
aV0.31086
p378
aV0.31086
p379
aa(lp380
VAverage_F
p381
aV0.31579
p382
aV0.31579
p383
aV0.31579
p384
aasVROUGE-2
p385
(lp386
(lp387
VAverage_R
p388
aV0.40472
p389
aV0.40472
p390
aV0.40472
p391
aa(lp392
VAverage_P
p393
aV0.39216
p394
aV0.39216
p395
aV0.39216
p396
aa(lp397
VAverage_F
p398
aV0.39834
p399
aV0.39834
p400
aV0.39834
p401
aasVROUGE-3
p402
(lp403
(lp404
VAverage_R
p405
aV0.35025
p406
aV0.35025
p407
aV0.35025
p408
aa(lp409
VAverage_P
p410
aV0.33934
p411
aV0.33934
p412
aV0.33934
p413
aa(lp414
VAverage_F
p415
aV0.34471
p416
aV0.34471
p417
aV0.34471
p418
aasVROUGE-1
p419
(lp420
(lp421
VAverage_R
p422
aV0.64538
p423
aV0.64538
p424
aV0.64538
p425
aa(lp426
VAverage_P
p427
aV0.62541
p428
aV0.62541
p429
aV0.62541
p430
aa(lp431
VAverage_F
p432
aV0.63524
p433
aV0.63524
p434
aV0.63524
p435
aassS'56'
p436
(dp437
VROUGE-L
p438
(lp439
(lp440
VAverage_R
p441
aV0.66891
p442
aV0.66891
p443
aV0.66891
p444
aa(lp445
VAverage_P
p446
aV0.63578
p447
aV0.63578
p448
aV0.63578
p449
aa(lp450
VAverage_F
p451
aV0.65192
p452
aV0.65192
p453
aV0.65192
p454
aasVROUGE-4
p455
(lp456
(lp457
VAverage_R
p458
aV0.38879
p459
aV0.38879
p460
aV0.38879
p461
aa(lp462
VAverage_P
p463
aV0.36935
p464
aV0.36935
p465
aV0.36935
p466
aa(lp467
VAverage_F
p468
aV0.37882
p469
aV0.37882
p470
aV0.37882
p471
aasVROUGE-2
p472
(lp473
(lp474
VAverage_R
p475
aV0.48229
p476
aV0.48229
p477
aV0.48229
p478
aa(lp479
VAverage_P
p480
aV0.45833
p481
aV0.45833
p482
aV0.45833
p483
aa(lp484
VAverage_F
p485
aV0.47000
p486
aV0.47000
p487
aV0.47000
p488
aasVROUGE-3
p489
(lp490
(lp491
VAverage_R
p492
aV0.42640
p493
aV0.42640
p494
aV0.42640
p495
aa(lp496
VAverage_P
p497
aV0.40514
p498
aV0.40514
p499
aV0.40514
p500
aa(lp501
VAverage_F
p502
aV0.41550
p503
aV0.41550
p504
aV0.41550
p505
aasVROUGE-1
p506
(lp507
(lp508
VAverage_R
p509
aV0.67227
p510
aV0.67227
p511
aV0.67227
p512
aa(lp513
VAverage_P
p514
aV0.63898
p515
aV0.63898
p516
aV0.63898
p517
aa(lp518
VAverage_F
p519
aV0.65520
p520
aV0.65520
p521
aV0.65520
p522
aassS'08'
p523
(dp524
VROUGE-L
p525
(lp526
(lp527
VAverage_R
p528
aV0.50420
p529
aV0.50420
p530
aV0.50420
p531
aa(lp532
VAverage_P
p533
aV0.51903
p534
aV0.51903
p535
aV0.51903
p536
aa(lp537
VAverage_F
p538
aV0.51151
p539
aV0.51151
p540
aV0.51151
p541
aasVROUGE-4
p542
(lp543
(lp544
VAverage_R
p545
aV0.23939
p546
aV0.23939
p547
aV0.23939
p548
aa(lp549
VAverage_P
p550
aV0.24650
p551
aV0.24650
p552
aV0.24650
p553
aa(lp554
VAverage_F
p555
aV0.24289
p556
aV0.24289
p557
aV0.24289
p558
aasVROUGE-2
p559
(lp560
(lp561
VAverage_R
p562
aV0.29848
p563
aV0.29848
p564
aV0.29848
p565
aa(lp566
VAverage_P
p567
aV0.30729
p568
aV0.30729
p569
aV0.30729
p570
aa(lp571
VAverage_F
p572
aV0.30282
p573
aV0.30282
p574
aV0.30282
p575
aasVROUGE-3
p576
(lp577
(lp578
VAverage_R
p579
aV0.25381
p580
aV0.25381
p581
aV0.25381
p582
aa(lp583
VAverage_P
p584
aV0.26132
p585
aV0.26132
p586
aV0.26132
p587
aa(lp588
VAverage_F
p589
aV0.25751
p590
aV0.25751
p591
aV0.25751
p592
aasVROUGE-1
p593
(lp594
(lp595
VAverage_R
p596
aV0.51597
p597
aV0.51597
p598
aV0.51597
p599
aa(lp600
VAverage_P
p601
aV0.53114
p602
aV0.53114
p603
aV0.53114
p604
aa(lp605
VAverage_F
p606
aV0.52345
p607
aV0.52345
p608
aV0.52345
p609
aassS'09'
p610
(dp611
VROUGE-L
p612
(lp613
(lp614
VAverage_R
p615
aV0.70924
p616
aV0.70924
p617
aV0.70924
p618
aa(lp619
VAverage_P
p620
aV0.71769
p621
aV0.71769
p622
aV0.71769
p623
aa(lp624
VAverage_F
p625
aV0.71344
p626
aV0.71344
p627
aV0.71344
p628
aasVROUGE-4
p629
(lp630
(lp631
VAverage_R
p632
aV0.44652
p633
aV0.44652
p634
aV0.44652
p635
aa(lp636
VAverage_P
p637
aV0.45189
p638
aV0.45189
p639
aV0.45189
p640
aa(lp641
VAverage_F
p642
aV0.44919
p643
aV0.44919
p644
aV0.44919
p645
aasVROUGE-2
p646
(lp647
(lp648
VAverage_R
p649
aV0.54132
p650
aV0.54132
p651
aV0.54132
p652
aa(lp653
VAverage_P
p654
aV0.54778
p655
aV0.54778
p656
aV0.54778
p657
aa(lp658
VAverage_F
p659
aV0.54453
p660
aV0.54453
p661
aV0.54453
p662
aasVROUGE-3
p663
(lp664
(lp665
VAverage_R
p666
aV0.48731
p667
aV0.48731
p668
aV0.48731
p669
aa(lp670
VAverage_P
p671
aV0.49315
p672
aV0.49315
p673
aV0.49315
p674
aa(lp675
VAverage_F
p676
aV0.49021
p677
aV0.49021
p678
aV0.49021
p679
aasVROUGE-1
p680
(lp681
(lp682
VAverage_R
p683
aV0.71261
p684
aV0.71261
p685
aV0.71261
p686
aa(lp687
VAverage_P
p688
aV0.72109
p689
aV0.72109
p690
aV0.72109
p691
aa(lp692
VAverage_F
p693
aV0.71682
p694
aV0.71682
p695
aV0.71682
p696
aassS'51'
p697
(dp698
VROUGE-L
p699
(lp700
(lp701
VAverage_R
p702
aV0.66891
p703
aV0.66891
p704
aV0.66891
p705
aa(lp706
VAverage_P
p707
aV0.63578
p708
aV0.63578
p709
aV0.63578
p710
aa(lp711
VAverage_F
p712
aV0.65192
p713
aV0.65192
p714
aV0.65192
p715
aasVROUGE-4
p716
(lp717
(lp718
VAverage_R
p719
aV0.38540
p720
aV0.38540
p721
aV0.38540
p722
aa(lp723
VAverage_P
p724
aV0.36613
p725
aV0.36613
p726
aV0.36613
p727
aa(lp728
VAverage_F
p729
aV0.37552
p730
aV0.37552
p731
aV0.37552
p732
aasVROUGE-2
p733
(lp734
(lp735
VAverage_R
p736
aV0.47555
p737
aV0.47555
p738
aV0.47555
p739
aa(lp740
VAverage_P
p741
aV0.45192
p742
aV0.45192
p743
aV0.45192
p744
aa(lp745
VAverage_F
p746
aV0.46343
p747
aV0.46343
p748
aV0.46343
p749
aasVROUGE-3
p750
(lp751
(lp752
VAverage_R
p753
aV0.42301
p754
aV0.42301
p755
aV0.42301
p756
aa(lp757
VAverage_P
p758
aV0.40193
p759
aV0.40193
p760
aV0.40193
p761
aa(lp762
VAverage_F
p763
aV0.41220
p764
aV0.41220
p765
aV0.41220
p766
aasVROUGE-1
p767
(lp768
(lp769
VAverage_R
p770
aV0.67227
p771
aV0.67227
p772
aV0.67227
p773
aa(lp774
VAverage_P
p775
aV0.63898
p776
aV0.63898
p777
aV0.63898
p778
aa(lp779
VAverage_F
p780
aV0.65520
p781
aV0.65520
p782
aV0.65520
p783
aassS'59'
p784
(dp785
VROUGE-L
p786
(lp787
(lp788
VAverage_R
p789
aV0.66891
p790
aV0.66891
p791
aV0.66891
p792
aa(lp793
VAverage_P
p794
aV0.63578
p795
aV0.63578
p796
aV0.63578
p797
aa(lp798
VAverage_F
p799
aV0.65192
p800
aV0.65192
p801
aV0.65192
p802
aasVROUGE-4
p803
(lp804
(lp805
VAverage_R
p806
aV0.38879
p807
aV0.38879
p808
aV0.38879
p809
aa(lp810
VAverage_P
p811
aV0.36935
p812
aV0.36935
p813
aV0.36935
p814
aa(lp815
VAverage_F
p816
aV0.37882
p817
aV0.37882
p818
aV0.37882
p819
aasVROUGE-2
p820
(lp821
(lp822
VAverage_R
p823
aV0.48229
p824
aV0.48229
p825
aV0.48229
p826
aa(lp827
VAverage_P
p828
aV0.45833
p829
aV0.45833
p830
aV0.45833
p831
aa(lp832
VAverage_F
p833
aV0.47000
p834
aV0.47000
p835
aV0.47000
p836
aasVROUGE-3
p837
(lp838
(lp839
VAverage_R
p840
aV0.42640
p841
aV0.42640
p842
aV0.42640
p843
aa(lp844
VAverage_P
p845
aV0.40514
p846
aV0.40514
p847
aV0.40514
p848
aa(lp849
VAverage_F
p850
aV0.41550
p851
aV0.41550
p852
aV0.41550
p853
aasVROUGE-1
p854
(lp855
(lp856
VAverage_R
p857
aV0.67227
p858
aV0.67227
p859
aV0.67227
p860
aa(lp861
VAverage_P
p862
aV0.63898
p863
aV0.63898
p864
aV0.63898
p865
aa(lp866
VAverage_F
p867
aV0.65520
p868
aV0.65520
p869
aV0.65520
p870
aassS'57'
p871
(dp872
VROUGE-L
p873
(lp874
(lp875
VAverage_R
p876
aV0.66891
p877
aV0.66891
p878
aV0.66891
p879
aa(lp880
VAverage_P
p881
aV0.63578
p882
aV0.63578
p883
aV0.63578
p884
aa(lp885
VAverage_F
p886
aV0.65192
p887
aV0.65192
p888
aV0.65192
p889
aasVROUGE-4
p890
(lp891
(lp892
VAverage_R
p893
aV0.38879
p894
aV0.38879
p895
aV0.38879
p896
aa(lp897
VAverage_P
p898
aV0.36935
p899
aV0.36935
p900
aV0.36935
p901
aa(lp902
VAverage_F
p903
aV0.37882
p904
aV0.37882
p905
aV0.37882
p906
aasVROUGE-2
p907
(lp908
(lp909
VAverage_R
p910
aV0.47892
p911
aV0.47892
p912
aV0.47892
p913
aa(lp914
VAverage_P
p915
aV0.45513
p916
aV0.45513
p917
aV0.45513
p918
aa(lp919
VAverage_F
p920
aV0.46672
p921
aV0.46672
p922
aV0.46672
p923
aasVROUGE-3
p924
(lp925
(lp926
VAverage_R
p927
aV0.42640
p928
aV0.42640
p929
aV0.42640
p930
aa(lp931
VAverage_P
p932
aV0.40514
p933
aV0.40514
p934
aV0.40514
p935
aa(lp936
VAverage_F
p937
aV0.41550
p938
aV0.41550
p939
aV0.41550
p940
aasVROUGE-1
p941
(lp942
(lp943
VAverage_R
p944
aV0.67227
p945
aV0.67227
p946
aV0.67227
p947
aa(lp948
VAverage_P
p949
aV0.63898
p950
aV0.63898
p951
aV0.63898
p952
aa(lp953
VAverage_F
p954
aV0.65520
p955
aV0.65520
p956
aV0.65520
p957
aassS'58'
p958
(dp959
VROUGE-L
p960
(lp961
(lp962
VAverage_R
p963
aV0.66387
p964
aV0.66387
p965
aV0.66387
p966
aa(lp967
VAverage_P
p968
aV0.61912
p969
aV0.61912
p970
aV0.61912
p971
aa(lp972
VAverage_F
p973
aV0.64071
p974
aV0.64071
p975
aV0.64071
p976
aasVROUGE-4
p977
(lp978
(lp979
VAverage_R
p980
aV0.38031
p981
aV0.38031
p982
aV0.38031
p983
aa(lp984
VAverage_P
p985
aV0.35443
p986
aV0.35443
p987
aV0.35443
p988
aa(lp989
VAverage_F
p990
aV0.36691
p991
aV0.36691
p992
aV0.36691
p993
aasVROUGE-2
p994
(lp995
(lp996
VAverage_R
p997
aV0.46543
p998
aV0.46543
p999
aV0.46543
p1000
aa(lp1001
VAverage_P
p1002
aV0.43396
p1003
aV0.43396
p1004
aV0.43396
p1005
aa(lp1006
VAverage_F
p1007
aV0.44914
p1008
aV0.44914
p1009
aV0.44914
p1010
aasVROUGE-3
p1011
(lp1012
(lp1013
VAverage_R
p1014
aV0.41455
p1015
aV0.41455
p1016
aV0.41455
p1017
aa(lp1018
VAverage_P
p1019
aV0.38644
p1020
aV0.38644
p1021
aV0.38644
p1022
aa(lp1023
VAverage_F
p1024
aV0.40000
p1025
aV0.40000
p1026
aV0.40000
p1027
aasVROUGE-1
p1028
(lp1029
(lp1030
VAverage_R
p1031
aV0.66891
p1032
aV0.66891
p1033
aV0.66891
p1034
aa(lp1035
VAverage_P
p1036
aV0.62382
p1037
aV0.62382
p1038
aV0.62382
p1039
aa(lp1040
VAverage_F
p1041
aV0.64558
p1042
aV0.64558
p1043
aV0.64558
p1044
aass.