(lp0
(icmyPackage
CELink
p1
(dp2
S'PTreelst'
p3
(lp4
ccopy_reg
_reconstructor
p5
(cnltk.tree
Tree
p6
c__builtin__
list
p7
(lp8
g5
(g6
g7
(lp9
g5
(g6
g7
(lp10
g5
(g6
g7
(lp11
VThe
p12
atp13
Rp14
(dp15
S'_label'
p16
VDT
p17
sbag5
(g6
g7
(lp18
Vtopic
p19
atp20
Rp21
(dp22
g16
VNN
p23
sbag5
(g6
g7
(lp24
Vinformation
p25
atp26
Rp27
(dp28
g16
VNN
p29
sbatp30
Rp31
(dp32
g16
VNP
p33
sbag5
(g6
g7
(lp34
g5
(g6
g7
(lp35
Vis
p36
atp37
Rp38
(dp39
g16
VVBZ
p40
sbag5
(g6
g7
(lp41
g5
(g6
g7
(lp42
Vgenerated
p43
atp44
Rp45
(dp46
g16
VVBN
p47
sbag5
(g6
g7
(lp48
g5
(g6
g7
(lp49
Vthrough
p50
atp51
Rp52
(dp53
g16
VIN
p54
sbag5
(g6
g7
(lp55
g5
(g6
g7
(lp56
Vtopic
p57
atp58
Rp59
(dp60
g16
VNN
p61
sbag5
(g6
g7
(lp62
Vmodeling
p63
atp64
Rp65
(dp66
g16
VNN
p67
sbatp68
Rp69
(dp70
g16
VNP
p71
sbatp72
Rp73
(dp74
g16
VPP
p75
sbag5
(g6
g7
(lp76
g5
(g6
g7
(lp77
Vbased
p78
atp79
Rp80
(dp81
g16
VVBN
p82
sbag5
(g6
g7
(lp83
g5
(g6
g7
(lp84
Von
p85
atp86
Rp87
(dp88
g16
VIN
p89
sbag5
(g6
g7
(lp90
g5
(g6
g7
(lp91
g5
(g6
g7
(lp92
Van
p93
atp94
Rp95
(dp96
g16
VDT
p97
sbag5
(g6
g7
(lp98
Vefficient
p99
atp100
Rp101
(dp102
g16
VJJ
p103
sbag5
(g6
g7
(lp104
Vimplementation
p105
atp106
Rp107
(dp108
g16
VNN
p109
sbatp110
Rp111
(dp112
g16
VNP
p113
sbag5
(g6
g7
(lp114
g5
(g6
g7
(lp115
Vof
p116
atp117
Rp118
(dp119
g16
VIN
p120
sbag5
(g6
g7
(lp121
g5
(g6
g7
(lp122
g5
(g6
g7
(lp123
VLatent
p124
atp125
Rp126
(dp127
g16
VNNP
p128
sbag5
(g6
g7
(lp129
VDirichlet
p130
atp131
Rp132
(dp133
g16
VNNP
p134
sbatp135
Rp136
(dp137
g16
VNP
p138
sbag5
(g6
g7
(lp139
g5
(g6
g7
(lp140
VAllocation
p141
atp142
Rp143
(dp144
g16
VNNP
p145
sbag5
(g6
g7
(lp146
V-LRB-
p147
atp148
Rp149
(dp150
g16
V-LRB-
p151
sbag5
(g6
g7
(lp152
VLDA
p153
atp154
Rp155
(dp156
g16
VNNP
p157
sbatp158
Rp159
(dp160
g16
VNP
p161
sbatp162
Rp163
(dp164
g16
VNP
p165
sbatp166
Rp167
(dp168
g16
VPP
p169
sbatp170
Rp171
(dp172
g16
VNP
p173
sbatp174
Rp175
(dp176
g16
VPP
p177
sbatp178
Rp179
(dp180
g16
VPP
p181
sbatp182
Rp183
(dp184
g16
VVP
p185
sbatp186
Rp187
(dp188
g16
VVP
p189
sbatp190
Rp191
(dp192
g16
VS
p193
sbatp194
Rp195
(dp196
g16
VROOT
p197
sbasS'cause'
p198
(icmyPackage
CorE
p199
(dp200
S'span'
p201
(lp202
(I0
I10
tp203
a(I0
I18
tp204
asS'PTree'
p205
g171
sbsS'effect'
p206
(icmyPackage
CorE
p207
(dp208
g201
(lp209
(I0
I0
tp210
a(I0
I7
tp211
asg205
g5
(g6
g7
(lp212
g31
ag38
ag45
ag73
atp213
Rp214
(dp215
g16
S'ROOT'
p216
sbsbsS'pt'
p217
(icmyPackage
pattern
p218
(dp219
S'pfreq'
p220
I0
sS'moresent'
p221
I0
sS'main_token'
p222
(lp223
(lp224
S'based'
p225
aS'on'
p226
aasS'ptype'
p227
(lp228
I2
aI1
aI1
asS'cases'
p229
(lp230
S'He said he planned to announce details of legislation on Sunday based on a Republican plan that would provide a short-term solution'
p231
asS'id'
p232
I48
sS'constraints'
p233
(lp234
(lp235
S'&R'
p236
aS'(,)'
p237
aS'(&ADV)'
p238
aa(lp239
S'&V-ing/&NP@C@'
p240
aS'(&Clause@C@)'
p241
aasbsS'sInfo'
p242
(lp243
(isxpPackage
sxpSent
p244
(dp245
S'sysCEidlst'
p246
(lp247
I0
asS'sentence_text'
p248
VThe topic information is generated through topic modeling based on an efficient implementation of Latent Dirichlet Allocation (LDA
p249
sS'id_sec'
p250
I1
sg232
I3
sS'id_para'
p251
I0
sbasba(icmyPackage
CELink
p252
(dp253
g3
(lp254
g5
(g6
g7
(lp255
g5
(g6
g7
(lp256
g5
(g6
g7
(lp257
g5
(g6
g7
(lp258
VGenerally
p259
atp260
Rp261
(dp262
g16
VRB
p263
sbatp264
Rp265
(dp266
g16
VADVP
p267
sbag5
(g6
g7
(lp268
g5
(g6
g7
(lp269
Vu
p270
atp271
Rp272
(dp273
g16
VVBP
p274
sbag5
(g6
g7
(lp275
V'
p276
atp277
Rp278
(dp279
g16
V``
p280
sbag5
(g6
g7
(lp281
g5
(g6
g7
(lp282
g5
(g6
g7
(lp283
V\u005c
p284
atp285
Rp286
(dp287
g16
VNNP
p288
sbag5
(g6
g7
(lp289
Vu201c
p290
atp291
Rp292
(dp293
g16
VNNP
p294
sbag5
(g6
g7
(lp295
g276
atp296
Rp297
(dp298
g16
VPOS
p299
sbatp300
Rp301
(dp302
g16
VNP
p303
sbag5
(g6
g7
(lp304
Voffensive
p305
atp306
Rp307
(dp308
g16
VJJ
p309
sbag5
(g6
g7
(lp310
g270
atp311
Rp312
(dp313
g16
VNN
p314
sbatp315
Rp316
(dp317
g16
VNP
p318
sbag5
(g6
g7
(lp319
g276
atp320
Rp321
(dp322
g16
V''
p323
sbatp324
Rp325
(dp326
g16
VVP
p327
sbag5
(g6
g7
(lp328
g5
(g6
g7
(lp329
g5
(g6
g7
(lp330
V\u005c
p331
atp332
Rp333
(dp334
g16
VNNP
p335
sbatp336
Rp337
(dp338
g16
VNP
p339
sbag5
(g6
g7
(lp340
g5
(g6
g7
(lp341
g5
(g6
g7
(lp342
g5
(g6
g7
(lp343
g5
(g6
g7
(lp344
Vu201d
p345
atp346
Rp347
(dp348
g16
VNNP
p349
sbag5
(g6
g7
(lp350
g276
atp351
Rp352
(dp353
g16
VPOS
p354
sbatp355
Rp356
(dp357
g16
VNP
p358
sbag5
(g6
g7
(lp359
g5
(g6
g7
(lp360
Vis
p361
atp362
Rp363
(dp364
g16
VVBZ
p365
sbag5
(g6
g7
(lp366
g5
(g6
g7
(lp367
Vused
p368
atp369
Rp370
(dp371
g16
VVBN
p372
sbag5
(g6
g7
(lp373
g5
(g6
g7
(lp374
Vas
p375
atp376
Rp377
(dp378
g16
VIN
p379
sbag5
(g6
g7
(lp380
g5
(g6
g7
(lp381
Va
p382
atp383
Rp384
(dp385
g16
VDT
p386
sbag5
(g6
g7
(lp387
Vnegative
p388
atp389
Rp390
(dp391
g16
VJJ
p392
sbag5
(g6
g7
(lp393
Vword
p394
atp395
Rp396
(dp397
g16
VNN
p398
sbatp399
Rp400
(dp401
g16
VNP
p402
sbatp403
Rp404
(dp405
g16
VPP
p406
sbag5
(g6
g7
(lp407
g5
(g6
g7
(lp408
V-LRB-
p409
atp410
Rp411
(dp412
g16
V-LRB-
p413
sbag5
(g6
g7
(lp414
g5
(g6
g7
(lp415
Vas
p416
atp417
Rp418
(dp419
g16
VRB
p420
sbag5
(g6
g7
(lp421
Vin
p422
atp423
Rp424
(dp425
g16
VIN
p426
sbag5
(g6
g7
(lp427
g5
(g6
g7
(lp428
Vthe
p429
atp430
Rp431
(dp432
g16
VDT
p433
sbag5
(g6
g7
(lp434
Vfirst
p435
atp436
Rp437
(dp438
g16
VJJ
p439
sbag5
(g6
g7
(lp440
Vtweet
p441
atp442
Rp443
(dp444
g16
VNN
p445
sbatp446
Rp447
(dp448
g16
VNP
p449
sbatp450
Rp451
(dp452
g16
VPP
p453
sbag5
(g6
g7
(lp454
V-RRB-
p455
atp456
Rp457
(dp458
g16
V-RRB-
p459
sbatp460
Rp461
(dp462
g16
VPRN
p463
sbatp464
Rp465
(dp466
g16
VVP
p467
sbatp468
Rp469
(dp470
g16
VVP
p471
sbatp472
Rp473
(dp474
g16
g193
sbag5
(g6
g7
(lp475
V,
p476
atp477
Rp478
(dp479
g16
g476
sbag5
(g6
g7
(lp480
Vbut
p481
atp482
Rp483
(dp484
g16
VCC
p485
sbag5
(g6
g7
(lp486
g5
(g6
g7
(lp487
g5
(g6
g7
(lp488
Vit
p489
atp490
Rp491
(dp492
g16
VPRP
p493
sbatp494
Rp495
(dp496
g16
VNP
p497
sbag5
(g6
g7
(lp498
g5
(g6
g7
(lp499
Vbears
p500
atp501
Rp502
(dp503
g16
VVBZ
p504
sbag5
(g6
g7
(lp505
g5
(g6
g7
(lp506
Vno
p507
atp508
Rp509
(dp510
g16
VDT
p511
sbag5
(g6
g7
(lp512
Vsentiment
p513
atp514
Rp515
(dp516
g16
VNN
p517
sbatp518
Rp519
(dp520
g16
VNP
p521
sbatp522
Rp523
(dp524
g16
VVP
p525
sbatp526
Rp527
(dp528
g16
g193
sbatp529
Rp530
(dp531
g16
g193
sbatp532
Rp533
(dp534
g16
VSBAR
p535
sbag5
(g6
g7
(lp536
g5
(g6
g7
(lp537
Vin
p538
atp539
Rp540
(dp541
g16
VIN
p542
sbag5
(g6
g7
(lp543
g5
(g6
g7
(lp544
g5
(g6
g7
(lp545
Vthe
p546
atp547
Rp548
(dp549
g16
VDT
p550
sbag5
(g6
g7
(lp551
Vsecond
p552
atp553
Rp554
(dp555
g16
VJJ
p556
sbag5
(g6
g7
(lp557
Vtweet
p558
atp559
Rp560
(dp561
g16
VNN
p562
sbatp563
Rp564
(dp565
g16
VNP
p566
sbag5
(g6
g7
(lp567
g5
(g6
g7
(lp568
g5
(g6
g7
(lp569
Vwhen
p570
atp571
Rp572
(dp573
g16
VWRB
p574
sbatp575
Rp576
(dp577
g16
VWHADVP
p578
sbag5
(g6
g7
(lp579
g5
(g6
g7
(lp580
g5
(g6
g7
(lp581
Vpeople
p582
atp583
Rp584
(dp585
g16
VNNS
p586
sbatp587
Rp588
(dp589
g16
VNP
p590
sbag5
(g6
g7
(lp591
g5
(g6
g7
(lp592
Vare
p593
atp594
Rp595
(dp596
g16
VVBP
p597
sbag5
(g6
g7
(lp598
g5
(g6
g7
(lp599
Vtalking
p600
atp601
Rp602
(dp603
g16
VVBG
p604
sbag5
(g6
g7
(lp605
g5
(g6
g7
(lp606
Vabout
p607
atp608
Rp609
(dp610
g16
VIN
p611
sbag5
(g6
g7
(lp612
g5
(g6
g7
(lp613
g382
atp614
Rp615
(dp616
g16
VDT
p617
sbag5
(g6
g7
(lp618
Vfootball
p619
atp620
Rp621
(dp622
g16
VNN
p623
sbag5
(g6
g7
(lp624
Vgame
p625
atp626
Rp627
(dp628
g16
VNN
p629
sbatp630
Rp631
(dp632
g16
VNP
p633
sbatp634
Rp635
(dp636
g16
VPP
p637
sbatp638
Rp639
(dp640
g16
VVP
p641
sbatp642
Rp643
(dp644
g16
VVP
p645
sbatp646
Rp647
(dp648
g16
g193
sbatp649
Rp650
(dp651
g16
VSBAR
p652
sbatp653
Rp654
(dp655
g16
VNP
p656
sbatp657
Rp658
(dp659
g16
VPP
p660
sbatp661
Rp662
(dp663
g16
VNP
p664
sbatp665
Rp666
(dp667
g16
VSINV
p668
sbatp669
Rp670
(dp671
g16
VROOT
p672
sbasg198
(icmyPackage
CorE
p673
(dp674
g201
(lp675
(I0
I15
tp676
a(I0
I41
tp677
asg205
g5
(g6
g7
(lp678
g400
ag461
ag478
ag483
ag527
ag540
ag564
ag576
ag588
ag595
ag602
ag609
ag615
ag621
atp679
Rp680
(dp681
g16
g216
sbsbsg206
(icmyPackage
CorE
p682
(dp683
g201
(lp684
(I0
I1
tp685
a(I0
I13
tp686
asg205
g5
(g6
g7
(lp687
g325
ag337
ag356
ag363
ag370
atp688
Rp689
(dp690
g16
g216
sbsbsg217
(icmyPackage
pattern
p691
(dp692
g220
I26
sg221
I1
sg222
(lp693
(lp694
S'as'
p695
aasg227
(lp696
I3
aI1
aI1
asg229
(lp697
S'You do not need to worry about the operation, as the software is very easy to use.'
p698
asg232
I80
sg233
(lp699
(lp700
S'&R@Complete@'
p701
aS'(,)'
p702
aS'(-such/-same/-seem/-regard/-regards/-regarded/-view/-views/-viewed/-denote/-denoted/-denotes)'
p703
aa(lp704
S'(-if/-follow/-follows/-&adv)'
p705
aS'&C@Complete@'
p706
aasbsg242
(lp707
(isxpPackage
sxpSent
p708
(dp709
g246
(lp710
I1
asg248
VGenerally u'\u005cu201c' offensive u'\u005cu201d' is used as a negative word (as in the first tweet), but it bears no sentiment in the second tweet when people are talking about a football game
p711
sg250
I2
sg232
I20
sg251
I6
sbasba(icmyPackage
CELink
p712
(dp713
g3
(lp714
g5
(g6
g7
(lp715
g5
(g6
g7
(lp716
g5
(g6
g7
(lp717
g5
(g6
g7
(lp718
VThe
p719
atp720
Rp721
(dp722
g16
VDT
p723
sbag5
(g6
g7
(lp724
Vuniversal
p725
atp726
Rp727
(dp728
g16
VJJ
p729
sbag5
(g6
g7
(lp730
Vmodel
p731
atp732
Rp733
(dp734
g16
VNN
p735
sbatp736
Rp737
(dp738
g16
VNP
p739
sbag5
(g6
g7
(lp740
g5
(g6
g7
(lp741
g5
(g6
g7
(lp742
Vserves
p743
atp744
Rp745
(dp746
g16
VVBZ
p747
sbag5
(g6
g7
(lp748
g5
(g6
g7
(lp749
Vas
p750
atp751
Rp752
(dp753
g16
VIN
p754
sbag5
(g6
g7
(lp755
g5
(g6
g7
(lp756
g382
atp757
Rp758
(dp759
g16
VDT
p760
sbag5
(g6
g7
(lp761
Vstrong
p762
atp763
Rp764
(dp765
g16
VJJ
p766
sbag5
(g6
g7
(lp767
Vbaseline
p768
atp769
Rp770
(dp771
g16
VNN
p772
sbatp773
Rp774
(dp775
g16
VNP
p776
sbatp777
Rp778
(dp779
g16
VPP
p780
sbatp781
Rp782
(dp783
g16
VVP
p784
sbag5
(g6
g7
(lp785
Vand
p786
atp787
Rp788
(dp789
g16
VCC
p790
sbag5
(g6
g7
(lp791
g5
(g6
g7
(lp792
g5
(g6
g7
(lp793
Valso
p794
atp795
Rp796
(dp797
g16
VRB
p798
sbatp799
Rp800
(dp801
g16
VADVP
p802
sbag5
(g6
g7
(lp803
Vprovides
p804
atp805
Rp806
(dp807
g16
VVBZ
p808
sbag5
(g6
g7
(lp809
g5
(g6
g7
(lp810
Van
p811
atp812
Rp813
(dp814
g16
VDT
p815
sbag5
(g6
g7
(lp816
Voption
p817
atp818
Rp819
(dp820
g16
VNN
p821
sbatp822
Rp823
(dp824
g16
VNP
p825
sbag5
(g6
g7
(lp826
g5
(g6
g7
(lp827
Vfor
p828
atp829
Rp830
(dp831
g16
VIN
p832
sbag5
(g6
g7
(lp833
g5
(g6
g7
(lp834
g5
(g6
g7
(lp835
Vsmoothing
p836
atp837
Rp838
(dp839
g16
VVBG
p840
sbag5
(g6
g7
(lp841
g5
(g6
g7
(lp842
Vlater
p843
atp844
Rp845
(dp846
g16
VRB
p847
sbatp848
Rp849
(dp850
g16
VADVP
p851
sbatp852
Rp853
(dp854
g16
VVP
p855
sbatp856
Rp857
(dp858
g16
g193
sbatp859
Rp860
(dp861
g16
VPP
p862
sbatp863
Rp864
(dp865
g16
VVP
p866
sbatp867
Rp868
(dp869
g16
VVP
p870
sbatp871
Rp872
(dp873
g16
g193
sbatp874
Rp875
(dp876
g16
VROOT
p877
sbasg198
(icmyPackage
CorE
p878
(dp879
g201
(lp880
(I0
I14
tp881
a(I0
I15
tp882
asg205
g857
sbsg206
(icmyPackage
CorE
p883
(dp884
g201
(lp885
(I0
I0
tp886
a(I0
I12
tp887
asg205
g5
(g6
g7
(lp888
g737
ag782
ag788
ag800
ag806
ag823
atp889
Rp890
(dp891
g16
g216
sbsbsg217
(icmyPackage
pattern
p892
(dp893
g220
I25
sg221
I0
sg222
(lp894
(lp895
S'for'
p896
aasg227
(lp897
I2
aI1
aI1
asg229
(lp898
S'She was angry with him for being late.'
p899
asg232
I44
sg233
(lp900
(lp901
S'&R'
p902
aa(lp903
S'&V-ing@C@'
p904
aasbsg242
(lp905
(isxpPackage
sxpSent
p906
(dp907
g246
(lp908
I2
asg248
VThe universal model serves as a strong baseline and also provides an option for smoothing later
p909
sg250
I2
sg232
I34
sg251
I9
sbasba(icmyPackage
CELink
p910
(dp911
g3
(lp912
g5
(g6
g7
(lp913
g5
(g6
g7
(lp914
g5
(g6
g7
(lp915
g5
(g6
g7
(lp916
VWe
p917
atp918
Rp919
(dp920
g16
VPRP
p921
sbatp922
Rp923
(dp924
g16
VNP
p925
sbag5
(g6
g7
(lp926
g5
(g6
g7
(lp927
g5
(g6
g7
(lp928
Valso
p929
atp930
Rp931
(dp932
g16
VRB
p933
sbatp934
Rp935
(dp936
g16
VADVP
p937
sbag5
(g6
g7
(lp938
Vcompare
p939
atp940
Rp941
(dp942
g16
VVBP
p943
sbag5
(g6
g7
(lp944
g5
(g6
g7
(lp945
g5
(g6
g7
(lp946
Vdifferent
p947
atp948
Rp949
(dp950
g16
VJJ
p951
sbag5
(g6
g7
(lp952
Vapproaches
p953
atp954
Rp955
(dp956
g16
VNNS
p957
sbatp958
Rp959
(dp960
g16
VNP
p961
sbag5
(g6
g7
(lp962
g5
(g6
g7
(lp963
Vfor
p964
atp965
Rp966
(dp967
g16
VIN
p968
sbag5
(g6
g7
(lp969
g5
(g6
g7
(lp970
Vtopic
p971
atp972
Rp973
(dp974
g16
VNN
p975
sbag5
(g6
g7
(lp976
Vmodeling
p977
atp978
Rp979
(dp980
g16
VNN
p981
sbatp982
Rp983
(dp984
g16
VNP
p985
sbatp986
Rp987
(dp988
g16
VPP
p989
sbag5
(g6
g7
(lp990
g476
atp991
Rp992
(dp993
g16
g476
sbag5
(g6
g7
(lp994
g5
(g6
g7
(lp995
Vsuch
p996
atp997
Rp998
(dp999
g16
VJJ
p1000
sbag5
(g6
g7
(lp1001
Vas
p1002
atp1003
Rp1004
(dp1005
g16
VIN
p1006
sbag5
(g6
g7
(lp1007
g5
(g6
g7
(lp1008
g5
(g6
g7
(lp1009
Vcross-domain
p1010
atp1011
Rp1012
(dp1013
g16
VJJ
p1014
sbag5
(g6
g7
(lp1015
Vtopic
p1016
atp1017
Rp1018
(dp1019
g16
VNN
p1020
sbag5
(g6
g7
(lp1021
Videntification
p1022
atp1023
Rp1024
(dp1025
g16
VNN
p1026
sbatp1027
Rp1028
(dp1029
g16
VNP
p1030
sbag5
(g6
g7
(lp1031
g5
(g6
g7
(lp1032
Vby
p1033
atp1034
Rp1035
(dp1036
g16
VIN
p1037
sbag5
(g6
g7
(lp1038
g5
(g6
g7
(lp1039
g5
(g6
g7
(lp1040
Vutilizing
p1041
atp1042
Rp1043
(dp1044
g16
VVBG
p1045
sbag5
(g6
g7
(lp1046
g5
(g6
g7
(lp1047
Vdata
p1048
atp1049
Rp1050
(dp1051
g16
VNNS
p1052
sbatp1053
Rp1054
(dp1055
g16
VNP
p1056
sbag5
(g6
g7
(lp1057
g5
(g6
g7
(lp1058
Vfrom
p1059
atp1060
Rp1061
(dp1062
g16
VIN
p1063
sbag5
(g6
g7
(lp1064
g5
(g6
g7
(lp1065
Vnewswire
p1066
atp1067
Rp1068
(dp1069
g16
VNN
p1070
sbag5
(g6
g7
(lp1071
Vdomain
p1072
atp1073
Rp1074
(dp1075
g16
VNN
p1076
sbatp1077
Rp1078
(dp1079
g16
VNP
p1080
sbatp1081
Rp1082
(dp1083
g16
VPP
p1084
sbatp1085
Rp1086
(dp1087
g16
VVP
p1088
sbatp1089
Rp1090
(dp1091
g16
g193
sbatp1092
Rp1093
(dp1094
g16
VPP
p1095
sbatp1096
Rp1097
(dp1098
g16
VNP
p1099
sbatp1100
Rp1101
(dp1102
g16
VPP
p1103
sbatp1104
Rp1105
(dp1106
g16
VNP
p1107
sbatp1108
Rp1109
(dp1110
g16
VVP
p1111
sbatp1112
Rp1113
(dp1114
g16
g193
sbatp1115
Rp1116
(dp1117
g16
VROOT
p1118
sbasg198
(icmyPackage
CorE
p1119
(dp1120
g201
(lp1121
(I0
I15
tp1122
a(I0
I19
tp1123
asg205
g1090
sbsg206
(icmyPackage
CorE
p1124
(dp1125
g201
(lp1126
(I0
I0
tp1127
a(I0
I13
tp1128
asg205
g5
(g6
g7
(lp1129
g923
ag935
ag941
ag959
ag987
ag992
ag998
ag1004
ag1028
atp1130
Rp1131
(dp1132
g16
g216
sbsbsg217
(icmyPackage
pattern
p1133
(dp1134
g220
I0
sg221
I0
sg222
(lp1135
(lp1136
(lp1137
S'by'
p1138
aS'through'
p1139
aaasg227
(lp1140
I2
aI1
aI1
asg229
(lp1141
S'The similar relation can be detected by analyzing the contents of nodes based on such approaches as the Latent Semantic Analysis (LSA) and the Vector Space Model (VSM)'
p1142
asg232
I68
sg233
(lp1143
(lp1144
S'&R@Complete@'
p1145
aa(lp1146
S'&V-ing@C@'
p1147
aasbsg242
(lp1148
(isxpPackage
sxpSent
p1149
(dp1150
g246
(lp1151
I3
asg248
VWe also compare different approaches for topic modeling, such as cross-domain topic identification by utilizing data from newswire domain
p1152
sg250
I2
sg232
I39
sg251
I12
sbasba(icmyPackage
CELink
p1153
(dp1154
g3
(lp1155
g5
(g6
g7
(lp1156
g5
(g6
g7
(lp1157
g5
(g6
g7
(lp1158
g5
(g6
g7
(lp1159
VAn
p1160
atp1161
Rp1162
(dp1163
g16
VDT
p1164
sbag5
(g6
g7
(lp1165
VSVM
p1166
atp1167
Rp1168
(dp1169
g16
VNNP
p1170
sbag5
(g6
g7
(lp1171
Vmodel
p1172
atp1173
Rp1174
(dp1175
g16
VNN
p1176
sbatp1177
Rp1178
(dp1179
g16
VNP
p1180
sbag5
(g6
g7
(lp1181
g5
(g6
g7
(lp1182
Vrepresents
p1183
atp1184
Rp1185
(dp1186
g16
VVBZ
p1187
sbag5
(g6
g7
(lp1188
g5
(g6
g7
(lp1189
Vthe
p1190
atp1191
Rp1192
(dp1193
g16
VDT
p1194
sbag5
(g6
g7
(lp1195
Vexamples
p1196
atp1197
Rp1198
(dp1199
g16
VNNS
p1200
sbatp1201
Rp1202
(dp1203
g16
VNP
p1204
sbag5
(g6
g7
(lp1205
g5
(g6
g7
(lp1206
Vas
p1207
atp1208
Rp1209
(dp1210
g16
VIN
p1211
sbag5
(g6
g7
(lp1212
g5
(g6
g7
(lp1213
g5
(g6
g7
(lp1214
Vpoints
p1215
atp1216
Rp1217
(dp1218
g16
VNNS
p1219
sbatp1220
Rp1221
(dp1222
g16
VNP
p1223
sbag5
(g6
g7
(lp1224
g5
(g6
g7
(lp1225
Vin
p1226
atp1227
Rp1228
(dp1229
g16
VIN
p1230
sbag5
(g6
g7
(lp1231
g5
(g6
g7
(lp1232
Vspace
p1233
atp1234
Rp1235
(dp1236
g16
VNN
p1237
sbatp1238
Rp1239
(dp1240
g16
VNP
p1241
sbatp1242
Rp1243
(dp1244
g16
VPP
p1245
sbag5
(g6
g7
(lp1246
g476
atp1247
Rp1248
(dp1249
g16
g476
sbag5
(g6
g7
(lp1250
g5
(g6
g7
(lp1251
Vmapped
p1252
atp1253
Rp1254
(dp1255
g16
VVBN
p1256
sbag5
(g6
g7
(lp1257
g5
(g6
g7
(lp1258
Vso
p1259
atp1260
Rp1261
(dp1262
g16
VRB
p1263
sbag5
(g6
g7
(lp1264
Vthat
p1265
atp1266
Rp1267
(dp1268
g16
VIN
p1269
sbag5
(g6
g7
(lp1270
g5
(g6
g7
(lp1271
g5
(g6
g7
(lp1272
g5
(g6
g7
(lp1273
Vthe
p1274
atp1275
Rp1276
(dp1277
g16
VDT
p1278
sbag5
(g6
g7
(lp1279
Vexamples
p1280
atp1281
Rp1282
(dp1283
g16
VNNS
p1284
sbatp1285
Rp1286
(dp1287
g16
VNP
p1288
sbag5
(g6
g7
(lp1289
g5
(g6
g7
(lp1290
Vof
p1291
atp1292
Rp1293
(dp1294
g16
VIN
p1295
sbag5
(g6
g7
(lp1296
g5
(g6
g7
(lp1297
Vthe
p1298
atp1299
Rp1300
(dp1301
g16
VDT
p1302
sbag5
(g6
g7
(lp1303
Vdifferent
p1304
atp1305
Rp1306
(dp1307
g16
VJJ
p1308
sbag5
(g6
g7
(lp1309
Vcategories
p1310
atp1311
Rp1312
(dp1313
g16
VNNS
p1314
sbatp1315
Rp1316
(dp1317
g16
VNP
p1318
sbatp1319
Rp1320
(dp1321
g16
VPP
p1322
sbatp1323
Rp1324
(dp1325
g16
VNP
p1326
sbag5
(g6
g7
(lp1327
g5
(g6
g7
(lp1328
Vare
p1329
atp1330
Rp1331
(dp1332
g16
VVBP
p1333
sbag5
(g6
g7
(lp1334
g5
(g6
g7
(lp1335
Vseparated
p1336
atp1337
Rp1338
(dp1339
g16
VVBN
p1340
sbag5
(g6
g7
(lp1341
g5
(g6
g7
(lp1342
Vby
p1343
atp1344
Rp1345
(dp1346
g16
VIN
p1347
sbag5
(g6
g7
(lp1348
g5
(g6
g7
(lp1349
g5
(g6
g7
(lp1350
g382
atp1351
Rp1352
(dp1353
g16
VDT
p1354
sbag5
(g6
g7
(lp1355
Vclear
p1356
atp1357
Rp1358
(dp1359
g16
VJJ
p1360
sbag5
(g6
g7
(lp1361
Vmargin
p1362
atp1363
Rp1364
(dp1365
g16
VNN
p1366
sbatp1367
Rp1368
(dp1369
g16
VNP
p1370
sbag5
(g6
g7
(lp1371
g5
(g6
g7
(lp1372
Vas
p1373
atp1374
Rp1375
(dp1376
g16
VRB
p1377
sbag5
(g6
g7
(lp1378
Vwide
p1379
atp1380
Rp1381
(dp1382
g16
VJJ
p1383
sbatp1384
Rp1385
(dp1386
g16
VADJP
p1387
sbatp1388
Rp1389
(dp1390
g16
VNP
p1391
sbatp1392
Rp1393
(dp1394
g16
VPP
p1395
sbatp1396
Rp1397
(dp1398
g16
VVP
p1399
sbatp1400
Rp1401
(dp1402
g16
VVP
p1403
sbatp1404
Rp1405
(dp1406
g16
g193
sbatp1407
Rp1408
(dp1409
g16
VSBAR
p1410
sbatp1411
Rp1412
(dp1413
g16
VVP
p1414
sbag5
(g6
g7
(lp1415
g5
(g6
g7
(lp1416
Vas
p1417
atp1418
Rp1419
(dp1420
g16
VRB
p1421
sbag5
(g6
g7
(lp1422
Vpossible
p1423
atp1424
Rp1425
(dp1426
g16
VJJ
p1427
sbatp1428
Rp1429
(dp1430
g16
VADJP
p1431
sbatp1432
Rp1433
(dp1434
g16
VNP
p1435
sbatp1436
Rp1437
(dp1438
g16
VPP
p1439
sbatp1440
Rp1441
(dp1442
g16
VVP
p1443
sbatp1444
Rp1445
(dp1446
g16
g193
sbatp1447
Rp1448
(dp1449
g16
VROOT
p1450
sbasg198
(icmyPackage
CorE
p1451
(dp1452
g201
(lp1453
(I0
I0
tp1454
a(I0
I11
tp1455
asg205
g5
(g6
g7
(lp1456
g1178
ag1185
ag1202
ag1209
ag1221
ag1243
ag1248
ag1254
atp1457
Rp1458
(dp1459
g16
g216
sbsbsg206
(icmyPackage
CorE
p1460
(dp1461
g201
(lp1462
(I0
I14
tp1463
a(I0
I27
tp1464
asg205
g1405
sbsg217
(icmyPackage
pattern
p1465
(dp1466
g220
I45
sg221
I0
sg222
(lp1467
(lp1468
S'so'
p1469
aS'that'
p1470
aasg227
(lp1471
I3
aI1
aI1
asg229
(lp1472
S'The teacher then decided to ask him some very easy questions so that he could get a few right.'
p1473
asg232
I77
sg233
(lp1474
(lp1475
S'&C'
p1476
aa(lp1477
S'&R'
p1478
aasbsg242
(lp1479
(isxpPackage
sxpSent
p1480
(dp1481
g246
(lp1482
I4
asg248
VAn SVM model represents the examples as points in space, mapped so that the examples of the different categories are separated by a clear margin as wide as possible
p1483
sg250
I4
sg232
I43
sg251
I14
sbasba(icmyPackage
CELink
p1484
(dp1485
g3
(lp1486
g5
(g6
g7
(lp1487
g5
(g6
g7
(lp1488
g5
(g6
g7
(lp1489
g5
(g6
g7
(lp1490
g5
(g6
g7
(lp1491
VThe
p1492
atp1493
Rp1494
(dp1495
g16
VDT
p1496
sbag5
(g6
g7
(lp1497
Voption
p1498
atp1499
Rp1500
(dp1501
g16
VNN
p1502
sbatp1503
Rp1504
(dp1505
g16
VNP
p1506
sbag5
(g6
g7
(lp1507
g5
(g6
g7
(lp1508
Vof
p1509
atp1510
Rp1511
(dp1512
g16
VIN
p1513
sbag5
(g6
g7
(lp1514
g5
(g6
g7
(lp1515
g5
(g6
g7
(lp1516
Vprobability
p1517
atp1518
Rp1519
(dp1520
g16
VNN
p1521
sbag5
(g6
g7
(lp1522
Vestimation
p1523
atp1524
Rp1525
(dp1526
g16
VNN
p1527
sbatp1528
Rp1529
(dp1530
g16
VNP
p1531
sbag5
(g6
g7
(lp1532
g5
(g6
g7
(lp1533
Vin
p1534
atp1535
Rp1536
(dp1537
g16
VIN
p1538
sbag5
(g6
g7
(lp1539
g5
(g6
g7
(lp1540
VLibSVM
p1541
atp1542
Rp1543
(dp1544
g16
VNNP
p1545
sbatp1546
Rp1547
(dp1548
g16
VNP
p1549
sbatp1550
Rp1551
(dp1552
g16
VPP
p1553
sbatp1554
Rp1555
(dp1556
g16
VNP
p1557
sbatp1558
Rp1559
(dp1560
g16
VPP
p1561
sbatp1562
Rp1563
(dp1564
g16
VNP
p1565
sbag5
(g6
g7
(lp1566
g5
(g6
g7
(lp1567
Vis
p1568
atp1569
Rp1570
(dp1571
g16
VVBZ
p1572
sbag5
(g6
g7
(lp1573
g5
(g6
g7
(lp1574
Vturned
p1575
atp1576
Rp1577
(dp1578
g16
VVBN
p1579
sbag5
(g6
g7
(lp1580
g5
(g6
g7
(lp1581
Von
p1582
atp1583
Rp1584
(dp1585
g16
VRP
p1586
sbatp1587
Rp1588
(dp1589
g16
VPRT
p1590
sbag5
(g6
g7
(lp1591
g5
(g6
g7
(lp1592
Vso
p1593
atp1594
Rp1595
(dp1596
g16
VRB
p1597
sbatp1598
Rp1599
(dp1600
g16
VADVP
p1601
sbag5
(g6
g7
(lp1602
g5
(g6
g7
(lp1603
Vthat
p1604
atp1605
Rp1606
(dp1607
g16
VIN
p1608
sbag5
(g6
g7
(lp1609
g5
(g6
g7
(lp1610
g5
(g6
g7
(lp1611
Vit
p1612
atp1613
Rp1614
(dp1615
g16
VPRP
p1616
sbatp1617
Rp1618
(dp1619
g16
VNP
p1620
sbag5
(g6
g7
(lp1621
g5
(g6
g7
(lp1622
Vcan
p1623
atp1624
Rp1625
(dp1626
g16
VMD
p1627
sbag5
(g6
g7
(lp1628
g5
(g6
g7
(lp1629
Vproduce
p1630
atp1631
Rp1632
(dp1633
g16
VVB
p1634
sbag5
(g6
g7
(lp1635
g5
(g6
g7
(lp1636
g5
(g6
g7
(lp1637
g5
(g6
g7
(lp1638
g5
(g6
g7
(lp1639
Vthe
p1640
atp1641
Rp1642
(dp1643
g16
VDT
p1644
sbag5
(g6
g7
(lp1645
Vprobability
p1646
atp1647
Rp1648
(dp1649
g16
VNN
p1650
sbatp1651
Rp1652
(dp1653
g16
VNP
p1654
sbag5
(g6
g7
(lp1655
g5
(g6
g7
(lp1656
Vof
p1657
atp1658
Rp1659
(dp1660
g16
VIN
p1661
sbag5
(g6
g7
(lp1662
g5
(g6
g7
(lp1663
Vsentiment
p1664
atp1665
Rp1666
(dp1667
g16
VNN
p1668
sbag5
(g6
g7
(lp1669
Vclass
p1670
atp1671
Rp1672
(dp1673
g16
VNN
p1674
sbatp1675
Rp1676
(dp1677
g16
VNP
p1678
sbatp1679
Rp1680
(dp1681
g16
VPP
p1682
sbag5
(g6
g7
(lp1683
g5
(g6
g7
(lp1684
Vc
p1685
atp1686
Rp1687
(dp1688
g16
VSYM
p1689
sbatp1690
Rp1691
(dp1692
g16
VX
p1693
sbatp1694
Rp1695
(dp1696
g16
VNP
p1697
sbag5
(g6
g7
(lp1698
g5
(g6
g7
(lp1699
Vgiven
p1700
atp1701
Rp1702
(dp1703
g16
VVBN
p1704
sbag5
(g6
g7
(lp1705
g5
(g6
g7
(lp1706
g5
(g6
g7
(lp1707
g5
(g6
g7
(lp1708
g5
(g6
g7
(lp1709
Vtweet
p1710
atp1711
Rp1712
(dp1713
g16
VVB
p1714
sbag5
(g6
g7
(lp1715
g5
(g6
g7
(lp1716
g5
(g6
g7
(lp1717
Vx
p1718
atp1719
Rp1720
(dp1721
g16
VSYM
p1722
sbatp1723
Rp1724
(dp1725
g16
VNP
p1726
sbag5
(g6
g7
(lp1727
g5
(g6
g7
(lp1728
Vat
p1729
atp1730
Rp1731
(dp1732
g16
VIN
p1733
sbag5
(g6
g7
(lp1734
g5
(g6
g7
(lp1735
Vthe
p1736
atp1737
Rp1738
(dp1739
g16
VDT
p1740
sbag5
(g6
g7
(lp1741
Vclassification
p1742
atp1743
Rp1744
(dp1745
g16
VNN
p1746
sbag5
(g6
g7
(lp1747
Vtime
p1748
atp1749
Rp1750
(dp1751
g16
VNN
p1752
sbatp1753
Rp1754
(dp1755
g16
VNP
p1756
sbatp1757
Rp1758
(dp1759
g16
VPP
p1760
sbatp1761
Rp1762
(dp1763
g16
VNP
p1764
sbatp1765
Rp1766
(dp1767
g16
VVP
p1768
sbatp1769
Rp1770
(dp1771
g16
g193
sbag5
(g6
g7
(lp1772
g476
atp1773
Rp1774
(dp1775
g16
g476
sbag5
(g6
g7
(lp1776
Vi.e.
p1777
atp1778
Rp1779
(dp1780
g16
VFW
p1781
sbag5
(g6
g7
(lp1782
g476
atp1783
Rp1784
(dp1785
g16
g476
sbag5
(g6
g7
(lp1786
g5
(g6
g7
(lp1787
g5
(g6
g7
(lp1788
VP
p1789
atp1790
Rp1791
(dp1792
g16
VVB
p1793
sbatp1794
Rp1795
(dp1796
g16
VVP
p1797
sbatp1798
Rp1799
(dp1800
g16
g193
sbatp1801
Rp1802
(dp1803
g16
g193
sbatp1804
Rp1805
(dp1806
g16
VNP
p1807
sbatp1808
Rp1809
(dp1810
g16
VVP
p1811
sbatp1812
Rp1813
(dp1814
g16
VNP
p1815
sbag5
(g6
g7
(lp1816
g5
(g6
g7
(lp1817
V-LRB-
p1818
atp1819
Rp1820
(dp1821
g16
V-LRB-
p1822
sbag5
(g6
g7
(lp1823
g5
(g6
g7
(lp1824
g5
(g6
g7
(lp1825
g1685
atp1826
Rp1827
(dp1828
g16
VSYM
p1829
sbatp1830
Rp1831
(dp1832
g16
g1693
sbag5
(g6
g7
(lp1833
g5
(g6
g7
(lp1834
g1718
atp1835
Rp1836
(dp1837
g16
VSYM
p1838
sbatp1839
Rp1840
(dp1841
g16
VNP
p1842
sbatp1843
Rp1844
(dp1845
g16
g1693
sbag5
(g6
g7
(lp1846
V-RRB-
p1847
atp1848
Rp1849
(dp1850
g16
V-RRB-
p1851
sbatp1852
Rp1853
(dp1854
g16
VPRN
p1855
sbatp1856
Rp1857
(dp1858
g16
VNP
p1859
sbatp1860
Rp1861
(dp1862
g16
VVP
p1863
sbatp1864
Rp1865
(dp1866
g16
VVP
p1867
sbatp1868
Rp1869
(dp1870
g16
g193
sbatp1871
Rp1872
(dp1873
g16
VSBAR
p1874
sbatp1875
Rp1876
(dp1877
g16
VVP
p1878
sbatp1879
Rp1880
(dp1881
g16
VVP
p1882
sbatp1883
Rp1884
(dp1885
g16
g193
sbatp1886
Rp1887
(dp1888
g16
VROOT
p1889
sbasg198
(icmyPackage
CorE
p1890
(dp1891
g201
(lp1892
(I0
I0
tp1893
a(I0
I9
tp1894
asg205
g5
(g6
g7
(lp1895
g1563
ag1570
ag1577
ag1588
atp1896
Rp1897
(dp1898
g16
g216
sbsbsg206
(icmyPackage
CorE
p1899
(dp1900
g201
(lp1901
(I0
I12
tp1902
a(I0
I35
tp1903
asg205
g1869
sbsg217
g1465
sg242
(lp1904
(isxpPackage
sxpSent
p1905
(dp1906
g246
(lp1907
I5
asg248
VThe option of probability estimation in LibSVM is turned on so that it can produce the probability of sentiment class c given tweet x at the classification time, i.e., P ( c x )
p1908
sg250
I4
sg232
I46
sg251
I14
sbasba(icmyPackage
CELink
p1909
(dp1910
g3
(lp1911
g5
(g6
g7
(lp1912
g5
(g6
g7
(lp1913
g5
(g6
g7
(lp1914
g5
(g6
g7
(lp1915
VWe
p1916
atp1917
Rp1918
(dp1919
g16
VPRP
p1920
sbatp1921
Rp1922
(dp1923
g16
VNP
p1924
sbag5
(g6
g7
(lp1925
g5
(g6
g7
(lp1926
Vgenerate
p1927
atp1928
Rp1929
(dp1930
g16
VVBP
p1931
sbag5
(g6
g7
(lp1932
g5
(g6
g7
(lp1933
Vtwo
p1934
atp1935
Rp1936
(dp1937
g16
VCD
p1938
sbag5
(g6
g7
(lp1939
Vfeatures
p1940
atp1941
Rp1942
(dp1943
g16
VNNS
p1944
sbatp1945
Rp1946
(dp1947
g16
VNP
p1948
sbag5
(g6
g7
(lp1949
g5
(g6
g7
(lp1950
Vbased
p1951
atp1952
Rp1953
(dp1954
g16
VVBN
p1955
sbag5
(g6
g7
(lp1956
g5
(g6
g7
(lp1957
Von
p1958
atp1959
Rp1960
(dp1961
g16
VIN
p1962
sbag5
(g6
g7
(lp1963
g5
(g6
g7
(lp1964
g5
(g6
g7
(lp1965
g5
(g6
g7
(lp1966
Vthe
p1967
atp1968
Rp1969
(dp1970
g16
VDT
p1971
sbag5
(g6
g7
(lp1972
Vlexicons
p1973
atp1974
Rp1975
(dp1976
g16
VJJ
p1977
sbag5
(g6
g7
(lp1978
Vtotal
p1979
atp1980
Rp1981
(dp1982
g16
VJJ
p1983
sbag5
(g6
g7
(lp1984
Vnumber
p1985
atp1986
Rp1987
(dp1988
g16
VNN
p1989
sbatp1990
Rp1991
(dp1992
g16
VNP
p1993
sbag5
(g6
g7
(lp1994
g5
(g6
g7
(lp1995
Vof
p1996
atp1997
Rp1998
(dp1999
g16
VIN
p2000
sbag5
(g6
g7
(lp2001
g5
(g6
g7
(lp2002
Vpositive
p2003
atp2004
Rp2005
(dp2006
g16
VJJ
p2007
sbag5
(g6
g7
(lp2008
Vwords
p2009
atp2010
Rp2011
(dp2012
g16
VNNS
p2013
sbatp2014
Rp2015
(dp2016
g16
VNP
p2017
sbatp2018
Rp2019
(dp2020
g16
VPP
p2021
sbatp2022
Rp2023
(dp2024
g16
VNP
p2025
sbag5
(g6
g7
(lp2026
Vor
p2027
atp2028
Rp2029
(dp2030
g16
VCC
p2031
sbag5
(g6
g7
(lp2032
g5
(g6
g7
(lp2033
g5
(g6
g7
(lp2034
Vnegative
p2035
atp2036
Rp2037
(dp2038
g16
VJJ
p2039
sbag5
(g6
g7
(lp2040
Vwords
p2041
atp2042
Rp2043
(dp2044
g16
VNNS
p2045
sbatp2046
Rp2047
(dp2048
g16
VNP
p2049
sbag5
(g6
g7
(lp2050
g5
(g6
g7
(lp2051
Vfound
p2052
atp2053
Rp2054
(dp2055
g16
VVBN
p2056
sbag5
(g6
g7
(lp2057
g5
(g6
g7
(lp2058
Vin
p2059
atp2060
Rp2061
(dp2062
g16
VIN
p2063
sbag5
(g6
g7
(lp2064
g5
(g6
g7
(lp2065
Veach
p2066
atp2067
Rp2068
(dp2069
g16
VDT
p2070
sbag5
(g6
g7
(lp2071
Vtweet
p2072
atp2073
Rp2074
(dp2075
g16
VNN
p2076
sbatp2077
Rp2078
(dp2079
g16
VNP
p2080
sbatp2081
Rp2082
(dp2083
g16
VPP
p2084
sbatp2085
Rp2086
(dp2087
g16
VVP
p2088
sbatp2089
Rp2090
(dp2091
g16
VNP
p2092
sbatp2093
Rp2094
(dp2095
g16
VNP
p2096
sbatp2097
Rp2098
(dp2099
g16
VPP
p2100
sbatp2101
Rp2102
(dp2103
g16
VPP
p2104
sbatp2105
Rp2106
(dp2107
g16
VVP
p2108
sbatp2109
Rp2110
(dp2111
g16
g193
sbatp2112
Rp2113
(dp2114
g16
VROOT
p2115
sbasg198
(icmyPackage
CorE
p2116
(dp2117
g201
(lp2118
(I0
I6
tp2119
a(I0
I19
tp2120
asg205
g2094
sbsg206
(icmyPackage
CorE
p2121
(dp2122
g201
(lp2123
(I0
I0
tp2124
a(I0
I3
tp2125
asg205
g5
(g6
g7
(lp2126
g1922
ag1929
ag1946
atp2127
Rp2128
(dp2129
g16
g216
sbsbsg217
g218
sg242
(lp2130
(isxpPackage
sxpSent
p2131
(dp2132
g246
(lp2133
I6
asg248
VWe generate two features based on the lexicons total number of positive words or negative words found in each tweet
p2134
sg250
I5
sg232
I56
sg251
I17
sbasba(icmyPackage
CELink
p2135
(dp2136
g3
(lp2137
g5
(g6
g7
(lp2138
g5
(g6
g7
(lp2139
g5
(g6
g7
(lp2140
g5
(g6
g7
(lp2141
VIf
p2142
atp2143
Rp2144
(dp2145
g16
VIN
p2146
sbag5
(g6
g7
(lp2147
g5
(g6
g7
(lp2148
g5
(g6
g7
(lp2149
Vthe
p2150
atp2151
Rp2152
(dp2153
g16
VDT
p2154
sbag5
(g6
g7
(lp2155
Vlast
p2156
atp2157
Rp2158
(dp2159
g16
VJJ
p2160
sbag5
(g6
g7
(lp2161
Vsentiment
p2162
atp2163
Rp2164
(dp2165
g16
VNN
p2166
sbag5
(g6
g7
(lp2167
Vword
p2168
atp2169
Rp2170
(dp2171
g16
VNN
p2172
sbatp2173
Rp2174
(dp2175
g16
VNP
p2176
sbag5
(g6
g7
(lp2177
g5
(g6
g7
(lp2178
Vfound
p2179
atp2180
Rp2181
(dp2182
g16
VVBD
p2183
sbag5
(g6
g7
(lp2184
g5
(g6
g7
(lp2185
Vin
p2186
atp2187
Rp2188
(dp2189
g16
VIN
p2190
sbag5
(g6
g7
(lp2191
g5
(g6
g7
(lp2192
g5
(g6
g7
(lp2193
g5
(g6
g7
(lp2194
Vthe
p2195
atp2196
Rp2197
(dp2198
g16
VDT
p2199
sbag5
(g6
g7
(lp2200
Vtweet
p2201
atp2202
Rp2203
(dp2204
g16
VNN
p2205
sbatp2206
Rp2207
(dp2208
g16
VNP
p2209
sbag5
(g6
g7
(lp2210
g5
(g6
g7
(lp2211
g5
(g6
g7
(lp2212
g5
(g6
g7
(lp2213
Vis
p2214
atp2215
Rp2216
(dp2217
g16
VVBZ
p2218
sbag5
(g6
g7
(lp2219
g5
(g6
g7
(lp2220
Vpositive
p2221
atp2222
Rp2223
(dp2224
g16
VJJ
p2225
sbatp2226
Rp2227
(dp2228
g16
VADJP
p2229
sbatp2230
Rp2231
(dp2232
g16
VVP
p2233
sbatp2234
Rp2235
(dp2236
g16
g193
sbatp2237
Rp2238
(dp2239
g16
VSBAR
p2240
sbatp2241
Rp2242
(dp2243
g16
VNP
p2244
sbag5
(g6
g7
(lp2245
g5
(g6
g7
(lp2246
V-LRB-
p2247
atp2248
Rp2249
(dp2250
g16
V-LRB-
p2251
sbag5
(g6
g7
(lp2252
Vor
p2253
atp2254
Rp2255
(dp2256
g16
VCC
p2257
sbag5
(g6
g7
(lp2258
g5
(g6
g7
(lp2259
Vnegative
p2260
atp2261
Rp2262
(dp2263
g16
VJJ
p2264
sbatp2265
Rp2266
(dp2267
g16
VADJP
p2268
sbag5
(g6
g7
(lp2269
V-RRB-
p2270
atp2271
Rp2272
(dp2273
g16
V-RRB-
p2274
sbatp2275
Rp2276
(dp2277
g16
VPRN
p2278
sbatp2279
Rp2280
(dp2281
g16
VNP
p2282
sbatp2283
Rp2284
(dp2285
g16
VPP
p2286
sbatp2287
Rp2288
(dp2289
g16
VVP
p2290
sbatp2291
Rp2292
(dp2293
g16
g193
sbatp2294
Rp2295
(dp2296
g16
VSBAR
p2297
sbag5
(g6
g7
(lp2298
g476
atp2299
Rp2300
(dp2301
g16
g476
sbag5
(g6
g7
(lp2302
g5
(g6
g7
(lp2303
Vthis
p2304
atp2305
Rp2306
(dp2307
g16
VDT
p2308
sbag5
(g6
g7
(lp2309
Vfeature
p2310
atp2311
Rp2312
(dp2313
g16
VNN
p2314
sbatp2315
Rp2316
(dp2317
g16
VNP
p2318
sbag5
(g6
g7
(lp2319
g5
(g6
g7
(lp2320
Vis
p2321
atp2322
Rp2323
(dp2324
g16
VVBZ
p2325
sbag5
(g6
g7
(lp2326
g5
(g6
g7
(lp2327
Vset
p2328
atp2329
Rp2330
(dp2331
g16
VVBN
p2332
sbag5
(g6
g7
(lp2333
g5
(g6
g7
(lp2334
Vto
p2335
atp2336
Rp2337
(dp2338
g16
VTO
p2339
sbag5
(g6
g7
(lp2340
g5
(g6
g7
(lp2341
V1
p2342
atp2343
Rp2344
(dp2345
g16
VCD
p2346
sbatp2347
Rp2348
(dp2349
g16
VNP
p2350
sbatp2351
Rp2352
(dp2353
g16
VPP
p2354
sbag5
(g6
g7
(lp2355
g5
(g6
g7
(lp2356
V-LRB-
p2357
atp2358
Rp2359
(dp2360
g16
V-LRB-
p2361
sbag5
(g6
g7
(lp2362
Vor
p2363
atp2364
Rp2365
(dp2366
g16
VCC
p2367
sbag5
(g6
g7
(lp2368
g5
(g6
g7
(lp2369
V-1
p2370
atp2371
Rp2372
(dp2373
g16
VVBZ
p2374
sbatp2375
Rp2376
(dp2377
g16
VVP
p2378
sbatp2379
Rp2380
(dp2381
g16
VPRN
p2382
sbatp2383
Rp2384
(dp2385
g16
VVP
p2386
sbatp2387
Rp2388
(dp2389
g16
VVP
p2390
sbatp2391
Rp2392
(dp2393
g16
g193
sbatp2394
Rp2395
(dp2396
g16
VROOT
p2397
sbasg198
(icmyPackage
CorE
p2398
(dp2399
g201
(lp2400
(I0
I1
tp2401
a(I0
I14
tp2402
asg205
g2292
sbsg206
(icmyPackage
CorE
p2403
(dp2404
g201
(lp2405
(I0
I16
tp2406
a(I0
I24
tp2407
asg205
g5
(g6
g7
(lp2408
g2316
ag2388
atp2409
Rp2410
(dp2411
g16
g216
sbsbsg217
(icmyPackage
pattern
p2412
(dp2413
g220
I0
sg221
I0
sg222
(lp2414
(lp2415
(lp2416
S'if'
p2417
aS'once'
p2418
aaa(lp2419
S','
p2420
aasg227
(lp2421
I1
aI1
aI1
asg229
(lp2422
S'If some light and mobile detection devices can be invented in the future, many new applications can be imagined, for example, people can get some services while thinking.'
p2423
asg232
I15
sg233
(lp2424
(lp2425
a(lp2426
S'&C@Complete@'
p2427
aa(lp2428
S'&R@Complete@'
p2429
aasbsg242
(lp2430
(isxpPackage
sxpSent
p2431
(dp2432
g246
(lp2433
I7
asg248
VIf the last sentiment word found in the tweet is positive (or negative), this feature is set to 1 (or -1
p2434
sg250
I5
sg232
I61
sg251
I19
sbasba(icmyPackage
CELink
p2435
(dp2436
g3
(lp2437
g5
(g6
g7
(lp2438
g5
(g6
g7
(lp2439
g5
(g6
g7
(lp2440
g5
(g6
g7
(lp2441
VIf
p2442
atp2443
Rp2444
(dp2445
g16
VIN
p2446
sbag5
(g6
g7
(lp2447
g5
(g6
g7
(lp2448
g5
(g6
g7
(lp2449
g5
(g6
g7
(lp2450
Vnone
p2451
atp2452
Rp2453
(dp2454
g16
VNN
p2455
sbatp2456
Rp2457
(dp2458
g16
VNP
p2459
sbag5
(g6
g7
(lp2460
g5
(g6
g7
(lp2461
Vof
p2462
atp2463
Rp2464
(dp2465
g16
VIN
p2466
sbag5
(g6
g7
(lp2467
g5
(g6
g7
(lp2468
g5
(g6
g7
(lp2469
Vthe
p2470
atp2471
Rp2472
(dp2473
g16
VDT
p2474
sbag5
(g6
g7
(lp2475
Vwords
p2476
atp2477
Rp2478
(dp2479
g16
VNNS
p2480
sbatp2481
Rp2482
(dp2483
g16
VNP
p2484
sbag5
(g6
g7
(lp2485
g5
(g6
g7
(lp2486
Vin
p2487
atp2488
Rp2489
(dp2490
g16
VIN
p2491
sbag5
(g6
g7
(lp2492
g5
(g6
g7
(lp2493
Vthe
p2494
atp2495
Rp2496
(dp2497
g16
VDT
p2498
sbag5
(g6
g7
(lp2499
Vtweet
p2500
atp2501
Rp2502
(dp2503
g16
VNN
p2504
sbatp2505
Rp2506
(dp2507
g16
VNP
p2508
sbatp2509
Rp2510
(dp2511
g16
VPP
p2512
sbatp2513
Rp2514
(dp2515
g16
VNP
p2516
sbatp2517
Rp2518
(dp2519
g16
VPP
p2520
sbatp2521
Rp2522
(dp2523
g16
VNP
p2524
sbag5
(g6
g7
(lp2525
g5
(g6
g7
(lp2526
Vis
p2527
atp2528
Rp2529
(dp2530
g16
VVBZ
p2531
sbag5
(g6
g7
(lp2532
g5
(g6
g7
(lp2533
Vsentiment
p2534
atp2535
Rp2536
(dp2537
g16
VNN
p2538
sbag5
(g6
g7
(lp2539
Vword
p2540
atp2541
Rp2542
(dp2543
g16
VNN
p2544
sbatp2545
Rp2546
(dp2547
g16
VNP
p2548
sbatp2549
Rp2550
(dp2551
g16
VVP
p2552
sbatp2553
Rp2554
(dp2555
g16
g193
sbatp2556
Rp2557
(dp2558
g16
VSBAR
p2559
sbag5
(g6
g7
(lp2560
g476
atp2561
Rp2562
(dp2563
g16
g476
sbag5
(g6
g7
(lp2564
g5
(g6
g7
(lp2565
Vit
p2566
atp2567
Rp2568
(dp2569
g16
VPRP
p2570
sbatp2571
Rp2572
(dp2573
g16
VNP
p2574
sbag5
(g6
g7
(lp2575
g5
(g6
g7
(lp2576
Vis
p2577
atp2578
Rp2579
(dp2580
g16
VVBZ
p2581
sbag5
(g6
g7
(lp2582
g5
(g6
g7
(lp2583
Vset
p2584
atp2585
Rp2586
(dp2587
g16
VVBN
p2588
sbag5
(g6
g7
(lp2589
g5
(g6
g7
(lp2590
Vto
p2591
atp2592
Rp2593
(dp2594
g16
VTO
p2595
sbag5
(g6
g7
(lp2596
g5
(g6
g7
(lp2597
V0
p2598
atp2599
Rp2600
(dp2601
g16
VCD
p2602
sbatp2603
Rp2604
(dp2605
g16
VNP
p2606
sbatp2607
Rp2608
(dp2609
g16
VPP
p2610
sbag5
(g6
g7
(lp2611
g5
(g6
g7
(lp2612
Vby
p2613
atp2614
Rp2615
(dp2616
g16
VIN
p2617
sbag5
(g6
g7
(lp2618
g5
(g6
g7
(lp2619
Vdefault
p2620
atp2621
Rp2622
(dp2623
g16
VNN
p2624
sbatp2625
Rp2626
(dp2627
g16
VNP
p2628
sbatp2629
Rp2630
(dp2631
g16
VPP
p2632
sbatp2633
Rp2634
(dp2635
g16
VVP
p2636
sbatp2637
Rp2638
(dp2639
g16
VVP
p2640
sbatp2641
Rp2642
(dp2643
g16
g193
sbatp2644
Rp2645
(dp2646
g16
VROOT
p2647
sbasg198
(icmyPackage
CorE
p2648
(dp2649
g201
(lp2650
(I0
I1
tp2651
a(I0
I10
tp2652
asg205
g2554
sbsg206
(icmyPackage
CorE
p2653
(dp2654
g201
(lp2655
(I0
I12
tp2656
a(I0
I18
tp2657
asg205
g5
(g6
g7
(lp2658
g2572
ag2638
atp2659
Rp2660
(dp2661
g16
g216
sbsbsg217
g2412
sg242
(lp2662
(isxpPackage
sxpSent
p2663
(dp2664
g246
(lp2665
I8
asg248
VIf none of the words in the tweet is sentiment word, it is set to 0 by default
p2666
sg250
I5
sg232
I62
sg251
I19
sbasba(icmyPackage
CELink
p2667
(dp2668
g3
(lp2669
g5
(g6
g7
(lp2670
g5
(g6
g7
(lp2671
g5
(g6
g7
(lp2672
g5
(g6
g7
(lp2673
g5
(g6
g7
(lp2674
VPMI
p2675
atp2676
Rp2677
(dp2678
g16
VNNP
p2679
sbag5
(g6
g7
(lp2680
Vunigram
p2681
atp2682
Rp2683
(dp2684
g16
VNN
p2685
sbag5
(g6
g7
(lp2686
Vlexicons
p2687
atp2688
Rp2689
(dp2690
g16
VNNS
p2691
sbatp2692
Rp2693
(dp2694
g16
VNP
p2695
sbag5
(g6
g7
(lp2696
g5
(g6
g7
(lp2697
Vin
p2698
atp2699
Rp2700
(dp2701
g16
VIN
p2702
sbag5
(g6
g7
(lp2703
g5
(g6
g7
(lp2704
g5
(g6
g7
(lp2705
V-LSB-
p2706
atp2707
Rp2708
(dp2709
g16
VNNP
p2710
sbag5
(g6
g7
(lp2711
VMohammad
p2712
atp2713
Rp2714
(dp2715
g16
VNNP
p2716
sbag5
(g6
g7
(lp2717
Vet
p2718
atp2719
Rp2720
(dp2721
g16
VNNP
p2722
sbag5
(g6
g7
(lp2723
Val.
p2724
atp2725
Rp2726
(dp2727
g16
VPOS
p2728
sbatp2729
Rp2730
(dp2731
g16
VNP
p2732
sbag5
(g6
g7
(lp2733
V2013
p2734
atp2735
Rp2736
(dp2737
g16
VCD
p2738
sbag5
(g6
g7
(lp2739
V-RSB-
p2740
atp2741
Rp2742
(dp2743
g16
VJJ
p2744
sbag5
(g6
g7
(lp2745
Vtwo
p2746
atp2747
Rp2748
(dp2749
g16
VCD
p2750
sbag5
(g6
g7
(lp2751
Vlexicons
p2752
atp2753
Rp2754
(dp2755
g16
VNNS
p2756
sbatp2757
Rp2758
(dp2759
g16
VNP
p2760
sbatp2761
Rp2762
(dp2763
g16
VPP
p2764
sbatp2765
Rp2766
(dp2767
g16
VNP
p2768
sbag5
(g6
g7
(lp2769
g5
(g6
g7
(lp2770
Vwere
p2771
atp2772
Rp2773
(dp2774
g16
VVBD
p2775
sbag5
(g6
g7
(lp2776
g5
(g6
g7
(lp2777
Vautomatically
p2778
atp2779
Rp2780
(dp2781
g16
VRB
p2782
sbatp2783
Rp2784
(dp2785
g16
VADVP
p2786
sbag5
(g6
g7
(lp2787
g5
(g6
g7
(lp2788
Vgenerated
p2789
atp2790
Rp2791
(dp2792
g16
VVBN
p2793
sbag5
(g6
g7
(lp2794
g5
(g6
g7
(lp2795
Vbased
p2796
atp2797
Rp2798
(dp2799
g16
VVBN
p2800
sbag5
(g6
g7
(lp2801
g5
(g6
g7
(lp2802
Von
p2803
atp2804
Rp2805
(dp2806
g16
VIN
p2807
sbag5
(g6
g7
(lp2808
g5
(g6
g7
(lp2809
Vpointwise
p2810
atp2811
Rp2812
(dp2813
g16
VJJ
p2814
sbag5
(g6
g7
(lp2815
Vmutual
p2816
atp2817
Rp2818
(dp2819
g16
VJJ
p2820
sbag5
(g6
g7
(lp2821
Vinformation
p2822
atp2823
Rp2824
(dp2825
g16
VNN
p2826
sbag5
(g6
g7
(lp2827
V-LRB-
p2828
atp2829
Rp2830
(dp2831
g16
VNNP
p2832
sbag5
(g6
g7
(lp2833
VPMI
p2834
atp2835
Rp2836
(dp2837
g16
VNNP
p2838
sbatp2839
Rp2840
(dp2841
g16
VNP
p2842
sbatp2843
Rp2844
(dp2845
g16
VPP
p2846
sbatp2847
Rp2848
(dp2849
g16
VPP
p2850
sbatp2851
Rp2852
(dp2853
g16
VVP
p2854
sbatp2855
Rp2856
(dp2857
g16
VVP
p2858
sbatp2859
Rp2860
(dp2861
g16
g193
sbatp2862
Rp2863
(dp2864
g16
VROOT
p2865
sbasg198
(icmyPackage
CorE
p2866
(dp2867
g201
(lp2868
(I0
I17
tp2869
a(I0
I21
tp2870
asg205
g2840
sbsg206
(icmyPackage
CorE
p2871
(dp2872
g201
(lp2873
(I0
I0
tp2874
a(I0
I14
tp2875
asg205
g5
(g6
g7
(lp2876
g2766
ag2773
ag2784
ag2791
atp2877
Rp2878
(dp2879
g16
g216
sbsbsg217
g218
sg242
(lp2880
(isxpPackage
sxpSent
p2881
(dp2882
g246
(lp2883
I9
asg248
VPMI unigram lexicons in [ Mohammad et al.2013 ] two lexicons were automatically generated based on pointwise mutual information (PMI
p2884
sg250
I5
sg232
I63
sg251
I20
sbasba(icmyPackage
CELink
p2885
(dp2886
g3
(lp2887
g5
(g6
g7
(lp2888
g5
(g6
g7
(lp2889
g5
(g6
g7
(lp2890
g5
(g6
g7
(lp2891
VWe
p2892
atp2893
Rp2894
(dp2895
g16
VPRP
p2896
sbatp2897
Rp2898
(dp2899
g16
VNP
p2900
sbag5
(g6
g7
(lp2901
g5
(g6
g7
(lp2902
Vcompute
p2903
atp2904
Rp2905
(dp2906
g16
VVBZ
p2907
sbag5
(g6
g7
(lp2908
g5
(g6
g7
(lp2909
V7
p2910
atp2911
Rp2912
(dp2913
g16
VCD
p2914
sbag5
(g6
g7
(lp2915
Vfeatures
p2916
atp2917
Rp2918
(dp2919
g16
VNNS
p2920
sbatp2921
Rp2922
(dp2923
g16
VNP
p2924
sbag5
(g6
g7
(lp2925
g5
(g6
g7
(lp2926
Vbased
p2927
atp2928
Rp2929
(dp2930
g16
VVBN
p2931
sbag5
(g6
g7
(lp2932
g5
(g6
g7
(lp2933
Von
p2934
atp2935
Rp2936
(dp2937
g16
VIN
p2938
sbag5
(g6
g7
(lp2939
g5
(g6
g7
(lp2940
g5
(g6
g7
(lp2941
Veach
p2942
atp2943
Rp2944
(dp2945
g16
VDT
p2946
sbatp2947
Rp2948
(dp2949
g16
VNP
p2950
sbag5
(g6
g7
(lp2951
g5
(g6
g7
(lp2952
Vof
p2953
atp2954
Rp2955
(dp2956
g16
VIN
p2957
sbag5
(g6
g7
(lp2958
g5
(g6
g7
(lp2959
Vthe
p2960
atp2961
Rp2962
(dp2963
g16
VDT
p2964
sbag5
(g6
g7
(lp2965
Vtwo
p2966
atp2967
Rp2968
(dp2969
g16
VCD
p2970
sbag5
(g6
g7
(lp2971
Vlexicons
p2972
atp2973
Rp2974
(dp2975
g16
VNNS
p2976
sbatp2977
Rp2978
(dp2979
g16
VNP
p2980
sbatp2981
Rp2982
(dp2983
g16
VPP
p2984
sbatp2985
Rp2986
(dp2987
g16
VNP
p2988
sbatp2989
Rp2990
(dp2991
g16
VPP
p2992
sbatp2993
Rp2994
(dp2995
g16
VPP
p2996
sbatp2997
Rp2998
(dp2999
g16
VVP
p3000
sbatp3001
Rp3002
(dp3003
g16
g193
sbatp3004
Rp3005
(dp3006
g16
VROOT
p3007
sbasg198
(icmyPackage
CorE
p3008
(dp3009
g201
(lp3010
(I0
I6
tp3011
a(I0
I10
tp3012
asg205
g2986
sbsg206
(icmyPackage
CorE
p3013
(dp3014
g201
(lp3015
(I0
I0
tp3016
a(I0
I3
tp3017
asg205
g5
(g6
g7
(lp3018
g2898
ag2905
ag2922
atp3019
Rp3020
(dp3021
g16
g216
sbsbsg217
g218
sg242
(lp3022
(isxpPackage
sxpSent
p3023
(dp3024
g246
(lp3025
I10
asg248
VWe compute 7 features based on each of the two lexicons
p3026
sg250
I5
sg232
I66
sg251
I20
sbasba(icmyPackage
CELink
p3027
(dp3028
g3
(lp3029
g5
(g6
g7
(lp3030
g5
(g6
g7
(lp3031
g5
(g6
g7
(lp3032
g5
(g6
g7
(lp3033
VNote
p3034
atp3035
Rp3036
(dp3037
g16
VVB
p3038
sbag5
(g6
g7
(lp3039
g5
(g6
g7
(lp3040
Vthat
p3041
atp3042
Rp3043
(dp3044
g16
VIN
p3045
sbag5
(g6
g7
(lp3046
g5
(g6
g7
(lp3047
g5
(g6
g7
(lp3048
Vfor
p3049
atp3050
Rp3051
(dp3052
g16
VIN
p3053
sbag5
(g6
g7
(lp3054
g5
(g6
g7
(lp3055
Vthe
p3056
atp3057
Rp3058
(dp3059
g16
VDT
p3060
sbag5
(g6
g7
(lp3061
Vsecond
p3062
atp3063
Rp3064
(dp3065
g16
VJJ
p3066
sbag5
(g6
g7
(lp3067
Vand
p3068
atp3069
Rp3070
(dp3071
g16
VCC
p3072
sbag5
(g6
g7
(lp3073
Vthird
p3074
atp3075
Rp3076
(dp3077
g16
VJJ
p3078
sbag5
(g6
g7
(lp3079
Vfeatures
p3080
atp3081
Rp3082
(dp3083
g16
VNNS
p3084
sbatp3085
Rp3086
(dp3087
g16
VNP
p3088
sbatp3089
Rp3090
(dp3091
g16
VPP
p3092
sbag5
(g6
g7
(lp3093
g476
atp3094
Rp3095
(dp3096
g16
g476
sbag5
(g6
g7
(lp3097
g5
(g6
g7
(lp3098
Vwe
p3099
atp3100
Rp3101
(dp3102
g16
VPRP
p3103
sbatp3104
Rp3105
(dp3106
g16
VNP
p3107
sbag5
(g6
g7
(lp3108
g5
(g6
g7
(lp3109
Vignore
p3110
atp3111
Rp3112
(dp3113
g16
VVBP
p3114
sbag5
(g6
g7
(lp3115
g5
(g6
g7
(lp3116
Vthose
p3117
atp3118
Rp3119
(dp3120
g16
VDT
p3121
sbatp3122
Rp3123
(dp3124
g16
VNP
p3125
sbag5
(g6
g7
(lp3126
g5
(g6
g7
(lp3127
Vwith
p3128
atp3129
Rp3130
(dp3131
g16
VIN
p3132
sbag5
(g6
g7
(lp3133
g5
(g6
g7
(lp3134
g5
(g6
g7
(lp3135
Vsentiment
p3136
atp3137
Rp3138
(dp3139
g16
VNN
p3140
sbag5
(g6
g7
(lp3141
Vscores
p3142
atp3143
Rp3144
(dp3145
g16
VNNS
p3146
sbatp3147
Rp3148
(dp3149
g16
VNP
p3150
sbag5
(g6
g7
(lp3151
g5
(g6
g7
(lp3152
Vbetween
p3153
atp3154
Rp3155
(dp3156
g16
VIN
p3157
sbag5
(g6
g7
(lp3158
g5
(g6
g7
(lp3159
V-1
p3160
atp3161
Rp3162
(dp3163
g16
VCD
p3164
sbag5
(g6
g7
(lp3165
Vand
p3166
atp3167
Rp3168
(dp3169
g16
VCC
p3170
sbag5
(g6
g7
(lp3171
g2342
atp3172
Rp3173
(dp3174
g16
VCD
p3175
sbatp3176
Rp3177
(dp3178
g16
VNP
p3179
sbatp3180
Rp3181
(dp3182
g16
VPP
p3183
sbatp3184
Rp3185
(dp3186
g16
VNP
p3187
sbatp3188
Rp3189
(dp3190
g16
VPP
p3191
sbag5
(g6
g7
(lp3192
g476
atp3193
Rp3194
(dp3195
g16
g476
sbag5
(g6
g7
(lp3196
g5
(g6
g7
(lp3197
Vsince
p3198
atp3199
Rp3200
(dp3201
g16
VIN
p3202
sbag5
(g6
g7
(lp3203
g5
(g6
g7
(lp3204
g5
(g6
g7
(lp3205
Vwe
p3206
atp3207
Rp3208
(dp3209
g16
VPRP
p3210
sbatp3211
Rp3212
(dp3213
g16
VNP
p3214
sbag5
(g6
g7
(lp3215
g5
(g6
g7
(lp3216
Vfound
p3217
atp3218
Rp3219
(dp3220
g16
VVBD
p3221
sbag5
(g6
g7
(lp3222
g5
(g6
g7
(lp3223
g5
(g6
g7
(lp3224
Vthat
p3225
atp3226
Rp3227
(dp3228
g16
VDT
p3229
sbag5
(g6
g7
(lp3230
Vinclusion
p3231
atp3232
Rp3233
(dp3234
g16
VNN
p3235
sbatp3236
Rp3237
(dp3238
g16
VNP
p3239
sbag5
(g6
g7
(lp3240
g5
(g6
g7
(lp3241
Vof
p3242
atp3243
Rp3244
(dp3245
g16
VIN
p3246
sbag5
(g6
g7
(lp3247
g5
(g6
g7
(lp3248
Vthose
p3249
atp3250
Rp3251
(dp3252
g16
VDT
p3253
sbag5
(g6
g7
(lp3254
g5
(g6
g7
(lp3255
Vweak
p3256
atp3257
Rp3258
(dp3259
g16
VJJ
p3260
sbag5
(g6
g7
(lp3261
Vsubjective
p3262
atp3263
Rp3264
(dp3265
g16
VJJ
p3266
sbatp3267
Rp3268
(dp3269
g16
VADJP
p3270
sbag5
(g6
g7
(lp3271
Vwords
p3272
atp3273
Rp3274
(dp3275
g16
VNNS
p3276
sbag5
(g6
g7
(lp3277
Vresults
p3278
atp3279
Rp3280
(dp3281
g16
VNNS
p3282
sbatp3283
Rp3284
(dp3285
g16
VNP
p3286
sbatp3287
Rp3288
(dp3289
g16
VPP
p3290
sbatp3291
Rp3292
(dp3293
g16
VNP
p3294
sbag5
(g6
g7
(lp3295
g5
(g6
g7
(lp3296
Vin
p3297
atp3298
Rp3299
(dp3300
g16
VIN
p3301
sbag5
(g6
g7
(lp3302
g5
(g6
g7
(lp3303
Vunstable
p3304
atp3305
Rp3306
(dp3307
g16
VJJ
p3308
sbag5
(g6
g7
(lp3309
Vperformance
p3310
atp3311
Rp3312
(dp3313
g16
VNN
p3314
sbatp3315
Rp3316
(dp3317
g16
VNP
p3318
sbatp3319
Rp3320
(dp3321
g16
VPP
p3322
sbatp3323
Rp3324
(dp3325
g16
VVP
p3326
sbatp3327
Rp3328
(dp3329
g16
g193
sbatp3330
Rp3331
(dp3332
g16
VSBAR
p3333
sbatp3334
Rp3335
(dp3336
g16
VVP
p3337
sbatp3338
Rp3339
(dp3340
g16
g193
sbatp3341
Rp3342
(dp3343
g16
VSBAR
p3344
sbatp3345
Rp3346
(dp3347
g16
VVP
p3348
sbatp3349
Rp3350
(dp3351
g16
g193
sbatp3352
Rp3353
(dp3354
g16
VROOT
p3355
sbasg198
(icmyPackage
CorE
p3356
(dp3357
g201
(lp3358
(I0
I21
tp3359
a(I0
I33
tp3360
asg205
g3328
sbsg206
(icmyPackage
CorE
p3361
(dp3362
g201
(lp3363
(I0
I0
tp3364
a(I0
I18
tp3365
asg205
g5
(g6
g7
(lp3366
g3036
ag3043
ag3090
ag3095
ag3105
ag3112
ag3123
ag3189
atp3367
Rp3368
(dp3369
g16
g216
sbsbsg217
(icmyPackage
pattern
p3370
(dp3371
g220
I23
sg221
I1
sg222
(lp3372
(lp3373
S'since'
p3374
aasg227
(lp3375
I3
aI1
aI1
asg229
(lp3376
S'This is one of the simplest cases since the surface is so thin.'
p3377
aS'He could not answer the question, since he had not made up his mind.'
p3378
aS'That manager has been a basket case here since his wife left him.'
p3379
asg232
I79
sg233
(lp3380
(lp3381
S'&R@NCTime@'
p3382
aS'(,)'
p3383
aa(lp3384
S'&C@NCTime@'
p3385
aasbsg242
(lp3386
(isxpPackage
sxpSent
p3387
(dp3388
g246
(lp3389
I11
asg248
VNote that for the second and third features, we ignore those with sentiment scores between -1 and 1, since we found that inclusion of those weak subjective words results in unstable performance
p3390
sg250
I5
sg232
I68
sg251
I20
sbasba(icmyPackage
CELink
p3391
(dp3392
g3
(lp3393
g5
(g6
g7
(lp3394
g5
(g6
g7
(lp3395
g5
(g6
g7
(lp3396
g5
(g6
g7
(lp3397
VInstead
p3398
atp3399
Rp3400
(dp3401
g16
VRB
p3402
sbatp3403
Rp3404
(dp3405
g16
VADVP
p3406
sbag5
(g6
g7
(lp3407
g476
atp3408
Rp3409
(dp3410
g16
g476
sbag5
(g6
g7
(lp3411
g5
(g6
g7
(lp3412
Vwe
p3413
atp3414
Rp3415
(dp3416
g16
VPRP
p3417
sbatp3418
Rp3419
(dp3420
g16
VNP
p3421
sbag5
(g6
g7
(lp3422
g5
(g6
g7
(lp3423
Vonly
p3424
atp3425
Rp3426
(dp3427
g16
VRB
p3428
sbatp3429
Rp3430
(dp3431
g16
VADVP
p3432
sbag5
(g6
g7
(lp3433
g5
(g6
g7
(lp3434
Vcompute
p3435
atp3436
Rp3437
(dp3438
g16
VVBZ
p3439
sbag5
(g6
g7
(lp3440
g5
(g6
g7
(lp3441
g5
(g6
g7
(lp3442
g5
(g6
g7
(lp3443
Vtwo
p3444
atp3445
Rp3446
(dp3447
g16
VCD
p3448
sbag5
(g6
g7
(lp3449
Vfeatures
p3450
atp3451
Rp3452
(dp3453
g16
VNNS
p3454
sbatp3455
Rp3456
(dp3457
g16
VNP
p3458
sbag5
(g6
g7
(lp3459
g5
(g6
g7
(lp3460
Vbased
p3461
atp3462
Rp3463
(dp3464
g16
VVBN
p3465
sbag5
(g6
g7
(lp3466
g5
(g6
g7
(lp3467
Von
p3468
atp3469
Rp3470
(dp3471
g16
VIN
p3472
sbag5
(g6
g7
(lp3473
g5
(g6
g7
(lp3474
Vcounts
p3475
atp3476
Rp3477
(dp3478
g16
VNNS
p3479
sbatp3480
Rp3481
(dp3482
g16
VNP
p3483
sbatp3484
Rp3485
(dp3486
g16
VPP
p3487
sbag5
(g6
g7
(lp3488
g5
(g6
g7
(lp3489
Vonly
p3490
atp3491
Rp3492
(dp3493
g16
VRB
p3494
sbag5
(g6
g7
(lp3495
Vtotal
p3496
atp3497
Rp3498
(dp3499
g16
VJJ
p3500
sbag5
(g6
g7
(lp3501
Vnumber
p3502
atp3503
Rp3504
(dp3505
g16
VNN
p3506
sbatp3507
Rp3508
(dp3509
g16
VNP
p3510
sbag5
(g6
g7
(lp3511
g5
(g6
g7
(lp3512
Vof
p3513
atp3514
Rp3515
(dp3516
g16
VIN
p3517
sbag5
(g6
g7
(lp3518
g5
(g6
g7
(lp3519
Vpositive
p3520
atp3521
Rp3522
(dp3523
g16
VJJ
p3524
sbag5
(g6
g7
(lp3525
Vbigrams
p3526
atp3527
Rp3528
(dp3529
g16
VNNS
p3530
sbatp3531
Rp3532
(dp3533
g16
VNP
p3534
sbatp3535
Rp3536
(dp3537
g16
VPP
p3538
sbatp3539
Rp3540
(dp3541
g16
VVP
p3542
sbatp3543
Rp3544
(dp3545
g16
VNP
p3546
sbag5
(g6
g7
(lp3547
V;
p3548
atp3549
Rp3550
(dp3551
g16
V:
p3552
sbag5
(g6
g7
(lp3553
g5
(g6
g7
(lp3554
g5
(g6
g7
(lp3555
Vtotal
p3556
atp3557
Rp3558
(dp3559
g16
VJJ
p3560
sbag5
(g6
g7
(lp3561
Vnumber
p3562
atp3563
Rp3564
(dp3565
g16
VNN
p3566
sbatp3567
Rp3568
(dp3569
g16
VNP
p3570
sbag5
(g6
g7
(lp3571
g5
(g6
g7
(lp3572
Vof
p3573
atp3574
Rp3575
(dp3576
g16
VIN
p3577
sbag5
(g6
g7
(lp3578
g5
(g6
g7
(lp3579
Vnegative
p3580
atp3581
Rp3582
(dp3583
g16
VJJ
p3584
sbag5
(g6
g7
(lp3585
Vbigrams
p3586
atp3587
Rp3588
(dp3589
g16
VNNS
p3590
sbatp3591
Rp3592
(dp3593
g16
VNP
p3594
sbatp3595
Rp3596
(dp3597
g16
VPP
p3598
sbatp3599
Rp3600
(dp3601
g16
VNP
p3602
sbatp3603
Rp3604
(dp3605
g16
VNP
p3606
sbatp3607
Rp3608
(dp3609
g16
VVP
p3610
sbatp3611
Rp3612
(dp3613
g16
g193
sbatp3614
Rp3615
(dp3616
g16
VROOT
p3617
sbasg198
(icmyPackage
CorE
p3618
(dp3619
g201
(lp3620
(I0
I9
tp3621
a(I0
I15
tp3622
asg205
g5
(g6
g7
(lp3623
g3481
ag3508
ag3536
atp3624
Rp3625
(dp3626
g16
g216
sbsbsg206
(icmyPackage
CorE
p3627
(dp3628
g201
(lp3629
(I0
I0
tp3630
a(I0
I6
tp3631
asg205
g5
(g6
g7
(lp3632
g3404
ag3409
ag3419
ag3430
ag3437
ag3456
atp3633
Rp3634
(dp3635
g16
g216
sbsbsg217
g218
sg242
(lp3636
(isxpPackage
sxpSent
p3637
(dp3638
g246
(lp3639
I12
asg248
VInstead, we only compute two features based on counts only total number of positive bigrams; total number of negative bigrams
p3640
sg250
I5
sg232
I71
sg251
I21
sbasba(icmyPackage
CELink
p3641
(dp3642
g3
(lp3643
g5
(g6
g7
(lp3644
g5
(g6
g7
(lp3645
g5
(g6
g7
(lp3646
g5
(g6
g7
(lp3647
g5
(g6
g7
(lp3648
VPunctuations
p3649
atp3650
Rp3651
(dp3652
g16
VRB
p3653
sbatp3654
Rp3655
(dp3656
g16
VADVP
p3657
sbag5
(g6
g7
(lp3658
Vif
p3659
atp3660
Rp3661
(dp3662
g16
VIN
p3663
sbag5
(g6
g7
(lp3664
g5
(g6
g7
(lp3665
g5
(g6
g7
(lp3666
Vthere
p3667
atp3668
Rp3669
(dp3670
g16
VEX
p3671
sbatp3672
Rp3673
(dp3674
g16
VNP
p3675
sbag5
(g6
g7
(lp3676
g5
(g6
g7
(lp3677
Vexists
p3678
atp3679
Rp3680
(dp3681
g16
VVBZ
p3682
sbag5
(g6
g7
(lp3683
g5
(g6
g7
(lp3684
g5
(g6
g7
(lp3685
Vexclamation
p3686
atp3687
Rp3688
(dp3689
g16
VNN
p3690
sbag5
(g6
g7
(lp3691
Vmark
p3692
atp3693
Rp3694
(dp3695
g16
VNN
p3696
sbag5
(g6
g7
(lp3697
Vor
p3698
atp3699
Rp3700
(dp3701
g16
VCC
p3702
sbag5
(g6
g7
(lp3703
Vquestion
p3704
atp3705
Rp3706
(dp3707
g16
VNN
p3708
sbag5
(g6
g7
(lp3709
Vmark
p3710
atp3711
Rp3712
(dp3713
g16
VNN
p3714
sbatp3715
Rp3716
(dp3717
g16
VNP
p3718
sbag5
(g6
g7
(lp3719
g5
(g6
g7
(lp3720
Vin
p3721
atp3722
Rp3723
(dp3724
g16
VIN
p3725
sbag5
(g6
g7
(lp3726
g5
(g6
g7
(lp3727
Vthe
p3728
atp3729
Rp3730
(dp3731
g16
VDT
p3732
sbag5
(g6
g7
(lp3733
Vtweet
p3734
atp3735
Rp3736
(dp3737
g16
VNN
p3738
sbatp3739
Rp3740
(dp3741
g16
VNP
p3742
sbatp3743
Rp3744
(dp3745
g16
VPP
p3746
sbatp3747
Rp3748
(dp3749
g16
VNP
p3750
sbatp3751
Rp3752
(dp3753
g16
VVP
p3754
sbatp3755
Rp3756
(dp3757
g16
g193
sbatp3758
Rp3759
(dp3760
g16
VSBAR
p3761
sbag5
(g6
g7
(lp3762
g476
atp3763
Rp3764
(dp3765
g16
g476
sbag5
(g6
g7
(lp3766
g5
(g6
g7
(lp3767
Vthe
p3768
atp3769
Rp3770
(dp3771
g16
VDT
p3772
sbag5
(g6
g7
(lp3773
Vfeature
p3774
atp3775
Rp3776
(dp3777
g16
VNN
p3778
sbatp3779
Rp3780
(dp3781
g16
VNP
p3782
sbag5
(g6
g7
(lp3783
g5
(g6
g7
(lp3784
Vis
p3785
atp3786
Rp3787
(dp3788
g16
VVBZ
p3789
sbag5
(g6
g7
(lp3790
g5
(g6
g7
(lp3791
Vset
p3792
atp3793
Rp3794
(dp3795
g16
VVBN
p3796
sbag5
(g6
g7
(lp3797
g5
(g6
g7
(lp3798
Vto
p3799
atp3800
Rp3801
(dp3802
g16
VTO
p3803
sbag5
(g6
g7
(lp3804
g5
(g6
g7
(lp3805
g5
(g6
g7
(lp3806
g2342
atp3807
Rp3808
(dp3809
g16
VCD
p3810
sbatp3811
Rp3812
(dp3813
g16
VNP
p3814
sbag5
(g6
g7
(lp3815
g476
atp3816
Rp3817
(dp3818
g16
g476
sbag5
(g6
g7
(lp3819
g5
(g6
g7
(lp3820
g5
(g6
g7
(lp3821
Votherwise
p3822
atp3823
Rp3824
(dp3825
g16
VRB
p3826
sbatp3827
Rp3828
(dp3829
g16
VADVP
p3830
sbag5
(g6
g7
(lp3831
Vset
p3832
atp3833
Rp3834
(dp3835
g16
VVBN
p3836
sbag5
(g6
g7
(lp3837
g5
(g6
g7
(lp3838
Vto
p3839
atp3840
Rp3841
(dp3842
g16
VTO
p3843
sbag5
(g6
g7
(lp3844
g5
(g6
g7
(lp3845
g2598
atp3846
Rp3847
(dp3848
g16
VCD
p3849
sbatp3850
Rp3851
(dp3852
g16
VNP
p3853
sbatp3854
Rp3855
(dp3856
g16
VPP
p3857
sbatp3858
Rp3859
(dp3860
g16
VVP
p3861
sbatp3862
Rp3863
(dp3864
g16
VNP
p3865
sbatp3866
Rp3867
(dp3868
g16
VPP
p3869
sbatp3870
Rp3871
(dp3872
g16
VVP
p3873
sbatp3874
Rp3875
(dp3876
g16
VVP
p3877
sbatp3878
Rp3879
(dp3880
g16
g193
sbatp3881
Rp3882
(dp3883
g16
VROOT
p3884
sbasg198
(icmyPackage
CorE
p3885
(dp3886
g201
(lp3887
(I0
I2
tp3888
a(I0
I11
tp3889
asg205
g3756
sbsg206
(icmyPackage
CorE
p3890
(dp3891
g201
(lp3892
(I0
I13
tp3893
a(I0
I23
tp3894
asg205
g5
(g6
g7
(lp3895
g3780
ag3875
atp3896
Rp3897
(dp3898
g16
g216
sbsbsg217
g2412
sg242
(lp3899
(isxpPackage
sxpSent
p3900
(dp3901
g246
(lp3902
I13
asg248
VPunctuations if there exists exclamation mark or question mark in the tweet, the feature is set to 1, otherwise set to 0
p3903
sg250
I5
sg232
I72
sg251
I22
sbasba(icmyPackage
CELink
p3904
(dp3905
g3
(lp3906
g5
(g6
g7
(lp3907
g5
(g6
g7
(lp3908
g5
(g6
g7
(lp3909
g5
(g6
g7
(lp3910
VWe
p3911
atp3912
Rp3913
(dp3914
g16
VPRP
p3915
sbatp3916
Rp3917
(dp3918
g16
VNP
p3919
sbag5
(g6
g7
(lp3920
g5
(g6
g7
(lp3921
Vconduct
p3922
atp3923
Rp3924
(dp3925
g16
VVBP
p3926
sbag5
(g6
g7
(lp3927
g5
(g6
g7
(lp3928
Vpre-processing
p3929
atp3930
Rp3931
(dp3932
g16
VJJ
p3933
sbag5
(g6
g7
(lp3934
g5
(g6
g7
(lp3935
Vby
p3936
atp3937
Rp3938
(dp3939
g16
VIN
p3940
sbag5
(g6
g7
(lp3941
g5
(g6
g7
(lp3942
g5
(g6
g7
(lp3943
Vremoving
p3944
atp3945
Rp3946
(dp3947
g16
VVBG
p3948
sbag5
(g6
g7
(lp3949
g5
(g6
g7
(lp3950
g5
(g6
g7
(lp3951
Vstop
p3952
atp3953
Rp3954
(dp3955
g16
VNN
p3956
sbag5
(g6
g7
(lp3957
Vwords
p3958
atp3959
Rp3960
(dp3961
g16
VNNS
p3962
sbatp3963
Rp3964
(dp3965
g16
VNP
p3966
sbag5
(g6
g7
(lp3967
Vand
p3968
atp3969
Rp3970
(dp3971
g16
VCC
p3972
sbag5
(g6
g7
(lp3973
g5
(g6
g7
(lp3974
g5
(g6
g7
(lp3975
Vsome
p3976
atp3977
Rp3978
(dp3979
g16
VDT
p3980
sbatp3981
Rp3982
(dp3983
g16
VNP
p3984
sbag5
(g6
g7
(lp3985
g5
(g6
g7
(lp3986
Vof
p3987
atp3988
Rp3989
(dp3990
g16
VIN
p3991
sbag5
(g6
g7
(lp3992
g5
(g6
g7
(lp3993
g5
(g6
g7
(lp3994
Vthe
p3995
atp3996
Rp3997
(dp3998
g16
VDT
p3999
sbag5
(g6
g7
(lp4000
Vfrequent
p4001
atp4002
Rp4003
(dp4004
g16
VJJ
p4005
sbag5
(g6
g7
(lp4006
Vwords
p4007
atp4008
Rp4009
(dp4010
g16
VNNS
p4011
sbatp4012
Rp4013
(dp4014
g16
VNP
p4015
sbag5
(g6
g7
(lp4016
g5
(g6
g7
(lp4017
Vfound
p4018
atp4019
Rp4020
(dp4021
g16
VVBN
p4022
sbag5
(g6
g7
(lp4023
g5
(g6
g7
(lp4024
Vin
p4025
atp4026
Rp4027
(dp4028
g16
VIN
p4029
sbag5
(g6
g7
(lp4030
g5
(g6
g7
(lp4031
VTwitter
p4032
atp4033
Rp4034
(dp4035
g16
VNNP
p4036
sbag5
(g6
g7
(lp4037
Vdata
p4038
atp4039
Rp4040
(dp4041
g16
VNNS
p4042
sbatp4043
Rp4044
(dp4045
g16
VNP
p4046
sbatp4047
Rp4048
(dp4049
g16
VPP
p4050
sbatp4051
Rp4052
(dp4053
g16
VVP
p4054
sbatp4055
Rp4056
(dp4057
g16
VNP
p4058
sbatp4059
Rp4060
(dp4061
g16
VPP
p4062
sbatp4063
Rp4064
(dp4065
g16
VNP
p4066
sbatp4067
Rp4068
(dp4069
g16
VNP
p4070
sbatp4071
Rp4072
(dp4073
g16
VVP
p4074
sbatp4075
Rp4076
(dp4077
g16
g193
sbatp4078
Rp4079
(dp4080
g16
VPP
p4081
sbatp4082
Rp4083
(dp4084
g16
VADJP
p4085
sbatp4086
Rp4087
(dp4088
g16
VVP
p4089
sbatp4090
Rp4091
(dp4092
g16
g193
sbatp4093
Rp4094
(dp4095
g16
VROOT
p4096
sbasg198
(icmyPackage
CorE
p4097
(dp4098
g201
(lp4099
(I0
I4
tp4100
a(I0
I16
tp4101
asg205
g4076
sbsg206
(icmyPackage
CorE
p4102
(dp4103
g201
(lp4104
(I0
I0
tp4105
a(I0
I2
tp4106
asg205
g5
(g6
g7
(lp4107
g3917
ag3924
ag3931
atp4108
Rp4109
(dp4110
g16
g216
sbsbsg217
g1133
sg242
(lp4111
(isxpPackage
sxpSent
p4112
(dp4113
g246
(lp4114
I14
asg248
VWe conduct pre-processing by removing stop words and some of the frequent words found in Twitter data
p4115
sg250
I7
sg232
I85
sg251
I27
sbasba(icmyPackage
CELink
p4116
(dp4117
g3
(lp4118
g5
(g6
g7
(lp4119
g5
(g6
g7
(lp4120
g5
(g6
g7
(lp4121
g5
(g6
g7
(lp4122
VOnce
p4123
atp4124
Rp4125
(dp4126
g16
VIN
p4127
sbag5
(g6
g7
(lp4128
g5
(g6
g7
(lp4129
g5
(g6
g7
(lp4130
Vwe
p4131
atp4132
Rp4133
(dp4134
g16
VPRP
p4135
sbatp4136
Rp4137
(dp4138
g16
VNP
p4139
sbag5
(g6
g7
(lp4140
g5
(g6
g7
(lp4141
Videntify
p4142
atp4143
Rp4144
(dp4145
g16
VVB
p4146
sbag5
(g6
g7
(lp4147
g5
(g6
g7
(lp4148
Vthe
p4149
atp4150
Rp4151
(dp4152
g16
VDT
p4153
sbag5
(g6
g7
(lp4154
Vtopics
p4155
atp4156
Rp4157
(dp4158
g16
VNNS
p4159
sbatp4160
Rp4161
(dp4162
g16
VNP
p4163
sbag5
(g6
g7
(lp4164
g5
(g6
g7
(lp4165
Vfor
p4166
atp4167
Rp4168
(dp4169
g16
VIN
p4170
sbag5
(g6
g7
(lp4171
g5
(g6
g7
(lp4172
g5
(g6
g7
(lp4173
Vtweets
p4174
atp4175
Rp4176
(dp4177
g16
VNNS
p4178
sbatp4179
Rp4180
(dp4181
g16
VNP
p4182
sbag5
(g6
g7
(lp4183
g5
(g6
g7
(lp4184
Vin
p4185
atp4186
Rp4187
(dp4188
g16
VIN
p4189
sbag5
(g6
g7
(lp4190
g5
(g6
g7
(lp4191
Vthe
p4192
atp4193
Rp4194
(dp4195
g16
VDT
p4196
sbag5
(g6
g7
(lp4197
Vtraining
p4198
atp4199
Rp4200
(dp4201
g16
VNN
p4202
sbag5
(g6
g7
(lp4203
Vdata
p4204
atp4205
Rp4206
(dp4207
g16
VNNS
p4208
sbatp4209
Rp4210
(dp4211
g16
VNP
p4212
sbatp4213
Rp4214
(dp4215
g16
VPP
p4216
sbatp4217
Rp4218
(dp4219
g16
VNP
p4220
sbatp4221
Rp4222
(dp4223
g16
VPP
p4224
sbatp4225
Rp4226
(dp4227
g16
VVP
p4228
sbatp4229
Rp4230
(dp4231
g16
g193
sbatp4232
Rp4233
(dp4234
g16
VSBAR
p4235
sbag5
(g6
g7
(lp4236
g476
atp4237
Rp4238
(dp4239
g16
g476
sbag5
(g6
g7
(lp4240
g5
(g6
g7
(lp4241
Vwe
p4242
atp4243
Rp4244
(dp4245
g16
VPRP
p4246
sbatp4247
Rp4248
(dp4249
g16
VNP
p4250
sbag5
(g6
g7
(lp4251
g5
(g6
g7
(lp4252
Vcan
p4253
atp4254
Rp4255
(dp4256
g16
VMD
p4257
sbag5
(g6
g7
(lp4258
g5
(g6
g7
(lp4259
Vsplit
p4260
atp4261
Rp4262
(dp4263
g16
VVB
p4264
sbag5
(g6
g7
(lp4265
g5
(g6
g7
(lp4266
Vthe
p4267
atp4268
Rp4269
(dp4270
g16
VDT
p4271
sbag5
(g6
g7
(lp4272
Vdata
p4273
atp4274
Rp4275
(dp4276
g16
VNNS
p4277
sbatp4278
Rp4279
(dp4280
g16
VNP
p4281
sbag5
(g6
g7
(lp4282
g5
(g6
g7
(lp4283
Vinto
p4284
atp4285
Rp4286
(dp4287
g16
VIN
p4288
sbag5
(g6
g7
(lp4289
g5
(g6
g7
(lp4290
Vmultiple
p4291
atp4292
Rp4293
(dp4294
g16
VJJ
p4295
sbag5
(g6
g7
(lp4296
Vsubsets
p4297
atp4298
Rp4299
(dp4300
g16
VNNS
p4301
sbatp4302
Rp4303
(dp4304
g16
VNP
p4305
sbatp4306
Rp4307
(dp4308
g16
VPP
p4309
sbag5
(g6
g7
(lp4310
g5
(g6
g7
(lp4311
Vbased
p4312
atp4313
Rp4314
(dp4315
g16
VVBN
p4316
sbag5
(g6
g7
(lp4317
g5
(g6
g7
(lp4318
Von
p4319
atp4320
Rp4321
(dp4322
g16
VIN
p4323
sbag5
(g6
g7
(lp4324
g5
(g6
g7
(lp4325
Vtopic
p4326
atp4327
Rp4328
(dp4329
g16
VNN
p4330
sbag5
(g6
g7
(lp4331
Vdistributions
p4332
atp4333
Rp4334
(dp4335
g16
VNNS
p4336
sbatp4337
Rp4338
(dp4339
g16
VNP
p4340
sbatp4341
Rp4342
(dp4343
g16
VPP
p4344
sbatp4345
Rp4346
(dp4347
g16
VPP
p4348
sbatp4349
Rp4350
(dp4351
g16
VVP
p4352
sbatp4353
Rp4354
(dp4355
g16
VVP
p4356
sbatp4357
Rp4358
(dp4359
g16
g193
sbatp4360
Rp4361
(dp4362
g16
VROOT
p4363
sbasg198
(icmyPackage
CorE
p4364
(dp4365
g201
(lp4366
(I0
I1
tp4367
a(I0
I10
tp4368
asg205
g4230
sbsg206
(icmyPackage
CorE
p4369
(dp4370
g201
(lp4371
(I0
I12
tp4372
a(I0
I23
tp4373
asg205
g5
(g6
g7
(lp4374
g4248
ag4354
atp4375
Rp4376
(dp4377
g16
g216
sbsbsg217
g2412
sg242
(lp4378
(isxpPackage
sxpSent
p4379
(dp4380
g246
(lp4381
I15
aI16
asg248
VOnce we identify the topics for tweets in the training data, we can split the data into multiple subsets based on topic distributions
p4382
sg250
I8
sg232
I90
sg251
I29
sbasba(icmyPackage
CELink
p4383
(dp4384
g3
(lp4385
g4376
asg198
(icmyPackage
CorE
p4386
(dp4387
g201
(lp4388
(I0
I10
tp4389
a(I0
I11
tp4390
asg205
g4338
sbsg206
(icmyPackage
CorE
p4391
(dp4392
g201
(lp4393
(I0
I0
tp4394
a(I0
I7
tp4395
asg205
g5
(g6
g7
(lp4396
g4248
ag4255
ag4262
ag4279
ag4307
atp4397
Rp4398
(dp4399
g16
g216
sbsbsg217
g218
sg242
(lp4400
g4379
asba(icmyPackage
CELink
p4401
(dp4402
g3
(lp4403
g5
(g6
g7
(lp4404
g5
(g6
g7
(lp4405
g5
(g6
g7
(lp4406
g5
(g6
g7
(lp4407
VFor
p4408
atp4409
Rp4410
(dp4411
g16
VIN
p4412
sbag5
(g6
g7
(lp4413
g5
(g6
g7
(lp4414
Vexample
p4415
atp4416
Rp4417
(dp4418
g16
VNN
p4419
sbatp4420
Rp4421
(dp4422
g16
VNP
p4423
sbatp4424
Rp4425
(dp4426
g16
VPP
p4427
sbag5
(g6
g7
(lp4428
g476
atp4429
Rp4430
(dp4431
g16
g476
sbag5
(g6
g7
(lp4432
g5
(g6
g7
(lp4433
VK-means
p4434
atp4435
Rp4436
(dp4437
g16
VNNP
p4438
sbag5
(g6
g7
(lp4439
Vclustering
p4440
atp4441
Rp4442
(dp4443
g16
VNN
p4444
sbatp4445
Rp4446
(dp4447
g16
VNP
p4448
sbag5
(g6
g7
(lp4449
g5
(g6
g7
(lp4450
Vcan
p4451
atp4452
Rp4453
(dp4454
g16
VMD
p4455
sbag5
(g6
g7
(lp4456
g5
(g6
g7
(lp4457
Vbe
p4458
atp4459
Rp4460
(dp4461
g16
VVB
p4462
sbag5
(g6
g7
(lp4463
g5
(g6
g7
(lp4464
Vconducted
p4465
atp4466
Rp4467
(dp4468
g16
VVBN
p4469
sbag5
(g6
g7
(lp4470
g5
(g6
g7
(lp4471
Vbased
p4472
atp4473
Rp4474
(dp4475
g16
VVBN
p4476
sbag5
(g6
g7
(lp4477
g5
(g6
g7
(lp4478
Von
p4479
atp4480
Rp4481
(dp4482
g16
VIN
p4483
sbag5
(g6
g7
(lp4484
g5
(g6
g7
(lp4485
g5
(g6
g7
(lp4486
Vthe
p4487
atp4488
Rp4489
(dp4490
g16
VDT
p4491
sbag5
(g6
g7
(lp4492
Vsimilarity
p4493
atp4494
Rp4495
(dp4496
g16
VNN
p4497
sbatp4498
Rp4499
(dp4500
g16
VNP
p4501
sbag5
(g6
g7
(lp4502
g5
(g6
g7
(lp4503
Vbetween
p4504
atp4505
Rp4506
(dp4507
g16
VIN
p4508
sbag5
(g6
g7
(lp4509
g5
(g6
g7
(lp4510
g5
(g6
g7
(lp4511
Vthe
p4512
atp4513
Rp4514
(dp4515
g16
VDT
p4516
sbag5
(g6
g7
(lp4517
Vtopic
p4518
atp4519
Rp4520
(dp4521
g16
VNN
p4522
sbag5
(g6
g7
(lp4523
Vdistribution
p4524
atp4525
Rp4526
(dp4527
g16
VNN
p4528
sbag5
(g6
g7
(lp4529
Vvectors
p4530
atp4531
Rp4532
(dp4533
g16
VNN
p4534
sbatp4535
Rp4536
(dp4537
g16
VNP
p4538
sbag5
(g6
g7
(lp4539
Vor
p4540
atp4541
Rp4542
(dp4543
g16
VCC
p4544
sbag5
(g6
g7
(lp4545
g5
(g6
g7
(lp4546
Vtheir
p4547
atp4548
Rp4549
(dp4550
g16
VPRP$
p4551
sbag5
(g6
g7
(lp4552
Vtransformed
p4553
atp4554
Rp4555
(dp4556
g16
VJJ
p4557
sbag5
(g6
g7
(lp4558
Vversions
p4559
atp4560
Rp4561
(dp4562
g16
VNNS
p4563
sbatp4564
Rp4565
(dp4566
g16
VNP
p4567
sbatp4568
Rp4569
(dp4570
g16
VNP
p4571
sbatp4572
Rp4573
(dp4574
g16
VPP
p4575
sbatp4576
Rp4577
(dp4578
g16
VNP
p4579
sbatp4580
Rp4581
(dp4582
g16
VPP
p4583
sbatp4584
Rp4585
(dp4586
g16
VPP
p4587
sbatp4588
Rp4589
(dp4590
g16
VVP
p4591
sbatp4592
Rp4593
(dp4594
g16
VVP
p4595
sbatp4596
Rp4597
(dp4598
g16
VVP
p4599
sbatp4600
Rp4601
(dp4602
g16
g193
sbatp4603
Rp4604
(dp4605
g16
VROOT
p4606
sbasg198
(icmyPackage
CorE
p4607
(dp4608
g201
(lp4609
(I0
I10
tp4610
a(I0
I20
tp4611
asg205
g4577
sbsg206
(icmyPackage
CorE
p4612
(dp4613
g201
(lp4614
(I0
I0
tp4615
a(I0
I7
tp4616
asg205
g5
(g6
g7
(lp4617
g4425
ag4430
ag4446
ag4453
ag4460
ag4467
atp4618
Rp4619
(dp4620
g16
g216
sbsbsg217
g218
sg242
(lp4621
(isxpPackage
sxpSent
p4622
(dp4623
g246
(lp4624
I17
asg248
VFor example, K-means clustering can be conducted based on the similarity between the topic distribution vectors or their transformed versions
p4625
sg250
I8
sg232
I93
sg251
I29
sbasba(icmyPackage
CELink
p4626
(dp4627
g3
(lp4628
g5
(g6
g7
(lp4629
g5
(g6
g7
(lp4630
g5
(g6
g7
(lp4631
g5
(g6
g7
(lp4632
VIn
p4633
atp4634
Rp4635
(dp4636
g16
VIN
p4637
sbag5
(g6
g7
(lp4638
g5
(g6
g7
(lp4639
Vthis
p4640
atp4641
Rp4642
(dp4643
g16
VDT
p4644
sbag5
(g6
g7
(lp4645
Vwork
p4646
atp4647
Rp4648
(dp4649
g16
VNN
p4650
sbatp4651
Rp4652
(dp4653
g16
VNP
p4654
sbatp4655
Rp4656
(dp4657
g16
VPP
p4658
sbag5
(g6
g7
(lp4659
g476
atp4660
Rp4661
(dp4662
g16
g476
sbag5
(g6
g7
(lp4663
g5
(g6
g7
(lp4664
Vwe
p4665
atp4666
Rp4667
(dp4668
g16
VPRP
p4669
sbatp4670
Rp4671
(dp4672
g16
VNP
p4673
sbag5
(g6
g7
(lp4674
g5
(g6
g7
(lp4675
Vassign
p4676
atp4677
Rp4678
(dp4679
g16
VVBP
p4680
sbag5
(g6
g7
(lp4681
g5
(g6
g7
(lp4682
Vtweet
p4683
atp4684
Rp4685
(dp4686
g16
VJJ
p4687
sbag5
(g6
g7
(lp4688
g1718
atp4689
Rp4690
(dp4691
g16
VFW
p4692
sbag5
(g6
g7
(lp4693
Vi
p4694
atp4695
Rp4696
(dp4697
g16
VFW
p4698
sbatp4699
Rp4700
(dp4701
g16
VNP
p4702
sbag5
(g6
g7
(lp4703
g5
(g6
g7
(lp4704
Vto
p4705
atp4706
Rp4707
(dp4708
g16
VTO
p4709
sbag5
(g6
g7
(lp4710
g5
(g6
g7
(lp4711
Vcluster
p4712
atp4713
Rp4714
(dp4715
g16
VNN
p4716
sbag5
(g6
g7
(lp4717
Vj
p4718
atp4719
Rp4720
(dp4721
g16
VNN
p4722
sbatp4723
Rp4724
(dp4725
g16
VNP
p4726
sbatp4727
Rp4728
(dp4729
g16
VPP
p4730
sbag5
(g6
g7
(lp4731
g5
(g6
g7
(lp4732
Vif
p4733
atp4734
Rp4735
(dp4736
g16
VIN
p4737
sbag5
(g6
g7
(lp4738
g5
(g6
g7
(lp4739
g5
(g6
g7
(lp4740
g1789
atp4741
Rp4742
(dp4743
g16
VNNP
p4744
sbatp4745
Rp4746
(dp4747
g16
VNP
p4748
sbag5
(g6
g7
(lp4749
g5
(g6
g7
(lp4750
Vt
p4751
atp4752
Rp4753
(dp4754
g16
VVBP
p4755
sbag5
(g6
g7
(lp4756
g5
(g6
g7
(lp4757
g5
(g6
g7
(lp4758
g5
(g6
g7
(lp4759
V-LRB-
p4760
atp4761
Rp4762
(dp4763
g16
V-LRB-
p4764
sbag5
(g6
g7
(lp4765
g5
(g6
g7
(lp4766
g4751
atp4767
Rp4768
(dp4769
g16
VVB
p4770
sbag5
(g6
g7
(lp4771
g5
(g6
g7
(lp4772
g4718
atp4773
Rp4774
(dp4775
g16
VNN
p4776
sbag5
(g6
g7
(lp4777
g1718
atp4778
Rp4779
(dp4780
g16
VFW
p4781
sbag5
(g6
g7
(lp4782
g4694
atp4783
Rp4784
(dp4785
g16
VFW
p4786
sbatp4787
Rp4788
(dp4789
g16
VNP
p4790
sbatp4791
Rp4792
(dp4793
g16
VVP
p4794
sbag5
(g6
g7
(lp4795
V-RRB-
p4796
atp4797
Rp4798
(dp4799
g16
V-RRB-
p4800
sbatp4801
Rp4802
(dp4803
g16
VPRN
p4804
sbag5
(g6
g7
(lp4805
g5
(g6
g7
(lp4806
g5
(g6
g7
(lp4807
g5
(g6
g7
(lp4808
g270
atp4809
Rp4810
(dp4811
g16
VNNP
p4812
sbag5
(g6
g7
(lp4813
g276
atp4814
Rp4815
(dp4816
g16
VPOS
p4817
sbatp4818
Rp4819
(dp4820
g16
VNP
p4821
sbag5
(g6
g7
(lp4822
V\u005c
p4823
atp4824
Rp4825
(dp4826
g16
VNN
p4827
sbag5
(g6
g7
(lp4828
Vu03a4
p4829
atp4830
Rp4831
(dp4832
g16
VNN
p4833
sbag5
(g6
g7
(lp4834
g276
atp4835
Rp4836
(dp4837
g16
V''
p4838
sbatp4839
Rp4840
(dp4841
g16
VNP
p4842
sbag5
(g6
g7
(lp4843
Vor
p4844
atp4845
Rp4846
(dp4847
g16
VCC
p4848
sbag5
(g6
g7
(lp4849
g5
(g6
g7
(lp4850
g1789
atp4851
Rp4852
(dp4853
g16
VNNP
p4854
sbag5
(g6
g7
(lp4855
g4751
atp4856
Rp4857
(dp4858
g16
VNNP
p4859
sbag5
(g6
g7
(lp4860
g5
(g6
g7
(lp4861
V-LRB-
p4862
atp4863
Rp4864
(dp4865
g16
V-LRB-
p4866
sbag5
(g6
g7
(lp4867
g5
(g6
g7
(lp4868
g5
(g6
g7
(lp4869
g4751
atp4870
Rp4871
(dp4872
g16
VNN
p4873
sbag5
(g6
g7
(lp4874
g4718
atp4875
Rp4876
(dp4877
g16
VNN
p4878
sbatp4879
Rp4880
(dp4881
g16
VNP
p4882
sbag5
(g6
g7
(lp4883
g5
(g6
g7
(lp4884
g5
(g6
g7
(lp4885
g1718
atp4886
Rp4887
(dp4888
g16
VSYM
p4889
sbatp4890
Rp4891
(dp4892
g16
VNP
p4893
sbag5
(g6
g7
(lp4894
g5
(g6
g7
(lp4895
g4694
atp4896
Rp4897
(dp4898
g16
VFW
p4899
sbatp4900
Rp4901
(dp4902
g16
VNP
p4903
sbatp4904
Rp4905
(dp4906
g16
VNP
p4907
sbatp4908
Rp4909
(dp4910
g16
VNP
p4911
sbag5
(g6
g7
(lp4912
V-RRB-
p4913
atp4914
Rp4915
(dp4916
g16
V-RRB-
p4917
sbatp4918
Rp4919
(dp4920
g16
VPRN
p4921
sbag5
(g6
g7
(lp4922
V=
p4923
atp4924
Rp4925
(dp4926
g16
VNNP
p4927
sbatp4928
Rp4929
(dp4930
g16
VNP
p4931
sbatp4932
Rp4933
(dp4934
g16
VNP
p4935
sbag5
(g6
g7
(lp4936
g5
(g6
g7
(lp4937
Vmax
p4938
atp4939
Rp4940
(dp4941
g16
VVBP
p4942
sbag5
(g6
g7
(lp4943
g5
(g6
g7
(lp4944
g5
(g6
g7
(lp4945
g5
(g6
g7
(lp4946
Vk
p4947
atp4948
Rp4949
(dp4950
g16
VNNP
p4951
sbag5
(g6
g7
(lp4952
g1789
atp4953
Rp4954
(dp4955
g16
VNNP
p4956
sbatp4957
Rp4958
(dp4959
g16
VNP
p4960
sbag5
(g6
g7
(lp4961
g5
(g6
g7
(lp4962
g4751
atp4963
Rp4964
(dp4965
g16
VVBP
p4966
sbag5
(g6
g7
(lp4967
g5
(g6
g7
(lp4968
V-LRB-
p4969
atp4970
Rp4971
(dp4972
g16
V-LRB-
p4973
sbag5
(g6
g7
(lp4974
g4751
atp4975
Rp4976
(dp4977
g16
VNN
p4978
sbag5
(g6
g7
(lp4979
g4947
atp4980
Rp4981
(dp4982
g16
VNN
p4983
sbag5
(g6
g7
(lp4984
g1718
atp4985
Rp4986
(dp4987
g16
VNN
p4988
sbag5
(g6
g7
(lp4989
g4694
atp4990
Rp4991
(dp4992
g16
VNNS
p4993
sbatp4994
Rp4995
(dp4996
g16
VNP
p4997
sbatp4998
Rp4999
(dp5000
g16
VVP
p5001
sbatp5002
Rp5003
(dp5004
g16
g193
sbatp5005
Rp5006
(dp5007
g16
VSBAR
p5008
sbatp5009
Rp5010
(dp5011
g16
VVP
p5012
sbatp5013
Rp5014
(dp5015
g16
g193
sbatp5016
Rp5017
(dp5018
g16
VSBAR
p5019
sbatp5020
Rp5021
(dp5022
g16
VVP
p5023
sbatp5024
Rp5025
(dp5026
g16
g193
sbatp5027
Rp5028
(dp5029
g16
VSBAR
p5030
sbatp5031
Rp5032
(dp5033
g16
VVP
p5034
sbatp5035
Rp5036
(dp5037
g16
g193
sbatp5038
Rp5039
(dp5040
g16
VROOT
p5041
sbasg198
(icmyPackage
CorE
p5042
(dp5043
g201
(lp5044
(I0
I13
tp5045
a(I0
I34
tp5046
asg205
g5
(g6
g7
(lp5047
g4746
ag4753
ag4802
ag4840
ag4846
ag4852
ag4857
ag4919
atp5048
Rp5049
(dp5050
g16
g216
sbsbsg206
(icmyPackage
CorE
p5051
(dp5052
g201
(lp5053
(I0
I0
tp5054
a(I0
I11
tp5055
asg205
g5
(g6
g7
(lp5056
g4656
ag4661
ag4671
ag4678
ag4700
ag4728
atp5057
Rp5058
(dp5059
g16
g216
sbsbsg217
(icmyPackage
pattern
p5060
(dp5061
g220
I0
sg221
I0
sg222
(lp5062
(lp5063
S'if'
p5064
aasg227
(lp5065
I1
aI1
aI1
asg229
(lp5066
S'An effective knowledge flow network enables a research team to be very powerful in generating new knowledge if every node can innovate and output new knowledge to appropriate members.'
p5067
asg232
I14
sg233
(lp5068
(lp5069
S'&R@Complete@'
p5070
aa(lp5071
S'&C@Complete@'
p5072
aasbsg242
(lp5073
(isxpPackage
sxpSent
p5074
(dp5075
g246
(lp5076
I18
asg248
VIn this work, we assign tweet x i to cluster j if P t ( t j x i ) u'\u005cu03a4' or P t ( t j x i ) = max k P t ( t k x i
p5077
sg250
I8
sg232
I94
sg251
I29
sbasba(icmyPackage
CELink
p5078
(dp5079
g3
(lp5080
g5
(g6
g7
(lp5081
g5
(g6
g7
(lp5082
g5
(g6
g7
(lp5083
g5
(g6
g7
(lp5084
g5
(g6
g7
(lp5085
VSimilar
p5086
atp5087
Rp5088
(dp5089
g16
VVBG
p5090
sbag5
(g6
g7
(lp5091
g5
(g6
g7
(lp5092
Vto
p5093
atp5094
Rp5095
(dp5096
g16
VTO
p5097
sbag5
(g6
g7
(lp5098
g5
(g6
g7
(lp5099
Vthe
p5100
atp5101
Rp5102
(dp5103
g16
VDT
p5104
sbag5
(g6
g7
(lp5105
Vuniversal
p5106
atp5107
Rp5108
(dp5109
g16
VJJ
p5110
sbag5
(g6
g7
(lp5111
Vmodel
p5112
atp5113
Rp5114
(dp5115
g16
VNN
p5116
sbatp5117
Rp5118
(dp5119
g16
VNP
p5120
sbatp5121
Rp5122
(dp5123
g16
VPP
p5124
sbatp5125
Rp5126
(dp5127
g16
VVP
p5128
sbatp5129
Rp5130
(dp5131
g16
g193
sbag5
(g6
g7
(lp5132
g476
atp5133
Rp5134
(dp5135
g16
g476
sbag5
(g6
g7
(lp5136
g5
(g6
g7
(lp5137
Vwe
p5138
atp5139
Rp5140
(dp5141
g16
VPRP
p5142
sbatp5143
Rp5144
(dp5145
g16
VNP
p5146
sbag5
(g6
g7
(lp5147
g5
(g6
g7
(lp5148
Vtrain
p5149
atp5150
Rp5151
(dp5152
g16
VVBP
p5153
sbag5
(g6
g7
(lp5154
g5
(g6
g7
(lp5155
g5
(g6
g7
(lp5156
VT
p5157
atp5158
Rp5159
(dp5160
g16
VNNP
p5161
sbag5
(g6
g7
(lp5162
Vtopic-specific
p5163
atp5164
Rp5165
(dp5166
g16
VJJ
p5167
sbag5
(g6
g7
(lp5168
Vsentiment
p5169
atp5170
Rp5171
(dp5172
g16
VNN
p5173
sbag5
(g6
g7
(lp5174
Vmodels
p5175
atp5176
Rp5177
(dp5178
g16
VNNS
p5179
sbatp5180
Rp5181
(dp5182
g16
VNP
p5183
sbag5
(g6
g7
(lp5184
g5
(g6
g7
(lp5185
Vwith
p5186
atp5187
Rp5188
(dp5189
g16
VIN
p5190
sbag5
(g6
g7
(lp5191
g5
(g6
g7
(lp5192
VLibSVM
p5193
atp5194
Rp5195
(dp5196
g16
VNNP
p5197
sbatp5198
Rp5199
(dp5200
g16
VNP
p5201
sbatp5202
Rp5203
(dp5204
g16
VPP
p5205
sbatp5206
Rp5207
(dp5208
g16
VNP
p5209
sbatp5210
Rp5211
(dp5212
g16
VVP
p5213
sbatp5214
Rp5215
(dp5216
g16
g193
sbatp5217
Rp5218
(dp5219
g16
VROOT
p5220
sbasg198
(icmyPackage
CorE
p5221
(dp5222
g201
(lp5223
(I0
I0
tp5224
a(I0
I4
tp5225
asg205
g5130
sbsg206
(icmyPackage
CorE
p5226
(dp5227
g201
(lp5228
(I0
I6
tp5229
a(I0
I13
tp5230
asg205
g5
(g6
g7
(lp5231
g5144
ag5211
atp5232
Rp5233
(dp5234
g16
g216
sbsbsg217
(icmyPackage
pattern
p5235
(dp5236
g220
I30
sg221
I0
sg222
(lp5237
sg227
(lp5238
I3
aI2
aI1
asg229
(lp5239
S'Being over here we tend to be a bit isolated.'
p5240
aS'Not being sure of the word, he turned it up in the dictionary.'
p5241
asg232
I81
sg233
(lp5242
(lp5243
S'&V-ing@C@'
p5244
aS'(,)'
p5245
aS'&R@Complete@'
p5246
aasbsg242
(lp5247
(isxpPackage
sxpSent
p5248
(dp5249
g246
(lp5250
I19
asg248
VSimilar to the universal model, we train T topic-specific sentiment models with LibSVM
p5251
sg250
I8
sg232
I96
sg251
I29
sbasba(icmyPackage
CELink
p5252
(dp5253
g3
(lp5254
g5
(g6
g7
(lp5255
g5
(g6
g7
(lp5256
g5
(g6
g7
(lp5257
g5
(g6
g7
(lp5258
g5
(g6
g7
(lp5259
VCluster
p5260
atp5261
Rp5262
(dp5263
g16
VVB
p5264
sbag5
(g6
g7
(lp5265
g5
(g6
g7
(lp5266
g5
(g6
g7
(lp5267
Vdata
p5268
atp5269
Rp5270
(dp5271
g16
VNNS
p5272
sbatp5273
Rp5274
(dp5275
g16
VNP
p5276
sbag5
(g6
g7
(lp5277
g5
(g6
g7
(lp5278
Vin
p5279
atp5280
Rp5281
(dp5282
g16
VIN
p5283
sbag5
(g6
g7
(lp5284
g5
(g6
g7
(lp5285
VD
p5286
atp5287
Rp5288
(dp5289
g16
VNNP
p5290
sbatp5291
Rp5292
(dp5293
g16
VNP
p5294
sbatp5295
Rp5296
(dp5297
g16
VPP
p5298
sbatp5299
Rp5300
(dp5301
g16
VNP
p5302
sbag5
(g6
g7
(lp5303
g5
(g6
g7
(lp5304
Vbased
p5305
atp5306
Rp5307
(dp5308
g16
VVBN
p5309
sbag5
(g6
g7
(lp5310
g5
(g6
g7
(lp5311
Von
p5312
atp5313
Rp5314
(dp5315
g16
VIN
p5316
sbag5
(g6
g7
(lp5317
g5
(g6
g7
(lp5318
g5
(g6
g7
(lp5319
Vthe
p5320
atp5321
Rp5322
(dp5323
g16
VDT
p5324
sbag5
(g6
g7
(lp5325
Vtopic
p5326
atp5327
Rp5328
(dp5329
g16
VNN
p5330
sbag5
(g6
g7
(lp5331
Vdistributions
p5332
atp5333
Rp5334
(dp5335
g16
VNNS
p5336
sbatp5337
Rp5338
(dp5339
g16
VNP
p5340
sbag5
(g6
g7
(lp5341
g5
(g6
g7
(lp5342
Vfrom
p5343
atp5344
Rp5345
(dp5346
g16
VIN
p5347
sbag5
(g6
g7
(lp5348
g5
(g6
g7
(lp5349
VStep
p5350
atp5351
Rp5352
(dp5353
g16
VNN
p5354
sbag5
(g6
g7
(lp5355
V5
p5356
atp5357
Rp5358
(dp5359
g16
VCD
p5360
sbatp5361
Rp5362
(dp5363
g16
VNP
p5364
sbatp5365
Rp5366
(dp5367
g16
VPP
p5368
sbatp5369
Rp5370
(dp5371
g16
VNP
p5372
sbatp5373
Rp5374
(dp5375
g16
VPP
p5376
sbatp5377
Rp5378
(dp5379
g16
VPP
p5380
sbatp5381
Rp5382
(dp5383
g16
VVP
p5384
sbag5
(g6
g7
(lp5385
Vand
p5386
atp5387
Rp5388
(dp5389
g16
VCC
p5390
sbag5
(g6
g7
(lp5391
g5
(g6
g7
(lp5392
Vtrain
p5393
atp5394
Rp5395
(dp5396
g16
VVB
p5397
sbag5
(g6
g7
(lp5398
g5
(g6
g7
(lp5399
g382
atp5400
Rp5401
(dp5402
g16
VDT
p5403
sbag5
(g6
g7
(lp5404
Vseparate
p5405
atp5406
Rp5407
(dp5408
g16
VJJ
p5409
sbag5
(g6
g7
(lp5410
Vsentiment
p5411
atp5412
Rp5413
(dp5414
g16
VNN
p5415
sbag5
(g6
g7
(lp5416
Vmodel
p5417
atp5418
Rp5419
(dp5420
g16
VNN
p5421
sbatp5422
Rp5423
(dp5424
g16
VNP
p5425
sbag5
(g6
g7
(lp5426
g5
(g6
g7
(lp5427
Vfor
p5428
atp5429
Rp5430
(dp5431
g16
VIN
p5432
sbag5
(g6
g7
(lp5433
g5
(g6
g7
(lp5434
Veach
p5435
atp5436
Rp5437
(dp5438
g16
VDT
p5439
sbag5
(g6
g7
(lp5440
Vcluster
p5441
atp5442
Rp5443
(dp5444
g16
VNN
p5445
sbatp5446
Rp5447
(dp5448
g16
VNP
p5449
sbatp5450
Rp5451
(dp5452
g16
VPP
p5453
sbatp5454
Rp5455
(dp5456
g16
VVP
p5457
sbatp5458
Rp5459
(dp5460
g16
VVP
p5461
sbatp5462
Rp5463
(dp5464
g16
g193
sbatp5465
Rp5466
(dp5467
g16
VROOT
p5468
sbasg198
(icmyPackage
CorE
p5469
(dp5470
g201
(lp5471
(I0
I6
tp5472
a(I0
I20
tp5473
asg205
g5
(g6
g7
(lp5474
g5370
ag5388
ag5455
atp5475
Rp5476
(dp5477
g16
g216
sbsbsg206
(icmyPackage
CorE
p5478
(dp5479
g201
(lp5480
(I0
I0
tp5481
a(I0
I3
tp5482
asg205
g5
(g6
g7
(lp5483
g5262
ag5300
atp5484
Rp5485
(dp5486
g16
g216
sbsbsg217
g218
sg242
(lp5487
(isxpPackage
sxpSent
p5488
(dp5489
g246
(lp5490
I20
asg248
VCluster data in D based on the topic distributions from Step 5 and train a separate sentiment model for each cluster
p5491
sg250
I10
sg232
I112
sg251
I40
sbasba(icmyPackage
CELink
p5492
(dp5493
g3
(lp5494
g5
(g6
g7
(lp5495
g5
(g6
g7
(lp5496
g5
(g6
g7
(lp5497
g5
(g6
g7
(lp5498
VFor
p5499
atp5500
Rp5501
(dp5502
g16
VIN
p5503
sbag5
(g6
g7
(lp5504
g5
(g6
g7
(lp5505
Vevaluation
p5506
atp5507
Rp5508
(dp5509
g16
VNN
p5510
sbatp5511
Rp5512
(dp5513
g16
VNP
p5514
sbatp5515
Rp5516
(dp5517
g16
VPP
p5518
sbag5
(g6
g7
(lp5519
g476
atp5520
Rp5521
(dp5522
g16
g476
sbag5
(g6
g7
(lp5523
g5
(g6
g7
(lp5524
Vwe
p5525
atp5526
Rp5527
(dp5528
g16
VPRP
p5529
sbatp5530
Rp5531
(dp5532
g16
VNP
p5533
sbag5
(g6
g7
(lp5534
g5
(g6
g7
(lp5535
Vuse
p5536
atp5537
Rp5538
(dp5539
g16
VVBP
p5540
sbag5
(g6
g7
(lp5541
g5
(g6
g7
(lp5542
g5
(g6
g7
(lp5543
g5
(g6
g7
(lp5544
Vmacro
p5545
atp5546
Rp5547
(dp5548
g16
VNN
p5549
sbatp5550
Rp5551
(dp5552
g16
VNP
p5553
sbag5
(g6
g7
(lp5554
g5
(g6
g7
(lp5555
Vaveraged
p5556
atp5557
Rp5558
(dp5559
g16
VVBD
p5560
sbag5
(g6
g7
(lp5561
g5
(g6
g7
(lp5562
VF
p5563
atp5564
Rp5565
(dp5566
g16
VNN
p5567
sbag5
(g6
g7
(lp5568
Vscore
p5569
atp5570
Rp5571
(dp5572
g16
VNN
p5573
sbatp5574
Rp5575
(dp5576
g16
VNP
p5577
sbag5
(g6
g7
(lp5578
g5
(g6
g7
(lp5579
Vas
p5580
atp5581
Rp5582
(dp5583
g16
VIN
p5584
sbag5
(g6
g7
(lp5585
Vin
p5586
atp5587
Rp5588
(dp5589
g16
VIN
p5590
sbag5
(g6
g7
(lp5591
g5
(g6
g7
(lp5592
g5
(g6
g7
(lp5593
V-LSB-
p5594
atp5595
Rp5596
(dp5597
g16
VNNP
p5598
sbag5
(g6
g7
(lp5599
VNakov
p5600
atp5601
Rp5602
(dp5603
g16
VNNP
p5604
sbag5
(g6
g7
(lp5605
Vet
p5606
atp5607
Rp5608
(dp5609
g16
VNNP
p5610
sbatp5611
Rp5612
(dp5613
g16
VNP
p5614
sbag5
(g6
g7
(lp5615
g5
(g6
g7
(lp5616
g5
(g6
g7
(lp5617
g5
(g6
g7
(lp5618
Val.
p5619
atp5620
Rp5621
(dp5622
g16
VVB
p5623
sbag5
(g6
g7
(lp5624
g5
(g6
g7
(lp5625
V2013
p5626
atp5627
Rp5628
(dp5629
g16
VCD
p5630
sbag5
(g6
g7
(lp5631
V-RSB-
p5632
atp5633
Rp5634
(dp5635
g16
VNNS
p5636
sbatp5637
Rp5638
(dp5639
g16
VNP
p5640
sbatp5641
Rp5642
(dp5643
g16
VVP
p5644
sbatp5645
Rp5646
(dp5647
g16
g193
sbag5
(g6
g7
(lp5648
g476
atp5649
Rp5650
(dp5651
g16
g476
sbag5
(g6
g7
(lp5652
Vi.e.
p5653
atp5654
Rp5655
(dp5656
g16
VFW
p5657
sbag5
(g6
g7
(lp5658
g476
atp5659
Rp5660
(dp5661
g16
g476
sbag5
(g6
g7
(lp5662
g5
(g6
g7
(lp5663
g5
(g6
g7
(lp5664
Vaverage
p5665
atp5666
Rp5667
(dp5668
g16
VJJ
p5669
sbag5
(g6
g7
(lp5670
g5
(g6
g7
(lp5671
Vof
p5672
atp5673
Rp5674
(dp5675
g16
VIN
p5676
sbag5
(g6
g7
(lp5677
g5
(g6
g7
(lp5678
g5
(g6
g7
(lp5679
Vthe
p5680
atp5681
Rp5682
(dp5683
g16
VDT
p5684
sbag5
(g6
g7
(lp5685
g5563
atp5686
Rp5687
(dp5688
g16
VNN
p5689
sbag5
(g6
g7
(lp5690
Vscores
p5691
atp5692
Rp5693
(dp5694
g16
VNNS
p5695
sbatp5696
Rp5697
(dp5698
g16
VNP
p5699
sbag5
(g6
g7
(lp5700
g5
(g6
g7
(lp5701
Vcomputed
p5702
atp5703
Rp5704
(dp5705
g16
VVBN
p5706
sbag5
(g6
g7
(lp5707
g5
(g6
g7
(lp5708
Von
p5709
atp5710
Rp5711
(dp5712
g16
VIN
p5713
sbag5
(g6
g7
(lp5714
g5
(g6
g7
(lp5715
g5
(g6
g7
(lp5716
Vpositive
p5717
atp5718
Rp5719
(dp5720
g16
VJJ
p5721
sbag5
(g6
g7
(lp5722
Vand
p5723
atp5724
Rp5725
(dp5726
g16
VCC
p5727
sbag5
(g6
g7
(lp5728
Vnegative
p5729
atp5730
Rp5731
(dp5732
g16
VJJ
p5733
sbatp5734
Rp5735
(dp5736
g16
VADJP
p5737
sbag5
(g6
g7
(lp5738
Vclasses
p5739
atp5740
Rp5741
(dp5742
g16
VNNS
p5743
sbatp5744
Rp5745
(dp5746
g16
VNP
p5747
sbag5
(g6
g7
(lp5748
g5
(g6
g7
(lp5749
Vonly
p5750
atp5751
Rp5752
(dp5753
g16
VRB
p5754
sbatp5755
Rp5756
(dp5757
g16
VADVP
p5758
sbatp5759
Rp5760
(dp5761
g16
VPP
p5762
sbatp5763
Rp5764
(dp5765
g16
VVP
p5766
sbatp5767
Rp5768
(dp5769
g16
VNP
p5770
sbatp5771
Rp5772
(dp5773
g16
VPP
p5774
sbatp5775
Rp5776
(dp5777
g16
VADJP
p5778
sbatp5779
Rp5780
(dp5781
g16
g193
sbatp5782
Rp5783
(dp5784
g16
g193
sbatp5785
Rp5786
(dp5787
g16
VNP
p5788
sbatp5789
Rp5790
(dp5791
g16
VPP
p5792
sbatp5793
Rp5794
(dp5795
g16
VVP
p5796
sbatp5797
Rp5798
(dp5799
g16
g193
sbatp5800
Rp5801
(dp5802
g16
VSBAR
p5803
sbatp5804
Rp5805
(dp5806
g16
VVP
p5807
sbatp5808
Rp5809
(dp5810
g16
g193
sbatp5811
Rp5812
(dp5813
g16
VROOT
p5814
sbag5
(g6
g7
(lp5815
g5
(g6
g7
(lp5816
g5
(g6
g7
(lp5817
g5
(g6
g7
(lp5818
VNote
p5819
atp5820
Rp5821
(dp5822
g16
VVB
p5823
sbag5
(g6
g7
(lp5824
g5
(g6
g7
(lp5825
Vthat
p5826
atp5827
Rp5828
(dp5829
g16
VIN
p5830
sbag5
(g6
g7
(lp5831
g5
(g6
g7
(lp5832
g5
(g6
g7
(lp5833
Vthis
p5834
atp5835
Rp5836
(dp5837
g16
VDT
p5838
sbatp5839
Rp5840
(dp5841
g16
VNP
p5842
sbag5
(g6
g7
(lp5843
g5
(g6
g7
(lp5844
Vdoes
p5845
atp5846
Rp5847
(dp5848
g16
VVBZ
p5849
sbag5
(g6
g7
(lp5850
Vnot
p5851
atp5852
Rp5853
(dp5854
g16
VRB
p5855
sbag5
(g6
g7
(lp5856
g5
(g6
g7
(lp5857
Vmake
p5858
atp5859
Rp5860
(dp5861
g16
VVB
p5862
sbag5
(g6
g7
(lp5863
g5
(g6
g7
(lp5864
Vthe
p5865
atp5866
Rp5867
(dp5868
g16
VDT
p5869
sbag5
(g6
g7
(lp5870
Vtask
p5871
atp5872
Rp5873
(dp5874
g16
VNN
p5875
sbatp5876
Rp5877
(dp5878
g16
VNP
p5879
sbatp5880
Rp5881
(dp5882
g16
VVP
p5883
sbatp5884
Rp5885
(dp5886
g16
VVP
p5887
sbatp5888
Rp5889
(dp5890
g16
g193
sbatp5891
Rp5892
(dp5893
g16
VSBAR
p5894
sbatp5895
Rp5896
(dp5897
g16
VVP
p5898
sbag5
(g6
g7
(lp5899
g5
(g6
g7
(lp5900
g382
atp5901
Rp5902
(dp5903
g16
VDT
p5904
sbag5
(g6
g7
(lp5905
Vbinary
p5906
atp5907
Rp5908
(dp5909
g16
VJJ
p5910
sbag5
(g6
g7
(lp5911
Vclassification
p5912
atp5913
Rp5914
(dp5915
g16
VNN
p5916
sbag5
(g6
g7
(lp5917
Vproblem
p5918
atp5919
Rp5920
(dp5921
g16
VNN
p5922
sbatp5923
Rp5924
(dp5925
g16
VNP
p5926
sbatp5927
Rp5928
(dp5929
g16
VSINV
p5930
sbatp5931
Rp5932
(dp5933
g16
VROOT
p5934
sbasg198
(icmyPackage
CorE
p5935
(dp5936
g201
(lp5937
(I0
I10
tp5938
a(I1
I2
tp5939
asg205
g5
(g6
g7
(lp5940
g5588
ag5786
ag5821
ag5828
ag5840
atp5941
Rp5942
(dp5943
g16
g216
sbsbsg206
(icmyPackage
CorE
p5944
(dp5945
g201
(lp5946
(I0
I0
tp5947
a(I0
I8
tp5948
asg205
g5
(g6
g7
(lp5949
g5516
ag5521
ag5531
ag5538
ag5551
ag5558
ag5575
atp5950
Rp5951
(dp5952
g16
g216
sbsbsg217
g691
sg242
(lp5953
(isxpPackage
sxpSent
p5954
(dp5955
g246
(lp5956
I21
asg248
VFor evaluation, we use macro averaged F score as in [ Nakov et al.2013 ] , i.e., average of the F scores computed on positive and negative classes only
p5957
sg250
I12
sg232
I122
sg251
I44
sba(isxpPackage
sxpSent
p5958
(dp5959
g246
(lp5960
I21
asg248
VNote that this does not make the task a binary classification problem
p5961
sg250
I12
sg232
I123
sg251
I44
sbasba(icmyPackage
CELink
p5962
(dp5963
g3
(lp5964
g5
(g6
g7
(lp5965
g5
(g6
g7
(lp5966
g5
(g6
g7
(lp5967
g5
(g6
g7
(lp5968
VDue
p5969
atp5970
Rp5971
(dp5972
g16
VJJ
p5973
sbag5
(g6
g7
(lp5974
Vto
p5975
atp5976
Rp5977
(dp5978
g16
VTO
p5979
sbag5
(g6
g7
(lp5980
g5
(g6
g7
(lp5981
g5
(g6
g7
(lp5982
Vthe
p5983
atp5984
Rp5985
(dp5986
g16
VDT
p5987
sbag5
(g6
g7
(lp5988
Vskewness
p5989
atp5990
Rp5991
(dp5992
g16
VNNS
p5993
sbatp5994
Rp5995
(dp5996
g16
VNP
p5997
sbag5
(g6
g7
(lp5998
g5
(g6
g7
(lp5999
Vin
p6000
atp6001
Rp6002
(dp6003
g16
VIN
p6004
sbag5
(g6
g7
(lp6005
g5
(g6
g7
(lp6006
g5
(g6
g7
(lp6007
Vclass
p6008
atp6009
Rp6010
(dp6011
g16
VNN
p6012
sbag5
(g6
g7
(lp6013
Vdistribution
p6014
atp6015
Rp6016
(dp6017
g16
VNN
p6018
sbatp6019
Rp6020
(dp6021
g16
VNP
p6022
sbag5
(g6
g7
(lp6023
g5
(g6
g7
(lp6024
Vin
p6025
atp6026
Rp6027
(dp6028
g16
VIN
p6029
sbag5
(g6
g7
(lp6030
g5
(g6
g7
(lp6031
g5
(g6
g7
(lp6032
Vthe
p6033
atp6034
Rp6035
(dp6036
g16
VDT
p6037
sbag5
(g6
g7
(lp6038
Vtraining
p6039
atp6040
Rp6041
(dp6042
g16
VNN
p6043
sbatp6044
Rp6045
(dp6046
g16
VNP
p6047
sbag5
(g6
g7
(lp6048
g5
(g6
g7
(lp6049
Vset
p6050
atp6051
Rp6052
(dp6053
g16
VVBN
p6054
sbatp6055
Rp6056
(dp6057
g16
VVP
p6058
sbatp6059
Rp6060
(dp6061
g16
VNP
p6062
sbatp6063
Rp6064
(dp6065
g16
VPP
p6066
sbatp6067
Rp6068
(dp6069
g16
VNP
p6070
sbatp6071
Rp6072
(dp6073
g16
VPP
p6074
sbatp6075
Rp6076
(dp6077
g16
VNP
p6078
sbatp6079
Rp6080
(dp6081
g16
VPP
p6082
sbag5
(g6
g7
(lp6083
g476
atp6084
Rp6085
(dp6086
g16
g476
sbag5
(g6
g7
(lp6087
g5
(g6
g7
(lp6088
Vit
p6089
atp6090
Rp6091
(dp6092
g16
VPRP
p6093
sbatp6094
Rp6095
(dp6096
g16
VNP
p6097
sbag5
(g6
g7
(lp6098
g5
(g6
g7
(lp6099
Vis
p6100
atp6101
Rp6102
(dp6103
g16
VVBZ
p6104
sbag5
(g6
g7
(lp6105
g5
(g6
g7
(lp6106
Vobserved
p6107
atp6108
Rp6109
(dp6110
g16
VVBN
p6111
sbag5
(g6
g7
(lp6112
g5
(g6
g7
(lp6113
Vduring
p6114
atp6115
Rp6116
(dp6117
g16
VIN
p6118
sbag5
(g6
g7
(lp6119
g5
(g6
g7
(lp6120
Verror
p6121
atp6122
Rp6123
(dp6124
g16
VNN
p6125
sbag5
(g6
g7
(lp6126
Vanalysis
p6127
atp6128
Rp6129
(dp6130
g16
VNN
p6131
sbatp6132
Rp6133
(dp6134
g16
VNP
p6135
sbatp6136
Rp6137
(dp6138
g16
VPP
p6139
sbag5
(g6
g7
(lp6140
g5
(g6
g7
(lp6141
Von
p6142
atp6143
Rp6144
(dp6145
g16
VIN
p6146
sbag5
(g6
g7
(lp6147
g5
(g6
g7
(lp6148
g5
(g6
g7
(lp6149
Vthe
p6150
atp6151
Rp6152
(dp6153
g16
VDT
p6154
sbag5
(g6
g7
(lp6155
Vdevelopment
p6156
atp6157
Rp6158
(dp6159
g16
VNN
p6160
sbatp6161
Rp6162
(dp6163
g16
VNP
p6164
sbag5
(g6
g7
(lp6165
g5
(g6
g7
(lp6166
Vset
p6167
atp6168
Rp6169
(dp6170
g16
VVBN
p6171
sbag5
(g6
g7
(lp6172
g5
(g6
g7
(lp6173
Vthat
p6174
atp6175
Rp6176
(dp6177
g16
VIN
p6178
sbag5
(g6
g7
(lp6179
g5
(g6
g7
(lp6180
g5
(g6
g7
(lp6181
Vsubjective
p6182
atp6183
Rp6184
(dp6185
g16
VJJ
p6186
sbag5
(g6
g7
(lp6187
g5
(g6
g7
(lp6188
V-LRB-
p6189
atp6190
Rp6191
(dp6192
g16
V-LRB-
p6193
sbag5
(g6
g7
(lp6194
g5
(g6
g7
(lp6195
Vpositive/negative
p6196
atp6197
Rp6198
(dp6199
g16
VNN
p6200
sbatp6201
Rp6202
(dp6203
g16
VNP
p6204
sbag5
(g6
g7
(lp6205
V-RRB-
p6206
atp6207
Rp6208
(dp6209
g16
V-RRB-
p6210
sbatp6211
Rp6212
(dp6213
g16
VPRN
p6214
sbag5
(g6
g7
(lp6215
Vtweets
p6216
atp6217
Rp6218
(dp6219
g16
VNNS
p6220
sbatp6221
Rp6222
(dp6223
g16
VNP
p6224
sbag5
(g6
g7
(lp6225
g5
(g6
g7
(lp6226
Vare
p6227
atp6228
Rp6229
(dp6230
g16
VVBP
p6231
sbag5
(g6
g7
(lp6232
g5
(g6
g7
(lp6233
Vmore
p6234
atp6235
Rp6236
(dp6237
g16
VRBR
p6238
sbag5
(g6
g7
(lp6239
Vlikely
p6240
atp6241
Rp6242
(dp6243
g16
VJJ
p6244
sbag5
(g6
g7
(lp6245
g5
(g6
g7
(lp6246
g5
(g6
g7
(lp6247
Vto
p6248
atp6249
Rp6250
(dp6251
g16
VTO
p6252
sbag5
(g6
g7
(lp6253
g5
(g6
g7
(lp6254
Vbe
p6255
atp6256
Rp6257
(dp6258
g16
VVB
p6259
sbag5
(g6
g7
(lp6260
g5
(g6
g7
(lp6261
Vclassified
p6262
atp6263
Rp6264
(dp6265
g16
VVBN
p6266
sbag5
(g6
g7
(lp6267
g5
(g6
g7
(lp6268
Vas
p6269
atp6270
Rp6271
(dp6272
g16
VIN
p6273
sbag5
(g6
g7
(lp6274
g5
(g6
g7
(lp6275
Vneutral
p6276
atp6277
Rp6278
(dp6279
g16
VJJ
p6280
sbag5
(g6
g7
(lp6281
Vtweets
p6282
atp6283
Rp6284
(dp6285
g16
VNNS
p6286
sbatp6287
Rp6288
(dp6289
g16
VNP
p6290
sbatp6291
Rp6292
(dp6293
g16
VPP
p6294
sbatp6295
Rp6296
(dp6297
g16
VVP
p6298
sbatp6299
Rp6300
(dp6301
g16
VVP
p6302
sbatp6303
Rp6304
(dp6305
g16
VVP
p6306
sbatp6307
Rp6308
(dp6309
g16
g193
sbatp6310
Rp6311
(dp6312
g16
VADJP
p6313
sbatp6314
Rp6315
(dp6316
g16
VVP
p6317
sbatp6318
Rp6319
(dp6320
g16
g193
sbatp6321
Rp6322
(dp6323
g16
VSBAR
p6324
sbatp6325
Rp6326
(dp6327
g16
VVP
p6328
sbatp6329
Rp6330
(dp6331
g16
VNP
p6332
sbatp6333
Rp6334
(dp6335
g16
VPP
p6336
sbatp6337
Rp6338
(dp6339
g16
VVP
p6340
sbatp6341
Rp6342
(dp6343
g16
VVP
p6344
sbatp6345
Rp6346
(dp6347
g16
g193
sbatp6348
Rp6349
(dp6350
g16
VROOT
p6351
sbag5
(g6
g7
(lp6352
g5
(g6
g7
(lp6353
g5
(g6
g7
(lp6354
g5
(g6
g7
(lp6355
g5
(g6
g7
(lp6356
VThe
p6357
atp6358
Rp6359
(dp6360
g16
VDT
p6361
sbag5
(g6
g7
(lp6362
Vweights
p6363
atp6364
Rp6365
(dp6366
g16
VNNS
p6367
sbatp6368
Rp6369
(dp6370
g16
VNP
p6371
sbag5
(g6
g7
(lp6372
g5
(g6
g7
(lp6373
Vfor
p6374
atp6375
Rp6376
(dp6377
g16
VIN
p6378
sbag5
(g6
g7
(lp6379
g5
(g6
g7
(lp6380
g5
(g6
g7
(lp6381
Vpositive
p6382
atp6383
Rp6384
(dp6385
g16
VJJ
p6386
sbag5
(g6
g7
(lp6387
g476
atp6388
Rp6389
(dp6390
g16
g476
sbag5
(g6
g7
(lp6391
Vneutral
p6392
atp6393
Rp6394
(dp6395
g16
VJJ
p6396
sbag5
(g6
g7
(lp6397
Vand
p6398
atp6399
Rp6400
(dp6401
g16
VCC
p6402
sbag5
(g6
g7
(lp6403
Vnegative
p6404
atp6405
Rp6406
(dp6407
g16
VJJ
p6408
sbatp6409
Rp6410
(dp6411
g16
VADJP
p6412
sbag5
(g6
g7
(lp6413
Vsamples
p6414
atp6415
Rp6416
(dp6417
g16
VNNS
p6418
sbatp6419
Rp6420
(dp6421
g16
VNP
p6422
sbatp6423
Rp6424
(dp6425
g16
VPP
p6426
sbatp6427
Rp6428
(dp6429
g16
VNP
p6430
sbag5
(g6
g7
(lp6431
g5
(g6
g7
(lp6432
Vare
p6433
atp6434
Rp6435
(dp6436
g16
VVBP
p6437
sbag5
(g6
g7
(lp6438
g5
(g6
g7
(lp6439
Vset
p6440
atp6441
Rp6442
(dp6443
g16
VVBN
p6444
sbag5
(g6
g7
(lp6445
g5
(g6
g7
(lp6446
g5
(g6
g7
(lp6447
Vto
p6448
atp6449
Rp6450
(dp6451
g16
VTO
p6452
sbag5
(g6
g7
(lp6453
g5
(g6
g7
(lp6454
Vbe
p6455
atp6456
Rp6457
(dp6458
g16
VVB
p6459
sbag5
(g6
g7
(lp6460
g5
(g6
g7
(lp6461
g5
(g6
g7
(lp6462
V-LRB-
p6463
atp6464
Rp6465
(dp6466
g16
V-LRB-
p6467
sbag5
(g6
g7
(lp6468
g5
(g6
g7
(lp6469
g5
(g6
g7
(lp6470
g2342
atp6471
Rp6472
(dp6473
g16
VCD
p6474
sbatp6475
Rp6476
(dp6477
g16
VNP
p6478
sbag5
(g6
g7
(lp6479
g476
atp6480
Rp6481
(dp6482
g16
g476
sbag5
(g6
g7
(lp6483
g5
(g6
g7
(lp6484
V0.4
p6485
atp6486
Rp6487
(dp6488
g16
VCD
p6489
sbatp6490
Rp6491
(dp6492
g16
VNP
p6493
sbag5
(g6
g7
(lp6494
g476
atp6495
Rp6496
(dp6497
g16
g476
sbag5
(g6
g7
(lp6498
g5
(g6
g7
(lp6499
g2342
atp6500
Rp6501
(dp6502
g16
VCD
p6503
sbatp6504
Rp6505
(dp6506
g16
VNP
p6507
sbatp6508
Rp6509
(dp6510
g16
VNP
p6511
sbag5
(g6
g7
(lp6512
V-RRB-
p6513
atp6514
Rp6515
(dp6516
g16
V-RRB-
p6517
sbatp6518
Rp6519
(dp6520
g16
VPRN
p6521
sbag5
(g6
g7
(lp6522
Vbased
p6523
atp6524
Rp6525
(dp6526
g16
VVBN
p6527
sbatp6528
Rp6529
(dp6530
g16
VVP
p6531
sbatp6532
Rp6533
(dp6534
g16
VVP
p6535
sbatp6536
Rp6537
(dp6538
g16
VVP
p6539
sbatp6540
Rp6541
(dp6542
g16
g193
sbag5
(g6
g7
(lp6543
g5
(g6
g7
(lp6544
Von
p6545
atp6546
Rp6547
(dp6548
g16
VIN
p6549
sbag5
(g6
g7
(lp6550
g5
(g6
g7
(lp6551
g5
(g6
g7
(lp6552
Vthe
p6553
atp6554
Rp6555
(dp6556
g16
VDT
p6557
sbag5
(g6
g7
(lp6558
Vresults
p6559
atp6560
Rp6561
(dp6562
g16
VNNS
p6563
sbatp6564
Rp6565
(dp6566
g16
VNP
p6567
sbag5
(g6
g7
(lp6568
g5
(g6
g7
(lp6569
Von
p6570
atp6571
Rp6572
(dp6573
g16
VIN
p6574
sbag5
(g6
g7
(lp6575
g5
(g6
g7
(lp6576
Vthe
p6577
atp6578
Rp6579
(dp6580
g16
VDT
p6581
sbag5
(g6
g7
(lp6582
Vdevelopment
p6583
atp6584
Rp6585
(dp6586
g16
VNN
p6587
sbag5
(g6
g7
(lp6588
Vset
p6589
atp6590
Rp6591
(dp6592
g16
VNN
p6593
sbatp6594
Rp6595
(dp6596
g16
VNP
p6597
sbatp6598
Rp6599
(dp6600
g16
VPP
p6601
sbatp6602
Rp6603
(dp6604
g16
VNP
p6605
sbatp6606
Rp6607
(dp6608
g16
VPP
p6609
sbatp6610
Rp6611
(dp6612
g16
VVP
p6613
sbatp6614
Rp6615
(dp6616
g16
VVP
p6617
sbatp6618
Rp6619
(dp6620
g16
g193
sbatp6621
Rp6622
(dp6623
g16
VROOT
p6624
sbasg198
(icmyPackage
CorE
p6625
(dp6626
g201
(lp6627
(I0
I35
tp6628
a(I1
I19
tp6629
asg205
g5
(g6
g7
(lp6630
g6288
ag6428
ag6435
ag6442
ag6450
ag6457
ag6519
atp6631
Rp6632
(dp6633
g16
g216
sbsbsg206
(icmyPackage
CorE
p6634
(dp6635
g201
(lp6636
(I0
I0
tp6637
a(I0
I33
tp6638
asg205
g5
(g6
g7
(lp6639
g6080
ag6085
ag6095
ag6102
ag6109
ag6137
ag6144
ag6162
ag6169
ag6176
ag6222
ag6229
ag6236
ag6242
ag6250
ag6257
ag6264
atp6640
Rp6641
(dp6642
g16
g216
sbsbsg217
g691
sg242
(lp6643
(isxpPackage
sxpSent
p6644
(dp6645
g246
(lp6646
I22
asg248
VDue to the skewness in class distribution in the training set, it is observed during error analysis on the development set that subjective (positive/negative) tweets are more likely to be classified as neutral tweets
p6647
sg250
I13
sg232
I127
sg251
I45
sba(isxpPackage
sxpSent
p6648
(dp6649
g246
(lp6650
I22
aI23
aI24
asg248
VThe weights for positive, neutral and negative samples are set to be (1, 0.4, 1) based on the results on the development set
p6651
sg250
I13
sg232
I128
sg251
I45
sbasba(icmyPackage
CELink
p6652
(dp6653
g3
(lp6654
g6622
asg198
(icmyPackage
CorE
p6655
(dp6656
g201
(lp6657
(I0
I22
tp6658
a(I0
I27
tp6659
asg205
g6603
sbsg206
(icmyPackage
CorE
p6660
(dp6661
g201
(lp6662
(I0
I0
tp6663
a(I0
I19
tp6664
asg205
g5
(g6
g7
(lp6665
g6428
ag6435
ag6442
ag6450
ag6457
ag6519
atp6666
Rp6667
(dp6668
g16
g216
sbsbsg217
g218
sg242
(lp6669
g6648
asba(icmyPackage
CELink
p6670
(dp6671
g3
(lp6672
g6622
ag5
(g6
g7
(lp6673
g5
(g6
g7
(lp6674
g5
(g6
g7
(lp6675
g5
(g6
g7
(lp6676
VAs
p6677
atp6678
Rp6679
(dp6680
g16
VIN
p6681
sbag5
(g6
g7
(lp6682
g5
(g6
g7
(lp6683
g5
(g6
g7
(lp6684
Vshown
p6685
atp6686
Rp6687
(dp6688
g16
VVBN
p6689
sbag5
(g6
g7
(lp6690
g5
(g6
g7
(lp6691
Vin
p6692
atp6693
Rp6694
(dp6695
g16
VIN
p6696
sbag5
(g6
g7
(lp6697
g5
(g6
g7
(lp6698
VTable
p6699
atp6700
Rp6701
(dp6702
g16
VNNP
p6703
sbag5
(g6
g7
(lp6704
V2
p6705
atp6706
Rp6707
(dp6708
g16
VCD
p6709
sbatp6710
Rp6711
(dp6712
g16
VNP
p6713
sbatp6714
Rp6715
(dp6716
g16
VPP
p6717
sbatp6718
Rp6719
(dp6720
g16
VVP
p6721
sbatp6722
Rp6723
(dp6724
g16
g193
sbatp6725
Rp6726
(dp6727
g16
VSBAR
p6728
sbag5
(g6
g7
(lp6729
g476
atp6730
Rp6731
(dp6732
g16
g476
sbag5
(g6
g7
(lp6733
g5
(g6
g7
(lp6734
Vweighting
p6735
atp6736
Rp6737
(dp6738
g16
VNN
p6739
sbatp6740
Rp6741
(dp6742
g16
VNP
p6743
sbag5
(g6
g7
(lp6744
g5
(g6
g7
(lp6745
Vadds
p6746
atp6747
Rp6748
(dp6749
g16
VVBZ
p6750
sbag5
(g6
g7
(lp6751
g5
(g6
g7
(lp6752
g382
atp6753
Rp6754
(dp6755
g16
VDT
p6756
sbag5
(g6
g7
(lp6757
g5
(g6
g7
(lp6758
g6705
atp6759
Rp6760
(dp6761
g16
VCD
p6762
sbag5
(g6
g7
(lp6763
V%
p6764
atp6765
Rp6766
(dp6767
g16
VNN
p6768
sbatp6769
Rp6770
(dp6771
g16
VADJP
p6772
sbag5
(g6
g7
(lp6773
Vimprovement
p6774
atp6775
Rp6776
(dp6777
g16
VNN
p6778
sbatp6779
Rp6780
(dp6781
g16
VNP
p6782
sbatp6783
Rp6784
(dp6785
g16
VVP
p6786
sbatp6787
Rp6788
(dp6789
g16
g193
sbatp6790
Rp6791
(dp6792
g16
VROOT
p6793
sbasg198
(icmyPackage
CorE
p6794
(dp6795
g201
(lp6796
(I1
I1
tp6797
a(I1
I11
tp6798
asg205
g5
(g6
g7
(lp6799
g6723
ag6731
ag6741
ag6784
atp6800
Rp6801
(dp6802
g16
g216
sbsbsg206
(icmyPackage
CorE
p6803
(dp6804
g201
(lp6805
(I0
I0
tp6806
a(I0
I27
tp6807
asg205
g6622
sbsg217
g691
sg242
(lp6808
g6648
a(isxpPackage
sxpSent
p6809
(dp6810
g246
(lp6811
I24
asg248
VAs shown in Table 2 , weighting adds a 2% improvement
p6812
sg250
I13
sg232
I129
sg251
I45
sbasba(icmyPackage
CELink
p6813
(dp6814
g3
(lp6815
g5
(g6
g7
(lp6816
g5
(g6
g7
(lp6817
g5
(g6
g7
(lp6818
g5
(g6
g7
(lp6819
VFor
p6820
atp6821
Rp6822
(dp6823
g16
VIN
p6824
sbag5
(g6
g7
(lp6825
g5
(g6
g7
(lp6826
g5
(g6
g7
(lp6827
Vthe
p6828
atp6829
Rp6830
(dp6831
g16
VDT
p6832
sbag5
(g6
g7
(lp6833
Vtopic-based
p6834
atp6835
Rp6836
(dp6837
g16
VJJ
p6838
sbag5
(g6
g7
(lp6839
Vmixture
p6840
atp6841
Rp6842
(dp6843
g16
VNN
p6844
sbag5
(g6
g7
(lp6845
Vmodel
p6846
atp6847
Rp6848
(dp6849
g16
VNN
p6850
sbatp6851
Rp6852
(dp6853
g16
VNP
p6854
sbag5
(g6
g7
(lp6855
Vand
p6856
atp6857
Rp6858
(dp6859
g16
VCC
p6860
sbag5
(g6
g7
(lp6861
g5
(g6
g7
(lp6862
Vsemi-supervised
p6863
atp6864
Rp6865
(dp6866
g16
VJJ
p6867
sbag5
(g6
g7
(lp6868
Vtraining
p6869
atp6870
Rp6871
(dp6872
g16
VNN
p6873
sbatp6874
Rp6875
(dp6876
g16
VNP
p6877
sbatp6878
Rp6879
(dp6880
g16
VNP
p6881
sbatp6882
Rp6883
(dp6884
g16
VPP
p6885
sbag5
(g6
g7
(lp6886
g476
atp6887
Rp6888
(dp6889
g16
g476
sbag5
(g6
g7
(lp6890
g5
(g6
g7
(lp6891
Vbased
p6892
atp6893
Rp6894
(dp6895
g16
VVBN
p6896
sbag5
(g6
g7
(lp6897
g5
(g6
g7
(lp6898
Von
p6899
atp6900
Rp6901
(dp6902
g16
VIN
p6903
sbag5
(g6
g7
(lp6904
g5
(g6
g7
(lp6905
g5
(g6
g7
(lp6906
Vthe
p6907
atp6908
Rp6909
(dp6910
g16
VDT
p6911
sbag5
(g6
g7
(lp6912
Vexperiments
p6913
atp6914
Rp6915
(dp6916
g16
VNNS
p6917
sbatp6918
Rp6919
(dp6920
g16
VNP
p6921
sbag5
(g6
g7
(lp6922
g5
(g6
g7
(lp6923
Von
p6924
atp6925
Rp6926
(dp6927
g16
VIN
p6928
sbag5
(g6
g7
(lp6929
g5
(g6
g7
(lp6930
Vthe
p6931
atp6932
Rp6933
(dp6934
g16
VDT
p6935
sbag5
(g6
g7
(lp6936
Vdevelopment
p6937
atp6938
Rp6939
(dp6940
g16
VNN
p6941
sbag5
(g6
g7
(lp6942
Vset
p6943
atp6944
Rp6945
(dp6946
g16
VNN
p6947
sbatp6948
Rp6949
(dp6950
g16
VNP
p6951
sbatp6952
Rp6953
(dp6954
g16
VPP
p6955
sbatp6956
Rp6957
(dp6958
g16
VNP
p6959
sbatp6960
Rp6961
(dp6962
g16
VPP
p6963
sbatp6964
Rp6965
(dp6966
g16
VPP
p6967
sbag5
(g6
g7
(lp6968
g476
atp6969
Rp6970
(dp6971
g16
g476
sbag5
(g6
g7
(lp6972
g5
(g6
g7
(lp6973
Vwe
p6974
atp6975
Rp6976
(dp6977
g16
VPRP
p6978
sbatp6979
Rp6980
(dp6981
g16
VNP
p6982
sbag5
(g6
g7
(lp6983
g5
(g6
g7
(lp6984
Vset
p6985
atp6986
Rp6987
(dp6988
g16
VVBD
p6989
sbag5
(g6
g7
(lp6990
g5
(g6
g7
(lp6991
g5
(g6
g7
(lp6992
g5
(g6
g7
(lp6993
Vthe
p6994
atp6995
Rp6996
(dp6997
g16
VDT
p6998
sbag5
(g6
g7
(lp6999
Vparameter
p7000
atp7001
Rp7002
(dp7003
g16
VNN
p7004
sbag5
(g6
g7
(lp7005
g270
atp7006
Rp7007
(dp7008
g16
VNN
p7009
sbag5
(g6
g7
(lp7010
g276
atp7011
Rp7012
(dp7013
g16
VPOS
p7014
sbatp7015
Rp7016
(dp7017
g16
VNP
p7018
sbag5
(g6
g7
(lp7019
V\u005c
p7020
atp7021
Rp7022
(dp7023
g16
VNN
p7024
sbag5
(g6
g7
(lp7025
Vu03a4
p7026
atp7027
Rp7028
(dp7029
g16
VNNS
p7030
sbag5
(g6
g7
(lp7031
g276
atp7032
Rp7033
(dp7034
g16
V''
p7035
sbatp7036
Rp7037
(dp7038
g16
VNP
p7039
sbag5
(g6
g7
(lp7040
g5
(g6
g7
(lp7041
Vused
p7042
atp7043
Rp7044
(dp7045
g16
VVBN
p7046
sbag5
(g6
g7
(lp7047
g5
(g6
g7
(lp7048
Vin
p7049
atp7050
Rp7051
(dp7052
g16
VIN
p7053
sbag5
(g6
g7
(lp7054
g5
(g6
g7
(lp7055
g5
(g6
g7
(lp7056
Vsoft
p7057
atp7058
Rp7059
(dp7060
g16
VJJ
p7061
sbag5
(g6
g7
(lp7062
g5
(g6
g7
(lp7063
Vclustering
p7064
atp7065
Rp7066
(dp7067
g16
VJJ
p7068
sbag5
(g6
g7
(lp7069
g5
(g6
g7
(lp7070
Vto
p7071
atp7072
Rp7073
(dp7074
g16
VTO
p7075
sbag5
(g6
g7
(lp7076
g5
(g6
g7
(lp7077
g5
(g6
g7
(lp7078
V0.4
p7079
atp7080
Rp7081
(dp7082
g16
VCD
p7083
sbatp7084
Rp7085
(dp7086
g16
VNP
p7087
sbag5
(g6
g7
(lp7088
g476
atp7089
Rp7090
(dp7091
g16
g476
sbag5
(g6
g7
(lp7092
g5
(g6
g7
(lp7093
Vthe
p7094
atp7095
Rp7096
(dp7097
g16
VDT
p7098
sbag5
(g6
g7
(lp7099
Vdata
p7100
atp7101
Rp7102
(dp7103
g16
VNNS
p7104
sbatp7105
Rp7106
(dp7107
g16
VNP
p7108
sbatp7109
Rp7110
(dp7111
g16
VNP
p7112
sbatp7113
Rp7114
(dp7115
g16
VPP
p7116
sbatp7117
Rp7118
(dp7119
g16
VADJP
p7120
sbag5
(g6
g7
(lp7121
Vselection
p7122
atp7123
Rp7124
(dp7125
g16
VNN
p7126
sbag5
(g6
g7
(lp7127
Vparameter
p7128
atp7129
Rp7130
(dp7131
g16
VNN
p7132
sbag5
(g6
g7
(lp7133
Vp
p7134
atp7135
Rp7136
(dp7137
g16
VNN
p7138
sbatp7139
Rp7140
(dp7141
g16
VNP
p7142
sbag5
(g6
g7
(lp7143
g5
(g6
g7
(lp7144
Vto
p7145
atp7146
Rp7147
(dp7148
g16
VTO
p7149
sbag5
(g6
g7
(lp7150
g5
(g6
g7
(lp7151
V0.96
p7152
atp7153
Rp7154
(dp7155
g16
VCD
p7156
sbatp7157
Rp7158
(dp7159
g16
VNP
p7160
sbatp7161
Rp7162
(dp7163
g16
VPP
p7164
sbatp7165
Rp7166
(dp7167
g16
VNP
p7168
sbatp7169
Rp7170
(dp7171
g16
VPP
p7172
sbatp7173
Rp7174
(dp7175
g16
VVP
p7176
sbag5
(g6
g7
(lp7177
g476
atp7178
Rp7179
(dp7180
g16
g476
sbag5
(g6
g7
(lp7181
Vand
p7182
atp7183
Rp7184
(dp7185
g16
VCC
p7186
sbag5
(g6
g7
(lp7187
g5
(g6
g7
(lp7188
g5
(g6
g7
(lp7189
Vthe
p7190
atp7191
Rp7192
(dp7193
g16
VDT
p7194
sbag5
(g6
g7
(lp7195
Vinterpolation
p7196
atp7197
Rp7198
(dp7199
g16
VNN
p7200
sbag5
(g6
g7
(lp7201
Vparameter
p7202
atp7203
Rp7204
(dp7205
g16
VNN
p7206
sbatp7207
Rp7208
(dp7209
g16
VNP
p7210
sbag5
(g6
g7
(lp7211
g5
(g6
g7
(lp7212
Vfor
p7213
atp7214
Rp7215
(dp7216
g16
VIN
p7217
sbag5
(g6
g7
(lp7218
g5
(g6
g7
(lp7219
g5
(g6
g7
(lp7220
Vsmoothing
p7221
atp7222
Rp7223
(dp7224
g16
VVBG
p7225
sbag5
(g6
g7
(lp7226
g5
(g6
g7
(lp7227
g5
(g6
g7
(lp7228
g270
atp7229
Rp7230
(dp7231
g16
VNNP
p7232
sbag5
(g6
g7
(lp7233
g276
atp7234
Rp7235
(dp7236
g16
VPOS
p7237
sbatp7238
Rp7239
(dp7240
g16
VNP
p7241
sbag5
(g6
g7
(lp7242
V\u005c
p7243
atp7244
Rp7245
(dp7246
g16
VNNP
p7247
sbag5
(g6
g7
(lp7248
Vu0398
p7249
atp7250
Rp7251
(dp7252
g16
VNNP
p7253
sbag5
(g6
g7
(lp7254
g276
atp7255
Rp7256
(dp7257
g16
V''
p7258
sbatp7259
Rp7260
(dp7261
g16
VNP
p7262
sbag5
(g6
g7
(lp7263
g5
(g6
g7
(lp7264
Vto
p7265
atp7266
Rp7267
(dp7268
g16
VTO
p7269
sbag5
(g6
g7
(lp7270
g5
(g6
g7
(lp7271
V0.3
p7272
atp7273
Rp7274
(dp7275
g16
VCD
p7276
sbatp7277
Rp7278
(dp7279
g16
VNP
p7280
sbatp7281
Rp7282
(dp7283
g16
VPP
p7284
sbatp7285
Rp7286
(dp7287
g16
VVP
p7288
sbatp7289
Rp7290
(dp7291
g16
g193
sbatp7292
Rp7293
(dp7294
g16
VPP
p7295
sbatp7296
Rp7297
(dp7298
g16
VNP
p7299
sbatp7300
Rp7301
(dp7302
g16
VNP
p7303
sbatp7304
Rp7305
(dp7306
g16
VVP
p7307
sbatp7308
Rp7309
(dp7310
g16
g193
sbatp7311
Rp7312
(dp7313
g16
VROOT
p7314
sbasg198
(icmyPackage
CorE
p7315
(dp7316
g201
(lp7317
(I0
I11
tp7318
a(I0
I16
tp7319
asg205
g6957
sbsg206
(icmyPackage
CorE
p7320
(dp7321
g201
(lp7322
(I0
I18
tp7323
a(I0
I54
tp7324
asg205
g5
(g6
g7
(lp7325
g6980
ag7305
atp7326
Rp7327
(dp7328
g16
g216
sbsbsg217
(icmyPackage
pattern
p7329
(dp7330
g220
I0
sg221
I0
sg222
(lp7331
(lp7332
S'based'
p7333
aS'on'
p7334
aa(lp7335
g2420
aasg227
(lp7336
I2
aI1
aI1
asg229
(lp7337
S"He said that, based on his own experience, more students have been going back in recent years as their home countries' economies heat up."
p7338
asg232
I47
sg233
(lp7339
(lp7340
a(lp7341
S'&V-ing/&NP@C@'
p7342
aS'(&Clause@C@)'
p7343
aa(lp7344
S'&R'
p7345
aasbsg242
(lp7346
(isxpPackage
sxpSent
p7347
(dp7348
g246
(lp7349
I25
aI26
asg248
VFor the topic-based mixture model and semi-supervised training, based on the experiments on the development set, we set the parameter u'\u005cu03a4' used in soft clustering to 0.4, the data selection parameter p to 0.96, and the interpolation parameter for smoothing u'\u005cu0398' to 0.3
p7350
sg250
I14
sg232
I132
sg251
I46
sbasba(icmyPackage
CELink
p7351
(dp7352
g3
(lp7353
g7327
asg198
(icmyPackage
CorE
p7354
(dp7355
g201
(lp7356
(I0
I29
tp7357
a(I0
I36
tp7358
asg205
g7290
sbsg206
(icmyPackage
CorE
p7359
(dp7360
g201
(lp7361
(I0
I0
tp7362
a(I0
I27
tp7363
asg205
g5
(g6
g7
(lp7364
g6980
ag6987
ag7037
ag7174
ag7179
ag7184
ag7208
atp7365
Rp7366
(dp7367
g16
g216
sbsbsg217
g892
sg242
(lp7368
g7347
asba(icmyPackage
CELink
p7369
(dp7370
g3
(lp7371
g5
(g6
g7
(lp7372
g5
(g6
g7
(lp7373
g5
(g6
g7
(lp7374
g5
(g6
g7
(lp7375
VThe
p7376
atp7377
Rp7378
(dp7379
g16
VDT
p7380
sbag5
(g6
g7
(lp7381
Vfirst
p7382
atp7383
Rp7384
(dp7385
g16
VJJ
p7386
sbag5
(g6
g7
(lp7387
Vrow
p7388
atp7389
Rp7390
(dp7391
g16
VNN
p7392
sbatp7393
Rp7394
(dp7395
g16
VNP
p7396
sbag5
(g6
g7
(lp7397
g5
(g6
g7
(lp7398
Vshows
p7399
atp7400
Rp7401
(dp7402
g16
VVBZ
p7403
sbag5
(g6
g7
(lp7404
g5
(g6
g7
(lp7405
g5
(g6
g7
(lp7406
Vthe
p7407
atp7408
Rp7409
(dp7410
g16
VDT
p7411
sbag5
(g6
g7
(lp7412
Vperformance
p7413
atp7414
Rp7415
(dp7416
g16
VNN
p7417
sbatp7418
Rp7419
(dp7420
g16
VNP
p7421
sbag5
(g6
g7
(lp7422
g5
(g6
g7
(lp7423
Vof
p7424
atp7425
Rp7426
(dp7427
g16
VIN
p7428
sbag5
(g6
g7
(lp7429
g5
(g6
g7
(lp7430
g5
(g6
g7
(lp7431
Vthe
p7432
atp7433
Rp7434
(dp7435
g16
VDT
p7436
sbag5
(g6
g7
(lp7437
Vuniversal
p7438
atp7439
Rp7440
(dp7441
g16
VJJ
p7442
sbag5
(g6
g7
(lp7443
Vsentiment
p7444
atp7445
Rp7446
(dp7447
g16
VNN
p7448
sbag5
(g6
g7
(lp7449
Vmodel
p7450
atp7451
Rp7452
(dp7453
g16
VNN
p7454
sbatp7455
Rp7456
(dp7457
g16
VNP
p7458
sbag5
(g6
g7
(lp7459
g5
(g6
g7
(lp7460
Vas
p7461
atp7462
Rp7463
(dp7464
g16
VIN
p7465
sbag5
(g6
g7
(lp7466
g5
(g6
g7
(lp7467
g382
atp7468
Rp7469
(dp7470
g16
VDT
p7471
sbag5
(g6
g7
(lp7472
Vbaseline
p7473
atp7474
Rp7475
(dp7476
g16
VNN
p7477
sbatp7478
Rp7479
(dp7480
g16
VNP
p7481
sbatp7482
Rp7483
(dp7484
g16
VPP
p7485
sbatp7486
Rp7487
(dp7488
g16
VNP
p7489
sbatp7490
Rp7491
(dp7492
g16
VPP
p7493
sbatp7494
Rp7495
(dp7496
g16
VNP
p7497
sbatp7498
Rp7499
(dp7500
g16
VVP
p7501
sbatp7502
Rp7503
(dp7504
g16
g193
sbatp7505
Rp7506
(dp7507
g16
VROOT
p7508
sbag5
(g6
g7
(lp7509
g5
(g6
g7
(lp7510
g5
(g6
g7
(lp7511
g5
(g6
g7
(lp7512
VThe
p7513
atp7514
Rp7515
(dp7516
g16
VDT
p7517
sbag5
(g6
g7
(lp7518
Vsecond
p7519
atp7520
Rp7521
(dp7522
g16
VJJ
p7523
sbag5
(g6
g7
(lp7524
Vrow
p7525
atp7526
Rp7527
(dp7528
g16
VNN
p7529
sbatp7530
Rp7531
(dp7532
g16
VNP
p7533
sbag5
(g6
g7
(lp7534
g5
(g6
g7
(lp7535
Vshows
p7536
atp7537
Rp7538
(dp7539
g16
VVBZ
p7540
sbag5
(g6
g7
(lp7541
g5
(g6
g7
(lp7542
Vthe
p7543
atp7544
Rp7545
(dp7546
g16
VDT
p7547
sbag5
(g6
g7
(lp7548
Vresults
p7549
atp7550
Rp7551
(dp7552
g16
VNNS
p7553
sbatp7554
Rp7555
(dp7556
g16
VNP
p7557
sbag5
(g6
g7
(lp7558
g5
(g6
g7
(lp7559
Vfrom
p7560
atp7561
Rp7562
(dp7563
g16
VIN
p7564
sbag5
(g6
g7
(lp7565
g5
(g6
g7
(lp7566
g5
(g6
g7
(lp7567
Vre-training
p7568
atp7569
Rp7570
(dp7571
g16
VVBG
p7572
sbag5
(g6
g7
(lp7573
g5
(g6
g7
(lp7574
Vthe
p7575
atp7576
Rp7577
(dp7578
g16
VDT
p7579
sbag5
(g6
g7
(lp7580
Vuniversal
p7581
atp7582
Rp7583
(dp7584
g16
VJJ
p7585
sbag5
(g6
g7
(lp7586
Vmodel
p7587
atp7588
Rp7589
(dp7590
g16
VNN
p7591
sbatp7592
Rp7593
(dp7594
g16
VNP
p7595
sbag5
(g6
g7
(lp7596
g5
(g6
g7
(lp7597
Vby
p7598
atp7599
Rp7600
(dp7601
g16
VIN
p7602
sbag5
(g6
g7
(lp7603
g5
(g6
g7
(lp7604
g5
(g6
g7
(lp7605
g5
(g6
g7
(lp7606
Vsimply
p7607
atp7608
Rp7609
(dp7610
g16
VRB
p7611
sbatp7612
Rp7613
(dp7614
g16
VADVP
p7615
sbag5
(g6
g7
(lp7616
Vadding
p7617
atp7618
Rp7619
(dp7620
g16
VVBG
p7621
sbag5
(g6
g7
(lp7622
g5
(g6
g7
(lp7623
g5
(g6
g7
(lp7624
Vtweets
p7625
atp7626
Rp7627
(dp7628
g16
VNNS
p7629
sbag5
(g6
g7
(lp7630
Vselected
p7631
atp7632
Rp7633
(dp7634
g16
VJJ
p7635
sbatp7636
Rp7637
(dp7638
g16
VNP
p7639
sbag5
(g6
g7
(lp7640
g5
(g6
g7
(lp7641
Vfrom
p7642
atp7643
Rp7644
(dp7645
g16
VIN
p7646
sbag5
(g6
g7
(lp7647
g5
(g6
g7
(lp7648
g5
(g6
g7
(lp7649
Vtwo
p7650
atp7651
Rp7652
(dp7653
g16
VCD
p7654
sbag5
(g6
g7
(lp7655
Viterations
p7656
atp7657
Rp7658
(dp7659
g16
VNNS
p7660
sbatp7661
Rp7662
(dp7663
g16
VNP
p7664
sbag5
(g6
g7
(lp7665
g5
(g6
g7
(lp7666
Vof
p7667
atp7668
Rp7669
(dp7670
g16
VIN
p7671
sbag5
(g6
g7
(lp7672
g5
(g6
g7
(lp7673
Vsemi-supervised
p7674
atp7675
Rp7676
(dp7677
g16
VJJ
p7678
sbag5
(g6
g7
(lp7679
Vtraining
p7680
atp7681
Rp7682
(dp7683
g16
VNN
p7684
sbatp7685
Rp7686
(dp7687
g16
VNP
p7688
sbatp7689
Rp7690
(dp7691
g16
VPP
p7692
sbatp7693
Rp7694
(dp7695
g16
VNP
p7696
sbatp7697
Rp7698
(dp7699
g16
VPP
p7700
sbatp7701
Rp7702
(dp7703
g16
VNP
p7704
sbag5
(g6
g7
(lp7705
V-LRB-
p7706
atp7707
Rp7708
(dp7709
g16
V-LRB-
p7710
sbag5
(g6
g7
(lp7711
g5
(g6
g7
(lp7712
Vabout
p7713
atp7714
Rp7715
(dp7716
g16
VIN
p7717
sbag5
(g6
g7
(lp7718
g5
(g6
g7
(lp7719
V100K
p7720
atp7721
Rp7722
(dp7723
g16
VCD
p7724
sbatp7725
Rp7726
(dp7727
g16
VNP
p7728
sbatp7729
Rp7730
(dp7731
g16
VPP
p7732
sbatp7733
Rp7734
(dp7735
g16
VVP
p7736
sbatp7737
Rp7738
(dp7739
g16
g193
sbatp7740
Rp7741
(dp7742
g16
VPP
p7743
sbatp7744
Rp7745
(dp7746
g16
VVP
p7747
sbatp7748
Rp7749
(dp7750
g16
g193
sbatp7751
Rp7752
(dp7753
g16
VPP
p7754
sbatp7755
Rp7756
(dp7757
g16
VVP
p7758
sbatp7759
Rp7760
(dp7761
g16
g193
sbatp7762
Rp7763
(dp7764
g16
VROOT
p7765
sbasg198
(icmyPackage
CorE
p7766
(dp7767
g201
(lp7768
(I0
I12
tp7769
a(I1
I23
tp7770
asg205
g5
(g6
g7
(lp7771
g7479
ag7531
ag7538
ag7555
ag7562
ag7570
ag7593
ag7600
ag7613
ag7619
ag7702
ag7708
ag7715
atp7772
Rp7773
(dp7774
g16
g216
sbsbsg206
(icmyPackage
CorE
p7775
(dp7776
g201
(lp7777
(I0
I0
tp7778
a(I0
I10
tp7779
asg205
g5
(g6
g7
(lp7780
g7394
ag7401
ag7419
ag7426
ag7456
atp7781
Rp7782
(dp7783
g16
g216
sbsbsg217
g691
sg242
(lp7784
(isxpPackage
sxpSent
p7785
(dp7786
g246
(lp7787
I27
asg248
VThe first row shows the performance of the universal sentiment model as a baseline
p7788
sg250
I14
sg232
I136
sg251
I47
sba(isxpPackage
sxpSent
p7789
(dp7790
g246
(lp7791
I27
aI28
asg248
VThe second row shows the results from re-training the universal model by simply adding tweets selected from two iterations of semi-supervised training (about 100K
p7792
sg250
I14
sg232
I137
sg251
I47
sbasba(icmyPackage
CELink
p7793
(dp7794
g3
(lp7795
g7763
asg198
(icmyPackage
CorE
p7796
(dp7797
g201
(lp7798
(I0
I12
tp7799
a(I0
I24
tp7800
asg205
g7738
sbsg206
(icmyPackage
CorE
p7801
(dp7802
g201
(lp7803
(I0
I0
tp7804
a(I0
I10
tp7805
asg205
g5
(g6
g7
(lp7806
g7531
ag7538
ag7555
ag7562
ag7570
ag7593
atp7807
Rp7808
(dp7809
g16
g216
sbsbsg217
g1133
sg242
(lp7810
g7789
asba(icmyPackage
CELink
p7811
(dp7812
g3
(lp7813
g5
(g6
g7
(lp7814
g5
(g6
g7
(lp7815
g5
(g6
g7
(lp7816
g5
(g6
g7
(lp7817
VWith
p7818
atp7819
Rp7820
(dp7821
g16
VIN
p7822
sbag5
(g6
g7
(lp7823
g5
(g6
g7
(lp7824
g5
(g6
g7
(lp7825
Vthe
p7826
atp7827
Rp7828
(dp7829
g16
VDT
p7830
sbag5
(g6
g7
(lp7831
Vtopic
p7832
atp7833
Rp7834
(dp7835
g16
VNN
p7836
sbag5
(g6
g7
(lp7837
Vinformation
p7838
atp7839
Rp7840
(dp7841
g16
VNN
p7842
sbatp7843
Rp7844
(dp7845
g16
VNP
p7846
sbag5
(g6
g7
(lp7847
g5
(g6
g7
(lp7848
Vinferred
p7849
atp7850
Rp7851
(dp7852
g16
VVBN
p7853
sbag5
(g6
g7
(lp7854
g5
(g6
g7
(lp7855
Vfrom
p7856
atp7857
Rp7858
(dp7859
g16
VIN
p7860
sbag5
(g6
g7
(lp7861
g5
(g6
g7
(lp7862
VTwitter
p7863
atp7864
Rp7865
(dp7866
g16
VNNP
p7867
sbag5
(g6
g7
(lp7868
Vdata
p7869
atp7870
Rp7871
(dp7872
g16
VNNS
p7873
sbatp7874
Rp7875
(dp7876
g16
VNP
p7877
sbatp7878
Rp7879
(dp7880
g16
VPP
p7881
sbatp7882
Rp7883
(dp7884
g16
VVP
p7885
sbatp7886
Rp7887
(dp7888
g16
VNP
p7889
sbatp7890
Rp7891
(dp7892
g16
VPP
p7893
sbag5
(g6
g7
(lp7894
g476
atp7895
Rp7896
(dp7897
g16
g476
sbag5
(g6
g7
(lp7898
g5
(g6
g7
(lp7899
Vthe
p7900
atp7901
Rp7902
(dp7903
g16
VDT
p7904
sbag5
(g6
g7
(lp7905
g5563
atp7906
Rp7907
(dp7908
g16
VNN
p7909
sbag5
(g6
g7
(lp7910
Vscore
p7911
atp7912
Rp7913
(dp7914
g16
VNN
p7915
sbatp7916
Rp7917
(dp7918
g16
VNP
p7919
sbag5
(g6
g7
(lp7920
g5
(g6
g7
(lp7921
Vis
p7922
atp7923
Rp7924
(dp7925
g16
VVBZ
p7926
sbag5
(g6
g7
(lp7927
g5
(g6
g7
(lp7928
g5
(g6
g7
(lp7929
g6705
atp7930
Rp7931
(dp7932
g16
VCD
p7933
sbag5
(g6
g7
(lp7934
Vpoints
p7935
atp7936
Rp7937
(dp7938
g16
VNNS
p7939
sbatp7940
Rp7941
(dp7942
g16
VNP
p7943
sbag5
(g6
g7
(lp7944
Vhigher
p7945
atp7946
Rp7947
(dp7948
g16
VJJR
p7949
sbag5
(g6
g7
(lp7950
g5
(g6
g7
(lp7951
Vthan
p7952
atp7953
Rp7954
(dp7955
g16
VIN
p7956
sbag5
(g6
g7
(lp7957
g5
(g6
g7
(lp7958
g5
(g6
g7
(lp7959
Vthe
p7960
atp7961
Rp7962
(dp7963
g16
VDT
p7964
sbag5
(g6
g7
(lp7965
Vbaseline
p7966
atp7967
Rp7968
(dp7969
g16
VNN
p7970
sbatp7971
Rp7972
(dp7973
g16
VNP
p7974
sbag5
(g6
g7
(lp7975
g5
(g6
g7
(lp7976
g5
(g6
g7
(lp7977
Vwithout
p7978
atp7979
Rp7980
(dp7981
g16
VIN
p7982
sbag5
(g6
g7
(lp7983
g5
(g6
g7
(lp7984
Vsemi-supervised
p7985
atp7986
Rp7987
(dp7988
g16
VJJ
p7989
sbag5
(g6
g7
(lp7990
Vtraining
p7991
atp7992
Rp7993
(dp7994
g16
VNN
p7995
sbatp7996
Rp7997
(dp7998
g16
VNP
p7999
sbatp8000
Rp8001
(dp8002
g16
VPP
p8003
sbag5
(g6
g7
(lp8004
Vand
p8005
atp8006
Rp8007
(dp8008
g16
VCC
p8009
sbag5
(g6
g7
(lp8010
g5
(g6
g7
(lp8011
g5
(g6
g7
(lp8012
V1.4
p8013
atp8014
Rp8015
(dp8016
g16
VCD
p8017
sbatp8018
Rp8019
(dp8020
g16
VNP
p8021
sbag5
(g6
g7
(lp8022
Vhigher
p8023
atp8024
Rp8025
(dp8026
g16
VRBR
p8027
sbatp8028
Rp8029
(dp8030
g16
VADVP
p8031
sbag5
(g6
g7
(lp8032
g5
(g6
g7
(lp8033
Vthan
p8034
atp8035
Rp8036
(dp8037
g16
VIN
p8038
sbag5
(g6
g7
(lp8039
g5
(g6
g7
(lp8040
g5
(g6
g7
(lp8041
Vthe
p8042
atp8043
Rp8044
(dp8045
g16
VDT
p8046
sbag5
(g6
g7
(lp8047
Vbaseline
p8048
atp8049
Rp8050
(dp8051
g16
VNN
p8052
sbatp8053
Rp8054
(dp8055
g16
VNP
p8056
sbag5
(g6
g7
(lp8057
g5
(g6
g7
(lp8058
Vwith
p8059
atp8060
Rp8061
(dp8062
g16
VIN
p8063
sbag5
(g6
g7
(lp8064
g5
(g6
g7
(lp8065
Vsemi-supervised
p8066
atp8067
Rp8068
(dp8069
g16
VJJ
p8070
sbag5
(g6
g7
(lp8071
Vdata
p8072
atp8073
Rp8074
(dp8075
g16
VNNS
p8076
sbatp8077
Rp8078
(dp8079
g16
VNP
p8080
sbatp8081
Rp8082
(dp8083
g16
VPP
p8084
sbatp8085
Rp8086
(dp8087
g16
VNP
p8088
sbatp8089
Rp8090
(dp8091
g16
VPP
p8092
sbatp8093
Rp8094
(dp8095
g16
VPP
p8096
sbatp8097
Rp8098
(dp8099
g16
VNP
p8100
sbatp8101
Rp8102
(dp8103
g16
VPP
p8104
sbatp8105
Rp8106
(dp8107
g16
VADJP
p8108
sbatp8109
Rp8110
(dp8111
g16
VVP
p8112
sbatp8113
Rp8114
(dp8115
g16
g193
sbatp8116
Rp8117
(dp8118
g16
VROOT
p8119
sbag5
(g6
g7
(lp8120
g5
(g6
g7
(lp8121
g5
(g6
g7
(lp8122
g5
(g6
g7
(lp8123
VAs
p8124
atp8125
Rp8126
(dp8127
g16
VIN
p8128
sbag5
(g6
g7
(lp8129
g5
(g6
g7
(lp8130
g5
(g6
g7
(lp8131
Vshown
p8132
atp8133
Rp8134
(dp8135
g16
VVBN
p8136
sbag5
(g6
g7
(lp8137
g5
(g6
g7
(lp8138
Vin
p8139
atp8140
Rp8141
(dp8142
g16
VIN
p8143
sbag5
(g6
g7
(lp8144
g5
(g6
g7
(lp8145
g5
(g6
g7
(lp8146
Vthe
p8147
atp8148
Rp8149
(dp8150
g16
VDT
p8151
sbag5
(g6
g7
(lp8152
Vthird
p8153
atp8154
Rp8155
(dp8156
g16
VJJ
p8157
sbag5
(g6
g7
(lp8158
Vcolumn
p8159
atp8160
Rp8161
(dp8162
g16
VNN
p8163
sbatp8164
Rp8165
(dp8166
g16
VNP
p8167
sbag5
(g6
g7
(lp8168
g5
(g6
g7
(lp8169
Vin
p8170
atp8171
Rp8172
(dp8173
g16
VIN
p8174
sbag5
(g6
g7
(lp8175
g5
(g6
g7
(lp8176
VTable
p8177
atp8178
Rp8179
(dp8180
g16
VNNP
p8181
sbag5
(g6
g7
(lp8182
V3
p8183
atp8184
Rp8185
(dp8186
g16
VCD
p8187
sbatp8188
Rp8189
(dp8190
g16
VNP
p8191
sbatp8192
Rp8193
(dp8194
g16
VPP
p8195
sbatp8196
Rp8197
(dp8198
g16
VNP
p8199
sbatp8200
Rp8201
(dp8202
g16
VPP
p8203
sbag5
(g6
g7
(lp8204
g476
atp8205
Rp8206
(dp8207
g16
g476
sbag5
(g6
g7
(lp8208
g5
(g6
g7
(lp8209
Vsurprisingly
p8210
atp8211
Rp8212
(dp8213
g16
VRB
p8214
sbatp8215
Rp8216
(dp8217
g16
VADVP
p8218
sbatp8219
Rp8220
(dp8221
g16
VVP
p8222
sbatp8223
Rp8224
(dp8225
g16
g193
sbatp8226
Rp8227
(dp8228
g16
VSBAR
p8229
sbag5
(g6
g7
(lp8230
g476
atp8231
Rp8232
(dp8233
g16
g476
sbag5
(g6
g7
(lp8234
g5
(g6
g7
(lp8235
g5
(g6
g7
(lp8236
Vthe
p8237
atp8238
Rp8239
(dp8240
g16
VDT
p8241
sbag5
(g6
g7
(lp8242
Vmodel
p8243
atp8244
Rp8245
(dp8246
g16
VNN
p8247
sbatp8248
Rp8249
(dp8250
g16
VNP
p8251
sbag5
(g6
g7
(lp8252
g5
(g6
g7
(lp8253
Vwith
p8254
atp8255
Rp8256
(dp8257
g16
VIN
p8258
sbag5
(g6
g7
(lp8259
g5
(g6
g7
(lp8260
g5
(g6
g7
(lp8261
Vtopic
p8262
atp8263
Rp8264
(dp8265
g16
VNN
p8266
sbag5
(g6
g7
(lp8267
Vinformation
p8268
atp8269
Rp8270
(dp8271
g16
VNN
p8272
sbatp8273
Rp8274
(dp8275
g16
VNP
p8276
sbag5
(g6
g7
(lp8277
g5
(g6
g7
(lp8278
Vinferred
p8279
atp8280
Rp8281
(dp8282
g16
VVBN
p8283
sbag5
(g6
g7
(lp8284
g5
(g6
g7
(lp8285
Vfrom
p8286
atp8287
Rp8288
(dp8289
g16
VIN
p8290
sbag5
(g6
g7
(lp8291
g5
(g6
g7
(lp8292
Vthe
p8293
atp8294
Rp8295
(dp8296
g16
VDT
p8297
sbag5
(g6
g7
(lp8298
Vnewswire
p8299
atp8300
Rp8301
(dp8302
g16
VNN
p8303
sbag5
(g6
g7
(lp8304
Vdata
p8305
atp8306
Rp8307
(dp8308
g16
VNNS
p8309
sbatp8310
Rp8311
(dp8312
g16
VNP
p8313
sbatp8314
Rp8315
(dp8316
g16
VPP
p8317
sbatp8318
Rp8319
(dp8320
g16
VVP
p8321
sbatp8322
Rp8323
(dp8324
g16
VNP
p8325
sbatp8326
Rp8327
(dp8328
g16
VPP
p8329
sbatp8330
Rp8331
(dp8332
g16
VNP
p8333
sbag5
(g6
g7
(lp8334
g5
(g6
g7
(lp8335
Vworks
p8336
atp8337
Rp8338
(dp8339
g16
VVBZ
p8340
sbag5
(g6
g7
(lp8341
g5
(g6
g7
(lp8342
Vwell
p8343
atp8344
Rp8345
(dp8346
g16
VRB
p8347
sbatp8348
Rp8349
(dp8350
g16
VADVP
p8351
sbag5
(g6
g7
(lp8352
g5
(g6
g7
(lp8353
Von
p8354
atp8355
Rp8356
(dp8357
g16
VIN
p8358
sbag5
(g6
g7
(lp8359
g5
(g6
g7
(lp8360
Vthe
p8361
atp8362
Rp8363
(dp8364
g16
VDT
p8365
sbag5
(g6
g7
(lp8366
VTwitter
p8367
atp8368
Rp8369
(dp8370
g16
VNNP
p8371
sbag5
(g6
g7
(lp8372
Vdomain
p8373
atp8374
Rp8375
(dp8376
g16
VNN
p8377
sbatp8378
Rp8379
(dp8380
g16
VNP
p8381
sbatp8382
Rp8383
(dp8384
g16
VPP
p8385
sbatp8386
Rp8387
(dp8388
g16
VVP
p8389
sbatp8390
Rp8391
(dp8392
g16
g193
sbatp8393
Rp8394
(dp8395
g16
VROOT
p8396
sbasg198
(icmyPackage
CorE
p8397
(dp8398
g201
(lp8399
(I1
I1
tp8400
a(I1
I27
tp8401
asg205
g5
(g6
g7
(lp8402
g8224
ag8232
ag8331
ag8387
atp8403
Rp8404
(dp8405
g16
g216
sbsbsg206
(icmyPackage
CorE
p8406
(dp8407
g201
(lp8408
(I0
I0
tp8409
a(I0
I30
tp8410
asg205
g8117
sbsg217
g691
sg242
(lp8411
(isxpPackage
sxpSent
p8412
(dp8413
g246
(lp8414
I29
asg248
VWith the topic information inferred from Twitter data, the F score is 2 points higher than the baseline without semi-supervised training and 1.4 higher than the baseline with semi-supervised data
p8415
sg250
I14
sg232
I142
sg251
I48
sba(isxpPackage
sxpSent
p8416
(dp8417
g246
(lp8418
I29
asg248
VAs shown in the third column in Table 3 , surprisingly, the model with topic information inferred from the newswire data works well on the Twitter domain
p8419
sg250
I14
sg232
I143
sg251
I49
sbasba.