(lp0
(icmyPackage
CELink
p1
(dp2
S'PTreelst'
p3
(lp4
ccopy_reg
_reconstructor
p5
(cnltk.tree
Tree
p6
c__builtin__
list
p7
(lp8
g5
(g6
g7
(lp9
g5
(g6
g7
(lp10
g5
(g6
g7
(lp11
VWe
p12
atp13
Rp14
(dp15
S'_label'
p16
VPRP
p17
sbatp18
Rp19
(dp20
g16
VNP
p21
sbag5
(g6
g7
(lp22
g5
(g6
g7
(lp23
Visolate
p24
atp25
Rp26
(dp27
g16
VVBP
p28
sbag5
(g6
g7
(lp29
g5
(g6
g7
(lp30
g5
(g6
g7
(lp31
Vthree
p32
atp33
Rp34
(dp35
g16
VCD
p36
sbag5
(g6
g7
(lp37
Vways
p38
atp39
Rp40
(dp41
g16
VNNS
p42
sbatp43
Rp44
(dp45
g16
VNP
p46
sbag5
(g6
g7
(lp47
g5
(g6
g7
(lp48
g5
(g6
g7
(lp49
Vin
p50
atp51
Rp52
(dp53
g16
VIN
p54
sbag5
(g6
g7
(lp55
g5
(g6
g7
(lp56
Vwhich
p57
atp58
Rp59
(dp60
g16
VWDT
p61
sbag5
(g6
g7
(lp62
Vword
p63
atp64
Rp65
(dp66
g16
VNN
p67
sbatp68
Rp69
(dp70
g16
VWHNP
p71
sbatp72
Rp73
(dp74
g16
VWHPP
p75
sbag5
(g6
g7
(lp76
g5
(g6
g7
(lp77
g5
(g6
g7
(lp78
Vembeddings
p79
atp80
Rp81
(dp82
g16
VNNS
p83
sbatp84
Rp85
(dp86
g16
VNP
p87
sbag5
(g6
g7
(lp88
g5
(g6
g7
(lp89
Vmight
p90
atp91
Rp92
(dp93
g16
VMD
p94
sbag5
(g6
g7
(lp95
g5
(g6
g7
(lp96
Vaugment
p97
atp98
Rp99
(dp100
g16
VVB
p101
sbag5
(g6
g7
(lp102
g5
(g6
g7
(lp103
Va
p104
atp105
Rp106
(dp107
g16
VDT
p108
sbag5
(g6
g7
(lp109
Vstate-of-the-art
p110
atp111
Rp112
(dp113
g16
VJJ
p114
sbag5
(g6
g7
(lp115
Vstatistical
p116
atp117
Rp118
(dp119
g16
VJJ
p120
sbag5
(g6
g7
(lp121
Vparser
p122
atp123
Rp124
(dp125
g16
VNN
p126
sbatp127
Rp128
(dp129
g16
VNP
p130
sbag5
(g6
g7
(lp131
g5
(g6
g7
(lp132
Vby
p133
atp134
Rp135
(dp136
g16
VIN
p137
sbag5
(g6
g7
(lp138
g5
(g6
g7
(lp139
g5
(g6
g7
(lp140
Vconnecting
p141
atp142
Rp143
(dp144
g16
VVBG
p145
sbag5
(g6
g7
(lp146
g5
(g6
g7
(lp147
Vout-of-vocabulary
p148
atp149
Rp150
(dp151
g16
VJJ
p152
sbag5
(g6
g7
(lp153
Vwords
p154
atp155
Rp156
(dp157
g16
VNNS
p158
sbatp159
Rp160
(dp161
g16
VNP
p162
sbag5
(g6
g7
(lp163
g5
(g6
g7
(lp164
g5
(g6
g7
(lp165
Vto
p166
atp167
Rp168
(dp169
g16
VTO
p170
sbag5
(g6
g7
(lp171
g5
(g6
g7
(lp172
Vknown
p173
atp174
Rp175
(dp176
g16
VVBN
p177
sbag5
(g6
g7
(lp178
Vones
p179
atp180
Rp181
(dp182
g16
VNNS
p183
sbatp184
Rp185
(dp186
g16
VNP
p187
sbatp188
Rp189
(dp190
g16
VPP
p191
sbag5
(g6
g7
(lp192
V,
p193
atp194
Rp195
(dp196
g16
g193
sbag5
(g6
g7
(lp197
g5
(g6
g7
(lp198
Vby
p199
atp200
Rp201
(dp202
g16
VIN
p203
sbag5
(g6
g7
(lp204
g5
(g6
g7
(lp205
g5
(g6
g7
(lp206
Vencouraging
p207
atp208
Rp209
(dp210
g16
VVBG
p211
sbag5
(g6
g7
(lp212
g5
(g6
g7
(lp213
Vcommon
p214
atp215
Rp216
(dp217
g16
VJJ
p218
sbag5
(g6
g7
(lp219
Vbehavior
p220
atp221
Rp222
(dp223
g16
VNN
p224
sbatp225
Rp226
(dp227
g16
VNP
p228
sbag5
(g6
g7
(lp229
g5
(g6
g7
(lp230
Vamong
p231
atp232
Rp233
(dp234
g16
VIN
p235
sbag5
(g6
g7
(lp236
g5
(g6
g7
(lp237
Vrelated
p238
atp239
Rp240
(dp241
g16
VJJ
p242
sbag5
(g6
g7
(lp243
Vin-vocabulary
p244
atp245
Rp246
(dp247
g16
VJJ
p248
sbag5
(g6
g7
(lp249
Vwords
p250
atp251
Rp252
(dp253
g16
VNNS
p254
sbatp255
Rp256
(dp257
g16
VNP
p258
sbatp259
Rp260
(dp261
g16
VPP
p262
sbatp263
Rp264
(dp265
g16
VVP
p266
sbatp267
Rp268
(dp269
g16
VS
p270
sbatp271
Rp272
(dp273
g16
VPP
p274
sbag5
(g6
g7
(lp275
g193
atp276
Rp277
(dp278
g16
g193
sbag5
(g6
g7
(lp279
Vand
p280
atp281
Rp282
(dp283
g16
VCC
p284
sbag5
(g6
g7
(lp285
g5
(g6
g7
(lp286
Vby
p287
atp288
Rp289
(dp290
g16
VIN
p291
sbag5
(g6
g7
(lp292
g5
(g6
g7
(lp293
g5
(g6
g7
(lp294
g5
(g6
g7
(lp295
Vdirectly
p296
atp297
Rp298
(dp299
g16
VRB
p300
sbatp301
Rp302
(dp303
g16
VADVP
p304
sbag5
(g6
g7
(lp305
Vproviding
p306
atp307
Rp308
(dp309
g16
VVBG
p310
sbag5
(g6
g7
(lp311
g5
(g6
g7
(lp312
g5
(g6
g7
(lp313
Vfeatures
p314
atp315
Rp316
(dp317
g16
VNNS
p318
sbatp319
Rp320
(dp321
g16
VNP
p322
sbag5
(g6
g7
(lp323
g5
(g6
g7
(lp324
Vfor
p325
atp326
Rp327
(dp328
g16
VIN
p329
sbag5
(g6
g7
(lp330
g5
(g6
g7
(lp331
Vthe
p332
atp333
Rp334
(dp335
g16
VDT
p336
sbag5
(g6
g7
(lp337
Vlexicon
p338
atp339
Rp340
(dp341
g16
VNN
p342
sbatp343
Rp344
(dp345
g16
VNP
p346
sbatp347
Rp348
(dp349
g16
VPP
p350
sbatp351
Rp352
(dp353
g16
VNP
p354
sbatp355
Rp356
(dp357
g16
VVP
p358
sbatp359
Rp360
(dp361
g16
g270
sbatp362
Rp363
(dp364
g16
VPP
p365
sbatp366
Rp367
(dp368
g16
VPP
p369
sbatp370
Rp371
(dp372
g16
VVP
p373
sbatp374
Rp375
(dp376
g16
g270
sbatp377
Rp378
(dp379
g16
VPP
p380
sbatp381
Rp382
(dp383
g16
VVP
p384
sbatp385
Rp386
(dp387
g16
VVP
p388
sbatp389
Rp390
(dp391
g16
g270
sbatp392
Rp393
(dp394
g16
VSBAR
p395
sbatp396
Rp397
(dp398
g16
VNP
p399
sbatp400
Rp401
(dp402
g16
VVP
p403
sbatp404
Rp405
(dp406
g16
g270
sbatp407
Rp408
(dp409
g16
VROOT
p410
sbasS'cause'
p411
(icmyPackage
CorE
p412
(dp413
S'span'
p414
(lp415
(I0
I15
tp416
a(I0
I38
tp417
asS'PTree'
p418
g375
sbsS'effect'
p419
(icmyPackage
CorE
p420
(dp421
g414
(lp422
(I0
I0
tp423
a(I0
I13
tp424
asg418
g5
(g6
g7
(lp425
g19
ag26
ag44
ag73
ag85
ag92
ag99
ag128
atp426
Rp427
(dp428
g16
S'ROOT'
p429
sbsbsS'pt'
p430
(icmyPackage
pattern
p431
(dp432
S'pfreq'
p433
I0
sS'moresent'
p434
I0
sS'main_token'
p435
(lp436
(lp437
(lp438
S'by'
p439
aS'through'
p440
aaasS'ptype'
p441
(lp442
I2
aI1
aI1
asS'cases'
p443
(lp444
S'The similar relation can be detected by analyzing the contents of nodes based on such approaches as the Latent Semantic Analysis (LSA) and the Vector Space Model (VSM)'
p445
asS'id'
p446
I68
sS'constraints'
p447
(lp448
(lp449
S'&R@Complete@'
p450
aa(lp451
S'&V-ing@C@'
p452
aasbsS'sInfo'
p453
(lp454
(isxpPackage
sxpSent
p455
(dp456
S'sysCEidlst'
p457
(lp458
I0
aI1
asS'sentence_text'
p459
VWe isolate three ways in which word embeddings might augment a state-of-the-art statistical parser by connecting out-of-vocabulary words to known ones, by encouraging common behavior among related in-vocabulary words, and by directly providing features for the lexicon
p460
sS'id_sec'
p461
I1
sg446
I1
sS'id_para'
p462
I0
sbasba(icmyPackage
CELink
p463
(dp464
g3
(lp465
g375
asg411
(icmyPackage
CorE
p466
(dp467
g414
(lp468
(I0
I8
tp469
a(I0
I14
tp470
asg418
g268
sbsg419
(icmyPackage
CorE
p471
(dp472
g414
(lp473
(I0
I15
tp474
a(I0
I16
tp475
asg418
g5
(g6
g7
(lp476
g277
ag282
atp477
Rp478
(dp479
g16
g429
sbsbsg430
(icmyPackage
pattern
p480
(dp481
g433
I0
sg434
I0
sg435
(lp482
(lp483
(lp484
S'by'
p485
aS'through'
p486
aaasg441
(lp487
I2
aI1
aI1
asg443
(lp488
S'By extracting comments and comparisons of the cited articles and then organizing them according to the time of publication discovers and displays how the area has developed as a research literature.'
p489
asg446
I67
sg447
(lp490
(lp491
a(lp492
S'&V-ing@C@'
p493
aS'&R'
p494
aasbsg453
(lp495
g455
asba(icmyPackage
CELink
p496
(dp497
g3
(lp498
g5
(g6
g7
(lp499
g5
(g6
g7
(lp500
g5
(g6
g7
(lp501
g5
(g6
g7
(lp502
VThis
p503
atp504
Rp505
(dp506
g16
VDT
p507
sbag5
(g6
g7
(lp508
Vpaper
p509
atp510
Rp511
(dp512
g16
VNN
p513
sbatp514
Rp515
(dp516
g16
VNP
p517
sbag5
(g6
g7
(lp518
g5
(g6
g7
(lp519
Vinvestigates
p520
atp521
Rp522
(dp523
g16
VVBZ
p524
sbag5
(g6
g7
(lp525
g5
(g6
g7
(lp526
g5
(g6
g7
(lp527
g104
atp528
Rp529
(dp530
g16
VDT
p531
sbag5
(g6
g7
(lp532
Vvariety
p533
atp534
Rp535
(dp536
g16
VNN
p537
sbatp538
Rp539
(dp540
g16
VNP
p541
sbag5
(g6
g7
(lp542
g5
(g6
g7
(lp543
Vof
p544
atp545
Rp546
(dp547
g16
VIN
p548
sbag5
(g6
g7
(lp549
g5
(g6
g7
(lp550
g5
(g6
g7
(lp551
Vways
p552
atp553
Rp554
(dp555
g16
VNNS
p556
sbatp557
Rp558
(dp559
g16
VNP
p560
sbag5
(g6
g7
(lp561
g5
(g6
g7
(lp562
g5
(g6
g7
(lp563
Vin
p564
atp565
Rp566
(dp567
g16
VIN
p568
sbag5
(g6
g7
(lp569
g5
(g6
g7
(lp570
Vwhich
p571
atp572
Rp573
(dp574
g16
VWDT
p575
sbag5
(g6
g7
(lp576
Vword
p577
atp578
Rp579
(dp580
g16
VNN
p581
sbatp582
Rp583
(dp584
g16
VWHNP
p585
sbatp586
Rp587
(dp588
g16
VWHPP
p589
sbag5
(g6
g7
(lp590
g5
(g6
g7
(lp591
g5
(g6
g7
(lp592
Vembeddings
p593
atp594
Rp595
(dp596
g16
VNNS
p597
sbatp598
Rp599
(dp600
g16
VNP
p601
sbag5
(g6
g7
(lp602
g5
(g6
g7
(lp603
Vmight
p604
atp605
Rp606
(dp607
g16
VMD
p608
sbag5
(g6
g7
(lp609
g5
(g6
g7
(lp610
Vaugment
p611
atp612
Rp613
(dp614
g16
VVB
p615
sbag5
(g6
g7
(lp616
g5
(g6
g7
(lp617
g104
atp618
Rp619
(dp620
g16
VDT
p621
sbag5
(g6
g7
(lp622
Vconstituency
p623
atp624
Rp625
(dp626
g16
VNN
p627
sbag5
(g6
g7
(lp628
Vparser
p629
atp630
Rp631
(dp632
g16
VNN
p633
sbatp634
Rp635
(dp636
g16
VNP
p637
sbag5
(g6
g7
(lp638
g5
(g6
g7
(lp639
Vwith
p640
atp641
Rp642
(dp643
g16
VIN
p644
sbag5
(g6
g7
(lp645
g5
(g6
g7
(lp646
g104
atp647
Rp648
(dp649
g16
VDT
p650
sbag5
(g6
g7
(lp651
Vdiscrete
p652
atp653
Rp654
(dp655
g16
VJJ
p656
sbag5
(g6
g7
(lp657
Vstate
p658
atp659
Rp660
(dp661
g16
VNN
p662
sbag5
(g6
g7
(lp663
Vspace
p664
atp665
Rp666
(dp667
g16
VNN
p668
sbatp669
Rp670
(dp671
g16
VNP
p672
sbatp673
Rp674
(dp675
g16
VPP
p676
sbatp677
Rp678
(dp679
g16
VVP
p680
sbatp681
Rp682
(dp683
g16
VVP
p684
sbatp685
Rp686
(dp687
g16
g270
sbatp688
Rp689
(dp690
g16
VSBAR
p691
sbatp692
Rp693
(dp694
g16
VNP
p695
sbatp696
Rp697
(dp698
g16
VPP
p699
sbatp700
Rp701
(dp702
g16
VNP
p703
sbatp704
Rp705
(dp706
g16
VVP
p707
sbatp708
Rp709
(dp710
g16
g270
sbatp711
Rp712
(dp713
g16
VROOT
p714
sbag5
(g6
g7
(lp715
g5
(g6
g7
(lp716
g5
(g6
g7
(lp717
g5
(g6
g7
(lp718
VWord
p719
atp720
Rp721
(dp722
g16
VVBN
p723
sbag5
(g6
g7
(lp724
g5
(g6
g7
(lp725
g5
(g6
g7
(lp726
g5
(g6
g7
(lp727
Vembeddings
p728
atp729
Rp730
(dp731
g16
VJJ
p732
sbag5
(g6
g7
(lp733
Vu
p734
atp735
Rp736
(dp737
g16
VNN
p738
sbag5
(g6
g7
(lp739
V'
p740
atp741
Rp742
(dp743
g16
VPOS
p744
sbatp745
Rp746
(dp747
g16
VNP
p748
sbag5
(g6
g7
(lp749
V\u005c
p750
atp751
Rp752
(dp753
g16
VCD
p754
sbag5
(g6
g7
(lp755
Vu2014
p756
atp757
Rp758
(dp759
g16
VJJ
p760
sbag5
(g6
g7
(lp761
g740
atp762
Rp763
(dp764
g16
V''
p765
sbag5
(g6
g7
(lp766
Vrepresentations
p767
atp768
Rp769
(dp770
g16
VNNS
p771
sbatp772
Rp773
(dp774
g16
VNP
p775
sbag5
(g6
g7
(lp776
g5
(g6
g7
(lp777
Vof
p778
atp779
Rp780
(dp781
g16
VIN
p782
sbag5
(g6
g7
(lp783
g5
(g6
g7
(lp784
Vlexical
p785
atp786
Rp787
(dp788
g16
VJJ
p789
sbag5
(g6
g7
(lp790
Vitems
p791
atp792
Rp793
(dp794
g16
VNNS
p795
sbatp796
Rp797
(dp798
g16
VNP
p799
sbatp800
Rp801
(dp802
g16
VPP
p803
sbatp804
Rp805
(dp806
g16
VNP
p807
sbag5
(g6
g7
(lp808
g5
(g6
g7
(lp809
Vas
p810
atp811
Rp812
(dp813
g16
VIN
p814
sbag5
(g6
g7
(lp815
g5
(g6
g7
(lp816
g5
(g6
g7
(lp817
Vpoints
p818
atp819
Rp820
(dp821
g16
VNNS
p822
sbatp823
Rp824
(dp825
g16
VNP
p826
sbag5
(g6
g7
(lp827
g5
(g6
g7
(lp828
Vin
p829
atp830
Rp831
(dp832
g16
VIN
p833
sbag5
(g6
g7
(lp834
g5
(g6
g7
(lp835
g5
(g6
g7
(lp836
g104
atp837
Rp838
(dp839
g16
VDT
p840
sbag5
(g6
g7
(lp841
Vreal
p842
atp843
Rp844
(dp845
g16
VJJ
p846
sbag5
(g6
g7
(lp847
Vvector
p848
atp849
Rp850
(dp851
g16
VNN
p852
sbag5
(g6
g7
(lp853
Vspace
p854
atp855
Rp856
(dp857
g16
VNN
p858
sbag5
(g6
g7
(lp859
g734
atp860
Rp861
(dp862
g16
VNN
p863
sbag5
(g6
g7
(lp864
g740
atp865
Rp866
(dp867
g16
VPOS
p868
sbatp869
Rp870
(dp871
g16
VNP
p872
sbag5
(g6
g7
(lp873
V\u005c
p874
atp875
Rp876
(dp877
g16
VNN
p878
sbag5
(g6
g7
(lp879
Vu2014
p880
atp881
Rp882
(dp883
g16
VNN
p884
sbag5
(g6
g7
(lp885
g740
atp886
Rp887
(dp888
g16
V''
p889
sbatp890
Rp891
(dp892
g16
VNP
p893
sbatp894
Rp895
(dp896
g16
VPP
p897
sbatp898
Rp899
(dp900
g16
VNP
p901
sbatp902
Rp903
(dp904
g16
VPP
p905
sbatp906
Rp907
(dp908
g16
VVP
p909
sbag5
(g6
g7
(lp910
g5
(g6
g7
(lp911
Vhave
p912
atp913
Rp914
(dp915
g16
VVBP
p916
sbag5
(g6
g7
(lp917
g5
(g6
g7
(lp918
g104
atp919
Rp920
(dp921
g16
VDT
p922
sbag5
(g6
g7
(lp923
Vlong
p924
atp925
Rp926
(dp927
g16
VJJ
p928
sbag5
(g6
g7
(lp929
Vhistory
p930
atp931
Rp932
(dp933
g16
VNN
p934
sbatp935
Rp936
(dp937
g16
VNP
p938
sbag5
(g6
g7
(lp939
g5
(g6
g7
(lp940
Vin
p941
atp942
Rp943
(dp944
g16
VIN
p945
sbag5
(g6
g7
(lp946
g5
(g6
g7
(lp947
Vnatural
p948
atp949
Rp950
(dp951
g16
VJJ
p952
sbag5
(g6
g7
(lp953
Vlanguage
p954
atp955
Rp956
(dp957
g16
VNN
p958
sbag5
(g6
g7
(lp959
Vprocessing
p960
atp961
Rp962
(dp963
g16
VNN
p964
sbatp965
Rp966
(dp967
g16
VNP
p968
sbatp969
Rp970
(dp971
g16
VPP
p972
sbag5
(g6
g7
(lp973
g193
atp974
Rp975
(dp976
g16
g193
sbag5
(g6
g7
(lp977
g5
(g6
g7
(lp978
g5
(g6
g7
(lp979
Vgoing
p980
atp981
Rp982
(dp983
g16
VVBG
p984
sbag5
(g6
g7
(lp985
g5
(g6
g7
(lp986
g5
(g6
g7
(lp987
Vback
p988
atp989
Rp990
(dp991
g16
VRP
p992
sbag5
(g6
g7
(lp993
g5
(g6
g7
(lp994
g5
(g6
g7
(lp995
Vat
p996
atp997
Rp998
(dp999
g16
VIN
p1000
sbag5
(g6
g7
(lp1001
Vleast
p1002
atp1003
Rp1004
(dp1005
g16
VJJS
p1006
sbatp1007
Rp1008
(dp1009
g16
VADVP
p1010
sbag5
(g6
g7
(lp1011
Vas
p1012
atp1013
Rp1014
(dp1015
g16
VRB
p1016
sbag5
(g6
g7
(lp1017
Vfar
p1018
atp1019
Rp1020
(dp1021
g16
VRB
p1022
sbatp1023
Rp1024
(dp1025
g16
VADVP
p1026
sbag5
(g6
g7
(lp1027
g5
(g6
g7
(lp1028
Vas
p1029
atp1030
Rp1031
(dp1032
g16
VIN
p1033
sbag5
(g6
g7
(lp1034
g5
(g6
g7
(lp1035
Vwork
p1036
atp1037
Rp1038
(dp1039
g16
VNN
p1040
sbatp1041
Rp1042
(dp1043
g16
VNP
p1044
sbatp1045
Rp1046
(dp1047
g16
VPP
p1048
sbatp1049
Rp1050
(dp1051
g16
VADVP
p1052
sbag5
(g6
g7
(lp1053
g5
(g6
g7
(lp1054
Von
p1055
atp1056
Rp1057
(dp1058
g16
VIN
p1059
sbag5
(g6
g7
(lp1060
g5
(g6
g7
(lp1061
g5
(g6
g7
(lp1062
g5
(g6
g7
(lp1063
Vlatent
p1064
atp1065
Rp1066
(dp1067
g16
VJJ
p1068
sbag5
(g6
g7
(lp1069
Vsemantic
p1070
atp1071
Rp1072
(dp1073
g16
VJJ
p1074
sbatp1075
Rp1076
(dp1077
g16
VADJP
p1078
sbag5
(g6
g7
(lp1079
Vanalysis
p1080
atp1081
Rp1082
(dp1083
g16
VNN
p1084
sbatp1085
Rp1086
(dp1087
g16
VNP
p1088
sbag5
(g6
g7
(lp1089
g5
(g6
g7
(lp1090
V-LRB-
p1091
atp1092
Rp1093
(dp1094
g16
V-LRB-
p1095
sbag5
(g6
g7
(lp1096
g5
(g6
g7
(lp1097
VLSA
p1098
atp1099
Rp1100
(dp1101
g16
VNNP
p1102
sbatp1103
Rp1104
(dp1105
g16
VNP
p1106
sbag5
(g6
g7
(lp1107
V-RRB-
p1108
atp1109
Rp1110
(dp1111
g16
V-RRB-
p1112
sbatp1113
Rp1114
(dp1115
g16
VPRN
p1116
sbatp1117
Rp1118
(dp1119
g16
VNP
p1120
sbatp1121
Rp1122
(dp1123
g16
VPP
p1124
sbatp1125
Rp1126
(dp1127
g16
VADVP
p1128
sbag5
(g6
g7
(lp1129
g5
(g6
g7
(lp1130
Vfor
p1131
atp1132
Rp1133
(dp1134
g16
VIN
p1135
sbag5
(g6
g7
(lp1136
g5
(g6
g7
(lp1137
Vinformation
p1138
atp1139
Rp1140
(dp1141
g16
VNN
p1142
sbag5
(g6
g7
(lp1143
Vretrieval
p1144
atp1145
Rp1146
(dp1147
g16
VNN
p1148
sbag5
(g6
g7
(lp1149
V-LSB-
p1150
atp1151
Rp1152
(dp1153
g16
VNNS
p1154
sbatp1155
Rp1156
(dp1157
g16
VNP
p1158
sbatp1159
Rp1160
(dp1161
g16
VPP
p1162
sbatp1163
Rp1164
(dp1165
g16
VVP
p1166
sbatp1167
Rp1168
(dp1169
g16
g270
sbatp1170
Rp1171
(dp1172
g16
VVP
p1173
sbag5
(g6
g7
(lp1174
g5
(g6
g7
(lp1175
V4
p1176
atp1177
Rp1178
(dp1179
g16
VCD
p1180
sbag5
(g6
g7
(lp1181
V-RSB-
p1182
atp1183
Rp1184
(dp1185
g16
VNN
p1186
sbatp1187
Rp1188
(dp1189
g16
VNP
p1190
sbatp1191
Rp1192
(dp1193
g16
VSINV
p1194
sbatp1195
Rp1196
(dp1197
g16
VROOT
p1198
sbasg411
(icmyPackage
CorE
p1199
(dp1200
g414
(lp1201
(I1
I12
tp1202
a(I1
I51
tp1203
asg418
g5
(g6
g7
(lp1204
g899
ag1171
ag1178
atp1205
Rp1206
(dp1207
g16
g429
sbsbsg419
(icmyPackage
CorE
p1208
(dp1209
g414
(lp1210
(I0
I0
tp1211
a(I1
I10
tp1212
asg418
g5
(g6
g7
(lp1213
g712
ag721
ag805
atp1214
Rp1215
(dp1216
g16
g429
sbsbsg430
(icmyPackage
pattern
p1217
(dp1218
g433
I26
sg434
I1
sg435
(lp1219
(lp1220
S'as'
p1221
aasg441
(lp1222
I3
aI1
aI1
asg443
(lp1223
S'You do not need to worry about the operation, as the software is very easy to use.'
p1224
asg446
I80
sg447
(lp1225
(lp1226
S'&R@Complete@'
p1227
aS'(,)'
p1228
aS'(-such/-same/-seem/-regard/-regards/-regarded/-view/-views/-viewed/-denote/-denoted/-denotes)'
p1229
aa(lp1230
S'(-if/-follow/-follows/-&adv)'
p1231
aS'&C@Complete@'
p1232
aasbsg453
(lp1233
(isxpPackage
sxpSent
p1234
(dp1235
g457
(lp1236
I2
asg459
VThis paper investigates a variety of ways in which word embeddings might augment a constituency parser with a discrete state space
p1237
sg461
I2
sg446
I5
sg462
I1
sba(isxpPackage
sxpSent
p1238
(dp1239
g457
(lp1240
I2
asg459
VWord embeddings u'\u005cu2014' representations of lexical items as points in a real vector space u'\u005cu2014' have a long history in natural language processing, going back at least as far as work on latent semantic analysis (LSA) for information retrieval [ 4 ]
p1241
sg461
I2
sg446
I6
sg462
I1
sbasba(icmyPackage
CELink
p1242
(dp1243
g3
(lp1244
g5
(g6
g7
(lp1245
g5
(g6
g7
(lp1246
g5
(g6
g7
(lp1247
g5
(g6
g7
(lp1248
VWhile
p1249
atp1250
Rp1251
(dp1252
g16
VIN
p1253
sbag5
(g6
g7
(lp1254
g5
(g6
g7
(lp1255
g5
(g6
g7
(lp1256
Vword
p1257
atp1258
Rp1259
(dp1260
g16
VNN
p1261
sbag5
(g6
g7
(lp1262
Vembeddings
p1263
atp1264
Rp1265
(dp1266
g16
VNNS
p1267
sbatp1268
Rp1269
(dp1270
g16
VNP
p1271
sbag5
(g6
g7
(lp1272
g5
(g6
g7
(lp1273
Vcan
p1274
atp1275
Rp1276
(dp1277
g16
VMD
p1278
sbag5
(g6
g7
(lp1279
g5
(g6
g7
(lp1280
Vbe
p1281
atp1282
Rp1283
(dp1284
g16
VVB
p1285
sbag5
(g6
g7
(lp1286
g5
(g6
g7
(lp1287
Vconstructed
p1288
atp1289
Rp1290
(dp1291
g16
VVBN
p1292
sbag5
(g6
g7
(lp1293
g5
(g6
g7
(lp1294
Vdirectly
p1295
atp1296
Rp1297
(dp1298
g16
VRB
p1299
sbatp1300
Rp1301
(dp1302
g16
VADVP
p1303
sbag5
(g6
g7
(lp1304
g5
(g6
g7
(lp1305
g5
(g6
g7
(lp1306
Vfrom
p1307
atp1308
Rp1309
(dp1310
g16
VIN
p1311
sbag5
(g6
g7
(lp1312
g5
(g6
g7
(lp1313
Vsurface
p1314
atp1315
Rp1316
(dp1317
g16
VNN
p1318
sbag5
(g6
g7
(lp1319
Vdistributional
p1320
atp1321
Rp1322
(dp1323
g16
VNN
p1324
sbag5
(g6
g7
(lp1325
Vstatistics
p1326
atp1327
Rp1328
(dp1329
g16
VNNS
p1330
sbatp1331
Rp1332
(dp1333
g16
VNP
p1334
sbatp1335
Rp1336
(dp1337
g16
VPP
p1338
sbag5
(g6
g7
(lp1339
g193
atp1340
Rp1341
(dp1342
g16
g193
sbag5
(g6
g7
(lp1343
Vas
p1344
atp1345
Rp1346
(dp1347
g16
VRB
p1348
sbag5
(g6
g7
(lp1349
g5
(g6
g7
(lp1350
Vin
p1351
atp1352
Rp1353
(dp1354
g16
VIN
p1355
sbag5
(g6
g7
(lp1356
g5
(g6
g7
(lp1357
VLSA
p1358
atp1359
Rp1360
(dp1361
g16
VNNP
p1362
sbatp1363
Rp1364
(dp1365
g16
VNP
p1366
sbatp1367
Rp1368
(dp1369
g16
VPP
p1370
sbatp1371
Rp1372
(dp1373
g16
VPP
p1374
sbatp1375
Rp1376
(dp1377
g16
VVP
p1378
sbatp1379
Rp1380
(dp1381
g16
VVP
p1382
sbatp1383
Rp1384
(dp1385
g16
VVP
p1386
sbatp1387
Rp1388
(dp1389
g16
g270
sbatp1390
Rp1391
(dp1392
g16
VSBAR
p1393
sbag5
(g6
g7
(lp1394
g193
atp1395
Rp1396
(dp1397
g16
g193
sbag5
(g6
g7
(lp1398
g5
(g6
g7
(lp1399
g5
(g6
g7
(lp1400
g5
(g6
g7
(lp1401
Vmore
p1402
atp1403
Rp1404
(dp1405
g16
VRBR
p1406
sbag5
(g6
g7
(lp1407
Vsophisticated
p1408
atp1409
Rp1410
(dp1411
g16
VJJ
p1412
sbatp1413
Rp1414
(dp1415
g16
VADJP
p1416
sbag5
(g6
g7
(lp1417
Vtools
p1418
atp1419
Rp1420
(dp1421
g16
VNNS
p1422
sbatp1423
Rp1424
(dp1425
g16
VNP
p1426
sbag5
(g6
g7
(lp1427
g5
(g6
g7
(lp1428
Vfor
p1429
atp1430
Rp1431
(dp1432
g16
VIN
p1433
sbag5
(g6
g7
(lp1434
g5
(g6
g7
(lp1435
g5
(g6
g7
(lp1436
Vunsupervised
p1437
atp1438
Rp1439
(dp1440
g16
VJJ
p1441
sbag5
(g6
g7
(lp1442
Vextraction
p1443
atp1444
Rp1445
(dp1446
g16
VNN
p1447
sbatp1448
Rp1449
(dp1450
g16
VNP
p1451
sbag5
(g6
g7
(lp1452
g5
(g6
g7
(lp1453
Vof
p1454
atp1455
Rp1456
(dp1457
g16
VIN
p1458
sbag5
(g6
g7
(lp1459
g5
(g6
g7
(lp1460
Vword
p1461
atp1462
Rp1463
(dp1464
g16
VNN
p1465
sbag5
(g6
g7
(lp1466
Vrepresentations
p1467
atp1468
Rp1469
(dp1470
g16
VNNS
p1471
sbatp1472
Rp1473
(dp1474
g16
VNP
p1475
sbatp1476
Rp1477
(dp1478
g16
VPP
p1479
sbatp1480
Rp1481
(dp1482
g16
VNP
p1483
sbatp1484
Rp1485
(dp1486
g16
VPP
p1487
sbatp1488
Rp1489
(dp1490
g16
VNP
p1491
sbag5
(g6
g7
(lp1492
g5
(g6
g7
(lp1493
Vhave
p1494
atp1495
Rp1496
(dp1497
g16
VVBP
p1498
sbag5
(g6
g7
(lp1499
g5
(g6
g7
(lp1500
Vrecently
p1501
atp1502
Rp1503
(dp1504
g16
VRB
p1505
sbatp1506
Rp1507
(dp1508
g16
VADVP
p1509
sbag5
(g6
g7
(lp1510
g5
(g6
g7
(lp1511
Vgained
p1512
atp1513
Rp1514
(dp1515
g16
VVBN
p1516
sbag5
(g6
g7
(lp1517
g5
(g6
g7
(lp1518
g5
(g6
g7
(lp1519
Vpopularity
p1520
atp1521
Rp1522
(dp1523
g16
VNN
p1524
sbatp1525
Rp1526
(dp1527
g16
VNP
p1528
sbag5
(g6
g7
(lp1529
g5
(g6
g7
(lp1530
g5
(g6
g7
(lp1531
V-LSB-
p1532
atp1533
Rp1534
(dp1535
g16
VNNP
p1536
sbag5
(g6
g7
(lp1537
V3
p1538
atp1539
Rp1540
(dp1541
g16
VCD
p1542
sbag5
(g6
g7
(lp1543
g193
atp1544
Rp1545
(dp1546
g16
g193
sbag5
(g6
g7
(lp1547
V10
p1548
atp1549
Rp1550
(dp1551
g16
VCD
p1552
sbatp1553
Rp1554
(dp1555
g16
VNP
p1556
sbag5
(g6
g7
(lp1557
V-RSB-
p1558
atp1559
Rp1560
(dp1561
g16
VJJ
p1562
sbatp1563
Rp1564
(dp1565
g16
VADJP
p1566
sbatp1567
Rp1568
(dp1569
g16
VNP
p1570
sbatp1571
Rp1572
(dp1573
g16
VVP
p1574
sbatp1575
Rp1576
(dp1577
g16
VVP
p1578
sbatp1579
Rp1580
(dp1581
g16
g270
sbatp1582
Rp1583
(dp1584
g16
VROOT
p1585
sbasg411
(icmyPackage
CorE
p1586
(dp1587
g414
(lp1588
(I0
I13
tp1589
a(I0
I33
tp1590
asg418
g5
(g6
g7
(lp1591
g1368
ag1396
ag1489
ag1576
atp1592
Rp1593
(dp1594
g16
g429
sbsbsg419
(icmyPackage
CorE
p1595
(dp1596
g414
(lp1597
(I0
I1
tp1598
a(I0
I10
tp1599
asg418
g5
(g6
g7
(lp1600
g1269
ag1276
ag1283
ag1290
ag1301
ag1336
atp1601
Rp1602
(dp1603
g16
g429
sbsbsg430
g1217
sg453
(lp1604
(isxpPackage
sxpSent
p1605
(dp1606
g457
(lp1607
I3
asg459
VWhile word embeddings can be constructed directly from surface distributional statistics, as in LSA, more sophisticated tools for unsupervised extraction of word representations have recently gained popularity [ 3 , 10 ]
p1608
sg461
I2
sg446
I7
sg462
I1
sbasba(icmyPackage
CELink
p1609
(dp1610
g3
(lp1611
g5
(g6
g7
(lp1612
g5
(g6
g7
(lp1613
g5
(g6
g7
(lp1614
g5
(g6
g7
(lp1615
g5
(g6
g7
(lp1616
VSemi-supervised
p1617
atp1618
Rp1619
(dp1620
g16
VJJ
p1621
sbag5
(g6
g7
(lp1622
Vand
p1623
atp1624
Rp1625
(dp1626
g16
VCC
p1627
sbag5
(g6
g7
(lp1628
Vunsupervised
p1629
atp1630
Rp1631
(dp1632
g16
VJJ
p1633
sbag5
(g6
g7
(lp1634
Vmodels
p1635
atp1636
Rp1637
(dp1638
g16
VNNS
p1639
sbatp1640
Rp1641
(dp1642
g16
VNP
p1643
sbag5
(g6
g7
(lp1644
g5
(g6
g7
(lp1645
Vfor
p1646
atp1647
Rp1648
(dp1649
g16
VIN
p1650
sbag5
(g6
g7
(lp1651
g5
(g6
g7
(lp1652
g5
(g6
g7
(lp1653
g104
atp1654
Rp1655
(dp1656
g16
VDT
p1657
sbag5
(g6
g7
(lp1658
Vvariety
p1659
atp1660
Rp1661
(dp1662
g16
VNN
p1663
sbatp1664
Rp1665
(dp1666
g16
VNP
p1667
sbag5
(g6
g7
(lp1668
g5
(g6
g7
(lp1669
Vof
p1670
atp1671
Rp1672
(dp1673
g16
VIN
p1674
sbag5
(g6
g7
(lp1675
g5
(g6
g7
(lp1676
Vcore
p1677
atp1678
Rp1679
(dp1680
g16
VJJ
p1681
sbag5
(g6
g7
(lp1682
VNLP
p1683
atp1684
Rp1685
(dp1686
g16
VNNP
p1687
sbag5
(g6
g7
(lp1688
Vtasks
p1689
atp1690
Rp1691
(dp1692
g16
VNNS
p1693
sbatp1694
Rp1695
(dp1696
g16
VNP
p1697
sbatp1698
Rp1699
(dp1700
g16
VPP
p1701
sbag5
(g6
g7
(lp1702
g193
atp1703
Rp1704
(dp1705
g16
g193
sbag5
(g6
g7
(lp1706
g5
(g6
g7
(lp1707
Vincluding
p1708
atp1709
Rp1710
(dp1711
g16
VVBG
p1712
sbag5
(g6
g7
(lp1713
g5
(g6
g7
(lp1714
g5
(g6
g7
(lp1715
Vnamed-entity
p1716
atp1717
Rp1718
(dp1719
g16
VJJ
p1720
sbag5
(g6
g7
(lp1721
Vrecognition
p1722
atp1723
Rp1724
(dp1725
g16
VNN
p1726
sbatp1727
Rp1728
(dp1729
g16
VNP
p1730
sbag5
(g6
g7
(lp1731
g5
(g6
g7
(lp1732
g5
(g6
g7
(lp1733
V-LSB-
p1734
atp1735
Rp1736
(dp1737
g16
VVBG
p1738
sbag5
(g6
g7
(lp1739
g5
(g6
g7
(lp1740
g5
(g6
g7
(lp1741
V5
p1742
atp1743
Rp1744
(dp1745
g16
VCD
p1746
sbag5
(g6
g7
(lp1747
V-RSB-
p1748
atp1749
Rp1750
(dp1751
g16
VNNS
p1752
sbatp1753
Rp1754
(dp1755
g16
VNP
p1756
sbag5
(g6
g7
(lp1757
g193
atp1758
Rp1759
(dp1760
g16
g193
sbag5
(g6
g7
(lp1761
g5
(g6
g7
(lp1762
g5
(g6
g7
(lp1763
Vpart-of-speech
p1764
atp1765
Rp1766
(dp1767
g16
VJJ
p1768
sbag5
(g6
g7
(lp1769
Vtagging
p1770
atp1771
Rp1772
(dp1773
g16
VNN
p1774
sbag5
(g6
g7
(lp1775
V-LSB-
p1776
atp1777
Rp1778
(dp1779
g16
VNNS
p1780
sbatp1781
Rp1782
(dp1783
g16
VNP
p1784
sbag5
(g6
g7
(lp1785
g5
(g6
g7
(lp1786
V13
p1787
atp1788
Rp1789
(dp1790
g16
VCD
p1791
sbag5
(g6
g7
(lp1792
V-RSB-
p1793
atp1794
Rp1795
(dp1796
g16
VNNS
p1797
sbatp1798
Rp1799
(dp1800
g16
VNP
p1801
sbatp1802
Rp1803
(dp1804
g16
VNP
p1805
sbag5
(g6
g7
(lp1806
g193
atp1807
Rp1808
(dp1809
g16
g193
sbatp1810
Rp1811
(dp1812
g16
VNP
p1813
sbatp1814
Rp1815
(dp1816
g16
VVP
p1817
sbag5
(g6
g7
(lp1818
Vand
p1819
atp1820
Rp1821
(dp1822
g16
VCC
p1823
sbag5
(g6
g7
(lp1824
g5
(g6
g7
(lp1825
Vchunking
p1826
atp1827
Rp1828
(dp1829
g16
VVBG
p1830
sbag5
(g6
g7
(lp1831
g5
(g6
g7
(lp1832
g5
(g6
g7
(lp1833
V-LSB-
p1834
atp1835
Rp1836
(dp1837
g16
VCD
p1838
sbag5
(g6
g7
(lp1839
V15
p1840
atp1841
Rp1842
(dp1843
g16
VCD
p1844
sbatp1845
Rp1846
(dp1847
g16
VQP
p1848
sbag5
(g6
g7
(lp1849
V-RSB-
p1850
atp1851
Rp1852
(dp1853
g16
VNNS
p1854
sbatp1855
Rp1856
(dp1857
g16
VNP
p1858
sbatp1859
Rp1860
(dp1861
g16
VVP
p1862
sbatp1863
Rp1864
(dp1865
g16
VVP
p1866
sbatp1867
Rp1868
(dp1869
g16
VNP
p1870
sbatp1871
Rp1872
(dp1873
g16
VPP
p1874
sbatp1875
Rp1876
(dp1877
g16
VNP
p1878
sbatp1879
Rp1880
(dp1881
g16
VPP
p1882
sbatp1883
Rp1884
(dp1885
g16
VNP
p1886
sbag5
(g6
g7
(lp1887
g5
(g6
g7
(lp1888
Vhave
p1889
atp1890
Rp1891
(dp1892
g16
VVBP
p1893
sbag5
(g6
g7
(lp1894
g5
(g6
g7
(lp1895
Vbeen
p1896
atp1897
Rp1898
(dp1899
g16
VVBN
p1900
sbag5
(g6
g7
(lp1901
g5
(g6
g7
(lp1902
Vshown
p1903
atp1904
Rp1905
(dp1906
g16
VVBN
p1907
sbag5
(g6
g7
(lp1908
g5
(g6
g7
(lp1909
g5
(g6
g7
(lp1910
Vto
p1911
atp1912
Rp1913
(dp1914
g16
VTO
p1915
sbag5
(g6
g7
(lp1916
g5
(g6
g7
(lp1917
Vbenefit
p1918
atp1919
Rp1920
(dp1921
g16
VVB
p1922
sbag5
(g6
g7
(lp1923
g5
(g6
g7
(lp1924
Vfrom
p1925
atp1926
Rp1927
(dp1928
g16
VIN
p1929
sbag5
(g6
g7
(lp1930
g5
(g6
g7
(lp1931
g5
(g6
g7
(lp1932
Vthe
p1933
atp1934
Rp1935
(dp1936
g16
VDT
p1937
sbag5
(g6
g7
(lp1938
Vinclusion
p1939
atp1940
Rp1941
(dp1942
g16
VNN
p1943
sbatp1944
Rp1945
(dp1946
g16
VNP
p1947
sbag5
(g6
g7
(lp1948
g5
(g6
g7
(lp1949
Vof
p1950
atp1951
Rp1952
(dp1953
g16
VIN
p1954
sbag5
(g6
g7
(lp1955
g5
(g6
g7
(lp1956
Vword
p1957
atp1958
Rp1959
(dp1960
g16
VNN
p1961
sbag5
(g6
g7
(lp1962
Vembeddings
p1963
atp1964
Rp1965
(dp1966
g16
VNNS
p1967
sbatp1968
Rp1969
(dp1970
g16
VNP
p1971
sbatp1972
Rp1973
(dp1974
g16
VPP
p1975
sbatp1976
Rp1977
(dp1978
g16
VNP
p1979
sbatp1980
Rp1981
(dp1982
g16
VPP
p1983
sbag5
(g6
g7
(lp1984
g5
(g6
g7
(lp1985
Vas
p1986
atp1987
Rp1988
(dp1989
g16
VIN
p1990
sbag5
(g6
g7
(lp1991
g5
(g6
g7
(lp1992
Vfeatures
p1993
atp1994
Rp1995
(dp1996
g16
VNNS
p1997
sbatp1998
Rp1999
(dp2000
g16
VNP
p2001
sbatp2002
Rp2003
(dp2004
g16
VPP
p2005
sbatp2006
Rp2007
(dp2008
g16
VVP
p2009
sbatp2010
Rp2011
(dp2012
g16
VVP
p2013
sbatp2014
Rp2015
(dp2016
g16
g270
sbatp2017
Rp2018
(dp2019
g16
VVP
p2020
sbatp2021
Rp2022
(dp2023
g16
VVP
p2024
sbatp2025
Rp2026
(dp2027
g16
VVP
p2028
sbatp2029
Rp2030
(dp2031
g16
g270
sbatp2032
Rp2033
(dp2034
g16
VROOT
p2035
sbag5
(g6
g7
(lp2036
g5
(g6
g7
(lp2037
g5
(g6
g7
(lp2038
g5
(g6
g7
(lp2039
VIn
p2040
atp2041
Rp2042
(dp2043
g16
VIN
p2044
sbag5
(g6
g7
(lp2045
g5
(g6
g7
(lp2046
Vthe
p2047
atp2048
Rp2049
(dp2050
g16
VDT
p2051
sbag5
(g6
g7
(lp2052
Vother
p2053
atp2054
Rp2055
(dp2056
g16
VJJ
p2057
sbag5
(g6
g7
(lp2058
Vdirection
p2059
atp2060
Rp2061
(dp2062
g16
VNN
p2063
sbatp2064
Rp2065
(dp2066
g16
VNP
p2067
sbatp2068
Rp2069
(dp2070
g16
VPP
p2071
sbag5
(g6
g7
(lp2072
g193
atp2073
Rp2074
(dp2075
g16
g193
sbag5
(g6
g7
(lp2076
g5
(g6
g7
(lp2077
g5
(g6
g7
(lp2078
Vaccess
p2079
atp2080
Rp2081
(dp2082
g16
VNN
p2083
sbatp2084
Rp2085
(dp2086
g16
VNP
p2087
sbag5
(g6
g7
(lp2088
g5
(g6
g7
(lp2089
Vto
p2090
atp2091
Rp2092
(dp2093
g16
VTO
p2094
sbag5
(g6
g7
(lp2095
g5
(g6
g7
(lp2096
g104
atp2097
Rp2098
(dp2099
g16
VDT
p2100
sbag5
(g6
g7
(lp2101
Vsyntactic
p2102
atp2103
Rp2104
(dp2105
g16
VJJ
p2106
sbag5
(g6
g7
(lp2107
Vparse
p2108
atp2109
Rp2110
(dp2111
g16
VNN
p2112
sbatp2113
Rp2114
(dp2115
g16
VNP
p2116
sbatp2117
Rp2118
(dp2119
g16
VPP
p2120
sbatp2121
Rp2122
(dp2123
g16
VNP
p2124
sbag5
(g6
g7
(lp2125
g5
(g6
g7
(lp2126
Vhas
p2127
atp2128
Rp2129
(dp2130
g16
VVBZ
p2131
sbag5
(g6
g7
(lp2132
g5
(g6
g7
(lp2133
Vbeen
p2134
atp2135
Rp2136
(dp2137
g16
VVBN
p2138
sbag5
(g6
g7
(lp2139
g5
(g6
g7
(lp2140
Vshown
p2141
atp2142
Rp2143
(dp2144
g16
VVBN
p2145
sbag5
(g6
g7
(lp2146
g5
(g6
g7
(lp2147
g5
(g6
g7
(lp2148
Vto
p2149
atp2150
Rp2151
(dp2152
g16
VTO
p2153
sbag5
(g6
g7
(lp2154
g5
(g6
g7
(lp2155
Vbe
p2156
atp2157
Rp2158
(dp2159
g16
VVB
p2160
sbag5
(g6
g7
(lp2161
g5
(g6
g7
(lp2162
Vuseful
p2163
atp2164
Rp2165
(dp2166
g16
VJJ
p2167
sbag5
(g6
g7
(lp2168
g5
(g6
g7
(lp2169
Vfor
p2170
atp2171
Rp2172
(dp2173
g16
VIN
p2174
sbag5
(g6
g7
(lp2175
g5
(g6
g7
(lp2176
g5
(g6
g7
(lp2177
Vconstructing
p2178
atp2179
Rp2180
(dp2181
g16
VVBG
p2182
sbag5
(g6
g7
(lp2183
g5
(g6
g7
(lp2184
Vword
p2185
atp2186
Rp2187
(dp2188
g16
VNN
p2189
sbag5
(g6
g7
(lp2190
Vembeddings
p2191
atp2192
Rp2193
(dp2194
g16
VNNS
p2195
sbatp2196
Rp2197
(dp2198
g16
VNP
p2199
sbag5
(g6
g7
(lp2200
g5
(g6
g7
(lp2201
Vfor
p2202
atp2203
Rp2204
(dp2205
g16
VIN
p2206
sbag5
(g6
g7
(lp2207
g5
(g6
g7
(lp2208
g5
(g6
g7
(lp2209
Vphrases
p2210
atp2211
Rp2212
(dp2213
g16
VNNS
p2214
sbatp2215
Rp2216
(dp2217
g16
VNP
p2218
sbag5
(g6
g7
(lp2219
g5
(g6
g7
(lp2220
Vcompositionally
p2221
atp2222
Rp2223
(dp2224
g16
VRB
p2225
sbag5
(g6
g7
(lp2226
g5
(g6
g7
(lp2227
V-LSB-
p2228
atp2229
Rp2230
(dp2231
g16
VNNP
p2232
sbag5
(g6
g7
(lp2233
V7
p2234
atp2235
Rp2236
(dp2237
g16
VCD
p2238
sbag5
(g6
g7
(lp2239
g193
atp2240
Rp2241
(dp2242
g16
g193
sbag5
(g6
g7
(lp2243
V1
p2244
atp2245
Rp2246
(dp2247
g16
VCD
p2248
sbatp2249
Rp2250
(dp2251
g16
VNP
p2252
sbag5
(g6
g7
(lp2253
V-RSB-
p2254
atp2255
Rp2256
(dp2257
g16
VJJ
p2258
sbatp2259
Rp2260
(dp2261
g16
VADJP
p2262
sbatp2263
Rp2264
(dp2265
g16
VNP
p2266
sbatp2267
Rp2268
(dp2269
g16
VPP
p2270
sbatp2271
Rp2272
(dp2273
g16
VVP
p2274
sbatp2275
Rp2276
(dp2277
g16
g270
sbatp2278
Rp2279
(dp2280
g16
VPP
p2281
sbatp2282
Rp2283
(dp2284
g16
VADJP
p2285
sbatp2286
Rp2287
(dp2288
g16
VVP
p2289
sbatp2290
Rp2291
(dp2292
g16
VVP
p2293
sbatp2294
Rp2295
(dp2296
g16
g270
sbatp2297
Rp2298
(dp2299
g16
VVP
p2300
sbatp2301
Rp2302
(dp2303
g16
VVP
p2304
sbatp2305
Rp2306
(dp2307
g16
VVP
p2308
sbatp2309
Rp2310
(dp2311
g16
g270
sbatp2312
Rp2313
(dp2314
g16
VROOT
p2315
sbasg411
(icmyPackage
CorE
p2316
(dp2317
g414
(lp2318
(I0
I42
tp2319
a(I1
I20
tp2320
asg418
g5
(g6
g7
(lp2321
g1999
ag2069
ag2074
ag2122
ag2129
ag2136
ag2143
ag2151
ag2158
ag2165
ag2172
ag2180
ag2197
ag2204
atp2322
Rp2323
(dp2324
g16
g429
sbsbsg419
(icmyPackage
CorE
p2325
(dp2326
g414
(lp2327
(I0
I0
tp2328
a(I0
I40
tp2329
asg418
g5
(g6
g7
(lp2330
g1884
ag1891
ag1898
ag1905
ag1913
ag1920
ag1981
atp2331
Rp2332
(dp2333
g16
g429
sbsbsg430
g1217
sg453
(lp2334
(isxpPackage
sxpSent
p2335
(dp2336
g457
(lp2337
I4
asg459
VSemi-supervised and unsupervised models for a variety of core NLP tasks, including named-entity recognition [ 5 ] , part-of-speech tagging [ 13 ] , and chunking [ 15 ] have been shown to benefit from the inclusion of word embeddings as features
p2338
sg461
I2
sg446
I8
sg462
I1
sba(isxpPackage
sxpSent
p2339
(dp2340
g457
(lp2341
I4
aI5
asg459
VIn the other direction, access to a syntactic parse has been shown to be useful for constructing word embeddings for phrases compositionally [ 7 , 1 ]
p2342
sg461
I2
sg446
I9
sg462
I1
sbasba(icmyPackage
CELink
p2343
(dp2344
g3
(lp2345
g2313
asg411
(icmyPackage
CorE
p2346
(dp2347
g414
(lp2348
(I0
I17
tp2349
a(I0
I27
tp2350
asg418
g2276
sbsg419
(icmyPackage
CorE
p2351
(dp2352
g414
(lp2353
(I0
I0
tp2354
a(I0
I15
tp2355
asg418
g5
(g6
g7
(lp2356
g2069
ag2074
ag2122
ag2129
ag2136
ag2143
ag2151
ag2158
ag2165
atp2357
Rp2358
(dp2359
g16
g429
sbsbsg430
(icmyPackage
pattern
p2360
(dp2361
g433
I25
sg434
I0
sg435
(lp2362
(lp2363
S'for'
p2364
aasg441
(lp2365
I2
aI1
aI1
asg443
(lp2366
S'She was angry with him for being late.'
p2367
asg446
I44
sg447
(lp2368
(lp2369
S'&R'
p2370
aa(lp2371
S'&V-ing@C@'
p2372
aasbsg453
(lp2373
g2339
asba(icmyPackage
CELink
p2374
(dp2375
g3
(lp2376
g5
(g6
g7
(lp2377
g5
(g6
g7
(lp2378
g5
(g6
g7
(lp2379
g5
(g6
g7
(lp2380
VIt
p2381
atp2382
Rp2383
(dp2384
g16
VPRP
p2385
sbatp2386
Rp2387
(dp2388
g16
VNP
p2389
sbag5
(g6
g7
(lp2390
g5
(g6
g7
(lp2391
Vcould
p2392
atp2393
Rp2394
(dp2395
g16
VMD
p2396
sbag5
(g6
g7
(lp2397
g5
(g6
g7
(lp2398
g5
(g6
g7
(lp2399
Vbe
p2400
atp2401
Rp2402
(dp2403
g16
VVB
p2404
sbag5
(g6
g7
(lp2405
g5
(g6
g7
(lp2406
Vthat
p2407
atp2408
Rp2409
(dp2410
g16
VIN
p2411
sbag5
(g6
g7
(lp2412
g5
(g6
g7
(lp2413
g5
(g6
g7
(lp2414
g5
(g6
g7
(lp2415
Vthe
p2416
atp2417
Rp2418
(dp2419
g16
VDT
p2420
sbag5
(g6
g7
(lp2421
Vdistinctions
p2422
atp2423
Rp2424
(dp2425
g16
VNNS
p2426
sbatp2427
Rp2428
(dp2429
g16
VNP
p2430
sbag5
(g6
g7
(lp2431
g5
(g6
g7
(lp2432
Vbetween
p2433
atp2434
Rp2435
(dp2436
g16
VIN
p2437
sbag5
(g6
g7
(lp2438
g5
(g6
g7
(lp2439
g5
(g6
g7
(lp2440
Vlexical
p2441
atp2442
Rp2443
(dp2444
g16
VJJ
p2445
sbag5
(g6
g7
(lp2446
Vitems
p2447
atp2448
Rp2449
(dp2450
g16
VNNS
p2451
sbatp2452
Rp2453
(dp2454
g16
VNP
p2455
sbag5
(g6
g7
(lp2456
g5
(g6
g7
(lp2457
g5
(g6
g7
(lp2458
Vthat
p2459
atp2460
Rp2461
(dp2462
g16
VWDT
p2463
sbatp2464
Rp2465
(dp2466
g16
VWHNP
p2467
sbag5
(g6
g7
(lp2468
g5
(g6
g7
(lp2469
g5
(g6
g7
(lp2470
Vembeddings
p2471
atp2472
Rp2473
(dp2474
g16
VVBZ
p2475
sbag5
(g6
g7
(lp2476
g5
(g6
g7
(lp2477
Vcapture
p2478
atp2479
Rp2480
(dp2481
g16
VVB
p2482
sbatp2483
Rp2484
(dp2485
g16
VVP
p2486
sbatp2487
Rp2488
(dp2489
g16
VVP
p2490
sbatp2491
Rp2492
(dp2493
g16
g270
sbatp2494
Rp2495
(dp2496
g16
VSBAR
p2497
sbatp2498
Rp2499
(dp2500
g16
VNP
p2501
sbatp2502
Rp2503
(dp2504
g16
VPP
p2505
sbatp2506
Rp2507
(dp2508
g16
VNP
p2509
sbag5
(g6
g7
(lp2510
g5
(g6
g7
(lp2511
Vare
p2512
atp2513
Rp2514
(dp2515
g16
VVBP
p2516
sbag5
(g6
g7
(lp2517
g5
(g6
g7
(lp2518
Valready
p2519
atp2520
Rp2521
(dp2522
g16
VRB
p2523
sbatp2524
Rp2525
(dp2526
g16
VADVP
p2527
sbag5
(g6
g7
(lp2528
g5
(g6
g7
(lp2529
Vmodeled
p2530
atp2531
Rp2532
(dp2533
g16
VVBN
p2534
sbag5
(g6
g7
(lp2535
g5
(g6
g7
(lp2536
Vby
p2537
atp2538
Rp2539
(dp2540
g16
VIN
p2541
sbag5
(g6
g7
(lp2542
g5
(g6
g7
(lp2543
g5
(g6
g7
(lp2544
Vparsers
p2545
atp2546
Rp2547
(dp2548
g16
VNNS
p2549
sbatp2550
Rp2551
(dp2552
g16
VNP
p2553
sbag5
(g6
g7
(lp2554
g5
(g6
g7
(lp2555
Vin
p2556
atp2557
Rp2558
(dp2559
g16
VIN
p2560
sbag5
(g6
g7
(lp2561
g5
(g6
g7
(lp2562
Vother
p2563
atp2564
Rp2565
(dp2566
g16
VJJ
p2567
sbag5
(g6
g7
(lp2568
Vways
p2569
atp2570
Rp2571
(dp2572
g16
VNNS
p2573
sbatp2574
Rp2575
(dp2576
g16
VNP
p2577
sbatp2578
Rp2579
(dp2580
g16
VPP
p2581
sbatp2582
Rp2583
(dp2584
g16
VNP
p2585
sbatp2586
Rp2587
(dp2588
g16
VPP
p2589
sbatp2590
Rp2591
(dp2592
g16
VVP
p2593
sbatp2594
Rp2595
(dp2596
g16
VVP
p2597
sbatp2598
Rp2599
(dp2600
g16
g270
sbatp2601
Rp2602
(dp2603
g16
VSBAR
p2604
sbatp2605
Rp2606
(dp2607
g16
VVP
p2608
sbag5
(g6
g7
(lp2609
Vand
p2610
atp2611
Rp2612
(dp2613
g16
VCC
p2614
sbag5
(g6
g7
(lp2615
g5
(g6
g7
(lp2616
g5
(g6
g7
(lp2617
Vtherefore
p2618
atp2619
Rp2620
(dp2621
g16
VRB
p2622
sbatp2623
Rp2624
(dp2625
g16
VADVP
p2626
sbag5
(g6
g7
(lp2627
Vprovide
p2628
atp2629
Rp2630
(dp2631
g16
VVB
p2632
sbag5
(g6
g7
(lp2633
g5
(g6
g7
(lp2634
Vno
p2635
atp2636
Rp2637
(dp2638
g16
VDT
p2639
sbag5
(g6
g7
(lp2640
Vfurther
p2641
atp2642
Rp2643
(dp2644
g16
VJJ
p2645
sbag5
(g6
g7
(lp2646
Vbenefit
p2647
atp2648
Rp2649
(dp2650
g16
VNN
p2651
sbatp2652
Rp2653
(dp2654
g16
VNP
p2655
sbatp2656
Rp2657
(dp2658
g16
VVP
p2659
sbatp2660
Rp2661
(dp2662
g16
VVP
p2663
sbatp2664
Rp2665
(dp2666
g16
VVP
p2667
sbatp2668
Rp2669
(dp2670
g16
g270
sbatp2671
Rp2672
(dp2673
g16
VROOT
p2674
sbasg411
(icmyPackage
CorE
p2675
(dp2676
g414
(lp2677
(I0
I0
tp2678
a(I0
I19
tp2679
asg418
g5
(g6
g7
(lp2680
g2387
ag2394
ag2606
atp2681
Rp2682
(dp2683
g16
g429
sbsbsg419
(icmyPackage
CorE
p2684
(dp2685
g414
(lp2686
(I0
I22
tp2687
a(I0
I25
tp2688
asg418
g5
(g6
g7
(lp2689
g2630
ag2653
atp2690
Rp2691
(dp2692
g16
g429
sbsbsg430
(icmyPackage
pattern
p2693
(dp2694
g433
I62
sg434
I1
sg435
(lp2695
(lp2696
S'therefore'
p2697
aasg441
(lp2698
I1
aI1
aI1
asg443
(lp2699
S'He never lies; therefore, everyone likes to make friends with him.'
p2700
asg446
I1
sg447
(lp2701
(lp2702
S'&C'
p2703
aS'(,/;/./--)'
p2704
aS'(&AND)'
p2705
aa(lp2706
S'(,)'
p2707
aS'&R'
p2708
aasbsg453
(lp2709
(isxpPackage
sxpSent
p2710
(dp2711
g457
(lp2712
I6
asg459
VIt could be that the distinctions between lexical items that embeddings capture are already modeled by parsers in other ways and therefore provide no further benefit
p2713
sg461
I2
sg446
I17
sg462
I3
sbasba(icmyPackage
CELink
p2714
(dp2715
g3
(lp2716
g5
(g6
g7
(lp2717
g5
(g6
g7
(lp2718
g5
(g6
g7
(lp2719
g5
(g6
g7
(lp2720
VIn
p2721
atp2722
Rp2723
(dp2724
g16
VIN
p2725
sbag5
(g6
g7
(lp2726
g5
(g6
g7
(lp2727
Vthis
p2728
atp2729
Rp2730
(dp2731
g16
VDT
p2732
sbag5
(g6
g7
(lp2733
Vpaper
p2734
atp2735
Rp2736
(dp2737
g16
VNN
p2738
sbatp2739
Rp2740
(dp2741
g16
VNP
p2742
sbatp2743
Rp2744
(dp2745
g16
VPP
p2746
sbag5
(g6
g7
(lp2747
g193
atp2748
Rp2749
(dp2750
g16
g193
sbag5
(g6
g7
(lp2751
g5
(g6
g7
(lp2752
Vwe
p2753
atp2754
Rp2755
(dp2756
g16
VPRP
p2757
sbatp2758
Rp2759
(dp2760
g16
VNP
p2761
sbag5
(g6
g7
(lp2762
g5
(g6
g7
(lp2763
Vinvestigate
p2764
atp2765
Rp2766
(dp2767
g16
VVBD
p2768
sbag5
(g6
g7
(lp2769
g5
(g6
g7
(lp2770
Vthis
p2771
atp2772
Rp2773
(dp2774
g16
VDT
p2775
sbag5
(g6
g7
(lp2776
Vquestion
p2777
atp2778
Rp2779
(dp2780
g16
VNN
p2781
sbatp2782
Rp2783
(dp2784
g16
VNP
p2785
sbag5
(g6
g7
(lp2786
g5
(g6
g7
(lp2787
Vempirically
p2788
atp2789
Rp2790
(dp2791
g16
VRB
p2792
sbatp2793
Rp2794
(dp2795
g16
VADVP
p2796
sbag5
(g6
g7
(lp2797
g193
atp2798
Rp2799
(dp2800
g16
g193
sbag5
(g6
g7
(lp2801
g5
(g6
g7
(lp2802
Vby
p2803
atp2804
Rp2805
(dp2806
g16
VIN
p2807
sbag5
(g6
g7
(lp2808
g5
(g6
g7
(lp2809
g5
(g6
g7
(lp2810
Visolating
p2811
atp2812
Rp2813
(dp2814
g16
VVBG
p2815
sbag5
(g6
g7
(lp2816
g5
(g6
g7
(lp2817
g5
(g6
g7
(lp2818
Vthree
p2819
atp2820
Rp2821
(dp2822
g16
VCD
p2823
sbag5
(g6
g7
(lp2824
Vpotential
p2825
atp2826
Rp2827
(dp2828
g16
VJJ
p2829
sbag5
(g6
g7
(lp2830
Vmechanisms
p2831
atp2832
Rp2833
(dp2834
g16
VNNS
p2835
sbatp2836
Rp2837
(dp2838
g16
VNP
p2839
sbag5
(g6
g7
(lp2840
g5
(g6
g7
(lp2841
Vfor
p2842
atp2843
Rp2844
(dp2845
g16
VIN
p2846
sbag5
(g6
g7
(lp2847
g5
(g6
g7
(lp2848
Vimprovement
p2849
atp2850
Rp2851
(dp2852
g16
VNN
p2853
sbatp2854
Rp2855
(dp2856
g16
VNP
p2857
sbatp2858
Rp2859
(dp2860
g16
VPP
p2861
sbatp2862
Rp2863
(dp2864
g16
VNP
p2865
sbag5
(g6
g7
(lp2866
g5
(g6
g7
(lp2867
Vfrom
p2868
atp2869
Rp2870
(dp2871
g16
VIN
p2872
sbag5
(g6
g7
(lp2873
g5
(g6
g7
(lp2874
Vpre-trained
p2875
atp2876
Rp2877
(dp2878
g16
VJJ
p2879
sbag5
(g6
g7
(lp2880
Vword
p2881
atp2882
Rp2883
(dp2884
g16
VNN
p2885
sbag5
(g6
g7
(lp2886
Vembeddings
p2887
atp2888
Rp2889
(dp2890
g16
VNNS
p2891
sbatp2892
Rp2893
(dp2894
g16
VNP
p2895
sbatp2896
Rp2897
(dp2898
g16
VPP
p2899
sbatp2900
Rp2901
(dp2902
g16
VVP
p2903
sbatp2904
Rp2905
(dp2906
g16
g270
sbatp2907
Rp2908
(dp2909
g16
VPP
p2910
sbatp2911
Rp2912
(dp2913
g16
VVP
p2914
sbatp2915
Rp2916
(dp2917
g16
g270
sbatp2918
Rp2919
(dp2920
g16
VROOT
p2921
sbasg411
(icmyPackage
CorE
p2922
(dp2923
g414
(lp2924
(I0
I11
tp2925
a(I0
I20
tp2926
asg418
g2905
sbsg419
(icmyPackage
CorE
p2927
(dp2928
g414
(lp2929
(I0
I4
tp2930
a(I0
I9
tp2931
asg418
g5
(g6
g7
(lp2932
g2759
ag2766
ag2783
ag2794
ag2799
atp2933
Rp2934
(dp2935
g16
g429
sbsbsg430
g431
sg453
(lp2936
(isxpPackage
sxpSent
p2937
(dp2938
g457
(lp2939
I7
asg459
VIn this paper, we investigate this question empirically, by isolating three potential mechanisms for improvement from pre-trained word embeddings
p2940
sg461
I2
sg446
I18
sg462
I3
sbasba(icmyPackage
CELink
p2941
(dp2942
g3
(lp2943
g5
(g6
g7
(lp2944
g5
(g6
g7
(lp2945
g5
(g6
g7
(lp2946
VBut
p2947
atp2948
Rp2949
(dp2950
g16
VCC
p2951
sbag5
(g6
g7
(lp2952
g5
(g6
g7
(lp2953
Vwe
p2954
atp2955
Rp2956
(dp2957
g16
VPRP
p2958
sbatp2959
Rp2960
(dp2961
g16
VNP
p2962
sbag5
(g6
g7
(lp2963
g5
(g6
g7
(lp2964
Vdon
p2965
atp2966
Rp2967
(dp2968
g16
VVBD
p2969
sbag5
(g6
g7
(lp2970
g5
(g6
g7
(lp2971
g5
(g6
g7
(lp2972
g5
(g6
g7
(lp2973
g5
(g6
g7
(lp2974
g734
atp2975
Rp2976
(dp2977
g16
VNNP
p2978
sbag5
(g6
g7
(lp2979
g740
atp2980
Rp2981
(dp2982
g16
VPOS
p2983
sbatp2984
Rp2985
(dp2986
g16
VNP
p2987
sbag5
(g6
g7
(lp2988
V\u005c
p2989
atp2990
Rp2991
(dp2992
g16
VJJ
p2993
sbag5
(g6
g7
(lp2994
Vu2019
p2995
atp2996
Rp2997
(dp2998
g16
VNNS
p2999
sbag5
(g6
g7
(lp3000
g740
atp3001
Rp3002
(dp3003
g16
V''
p3004
sbag5
(g6
g7
(lp3005
Vt
p3006
atp3007
Rp3008
(dp3009
g16
VNN
p3010
sbatp3011
Rp3012
(dp3013
g16
VNP
p3014
sbag5
(g6
g7
(lp3015
g5
(g6
g7
(lp3016
Vknow
p3017
atp3018
Rp3019
(dp3020
g16
VVBP
p3021
sbag5
(g6
g7
(lp3022
g5
(g6
g7
(lp3023
g5
(g6
g7
(lp3024
g5
(g6
g7
(lp3025
g5
(g6
g7
(lp3026
Vhow
p3027
atp3028
Rp3029
(dp3030
g16
VWRB
p3031
sbag5
(g6
g7
(lp3032
g5
(g6
g7
(lp3033
Vprevalent
p3034
atp3035
Rp3036
(dp3037
g16
VJJ
p3038
sbag5
(g6
g7
(lp3039
Vor
p3040
atp3041
Rp3042
(dp3043
g16
VCC
p3044
sbag5
(g6
g7
(lp3045
Vimportant
p3046
atp3047
Rp3048
(dp3049
g16
VJJ
p3050
sbatp3051
Rp3052
(dp3053
g16
VADJP
p3054
sbatp3055
Rp3056
(dp3057
g16
VWHADVP
p3058
sbag5
(g6
g7
(lp3059
g5
(g6
g7
(lp3060
g5
(g6
g7
(lp3061
g5
(g6
g7
(lp3062
Vsuch
p3063
atp3064
Rp3065
(dp3066
g16
VJJ
p3067
sbag5
(g6
g7
(lp3068
g734
atp3069
Rp3070
(dp3071
g16
VNN
p3072
sbag5
(g6
g7
(lp3073
g740
atp3074
Rp3075
(dp3076
g16
VPOS
p3077
sbatp3078
Rp3079
(dp3080
g16
VNP
p3081
sbag5
(g6
g7
(lp3082
V\u005c
p3083
atp3084
Rp3085
(dp3086
g16
VCD
p3087
sbag5
(g6
g7
(lp3088
Vu201c
p3089
atp3090
Rp3091
(dp3092
g16
VJJ
p3093
sbag5
(g6
g7
(lp3094
g740
atp3095
Rp3096
(dp3097
g16
V''
p3098
sbag5
(g6
g7
(lp3099
Vsyntactic
p3100
atp3101
Rp3102
(dp3103
g16
VNN
p3104
sbag5
(g6
g7
(lp3105
Vaxes
p3106
atp3107
Rp3108
(dp3109
g16
VNNS
p3110
sbatp3111
Rp3112
(dp3113
g16
VNP
p3114
sbag5
(g6
g7
(lp3115
g5
(g6
g7
(lp3116
g734
atp3117
Rp3118
(dp3119
g16
VVBP
p3120
sbag5
(g6
g7
(lp3121
g740
atp3122
Rp3123
(dp3124
g16
V''
p3125
sbag5
(g6
g7
(lp3126
g5
(g6
g7
(lp3127
V\u005c
p3128
atp3129
Rp3130
(dp3131
g16
VJJ
p3132
sbag5
(g6
g7
(lp3133
Vu201d
p3134
atp3135
Rp3136
(dp3137
g16
VNNS
p3138
sbatp3139
Rp3140
(dp3141
g16
VNP
p3142
sbag5
(g6
g7
(lp3143
g740
atp3144
Rp3145
(dp3146
g16
V''
p3147
sbatp3148
Rp3149
(dp3150
g16
VVP
p3151
sbatp3152
Rp3153
(dp3154
g16
g270
sbatp3155
Rp3156
(dp3157
g16
VSBAR
p3158
sbag5
(g6
g7
(lp3159
g5
(g6
g7
(lp3160
Vare
p3161
atp3162
Rp3163
(dp3164
g16
VVBP
p3165
sbag5
(g6
g7
(lp3166
g5
(g6
g7
(lp3167
Vin
p3168
atp3169
Rp3170
(dp3171
g16
VIN
p3172
sbag5
(g6
g7
(lp3173
g5
(g6
g7
(lp3174
Vpractice
p3175
atp3176
Rp3177
(dp3178
g16
VNN
p3179
sbatp3180
Rp3181
(dp3182
g16
VNP
p3183
sbatp3184
Rp3185
(dp3186
g16
VPP
p3187
sbatp3188
Rp3189
(dp3190
g16
VVP
p3191
sbatp3192
Rp3193
(dp3194
g16
g270
sbatp3195
Rp3196
(dp3197
g16
VSBAR
p3198
sbatp3199
Rp3200
(dp3201
g16
VVP
p3202
sbatp3203
Rp3204
(dp3205
g16
g270
sbatp3206
Rp3207
(dp3208
g16
VSBAR
p3209
sbatp3210
Rp3211
(dp3212
g16
VVP
p3213
sbatp3214
Rp3215
(dp3216
g16
g270
sbatp3217
Rp3218
(dp3219
g16
VROOT
p3220
sbag5
(g6
g7
(lp3221
g5
(g6
g7
(lp3222
g5
(g6
g7
(lp3223
VThus
p3224
atp3225
Rp3226
(dp3227
g16
VVBZ
p3228
sbag5
(g6
g7
(lp3229
g5
(g6
g7
(lp3230
Vwe
p3231
atp3232
Rp3233
(dp3234
g16
VPRP
p3235
sbatp3236
Rp3237
(dp3238
g16
VNP
p3239
sbag5
(g6
g7
(lp3240
g5
(g6
g7
(lp3241
Vhave
p3242
atp3243
Rp3244
(dp3245
g16
VVB
p3246
sbag5
(g6
g7
(lp3247
g5
(g6
g7
(lp3248
Vtwo
p3249
atp3250
Rp3251
(dp3252
g16
VCD
p3253
sbag5
(g6
g7
(lp3254
Vquestions
p3255
atp3256
Rp3257
(dp3258
g16
VNNS
p3259
sbatp3260
Rp3261
(dp3262
g16
VNP
p3263
sbatp3264
Rp3265
(dp3266
g16
VVP
p3267
sbatp3268
Rp3269
(dp3270
g16
VSINV
p3271
sbatp3272
Rp3273
(dp3274
g16
VROOT
p3275
sbasg411
(icmyPackage
CorE
p3276
(dp3277
g414
(lp3278
(I0
I0
tp3279
a(I0
I29
tp3280
asg418
g3218
sbsg419
(icmyPackage
CorE
p3281
(dp3282
g414
(lp3283
(I1
I1
tp3284
a(I1
I4
tp3285
asg418
g5
(g6
g7
(lp3286
g3237
ag3265
atp3287
Rp3288
(dp3289
g16
g429
sbsbsg430
(icmyPackage
pattern
p3290
(dp3291
g433
I35
sg434
I1
sg435
(lp3292
(lp3293
S'thus'
p3294
aasg441
(lp3295
I1
aI1
aI1
asg443
(lp3296
S'Japan will be on the dark side of the Earth, and thus will lack the warming influence of the Sun.'
p3297
asg446
I2
sg447
(lp3298
(lp3299
S'&C'
p3300
aS'(,/;/./--)'
p3301
aS'(&AND)'
p3302
aa(lp3303
S'&R'
p3304
aasbsg453
(lp3305
(isxpPackage
sxpSent
p3306
(dp3307
g457
(lp3308
I8
asg459
VBut we don u'\u005cu2019' t know how prevalent or important such u'\u005cu201c' syntactic axes u'\u005cu201d' are in practice
p3309
sg461
I3
sg446
I29
sg462
I6
sba(isxpPackage
sxpSent
p3310
(dp3311
g457
(lp3312
I8
asg459
VThus we have two questions
p3313
sg461
I3
sg446
I30
sg462
I6
sbasba(icmyPackage
CELink
p3314
(dp3315
g3
(lp3316
g5
(g6
g7
(lp3317
g5
(g6
g7
(lp3318
g5
(g6
g7
(lp3319
g5
(g6
g7
(lp3320
VWord
p3321
atp3322
Rp3323
(dp3324
g16
VJJ
p3325
sbag5
(g6
g7
(lp3326
Vembeddings
p3327
atp3328
Rp3329
(dp3330
g16
VNNS
p3331
sbatp3332
Rp3333
(dp3334
g16
VNP
p3335
sbag5
(g6
g7
(lp3336
g5
(g6
g7
(lp3337
Vare
p3338
atp3339
Rp3340
(dp3341
g16
VVBP
p3342
sbag5
(g6
g7
(lp3343
g5
(g6
g7
(lp3344
Vuseful
p3345
atp3346
Rp3347
(dp3348
g16
VJJ
p3349
sbag5
(g6
g7
(lp3350
g5
(g6
g7
(lp3351
Vfor
p3352
atp3353
Rp3354
(dp3355
g16
VIN
p3356
sbag5
(g6
g7
(lp3357
g5
(g6
g7
(lp3358
g5
(g6
g7
(lp3359
Vhandling
p3360
atp3361
Rp3362
(dp3363
g16
VVBG
p3364
sbag5
(g6
g7
(lp3365
g5
(g6
g7
(lp3366
Vout-of-vocabulary
p3367
atp3368
Rp3369
(dp3370
g16
VJJ
p3371
sbag5
(g6
g7
(lp3372
Vwords
p3373
atp3374
Rp3375
(dp3376
g16
VNNS
p3377
sbatp3378
Rp3379
(dp3380
g16
VNP
p3381
sbatp3382
Rp3383
(dp3384
g16
VVP
p3385
sbatp3386
Rp3387
(dp3388
g16
g270
sbatp3389
Rp3390
(dp3391
g16
VPP
p3392
sbatp3393
Rp3394
(dp3395
g16
VADJP
p3396
sbag5
(g6
g7
(lp3397
g193
atp3398
Rp3399
(dp3400
g16
g193
sbag5
(g6
g7
(lp3401
g5
(g6
g7
(lp3402
Vbecause
p3403
atp3404
Rp3405
(dp3406
g16
VIN
p3407
sbag5
(g6
g7
(lp3408
g5
(g6
g7
(lp3409
g5
(g6
g7
(lp3410
Vthey
p3411
atp3412
Rp3413
(dp3414
g16
VPRP
p3415
sbatp3416
Rp3417
(dp3418
g16
VNP
p3419
sbag5
(g6
g7
(lp3420
g5
(g6
g7
(lp3421
Vautomatically
p3422
atp3423
Rp3424
(dp3425
g16
VRB
p3426
sbatp3427
Rp3428
(dp3429
g16
VADVP
p3430
sbag5
(g6
g7
(lp3431
g5
(g6
g7
(lp3432
Vensure
p3433
atp3434
Rp3435
(dp3436
g16
VVB
p3437
sbag5
(g6
g7
(lp3438
g5
(g6
g7
(lp3439
Vthat
p3440
atp3441
Rp3442
(dp3443
g16
VIN
p3444
sbag5
(g6
g7
(lp3445
g5
(g6
g7
(lp3446
g5
(g6
g7
(lp3447
Vunknown
p3448
atp3449
Rp3450
(dp3451
g16
VJJ
p3452
sbag5
(g6
g7
(lp3453
Vwords
p3454
atp3455
Rp3456
(dp3457
g16
VNNS
p3458
sbatp3459
Rp3460
(dp3461
g16
VNP
p3462
sbag5
(g6
g7
(lp3463
g5
(g6
g7
(lp3464
Vare
p3465
atp3466
Rp3467
(dp3468
g16
VVBP
p3469
sbag5
(g6
g7
(lp3470
g5
(g6
g7
(lp3471
Vtreated
p3472
atp3473
Rp3474
(dp3475
g16
VVBN
p3476
sbag5
(g6
g7
(lp3477
g5
(g6
g7
(lp3478
Vthe
p3479
atp3480
Rp3481
(dp3482
g16
VDT
p3483
sbag5
(g6
g7
(lp3484
Vsame
p3485
atp3486
Rp3487
(dp3488
g16
VJJ
p3489
sbag5
(g6
g7
(lp3490
Vway
p3491
atp3492
Rp3493
(dp3494
g16
VNN
p3495
sbatp3496
Rp3497
(dp3498
g16
VNP
p3499
sbag5
(g6
g7
(lp3500
g5
(g6
g7
(lp3501
Vas
p3502
atp3503
Rp3504
(dp3505
g16
VIN
p3506
sbag5
(g6
g7
(lp3507
g5
(g6
g7
(lp3508
g5
(g6
g7
(lp3509
Vknown
p3510
atp3511
Rp3512
(dp3513
g16
VVBN
p3514
sbag5
(g6
g7
(lp3515
Vwords
p3516
atp3517
Rp3518
(dp3519
g16
VNNS
p3520
sbatp3521
Rp3522
(dp3523
g16
VNP
p3524
sbag5
(g6
g7
(lp3525
g5
(g6
g7
(lp3526
Vwith
p3527
atp3528
Rp3529
(dp3530
g16
VIN
p3531
sbag5
(g6
g7
(lp3532
g5
(g6
g7
(lp3533
Vsimilar
p3534
atp3535
Rp3536
(dp3537
g16
VJJ
p3538
sbag5
(g6
g7
(lp3539
Vrepresentations
p3540
atp3541
Rp3542
(dp3543
g16
VNNS
p3544
sbatp3545
Rp3546
(dp3547
g16
VNP
p3548
sbatp3549
Rp3550
(dp3551
g16
VPP
p3552
sbatp3553
Rp3554
(dp3555
g16
VNP
p3556
sbatp3557
Rp3558
(dp3559
g16
VPP
p3560
sbatp3561
Rp3562
(dp3563
g16
VVP
p3564
sbatp3565
Rp3566
(dp3567
g16
VVP
p3568
sbatp3569
Rp3570
(dp3571
g16
g270
sbatp3572
Rp3573
(dp3574
g16
VSBAR
p3575
sbatp3576
Rp3577
(dp3578
g16
VVP
p3579
sbatp3580
Rp3581
(dp3582
g16
g270
sbatp3583
Rp3584
(dp3585
g16
VSBAR
p3586
sbatp3587
Rp3588
(dp3589
g16
VVP
p3590
sbatp3591
Rp3592
(dp3593
g16
g270
sbatp3594
Rp3595
(dp3596
g16
VROOT
p3597
sbasg411
(icmyPackage
CorE
p3598
(dp3599
g414
(lp3600
(I0
I10
tp3601
a(I0
I26
tp3602
asg418
g3581
sbsg419
(icmyPackage
CorE
p3603
(dp3604
g414
(lp3605
(I0
I0
tp3606
a(I0
I7
tp3607
asg418
g5
(g6
g7
(lp3608
g3333
ag3340
ag3394
atp3609
Rp3610
(dp3611
g16
g429
sbsbsg430
(icmyPackage
pattern
p3612
(dp3613
g433
I407
sg434
I1
sg435
(lp3614
(lp3615
S'because'
p3616
aasg441
(lp3617
I3
aI1
aI1
asg443
(lp3618
S'It ends up in burnout and less production, because we inevitably run out of energy.'
p3619
asg446
I76
sg447
(lp3620
(lp3621
S'&R'
p3622
aS'(,)'
p3623
aS'(&ADV)'
p3624
aa(lp3625
S'&C'
p3626
aasbsg453
(lp3627
(isxpPackage
sxpSent
p3628
(dp3629
g457
(lp3630
I9
aI10
asg459
VWord embeddings are useful for handling out-of-vocabulary words, because they automatically ensure that unknown words are treated the same way as known words with similar representations
p3631
sg461
I3
sg446
I35
sg462
I8
sbasba(icmyPackage
CELink
p3632
(dp3633
g3
(lp3634
g3610
asg411
(icmyPackage
CorE
p3635
(dp3636
g414
(lp3637
(I0
I5
tp3638
a(I0
I7
tp3639
asg418
g3387
sbsg419
(icmyPackage
CorE
p3640
(dp3641
g414
(lp3642
(I0
I0
tp3643
a(I0
I3
tp3644
asg418
g5
(g6
g7
(lp3645
g3333
ag3340
ag3347
atp3646
Rp3647
(dp3648
g16
g429
sbsbsg430
g2360
sg453
(lp3649
g3628
asba(icmyPackage
CELink
p3650
(dp3651
g3
(lp3652
g5
(g6
g7
(lp3653
g5
(g6
g7
(lp3654
g5
(g6
g7
(lp3655
g5
(g6
g7
(lp3656
VWord
p3657
atp3658
Rp3659
(dp3660
g16
VJJ
p3661
sbag5
(g6
g7
(lp3662
Vembeddings
p3663
atp3664
Rp3665
(dp3666
g16
VNNS
p3667
sbatp3668
Rp3669
(dp3670
g16
VNP
p3671
sbag5
(g6
g7
(lp3672
g5
(g6
g7
(lp3673
Vare
p3674
atp3675
Rp3676
(dp3677
g16
VVBP
p3678
sbag5
(g6
g7
(lp3679
g5
(g6
g7
(lp3680
Vuseful
p3681
atp3682
Rp3683
(dp3684
g16
VJJ
p3685
sbag5
(g6
g7
(lp3686
g5
(g6
g7
(lp3687
Vfor
p3688
atp3689
Rp3690
(dp3691
g16
VIN
p3692
sbag5
(g6
g7
(lp3693
g5
(g6
g7
(lp3694
g5
(g6
g7
(lp3695
Vhandling
p3696
atp3697
Rp3698
(dp3699
g16
VVBG
p3700
sbag5
(g6
g7
(lp3701
g5
(g6
g7
(lp3702
Vin-vocabulary
p3703
atp3704
Rp3705
(dp3706
g16
VJJ
p3707
sbag5
(g6
g7
(lp3708
Vwords
p3709
atp3710
Rp3711
(dp3712
g16
VNNS
p3713
sbatp3714
Rp3715
(dp3716
g16
VNP
p3717
sbag5
(g6
g7
(lp3718
g193
atp3719
Rp3720
(dp3721
g16
g193
sbag5
(g6
g7
(lp3722
g5
(g6
g7
(lp3723
Vby
p3724
atp3725
Rp3726
(dp3727
g16
VIN
p3728
sbag5
(g6
g7
(lp3729
g5
(g6
g7
(lp3730
g5
(g6
g7
(lp3731
Vmaking
p3732
atp3733
Rp3734
(dp3735
g16
VVBG
p3736
sbag5
(g6
g7
(lp3737
g5
(g6
g7
(lp3738
g5
(g6
g7
(lp3739
Vit
p3740
atp3741
Rp3742
(dp3743
g16
VPRP
p3744
sbatp3745
Rp3746
(dp3747
g16
VNP
p3748
sbag5
(g6
g7
(lp3749
g5
(g6
g7
(lp3750
Vpossible
p3751
atp3752
Rp3753
(dp3754
g16
VJJ
p3755
sbag5
(g6
g7
(lp3756
g5
(g6
g7
(lp3757
Vto
p3758
atp3759
Rp3760
(dp3761
g16
VTO
p3762
sbag5
(g6
g7
(lp3763
g5
(g6
g7
(lp3764
g5
(g6
g7
(lp3765
Vpool
p3766
atp3767
Rp3768
(dp3769
g16
VNN
p3770
sbag5
(g6
g7
(lp3771
Vstatistics
p3772
atp3773
Rp3774
(dp3775
g16
VNNS
p3776
sbatp3777
Rp3778
(dp3779
g16
VNP
p3780
sbag5
(g6
g7
(lp3781
g5
(g6
g7
(lp3782
Vfor
p3783
atp3784
Rp3785
(dp3786
g16
VIN
p3787
sbag5
(g6
g7
(lp3788
g5
(g6
g7
(lp3789
Vrelated
p3790
atp3791
Rp3792
(dp3793
g16
VJJ
p3794
sbag5
(g6
g7
(lp3795
Vwords
p3796
atp3797
Rp3798
(dp3799
g16
VNNS
p3800
sbatp3801
Rp3802
(dp3803
g16
VNP
p3804
sbatp3805
Rp3806
(dp3807
g16
VPP
p3808
sbatp3809
Rp3810
(dp3811
g16
VNP
p3812
sbatp3813
Rp3814
(dp3815
g16
VPP
p3816
sbatp3817
Rp3818
(dp3819
g16
VADJP
p3820
sbatp3821
Rp3822
(dp3823
g16
g270
sbatp3824
Rp3825
(dp3826
g16
VVP
p3827
sbatp3828
Rp3829
(dp3830
g16
g270
sbatp3831
Rp3832
(dp3833
g16
VPP
p3834
sbatp3835
Rp3836
(dp3837
g16
VVP
p3838
sbatp3839
Rp3840
(dp3841
g16
g270
sbatp3842
Rp3843
(dp3844
g16
VPP
p3845
sbatp3846
Rp3847
(dp3848
g16
VADJP
p3849
sbatp3850
Rp3851
(dp3852
g16
VVP
p3853
sbatp3854
Rp3855
(dp3856
g16
g270
sbatp3857
Rp3858
(dp3859
g16
VROOT
p3860
sbasg411
(icmyPackage
CorE
p3861
(dp3862
g414
(lp3863
(I0
I5
tp3864
a(I0
I18
tp3865
asg418
g3840
sbsg419
(icmyPackage
CorE
p3866
(dp3867
g414
(lp3868
(I0
I0
tp3869
a(I0
I3
tp3870
asg418
g5
(g6
g7
(lp3871
g3669
ag3676
ag3683
atp3872
Rp3873
(dp3874
g16
g429
sbsbsg430
g2360
sg453
(lp3875
(isxpPackage
sxpSent
p3876
(dp3877
g457
(lp3878
I11
asg459
VWord embeddings are useful for handling in-vocabulary words, by making it possible to pool statistics for related words
p3879
sg461
I3
sg446
I40
sg462
I9
sbasba(icmyPackage
CELink
p3880
(dp3881
g3
(lp3882
g5
(g6
g7
(lp3883
g5
(g6
g7
(lp3884
g5
(g6
g7
(lp3885
g5
(g6
g7
(lp3886
g5
(g6
g7
(lp3887
VA
p3888
atp3889
Rp3890
(dp3891
g16
VDT
p3892
sbag5
(g6
g7
(lp3893
Vparser
p3894
atp3895
Rp3896
(dp3897
g16
VNN
p3898
sbatp3899
Rp3900
(dp3901
g16
VNP
p3902
sbag5
(g6
g7
(lp3903
g5
(g6
g7
(lp3904
g5
(g6
g7
(lp3905
Vwhich
p3906
atp3907
Rp3908
(dp3909
g16
VWDT
p3910
sbatp3911
Rp3912
(dp3913
g16
VWHNP
p3914
sbag5
(g6
g7
(lp3915
g5
(g6
g7
(lp3916
g5
(g6
g7
(lp3917
Vexploited
p3918
atp3919
Rp3920
(dp3921
g16
VVBN
p3922
sbag5
(g6
g7
(lp3923
g5
(g6
g7
(lp3924
Vthis
p3925
atp3926
Rp3927
(dp3928
g16
VDT
p3929
sbag5
(g6
g7
(lp3930
Veffect
p3931
atp3932
Rp3933
(dp3934
g16
VNN
p3935
sbatp3936
Rp3937
(dp3938
g16
VNP
p3939
sbatp3940
Rp3941
(dp3942
g16
VVP
p3943
sbatp3944
Rp3945
(dp3946
g16
g270
sbatp3947
Rp3948
(dp3949
g16
VSBAR
p3950
sbatp3951
Rp3952
(dp3953
g16
VNP
p3954
sbag5
(g6
g7
(lp3955
g5
(g6
g7
(lp3956
Vcould
p3957
atp3958
Rp3959
(dp3960
g16
VMD
p3961
sbag5
(g6
g7
(lp3962
g5
(g6
g7
(lp3963
Vuse
p3964
atp3965
Rp3966
(dp3967
g16
VVB
p3968
sbag5
(g6
g7
(lp3969
g5
(g6
g7
(lp3970
g5
(g6
g7
(lp3971
Vthis
p3972
atp3973
Rp3974
(dp3975
g16
VDT
p3976
sbatp3977
Rp3978
(dp3979
g16
VNP
p3980
sbag5
(g6
g7
(lp3981
g5
(g6
g7
(lp3982
Vto
p3983
atp3984
Rp3985
(dp3986
g16
VTO
p3987
sbag5
(g6
g7
(lp3988
g5
(g6
g7
(lp3989
Vacquire
p3990
atp3991
Rp3992
(dp3993
g16
VVB
p3994
sbag5
(g6
g7
(lp3995
g5
(g6
g7
(lp3996
g5
(g6
g7
(lp3997
g104
atp3998
Rp3999
(dp4000
g16
VDT
p4001
sbag5
(g6
g7
(lp4002
Vrobust
p4003
atp4004
Rp4005
(dp4006
g16
VJJ
p4007
sbag5
(g6
g7
(lp4008
Vmodel
p4009
atp4010
Rp4011
(dp4012
g16
VNN
p4013
sbatp4014
Rp4015
(dp4016
g16
VNP
p4017
sbag5
(g6
g7
(lp4018
g5
(g6
g7
(lp4019
Vof
p4020
atp4021
Rp4022
(dp4023
g16
VIN
p4024
sbag5
(g6
g7
(lp4025
g5
(g6
g7
(lp4026
Vname
p4027
atp4028
Rp4029
(dp4030
g16
VNN
p4031
sbag5
(g6
g7
(lp4032
Vbehavior
p4033
atp4034
Rp4035
(dp4036
g16
VNN
p4037
sbatp4038
Rp4039
(dp4040
g16
VNP
p4041
sbatp4042
Rp4043
(dp4044
g16
VPP
p4045
sbatp4046
Rp4047
(dp4048
g16
VNP
p4049
sbag5
(g6
g7
(lp4050
g5
(g6
g7
(lp4051
Vby
p4052
atp4053
Rp4054
(dp4055
g16
VIN
p4056
sbag5
(g6
g7
(lp4057
g5
(g6
g7
(lp4058
g5
(g6
g7
(lp4059
g5
(g6
g7
(lp4060
Vsharing
p4061
atp4062
Rp4063
(dp4064
g16
VVBG
p4065
sbag5
(g6
g7
(lp4066
g5
(g6
g7
(lp4067
Vstatistics
p4068
atp4069
Rp4070
(dp4071
g16
VNNS
p4072
sbatp4073
Rp4074
(dp4075
g16
VNP
p4076
sbag5
(g6
g7
(lp4077
g5
(g6
g7
(lp4078
Vfrom
p4079
atp4080
Rp4081
(dp4082
g16
VIN
p4083
sbag5
(g6
g7
(lp4084
g5
(g6
g7
(lp4085
Vall
p4086
atp4087
Rp4088
(dp4089
g16
VDT
p4090
sbag5
(g6
g7
(lp4091
Vfirst
p4092
atp4093
Rp4094
(dp4095
g16
VJJ
p4096
sbag5
(g6
g7
(lp4097
Vnames
p4098
atp4099
Rp4100
(dp4101
g16
VNNS
p4102
sbatp4103
Rp4104
(dp4105
g16
VNP
p4106
sbatp4107
Rp4108
(dp4109
g16
VPP
p4110
sbag5
(g6
g7
(lp4111
g5
(g6
g7
(lp4112
Vtogether
p4113
atp4114
Rp4115
(dp4116
g16
VRB
p4117
sbatp4118
Rp4119
(dp4120
g16
VADVP
p4121
sbatp4122
Rp4123
(dp4124
g16
VVP
p4125
sbag5
(g6
g7
(lp4126
g193
atp4127
Rp4128
(dp4129
g16
g193
sbag5
(g6
g7
(lp4130
g5
(g6
g7
(lp4131
Vpreventing
p4132
atp4133
Rp4134
(dp4135
g16
VVBG
p4136
sbag5
(g6
g7
(lp4137
g5
(g6
g7
(lp4138
Vlow
p4139
atp4140
Rp4141
(dp4142
g16
VJJ
p4143
sbag5
(g6
g7
(lp4144
Vcounts
p4145
atp4146
Rp4147
(dp4148
g16
VNNS
p4149
sbatp4150
Rp4151
(dp4152
g16
VNP
p4153
sbag5
(g6
g7
(lp4154
g5
(g6
g7
(lp4155
Vfrom
p4156
atp4157
Rp4158
(dp4159
g16
VIN
p4160
sbag5
(g6
g7
(lp4161
g5
(g6
g7
(lp4162
g5
(g6
g7
(lp4163
Vproducing
p4164
atp4165
Rp4166
(dp4167
g16
VVBG
p4168
sbag5
(g6
g7
(lp4169
g5
(g6
g7
(lp4170
g5
(g6
g7
(lp4171
Vnoisy
p4172
atp4173
Rp4174
(dp4175
g16
VJJ
p4176
sbag5
(g6
g7
(lp4177
Vmodels
p4178
atp4179
Rp4180
(dp4181
g16
VNNS
p4182
sbatp4183
Rp4184
(dp4185
g16
VNP
p4186
sbag5
(g6
g7
(lp4187
g5
(g6
g7
(lp4188
Vof
p4189
atp4190
Rp4191
(dp4192
g16
VIN
p4193
sbag5
(g6
g7
(lp4194
g5
(g6
g7
(lp4195
Vnames
p4196
atp4197
Rp4198
(dp4199
g16
VNNS
p4200
sbatp4201
Rp4202
(dp4203
g16
VNP
p4204
sbatp4205
Rp4206
(dp4207
g16
VPP
p4208
sbatp4209
Rp4210
(dp4211
g16
VNP
p4212
sbatp4213
Rp4214
(dp4215
g16
VVP
p4216
sbatp4217
Rp4218
(dp4219
g16
g270
sbatp4220
Rp4221
(dp4222
g16
VPP
p4223
sbatp4224
Rp4225
(dp4226
g16
VVP
p4227
sbatp4228
Rp4229
(dp4230
g16
VVP
p4231
sbatp4232
Rp4233
(dp4234
g16
g270
sbatp4235
Rp4236
(dp4237
g16
VPP
p4238
sbatp4239
Rp4240
(dp4241
g16
VVP
p4242
sbatp4243
Rp4244
(dp4245
g16
VVP
p4246
sbatp4247
Rp4248
(dp4249
g16
g270
sbatp4250
Rp4251
(dp4252
g16
VVP
p4253
sbatp4254
Rp4255
(dp4256
g16
VVP
p4257
sbatp4258
Rp4259
(dp4260
g16
g270
sbatp4261
Rp4262
(dp4263
g16
VROOT
p4264
sbasg411
(icmyPackage
CorE
p4265
(dp4266
g414
(lp4267
(I0
I18
tp4268
a(I0
I34
tp4269
asg418
g4233
sbsg419
(icmyPackage
CorE
p4270
(dp4271
g414
(lp4272
(I0
I0
tp4273
a(I0
I16
tp4274
asg418
g5
(g6
g7
(lp4275
g3952
ag3959
ag3966
ag3978
ag3985
ag3992
ag4047
atp4276
Rp4277
(dp4278
g16
g429
sbsbsg430
g431
sg453
(lp4279
(isxpPackage
sxpSent
p4280
(dp4281
g457
(lp4282
I12
asg459
VA parser which exploited this effect could use this to acquire a robust model of name behavior by sharing statistics from all first names together, preventing low counts from producing noisy models of names
p4283
sg461
I3
sg446
I42
sg462
I9
sbasba(icmyPackage
CELink
p4284
(dp4285
g3
(lp4286
g5
(g6
g7
(lp4287
g5
(g6
g7
(lp4288
g5
(g6
g7
(lp4289
g5
(g6
g7
(lp4290
VOur
p4291
atp4292
Rp4293
(dp4294
g16
VPRP$
p4295
sbag5
(g6
g7
(lp4296
Vfirst
p4297
atp4298
Rp4299
(dp4300
g16
VJJ
p4301
sbag5
(g6
g7
(lp4302
Vtask
p4303
atp4304
Rp4305
(dp4306
g16
VNN
p4307
sbatp4308
Rp4309
(dp4310
g16
VNP
p4311
sbag5
(g6
g7
(lp4312
g5
(g6
g7
(lp4313
Vis
p4314
atp4315
Rp4316
(dp4317
g16
VVBZ
p4318
sbag5
(g6
g7
(lp4319
g5
(g6
g7
(lp4320
Vthus
p4321
atp4322
Rp4323
(dp4324
g16
VRB
p4325
sbatp4326
Rp4327
(dp4328
g16
VADVP
p4329
sbag5
(g6
g7
(lp4330
g5
(g6
g7
(lp4331
g5
(g6
g7
(lp4332
Vto
p4333
atp4334
Rp4335
(dp4336
g16
VTO
p4337
sbag5
(g6
g7
(lp4338
g5
(g6
g7
(lp4339
Vdesign
p4340
atp4341
Rp4342
(dp4343
g16
VVB
p4344
sbag5
(g6
g7
(lp4345
g5
(g6
g7
(lp4346
g5
(g6
g7
(lp4347
g104
atp4348
Rp4349
(dp4350
g16
VDT
p4351
sbag5
(g6
g7
(lp4352
Vset
p4353
atp4354
Rp4355
(dp4356
g16
VNN
p4357
sbatp4358
Rp4359
(dp4360
g16
VNP
p4361
sbag5
(g6
g7
(lp4362
g5
(g6
g7
(lp4363
Vof
p4364
atp4365
Rp4366
(dp4367
g16
VIN
p4368
sbag5
(g6
g7
(lp4369
g5
(g6
g7
(lp4370
Vorthogonal
p4371
atp4372
Rp4373
(dp4374
g16
VJJ
p4375
sbag5
(g6
g7
(lp4376
Vexperiments
p4377
atp4378
Rp4379
(dp4380
g16
VNNS
p4381
sbatp4382
Rp4383
(dp4384
g16
VNP
p4385
sbatp4386
Rp4387
(dp4388
g16
VPP
p4389
sbag5
(g6
g7
(lp4390
g5
(g6
g7
(lp4391
g5
(g6
g7
(lp4392
Vwhich
p4393
atp4394
Rp4395
(dp4396
g16
VWDT
p4397
sbatp4398
Rp4399
(dp4400
g16
VWHNP
p4401
sbag5
(g6
g7
(lp4402
g5
(g6
g7
(lp4403
g5
(g6
g7
(lp4404
Vmake
p4405
atp4406
Rp4407
(dp4408
g16
VVBP
p4409
sbag5
(g6
g7
(lp4410
g5
(g6
g7
(lp4411
g5
(g6
g7
(lp4412
Vit
p4413
atp4414
Rp4415
(dp4416
g16
VPRP
p4417
sbatp4418
Rp4419
(dp4420
g16
VNP
p4421
sbag5
(g6
g7
(lp4422
g5
(g6
g7
(lp4423
Vpossible
p4424
atp4425
Rp4426
(dp4427
g16
VJJ
p4428
sbag5
(g6
g7
(lp4429
g5
(g6
g7
(lp4430
g5
(g6
g7
(lp4431
Vto
p4432
atp4433
Rp4434
(dp4435
g16
VTO
p4436
sbag5
(g6
g7
(lp4437
g5
(g6
g7
(lp4438
Vtest
p4439
atp4440
Rp4441
(dp4442
g16
VVB
p4443
sbag5
(g6
g7
(lp4444
g5
(g6
g7
(lp4445
g5
(g6
g7
(lp4446
Veach
p4447
atp4448
Rp4449
(dp4450
g16
VDT
p4451
sbatp4452
Rp4453
(dp4454
g16
VNP
p4455
sbag5
(g6
g7
(lp4456
g5
(g6
g7
(lp4457
Vof
p4458
atp4459
Rp4460
(dp4461
g16
VIN
p4462
sbag5
(g6
g7
(lp4463
g5
(g6
g7
(lp4464
Vthe
p4465
atp4466
Rp4467
(dp4468
g16
VDT
p4469
sbag5
(g6
g7
(lp4470
Vthree
p4471
atp4472
Rp4473
(dp4474
g16
VCD
p4475
sbag5
(g6
g7
(lp4476
Vhypotheses
p4477
atp4478
Rp4479
(dp4480
g16
VNNS
p4481
sbatp4482
Rp4483
(dp4484
g16
VNP
p4485
sbatp4486
Rp4487
(dp4488
g16
VPP
p4489
sbatp4490
Rp4491
(dp4492
g16
VNP
p4493
sbag5
(g6
g7
(lp4494
g5
(g6
g7
(lp4495
Vin
p4496
atp4497
Rp4498
(dp4499
g16
VIN
p4500
sbag5
(g6
g7
(lp4501
g5
(g6
g7
(lp4502
Visolation
p4503
atp4504
Rp4505
(dp4506
g16
VNN
p4507
sbatp4508
Rp4509
(dp4510
g16
VNP
p4511
sbatp4512
Rp4513
(dp4514
g16
VPP
p4515
sbatp4516
Rp4517
(dp4518
g16
VVP
p4519
sbatp4520
Rp4521
(dp4522
g16
VVP
p4523
sbatp4524
Rp4525
(dp4526
g16
g270
sbatp4527
Rp4528
(dp4529
g16
VADJP
p4530
sbatp4531
Rp4532
(dp4533
g16
g270
sbatp4534
Rp4535
(dp4536
g16
VVP
p4537
sbatp4538
Rp4539
(dp4540
g16
g270
sbatp4541
Rp4542
(dp4543
g16
VSBAR
p4544
sbatp4545
Rp4546
(dp4547
g16
VNP
p4548
sbatp4549
Rp4550
(dp4551
g16
VVP
p4552
sbatp4553
Rp4554
(dp4555
g16
VVP
p4556
sbatp4557
Rp4558
(dp4559
g16
g270
sbatp4560
Rp4561
(dp4562
g16
VVP
p4563
sbatp4564
Rp4565
(dp4566
g16
g270
sbatp4567
Rp4568
(dp4569
g16
VROOT
p4570
sbasg411
(icmyPackage
CorE
p4571
(dp4572
g414
(lp4573
(I0
I0
tp4574
a(I0
I3
tp4575
asg418
g5
(g6
g7
(lp4576
g4309
ag4316
atp4577
Rp4578
(dp4579
g16
g429
sbsbsg419
(icmyPackage
CorE
p4580
(dp4581
g414
(lp4582
(I0
I5
tp4583
a(I0
I24
tp4584
asg418
g4558
sbsg430
g3290
sg453
(lp4585
(isxpPackage
sxpSent
p4586
(dp4587
g457
(lp4588
I13
asg459
VOur first task is thus to design a set of orthogonal experiments which make it possible to test each of the three hypotheses in isolation
p4589
sg461
I3
sg446
I48
sg462
I11
sbasba(icmyPackage
CELink
p4590
(dp4591
g3
(lp4592
g5
(g6
g7
(lp4593
g5
(g6
g7
(lp4594
g5
(g6
g7
(lp4595
g5
(g6
g7
(lp4596
VIf
p4597
atp4598
Rp4599
(dp4600
g16
VIN
p4601
sbag5
(g6
g7
(lp4602
g5
(g6
g7
(lp4603
g5
(g6
g7
(lp4604
Vwe
p4605
atp4606
Rp4607
(dp4608
g16
VPRP
p4609
sbatp4610
Rp4611
(dp4612
g16
VNP
p4613
sbag5
(g6
g7
(lp4614
g5
(g6
g7
(lp4615
Vwant
p4616
atp4617
Rp4618
(dp4619
g16
VVBP
p4620
sbag5
(g6
g7
(lp4621
g5
(g6
g7
(lp4622
g5
(g6
g7
(lp4623
Vto
p4624
atp4625
Rp4626
(dp4627
g16
VTO
p4628
sbag5
(g6
g7
(lp4629
g5
(g6
g7
(lp4630
Vencourage
p4631
atp4632
Rp4633
(dp4634
g16
VVB
p4635
sbag5
(g6
g7
(lp4636
g5
(g6
g7
(lp4637
Vsimilarly-embedded
p4638
atp4639
Rp4640
(dp4641
g16
VJJ
p4642
sbag5
(g6
g7
(lp4643
Vwords
p4644
atp4645
Rp4646
(dp4647
g16
VNNS
p4648
sbatp4649
Rp4650
(dp4651
g16
VNP
p4652
sbag5
(g6
g7
(lp4653
g5
(g6
g7
(lp4654
g5
(g6
g7
(lp4655
Vto
p4656
atp4657
Rp4658
(dp4659
g16
VTO
p4660
sbag5
(g6
g7
(lp4661
g5
(g6
g7
(lp4662
Vexhibit
p4663
atp4664
Rp4665
(dp4666
g16
VVB
p4667
sbag5
(g6
g7
(lp4668
g5
(g6
g7
(lp4669
Vsimilar
p4670
atp4671
Rp4672
(dp4673
g16
VJJ
p4674
sbag5
(g6
g7
(lp4675
Vbehavior
p4676
atp4677
Rp4678
(dp4679
g16
VNN
p4680
sbatp4681
Rp4682
(dp4683
g16
VNP
p4684
sbag5
(g6
g7
(lp4685
g5
(g6
g7
(lp4686
Vin
p4687
atp4688
Rp4689
(dp4690
g16
VIN
p4691
sbag5
(g6
g7
(lp4692
g5
(g6
g7
(lp4693
Vthe
p4694
atp4695
Rp4696
(dp4697
g16
VDT
p4698
sbag5
(g6
g7
(lp4699
Vgenerative
p4700
atp4701
Rp4702
(dp4703
g16
VJJ
p4704
sbag5
(g6
g7
(lp4705
Vmodel
p4706
atp4707
Rp4708
(dp4709
g16
VNN
p4710
sbatp4711
Rp4712
(dp4713
g16
VNP
p4714
sbatp4715
Rp4716
(dp4717
g16
VPP
p4718
sbatp4719
Rp4720
(dp4721
g16
VVP
p4722
sbatp4723
Rp4724
(dp4725
g16
VVP
p4726
sbatp4727
Rp4728
(dp4729
g16
g270
sbatp4730
Rp4731
(dp4732
g16
VVP
p4733
sbatp4734
Rp4735
(dp4736
g16
VVP
p4737
sbatp4738
Rp4739
(dp4740
g16
g270
sbatp4741
Rp4742
(dp4743
g16
VVP
p4744
sbatp4745
Rp4746
(dp4747
g16
g270
sbatp4748
Rp4749
(dp4750
g16
VSBAR
p4751
sbag5
(g6
g7
(lp4752
g193
atp4753
Rp4754
(dp4755
g16
g193
sbag5
(g6
g7
(lp4756
g5
(g6
g7
(lp4757
Vwe
p4758
atp4759
Rp4760
(dp4761
g16
VPRP
p4762
sbatp4763
Rp4764
(dp4765
g16
VNP
p4766
sbag5
(g6
g7
(lp4767
g5
(g6
g7
(lp4768
Vneed
p4769
atp4770
Rp4771
(dp4772
g16
VVBP
p4773
sbag5
(g6
g7
(lp4774
g5
(g6
g7
(lp4775
g5
(g6
g7
(lp4776
Vto
p4777
atp4778
Rp4779
(dp4780
g16
VTO
p4781
sbag5
(g6
g7
(lp4782
g5
(g6
g7
(lp4783
Vensure
p4784
atp4785
Rp4786
(dp4787
g16
VVB
p4788
sbag5
(g6
g7
(lp4789
g5
(g6
g7
(lp4790
Vthat
p4791
atp4792
Rp4793
(dp4794
g16
VIN
p4795
sbag5
(g6
g7
(lp4796
g5
(g6
g7
(lp4797
g5
(g6
g7
(lp4798
Vthe
p4799
atp4800
Rp4801
(dp4802
g16
VDT
p4803
sbatp4804
Rp4805
(dp4806
g16
VNP
p4807
sbag5
(g6
g7
(lp4808
g5
(g6
g7
(lp4809
Vare
p4810
atp4811
Rp4812
(dp4813
g16
VVBP
p4814
sbag5
(g6
g7
(lp4815
g5
(g6
g7
(lp4816
Vpreferentially
p4817
atp4818
Rp4819
(dp4820
g16
VRB
p4821
sbatp4822
Rp4823
(dp4824
g16
VADVP
p4825
sbag5
(g6
g7
(lp4826
g5
(g6
g7
(lp4827
Vmapped
p4828
atp4829
Rp4830
(dp4831
g16
VVBN
p4832
sbag5
(g6
g7
(lp4833
g5
(g6
g7
(lp4834
Vonto
p4835
atp4836
Rp4837
(dp4838
g16
VIN
p4839
sbag5
(g6
g7
(lp4840
g5
(g6
g7
(lp4841
Vthe
p4842
atp4843
Rp4844
(dp4845
g16
VDT
p4846
sbag5
(g6
g7
(lp4847
Vsame
p4848
atp4849
Rp4850
(dp4851
g16
VJJ
p4852
sbag5
(g6
g7
(lp4853
Vlatent
p4854
atp4855
Rp4856
(dp4857
g16
VNN
p4858
sbag5
(g6
g7
(lp4859
Vpreterminal
p4860
atp4861
Rp4862
(dp4863
g16
VNN
p4864
sbag5
(g6
g7
(lp4865
Vtag
p4866
atp4867
Rp4868
(dp4869
g16
VNN
p4870
sbatp4871
Rp4872
(dp4873
g16
VNP
p4874
sbatp4875
Rp4876
(dp4877
g16
VPP
p4878
sbatp4879
Rp4880
(dp4881
g16
VVP
p4882
sbatp4883
Rp4884
(dp4885
g16
VVP
p4886
sbatp4887
Rp4888
(dp4889
g16
g270
sbatp4890
Rp4891
(dp4892
g16
VSBAR
p4893
sbatp4894
Rp4895
(dp4896
g16
VVP
p4897
sbatp4898
Rp4899
(dp4900
g16
VVP
p4901
sbatp4902
Rp4903
(dp4904
g16
g270
sbatp4905
Rp4906
(dp4907
g16
VVP
p4908
sbatp4909
Rp4910
(dp4911
g16
g270
sbatp4912
Rp4913
(dp4914
g16
VROOT
p4915
sbasg411
(icmyPackage
CorE
p4916
(dp4917
g414
(lp4918
(I0
I1
tp4919
a(I0
I14
tp4920
asg418
g4746
sbsg419
(icmyPackage
CorE
p4921
(dp4922
g414
(lp4923
(I0
I16
tp4924
a(I0
I30
tp4925
asg418
g5
(g6
g7
(lp4926
g4764
ag4906
atp4927
Rp4928
(dp4929
g16
g429
sbsbsg430
(icmyPackage
pattern
p4930
(dp4931
g433
I0
sg434
I0
sg435
(lp4932
(lp4933
(lp4934
S'if'
p4935
aS'once'
p4936
aaa(lp4937
S','
p4938
aasg441
(lp4939
I1
aI1
aI1
asg443
(lp4940
S'If some light and mobile detection devices can be invented in the future, many new applications can be imagined, for example, people can get some services while thinking.'
p4941
asg446
I15
sg447
(lp4942
(lp4943
a(lp4944
S'&C@Complete@'
p4945
aa(lp4946
S'&R@Complete@'
p4947
aasbsg453
(lp4948
(isxpPackage
sxpSent
p4949
(dp4950
g457
(lp4951
I14
asg459
VIf we want to encourage similarly-embedded words to exhibit similar behavior in the generative model, we need to ensure that the are preferentially mapped onto the same latent preterminal tag
p4952
sg461
I4
sg446
I63
sg462
I15
sbasba(icmyPackage
CELink
p4953
(dp4954
g3
(lp4955
g5
(g6
g7
(lp4956
g5
(g6
g7
(lp4957
g5
(g6
g7
(lp4958
g5
(g6
g7
(lp4959
g5
(g6
g7
(lp4960
g5
(g6
g7
(lp4961
VEach
p4962
atp4963
Rp4964
(dp4965
g16
VDT
p4966
sbag5
(g6
g7
(lp4967
g734
atp4968
Rp4969
(dp4970
g16
VNN
p4971
sbag5
(g6
g7
(lp4972
g740
atp4973
Rp4974
(dp4975
g16
VPOS
p4976
sbatp4977
Rp4978
(dp4979
g16
VNP
p4980
sbag5
(g6
g7
(lp4981
V\u005c
p4982
atp4983
Rp4984
(dp4985
g16
VJJ
p4986
sbag5
(g6
g7
(lp4987
Vu0391
p4988
atp4989
Rp4990
(dp4991
g16
VJJ
p4992
sbag5
(g6
g7
(lp4993
g740
atp4994
Rp4995
(dp4996
g16
V''
p4997
sbag5
(g6
g7
(lp4998
g3006
atp4999
Rp5000
(dp5001
g16
VNN
p5002
sbatp5003
Rp5004
(dp5005
g16
VNP
p5006
sbag5
(g6
g7
(lp5007
g193
atp5008
Rp5009
(dp5010
g16
g193
sbag5
(g6
g7
(lp5011
g5
(g6
g7
(lp5012
Vw
p5013
atp5014
Rp5015
(dp5016
g16
VNN
p5017
sbatp5018
Rp5019
(dp5020
g16
VNP
p5021
sbatp5022
Rp5023
(dp5024
g16
VNP
p5025
sbag5
(g6
g7
(lp5026
g5
(g6
g7
(lp5027
Vis
p5028
atp5029
Rp5030
(dp5031
g16
VVBZ
p5032
sbag5
(g6
g7
(lp5033
g5
(g6
g7
(lp5034
Vlearned
p5035
atp5036
Rp5037
(dp5038
g16
VVBN
p5039
sbag5
(g6
g7
(lp5040
g5
(g6
g7
(lp5041
Vin
p5042
atp5043
Rp5044
(dp5045
g16
VIN
p5046
sbag5
(g6
g7
(lp5047
g5
(g6
g7
(lp5048
Vthe
p5049
atp5050
Rp5051
(dp5052
g16
VDT
p5053
sbag5
(g6
g7
(lp5054
Vsame
p5055
atp5056
Rp5057
(dp5058
g16
VJJ
p5059
sbag5
(g6
g7
(lp5060
Vway
p5061
atp5062
Rp5063
(dp5064
g16
VNN
p5065
sbatp5066
Rp5067
(dp5068
g16
VNP
p5069
sbatp5070
Rp5071
(dp5072
g16
VPP
p5073
sbag5
(g6
g7
(lp5074
g5
(g6
g7
(lp5075
Vas
p5076
atp5077
Rp5078
(dp5079
g16
VIN
p5080
sbag5
(g6
g7
(lp5081
g5
(g6
g7
(lp5082
g5
(g6
g7
(lp5083
g5
(g6
g7
(lp5084
Vits
p5085
atp5086
Rp5087
(dp5088
g16
VPRP$
p5089
sbag5
(g6
g7
(lp5090
Vcorresponding
p5091
atp5092
Rp5093
(dp5094
g16
VJJ
p5095
sbag5
(g6
g7
(lp5096
Vprobability
p5097
atp5098
Rp5099
(dp5100
g16
VNN
p5101
sbatp5102
Rp5103
(dp5104
g16
VNP
p5105
sbag5
(g6
g7
(lp5106
g5
(g6
g7
(lp5107
Vin
p5108
atp5109
Rp5110
(dp5111
g16
VIN
p5112
sbag5
(g6
g7
(lp5113
g5
(g6
g7
(lp5114
g5
(g6
g7
(lp5115
Vthe
p5116
atp5117
Rp5118
(dp5119
g16
VDT
p5120
sbag5
(g6
g7
(lp5121
Voriginal
p5122
atp5123
Rp5124
(dp5125
g16
VJJ
p5126
sbag5
(g6
g7
(lp5127
Vparser
p5128
atp5129
Rp5130
(dp5131
g16
VNN
p5132
sbag5
(g6
g7
(lp5133
Vmodel
p5134
atp5135
Rp5136
(dp5137
g16
VNN
p5138
sbag5
(g6
g7
(lp5139
g734
atp5140
Rp5141
(dp5142
g16
VNN
p5143
sbag5
(g6
g7
(lp5144
g740
atp5145
Rp5146
(dp5147
g16
VPOS
p5148
sbatp5149
Rp5150
(dp5151
g16
VNP
p5152
sbag5
(g6
g7
(lp5153
V\u005c
p5154
atp5155
Rp5156
(dp5157
g16
VCD
p5158
sbag5
(g6
g7
(lp5159
g5
(g6
g7
(lp5160
g5
(g6
g7
(lp5161
Vu2014
p5162
atp5163
Rp5164
(dp5165
g16
VNNS
p5166
sbag5
(g6
g7
(lp5167
g740
atp5168
Rp5169
(dp5170
g16
VPOS
p5171
sbatp5172
Rp5173
(dp5174
g16
VNP
p5175
sbag5
(g6
g7
(lp5176
g5
(g6
g7
(lp5177
Vduring
p5178
atp5179
Rp5180
(dp5181
g16
VIN
p5182
sbag5
(g6
g7
(lp5183
g5
(g6
g7
(lp5184
g5
(g6
g7
(lp5185
Veach
p5186
atp5187
Rp5188
(dp5189
g16
VDT
p5190
sbag5
(g6
g7
(lp5191
VM
p5192
atp5193
Rp5194
(dp5195
g16
VNNP
p5196
sbag5
(g6
g7
(lp5197
Vstep
p5198
atp5199
Rp5200
(dp5201
g16
VNN
p5202
sbatp5203
Rp5204
(dp5205
g16
VNP
p5206
sbag5
(g6
g7
(lp5207
g5
(g6
g7
(lp5208
Vof
p5209
atp5210
Rp5211
(dp5212
g16
VIN
p5213
sbag5
(g6
g7
(lp5214
g5
(g6
g7
(lp5215
g5
(g6
g7
(lp5216
Vthe
p5217
atp5218
Rp5219
(dp5220
g16
VDT
p5221
sbag5
(g6
g7
(lp5222
Vtraining
p5223
atp5224
Rp5225
(dp5226
g16
VNN
p5227
sbag5
(g6
g7
(lp5228
Vprocedure
p5229
atp5230
Rp5231
(dp5232
g16
VNN
p5233
sbatp5234
Rp5235
(dp5236
g16
VNP
p5237
sbag5
(g6
g7
(lp5238
g193
atp5239
Rp5240
(dp5241
g16
g193
sbag5
(g6
g7
(lp5242
g5
(g6
g7
(lp5243
g5
(g6
g7
(lp5244
g734
atp5245
Rp5246
(dp5247
g16
VNNP
p5248
sbag5
(g6
g7
(lp5249
g740
atp5250
Rp5251
(dp5252
g16
VPOS
p5253
sbatp5254
Rp5255
(dp5256
g16
VNP
p5257
sbag5
(g6
g7
(lp5258
V\u005c
p5259
atp5260
Rp5261
(dp5262
g16
VJJ
p5263
sbag5
(g6
g7
(lp5264
Vu0391
p5265
atp5266
Rp5267
(dp5268
g16
VJJ
p5269
sbag5
(g6
g7
(lp5270
g740
atp5271
Rp5272
(dp5273
g16
V''
p5274
sbag5
(g6
g7
(lp5275
g5013
atp5276
Rp5277
(dp5278
g16
VNN
p5279
sbatp5280
Rp5281
(dp5282
g16
VNP
p5283
sbag5
(g6
g7
(lp5284
g193
atp5285
Rp5286
(dp5287
g16
g193
sbatp5288
Rp5289
(dp5290
g16
VNP
p5291
sbatp5292
Rp5293
(dp5294
g16
VPP
p5295
sbatp5296
Rp5297
(dp5298
g16
VNP
p5299
sbatp5300
Rp5301
(dp5302
g16
VPP
p5303
sbatp5304
Rp5305
(dp5306
g16
VNAC
p5307
sbag5
(g6
g7
(lp5308
g3006
atp5309
Rp5310
(dp5311
g16
VNN
p5312
sbatp5313
Rp5314
(dp5315
g16
VNP
p5316
sbatp5317
Rp5318
(dp5319
g16
VPP
p5320
sbatp5321
Rp5322
(dp5323
g16
VNP
p5324
sbag5
(g6
g7
(lp5325
g5
(g6
g7
(lp5326
Vis
p5327
atp5328
Rp5329
(dp5330
g16
VVBZ
p5331
sbag5
(g6
g7
(lp5332
g5
(g6
g7
(lp5333
Vset
p5334
atp5335
Rp5336
(dp5337
g16
VVBN
p5338
sbag5
(g6
g7
(lp5339
g5
(g6
g7
(lp5340
Vto
p5341
atp5342
Rp5343
(dp5344
g16
VTO
p5345
sbag5
(g6
g7
(lp5346
g5
(g6
g7
(lp5347
g5
(g6
g7
(lp5348
Vthe
p5349
atp5350
Rp5351
(dp5352
g16
VDT
p5353
sbag5
(g6
g7
(lp5354
Vexpected
p5355
atp5356
Rp5357
(dp5358
g16
VJJ
p5359
sbag5
(g6
g7
(lp5360
Vnumber
p5361
atp5362
Rp5363
(dp5364
g16
VNN
p5365
sbatp5366
Rp5367
(dp5368
g16
VNP
p5369
sbag5
(g6
g7
(lp5370
g5
(g6
g7
(lp5371
Vof
p5372
atp5373
Rp5374
(dp5375
g16
VIN
p5376
sbag5
(g6
g7
(lp5377
g5
(g6
g7
(lp5378
g5
(g6
g7
(lp5379
Vtimes
p5380
atp5381
Rp5382
(dp5383
g16
VNNS
p5384
sbatp5385
Rp5386
(dp5387
g16
VNP
p5388
sbag5
(g6
g7
(lp5389
g5
(g6
g7
(lp5390
g5
(g6
g7
(lp5391
g5
(g6
g7
(lp5392
Vthe
p5393
atp5394
Rp5395
(dp5396
g16
VDT
p5397
sbag5
(g6
g7
(lp5398
Vword
p5399
atp5400
Rp5401
(dp5402
g16
VNN
p5403
sbag5
(g6
g7
(lp5404
g5013
atp5405
Rp5406
(dp5407
g16
VNN
p5408
sbatp5409
Rp5410
(dp5411
g16
VNP
p5412
sbag5
(g6
g7
(lp5413
g5
(g6
g7
(lp5414
Vappears
p5415
atp5416
Rp5417
(dp5418
g16
VVBZ
p5419
sbag5
(g6
g7
(lp5420
g5
(g6
g7
(lp5421
Vunder
p5422
atp5423
Rp5424
(dp5425
g16
VIN
p5426
sbag5
(g6
g7
(lp5427
g5
(g6
g7
(lp5428
Vthe
p5429
atp5430
Rp5431
(dp5432
g16
VDT
p5433
sbag5
(g6
g7
(lp5434
Vrefined
p5435
atp5436
Rp5437
(dp5438
g16
VVBN
p5439
sbag5
(g6
g7
(lp5440
Vtag
p5441
atp5442
Rp5443
(dp5444
g16
VNN
p5445
sbag5
(g6
g7
(lp5446
g3006
atp5447
Rp5448
(dp5449
g16
VNN
p5450
sbatp5451
Rp5452
(dp5453
g16
VNP
p5454
sbatp5455
Rp5456
(dp5457
g16
VPP
p5458
sbatp5459
Rp5460
(dp5461
g16
VVP
p5462
sbatp5463
Rp5464
(dp5465
g16
g270
sbatp5466
Rp5467
(dp5468
g16
VSBAR
p5469
sbatp5470
Rp5471
(dp5472
g16
VNP
p5473
sbatp5474
Rp5475
(dp5476
g16
VPP
p5477
sbatp5478
Rp5479
(dp5480
g16
VNP
p5481
sbatp5482
Rp5483
(dp5484
g16
VPP
p5485
sbatp5486
Rp5487
(dp5488
g16
VVP
p5489
sbatp5490
Rp5491
(dp5492
g16
VVP
p5493
sbatp5494
Rp5495
(dp5496
g16
g270
sbatp5497
Rp5498
(dp5499
g16
VSBAR
p5500
sbatp5501
Rp5502
(dp5503
g16
VVP
p5504
sbatp5505
Rp5506
(dp5507
g16
VVP
p5508
sbatp5509
Rp5510
(dp5511
g16
g270
sbatp5512
Rp5513
(dp5514
g16
VROOT
p5515
sbasg411
(icmyPackage
CorE
p5516
(dp5517
g414
(lp5518
(I0
I16
tp5519
a(I0
I62
tp5520
asg418
g5495
sbsg419
(icmyPackage
CorE
p5521
(dp5522
g414
(lp5523
(I0
I0
tp5524
a(I0
I14
tp5525
asg418
g5
(g6
g7
(lp5526
g5023
ag5030
ag5037
ag5071
atp5527
Rp5528
(dp5529
g16
g429
sbsbsg430
g1217
sg453
(lp5530
(isxpPackage
sxpSent
p5531
(dp5532
g457
(lp5533
I15
aI16
asg459
VEach u'\u005cu0391' t , w is learned in the same way as its corresponding probability in the original parser model u'\u005cu2014' during each M step of the training procedure, u'\u005cu0391' w , t is set to the expected number of times the word w appears under the refined tag t
p5534
sg461
I4
sg446
I66
sg462
I16
sbasba(icmyPackage
CELink
p5535
(dp5536
g3
(lp5537
g5513
ag5
(g6
g7
(lp5538
g5
(g6
g7
(lp5539
g5
(g6
g7
(lp5540
g5
(g6
g7
(lp5541
g5
(g6
g7
(lp5542
VIntuitively
p5543
atp5544
Rp5545
(dp5546
g16
VNNP
p5547
sbatp5548
Rp5549
(dp5550
g16
VNP
p5551
sbag5
(g6
g7
(lp5552
g193
atp5553
Rp5554
(dp5555
g16
g193
sbag5
(g6
g7
(lp5556
Vas
p5557
atp5558
Rp5559
(dp5560
g16
VRB
p5561
sbag5
(g6
g7
(lp5562
g5
(g6
g7
(lp5563
g5
(g6
g7
(lp5564
g734
atp5565
Rp5566
(dp5567
g16
VNNP
p5568
sbag5
(g6
g7
(lp5569
g740
atp5570
Rp5571
(dp5572
g16
VPOS
p5573
sbatp5574
Rp5575
(dp5576
g16
VNP
p5577
sbag5
(g6
g7
(lp5578
V\u005c
p5579
atp5580
Rp5581
(dp5582
g16
VNN
p5583
sbag5
(g6
g7
(lp5584
Vu0392
p5585
atp5586
Rp5587
(dp5588
g16
VNNS
p5589
sbag5
(g6
g7
(lp5590
g740
atp5591
Rp5592
(dp5593
g16
V''
p5594
sbatp5595
Rp5596
(dp5597
g16
VNP
p5598
sbatp5599
Rp5600
(dp5601
g16
VNP
p5602
sbag5
(g6
g7
(lp5603
g5
(g6
g7
(lp5604
Vgrows
p5605
atp5606
Rp5607
(dp5608
g16
VVBZ
p5609
sbag5
(g6
g7
(lp5610
g5
(g6
g7
(lp5611
g5
(g6
g7
(lp5612
g5
(g6
g7
(lp5613
g5
(g6
g7
(lp5614
Vsmall
p5615
atp5616
Rp5617
(dp5618
g16
VJJ
p5619
sbag5
(g6
g7
(lp5620
Vgroups
p5621
atp5622
Rp5623
(dp5624
g16
VNNS
p5625
sbatp5626
Rp5627
(dp5628
g16
VNP
p5629
sbag5
(g6
g7
(lp5630
g5
(g6
g7
(lp5631
Vof
p5632
atp5633
Rp5634
(dp5635
g16
VIN
p5636
sbag5
(g6
g7
(lp5637
g5
(g6
g7
(lp5638
Vrelated
p5639
atp5640
Rp5641
(dp5642
g16
VJJ
p5643
sbag5
(g6
g7
(lp5644
Vwords
p5645
atp5646
Rp5647
(dp5648
g16
VNNS
p5649
sbatp5650
Rp5651
(dp5652
g16
VNP
p5653
sbatp5654
Rp5655
(dp5656
g16
VPP
p5657
sbatp5658
Rp5659
(dp5660
g16
VNP
p5661
sbag5
(g6
g7
(lp5662
g5
(g6
g7
(lp5663
Vwill
p5664
atp5665
Rp5666
(dp5667
g16
VMD
p5668
sbag5
(g6
g7
(lp5669
g5
(g6
g7
(lp5670
Vbe
p5671
atp5672
Rp5673
(dp5674
g16
VVB
p5675
sbag5
(g6
g7
(lp5676
g5
(g6
g7
(lp5677
Vassigned
p5678
atp5679
Rp5680
(dp5681
g16
VVBN
p5682
sbag5
(g6
g7
(lp5683
g5
(g6
g7
(lp5684
g5
(g6
g7
(lp5685
g5
(g6
g7
(lp5686
g5
(g6
g7
(lp5687
Vincreasingly
p5688
atp5689
Rp5690
(dp5691
g16
VRB
p5692
sbag5
(g6
g7
(lp5693
Vsimilar
p5694
atp5695
Rp5696
(dp5697
g16
VJJ
p5698
sbatp5699
Rp5700
(dp5701
g16
VADJP
p5702
sbag5
(g6
g7
(lp5703
Vprobabilities
p5704
atp5705
Rp5706
(dp5707
g16
VNNS
p5708
sbatp5709
Rp5710
(dp5711
g16
VNP
p5712
sbag5
(g6
g7
(lp5713
g5
(g6
g7
(lp5714
Vof
p5715
atp5716
Rp5717
(dp5718
g16
VIN
p5719
sbag5
(g6
g7
(lp5720
g5
(g6
g7
(lp5721
g5
(g6
g7
(lp5722
Vbeing
p5723
atp5724
Rp5725
(dp5726
g16
VVBG
p5727
sbag5
(g6
g7
(lp5728
g5
(g6
g7
(lp5729
Vgenerated
p5730
atp5731
Rp5732
(dp5733
g16
VVBN
p5734
sbag5
(g6
g7
(lp5735
g5
(g6
g7
(lp5736
Vfrom
p5737
atp5738
Rp5739
(dp5740
g16
VIN
p5741
sbag5
(g6
g7
(lp5742
g5
(g6
g7
(lp5743
g5
(g6
g7
(lp5744
Vthe
p5745
atp5746
Rp5747
(dp5748
g16
VDT
p5749
sbag5
(g6
g7
(lp5750
Vsame
p5751
atp5752
Rp5753
(dp5754
g16
VJJ
p5755
sbag5
(g6
g7
(lp5756
Vtag
p5757
atp5758
Rp5759
(dp5760
g16
VNN
p5761
sbatp5762
Rp5763
(dp5764
g16
VNP
p5765
sbag5
(g6
g7
(lp5766
V-LRB-
p5767
atp5768
Rp5769
(dp5770
g16
V-LRB-
p5771
sbag5
(g6
g7
(lp5772
g5
(g6
g7
(lp5773
Vin
p5774
atp5775
Rp5776
(dp5777
g16
VIN
p5778
sbag5
(g6
g7
(lp5779
g5
(g6
g7
(lp5780
g5
(g6
g7
(lp5781
Vthe
p5782
atp5783
Rp5784
(dp5785
g16
VDT
p5786
sbag5
(g6
g7
(lp5787
Vlimit
p5788
atp5789
Rp5790
(dp5791
g16
VNN
p5792
sbatp5793
Rp5794
(dp5795
g16
VNP
p5796
sbag5
(g6
g7
(lp5797
g5
(g6
g7
(lp5798
g5
(g6
g7
(lp5799
Vwhere
p5800
atp5801
Rp5802
(dp5803
g16
VWRB
p5804
sbatp5805
Rp5806
(dp5807
g16
VWHADVP
p5808
sbag5
(g6
g7
(lp5809
g5
(g6
g7
(lp5810
g5
(g6
g7
(lp5811
g734
atp5812
Rp5813
(dp5814
g16
VNNP
p5815
sbag5
(g6
g7
(lp5816
g740
atp5817
Rp5818
(dp5819
g16
VPOS
p5820
sbatp5821
Rp5822
(dp5823
g16
VNP
p5824
sbag5
(g6
g7
(lp5825
g5
(g6
g7
(lp5826
V\u005c
p5827
atp5828
Rp5829
(dp5830
g16
VVBZ
p5831
sbag5
(g6
g7
(lp5832
g5
(g6
g7
(lp5833
g5
(g6
g7
(lp5834
Vu0392
p5835
atp5836
Rp5837
(dp5838
g16
VNNP
p5839
sbag5
(g6
g7
(lp5840
g740
atp5841
Rp5842
(dp5843
g16
VPOS
p5844
sbatp5845
Rp5846
(dp5847
g16
VNP
p5848
sbag5
(g6
g7
(lp5849
g5
(g6
g7
(lp5850
V=
p5851
atp5852
Rp5853
(dp5854
g16
VSYM
p5855
sbag5
(g6
g7
(lp5856
g5
(g6
g7
(lp5857
V0
p5858
atp5859
Rp5860
(dp5861
g16
VCD
p5862
sbatp5863
Rp5864
(dp5865
g16
VNP
p5866
sbatp5867
Rp5868
(dp5869
g16
VVP
p5870
sbatp5871
Rp5872
(dp5873
g16
g270
sbatp5874
Rp5875
(dp5876
g16
VVP
p5877
sbatp5878
Rp5879
(dp5880
g16
g270
sbatp5881
Rp5882
(dp5883
g16
VSBAR
p5884
sbatp5885
Rp5886
(dp5887
g16
VNP
p5888
sbatp5889
Rp5890
(dp5891
g16
VPP
p5892
sbag5
(g6
g7
(lp5893
g193
atp5894
Rp5895
(dp5896
g16
g193
sbatp5897
Rp5898
(dp5899
g16
VNP
p5900
sbatp5901
Rp5902
(dp5903
g16
VPP
p5904
sbatp5905
Rp5906
(dp5907
g16
VVP
p5908
sbatp5909
Rp5910
(dp5911
g16
VVP
p5912
sbatp5913
Rp5914
(dp5915
g16
g270
sbatp5916
Rp5917
(dp5918
g16
VPP
p5919
sbatp5920
Rp5921
(dp5922
g16
VNP
p5923
sbag5
(g6
g7
(lp5924
g5
(g6
g7
(lp5925
VEquation
p5926
atp5927
Rp5928
(dp5929
g16
VNNP
p5930
sbag5
(g6
g7
(lp5931
g2244
atp5932
Rp5933
(dp5934
g16
VCD
p5935
sbatp5936
Rp5937
(dp5938
g16
VNP
p5939
sbag5
(g6
g7
(lp5940
g5
(g6
g7
(lp5941
Vis
p5942
atp5943
Rp5944
(dp5945
g16
VVBZ
p5946
sbag5
(g6
g7
(lp5947
g5
(g6
g7
(lp5948
g5
(g6
g7
(lp5949
g104
atp5950
Rp5951
(dp5952
g16
VDT
p5953
sbag5
(g6
g7
(lp5954
Vuniform
p5955
atp5956
Rp5957
(dp5958
g16
VJJ
p5959
sbag5
(g6
g7
(lp5960
Vdistribution
p5961
atp5962
Rp5963
(dp5964
g16
VNN
p5965
sbatp5966
Rp5967
(dp5968
g16
VNP
p5969
sbag5
(g6
g7
(lp5970
g5
(g6
g7
(lp5971
Vover
p5972
atp5973
Rp5974
(dp5975
g16
VIN
p5976
sbag5
(g6
g7
(lp5977
g5
(g6
g7
(lp5978
Vthe
p5979
atp5980
Rp5981
(dp5982
g16
VDT
p5983
sbag5
(g6
g7
(lp5984
Ventire
p5985
atp5986
Rp5987
(dp5988
g16
VJJ
p5989
sbag5
(g6
g7
(lp5990
Vvocabulary
p5991
atp5992
Rp5993
(dp5994
g16
VNN
p5995
sbatp5996
Rp5997
(dp5998
g16
VNP
p5999
sbatp6000
Rp6001
(dp6002
g16
VPP
p6003
sbatp6004
Rp6005
(dp6006
g16
VNP
p6007
sbatp6008
Rp6009
(dp6010
g16
VVP
p6011
sbatp6012
Rp6013
(dp6014
g16
g270
sbatp6015
Rp6016
(dp6017
g16
VVP
p6018
sbatp6019
Rp6020
(dp6021
g16
VVP
p6022
sbatp6023
Rp6024
(dp6025
g16
VVP
p6026
sbatp6027
Rp6028
(dp6029
g16
g270
sbatp6030
Rp6031
(dp6032
g16
VSBAR
p6033
sbatp6034
Rp6035
(dp6036
g16
VVP
p6037
sbatp6038
Rp6039
(dp6040
g16
g270
sbatp6041
Rp6042
(dp6043
g16
VROOT
p6044
sbasg411
(icmyPackage
CorE
p6045
(dp6046
g414
(lp6047
(I1
I3
tp6048
a(I1
I41
tp6049
asg418
g5
(g6
g7
(lp6050
g5596
ag5607
ag5659
ag5666
ag5673
ag5680
ag5921
ag5937
atp6051
Rp6052
(dp6053
g16
g429
sbsbsg419
(icmyPackage
CorE
p6054
(dp6055
g414
(lp6056
(I0
I1
tp6057
a(I1
I0
tp6058
asg418
g5
(g6
g7
(lp6059
g4969
ag4974
ag4984
ag4990
ag4995
ag5000
ag5009
ag5019
ag5506
ag5549
atp6060
Rp6061
(dp6062
g16
g429
sbsbsg430
g1217
sg453
(lp6063
g5531
a(isxpPackage
sxpSent
p6064
(dp6065
g457
(lp6066
I16
aI17
asg459
VIntuitively, as u'\u005cu0392' grows small groups of related words will be assigned increasingly similar probabilities of being generated from the same tag (in the limit where u'\u005cu0392' = 0 , Equation 1 is a uniform distribution over the entire vocabulary
p6067
sg461
I4
sg446
I67
sg462
I16
sbasba(icmyPackage
CELink
p6068
(dp6069
g3
(lp6070
g6042
ag5
(g6
g7
(lp6071
g5
(g6
g7
(lp6072
g5
(g6
g7
(lp6073
g5
(g6
g7
(lp6074
g5
(g6
g7
(lp6075
g5
(g6
g7
(lp6076
VAs
p6077
atp6078
Rp6079
(dp6080
g16
VIN
p6081
sbag5
(g6
g7
(lp6082
g5
(g6
g7
(lp6083
g5
(g6
g7
(lp6084
g734
atp6085
Rp6086
(dp6087
g16
VVBP
p6088
sbag5
(g6
g7
(lp6089
g740
atp6090
Rp6091
(dp6092
g16
V''
p6093
sbag5
(g6
g7
(lp6094
g5
(g6
g7
(lp6095
V\u005c
p6096
atp6097
Rp6098
(dp6099
g16
VJJ
p6100
sbag5
(g6
g7
(lp6101
Vu0392
p6102
atp6103
Rp6104
(dp6105
g16
VNNS
p6106
sbatp6107
Rp6108
(dp6109
g16
VNP
p6110
sbag5
(g6
g7
(lp6111
g740
atp6112
Rp6113
(dp6114
g16
V''
p6115
sbatp6116
Rp6117
(dp6118
g16
VVP
p6119
sbatp6120
Rp6121
(dp6122
g16
g270
sbatp6123
Rp6124
(dp6125
g16
VSBAR
p6126
sbag5
(g6
g7
(lp6127
g5
(g6
g7
(lp6128
Vgrows
p6129
atp6130
Rp6131
(dp6132
g16
VVBZ
p6133
sbag5
(g6
g7
(lp6134
g5
(g6
g7
(lp6135
g5
(g6
g7
(lp6136
Vlarge
p6137
atp6138
Rp6139
(dp6140
g16
VJJ
p6141
sbag5
(g6
g7
(lp6142
Vwords
p6143
atp6144
Rp6145
(dp6146
g16
VNNS
p6147
sbatp6148
Rp6149
(dp6150
g16
VNP
p6151
sbag5
(g6
g7
(lp6152
g5
(g6
g7
(lp6153
Vbecome
p6154
atp6155
Rp6156
(dp6157
g16
VVBN
p6158
sbag5
(g6
g7
(lp6159
g5
(g6
g7
(lp6160
g5
(g6
g7
(lp6161
Vmore
p6162
atp6163
Rp6164
(dp6165
g16
VRBR
p6166
sbag5
(g6
g7
(lp6167
Vindependent
p6168
atp6169
Rp6170
(dp6171
g16
VJJ
p6172
sbatp6173
Rp6174
(dp6175
g16
VADJP
p6176
sbatp6177
Rp6178
(dp6179
g16
g270
sbatp6180
Rp6181
(dp6182
g16
VVP
p6183
sbatp6184
Rp6185
(dp6186
g16
VNP
p6187
sbatp6188
Rp6189
(dp6190
g16
VVP
p6191
sbatp6192
Rp6193
(dp6194
g16
g270
sbag5
(g6
g7
(lp6195
V-LRB-
p6196
atp6197
Rp6198
(dp6199
g16
V-LRB-
p6200
sbag5
(g6
g7
(lp6201
Vand
p6202
atp6203
Rp6204
(dp6205
g16
VCC
p6206
sbag5
(g6
g7
(lp6207
g5
(g6
g7
(lp6208
g5
(g6
g7
(lp6209
Vin
p6210
atp6211
Rp6212
(dp6213
g16
VIN
p6214
sbag5
(g6
g7
(lp6215
g5
(g6
g7
(lp6216
g5
(g6
g7
(lp6217
Vthe
p6218
atp6219
Rp6220
(dp6221
g16
VDT
p6222
sbag5
(g6
g7
(lp6223
Vlimit
p6224
atp6225
Rp6226
(dp6227
g16
VNN
p6228
sbatp6229
Rp6230
(dp6231
g16
VNP
p6232
sbag5
(g6
g7
(lp6233
g5
(g6
g7
(lp6234
g5
(g6
g7
(lp6235
Vwhere
p6236
atp6237
Rp6238
(dp6239
g16
VWRB
p6240
sbatp6241
Rp6242
(dp6243
g16
VWHADVP
p6244
sbag5
(g6
g7
(lp6245
g5
(g6
g7
(lp6246
g5
(g6
g7
(lp6247
g5
(g6
g7
(lp6248
g734
atp6249
Rp6250
(dp6251
g16
VNNP
p6252
sbag5
(g6
g7
(lp6253
g740
atp6254
Rp6255
(dp6256
g16
VPOS
p6257
sbatp6258
Rp6259
(dp6260
g16
VNP
p6261
sbag5
(g6
g7
(lp6262
V\u005c
p6263
atp6264
Rp6265
(dp6266
g16
VJJ
p6267
sbag5
(g6
g7
(lp6268
Vu0392
p6269
atp6270
Rp6271
(dp6272
g16
VNNS
p6273
sbag5
(g6
g7
(lp6274
g740
atp6275
Rp6276
(dp6277
g16
V''
p6278
sbag5
(g6
g7
(lp6279
g5851
atp6280
Rp6281
(dp6282
g16
VNN
p6283
sbatp6284
Rp6285
(dp6286
g16
VNP
p6287
sbag5
(g6
g7
(lp6288
g5
(g6
g7
(lp6289
g734
atp6290
Rp6291
(dp6292
g16
VVBP
p6293
sbag5
(g6
g7
(lp6294
g740
atp6295
Rp6296
(dp6297
g16
V''
p6298
sbag5
(g6
g7
(lp6299
g5
(g6
g7
(lp6300
V\u005c
p6301
atp6302
Rp6303
(dp6304
g16
VJJ
p6305
sbag5
(g6
g7
(lp6306
Vu221e
p6307
atp6308
Rp6309
(dp6310
g16
VNNS
p6311
sbatp6312
Rp6313
(dp6314
g16
VNP
p6315
sbag5
(g6
g7
(lp6316
g740
atp6317
Rp6318
(dp6319
g16
V''
p6320
sbatp6321
Rp6322
(dp6323
g16
VVP
p6324
sbatp6325
Rp6326
(dp6327
g16
g270
sbatp6328
Rp6329
(dp6330
g16
VSBAR
p6331
sbatp6332
Rp6333
(dp6334
g16
VNP
p6335
sbatp6336
Rp6337
(dp6338
g16
VPP
p6339
sbag5
(g6
g7
(lp6340
g193
atp6341
Rp6342
(dp6343
g16
g193
sbag5
(g6
g7
(lp6344
g5
(g6
g7
(lp6345
Veach
p6346
atp6347
Rp6348
(dp6349
g16
VDT
p6350
sbatp6351
Rp6352
(dp6353
g16
VNP
p6354
sbag5
(g6
g7
(lp6355
g5
(g6
g7
(lp6356
Vsummand
p6357
atp6358
Rp6359
(dp6360
g16
VVBD
p6361
sbag5
(g6
g7
(lp6362
g5
(g6
g7
(lp6363
Vin
p6364
atp6365
Rp6366
(dp6367
g16
VIN
p6368
sbag5
(g6
g7
(lp6369
g5
(g6
g7
(lp6370
VEquation
p6371
atp6372
Rp6373
(dp6374
g16
VNNP
p6375
sbag5
(g6
g7
(lp6376
g2244
atp6377
Rp6378
(dp6379
g16
VCD
p6380
sbatp6381
Rp6382
(dp6383
g16
VNP
p6384
sbatp6385
Rp6386
(dp6387
g16
VPP
p6388
sbatp6389
Rp6390
(dp6391
g16
VVP
p6392
sbatp6393
Rp6394
(dp6395
g16
g270
sbatp6396
Rp6397
(dp6398
g16
g270
sbag5
(g6
g7
(lp6399
g5
(g6
g7
(lp6400
Vis
p6401
atp6402
Rp6403
(dp6404
g16
VVBZ
p6405
sbag5
(g6
g7
(lp6406
g5
(g6
g7
(lp6407
g5
(g6
g7
(lp6408
Vzero
p6409
atp6410
Rp6411
(dp6412
g16
VCD
p6413
sbatp6414
Rp6415
(dp6416
g16
VNP
p6417
sbag5
(g6
g7
(lp6418
g5
(g6
g7
(lp6419
Vexcept
p6420
atp6421
Rp6422
(dp6423
g16
VIN
p6424
sbag5
(g6
g7
(lp6425
g5
(g6
g7
(lp6426
g5
(g6
g7
(lp6427
Vwhere
p6428
atp6429
Rp6430
(dp6431
g16
VWRB
p6432
sbatp6433
Rp6434
(dp6435
g16
VWHADVP
p6436
sbag5
(g6
g7
(lp6437
g5
(g6
g7
(lp6438
g5
(g6
g7
(lp6439
g5
(g6
g7
(lp6440
g5013
atp6441
Rp6442
(dp6443
g16
VNN
p6444
sbag5
(g6
g7
(lp6445
g734
atp6446
Rp6447
(dp6448
g16
VNN
p6449
sbatp6450
Rp6451
(dp6452
g16
VNP
p6453
sbag5
(g6
g7
(lp6454
g740
atp6455
Rp6456
(dp6457
g16
V''
p6458
sbag5
(g6
g7
(lp6459
g5
(g6
g7
(lp6460
V\u005c
p6461
atp6462
Rp6463
(dp6464
g16
VVB
p6465
sbag5
(g6
g7
(lp6466
g5
(g6
g7
(lp6467
g5
(g6
g7
(lp6468
Vu2032
p6469
atp6470
Rp6471
(dp6472
g16
VNNP
p6473
sbag5
(g6
g7
(lp6474
g740
atp6475
Rp6476
(dp6477
g16
VPOS
p6478
sbatp6479
Rp6480
(dp6481
g16
VNP
p6482
sbag5
(g6
g7
(lp6483
g5
(g6
g7
(lp6484
g5851
atp6485
Rp6486
(dp6487
g16
VSYM
p6488
sbag5
(g6
g7
(lp6489
g5
(g6
g7
(lp6490
g5013
atp6491
Rp6492
(dp6493
g16
VNN
p6494
sbatp6495
Rp6496
(dp6497
g16
VNP
p6498
sbatp6499
Rp6500
(dp6501
g16
VVP
p6502
sbatp6503
Rp6504
(dp6505
g16
g270
sbatp6506
Rp6507
(dp6508
g16
VVP
p6509
sbatp6510
Rp6511
(dp6512
g16
g270
sbag5
(g6
g7
(lp6513
g193
atp6514
Rp6515
(dp6516
g16
g193
sbag5
(g6
g7
(lp6517
Vand
p6518
atp6519
Rp6520
(dp6521
g16
VCC
p6522
sbag5
(g6
g7
(lp6523
g5
(g6
g7
(lp6524
g5
(g6
g7
(lp6525
Vwe
p6526
atp6527
Rp6528
(dp6529
g16
VPRP
p6530
sbatp6531
Rp6532
(dp6533
g16
VNP
p6534
sbag5
(g6
g7
(lp6535
g5
(g6
g7
(lp6536
Vrecover
p6537
atp6538
Rp6539
(dp6540
g16
VVBP
p6541
sbatp6542
Rp6543
(dp6544
g16
VVP
p6545
sbatp6546
Rp6547
(dp6548
g16
g270
sbatp6549
Rp6550
(dp6551
g16
g270
sbatp6552
Rp6553
(dp6554
g16
VSBAR
p6555
sbatp6556
Rp6557
(dp6558
g16
VPP
p6559
sbatp6560
Rp6561
(dp6562
g16
VNP
p6563
sbatp6564
Rp6565
(dp6566
g16
VVP
p6567
sbag5
(g6
g7
(lp6568
g5
(g6
g7
(lp6569
Vthe
p6570
atp6571
Rp6572
(dp6573
g16
VDT
p6574
sbag5
(g6
g7
(lp6575
Voriginal
p6576
atp6577
Rp6578
(dp6579
g16
VJJ
p6580
sbag5
(g6
g7
(lp6581
Vdirect-lookup
p6582
atp6583
Rp6584
(dp6585
g16
VJJ
p6586
sbag5
(g6
g7
(lp6587
Vmodel
p6588
atp6589
Rp6590
(dp6591
g16
VNN
p6592
sbatp6593
Rp6594
(dp6595
g16
VNP
p6596
sbatp6597
Rp6598
(dp6599
g16
VSINV
p6600
sbatp6601
Rp6602
(dp6603
g16
VROOT
p6604
sbasg411
(icmyPackage
CorE
p6605
(dp6606
g414
(lp6607
(I1
I1
tp6608
a(I1
I49
tp6609
asg418
g5
(g6
g7
(lp6610
g6121
ag6189
ag6198
ag6204
ag6394
ag6403
ag6415
ag6422
ag6434
ag6511
ag6515
ag6520
ag6532
atp6611
Rp6612
(dp6613
g16
g429
sbsbsg419
(icmyPackage
CorE
p6614
(dp6615
g414
(lp6616
(I0
I0
tp6617
a(I0
I49
tp6618
asg418
g6042
sbsg430
g1217
sg453
(lp6619
g6064
a(isxpPackage
sxpSent
p6620
(dp6621
g457
(lp6622
I17
asg459
VAs u'\u005cu0392' grows large words become more independent (and in the limit where u'\u005cu0392' = u'\u005cu221e' , each summand in Equation 1 is zero except where w u'\u005cu2032' = w , and we recover the original direct-lookup model
p6623
sg461
I4
sg446
I68
sg462
I16
sbasba(icmyPackage
CELink
p6624
(dp6625
g3
(lp6626
g5
(g6
g7
(lp6627
g5
(g6
g7
(lp6628
g5
(g6
g7
(lp6629
g5
(g6
g7
(lp6630
VThis
p6631
atp6632
Rp6633
(dp6634
g16
VDT
p6635
sbatp6636
Rp6637
(dp6638
g16
VNP
p6639
sbag5
(g6
g7
(lp6640
g5
(g6
g7
(lp6641
Vcauses
p6642
atp6643
Rp6644
(dp6645
g16
VVBZ
p6646
sbag5
(g6
g7
(lp6647
g5
(g6
g7
(lp6648
g5
(g6
g7
(lp6649
Vparsing
p6650
atp6651
Rp6652
(dp6653
g16
VVBG
p6654
sbag5
(g6
g7
(lp6655
g5
(g6
g7
(lp6656
g5
(g6
g7
(lp6657
Vto
p6658
atp6659
Rp6660
(dp6661
g16
VTO
p6662
sbag5
(g6
g7
(lp6663
g5
(g6
g7
(lp6664
Vbecome
p6665
atp6666
Rp6667
(dp6668
g16
VVB
p6669
sbag5
(g6
g7
(lp6670
g5
(g6
g7
(lp6671
Vunacceptably
p6672
atp6673
Rp6674
(dp6675
g16
VRB
p6676
sbag5
(g6
g7
(lp6677
Vslow
p6678
atp6679
Rp6680
(dp6681
g16
VJJ
p6682
sbatp6683
Rp6684
(dp6685
g16
VADJP
p6686
sbatp6687
Rp6688
(dp6689
g16
VVP
p6690
sbatp6691
Rp6692
(dp6693
g16
VVP
p6694
sbatp6695
Rp6696
(dp6697
g16
g270
sbatp6698
Rp6699
(dp6700
g16
VVP
p6701
sbatp6702
Rp6703
(dp6704
g16
g270
sbag5
(g6
g7
(lp6705
g193
atp6706
Rp6707
(dp6708
g16
g193
sbag5
(g6
g7
(lp6709
g5
(g6
g7
(lp6710
Vso
p6711
atp6712
Rp6713
(dp6714
g16
VIN
p6715
sbag5
(g6
g7
(lp6716
g5
(g6
g7
(lp6717
g5
(g6
g7
(lp6718
Van
p6719
atp6720
Rp6721
(dp6722
g16
VDT
p6723
sbag5
(g6
g7
(lp6724
Vapproximation
p6725
atp6726
Rp6727
(dp6728
g16
VNN
p6729
sbatp6730
Rp6731
(dp6732
g16
VNP
p6733
sbag5
(g6
g7
(lp6734
g5
(g6
g7
(lp6735
Vis
p6736
atp6737
Rp6738
(dp6739
g16
VVBZ
p6740
sbag5
(g6
g7
(lp6741
g5
(g6
g7
(lp6742
Vnecessary
p6743
atp6744
Rp6745
(dp6746
g16
VJJ
p6747
sbatp6748
Rp6749
(dp6750
g16
VADJP
p6751
sbatp6752
Rp6753
(dp6754
g16
VVP
p6755
sbatp6756
Rp6757
(dp6758
g16
g270
sbatp6759
Rp6760
(dp6761
g16
VSBAR
p6762
sbatp6763
Rp6764
(dp6765
g16
VVP
p6766
sbatp6767
Rp6768
(dp6769
g16
g270
sbatp6770
Rp6771
(dp6772
g16
VROOT
p6773
sbasg411
(icmyPackage
CorE
p6774
(dp6775
g414
(lp6776
(I0
I0
tp6777
a(I0
I6
tp6778
asg418
g5
(g6
g7
(lp6779
g6637
ag6644
ag6703
atp6780
Rp6781
(dp6782
g16
g429
sbsbsg419
(icmyPackage
CorE
p6783
(dp6784
g414
(lp6785
(I0
I9
tp6786
a(I0
I12
tp6787
asg418
g6757
sbsg430
(icmyPackage
pattern
p6788
(dp6789
g433
I265
sg434
I1
sg435
(lp6790
(lp6791
S'so'
p6792
aasg441
(lp6793
I1
aI1
aI1
asg443
(lp6794
S'It was not long before he saw me looking at him, and so he began to move.'
p6795
asg446
I0
sg447
(lp6796
(lp6797
S'&C'
p6798
aS'(,/;/./--)'
p6799
aS'(&AND)'
p6800
aa(lp6801
S'(-far)'
p6802
aS'(,)'
p6803
aS'&R'
p6804
aasbsg453
(lp6805
(isxpPackage
sxpSent
p6806
(dp6807
g457
(lp6808
I18
asg459
VThis causes parsing to become unacceptably slow, so an approximation is necessary
p6809
sg461
I4
sg446
I70
sg462
I17
sbasba(icmyPackage
CELink
p6810
(dp6811
g3
(lp6812
g5
(g6
g7
(lp6813
g5
(g6
g7
(lp6814
g5
(g6
g7
(lp6815
g5
(g6
g7
(lp6816
g5
(g6
g7
(lp6817
VEmpirically
p6818
atp6819
Rp6820
(dp6821
g16
VRB
p6822
sbatp6823
Rp6824
(dp6825
g16
VADVP
p6826
sbag5
(g6
g7
(lp6827
g193
atp6828
Rp6829
(dp6830
g16
g193
sbag5
(g6
g7
(lp6831
g5
(g6
g7
(lp6832
g5
(g6
g7
(lp6833
g5
(g6
g7
(lp6834
Vtaking
p6835
atp6836
Rp6837
(dp6838
g16
VVBG
p6839
sbag5
(g6
g7
(lp6840
g5
(g6
g7
(lp6841
g5
(g6
g7
(lp6842
Vk
p6843
atp6844
Rp6845
(dp6846
g16
VNN
p6847
sbatp6848
Rp6849
(dp6850
g16
VNP
p6851
sbag5
(g6
g7
(lp6852
g5
(g6
g7
(lp6853
g5851
atp6854
Rp6855
(dp6856
g16
VSYM
p6857
sbag5
(g6
g7
(lp6858
g5
(g6
g7
(lp6859
V20
p6860
atp6861
Rp6862
(dp6863
g16
VCD
p6864
sbatp6865
Rp6866
(dp6867
g16
VNP
p6868
sbatp6869
Rp6870
(dp6871
g16
VVP
p6872
sbatp6873
Rp6874
(dp6875
g16
g270
sbatp6876
Rp6877
(dp6878
g16
VVP
p6879
sbatp6880
Rp6881
(dp6882
g16
g270
sbatp6883
Rp6884
(dp6885
g16
VPRN
p6886
sbag5
(g6
g7
(lp6887
g5
(g6
g7
(lp6888
Vgives
p6889
atp6890
Rp6891
(dp6892
g16
VVBZ
p6893
sbag5
(g6
g7
(lp6894
g5
(g6
g7
(lp6895
Vadequate
p6896
atp6897
Rp6898
(dp6899
g16
VJJ
p6900
sbag5
(g6
g7
(lp6901
Vperformance
p6902
atp6903
Rp6904
(dp6905
g16
VNN
p6906
sbatp6907
Rp6908
(dp6909
g16
VNP
p6910
sbatp6911
Rp6912
(dp6913
g16
VVP
p6914
sbatp6915
Rp6916
(dp6917
g16
g270
sbag5
(g6
g7
(lp6918
g193
atp6919
Rp6920
(dp6921
g16
g193
sbag5
(g6
g7
(lp6922
Vand
p6923
atp6924
Rp6925
(dp6926
g16
VCC
p6927
sbag5
(g6
g7
(lp6928
g5
(g6
g7
(lp6929
g5
(g6
g7
(lp6930
g5
(g6
g7
(lp6931
Vincreasing
p6932
atp6933
Rp6934
(dp6935
g16
VVBG
p6936
sbag5
(g6
g7
(lp6937
g5
(g6
g7
(lp6938
Vit
p6939
atp6940
Rp6941
(dp6942
g16
VPRP
p6943
sbatp6944
Rp6945
(dp6946
g16
VNP
p6947
sbatp6948
Rp6949
(dp6950
g16
VVP
p6951
sbatp6952
Rp6953
(dp6954
g16
g270
sbag5
(g6
g7
(lp6955
g5
(g6
g7
(lp6956
Vdoes
p6957
atp6958
Rp6959
(dp6960
g16
VVBZ
p6961
sbag5
(g6
g7
(lp6962
Vnot
p6963
atp6964
Rp6965
(dp6966
g16
VRB
p6967
sbag5
(g6
g7
(lp6968
g5
(g6
g7
(lp6969
Vseem
p6970
atp6971
Rp6972
(dp6973
g16
VVB
p6974
sbag5
(g6
g7
(lp6975
g5
(g6
g7
(lp6976
g5
(g6
g7
(lp6977
Vto
p6978
atp6979
Rp6980
(dp6981
g16
VTO
p6982
sbag5
(g6
g7
(lp6983
g5
(g6
g7
(lp6984
Valter
p6985
atp6986
Rp6987
(dp6988
g16
VVB
p6989
sbag5
(g6
g7
(lp6990
g5
(g6
g7
(lp6991
g5
(g6
g7
(lp6992
Vthe
p6993
atp6994
Rp6995
(dp6996
g16
VDT
p6997
sbag5
(g6
g7
(lp6998
Vbehavior
p6999
atp7000
Rp7001
(dp7002
g16
VNN
p7003
sbatp7004
Rp7005
(dp7006
g16
VNP
p7007
sbag5
(g6
g7
(lp7008
g5
(g6
g7
(lp7009
Vof
p7010
atp7011
Rp7012
(dp7013
g16
VIN
p7014
sbag5
(g6
g7
(lp7015
g5
(g6
g7
(lp7016
Vthe
p7017
atp7018
Rp7019
(dp7020
g16
VDT
p7021
sbag5
(g6
g7
(lp7022
Vparser
p7023
atp7024
Rp7025
(dp7026
g16
VNN
p7027
sbatp7028
Rp7029
(dp7030
g16
VNP
p7031
sbatp7032
Rp7033
(dp7034
g16
VPP
p7035
sbatp7036
Rp7037
(dp7038
g16
VNP
p7039
sbatp7040
Rp7041
(dp7042
g16
VVP
p7043
sbatp7044
Rp7045
(dp7046
g16
VVP
p7047
sbatp7048
Rp7049
(dp7050
g16
g270
sbatp7051
Rp7052
(dp7053
g16
VVP
p7054
sbatp7055
Rp7056
(dp7057
g16
VVP
p7058
sbatp7059
Rp7060
(dp7061
g16
g270
sbatp7062
Rp7063
(dp7064
g16
g270
sbatp7065
Rp7066
(dp7067
g16
VROOT
p7068
sbag5
(g6
g7
(lp7069
g5
(g6
g7
(lp7070
g5
(g6
g7
(lp7071
g5
(g6
g7
(lp7072
VAs
p7073
atp7074
Rp7075
(dp7076
g16
VIN
p7077
sbag5
(g6
g7
(lp7078
g5
(g6
g7
(lp7079
Vin
p7080
atp7081
Rp7082
(dp7083
g16
VIN
p7084
sbag5
(g6
g7
(lp7085
g5
(g6
g7
(lp7086
Vthe
p7087
atp7088
Rp7089
(dp7090
g16
VDT
p7091
sbag5
(g6
g7
(lp7092
VOOV
p7093
atp7094
Rp7095
(dp7096
g16
VNNP
p7097
sbag5
(g6
g7
(lp7098
Vmodel
p7099
atp7100
Rp7101
(dp7102
g16
VNN
p7103
sbatp7104
Rp7105
(dp7106
g16
VNP
p7107
sbatp7108
Rp7109
(dp7110
g16
VPP
p7111
sbatp7112
Rp7113
(dp7114
g16
VPP
p7115
sbag5
(g6
g7
(lp7116
g193
atp7117
Rp7118
(dp7119
g16
g193
sbag5
(g6
g7
(lp7120
g5
(g6
g7
(lp7121
Vwe
p7122
atp7123
Rp7124
(dp7125
g16
VPRP
p7126
sbatp7127
Rp7128
(dp7129
g16
VNP
p7130
sbag5
(g6
g7
(lp7131
g5
(g6
g7
(lp7132
Valso
p7133
atp7134
Rp7135
(dp7136
g16
VRB
p7137
sbatp7138
Rp7139
(dp7140
g16
VADVP
p7141
sbag5
(g6
g7
(lp7142
g5
(g6
g7
(lp7143
Vneed
p7144
atp7145
Rp7146
(dp7147
g16
VVBP
p7148
sbag5
(g6
g7
(lp7149
g5
(g6
g7
(lp7150
g5
(g6
g7
(lp7151
Vto
p7152
atp7153
Rp7154
(dp7155
g16
VTO
p7156
sbag5
(g6
g7
(lp7157
g5
(g6
g7
(lp7158
Vworry
p7159
atp7160
Rp7161
(dp7162
g16
VVB
p7163
sbag5
(g6
g7
(lp7164
g5
(g6
g7
(lp7165
Vabout
p7166
atp7167
Rp7168
(dp7169
g16
VIN
p7170
sbag5
(g6
g7
(lp7171
g5
(g6
g7
(lp7172
g5
(g6
g7
(lp7173
Vhow
p7174
atp7175
Rp7176
(dp7177
g16
VWRB
p7178
sbatp7179
Rp7180
(dp7181
g16
VWHADVP
p7182
sbag5
(g6
g7
(lp7183
g5
(g6
g7
(lp7184
g5
(g6
g7
(lp7185
Vto
p7186
atp7187
Rp7188
(dp7189
g16
VTO
p7190
sbag5
(g6
g7
(lp7191
g5
(g6
g7
(lp7192
Vhandle
p7193
atp7194
Rp7195
(dp7196
g16
VVB
p7197
sbag5
(g6
g7
(lp7198
g5
(g6
g7
(lp7199
g5
(g6
g7
(lp7200
Vwords
p7201
atp7202
Rp7203
(dp7204
g16
VNNS
p7205
sbatp7206
Rp7207
(dp7208
g16
VNP
p7209
sbag5
(g6
g7
(lp7210
g5
(g6
g7
(lp7211
g5
(g6
g7
(lp7212
Vfor
p7213
atp7214
Rp7215
(dp7216
g16
VIN
p7217
sbag5
(g6
g7
(lp7218
g5
(g6
g7
(lp7219
Vwhich
p7220
atp7221
Rp7222
(dp7223
g16
VWDT
p7224
sbatp7225
Rp7226
(dp7227
g16
VWHNP
p7228
sbatp7229
Rp7230
(dp7231
g16
VWHPP
p7232
sbag5
(g6
g7
(lp7233
g5
(g6
g7
(lp7234
g5
(g6
g7
(lp7235
Vwe
p7236
atp7237
Rp7238
(dp7239
g16
VPRP
p7240
sbatp7241
Rp7242
(dp7243
g16
VNP
p7244
sbag5
(g6
g7
(lp7245
g5
(g6
g7
(lp7246
Vhave
p7247
atp7248
Rp7249
(dp7250
g16
VVBP
p7251
sbag5
(g6
g7
(lp7252
g5
(g6
g7
(lp7253
Vno
p7254
atp7255
Rp7256
(dp7257
g16
VDT
p7258
sbag5
(g6
g7
(lp7259
Vvector
p7260
atp7261
Rp7262
(dp7263
g16
VNN
p7264
sbag5
(g6
g7
(lp7265
Vrepresentation
p7266
atp7267
Rp7268
(dp7269
g16
VNN
p7270
sbatp7271
Rp7272
(dp7273
g16
VNP
p7274
sbatp7275
Rp7276
(dp7277
g16
VVP
p7278
sbatp7279
Rp7280
(dp7281
g16
g270
sbatp7282
Rp7283
(dp7284
g16
VSBAR
p7285
sbatp7286
Rp7287
(dp7288
g16
VNP
p7289
sbatp7290
Rp7291
(dp7292
g16
VVP
p7293
sbatp7294
Rp7295
(dp7296
g16
VVP
p7297
sbatp7298
Rp7299
(dp7300
g16
g270
sbatp7301
Rp7302
(dp7303
g16
VSBAR
p7304
sbatp7305
Rp7306
(dp7307
g16
VPP
p7308
sbatp7309
Rp7310
(dp7311
g16
VVP
p7312
sbatp7313
Rp7314
(dp7315
g16
VVP
p7316
sbatp7317
Rp7318
(dp7319
g16
g270
sbatp7320
Rp7321
(dp7322
g16
VVP
p7323
sbatp7324
Rp7325
(dp7326
g16
g270
sbatp7327
Rp7328
(dp7329
g16
VROOT
p7330
sbasg411
(icmyPackage
CorE
p7331
(dp7332
g414
(lp7333
(I1
I1
tp7334
a(I1
I22
tp7335
asg418
g5
(g6
g7
(lp7336
g7109
ag7118
ag7128
ag7139
ag7321
atp7337
Rp7338
(dp7339
g16
g429
sbsbsg419
(icmyPackage
CorE
p7340
(dp7341
g414
(lp7342
(I0
I12
tp7343
a(I0
I22
tp7344
asg418
g5
(g6
g7
(lp7345
g6945
ag7056
atp7346
Rp7347
(dp7348
g16
g429
sbsbsg430
g1217
sg453
(lp7349
(isxpPackage
sxpSent
p7350
(dp7351
g457
(lp7352
I19
asg459
VEmpirically, taking k = 20 gives adequate performance, and increasing it does not seem to alter the behavior of the parser
p7353
sg461
I4
sg446
I73
sg462
I17
sba(isxpPackage
sxpSent
p7354
(dp7355
g457
(lp7356
I19
asg459
VAs in the OOV model, we also need to worry about how to handle words for which we have no vector representation
p7357
sg461
I4
sg446
I74
sg462
I18
sbasba(icmyPackage
CELink
p7358
(dp7359
g3
(lp7360
g5
(g6
g7
(lp7361
g5
(g6
g7
(lp7362
g5
(g6
g7
(lp7363
g5
(g6
g7
(lp7364
VIn
p7365
atp7366
Rp7367
(dp7368
g16
VIN
p7369
sbag5
(g6
g7
(lp7370
g5
(g6
g7
(lp7371
Vthese
p7372
atp7373
Rp7374
(dp7375
g16
VDT
p7376
sbag5
(g6
g7
(lp7377
Vcases
p7378
atp7379
Rp7380
(dp7381
g16
VNNS
p7382
sbatp7383
Rp7384
(dp7385
g16
VNP
p7386
sbatp7387
Rp7388
(dp7389
g16
VPP
p7390
sbag5
(g6
g7
(lp7391
g193
atp7392
Rp7393
(dp7394
g16
g193
sbag5
(g6
g7
(lp7395
g5
(g6
g7
(lp7396
Vwe
p7397
atp7398
Rp7399
(dp7400
g16
VPRP
p7401
sbatp7402
Rp7403
(dp7404
g16
VNP
p7405
sbag5
(g6
g7
(lp7406
g5
(g6
g7
(lp7407
g5
(g6
g7
(lp7408
Vsimply
p7409
atp7410
Rp7411
(dp7412
g16
VRB
p7413
sbatp7414
Rp7415
(dp7416
g16
VADVP
p7417
sbag5
(g6
g7
(lp7418
Vtreat
p7419
atp7420
Rp7421
(dp7422
g16
VVBP
p7423
sbag5
(g6
g7
(lp7424
g5
(g6
g7
(lp7425
Vthe
p7426
atp7427
Rp7428
(dp7429
g16
VDT
p7430
sbag5
(g6
g7
(lp7431
Vwords
p7432
atp7433
Rp7434
(dp7435
g16
VNNS
p7436
sbatp7437
Rp7438
(dp7439
g16
VNP
p7440
sbag5
(g6
g7
(lp7441
g5
(g6
g7
(lp7442
Vas
p7443
atp7444
Rp7445
(dp7446
g16
VRB
p7447
sbag5
(g6
g7
(lp7448
Vif
p7449
atp7450
Rp7451
(dp7452
g16
VIN
p7453
sbag5
(g6
g7
(lp7454
g5
(g6
g7
(lp7455
g5
(g6
g7
(lp7456
Vtheir
p7457
atp7458
Rp7459
(dp7460
g16
VPRP$
p7461
sbag5
(g6
g7
(lp7462
Vvectors
p7463
atp7464
Rp7465
(dp7466
g16
VNNS
p7467
sbatp7468
Rp7469
(dp7470
g16
VNP
p7471
sbag5
(g6
g7
(lp7472
g5
(g6
g7
(lp7473
Vwere
p7474
atp7475
Rp7476
(dp7477
g16
VVBD
p7478
sbag5
(g6
g7
(lp7479
g5
(g6
g7
(lp7480
g5
(g6
g7
(lp7481
Vso
p7482
atp7483
Rp7484
(dp7485
g16
VRB
p7486
sbag5
(g6
g7
(lp7487
Vfar
p7488
atp7489
Rp7490
(dp7491
g16
VRB
p7492
sbag5
(g6
g7
(lp7493
Vaway
p7494
atp7495
Rp7496
(dp7497
g16
VRB
p7498
sbatp7499
Rp7500
(dp7501
g16
VADVP
p7502
sbag5
(g6
g7
(lp7503
g5
(g6
g7
(lp7504
Vfrom
p7505
atp7506
Rp7507
(dp7508
g16
VIN
p7509
sbag5
(g6
g7
(lp7510
g5
(g6
g7
(lp7511
Veverything
p7512
atp7513
Rp7514
(dp7515
g16
VNN
p7516
sbatp7517
Rp7518
(dp7519
g16
VNP
p7520
sbatp7521
Rp7522
(dp7523
g16
VPP
p7524
sbatp7525
Rp7526
(dp7527
g16
VADVP
p7528
sbag5
(g6
g7
(lp7529
g5
(g6
g7
(lp7530
Velse
p7531
atp7532
Rp7533
(dp7534
g16
VJJ
p7535
sbag5
(g6
g7
(lp7536
g5
(g6
g7
(lp7537
g5
(g6
g7
(lp7538
g5
(g6
g7
(lp7539
Vthey
p7540
atp7541
Rp7542
(dp7543
g16
VPRP
p7544
sbatp7545
Rp7546
(dp7547
g16
VNP
p7548
sbag5
(g6
g7
(lp7549
g5
(g6
g7
(lp7550
g5
(g6
g7
(lp7551
Vhad
p7552
atp7553
Rp7554
(dp7555
g16
VVBD
p7556
sbag5
(g6
g7
(lp7557
g5
(g6
g7
(lp7558
Vno
p7559
atp7560
Rp7561
(dp7562
g16
VDT
p7563
sbag5
(g6
g7
(lp7564
Vinfluence
p7565
atp7566
Rp7567
(dp7568
g16
VNN
p7569
sbatp7570
Rp7571
(dp7572
g16
VNP
p7573
sbatp7574
Rp7575
(dp7576
g16
VVP
p7577
sbag5
(g6
g7
(lp7578
g193
atp7579
Rp7580
(dp7581
g16
g193
sbag5
(g6
g7
(lp7582
Vand
p7583
atp7584
Rp7585
(dp7586
g16
VCC
p7587
sbag5
(g6
g7
(lp7588
g5
(g6
g7
(lp7589
Vreport
p7590
atp7591
Rp7592
(dp7593
g16
VVBP
p7594
sbag5
(g6
g7
(lp7595
g5
(g6
g7
(lp7596
Vtheir
p7597
atp7598
Rp7599
(dp7600
g16
VPRP$
p7601
sbag5
(g6
g7
(lp7602
Vweights
p7603
atp7604
Rp7605
(dp7606
g16
VNNS
p7607
sbatp7608
Rp7609
(dp7610
g16
VNP
p7611
sbag5
(g6
g7
(lp7612
g5
(g6
g7
(lp7613
Vas
p7614
atp7615
Rp7616
(dp7617
g16
VIN
p7618
sbag5
(g6
g7
(lp7619
g5
(g6
g7
(lp7620
g5
(g6
g7
(lp7621
g5
(g6
g7
(lp7622
Vp
p7623
atp7624
Rp7625
(dp7626
g16
VNN
p7627
sbatp7628
Rp7629
(dp7630
g16
VNP
p7631
sbag5
(g6
g7
(lp7632
g5
(g6
g7
(lp7633
V-LRB-
p7634
atp7635
Rp7636
(dp7637
g16
V-LRB-
p7638
sbag5
(g6
g7
(lp7639
g5
(g6
g7
(lp7640
g5013
atp7641
Rp7642
(dp7643
g16
VNN
p7644
sbag5
(g6
g7
(lp7645
g3006
atp7646
Rp7647
(dp7648
g16
VNN
p7649
sbatp7650
Rp7651
(dp7652
g16
VNP
p7653
sbag5
(g6
g7
(lp7654
V-RRB-
p7655
atp7656
Rp7657
(dp7658
g16
V-RRB-
p7659
sbatp7660
Rp7661
(dp7662
g16
VPRN
p7663
sbatp7664
Rp7665
(dp7666
g16
VNP
p7667
sbag5
(g6
g7
(lp7668
g5
(g6
g7
(lp7669
g5851
atp7670
Rp7671
(dp7672
g16
VSYM
p7673
sbag5
(g6
g7
(lp7674
g5
(g6
g7
(lp7675
g734
atp7676
Rp7677
(dp7678
g16
VNN
p7679
sbatp7680
Rp7681
(dp7682
g16
VNP
p7683
sbatp7684
Rp7685
(dp7686
g16
VVP
p7687
sbatp7688
Rp7689
(dp7690
g16
g270
sbatp7691
Rp7692
(dp7693
g16
VSBAR
p7694
sbatp7695
Rp7696
(dp7697
g16
VVP
p7698
sbatp7699
Rp7700
(dp7701
g16
VVP
p7702
sbatp7703
Rp7704
(dp7705
g16
g270
sbatp7706
Rp7707
(dp7708
g16
VSBAR
p7709
sbatp7710
Rp7711
(dp7712
g16
VADJP
p7713
sbag5
(g6
g7
(lp7714
g740
atp7715
Rp7716
(dp7717
g16
V''
p7718
sbag5
(g6
g7
(lp7719
g5
(g6
g7
(lp7720
V\u005c
p7721
atp7722
Rp7723
(dp7724
g16
VVBG
p7725
sbag5
(g6
g7
(lp7726
g5
(g6
g7
(lp7727
g5
(g6
g7
(lp7728
Vu0391
p7729
atp7730
Rp7731
(dp7732
g16
VNNP
p7733
sbag5
(g6
g7
(lp7734
g740
atp7735
Rp7736
(dp7737
g16
VPOS
p7738
sbatp7739
Rp7740
(dp7741
g16
VNP
p7742
sbag5
(g6
g7
(lp7743
g5013
atp7744
Rp7745
(dp7746
g16
VNN
p7747
sbatp7748
Rp7749
(dp7750
g16
VNP
p7751
sbatp7752
Rp7753
(dp7754
g16
VVP
p7755
sbatp7756
Rp7757
(dp7758
g16
VVP
p7759
sbatp7760
Rp7761
(dp7762
g16
g270
sbatp7763
Rp7764
(dp7765
g16
VSBAR
p7766
sbatp7767
Rp7768
(dp7769
g16
VVP
p7770
sbatp7771
Rp7772
(dp7773
g16
g270
sbatp7774
Rp7775
(dp7776
g16
VROOT
p7777
sbasg411
(icmyPackage
CorE
p7778
(dp7779
g414
(lp7780
(I0
I11
tp7781
a(I0
I41
tp7782
asg418
g7761
sbsg419
(icmyPackage
CorE
p7783
(dp7784
g414
(lp7785
(I0
I0
tp7786
a(I0
I9
tp7787
asg418
g5
(g6
g7
(lp7788
g7388
ag7393
ag7403
ag7415
ag7421
ag7438
ag7445
atp7789
Rp7790
(dp7791
g16
g429
sbsbsg430
(icmyPackage
pattern
p7792
(dp7793
g433
I0
sg434
I0
sg435
(lp7794
(lp7795
S'if'
p7796
aasg441
(lp7797
I1
aI1
aI1
asg443
(lp7798
S'An effective knowledge flow network enables a research team to be very powerful in generating new knowledge if every node can innovate and output new knowledge to appropriate members.'
p7799
asg446
I14
sg447
(lp7800
(lp7801
S'&R@Complete@'
p7802
aa(lp7803
S'&C@Complete@'
p7804
aasbsg453
(lp7805
(isxpPackage
sxpSent
p7806
(dp7807
g457
(lp7808
I20
asg459
VIn these cases, we simply treat the words as if their vectors were so far away from everything else they had no influence, and report their weights as p ( w t ) = u'\u005cu0391' w
p7809
sg461
I4
sg446
I75
sg462
I18
sbasba(icmyPackage
CELink
p7810
(dp7811
g3
(lp7812
g5
(g6
g7
(lp7813
g5
(g6
g7
(lp7814
g5
(g6
g7
(lp7815
g5
(g6
g7
(lp7816
VThis
p7817
atp7818
Rp7819
(dp7820
g16
VDT
p7821
sbatp7822
Rp7823
(dp7824
g16
VNP
p7825
sbag5
(g6
g7
(lp7826
g5
(g6
g7
(lp7827
Vensures
p7828
atp7829
Rp7830
(dp7831
g16
VVBZ
p7832
sbag5
(g6
g7
(lp7833
g5
(g6
g7
(lp7834
Vthat
p7835
atp7836
Rp7837
(dp7838
g16
VIN
p7839
sbag5
(g6
g7
(lp7840
g5
(g6
g7
(lp7841
g5
(g6
g7
(lp7842
Vour
p7843
atp7844
Rp7845
(dp7846
g16
VPRP$
p7847
sbag5
(g6
g7
(lp7848
Vmodel
p7849
atp7850
Rp7851
(dp7852
g16
VNN
p7853
sbatp7854
Rp7855
(dp7856
g16
VNP
p7857
sbag5
(g6
g7
(lp7858
g5
(g6
g7
(lp7859
Vcontinues
p7860
atp7861
Rp7862
(dp7863
g16
VVBZ
p7864
sbag5
(g6
g7
(lp7865
g5
(g6
g7
(lp7866
g5
(g6
g7
(lp7867
Vto
p7868
atp7869
Rp7870
(dp7871
g16
VTO
p7872
sbag5
(g6
g7
(lp7873
g5
(g6
g7
(lp7874
Vinclude
p7875
atp7876
Rp7877
(dp7878
g16
VVB
p7879
sbag5
(g6
g7
(lp7880
g5
(g6
g7
(lp7881
Vthe
p7882
atp7883
Rp7884
(dp7885
g16
VDT
p7886
sbag5
(g6
g7
(lp7887
Voriginal
p7888
atp7889
Rp7890
(dp7891
g16
VJJ
p7892
sbag5
(g6
g7
(lp7893
VBerkeley
p7894
atp7895
Rp7896
(dp7897
g16
VNNP
p7898
sbag5
(g6
g7
(lp7899
Vparser
p7900
atp7901
Rp7902
(dp7903
g16
VNN
p7904
sbag5
(g6
g7
(lp7905
Vmodel
p7906
atp7907
Rp7908
(dp7909
g16
VNN
p7910
sbatp7911
Rp7912
(dp7913
g16
VNP
p7914
sbag5
(g6
g7
(lp7915
g5
(g6
g7
(lp7916
Vas
p7917
atp7918
Rp7919
(dp7920
g16
VIN
p7921
sbag5
(g6
g7
(lp7922
g5
(g6
g7
(lp7923
g104
atp7924
Rp7925
(dp7926
g16
VDT
p7927
sbag5
(g6
g7
(lp7928
Vlimiting
p7929
atp7930
Rp7931
(dp7932
g16
VJJ
p7933
sbag5
(g6
g7
(lp7934
Vcase
p7935
atp7936
Rp7937
(dp7938
g16
VNN
p7939
sbatp7940
Rp7941
(dp7942
g16
VNP
p7943
sbatp7944
Rp7945
(dp7946
g16
VPP
p7947
sbatp7948
Rp7949
(dp7950
g16
VVP
p7951
sbatp7952
Rp7953
(dp7954
g16
VVP
p7955
sbatp7956
Rp7957
(dp7958
g16
g270
sbatp7959
Rp7960
(dp7961
g16
VVP
p7962
sbatp7963
Rp7964
(dp7965
g16
g270
sbatp7966
Rp7967
(dp7968
g16
VSBAR
p7969
sbatp7970
Rp7971
(dp7972
g16
VVP
p7973
sbatp7974
Rp7975
(dp7976
g16
g270
sbatp7977
Rp7978
(dp7979
g16
VROOT
p7980
sbag5
(g6
g7
(lp7981
g5
(g6
g7
(lp7982
g5
(g6
g7
(lp7983
g5
(g6
g7
(lp7984
g5
(g6
g7
(lp7985
VTo
p7986
atp7987
Rp7988
(dp7989
g16
VTO
p7990
sbag5
(g6
g7
(lp7991
g5
(g6
g7
(lp7992
Vevaluate
p7993
atp7994
Rp7995
(dp7996
g16
VVB
p7997
sbag5
(g6
g7
(lp7998
g5
(g6
g7
(lp7999
Vthe
p8000
atp8001
Rp8002
(dp8003
g16
VDT
p8004
sbag5
(g6
g7
(lp8005
Vembedding
p8006
atp8007
Rp8008
(dp8009
g16
VVBG
p8010
sbag5
(g6
g7
(lp8011
Vstructure
p8012
atp8013
Rp8014
(dp8015
g16
VNN
p8016
sbag5
(g6
g7
(lp8017
Vhypothesis
p8018
atp8019
Rp8020
(dp8021
g16
VNNS
p8022
sbatp8023
Rp8024
(dp8025
g16
VNP
p8026
sbatp8027
Rp8028
(dp8029
g16
VVP
p8030
sbatp8031
Rp8032
(dp8033
g16
VVP
p8034
sbatp8035
Rp8036
(dp8037
g16
g270
sbag5
(g6
g7
(lp8038
g193
atp8039
Rp8040
(dp8041
g16
g193
sbag5
(g6
g7
(lp8042
g5
(g6
g7
(lp8043
Vwe
p8044
atp8045
Rp8046
(dp8047
g16
VPRP
p8048
sbatp8049
Rp8050
(dp8051
g16
VNP
p8052
sbag5
(g6
g7
(lp8053
g5
(g6
g7
(lp8054
Vtake
p8055
atp8056
Rp8057
(dp8058
g16
VVBP
p8059
sbag5
(g6
g7
(lp8060
g5
(g6
g7
(lp8061
g5
(g6
g7
(lp8062
g5
(g6
g7
(lp8063
Vthe
p8064
atp8065
Rp8066
(dp8067
g16
VDT
p8068
sbag5
(g6
g7
(lp8069
VMaryland
p8070
atp8071
Rp8072
(dp8073
g16
VNNP
p8074
sbatp8075
Rp8076
(dp8077
g16
VNP
p8078
sbag5
(g6
g7
(lp8079
g5
(g6
g7
(lp8080
g5
(g6
g7
(lp8081
Vfeatured
p8082
atp8083
Rp8084
(dp8085
g16
VVBD
p8086
sbag5
(g6
g7
(lp8087
g5
(g6
g7
(lp8088
Vparser
p8089
atp8090
Rp8091
(dp8092
g16
VNN
p8093
sbatp8094
Rp8095
(dp8096
g16
VNP
p8097
sbatp8098
Rp8099
(dp8100
g16
VVP
p8101
sbag5
(g6
g7
(lp8102
g193
atp8103
Rp8104
(dp8105
g16
g193
sbag5
(g6
g7
(lp8106
Vand
p8107
atp8108
Rp8109
(dp8110
g16
VCC
p8111
sbag5
(g6
g7
(lp8112
g5
(g6
g7
(lp8113
Vreplace
p8114
atp8115
Rp8116
(dp8117
g16
VVB
p8118
sbag5
(g6
g7
(lp8119
g5
(g6
g7
(lp8120
g5
(g6
g7
(lp8121
Vthe
p8122
atp8123
Rp8124
(dp8125
g16
VDT
p8126
sbag5
(g6
g7
(lp8127
Vset
p8128
atp8129
Rp8130
(dp8131
g16
VNN
p8132
sbatp8133
Rp8134
(dp8135
g16
VNP
p8136
sbag5
(g6
g7
(lp8137
g5
(g6
g7
(lp8138
Vof
p8139
atp8140
Rp8141
(dp8142
g16
VIN
p8143
sbag5
(g6
g7
(lp8144
g5
(g6
g7
(lp8145
g5
(g6
g7
(lp8146
Vlexical
p8147
atp8148
Rp8149
(dp8150
g16
VJJ
p8151
sbag5
(g6
g7
(lp8152
Vtemplate
p8153
atp8154
Rp8155
(dp8156
g16
VNN
p8157
sbag5
(g6
g7
(lp8158
Vfeatures
p8159
atp8160
Rp8161
(dp8162
g16
VNNS
p8163
sbatp8164
Rp8165
(dp8166
g16
VNP
p8167
sbag5
(g6
g7
(lp8168
g5
(g6
g7
(lp8169
Vused
p8170
atp8171
Rp8172
(dp8173
g16
VVBN
p8174
sbag5
(g6
g7
(lp8175
g5
(g6
g7
(lp8176
Vby
p8177
atp8178
Rp8179
(dp8180
g16
VIN
p8181
sbag5
(g6
g7
(lp8182
g5
(g6
g7
(lp8183
g5
(g6
g7
(lp8184
Vthat
p8185
atp8186
Rp8187
(dp8188
g16
VDT
p8189
sbag5
(g6
g7
(lp8190
Vparser
p8191
atp8192
Rp8193
(dp8194
g16
VNN
p8195
sbatp8196
Rp8197
(dp8198
g16
VNP
p8199
sbag5
(g6
g7
(lp8200
g5
(g6
g7
(lp8201
Vwith
p8202
atp8203
Rp8204
(dp8205
g16
VIN
p8206
sbag5
(g6
g7
(lp8207
g5
(g6
g7
(lp8208
g5
(g6
g7
(lp8209
g104
atp8210
Rp8211
(dp8212
g16
VDT
p8213
sbag5
(g6
g7
(lp8214
Vset
p8215
atp8216
Rp8217
(dp8218
g16
VNN
p8219
sbatp8220
Rp8221
(dp8222
g16
VNP
p8223
sbag5
(g6
g7
(lp8224
g5
(g6
g7
(lp8225
Vof
p8226
atp8227
Rp8228
(dp8229
g16
VIN
p8230
sbag5
(g6
g7
(lp8231
g5
(g6
g7
(lp8232
Vindicator
p8233
atp8234
Rp8235
(dp8236
g16
VNN
p8237
sbag5
(g6
g7
(lp8238
Vfeatures
p8239
atp8240
Rp8241
(dp8242
g16
VNNS
p8243
sbatp8244
Rp8245
(dp8246
g16
VNP
p8247
sbatp8248
Rp8249
(dp8250
g16
VPP
p8251
sbatp8252
Rp8253
(dp8254
g16
VNP
p8255
sbatp8256
Rp8257
(dp8258
g16
VPP
p8259
sbatp8260
Rp8261
(dp8262
g16
VNP
p8263
sbatp8264
Rp8265
(dp8266
g16
VPP
p8267
sbag5
(g6
g7
(lp8268
g5
(g6
g7
(lp8269
Von
p8270
atp8271
Rp8272
(dp8273
g16
VIN
p8274
sbag5
(g6
g7
(lp8275
g5
(g6
g7
(lp8276
g5
(g6
g7
(lp8277
g104
atp8278
Rp8279
(dp8280
g16
VDT
p8281
sbag5
(g6
g7
(lp8282
Vdiscretized
p8283
atp8284
Rp8285
(dp8286
g16
VJJ
p8287
sbag5
(g6
g7
(lp8288
Vversion
p8289
atp8290
Rp8291
(dp8292
g16
VNN
p8293
sbatp8294
Rp8295
(dp8296
g16
VNP
p8297
sbag5
(g6
g7
(lp8298
g5
(g6
g7
(lp8299
Vof
p8300
atp8301
Rp8302
(dp8303
g16
VIN
p8304
sbag5
(g6
g7
(lp8305
g5
(g6
g7
(lp8306
Vthe
p8307
atp8308
Rp8309
(dp8310
g16
VDT
p8311
sbag5
(g6
g7
(lp8312
Vembedding
p8313
atp8314
Rp8315
(dp8316
g16
VNN
p8317
sbatp8318
Rp8319
(dp8320
g16
VNP
p8321
sbatp8322
Rp8323
(dp8324
g16
VPP
p8325
sbatp8326
Rp8327
(dp8328
g16
VNP
p8329
sbatp8330
Rp8331
(dp8332
g16
VPP
p8333
sbatp8334
Rp8335
(dp8336
g16
VVP
p8337
sbatp8338
Rp8339
(dp8340
g16
VNP
p8341
sbatp8342
Rp8343
(dp8344
g16
VPP
p8345
sbatp8346
Rp8347
(dp8348
g16
VNP
p8349
sbatp8350
Rp8351
(dp8352
g16
VVP
p8353
sbatp8354
Rp8355
(dp8356
g16
VVP
p8357
sbatp8358
Rp8359
(dp8360
g16
g270
sbatp8361
Rp8362
(dp8363
g16
VSBAR
p8364
sbatp8365
Rp8366
(dp8367
g16
VVP
p8368
sbatp8369
Rp8370
(dp8371
g16
g270
sbatp8372
Rp8373
(dp8374
g16
VROOT
p8375
sbasg411
(icmyPackage
CorE
p8376
(dp8377
g414
(lp8378
(I0
I14
tp8379
a(I1
I37
tp8380
asg418
g5
(g6
g7
(lp8381
g7941
ag8036
ag8040
ag8050
ag8057
ag8076
ag8099
ag8104
ag8109
ag8116
ag8134
ag8141
ag8165
ag8172
ag8265
ag8272
ag8295
ag8302
ag8309
atp8382
Rp8383
(dp8384
g16
g429
sbsbsg419
(icmyPackage
CorE
p8385
(dp8386
g414
(lp8387
(I0
I0
tp8388
a(I0
I12
tp8389
asg418
g5
(g6
g7
(lp8390
g7823
ag7830
ag7837
ag7855
ag7862
ag7870
ag7877
ag7912
atp8391
Rp8392
(dp8393
g16
g429
sbsbsg430
g1217
sg453
(lp8394
(isxpPackage
sxpSent
p8395
(dp8396
g457
(lp8397
I21
asg459
VThis ensures that our model continues to include the original Berkeley parser model as a limiting case
p8398
sg461
I4
sg446
I76
sg462
I18
sba(isxpPackage
sxpSent
p8399
(dp8400
g457
(lp8401
I21
asg459
VTo evaluate the embedding structure hypothesis, we take the Maryland featured parser, and replace the set of lexical template features used by that parser with a set of indicator features on a discretized version of the embedding
p8402
sg461
I4
sg446
I77
sg462
I19
sbasba(icmyPackage
CELink
p8403
(dp8404
g3
(lp8405
g5
(g6
g7
(lp8406
g5
(g6
g7
(lp8407
g5
(g6
g7
(lp8408
g5
(g6
g7
(lp8409
g5
(g6
g7
(lp8410
g5
(g6
g7
(lp8411
VThe
p8412
atp8413
Rp8414
(dp8415
g16
VDT
p8416
sbag5
(g6
g7
(lp8417
Vextensions
p8418
atp8419
Rp8420
(dp8421
g16
VNNS
p8422
sbatp8423
Rp8424
(dp8425
g16
VNP
p8426
sbag5
(g6
g7
(lp8427
g5
(g6
g7
(lp8428
g5
(g6
g7
(lp8429
g5
(g6
g7
(lp8430
Vwe
p8431
atp8432
Rp8433
(dp8434
g16
VPRP
p8435
sbatp8436
Rp8437
(dp8438
g16
VNP
p8439
sbag5
(g6
g7
(lp8440
g5
(g6
g7
(lp8441
Vpropose
p8442
atp8443
Rp8444
(dp8445
g16
VVBP
p8446
sbatp8447
Rp8448
(dp8449
g16
VVP
p8450
sbatp8451
Rp8452
(dp8453
g16
g270
sbatp8454
Rp8455
(dp8456
g16
VSBAR
p8457
sbatp8458
Rp8459
(dp8460
g16
VNP
p8461
sbag5
(g6
g7
(lp8462
g5
(g6
g7
(lp8463
Vare
p8464
atp8465
Rp8466
(dp8467
g16
VVBP
p8468
sbag5
(g6
g7
(lp8469
g5
(g6
g7
(lp8470
Vcertainly
p8471
atp8472
Rp8473
(dp8474
g16
VRB
p8475
sbatp8476
Rp8477
(dp8478
g16
VADVP
p8479
sbag5
(g6
g7
(lp8480
Vnot
p8481
atp8482
Rp8483
(dp8484
g16
VRB
p8485
sbag5
(g6
g7
(lp8486
g5
(g6
g7
(lp8487
Vthe
p8488
atp8489
Rp8490
(dp8491
g16
VDT
p8492
sbag5
(g6
g7
(lp8493
Vonly
p8494
atp8495
Rp8496
(dp8497
g16
VJJ
p8498
sbag5
(g6
g7
(lp8499
Vway
p8500
atp8501
Rp8502
(dp8503
g16
VNN
p8504
sbatp8505
Rp8506
(dp8507
g16
VNP
p8508
sbag5
(g6
g7
(lp8509
g5
(g6
g7
(lp8510
g5
(g6
g7
(lp8511
Vto
p8512
atp8513
Rp8514
(dp8515
g16
VTO
p8516
sbag5
(g6
g7
(lp8517
g5
(g6
g7
(lp8518
Vtarget
p8519
atp8520
Rp8521
(dp8522
g16
VVB
p8523
sbag5
(g6
g7
(lp8524
g5
(g6
g7
(lp8525
g5
(g6
g7
(lp8526
Vthe
p8527
atp8528
Rp8529
(dp8530
g16
VDT
p8531
sbag5
(g6
g7
(lp8532
Vhypotheses
p8533
atp8534
Rp8535
(dp8536
g16
VNNS
p8537
sbatp8538
Rp8539
(dp8540
g16
VNP
p8541
sbag5
(g6
g7
(lp8542
g5
(g6
g7
(lp8543
Vdescribed
p8544
atp8545
Rp8546
(dp8547
g16
VVBN
p8548
sbag5
(g6
g7
(lp8549
g5
(g6
g7
(lp8550
Vabove
p8551
atp8552
Rp8553
(dp8554
g16
VIN
p8555
sbatp8556
Rp8557
(dp8558
g16
VPP
p8559
sbatp8560
Rp8561
(dp8562
g16
VVP
p8563
sbatp8564
Rp8565
(dp8566
g16
VNP
p8567
sbatp8568
Rp8569
(dp8570
g16
VVP
p8571
sbatp8572
Rp8573
(dp8574
g16
VVP
p8575
sbatp8576
Rp8577
(dp8578
g16
g270
sbatp8579
Rp8580
(dp8581
g16
VVP
p8582
sbatp8583
Rp8584
(dp8585
g16
g270
sbag5
(g6
g7
(lp8586
g193
atp8587
Rp8588
(dp8589
g16
g193
sbag5
(g6
g7
(lp8590
Vbut
p8591
atp8592
Rp8593
(dp8594
g16
VCC
p8595
sbag5
(g6
g7
(lp8596
g5
(g6
g7
(lp8597
g5
(g6
g7
(lp8598
Vthey
p8599
atp8600
Rp8601
(dp8602
g16
VPRP
p8603
sbatp8604
Rp8605
(dp8606
g16
VNP
p8607
sbag5
(g6
g7
(lp8608
g5
(g6
g7
(lp8609
Vhave
p8610
atp8611
Rp8612
(dp8613
g16
VVBP
p8614
sbag5
(g6
g7
(lp8615
g5
(g6
g7
(lp8616
g5
(g6
g7
(lp8617
Vthe
p8618
atp8619
Rp8620
(dp8621
g16
VDT
p8622
sbag5
(g6
g7
(lp8623
Vadvantage
p8624
atp8625
Rp8626
(dp8627
g16
VNN
p8628
sbatp8629
Rp8630
(dp8631
g16
VNP
p8632
sbag5
(g6
g7
(lp8633
g5
(g6
g7
(lp8634
Vof
p8635
atp8636
Rp8637
(dp8638
g16
VIN
p8639
sbag5
(g6
g7
(lp8640
g5
(g6
g7
(lp8641
g5
(g6
g7
(lp8642
Vbeing
p8643
atp8644
Rp8645
(dp8646
g16
VVBG
p8647
sbag5
(g6
g7
(lp8648
g5
(g6
g7
(lp8649
g5
(g6
g7
(lp8650
Vminimal
p8651
atp8652
Rp8653
(dp8654
g16
VJJ
p8655
sbatp8656
Rp8657
(dp8658
g16
VADJP
p8659
sbag5
(g6
g7
(lp8660
Vand
p8661
atp8662
Rp8663
(dp8664
g16
VCC
p8665
sbag5
(g6
g7
(lp8666
g5
(g6
g7
(lp8667
Vstraightforwardly
p8668
atp8669
Rp8670
(dp8671
g16
VRB
p8672
sbag5
(g6
g7
(lp8673
Vinterpretable
p8674
atp8675
Rp8676
(dp8677
g16
VJJ
p8678
sbatp8679
Rp8680
(dp8681
g16
VADJP
p8682
sbatp8683
Rp8684
(dp8685
g16
VADJP
p8686
sbatp8687
Rp8688
(dp8689
g16
VVP
p8690
sbatp8691
Rp8692
(dp8693
g16
g270
sbatp8694
Rp8695
(dp8696
g16
VPP
p8697
sbatp8698
Rp8699
(dp8700
g16
VNP
p8701
sbatp8702
Rp8703
(dp8704
g16
VVP
p8705
sbatp8706
Rp8707
(dp8708
g16
g270
sbag5
(g6
g7
(lp8709
g193
atp8710
Rp8711
(dp8712
g16
g193
sbag5
(g6
g7
(lp8713
Vand
p8714
atp8715
Rp8716
(dp8717
g16
VCC
p8718
sbag5
(g6
g7
(lp8719
g5
(g6
g7
(lp8720
g5
(g6
g7
(lp8721
Veach
p8722
atp8723
Rp8724
(dp8725
g16
VDT
p8726
sbatp8727
Rp8728
(dp8729
g16
VNP
p8730
sbag5
(g6
g7
(lp8731
g5
(g6
g7
(lp8732
Vcan
p8733
atp8734
Rp8735
(dp8736
g16
VMD
p8737
sbag5
(g6
g7
(lp8738
g5
(g6
g7
(lp8739
Vbe
p8740
atp8741
Rp8742
(dp8743
g16
VVB
p8744
sbag5
(g6
g7
(lp8745
g5
(g6
g7
(lp8746
Vreasonably
p8747
atp8748
Rp8749
(dp8750
g16
VRB
p8751
sbag5
(g6
g7
(lp8752
Vexpected
p8753
atp8754
Rp8755
(dp8756
g16
VVBN
p8757
sbag5
(g6
g7
(lp8758
g5
(g6
g7
(lp8759
g5
(g6
g7
(lp8760
Vto
p8761
atp8762
Rp8763
(dp8764
g16
VTO
p8765
sbag5
(g6
g7
(lp8766
g5
(g6
g7
(lp8767
Vimprove
p8768
atp8769
Rp8770
(dp8771
g16
VVB
p8772
sbag5
(g6
g7
(lp8773
g5
(g6
g7
(lp8774
Vparser
p8775
atp8776
Rp8777
(dp8778
g16
VNN
p8779
sbag5
(g6
g7
(lp8780
Vperformance
p8781
atp8782
Rp8783
(dp8784
g16
VNN
p8785
sbatp8786
Rp8787
(dp8788
g16
VNP
p8789
sbag5
(g6
g7
(lp8790
g5
(g6
g7
(lp8791
Vif
p8792
atp8793
Rp8794
(dp8795
g16
VIN
p8796
sbag5
(g6
g7
(lp8797
g5
(g6
g7
(lp8798
g5
(g6
g7
(lp8799
Vits
p8800
atp8801
Rp8802
(dp8803
g16
VPRP$
p8804
sbag5
(g6
g7
(lp8805
Vcorresponding
p8806
atp8807
Rp8808
(dp8809
g16
VJJ
p8810
sbag5
(g6
g7
(lp8811
Vhypothesis
p8812
atp8813
Rp8814
(dp8815
g16
VNNS
p8816
sbatp8817
Rp8818
(dp8819
g16
VNP
p8820
sbag5
(g6
g7
(lp8821
g5
(g6
g7
(lp8822
Vis
p8823
atp8824
Rp8825
(dp8826
g16
VVBZ
p8827
sbag5
(g6
g7
(lp8828
g5
(g6
g7
(lp8829
Vtrue
p8830
atp8831
Rp8832
(dp8833
g16
VJJ
p8834
sbatp8835
Rp8836
(dp8837
g16
VADJP
p8838
sbatp8839
Rp8840
(dp8841
g16
VVP
p8842
sbatp8843
Rp8844
(dp8845
g16
g270
sbatp8846
Rp8847
(dp8848
g16
VSBAR
p8849
sbatp8850
Rp8851
(dp8852
g16
VVP
p8853
sbatp8854
Rp8855
(dp8856
g16
VVP
p8857
sbatp8858
Rp8859
(dp8860
g16
g270
sbatp8861
Rp8862
(dp8863
g16
VADJP
p8864
sbatp8865
Rp8866
(dp8867
g16
VVP
p8868
sbatp8869
Rp8870
(dp8871
g16
VVP
p8872
sbatp8873
Rp8874
(dp8875
g16
g270
sbatp8876
Rp8877
(dp8878
g16
g270
sbatp8879
Rp8880
(dp8881
g16
VROOT
p8882
sbasg411
(icmyPackage
CorE
p8883
(dp8884
g414
(lp8885
(I0
I40
tp8886
a(I0
I44
tp8887
asg418
g8844
sbsg419
(icmyPackage
CorE
p8888
(dp8889
g414
(lp8890
(I0
I30
tp8891
a(I0
I38
tp8892
asg418
g5
(g6
g7
(lp8893
g8728
ag8735
ag8742
ag8749
ag8755
ag8763
ag8770
ag8787
atp8894
Rp8895
(dp8896
g16
g429
sbsbsg430
g7792
sg453
(lp8897
(isxpPackage
sxpSent
p8898
(dp8899
g457
(lp8900
I22
asg459
VThe extensions we propose are certainly not the only way to target the hypotheses described above, but they have the advantage of being minimal and straightforwardly interpretable, and each can be reasonably expected to improve parser performance if its corresponding hypothesis is true
p8901
sg461
I4
sg446
I80
sg462
I20
sbasba(icmyPackage
CELink
p8902
(dp8903
g3
(lp8904
g5
(g6
g7
(lp8905
g5
(g6
g7
(lp8906
g5
(g6
g7
(lp8907
g5
(g6
g7
(lp8908
g5
(g6
g7
(lp8909
VWe
p8910
atp8911
Rp8912
(dp8913
g16
VPRP
p8914
sbatp8915
Rp8916
(dp8917
g16
VNP
p8918
sbag5
(g6
g7
(lp8919
g5
(g6
g7
(lp8920
Vuse
p8921
atp8922
Rp8923
(dp8924
g16
VVBP
p8925
sbag5
(g6
g7
(lp8926
g5
(g6
g7
(lp8927
g5
(g6
g7
(lp8928
Vthe
p8929
atp8930
Rp8931
(dp8932
g16
VDT
p8933
sbag5
(g6
g7
(lp8934
VMaryland
p8935
atp8936
Rp8937
(dp8938
g16
VNNP
p8939
sbag5
(g6
g7
(lp8940
Vimplementation
p8941
atp8942
Rp8943
(dp8944
g16
VNN
p8945
sbatp8946
Rp8947
(dp8948
g16
VNP
p8949
sbag5
(g6
g7
(lp8950
g5
(g6
g7
(lp8951
Vof
p8952
atp8953
Rp8954
(dp8955
g16
VIN
p8956
sbag5
(g6
g7
(lp8957
g5
(g6
g7
(lp8958
Vthe
p8959
atp8960
Rp8961
(dp8962
g16
VDT
p8963
sbag5
(g6
g7
(lp8964
VBerkeley
p8965
atp8966
Rp8967
(dp8968
g16
VNNP
p8969
sbag5
(g6
g7
(lp8970
Vparser
p8971
atp8972
Rp8973
(dp8974
g16
VNN
p8975
sbatp8976
Rp8977
(dp8978
g16
VNP
p8979
sbatp8980
Rp8981
(dp8982
g16
VPP
p8983
sbatp8984
Rp8985
(dp8986
g16
VNP
p8987
sbag5
(g6
g7
(lp8988
g5
(g6
g7
(lp8989
Vas
p8990
atp8991
Rp8992
(dp8993
g16
VIN
p8994
sbag5
(g6
g7
(lp8995
g5
(g6
g7
(lp8996
g5
(g6
g7
(lp8997
Vour
p8998
atp8999
Rp9000
(dp9001
g16
VPRP$
p9002
sbag5
(g6
g7
(lp9003
Vbaseline
p9004
atp9005
Rp9006
(dp9007
g16
VNN
p9008
sbatp9009
Rp9010
(dp9011
g16
VNP
p9012
sbag5
(g6
g7
(lp9013
g5
(g6
g7
(lp9014
Vfor
p9015
atp9016
Rp9017
(dp9018
g16
VIN
p9019
sbag5
(g6
g7
(lp9020
g5
(g6
g7
(lp9021
Vthe
p9022
atp9023
Rp9024
(dp9025
g16
VDT
p9026
sbag5
(g6
g7
(lp9027
Vkernel-smoothed
p9028
atp9029
Rp9030
(dp9031
g16
VJJ
p9032
sbag5
(g6
g7
(lp9033
Vlexicon
p9034
atp9035
Rp9036
(dp9037
g16
VNN
p9038
sbatp9039
Rp9040
(dp9041
g16
VNP
p9042
sbatp9043
Rp9044
(dp9045
g16
VPP
p9046
sbatp9047
Rp9048
(dp9049
g16
VNP
p9050
sbatp9051
Rp9052
(dp9053
g16
VPP
p9054
sbatp9055
Rp9056
(dp9057
g16
VVP
p9058
sbatp9059
Rp9060
(dp9061
g16
g270
sbag5
(g6
g7
(lp9062
g193
atp9063
Rp9064
(dp9065
g16
g193
sbag5
(g6
g7
(lp9066
Vand
p9067
atp9068
Rp9069
(dp9070
g16
VCC
p9071
sbag5
(g6
g7
(lp9072
g5
(g6
g7
(lp9073
g5
(g6
g7
(lp9074
Vthe
p9075
atp9076
Rp9077
(dp9078
g16
VDT
p9079
sbag5
(g6
g7
(lp9080
VMaryland
p9081
atp9082
Rp9083
(dp9084
g16
VNNP
p9085
sbatp9086
Rp9087
(dp9088
g16
VNP
p9089
sbag5
(g6
g7
(lp9090
g5
(g6
g7
(lp9091
Vfeatured
p9092
atp9093
Rp9094
(dp9095
g16
VVBD
p9096
sbag5
(g6
g7
(lp9097
g5
(g6
g7
(lp9098
Vparser
p9099
atp9100
Rp9101
(dp9102
g16
VNN
p9103
sbatp9104
Rp9105
(dp9106
g16
VNP
p9107
sbag5
(g6
g7
(lp9108
g5
(g6
g7
(lp9109
Vas
p9110
atp9111
Rp9112
(dp9113
g16
VIN
p9114
sbag5
(g6
g7
(lp9115
g5
(g6
g7
(lp9116
Vour
p9117
atp9118
Rp9119
(dp9120
g16
VPRP$
p9121
sbag5
(g6
g7
(lp9122
Vbaseline
p9123
atp9124
Rp9125
(dp9126
g16
VNN
p9127
sbatp9128
Rp9129
(dp9130
g16
VNP
p9131
sbatp9132
Rp9133
(dp9134
g16
VPP
p9135
sbag5
(g6
g7
(lp9136
g5
(g6
g7
(lp9137
Vfor
p9138
atp9139
Rp9140
(dp9141
g16
VIN
p9142
sbag5
(g6
g7
(lp9143
g5
(g6
g7
(lp9144
Vthe
p9145
atp9146
Rp9147
(dp9148
g16
VDT
p9149
sbag5
(g6
g7
(lp9150
Vembedding-featured
p9151
atp9152
Rp9153
(dp9154
g16
VJJ
p9155
sbag5
(g6
g7
(lp9156
Vlexicon
p9157
atp9158
Rp9159
(dp9160
g16
VNN
p9161
sbatp9162
Rp9163
(dp9164
g16
VNP
p9165
sbatp9166
Rp9167
(dp9168
g16
VPP
p9169
sbatp9170
Rp9171
(dp9172
g16
VVP
p9173
sbatp9174
Rp9175
(dp9176
g16
g270
sbatp9177
Rp9178
(dp9179
g16
g270
sbatp9180
Rp9181
(dp9182
g16
VROOT
p9183
sbasg411
(icmyPackage
CorE
p9184
(dp9185
g414
(lp9186
(I0
I10
tp9187
a(I0
I27
tp9188
asg418
g5
(g6
g7
(lp9189
g9048
ag9064
ag9069
ag9087
ag9094
ag9105
ag9133
ag9140
ag9147
ag9153
atp9190
Rp9191
(dp9192
g16
g429
sbsbsg419
(icmyPackage
CorE
p9193
(dp9194
g414
(lp9195
(I0
I0
tp9196
a(I0
I8
tp9197
asg418
g5
(g6
g7
(lp9198
g8916
ag8923
ag8985
atp9199
Rp9200
(dp9201
g16
g429
sbsbsg430
g1217
sg453
(lp9202
(isxpPackage
sxpSent
p9203
(dp9204
g457
(lp9205
I23
asg459
VWe use the Maryland implementation of the Berkeley parser as our baseline for the kernel-smoothed lexicon, and the Maryland featured parser as our baseline for the embedding-featured lexicon
p9206
sg461
I9
sg446
I81
sg462
I21
sbasba(icmyPackage
CELink
p9207
(dp9208
g3
(lp9209
g5
(g6
g7
(lp9210
g5
(g6
g7
(lp9211
g5
(g6
g7
(lp9212
g5
(g6
g7
(lp9213
g5
(g6
g7
(lp9214
VPer-corpus-size
p9215
atp9216
Rp9217
(dp9218
g16
VJJ
p9219
sbag5
(g6
g7
(lp9220
Vsettings
p9221
atp9222
Rp9223
(dp9224
g16
VNNS
p9225
sbatp9226
Rp9227
(dp9228
g16
VNP
p9229
sbag5
(g6
g7
(lp9230
g5
(g6
g7
(lp9231
Vof
p9232
atp9233
Rp9234
(dp9235
g16
VIN
p9236
sbag5
(g6
g7
(lp9237
g5
(g6
g7
(lp9238
g5
(g6
g7
(lp9239
Vthe
p9240
atp9241
Rp9242
(dp9243
g16
VDT
p9244
sbag5
(g6
g7
(lp9245
Vparameter
p9246
atp9247
Rp9248
(dp9249
g16
VNN
p9250
sbag5
(g6
g7
(lp9251
g734
atp9252
Rp9253
(dp9254
g16
VNN
p9255
sbag5
(g6
g7
(lp9256
g740
atp9257
Rp9258
(dp9259
g16
VPOS
p9260
sbatp9261
Rp9262
(dp9263
g16
VNP
p9264
sbag5
(g6
g7
(lp9265
V\u005c
p9266
atp9267
Rp9268
(dp9269
g16
VJJ
p9270
sbag5
(g6
g7
(lp9271
Vu0392
p9272
atp9273
Rp9274
(dp9275
g16
VNNS
p9276
sbatp9277
Rp9278
(dp9279
g16
VNP
p9280
sbatp9281
Rp9282
(dp9283
g16
VPP
p9284
sbag5
(g6
g7
(lp9285
g740
atp9286
Rp9287
(dp9288
g16
V''
p9289
sbatp9290
Rp9291
(dp9292
g16
VNP
p9293
sbag5
(g6
g7
(lp9294
g5
(g6
g7
(lp9295
Vare
p9296
atp9297
Rp9298
(dp9299
g16
VVBP
p9300
sbag5
(g6
g7
(lp9301
g5
(g6
g7
(lp9302
Vset
p9303
atp9304
Rp9305
(dp9306
g16
VVBN
p9307
sbag5
(g6
g7
(lp9308
g5
(g6
g7
(lp9309
Vby
p9310
atp9311
Rp9312
(dp9313
g16
VIN
p9314
sbag5
(g6
g7
(lp9315
g5
(g6
g7
(lp9316
g5
(g6
g7
(lp9317
Vsearching
p9318
atp9319
Rp9320
(dp9321
g16
VVBG
p9322
sbag5
(g6
g7
(lp9323
g5
(g6
g7
(lp9324
Vover
p9325
atp9326
Rp9327
(dp9328
g16
VRP
p9329
sbatp9330
Rp9331
(dp9332
g16
VPRT
p9333
sbag5
(g6
g7
(lp9334
g5
(g6
g7
(lp9335
Vseveral
p9336
atp9337
Rp9338
(dp9339
g16
VJJ
p9340
sbag5
(g6
g7
(lp9341
Vpossible
p9342
atp9343
Rp9344
(dp9345
g16
VJJ
p9346
sbag5
(g6
g7
(lp9347
Vsettings
p9348
atp9349
Rp9350
(dp9351
g16
VNNS
p9352
sbatp9353
Rp9354
(dp9355
g16
VNP
p9356
sbag5
(g6
g7
(lp9357
g5
(g6
g7
(lp9358
Von
p9359
atp9360
Rp9361
(dp9362
g16
VIN
p9363
sbag5
(g6
g7
(lp9364
g5
(g6
g7
(lp9365
Vthe
p9366
atp9367
Rp9368
(dp9369
g16
VDT
p9370
sbag5
(g6
g7
(lp9371
Vdevelopment
p9372
atp9373
Rp9374
(dp9375
g16
VNN
p9376
sbag5
(g6
g7
(lp9377
Vset
p9378
atp9379
Rp9380
(dp9381
g16
VNN
p9382
sbatp9383
Rp9384
(dp9385
g16
VNP
p9386
sbatp9387
Rp9388
(dp9389
g16
VPP
p9390
sbatp9391
Rp9392
(dp9393
g16
VVP
p9394
sbatp9395
Rp9396
(dp9397
g16
g270
sbatp9398
Rp9399
(dp9400
g16
VPP
p9401
sbatp9402
Rp9403
(dp9404
g16
VVP
p9405
sbatp9406
Rp9407
(dp9408
g16
VVP
p9409
sbatp9410
Rp9411
(dp9412
g16
g270
sbatp9413
Rp9414
(dp9415
g16
VROOT
p9416
sbasg411
(icmyPackage
CorE
p9417
(dp9418
g414
(lp9419
(I0
I13
tp9420
a(I0
I21
tp9421
asg418
g9396
sbsg419
(icmyPackage
CorE
p9422
(dp9423
g414
(lp9424
(I0
I0
tp9425
a(I0
I11
tp9426
asg418
g5
(g6
g7
(lp9427
g9291
ag9298
ag9305
atp9428
Rp9429
(dp9430
g16
g429
sbsbsg430
g431
sg453
(lp9431
(isxpPackage
sxpSent
p9432
(dp9433
g457
(lp9434
I24
asg459
VPer-corpus-size settings of the parameter u'\u005cu0392' are set by searching over several possible settings on the development set
p9435
sg461
I9
sg446
I88
sg462
I23
sbasba(icmyPackage
CELink
p9436
(dp9437
g3
(lp9438
g5
(g6
g7
(lp9439
g5
(g6
g7
(lp9440
g5
(g6
g7
(lp9441
g5
(g6
g7
(lp9442
VWe
p9443
atp9444
Rp9445
(dp9446
g16
VPRP
p9447
sbatp9448
Rp9449
(dp9450
g16
VNP
p9451
sbag5
(g6
g7
(lp9452
g5
(g6
g7
(lp9453
Vbegin
p9454
atp9455
Rp9456
(dp9457
g16
VVBP
p9458
sbag5
(g6
g7
(lp9459
g5
(g6
g7
(lp9460
Vby
p9461
atp9462
Rp9463
(dp9464
g16
VIN
p9465
sbag5
(g6
g7
(lp9466
g5
(g6
g7
(lp9467
g5
(g6
g7
(lp9468
Vinvestigating
p9469
atp9470
Rp9471
(dp9472
g16
VVBG
p9473
sbag5
(g6
g7
(lp9474
g5
(g6
g7
(lp9475
Vthe
p9476
atp9477
Rp9478
(dp9479
g16
VDT
p9480
sbag5
(g6
g7
(lp9481
VOOV
p9482
atp9483
Rp9484
(dp9485
g16
VNNP
p9486
sbag5
(g6
g7
(lp9487
Vmodel
p9488
atp9489
Rp9490
(dp9491
g16
VNN
p9492
sbatp9493
Rp9494
(dp9495
g16
VNP
p9496
sbatp9497
Rp9498
(dp9499
g16
VVP
p9500
sbatp9501
Rp9502
(dp9503
g16
g270
sbatp9504
Rp9505
(dp9506
g16
VPP
p9507
sbatp9508
Rp9509
(dp9510
g16
VVP
p9511
sbatp9512
Rp9513
(dp9514
g16
g270
sbatp9515
Rp9516
(dp9517
g16
VROOT
p9518
sbasg411
(icmyPackage
CorE
p9519
(dp9520
g414
(lp9521
(I0
I3
tp9522
a(I0
I6
tp9523
asg418
g9502
sbsg419
(icmyPackage
CorE
p9524
(dp9525
g414
(lp9526
(I0
I0
tp9527
a(I0
I1
tp9528
asg418
g5
(g6
g7
(lp9529
g9449
ag9456
atp9530
Rp9531
(dp9532
g16
g429
sbsbsg430
g431
sg453
(lp9533
(isxpPackage
sxpSent
p9534
(dp9535
g457
(lp9536
I25
aI26
asg459
VWe begin by investigating the OOV model
p9537
sg461
I10
sg446
I93
sg462
I24
sbasba(icmyPackage
CELink
p9538
(dp9539
g3
(lp9540
g9516
ag5
(g6
g7
(lp9541
g5
(g6
g7
(lp9542
g5
(g6
g7
(lp9543
g5
(g6
g7
(lp9544
g5
(g6
g7
(lp9545
g5
(g6
g7
(lp9546
VAs
p9547
atp9548
Rp9549
(dp9550
g16
VIN
p9551
sbag5
(g6
g7
(lp9552
g5
(g6
g7
(lp9553
g5
(g6
g7
(lp9554
Vcan
p9555
atp9556
Rp9557
(dp9558
g16
VMD
p9559
sbag5
(g6
g7
(lp9560
g5
(g6
g7
(lp9561
Vbe
p9562
atp9563
Rp9564
(dp9565
g16
VVB
p9566
sbag5
(g6
g7
(lp9567
g5
(g6
g7
(lp9568
Vseen
p9569
atp9570
Rp9571
(dp9572
g16
VVBN
p9573
sbatp9574
Rp9575
(dp9576
g16
VVP
p9577
sbatp9578
Rp9579
(dp9580
g16
VVP
p9581
sbatp9582
Rp9583
(dp9584
g16
VVP
p9585
sbatp9586
Rp9587
(dp9588
g16
g270
sbatp9589
Rp9590
(dp9591
g16
VSBAR
p9592
sbag5
(g6
g7
(lp9593
g193
atp9594
Rp9595
(dp9596
g16
g193
sbag5
(g6
g7
(lp9597
g5
(g6
g7
(lp9598
Vthis
p9599
atp9600
Rp9601
(dp9602
g16
VDT
p9603
sbag5
(g6
g7
(lp9604
Vmodel
p9605
atp9606
Rp9607
(dp9608
g16
VNN
p9609
sbatp9610
Rp9611
(dp9612
g16
VNP
p9613
sbag5
(g6
g7
(lp9614
g5
(g6
g7
(lp9615
Valone
p9616
atp9617
Rp9618
(dp9619
g16
VRB
p9620
sbatp9621
Rp9622
(dp9623
g16
VADVP
p9624
sbag5
(g6
g7
(lp9625
g5
(g6
g7
(lp9626
Vachieves
p9627
atp9628
Rp9629
(dp9630
g16
VVBZ
p9631
sbag5
(g6
g7
(lp9632
g5
(g6
g7
(lp9633
Vsmall
p9634
atp9635
Rp9636
(dp9637
g16
VJJ
p9638
sbag5
(g6
g7
(lp9639
Vgains
p9640
atp9641
Rp9642
(dp9643
g16
VNNS
p9644
sbatp9645
Rp9646
(dp9647
g16
VNP
p9648
sbag5
(g6
g7
(lp9649
g5
(g6
g7
(lp9650
Vover
p9651
atp9652
Rp9653
(dp9654
g16
VIN
p9655
sbag5
(g6
g7
(lp9656
g5
(g6
g7
(lp9657
g5
(g6
g7
(lp9658
Vthe
p9659
atp9660
Rp9661
(dp9662
g16
VDT
p9663
sbag5
(g6
g7
(lp9664
Vbaseline
p9665
atp9666
Rp9667
(dp9668
g16
VNN
p9669
sbatp9670
Rp9671
(dp9672
g16
VNP
p9673
sbag5
(g6
g7
(lp9674
g5
(g6
g7
(lp9675
Vfor
p9676
atp9677
Rp9678
(dp9679
g16
VIN
p9680
sbag5
(g6
g7
(lp9681
g5
(g6
g7
(lp9682
g104
atp9683
Rp9684
(dp9685
g16
VDT
p9686
sbag5
(g6
g7
(lp9687
V300-word
p9688
atp9689
Rp9690
(dp9691
g16
VJJ
p9692
sbag5
(g6
g7
(lp9693
Vtraining
p9694
atp9695
Rp9696
(dp9697
g16
VNN
p9698
sbag5
(g6
g7
(lp9699
Vcorpus
p9700
atp9701
Rp9702
(dp9703
g16
VNN
p9704
sbatp9705
Rp9706
(dp9707
g16
VNP
p9708
sbatp9709
Rp9710
(dp9711
g16
VPP
p9712
sbatp9713
Rp9714
(dp9715
g16
VNP
p9716
sbatp9717
Rp9718
(dp9719
g16
VPP
p9720
sbatp9721
Rp9722
(dp9723
g16
VVP
p9724
sbatp9725
Rp9726
(dp9727
g16
g270
sbag5
(g6
g7
(lp9728
g193
atp9729
Rp9730
(dp9731
g16
g193
sbag5
(g6
g7
(lp9732
Vbut
p9733
atp9734
Rp9735
(dp9736
g16
VCC
p9737
sbag5
(g6
g7
(lp9738
g5
(g6
g7
(lp9739
g5
(g6
g7
(lp9740
Vthese
p9741
atp9742
Rp9743
(dp9744
g16
VDT
p9745
sbag5
(g6
g7
(lp9746
Vgains
p9747
atp9748
Rp9749
(dp9750
g16
VNNS
p9751
sbatp9752
Rp9753
(dp9754
g16
VNP
p9755
sbag5
(g6
g7
(lp9756
g5
(g6
g7
(lp9757
Vbecome
p9758
atp9759
Rp9760
(dp9761
g16
VVBP
p9762
sbag5
(g6
g7
(lp9763
g5
(g6
g7
(lp9764
Vstatistically
p9765
atp9766
Rp9767
(dp9768
g16
VRB
p9769
sbag5
(g6
g7
(lp9770
Vinsignificant
p9771
atp9772
Rp9773
(dp9774
g16
VJJ
p9775
sbatp9776
Rp9777
(dp9778
g16
VADJP
p9779
sbag5
(g6
g7
(lp9780
g5
(g6
g7
(lp9781
Vwith
p9782
atp9783
Rp9784
(dp9785
g16
VIN
p9786
sbag5
(g6
g7
(lp9787
g5
(g6
g7
(lp9788
Vmore
p9789
atp9790
Rp9791
(dp9792
g16
VJJR
p9793
sbag5
(g6
g7
(lp9794
Vtraining
p9795
atp9796
Rp9797
(dp9798
g16
VNN
p9799
sbag5
(g6
g7
(lp9800
Vdata
p9801
atp9802
Rp9803
(dp9804
g16
VNNS
p9805
sbatp9806
Rp9807
(dp9808
g16
VNP
p9809
sbatp9810
Rp9811
(dp9812
g16
VPP
p9813
sbatp9814
Rp9815
(dp9816
g16
VVP
p9817
sbatp9818
Rp9819
(dp9820
g16
g270
sbatp9821
Rp9822
(dp9823
g16
g270
sbatp9824
Rp9825
(dp9826
g16
VFRAG
p9827
sbatp9828
Rp9829
(dp9830
g16
VROOT
p9831
sbasg411
(icmyPackage
CorE
p9832
(dp9833
g414
(lp9834
(I1
I1
tp9835
a(I1
I22
tp9836
asg418
g5
(g6
g7
(lp9837
g9587
ag9595
ag9611
ag9622
ag9722
ag9730
ag9735
ag9753
atp9838
Rp9839
(dp9840
g16
g429
sbsbsg419
(icmyPackage
CorE
p9841
(dp9842
g414
(lp9843
(I0
I0
tp9844
a(I0
I6
tp9845
asg418
g9516
sbsg430
g1217
sg453
(lp9846
g9534
a(isxpPackage
sxpSent
p9847
(dp9848
g457
(lp9849
I26
asg459
VAs can be seen, this model alone achieves small gains over the baseline for a 300-word training corpus, but these gains become statistically insignificant with more training data
p9850
sg461
I10
sg446
I94
sg462
I24
sbasba(icmyPackage
CELink
p9851
(dp9852
g3
(lp9853
g5
(g6
g7
(lp9854
g5
(g6
g7
(lp9855
g5
(g6
g7
(lp9856
g5
(g6
g7
(lp9857
g5
(g6
g7
(lp9858
VWe
p9859
atp9860
Rp9861
(dp9862
g16
VPRP
p9863
sbatp9864
Rp9865
(dp9866
g16
VNP
p9867
sbag5
(g6
g7
(lp9868
g5
(g6
g7
(lp9869
Vbegan
p9870
atp9871
Rp9872
(dp9873
g16
VVBD
p9874
sbag5
(g6
g7
(lp9875
g5
(g6
g7
(lp9876
Vby
p9877
atp9878
Rp9879
(dp9880
g16
VIN
p9881
sbag5
(g6
g7
(lp9882
g5
(g6
g7
(lp9883
g5
(g6
g7
(lp9884
Vsearching
p9885
atp9886
Rp9887
(dp9888
g16
VVBG
p9889
sbag5
(g6
g7
(lp9890
g5
(g6
g7
(lp9891
Vover
p9892
atp9893
Rp9894
(dp9895
g16
VRP
p9896
sbatp9897
Rp9898
(dp9899
g16
VPRT
p9900
sbag5
(g6
g7
(lp9901
g5
(g6
g7
(lp9902
g5
(g6
g7
(lp9903
Vexponentially-spaced
p9904
atp9905
Rp9906
(dp9907
g16
VJJ
p9908
sbag5
(g6
g7
(lp9909
Vvalues
p9910
atp9911
Rp9912
(dp9913
g16
VNNS
p9914
sbatp9915
Rp9916
(dp9917
g16
VNP
p9918
sbag5
(g6
g7
(lp9919
g5
(g6
g7
(lp9920
Vof
p9921
atp9922
Rp9923
(dp9924
g16
VIN
p9925
sbag5
(g6
g7
(lp9926
g5
(g6
g7
(lp9927
g5
(g6
g7
(lp9928
g734
atp9929
Rp9930
(dp9931
g16
VNNP
p9932
sbag5
(g6
g7
(lp9933
g740
atp9934
Rp9935
(dp9936
g16
VPOS
p9937
sbatp9938
Rp9939
(dp9940
g16
VNP
p9941
sbag5
(g6
g7
(lp9942
V\u005c
p9943
atp9944
Rp9945
(dp9946
g16
VJJ
p9947
sbag5
(g6
g7
(lp9948
Vu0392
p9949
atp9950
Rp9951
(dp9952
g16
VNN
p9953
sbag5
(g6
g7
(lp9954
g740
atp9955
Rp9956
(dp9957
g16
V''
p9958
sbag5
(g6
g7
(lp9959
g5
(g6
g7
(lp9960
g5
(g6
g7
(lp9961
Vto
p9962
atp9963
Rp9964
(dp9965
g16
VTO
p9966
sbag5
(g6
g7
(lp9967
g5
(g6
g7
(lp9968
Vdetermine
p9969
atp9970
Rp9971
(dp9972
g16
VVB
p9973
sbag5
(g6
g7
(lp9974
g5
(g6
g7
(lp9975
g5
(g6
g7
(lp9976
Van
p9977
atp9978
Rp9979
(dp9980
g16
VDT
p9981
sbag5
(g6
g7
(lp9982
Voptimal
p9983
atp9984
Rp9985
(dp9986
g16
VJJ
p9987
sbag5
(g6
g7
(lp9988
Vsetting
p9989
atp9990
Rp9991
(dp9992
g16
VNN
p9993
sbatp9994
Rp9995
(dp9996
g16
VNP
p9997
sbag5
(g6
g7
(lp9998
g5
(g6
g7
(lp9999
Vfor
p10000
atp10001
Rp10002
(dp10003
g16
VIN
p10004
sbag5
(g6
g7
(lp10005
g5
(g6
g7
(lp10006
Veach
p10007
atp10008
Rp10009
(dp10010
g16
VDT
p10011
sbag5
(g6
g7
(lp10012
Vtraining
p10013
atp10014
Rp10015
(dp10016
g16
VNN
p10017
sbag5
(g6
g7
(lp10018
Vset
p10019
atp10020
Rp10021
(dp10022
g16
VNN
p10023
sbag5
(g6
g7
(lp10024
Vsize
p10025
atp10026
Rp10027
(dp10028
g16
VNN
p10029
sbatp10030
Rp10031
(dp10032
g16
VNP
p10033
sbatp10034
Rp10035
(dp10036
g16
VPP
p10037
sbatp10038
Rp10039
(dp10040
g16
VNP
p10041
sbatp10042
Rp10043
(dp10044
g16
VVP
p10045
sbatp10046
Rp10047
(dp10048
g16
VVP
p10049
sbatp10050
Rp10051
(dp10052
g16
g270
sbatp10053
Rp10054
(dp10055
g16
VNP
p10056
sbatp10057
Rp10058
(dp10059
g16
VPP
p10060
sbag5
(g6
g7
(lp10061
V;
p10062
atp10063
Rp10064
(dp10065
g16
V:
p10066
sbag5
(g6
g7
(lp10067
g5
(g6
g7
(lp10068
Vas
p10069
atp10070
Rp10071
(dp10072
g16
VRB
p10073
sbag5
(g6
g7
(lp10074
Vexpected
p10075
atp10076
Rp10077
(dp10078
g16
VVBN
p10079
sbatp10080
Rp10081
(dp10082
g16
VADJP
p10083
sbatp10084
Rp10085
(dp10086
g16
VNP
p10087
sbatp10088
Rp10089
(dp10090
g16
VVP
p10091
sbatp10092
Rp10093
(dp10094
g16
g270
sbatp10095
Rp10096
(dp10097
g16
VPP
p10098
sbag5
(g6
g7
(lp10099
g193
atp10100
Rp10101
(dp10102
g16
g193
sbag5
(g6
g7
(lp10103
g5
(g6
g7
(lp10104
Vfor
p10105
atp10106
Rp10107
(dp10108
g16
VIN
p10109
sbag5
(g6
g7
(lp10110
g5
(g6
g7
(lp10111
g5
(g6
g7
(lp10112
Vsmall
p10113
atp10114
Rp10115
(dp10116
g16
VJJ
p10117
sbag5
(g6
g7
(lp10118
Vsettings
p10119
atp10120
Rp10121
(dp10122
g16
VNNS
p10123
sbatp10124
Rp10125
(dp10126
g16
VNP
p10127
sbag5
(g6
g7
(lp10128
g5
(g6
g7
(lp10129
Vof
p10130
atp10131
Rp10132
(dp10133
g16
VIN
p10134
sbag5
(g6
g7
(lp10135
g5
(g6
g7
(lp10136
g5
(g6
g7
(lp10137
g5
(g6
g7
(lp10138
g734
atp10139
Rp10140
(dp10141
g16
VNNP
p10142
sbag5
(g6
g7
(lp10143
g740
atp10144
Rp10145
(dp10146
g16
VPOS
p10147
sbatp10148
Rp10149
(dp10150
g16
VNP
p10151
sbag5
(g6
g7
(lp10152
V\u005c
p10153
atp10154
Rp10155
(dp10156
g16
VNNP
p10157
sbag5
(g6
g7
(lp10158
Vu0392
p10159
atp10160
Rp10161
(dp10162
g16
VNNP
p10163
sbag5
(g6
g7
(lp10164
g740
atp10165
Rp10166
(dp10167
g16
V''
p10168
sbag5
(g6
g7
(lp10169
g5
(g6
g7
(lp10170
V-LRB-
p10171
atp10172
Rp10173
(dp10174
g16
V-LRB-
p10175
sbag5
(g6
g7
(lp10176
g5
(g6
g7
(lp10177
g5
(g6
g7
(lp10178
Vcorresponding
p10179
atp10180
Rp10181
(dp10182
g16
VJJ
p10183
sbatp10184
Rp10185
(dp10186
g16
VNP
p10187
sbag5
(g6
g7
(lp10188
g5
(g6
g7
(lp10189
Vto
p10190
atp10191
Rp10192
(dp10193
g16
VTO
p10194
sbag5
(g6
g7
(lp10195
g5
(g6
g7
(lp10196
Vaggressive
p10197
atp10198
Rp10199
(dp10200
g16
VJJ
p10201
sbag5
(g6
g7
(lp10202
Vsmoothing
p10203
atp10204
Rp10205
(dp10206
g16
VNN
p10207
sbatp10208
Rp10209
(dp10210
g16
VNP
p10211
sbatp10212
Rp10213
(dp10214
g16
VPP
p10215
sbatp10216
Rp10217
(dp10218
g16
VNP
p10219
sbag5
(g6
g7
(lp10220
V-RRB-
p10221
atp10222
Rp10223
(dp10224
g16
V-RRB-
p10225
sbatp10226
Rp10227
(dp10228
g16
VPRN
p10229
sbag5
(g6
g7
(lp10230
Vperformance
p10231
atp10232
Rp10233
(dp10234
g16
VNN
p10235
sbatp10236
Rp10237
(dp10238
g16
VNP
p10239
sbag5
(g6
g7
(lp10240
g5
(g6
g7
(lp10241
Vdecreased
p10242
atp10243
Rp10244
(dp10245
g16
VVBN
p10246
sbatp10247
Rp10248
(dp10249
g16
VVP
p10250
sbatp10251
Rp10252
(dp10253
g16
VNP
p10254
sbatp10255
Rp10256
(dp10257
g16
VPP
p10258
sbatp10259
Rp10260
(dp10261
g16
VNP
p10262
sbatp10263
Rp10264
(dp10265
g16
VPP
p10266
sbatp10267
Rp10268
(dp10269
g16
VVP
p10270
sbatp10271
Rp10272
(dp10273
g16
g270
sbag5
(g6
g7
(lp10274
g10062
atp10275
Rp10276
(dp10277
g16
g10066
sbag5
(g6
g7
(lp10278
g5
(g6
g7
(lp10279
g5
(g6
g7
(lp10280
Vas
p10281
atp10282
Rp10283
(dp10284
g16
VIN
p10285
sbag5
(g6
g7
(lp10286
g5
(g6
g7
(lp10287
g5
(g6
g7
(lp10288
Vwe
p10289
atp10290
Rp10291
(dp10292
g16
VPRP
p10293
sbatp10294
Rp10295
(dp10296
g16
VNP
p10297
sbag5
(g6
g7
(lp10298
g5
(g6
g7
(lp10299
Vincreased
p10300
atp10301
Rp10302
(dp10303
g16
VVBD
p10304
sbag5
(g6
g7
(lp10305
g5
(g6
g7
(lp10306
Vthe
p10307
atp10308
Rp10309
(dp10310
g16
VDT
p10311
sbag5
(g6
g7
(lp10312
Vparameter
p10313
atp10314
Rp10315
(dp10316
g16
VNN
p10317
sbatp10318
Rp10319
(dp10320
g16
VNP
p10321
sbatp10322
Rp10323
(dp10324
g16
VVP
p10325
sbatp10326
Rp10327
(dp10328
g16
g270
sbatp10329
Rp10330
(dp10331
g16
VSBAR
p10332
sbag5
(g6
g7
(lp10333
g193
atp10334
Rp10335
(dp10336
g16
g193
sbag5
(g6
g7
(lp10337
g5
(g6
g7
(lp10338
Vperformance
p10339
atp10340
Rp10341
(dp10342
g16
VNN
p10343
sbatp10344
Rp10345
(dp10346
g16
VNP
p10347
sbag5
(g6
g7
(lp10348
g5
(g6
g7
(lp10349
Vincreased
p10350
atp10351
Rp10352
(dp10353
g16
VVBD
p10354
sbag5
(g6
g7
(lp10355
g5
(g6
g7
(lp10356
Vslightly
p10357
atp10358
Rp10359
(dp10360
g16
VRB
p10361
sbatp10362
Rp10363
(dp10364
g16
VADVP
p10365
sbag5
(g6
g7
(lp10366
g5
(g6
g7
(lp10367
Vbefore
p10368
atp10369
Rp10370
(dp10371
g16
VIN
p10372
sbag5
(g6
g7
(lp10373
g5
(g6
g7
(lp10374
g5
(g6
g7
(lp10375
Vtapering
p10376
atp10377
Rp10378
(dp10379
g16
VVBG
p10380
sbag5
(g6
g7
(lp10381
g5
(g6
g7
(lp10382
Voff
p10383
atp10384
Rp10385
(dp10386
g16
VRP
p10387
sbatp10388
Rp10389
(dp10390
g16
VPRT
p10391
sbag5
(g6
g7
(lp10392
g5
(g6
g7
(lp10393
Vto
p10394
atp10395
Rp10396
(dp10397
g16
VTO
p10398
sbag5
(g6
g7
(lp10399
g5
(g6
g7
(lp10400
Vbaseline
p10401
atp10402
Rp10403
(dp10404
g16
VJJ
p10405
sbag5
(g6
g7
(lp10406
Vparser
p10407
atp10408
Rp10409
(dp10410
g16
VNN
p10411
sbag5
(g6
g7
(lp10412
Vperformance
p10413
atp10414
Rp10415
(dp10416
g16
VNN
p10417
sbatp10418
Rp10419
(dp10420
g16
VNP
p10421
sbatp10422
Rp10423
(dp10424
g16
VPP
p10425
sbatp10426
Rp10427
(dp10428
g16
VVP
p10429
sbatp10430
Rp10431
(dp10432
g16
g270
sbatp10433
Rp10434
(dp10435
g16
VPP
p10436
sbatp10437
Rp10438
(dp10439
g16
VVP
p10440
sbatp10441
Rp10442
(dp10443
g16
g270
sbatp10444
Rp10445
(dp10446
g16
g270
sbatp10447
Rp10448
(dp10449
g16
VROOT
p10450
sbag5
(g6
g7
(lp10451
g5
(g6
g7
(lp10452
g5
(g6
g7
(lp10453
g5
(g6
g7
(lp10454
g5
(g6
g7
(lp10455
g5
(g6
g7
(lp10456
VThe
p10457
atp10458
Rp10459
(dp10460
g16
VDT
p10461
sbag5
(g6
g7
(lp10462
Vfirst
p10463
atp10464
Rp10465
(dp10466
g16
VJJ
p10467
sbag5
(g6
g7
(lp10468
Vblock
p10469
atp10470
Rp10471
(dp10472
g16
VNN
p10473
sbatp10474
Rp10475
(dp10476
g16
VNP
p10477
sbag5
(g6
g7
(lp10478
g5
(g6
g7
(lp10479
Vin
p10480
atp10481
Rp10482
(dp10483
g16
VIN
p10484
sbag5
(g6
g7
(lp10485
g5
(g6
g7
(lp10486
VTable
p10487
atp10488
Rp10489
(dp10490
g16
VNNP
p10491
sbag5
(g6
g7
(lp10492
g2244
atp10493
Rp10494
(dp10495
g16
VCD
p10496
sbatp10497
Rp10498
(dp10499
g16
VNP
p10500
sbatp10501
Rp10502
(dp10503
g16
VPP
p10504
sbatp10505
Rp10506
(dp10507
g16
VNP
p10508
sbag5
(g6
g7
(lp10509
g5
(g6
g7
(lp10510
Vshows
p10511
atp10512
Rp10513
(dp10514
g16
VVBZ
p10515
sbag5
(g6
g7
(lp10516
g5
(g6
g7
(lp10517
g5
(g6
g7
(lp10518
Vthe
p10519
atp10520
Rp10521
(dp10522
g16
VDT
p10523
sbag5
(g6
g7
(lp10524
Vbest
p10525
atp10526
Rp10527
(dp10528
g16
VJJS
p10529
sbag5
(g6
g7
(lp10530
Vsettings
p10531
atp10532
Rp10533
(dp10534
g16
VNNS
p10535
sbatp10536
Rp10537
(dp10538
g16
VNP
p10539
sbag5
(g6
g7
(lp10540
g5
(g6
g7
(lp10541
Vof
p10542
atp10543
Rp10544
(dp10545
g16
VIN
p10546
sbag5
(g6
g7
(lp10547
g5
(g6
g7
(lp10548
g5
(g6
g7
(lp10549
g734
atp10550
Rp10551
(dp10552
g16
VNNP
p10553
sbag5
(g6
g7
(lp10554
g740
atp10555
Rp10556
(dp10557
g16
VPOS
p10558
sbatp10559
Rp10560
(dp10561
g16
VNP
p10562
sbag5
(g6
g7
(lp10563
V\u005c
p10564
atp10565
Rp10566
(dp10567
g16
VJJ
p10568
sbag5
(g6
g7
(lp10569
Vu0392
p10570
atp10571
Rp10572
(dp10573
g16
VNNS
p10574
sbatp10575
Rp10576
(dp10577
g16
VNP
p10578
sbatp10579
Rp10580
(dp10581
g16
VPP
p10582
sbag5
(g6
g7
(lp10583
g740
atp10584
Rp10585
(dp10586
g16
V''
p10587
sbag5
(g6
g7
(lp10588
g5
(g6
g7
(lp10589
Vfor
p10590
atp10591
Rp10592
(dp10593
g16
VIN
p10594
sbag5
(g6
g7
(lp10595
g5
(g6
g7
(lp10596
Veach
p10597
atp10598
Rp10599
(dp10600
g16
VDT
p10601
sbag5
(g6
g7
(lp10602
Vcorpus
p10603
atp10604
Rp10605
(dp10606
g16
VNN
p10607
sbag5
(g6
g7
(lp10608
Vsize
p10609
atp10610
Rp10611
(dp10612
g16
VNN
p10613
sbatp10614
Rp10615
(dp10616
g16
VNP
p10617
sbatp10618
Rp10619
(dp10620
g16
VPP
p10621
sbatp10622
Rp10623
(dp10624
g16
VNP
p10625
sbatp10626
Rp10627
(dp10628
g16
VVP
p10629
sbatp10630
Rp10631
(dp10632
g16
g270
sbag5
(g6
g7
(lp10633
g10062
atp10634
Rp10635
(dp10636
g16
g10066
sbag5
(g6
g7
(lp10637
g5
(g6
g7
(lp10638
g5
(g6
g7
(lp10639
Vas
p10640
atp10641
Rp10642
(dp10643
g16
VIN
p10644
sbag5
(g6
g7
(lp10645
g5
(g6
g7
(lp10646
g5
(g6
g7
(lp10647
Vcan
p10648
atp10649
Rp10650
(dp10651
g16
VMD
p10652
sbag5
(g6
g7
(lp10653
g5
(g6
g7
(lp10654
Vbe
p10655
atp10656
Rp10657
(dp10658
g16
VVB
p10659
sbag5
(g6
g7
(lp10660
g5
(g6
g7
(lp10661
Vseen
p10662
atp10663
Rp10664
(dp10665
g16
VVBN
p10666
sbatp10667
Rp10668
(dp10669
g16
VVP
p10670
sbatp10671
Rp10672
(dp10673
g16
VVP
p10674
sbatp10675
Rp10676
(dp10677
g16
VVP
p10678
sbatp10679
Rp10680
(dp10681
g16
g270
sbatp10682
Rp10683
(dp10684
g16
VSBAR
p10685
sbag5
(g6
g7
(lp10686
g193
atp10687
Rp10688
(dp10689
g16
g193
sbag5
(g6
g7
(lp10690
g5
(g6
g7
(lp10691
Vthis
p10692
atp10693
Rp10694
(dp10695
g16
VDT
p10696
sbatp10697
Rp10698
(dp10699
g16
VNP
p10700
sbag5
(g6
g7
(lp10701
g5
(g6
g7
(lp10702
g5
(g6
g7
(lp10703
g5
(g6
g7
(lp10704
Valso
p10705
atp10706
Rp10707
(dp10708
g16
VRB
p10709
sbatp10710
Rp10711
(dp10712
g16
VADVP
p10713
sbag5
(g6
g7
(lp10714
Vgives
p10715
atp10716
Rp10717
(dp10718
g16
VVBZ
p10719
sbag5
(g6
g7
(lp10720
g5
(g6
g7
(lp10721
g104
atp10722
Rp10723
(dp10724
g16
VDT
p10725
sbag5
(g6
g7
(lp10726
Vsmall
p10727
atp10728
Rp10729
(dp10730
g16
VJJ
p10731
sbag5
(g6
g7
(lp10732
Vimprovement
p10733
atp10734
Rp10735
(dp10736
g16
VNN
p10737
sbatp10738
Rp10739
(dp10740
g16
VNP
p10741
sbag5
(g6
g7
(lp10742
g5
(g6
g7
(lp10743
Von
p10744
atp10745
Rp10746
(dp10747
g16
VIN
p10748
sbag5
(g6
g7
(lp10749
g5
(g6
g7
(lp10750
Vthe
p10751
atp10752
Rp10753
(dp10754
g16
VDT
p10755
sbag5
(g6
g7
(lp10756
V300-sentence
p10757
atp10758
Rp10759
(dp10760
g16
VJJ
p10761
sbag5
(g6
g7
(lp10762
Vtraining
p10763
atp10764
Rp10765
(dp10766
g16
VNN
p10767
sbag5
(g6
g7
(lp10768
Vcorpus
p10769
atp10770
Rp10771
(dp10772
g16
VNN
p10773
sbatp10774
Rp10775
(dp10776
g16
VNP
p10777
sbatp10778
Rp10779
(dp10780
g16
VPP
p10781
sbatp10782
Rp10783
(dp10784
g16
VVP
p10785
sbag5
(g6
g7
(lp10786
g193
atp10787
Rp10788
(dp10789
g16
g193
sbag5
(g6
g7
(lp10790
Vbut
p10791
atp10792
Rp10793
(dp10794
g16
VCC
p10795
sbag5
(g6
g7
(lp10796
g5
(g6
g7
(lp10797
g5
(g6
g7
(lp10798
g5
(g6
g7
(lp10799
Vno
p10800
atp10801
Rp10802
(dp10803
g16
VRB
p10804
sbag5
(g6
g7
(lp10805
Vdiscernible
p10806
atp10807
Rp10808
(dp10809
g16
VRB
p10810
sbatp10811
Rp10812
(dp10813
g16
VADVP
p10814
sbag5
(g6
g7
(lp10815
Vonce
p10816
atp10817
Rp10818
(dp10819
g16
VRB
p10820
sbag5
(g6
g7
(lp10821
g5
(g6
g7
(lp10822
Vthe
p10823
atp10824
Rp10825
(dp10826
g16
VDT
p10827
sbag5
(g6
g7
(lp10828
Vsystem
p10829
atp10830
Rp10831
(dp10832
g16
VNN
p10833
sbatp10834
Rp10835
(dp10836
g16
VNP
p10837
sbatp10838
Rp10839
(dp10840
g16
VADVP
p10841
sbag5
(g6
g7
(lp10842
Vhas
p10843
atp10844
Rp10845
(dp10846
g16
VVBZ
p10847
sbag5
(g6
g7
(lp10848
g5
(g6
g7
(lp10849
Vaccess
p10850
atp10851
Rp10852
(dp10853
g16
VNN
p10854
sbatp10855
Rp10856
(dp10857
g16
VNP
p10858
sbag5
(g6
g7
(lp10859
g5
(g6
g7
(lp10860
Vto
p10861
atp10862
Rp10863
(dp10864
g16
VTO
p10865
sbag5
(g6
g7
(lp10866
g5
(g6
g7
(lp10867
g104
atp10868
Rp10869
(dp10870
g16
VDT
p10871
sbag5
(g6
g7
(lp10872
Vfew
p10873
atp10874
Rp10875
(dp10876
g16
VJJ
p10877
sbag5
(g6
g7
(lp10878
g5
(g6
g7
(lp10879
Vthousand
p10880
atp10881
Rp10882
(dp10883
g16
VCD
p10884
sbag5
(g6
g7
(lp10885
Vlabeled
p10886
atp10887
Rp10888
(dp10889
g16
VCD
p10890
sbatp10891
Rp10892
(dp10893
g16
VQP
p10894
sbag5
(g6
g7
(lp10895
Vsentences
p10896
atp10897
Rp10898
(dp10899
g16
VNNS
p10900
sbatp10901
Rp10902
(dp10903
g16
VNP
p10904
sbatp10905
Rp10906
(dp10907
g16
VPP
p10908
sbatp10909
Rp10910
(dp10911
g16
VVP
p10912
sbatp10913
Rp10914
(dp10915
g16
VVP
p10916
sbatp10917
Rp10918
(dp10919
g16
g270
sbatp10920
Rp10921
(dp10922
g16
g270
sbatp10923
Rp10924
(dp10925
g16
VROOT
p10926
sbasg411
(icmyPackage
CorE
p10927
(dp10928
g414
(lp10929
(I0
I25
tp10930
a(I1
I20
tp10931
asg418
g5
(g6
g7
(lp10932
g10077
ag10101
ag10264
ag10276
ag10442
ag10631
ag10635
atp10933
Rp10934
(dp10935
g16
g429
sbsbsg419
(icmyPackage
CorE
p10936
(dp10937
g414
(lp10938
(I0
I0
tp10939
a(I0
I23
tp10940
asg418
g5
(g6
g7
(lp10941
g9865
ag9872
ag9879
ag9887
ag9898
ag9916
ag10058
ag10064
atp10942
Rp10943
(dp10944
g16
g429
sbsbsg430
g1217
sg453
(lp10945
(isxpPackage
sxpSent
p10946
(dp10947
g457
(lp10948
I27
asg459
VWe began by searching over exponentially-spaced values of u'\u005cu0392' to determine an optimal setting for each training set size; as expected, for small settings of u'\u005cu0392' (corresponding to aggressive smoothing) performance decreased; as we increased the parameter, performance increased slightly before tapering off to baseline parser performance
p10949
sg461
I10
sg446
I97
sg462
I25
sba(isxpPackage
sxpSent
p10950
(dp10951
g457
(lp10952
I27
aI28
asg459
VThe first block in Table 1 shows the best settings of u'\u005cu0392' for each corpus size; as can be seen, this also gives a small improvement on the 300-sentence training corpus, but no discernible once the system has access to a few thousand labeled sentences
p10953
sg461
I10
sg446
I98
sg462
I25
sbasba(icmyPackage
CELink
p10954
(dp10955
g3
(lp10956
g10924
asg411
(icmyPackage
CorE
p10957
(dp10958
g414
(lp10959
(I0
I22
tp10960
a(I0
I51
tp10961
asg418
g5
(g6
g7
(lp10962
g10680
ag10688
ag10698
ag10914
atp10963
Rp10964
(dp10965
g16
g429
sbsbsg419
(icmyPackage
CorE
p10966
(dp10967
g414
(lp10968
(I0
I0
tp10969
a(I0
I20
tp10970
asg418
g5
(g6
g7
(lp10971
g10631
ag10635
atp10972
Rp10973
(dp10974
g16
g429
sbsbsg430
g1217
sg453
(lp10975
g10950
asba(icmyPackage
CELink
p10976
(dp10977
g3
(lp10978
g5
(g6
g7
(lp10979
g5
(g6
g7
(lp10980
g5
(g6
g7
(lp10981
g5
(g6
g7
(lp10982
g5
(g6
g7
(lp10983
g3888
atp10984
Rp10985
(dp10986
g16
VDT
p10987
sbag5
(g6
g7
(lp10988
Vbaseline
p10989
atp10990
Rp10991
(dp10992
g16
VJJ
p10993
sbag5
(g6
g7
(lp10994
Vfeatured
p10995
atp10996
Rp10997
(dp10998
g16
VJJ
p10999
sbag5
(g6
g7
(lp11000
Vmodel
p11001
atp11002
Rp11003
(dp11004
g16
VNN
p11005
sbatp11006
Rp11007
(dp11008
g16
VNP
p11009
sbag5
(g6
g7
(lp11010
g5
(g6
g7
(lp11011
V-LRB-
p11012
atp11013
Rp11014
(dp11015
g16
V-LRB-
p11016
sbag5
(g6
g7
(lp11017
g5
(g6
g7
(lp11018
g734
atp11019
Rp11020
(dp11021
g16
VVBP
p11022
sbag5
(g6
g7
(lp11023
g740
atp11024
Rp11025
(dp11026
g16
V``
p11027
sbag5
(g6
g7
(lp11028
g5
(g6
g7
(lp11029
g5
(g6
g7
(lp11030
V\u005c
p11031
atp11032
Rp11033
(dp11034
g16
VNNP
p11035
sbag5
(g6
g7
(lp11036
Vu201c
p11037
atp11038
Rp11039
(dp11040
g16
VNNP
p11041
sbag5
(g6
g7
(lp11042
g740
atp11043
Rp11044
(dp11045
g16
VPOS
p11046
sbatp11047
Rp11048
(dp11049
g16
VNP
p11050
sbag5
(g6
g7
(lp11051
g5
(g6
g7
(lp11052
Vident
p11053
atp11054
Rp11055
(dp11056
g16
VJJ
p11057
sbag5
(g6
g7
(lp11058
g734
atp11059
Rp11060
(dp11061
g16
VNN
p11062
sbag5
(g6
g7
(lp11063
g740
atp11064
Rp11065
(dp11066
g16
VPOS
p11067
sbatp11068
Rp11069
(dp11070
g16
VNP
p11071
sbag5
(g6
g7
(lp11072
V\u005c
p11073
atp11074
Rp11075
(dp11076
g16
VNN
p11077
sbag5
(g6
g7
(lp11078
Vu201d
p11079
atp11080
Rp11081
(dp11082
g16
VNNS
p11083
sbatp11084
Rp11085
(dp11086
g16
VNP
p11087
sbag5
(g6
g7
(lp11088
g740
atp11089
Rp11090
(dp11091
g16
V''
p11092
sbatp11093
Rp11094
(dp11095
g16
VVP
p11096
sbag5
(g6
g7
(lp11097
V-RRB-
p11098
atp11099
Rp11100
(dp11101
g16
V-RRB-
p11102
sbatp11103
Rp11104
(dp11105
g16
VPRN
p11106
sbatp11107
Rp11108
(dp11109
g16
VNP
p11110
sbag5
(g6
g7
(lp11111
g5
(g6
g7
(lp11112
Vcontains
p11113
atp11114
Rp11115
(dp11116
g16
VVBZ
p11117
sbag5
(g6
g7
(lp11118
g5
(g6
g7
(lp11119
g5
(g6
g7
(lp11120
Vonly
p11121
atp11122
Rp11123
(dp11124
g16
VJJ
p11125
sbag5
(g6
g7
(lp11126
Vindicator
p11127
atp11128
Rp11129
(dp11130
g16
VNN
p11131
sbag5
(g6
g7
(lp11132
Vfeatures
p11133
atp11134
Rp11135
(dp11136
g16
VNNS
p11137
sbatp11138
Rp11139
(dp11140
g16
VNP
p11141
sbag5
(g6
g7
(lp11142
g5
(g6
g7
(lp11143
Von
p11144
atp11145
Rp11146
(dp11147
g16
VIN
p11148
sbag5
(g6
g7
(lp11149
g5
(g6
g7
(lp11150
Vword
p11151
atp11152
Rp11153
(dp11154
g16
VNN
p11155
sbag5
(g6
g7
(lp11156
Videntity
p11157
atp11158
Rp11159
(dp11160
g16
VNN
p11161
sbatp11162
Rp11163
(dp11164
g16
VNP
p11165
sbatp11166
Rp11167
(dp11168
g16
VPP
p11169
sbatp11170
Rp11171
(dp11172
g16
VNP
p11173
sbag5
(g6
g7
(lp11174
g5
(g6
g7
(lp11175
V-LRB-
p11176
atp11177
Rp11178
(dp11179
g16
V-LRB-
p11180
sbag5
(g6
g7
(lp11181
Vand
p11182
atp11183
Rp11184
(dp11185
g16
VCC
p11186
sbag5
(g6
g7
(lp11187
g5
(g6
g7
(lp11188
Vperforms
p11189
atp11190
Rp11191
(dp11192
g16
VVBZ
p11193
sbag5
(g6
g7
(lp11194
g5
(g6
g7
(lp11195
Vconsiderably
p11196
atp11197
Rp11198
(dp11199
g16
VRB
p11200
sbag5
(g6
g7
(lp11201
Vworse
p11202
atp11203
Rp11204
(dp11205
g16
VJJR
p11206
sbatp11207
Rp11208
(dp11209
g16
VADJP
p11210
sbag5
(g6
g7
(lp11211
g5
(g6
g7
(lp11212
Vthan
p11213
atp11214
Rp11215
(dp11216
g16
VIN
p11217
sbag5
(g6
g7
(lp11218
g5
(g6
g7
(lp11219
Vits
p11220
atp11221
Rp11222
(dp11223
g16
VPRP$
p11224
sbag5
(g6
g7
(lp11225
Vgenerative
p11226
atp11227
Rp11228
(dp11229
g16
VJJ
p11230
sbag5
(g6
g7
(lp11231
Vcounterpart
p11232
atp11233
Rp11234
(dp11235
g16
VNN
p11236
sbatp11237
Rp11238
(dp11239
g16
VNP
p11240
sbatp11241
Rp11242
(dp11243
g16
VPP
p11244
sbatp11245
Rp11246
(dp11247
g16
VVP
p11248
sbatp11249
Rp11250
(dp11251
g16
VPRN
p11252
sbag5
(g6
g7
(lp11253
g5
(g6
g7
(lp11254
Von
p11255
atp11256
Rp11257
(dp11258
g16
VIN
p11259
sbag5
(g6
g7
(lp11260
g5
(g6
g7
(lp11261
Vsmall
p11262
atp11263
Rp11264
(dp11265
g16
VJJ
p11266
sbag5
(g6
g7
(lp11267
Vdata
p11268
atp11269
Rp11270
(dp11271
g16
VNN
p11272
sbag5
(g6
g7
(lp11273
Vsets
p11274
atp11275
Rp11276
(dp11277
g16
VNNS
p11278
sbatp11279
Rp11280
(dp11281
g16
VNP
p11282
sbatp11283
Rp11284
(dp11285
g16
VPP
p11286
sbatp11287
Rp11288
(dp11289
g16
VVP
p11290
sbatp11291
Rp11292
(dp11293
g16
g270
sbatp11294
Rp11295
(dp11296
g16
VROOT
p11297
sbag5
(g6
g7
(lp11298
g5
(g6
g7
(lp11299
g5
(g6
g7
(lp11300
g5
(g6
g7
(lp11301
VAs
p11302
atp11303
Rp11304
(dp11305
g16
VIN
p11306
sbag5
(g6
g7
(lp11307
g5
(g6
g7
(lp11308
g5
(g6
g7
(lp11309
Vdescribed
p11310
atp11311
Rp11312
(dp11313
g16
VVBD
p11314
sbag5
(g6
g7
(lp11315
g5
(g6
g7
(lp11316
Vabove
p11317
atp11318
Rp11319
(dp11320
g16
VRB
p11321
sbatp11322
Rp11323
(dp11324
g16
VADVP
p11325
sbatp11326
Rp11327
(dp11328
g16
VVP
p11329
sbatp11330
Rp11331
(dp11332
g16
g270
sbatp11333
Rp11334
(dp11335
g16
VSBAR
p11336
sbag5
(g6
g7
(lp11337
g193
atp11338
Rp11339
(dp11340
g16
g193
sbag5
(g6
g7
(lp11341
g5
(g6
g7
(lp11342
Vthe
p11343
atp11344
Rp11345
(dp11346
g16
VDT
p11347
sbag5
(g6
g7
(lp11348
Vfull
p11349
atp11350
Rp11351
(dp11352
g16
VJJ
p11353
sbag5
(g6
g7
(lp11354
Vfeatured
p11355
atp11356
Rp11357
(dp11358
g16
VJJ
p11359
sbag5
(g6
g7
(lp11360
Vmodel
p11361
atp11362
Rp11363
(dp11364
g16
VNN
p11365
sbatp11366
Rp11367
(dp11368
g16
VNP
p11369
sbag5
(g6
g7
(lp11370
g5
(g6
g7
(lp11371
Vadds
p11372
atp11373
Rp11374
(dp11375
g16
VVBZ
p11376
sbag5
(g6
g7
(lp11377
g5
(g6
g7
(lp11378
Vindicator
p11379
atp11380
Rp11381
(dp11382
g16
VNN
p11383
sbag5
(g6
g7
(lp11384
Vfeatures
p11385
atp11386
Rp11387
(dp11388
g16
VNNS
p11389
sbatp11390
Rp11391
(dp11392
g16
VNP
p11393
sbag5
(g6
g7
(lp11394
g5
(g6
g7
(lp11395
Von
p11396
atp11397
Rp11398
(dp11399
g16
VIN
p11400
sbag5
(g6
g7
(lp11401
g5
(g6
g7
(lp11402
g5
(g6
g7
(lp11403
Vthe
p11404
atp11405
Rp11406
(dp11407
g16
VDT
p11408
sbag5
(g6
g7
(lp11409
Vbucketed
p11410
atp11411
Rp11412
(dp11413
g16
VJJ
p11414
sbag5
(g6
g7
(lp11415
Vvalue
p11416
atp11417
Rp11418
(dp11419
g16
VNN
p11420
sbatp11421
Rp11422
(dp11423
g16
VNP
p11424
sbag5
(g6
g7
(lp11425
g5
(g6
g7
(lp11426
Vof
p11427
atp11428
Rp11429
(dp11430
g16
VIN
p11431
sbag5
(g6
g7
(lp11432
g5
(g6
g7
(lp11433
g5
(g6
g7
(lp11434
Veach
p11435
atp11436
Rp11437
(dp11438
g16
VDT
p11439
sbag5
(g6
g7
(lp11440
Vdimension
p11441
atp11442
Rp11443
(dp11444
g16
VNN
p11445
sbatp11446
Rp11447
(dp11448
g16
VNP
p11449
sbag5
(g6
g7
(lp11450
g5
(g6
g7
(lp11451
Vof
p11452
atp11453
Rp11454
(dp11455
g16
VIN
p11456
sbag5
(g6
g7
(lp11457
g5
(g6
g7
(lp11458
Vthe
p11459
atp11460
Rp11461
(dp11462
g16
VDT
p11463
sbag5
(g6
g7
(lp11464
Vword
p11465
atp11466
Rp11467
(dp11468
g16
VNN
p11469
sbag5
(g6
g7
(lp11470
Vembedding
p11471
atp11472
Rp11473
(dp11474
g16
VNN
p11475
sbatp11476
Rp11477
(dp11478
g16
VNP
p11479
sbatp11480
Rp11481
(dp11482
g16
VPP
p11483
sbatp11484
Rp11485
(dp11486
g16
VNP
p11487
sbatp11488
Rp11489
(dp11490
g16
VPP
p11491
sbatp11492
Rp11493
(dp11494
g16
VNP
p11495
sbatp11496
Rp11497
(dp11498
g16
VPP
p11499
sbatp11500
Rp11501
(dp11502
g16
VVP
p11503
sbatp11504
Rp11505
(dp11506
g16
g270
sbatp11507
Rp11508
(dp11509
g16
VROOT
p11510
sbasg411
(icmyPackage
CorE
p11511
(dp11512
g414
(lp11513
(I1
I1
tp11514
a(I1
I21
tp11515
asg418
g5
(g6
g7
(lp11516
g11331
ag11339
ag11367
ag11501
atp11517
Rp11518
(dp11519
g16
g429
sbsbsg419
(icmyPackage
CorE
p11520
(dp11521
g414
(lp11522
(I0
I0
tp11523
a(I0
I36
tp11524
asg418
g11295
sbsg430
g1217
sg453
(lp11525
(isxpPackage
sxpSent
p11526
(dp11527
g457
(lp11528
I29
asg459
VA baseline featured model ( u'\u005cu201c' ident u'\u005cu201d' ) contains only indicator features on word identity (and performs considerably worse than its generative counterpart on small data sets
p11529
sg461
I10
sg446
I100
sg462
I26
sba(isxpPackage
sxpSent
p11530
(dp11531
g457
(lp11532
I29
asg459
VAs described above, the full featured model adds indicator features on the bucketed value of each dimension of the word embedding
p11533
sg461
I10
sg446
I101
sg462
I26
sbasba(icmyPackage
CELink
p11534
(dp11535
g3
(lp11536
g5
(g6
g7
(lp11537
g5
(g6
g7
(lp11538
g5
(g6
g7
(lp11539
g5
(g6
g7
(lp11540
VHere
p11541
atp11542
Rp11543
(dp11544
g16
VRB
p11545
sbatp11546
Rp11547
(dp11548
g16
VADVP
p11549
sbag5
(g6
g7
(lp11550
g193
atp11551
Rp11552
(dp11553
g16
g193
sbag5
(g6
g7
(lp11554
g5
(g6
g7
(lp11555
g5
(g6
g7
(lp11556
Vthe
p11557
atp11558
Rp11559
(dp11560
g16
VDT
p11561
sbag5
(g6
g7
(lp11562
Vtrend
p11563
atp11564
Rp11565
(dp11566
g16
VNN
p11567
sbatp11568
Rp11569
(dp11570
g16
VNP
p11571
sbag5
(g6
g7
(lp11572
g5
(g6
g7
(lp11573
Vobserved
p11574
atp11575
Rp11576
(dp11577
g16
VVBN
p11578
sbag5
(g6
g7
(lp11579
g5
(g6
g7
(lp11580
Vin
p11581
atp11582
Rp11583
(dp11584
g16
VIN
p11585
sbag5
(g6
g7
(lp11586
g5
(g6
g7
(lp11587
Vthe
p11588
atp11589
Rp11590
(dp11591
g16
VDT
p11592
sbag5
(g6
g7
(lp11593
Vother
p11594
atp11595
Rp11596
(dp11597
g16
VJJ
p11598
sbag5
(g6
g7
(lp11599
Vtwo
p11600
atp11601
Rp11602
(dp11603
g16
VCD
p11604
sbag5
(g6
g7
(lp11605
Vmodels
p11606
atp11607
Rp11608
(dp11609
g16
VNNS
p11610
sbatp11611
Rp11612
(dp11613
g16
VNP
p11614
sbatp11615
Rp11616
(dp11617
g16
VPP
p11618
sbatp11619
Rp11620
(dp11621
g16
VVP
p11622
sbatp11623
Rp11624
(dp11625
g16
VNP
p11626
sbag5
(g6
g7
(lp11627
g5
(g6
g7
(lp11628
Vis
p11629
atp11630
Rp11631
(dp11632
g16
VVBZ
p11633
sbag5
(g6
g7
(lp11634
g5
(g6
g7
(lp11635
Veven
p11636
atp11637
Rp11638
(dp11639
g16
VRB
p11640
sbag5
(g6
g7
(lp11641
Vmore
p11642
atp11643
Rp11644
(dp11645
g16
VRBR
p11646
sbag5
(g6
g7
(lp11647
Vprominent
p11648
atp11649
Rp11650
(dp11651
g16
VJJ
p11652
sbatp11653
Rp11654
(dp11655
g16
VADJP
p11656
sbag5
(g6
g7
(lp11657
g5
(g6
g7
(lp11658
g5
(g6
g7
(lp11659
g5
(g6
g7
(lp11660
g5
(g6
g7
(lp11661
g5
(g6
g7
(lp11662
g734
atp11663
Rp11664
(dp11665
g16
VNNP
p11666
sbag5
(g6
g7
(lp11667
g740
atp11668
Rp11669
(dp11670
g16
VPOS
p11671
sbatp11672
Rp11673
(dp11674
g16
VNP
p11675
sbag5
(g6
g7
(lp11676
V\u005c
p11677
atp11678
Rp11679
(dp11680
g16
VCD
p11681
sbag5
(g6
g7
(lp11682
Vu2014
p11683
atp11684
Rp11685
(dp11686
g16
VJJ
p11687
sbag5
(g6
g7
(lp11688
g740
atp11689
Rp11690
(dp11691
g16
V''
p11692
sbag5
(g6
g7
(lp11693
Vembedding
p11694
atp11695
Rp11696
(dp11697
g16
VNN
p11698
sbag5
(g6
g7
(lp11699
Vfeatures
p11700
atp11701
Rp11702
(dp11703
g16
VNNS
p11704
sbatp11705
Rp11706
(dp11707
g16
VNP
p11708
sbag5
(g6
g7
(lp11709
g5
(g6
g7
(lp11710
Vlead
p11711
atp11712
Rp11713
(dp11714
g16
VVBP
p11715
sbag5
(g6
g7
(lp11716
g5
(g6
g7
(lp11717
Vto
p11718
atp11719
Rp11720
(dp11721
g16
VTO
p11722
sbag5
(g6
g7
(lp11723
g5
(g6
g7
(lp11724
g5
(g6
g7
(lp11725
Vimprovements
p11726
atp11727
Rp11728
(dp11729
g16
VNNS
p11730
sbatp11731
Rp11732
(dp11733
g16
VNP
p11734
sbag5
(g6
g7
(lp11735
g5
(g6
g7
(lp11736
Vover
p11737
atp11738
Rp11739
(dp11740
g16
VIN
p11741
sbag5
(g6
g7
(lp11742
g5
(g6
g7
(lp11743
Vthe
p11744
atp11745
Rp11746
(dp11747
g16
VDT
p11748
sbag5
(g6
g7
(lp11749
Vfeatured
p11750
atp11751
Rp11752
(dp11753
g16
VJJ
p11754
sbag5
(g6
g7
(lp11755
Vbaseline
p11756
atp11757
Rp11758
(dp11759
g16
VNN
p11760
sbatp11761
Rp11762
(dp11763
g16
VNP
p11764
sbatp11765
Rp11766
(dp11767
g16
VPP
p11768
sbatp11769
Rp11770
(dp11771
g16
VNP
p11772
sbatp11773
Rp11774
(dp11775
g16
VPP
p11776
sbatp11777
Rp11778
(dp11779
g16
VVP
p11780
sbatp11781
Rp11782
(dp11783
g16
g270
sbatp11784
Rp11785
(dp11786
g16
VSBAR
p11787
sbag5
(g6
g7
(lp11788
g193
atp11789
Rp11790
(dp11791
g16
g193
sbag5
(g6
g7
(lp11792
Vbut
p11793
atp11794
Rp11795
(dp11796
g16
VCC
p11797
sbag5
(g6
g7
(lp11798
g5
(g6
g7
(lp11799
Vin
p11800
atp11801
Rp11802
(dp11803
g16
VIN
p11804
sbag5
(g6
g7
(lp11805
g5
(g6
g7
(lp11806
g5
(g6
g7
(lp11807
Vno
p11808
atp11809
Rp11810
(dp11811
g16
VDT
p11812
sbag5
(g6
g7
(lp11813
Vcase
p11814
atp11815
Rp11816
(dp11817
g16
VNN
p11818
sbatp11819
Rp11820
(dp11821
g16
VNP
p11822
sbag5
(g6
g7
(lp11823
g5
(g6
g7
(lp11824
Voutperform
p11825
atp11826
Rp11827
(dp11828
g16
VVBP
p11829
sbag5
(g6
g7
(lp11830
g5
(g6
g7
(lp11831
Vthe
p11832
atp11833
Rp11834
(dp11835
g16
VDT
p11836
sbag5
(g6
g7
(lp11837
Vstandard
p11838
atp11839
Rp11840
(dp11841
g16
VJJ
p11842
sbag5
(g6
g7
(lp11843
Vbaseline
p11844
atp11845
Rp11846
(dp11847
g16
VNN
p11848
sbatp11849
Rp11850
(dp11851
g16
VNP
p11852
sbag5
(g6
g7
(lp11853
g5
(g6
g7
(lp11854
Vwith
p11855
atp11856
Rp11857
(dp11858
g16
VIN
p11859
sbag5
(g6
g7
(lp11860
g5
(g6
g7
(lp11861
g104
atp11862
Rp11863
(dp11864
g16
VDT
p11865
sbag5
(g6
g7
(lp11866
Vgenerative
p11867
atp11868
Rp11869
(dp11870
g16
VJJ
p11871
sbag5
(g6
g7
(lp11872
Vlexicon
p11873
atp11874
Rp11875
(dp11876
g16
VNN
p11877
sbatp11878
Rp11879
(dp11880
g16
VNP
p11881
sbatp11882
Rp11883
(dp11884
g16
VPP
p11885
sbatp11886
Rp11887
(dp11888
g16
VVP
p11889
sbatp11890
Rp11891
(dp11892
g16
g270
sbatp11893
Rp11894
(dp11895
g16
VSBAR
p11896
sbatp11897
Rp11898
(dp11899
g16
VSBAR
p11900
sbatp11901
Rp11902
(dp11903
g16
VVP
p11904
sbatp11905
Rp11906
(dp11907
g16
g270
sbatp11908
Rp11909
(dp11910
g16
VROOT
p11911
sbasg411
(icmyPackage
CorE
p11912
(dp11913
g414
(lp11914
(I0
I14
tp11915
a(I0
I20
tp11916
asg418
g11706
sbsg419
(icmyPackage
CorE
p11917
(dp11918
g414
(lp11919
(I0
I23
tp11920
a(I0
I40
tp11921
asg418
g5
(g6
g7
(lp11922
g11770
ag11790
ag11795
ag11894
atp11923
Rp11924
(dp11925
g16
g429
sbsbsg430
(icmyPackage
pattern
p11926
(dp11927
g433
I0
sg434
I0
sg435
(lp11928
(lp11929
(lp11930
S'lead'
p11931
aS'leads'
p11932
aS'led'
p11933
aaS'to'
p11934
aasg441
(lp11935
I4
aI1
aI1
asg443
(lp11936
S'Multi-disciplinary study will lead to breakthrough in sciences, technologies, engineering and philosophy.'
p11937
asg446
I86
sg447
(lp11938
(lp11939
S'&V-ing/&NP@C@'
p11940
aS'(&CAN/have/has/had)'
p11941
aa(lp11942
S'&NP@R@'
p11943
aS'(&Clause@R@)'
p11944
aasbsg453
(lp11945
(isxpPackage
sxpSent
p11946
(dp11947
g457
(lp11948
I30
asg459
VHere, the trend observed in the other two models is even more prominent u'\u005cu2014' embedding features lead to improvements over the featured baseline, but in no case outperform the standard baseline with a generative lexicon
p11949
sg461
I10
sg446
I102
sg462
I26
sbasba(icmyPackage
CELink
p11950
(dp11951
g3
(lp11952
g5
(g6
g7
(lp11953
g5
(g6
g7
(lp11954
g5
(g6
g7
(lp11955
g5
(g6
g7
(lp11956
VWe
p11957
atp11958
Rp11959
(dp11960
g16
VPRP
p11961
sbatp11962
Rp11963
(dp11964
g16
VNP
p11965
sbag5
(g6
g7
(lp11966
g5
(g6
g7
(lp11967
g5
(g6
g7
(lp11968
Vtake
p11969
atp11970
Rp11971
(dp11972
g16
VVB
p11973
sbag5
(g6
g7
(lp11974
g5
(g6
g7
(lp11975
g5
(g6
g7
(lp11976
Vthe
p11977
atp11978
Rp11979
(dp11980
g16
VDT
p11981
sbag5
(g6
g7
(lp11982
Vbest-performing
p11983
atp11984
Rp11985
(dp11986
g16
VJJS
p11987
sbag5
(g6
g7
(lp11988
Vcombination
p11989
atp11990
Rp11991
(dp11992
g16
VNN
p11993
sbatp11994
Rp11995
(dp11996
g16
VNP
p11997
sbag5
(g6
g7
(lp11998
g5
(g6
g7
(lp11999
Vof
p12000
atp12001
Rp12002
(dp12003
g16
VIN
p12004
sbag5
(g6
g7
(lp12005
g5
(g6
g7
(lp12006
g5
(g6
g7
(lp12007
Vall
p12008
atp12009
Rp12010
(dp12011
g16
VDT
p12012
sbatp12013
Rp12014
(dp12015
g16
VNP
p12016
sbag5
(g6
g7
(lp12017
g5
(g6
g7
(lp12018
Vof
p12019
atp12020
Rp12021
(dp12022
g16
VIN
p12023
sbag5
(g6
g7
(lp12024
g5
(g6
g7
(lp12025
Vthese
p12026
atp12027
Rp12028
(dp12029
g16
VDT
p12030
sbag5
(g6
g7
(lp12031
Vmodels
p12032
atp12033
Rp12034
(dp12035
g16
VNNS
p12036
sbatp12037
Rp12038
(dp12039
g16
VNP
p12040
sbatp12041
Rp12042
(dp12043
g16
VPP
p12044
sbag5
(g6
g7
(lp12045
g5
(g6
g7
(lp12046
V-LRB-
p12047
atp12048
Rp12049
(dp12050
g16
V-LRB-
p12051
sbag5
(g6
g7
(lp12052
g5
(g6
g7
(lp12053
Vbased
p12054
atp12055
Rp12056
(dp12057
g16
VVBN
p12058
sbag5
(g6
g7
(lp12059
g5
(g6
g7
(lp12060
Von
p12061
atp12062
Rp12063
(dp12064
g16
VIN
p12065
sbag5
(g6
g7
(lp12066
g5
(g6
g7
(lp12067
g5
(g6
g7
(lp12068
Vdevelopment
p12069
atp12070
Rp12071
(dp12072
g16
VNN
p12073
sbag5
(g6
g7
(lp12074
Vexperiments
p12075
atp12076
Rp12077
(dp12078
g16
VNNS
p12079
sbatp12080
Rp12081
(dp12082
g16
VNP
p12083
sbag5
(g6
g7
(lp12084
g193
atp12085
Rp12086
(dp12087
g16
g193
sbag5
(g6
g7
(lp12088
g5
(g6
g7
(lp12089
g5
(g6
g7
(lp12090
g5
(g6
g7
(lp12091
g104
atp12092
Rp12093
(dp12094
g16
VDT
p12095
sbag5
(g6
g7
(lp12096
Vcombination
p12097
atp12098
Rp12099
(dp12100
g16
VNN
p12101
sbatp12102
Rp12103
(dp12104
g16
VNP
p12105
sbag5
(g6
g7
(lp12106
g5
(g6
g7
(lp12107
Vof
p12108
atp12109
Rp12110
(dp12111
g16
VIN
p12112
sbag5
(g6
g7
(lp12113
g5
(g6
g7
(lp12114
g5
(g6
g7
(lp12115
Vthe
p12116
atp12117
Rp12118
(dp12119
g16
VDT
p12120
sbag5
(g6
g7
(lp12121
Vlexical
p12122
atp12123
Rp12124
(dp12125
g16
VNN
p12126
sbatp12127
Rp12128
(dp12129
g16
VNP
p12130
sbag5
(g6
g7
(lp12131
g5
(g6
g7
(lp12132
Vpooling
p12133
atp12134
Rp12135
(dp12136
g16
VVBG
p12137
sbag5
(g6
g7
(lp12138
g5
(g6
g7
(lp12139
Vmodel
p12140
atp12141
Rp12142
(dp12143
g16
VNN
p12144
sbatp12145
Rp12146
(dp12147
g16
VNP
p12148
sbag5
(g6
g7
(lp12149
g5
(g6
g7
(lp12150
Vwith
p12151
atp12152
Rp12153
(dp12154
g16
VIN
p12155
sbag5
(g6
g7
(lp12156
g5
(g6
g7
(lp12157
g5
(g6
g7
(lp12158
g734
atp12159
Rp12160
(dp12161
g16
VNNP
p12162
sbag5
(g6
g7
(lp12163
g740
atp12164
Rp12165
(dp12166
g16
VPOS
p12167
sbatp12168
Rp12169
(dp12170
g16
VNP
p12171
sbag5
(g6
g7
(lp12172
g5
(g6
g7
(lp12173
V\u005c
p12174
atp12175
Rp12176
(dp12177
g16
VVBG
p12178
sbag5
(g6
g7
(lp12179
g5
(g6
g7
(lp12180
g5
(g6
g7
(lp12181
Vu0392
p12182
atp12183
Rp12184
(dp12185
g16
VNNP
p12186
sbag5
(g6
g7
(lp12187
g740
atp12188
Rp12189
(dp12190
g16
VPOS
p12191
sbatp12192
Rp12193
(dp12194
g16
VNP
p12195
sbag5
(g6
g7
(lp12196
g5
(g6
g7
(lp12197
g5851
atp12198
Rp12199
(dp12200
g16
VSYM
p12201
sbag5
(g6
g7
(lp12202
g5
(g6
g7
(lp12203
V0.3
p12204
atp12205
Rp12206
(dp12207
g16
VCD
p12208
sbatp12209
Rp12210
(dp12211
g16
VNP
p12212
sbatp12213
Rp12214
(dp12215
g16
VVP
p12216
sbatp12217
Rp12218
(dp12219
g16
g270
sbatp12220
Rp12221
(dp12222
g16
VVP
p12223
sbatp12224
Rp12225
(dp12226
g16
g270
sbatp12227
Rp12228
(dp12229
g16
VPP
p12230
sbatp12231
Rp12232
(dp12233
g16
VVP
p12234
sbatp12235
Rp12236
(dp12237
g16
VNP
p12238
sbatp12239
Rp12240
(dp12241
g16
VPP
p12242
sbatp12243
Rp12244
(dp12245
g16
VNP
p12246
sbag5
(g6
g7
(lp12247
g193
atp12248
Rp12249
(dp12250
g16
g193
sbag5
(g6
g7
(lp12251
Vand
p12252
atp12253
Rp12254
(dp12255
g16
VCC
p12256
sbag5
(g6
g7
(lp12257
g5
(g6
g7
(lp12258
g5
(g6
g7
(lp12259
VOOV
p12260
atp12261
Rp12262
(dp12263
g16
VNNP
p12264
sbatp12265
Rp12266
(dp12267
g16
VNP
p12268
sbag5
(g6
g7
(lp12269
g193
atp12270
Rp12271
(dp12272
g16
g193
sbag5
(g6
g7
(lp12273
g5
(g6
g7
(lp12274
g5
(g6
g7
(lp12275
Vboth
p12276
atp12277
Rp12278
(dp12279
g16
VDT
p12280
sbatp12281
Rp12282
(dp12283
g16
VWHNP
p12284
sbag5
(g6
g7
(lp12285
g5
(g6
g7
(lp12286
g5
(g6
g7
(lp12287
Vusing
p12288
atp12289
Rp12290
(dp12291
g16
VVBG
p12292
sbag5
(g6
g7
(lp12293
g5
(g6
g7
(lp12294
g5
(g6
g7
(lp12295
Vc
p12296
atp12297
Rp12298
(dp12299
g16
VSYM
p12300
sbatp12301
Rp12302
(dp12303
g16
VNP
p12304
sbag5
(g6
g7
(lp12305
g5
(g6
g7
(lp12306
g5013
atp12307
Rp12308
(dp12309
g16
VVB
p12310
sbag5
(g6
g7
(lp12311
g5
(g6
g7
(lp12312
Vword
p12313
atp12314
Rp12315
(dp12316
g16
VNN
p12317
sbag5
(g6
g7
(lp12318
Vembeddings
p12319
atp12320
Rp12321
(dp12322
g16
VNNS
p12323
sbatp12324
Rp12325
(dp12326
g16
VNP
p12327
sbatp12328
Rp12329
(dp12330
g16
VVP
p12331
sbatp12332
Rp12333
(dp12334
g16
g270
sbatp12335
Rp12336
(dp12337
g16
VVP
p12338
sbatp12339
Rp12340
(dp12341
g16
g270
sbatp12342
Rp12343
(dp12344
g16
VSBAR
p12345
sbatp12346
Rp12347
(dp12348
g16
VNP
p12349
sbatp12350
Rp12351
(dp12352
g16
VNP
p12353
sbatp12354
Rp12355
(dp12356
g16
VNP
p12357
sbatp12358
Rp12359
(dp12360
g16
VPP
p12361
sbatp12362
Rp12363
(dp12364
g16
VVP
p12365
sbag5
(g6
g7
(lp12366
V-RRB-
p12367
atp12368
Rp12369
(dp12370
g16
V-RRB-
p12371
sbatp12372
Rp12373
(dp12374
g16
VPRN
p12375
sbatp12376
Rp12377
(dp12378
g16
VNP
p12379
sbatp12380
Rp12381
(dp12382
g16
VPP
p12383
sbatp12384
Rp12385
(dp12386
g16
VNP
p12387
sbatp12388
Rp12389
(dp12390
g16
VVP
p12391
sbag5
(g6
g7
(lp12392
g193
atp12393
Rp12394
(dp12395
g16
g193
sbag5
(g6
g7
(lp12396
Vand
p12397
atp12398
Rp12399
(dp12400
g16
VCC
p12401
sbag5
(g6
g7
(lp12402
g5
(g6
g7
(lp12403
Vevaluate
p12404
atp12405
Rp12406
(dp12407
g16
VVB
p12408
sbag5
(g6
g7
(lp12409
g5
(g6
g7
(lp12410
Vthis
p12411
atp12412
Rp12413
(dp12414
g16
VDT
p12415
sbatp12416
Rp12417
(dp12418
g16
VNP
p12419
sbag5
(g6
g7
(lp12420
g5
(g6
g7
(lp12421
Von
p12422
atp12423
Rp12424
(dp12425
g16
VIN
p12426
sbag5
(g6
g7
(lp12427
g5
(g6
g7
(lp12428
g5
(g6
g7
(lp12429
Vthe
p12430
atp12431
Rp12432
(dp12433
g16
VDT
p12434
sbag5
(g6
g7
(lp12435
VWSJ
p12436
atp12437
Rp12438
(dp12439
g16
VNNP
p12440
sbatp12441
Rp12442
(dp12443
g16
VNP
p12444
sbag5
(g6
g7
(lp12445
g5
(g6
g7
(lp12446
g5
(g6
g7
(lp12447
Vtest
p12448
atp12449
Rp12450
(dp12451
g16
VRB
p12452
sbatp12453
Rp12454
(dp12455
g16
VADVP
p12456
sbag5
(g6
g7
(lp12457
Vset
p12458
atp12459
Rp12460
(dp12461
g16
VVBN
p12462
sbag5
(g6
g7
(lp12463
V-LRB-
p12464
atp12465
Rp12466
(dp12467
g16
V-LRB-
p12468
sbag5
(g6
g7
(lp12469
g5
(g6
g7
(lp12470
VTable
p12471
atp12472
Rp12473
(dp12474
g16
VNNP
p12475
sbag5
(g6
g7
(lp12476
V2
p12477
atp12478
Rp12479
(dp12480
g16
VCD
p12481
sbatp12482
Rp12483
(dp12484
g16
VNP
p12485
sbatp12486
Rp12487
(dp12488
g16
VVP
p12489
sbatp12490
Rp12491
(dp12492
g16
VNP
p12493
sbatp12494
Rp12495
(dp12496
g16
VPP
p12497
sbatp12498
Rp12499
(dp12500
g16
VVP
p12501
sbatp12502
Rp12503
(dp12504
g16
VVP
p12505
sbatp12506
Rp12507
(dp12508
g16
VFRAG
p12509
sbatp12510
Rp12511
(dp12512
g16
VROOT
p12513
sbasg411
(icmyPackage
CorE
p12514
(dp12515
g414
(lp12516
(I0
I13
tp12517
a(I0
I14
tp12518
asg418
g12081
sbsg419
(icmyPackage
CorE
p12519
(dp12520
g414
(lp12521
(I0
I16
tp12522
a(I0
I53
tp12523
asg418
g5
(g6
g7
(lp12524
g12351
ag12369
ag12394
ag12399
ag12499
atp12525
Rp12526
(dp12527
g16
g429
sbsbsg430
(icmyPackage
pattern
p12528
(dp12529
g433
I0
sg434
I0
sg435
(lp12530
(lp12531
S'based'
p12532
aS'on'
p12533
aa(lp12534
g4938
aasg441
(lp12535
I2
aI1
aI1
asg443
(lp12536
S"He said that, based on his own experience, more students have been going back in recent years as their home countries' economies heat up."
p12537
asg446
I47
sg447
(lp12538
(lp12539
a(lp12540
S'&V-ing/&NP@C@'
p12541
aS'(&Clause@C@)'
p12542
aa(lp12543
S'&R'
p12544
aasbsg453
(lp12545
(isxpPackage
sxpSent
p12546
(dp12547
g457
(lp12548
I31
asg459
VWe take the best-performing combination of all of these models (based on development experiments, a combination of the lexical pooling model with u'\u005cu0392' = 0.3 , and OOV, both using c w word embeddings), and evaluate this on the WSJ test set (Table 2
p12549
sg461
I10
sg446
I103
sg462
I27
sbasba(icmyPackage
CELink
p12550
(dp12551
g3
(lp12552
g5
(g6
g7
(lp12553
g5
(g6
g7
(lp12554
g5
(g6
g7
(lp12555
g5
(g6
g7
(lp12556
g5
(g6
g7
(lp12557
VApparent
p12558
atp12559
Rp12560
(dp12561
g16
VJJ
p12562
sbag5
(g6
g7
(lp12563
Vgains
p12564
atp12565
Rp12566
(dp12567
g16
VNNS
p12568
sbatp12569
Rp12570
(dp12571
g16
VNP
p12572
sbag5
(g6
g7
(lp12573
g5
(g6
g7
(lp12574
Vfrom
p12575
atp12576
Rp12577
(dp12578
g16
VIN
p12579
sbag5
(g6
g7
(lp12580
g5
(g6
g7
(lp12581
Vthe
p12582
atp12583
Rp12584
(dp12585
g16
VDT
p12586
sbag5
(g6
g7
(lp12587
VOOV
p12588
atp12589
Rp12590
(dp12591
g16
VNNP
p12592
sbag5
(g6
g7
(lp12593
Vand
p12594
atp12595
Rp12596
(dp12597
g16
VCC
p12598
sbag5
(g6
g7
(lp12599
Vlexicon
p12600
atp12601
Rp12602
(dp12603
g16
VNNP
p12604
sbag5
(g6
g7
(lp12605
Vpooling
p12606
atp12607
Rp12608
(dp12609
g16
VNNP
p12610
sbag5
(g6
g7
(lp12611
Vmodels
p12612
atp12613
Rp12614
(dp12615
g16
VNNS
p12616
sbatp12617
Rp12618
(dp12619
g16
VNP
p12620
sbatp12621
Rp12622
(dp12623
g16
VPP
p12624
sbatp12625
Rp12626
(dp12627
g16
VNP
p12628
sbag5
(g6
g7
(lp12629
g5
(g6
g7
(lp12630
Vremain
p12631
atp12632
Rp12633
(dp12634
g16
VVBP
p12635
sbag5
(g6
g7
(lp12636
g5
(g6
g7
(lp12637
Vso
p12638
atp12639
Rp12640
(dp12641
g16
VRB
p12642
sbag5
(g6
g7
(lp12643
Vsmall
p12644
atp12645
Rp12646
(dp12647
g16
VJJ
p12648
sbag5
(g6
g7
(lp12649
g5
(g6
g7
(lp12650
Vas
p12651
atp12652
Rp12653
(dp12654
g16
VIN
p12655
sbag5
(g6
g7
(lp12656
g5
(g6
g7
(lp12657
g5
(g6
g7
(lp12658
Vto
p12659
atp12660
Rp12661
(dp12662
g16
VTO
p12663
sbag5
(g6
g7
(lp12664
g5
(g6
g7
(lp12665
Vbe
p12666
atp12667
Rp12668
(dp12669
g16
VVB
p12670
sbag5
(g6
g7
(lp12671
g5
(g6
g7
(lp12672
Vstatistically
p12673
atp12674
Rp12675
(dp12676
g16
VRB
p12677
sbag5
(g6
g7
(lp12678
Vindistinguishable
p12679
atp12680
Rp12681
(dp12682
g16
VJJ
p12683
sbatp12684
Rp12685
(dp12686
g16
VADJP
p12687
sbatp12688
Rp12689
(dp12690
g16
VVP
p12691
sbatp12692
Rp12693
(dp12694
g16
VVP
p12695
sbatp12696
Rp12697
(dp12698
g16
g270
sbatp12699
Rp12700
(dp12701
g16
VSBAR
p12702
sbatp12703
Rp12704
(dp12705
g16
VADJP
p12706
sbatp12707
Rp12708
(dp12709
g16
VVP
p12710
sbatp12711
Rp12712
(dp12713
g16
g270
sbatp12714
Rp12715
(dp12716
g16
VROOT
p12717
sbasg411
(icmyPackage
CorE
p12718
(dp12719
g414
(lp12720
(I0
I0
tp12721
a(I0
I11
tp12722
asg418
g5
(g6
g7
(lp12723
g12626
ag12633
ag12640
ag12646
atp12724
Rp12725
(dp12726
g16
g429
sbsbsg419
(icmyPackage
CorE
p12727
(dp12728
g414
(lp12729
(I0
I14
tp12730
a(I0
I16
tp12731
asg418
g12689
sbsg430
(icmyPackage
pattern
p12732
(dp12733
g433
I5
sg434
I0
sg435
(lp12734
(lp12735
S'so'
p12736
aa(lp12737
S'as'
p12738
aS'to'
p12739
aasg441
(lp12740
I3
aI3
aI1
asg443
(lp12741
S'The bottom member comprises a pair of leaning troughs that receive latch edges, so as to fix the seat member on the bottom member.'
p12742
aS'Nerve of the whole body seems to be so strained as to need to break.'
p12743
asg446
I83
sg447
(lp12744
(lp12745
S'&C'
p12746
aS'(,)'
p12747
aa(lp12748
S'(&adj/&adv@C@)'
p12749
aa(lp12750
S'&R'
p12751
aasbsg453
(lp12752
(isxpPackage
sxpSent
p12753
(dp12754
g457
(lp12755
I32
asg459
VApparent gains from the OOV and lexicon pooling models remain so small as to be statistically indistinguishable
p12756
sg461
I10
sg446
I106
sg462
I28
sbasba(icmyPackage
CELink
p12757
(dp12758
g3
(lp12759
g5
(g6
g7
(lp12760
g5
(g6
g7
(lp12761
g5
(g6
g7
(lp12762
g5
(g6
g7
(lp12763
g5
(g6
g7
(lp12764
VEvaluation
p12765
atp12766
Rp12767
(dp12768
g16
VNNP
p12769
sbatp12770
Rp12771
(dp12772
g16
VNP
p12773
sbag5
(g6
g7
(lp12774
g5
(g6
g7
(lp12775
Vof
p12776
atp12777
Rp12778
(dp12779
g16
VIN
p12780
sbag5
(g6
g7
(lp12781
g5
(g6
g7
(lp12782
Vthese
p12783
atp12784
Rp12785
(dp12786
g16
VDT
p12787
sbag5
(g6
g7
(lp12788
Vmodified
p12789
atp12790
Rp12791
(dp12792
g16
VVBN
p12793
sbag5
(g6
g7
(lp12794
Vparsers
p12795
atp12796
Rp12797
(dp12798
g16
VNNS
p12799
sbatp12800
Rp12801
(dp12802
g16
VNP
p12803
sbatp12804
Rp12805
(dp12806
g16
VPP
p12807
sbatp12808
Rp12809
(dp12810
g16
VNP
p12811
sbag5
(g6
g7
(lp12812
g5
(g6
g7
(lp12813
Vrevealed
p12814
atp12815
Rp12816
(dp12817
g16
VVBD
p12818
sbag5
(g6
g7
(lp12819
g5
(g6
g7
(lp12820
Vmodest
p12821
atp12822
Rp12823
(dp12824
g16
VJJ
p12825
sbag5
(g6
g7
(lp12826
Vgains
p12827
atp12828
Rp12829
(dp12830
g16
VNNS
p12831
sbatp12832
Rp12833
(dp12834
g16
VNP
p12835
sbag5
(g6
g7
(lp12836
g5
(g6
g7
(lp12837
Von
p12838
atp12839
Rp12840
(dp12841
g16
VIN
p12842
sbag5
(g6
g7
(lp12843
g5
(g6
g7
(lp12844
g5
(g6
g7
(lp12845
g5
(g6
g7
(lp12846
Vextremely
p12847
atp12848
Rp12849
(dp12850
g16
VRB
p12851
sbag5
(g6
g7
(lp12852
Vsmall
p12853
atp12854
Rp12855
(dp12856
g16
VJJ
p12857
sbatp12858
Rp12859
(dp12860
g16
VADJP
p12861
sbag5
(g6
g7
(lp12862
Vtraining
p12863
atp12864
Rp12865
(dp12866
g16
VNN
p12867
sbag5
(g6
g7
(lp12868
Vsets
p12869
atp12870
Rp12871
(dp12872
g16
VNNS
p12873
sbatp12874
Rp12875
(dp12876
g16
VNP
p12877
sbag5
(g6
g7
(lp12878
g193
atp12879
Rp12880
(dp12881
g16
g193
sbag5
(g6
g7
(lp12882
g5
(g6
g7
(lp12883
g5
(g6
g7
(lp12884
Vwhich
p12885
atp12886
Rp12887
(dp12888
g16
VWDT
p12889
sbatp12890
Rp12891
(dp12892
g16
VWHNP
p12893
sbag5
(g6
g7
(lp12894
g5
(g6
g7
(lp12895
g5
(g6
g7
(lp12896
Vquickly
p12897
atp12898
Rp12899
(dp12900
g16
VRB
p12901
sbatp12902
Rp12903
(dp12904
g16
VADVP
p12905
sbag5
(g6
g7
(lp12906
g5
(g6
g7
(lp12907
Vvanish
p12908
atp12909
Rp12910
(dp12911
g16
VVBP
p12912
sbag5
(g6
g7
(lp12913
g5
(g6
g7
(lp12914
Vas
p12915
atp12916
Rp12917
(dp12918
g16
VIN
p12919
sbag5
(g6
g7
(lp12920
g5
(g6
g7
(lp12921
g5
(g6
g7
(lp12922
Vtraining
p12923
atp12924
Rp12925
(dp12926
g16
VNN
p12927
sbatp12928
Rp12929
(dp12930
g16
VNP
p12931
sbag5
(g6
g7
(lp12932
g5
(g6
g7
(lp12933
Vset
p12934
atp12935
Rp12936
(dp12937
g16
VVBD
p12938
sbag5
(g6
g7
(lp12939
g5
(g6
g7
(lp12940
Vsize
p12941
atp12942
Rp12943
(dp12944
g16
VNN
p12945
sbag5
(g6
g7
(lp12946
Vincreases
p12947
atp12948
Rp12949
(dp12950
g16
VNNS
p12951
sbatp12952
Rp12953
(dp12954
g16
VNP
p12955
sbatp12956
Rp12957
(dp12958
g16
VVP
p12959
sbatp12960
Rp12961
(dp12962
g16
g270
sbatp12963
Rp12964
(dp12965
g16
VSBAR
p12966
sbatp12967
Rp12968
(dp12969
g16
VVP
p12970
sbatp12971
Rp12972
(dp12973
g16
g270
sbatp12974
Rp12975
(dp12976
g16
VSBAR
p12977
sbatp12978
Rp12979
(dp12980
g16
VNP
p12981
sbatp12982
Rp12983
(dp12984
g16
VPP
p12985
sbatp12986
Rp12987
(dp12988
g16
VVP
p12989
sbatp12990
Rp12991
(dp12992
g16
g270
sbatp12993
Rp12994
(dp12995
g16
VROOT
p12996
sbasg411
(icmyPackage
CorE
p12997
(dp12998
g414
(lp12999
(I0
I18
tp13000
a(I0
I20
tp13001
asg418
g5
(g6
g7
(lp13002
g12929
ag12936
ag12943
atp13003
Rp13004
(dp13005
g16
g429
sbsbsg419
(icmyPackage
CorE
p13006
(dp13007
g414
(lp13008
(I0
I0
tp13009
a(I0
I16
tp13010
asg418
g5
(g6
g7
(lp13011
g12809
ag12816
ag12833
ag12840
ag12875
ag12880
ag12891
ag12903
ag12910
atp13012
Rp13013
(dp13014
g16
g429
sbsbsg430
g1217
sg453
(lp13015
(isxpPackage
sxpSent
p13016
(dp13017
g457
(lp13018
I33
aI34
asg459
VEvaluation of these modified parsers revealed modest gains on extremely small training sets, which quickly vanish as training set size increases
p13019
sg461
I11
sg446
I108
sg462
I29
sbasba(icmyPackage
CELink
p13020
(dp13021
g3
(lp13022
g12994
ag5
(g6
g7
(lp13023
g5
(g6
g7
(lp13024
g5
(g6
g7
(lp13025
g5
(g6
g7
(lp13026
VThus
p13027
atp13028
Rp13029
(dp13030
g16
VRB
p13031
sbatp13032
Rp13033
(dp13034
g16
VADVP
p13035
sbag5
(g6
g7
(lp13036
g193
atp13037
Rp13038
(dp13039
g16
g193
sbag5
(g6
g7
(lp13040
g5
(g6
g7
(lp13041
Vat
p13042
atp13043
Rp13044
(dp13045
g16
VIN
p13046
sbag5
(g6
g7
(lp13047
g5
(g6
g7
(lp13048
g5
(g6
g7
(lp13049
Vleast
p13050
atp13051
Rp13052
(dp13053
g16
VJJS
p13054
sbatp13055
Rp13056
(dp13057
g16
VNP
p13058
sbag5
(g6
g7
(lp13059
g5
(g6
g7
(lp13060
Vrestricted
p13061
atp13062
Rp13063
(dp13064
g16
VVBN
p13065
sbag5
(g6
g7
(lp13066
g5
(g6
g7
(lp13067
Vto
p13068
atp13069
Rp13070
(dp13071
g16
VTO
p13072
sbag5
(g6
g7
(lp13073
g5
(g6
g7
(lp13074
g5
(g6
g7
(lp13075
Vphenomena
p13076
atp13077
Rp13078
(dp13079
g16
VNNS
p13080
sbatp13081
Rp13082
(dp13083
g16
VNP
p13084
sbag5
(g6
g7
(lp13085
g5
(g6
g7
(lp13086
g5
(g6
g7
(lp13087
Vwhich
p13088
atp13089
Rp13090
(dp13091
g16
VWDT
p13092
sbatp13093
Rp13094
(dp13095
g16
VWHNP
p13096
sbag5
(g6
g7
(lp13097
g5
(g6
g7
(lp13098
g5
(g6
g7
(lp13099
Vcan
p13100
atp13101
Rp13102
(dp13103
g16
VMD
p13104
sbag5
(g6
g7
(lp13105
g5
(g6
g7
(lp13106
Vbe
p13107
atp13108
Rp13109
(dp13110
g16
VVB
p13111
sbag5
(g6
g7
(lp13112
g5
(g6
g7
(lp13113
Vexplained
p13114
atp13115
Rp13116
(dp13117
g16
VVBN
p13118
sbag5
(g6
g7
(lp13119
g5
(g6
g7
(lp13120
Vby
p13121
atp13122
Rp13123
(dp13124
g16
VIN
p13125
sbag5
(g6
g7
(lp13126
g5
(g6
g7
(lp13127
g5
(g6
g7
(lp13128
Vthe
p13129
atp13130
Rp13131
(dp13132
g16
VDT
p13133
sbag5
(g6
g7
(lp13134
Vexperiments
p13135
atp13136
Rp13137
(dp13138
g16
VNNS
p13139
sbatp13140
Rp13141
(dp13142
g16
VNP
p13143
sbag5
(g6
g7
(lp13144
g5
(g6
g7
(lp13145
Vdescribed
p13146
atp13147
Rp13148
(dp13149
g16
VVBN
p13150
sbag5
(g6
g7
(lp13151
g5
(g6
g7
(lp13152
Vhere
p13153
atp13154
Rp13155
(dp13156
g16
VRB
p13157
sbatp13158
Rp13159
(dp13160
g16
VADVP
p13161
sbatp13162
Rp13163
(dp13164
g16
VVP
p13165
sbatp13166
Rp13167
(dp13168
g16
VNP
p13169
sbatp13170
Rp13171
(dp13172
g16
VPP
p13173
sbatp13174
Rp13175
(dp13176
g16
VVP
p13177
sbatp13178
Rp13179
(dp13180
g16
VVP
p13181
sbatp13182
Rp13183
(dp13184
g16
VVP
p13185
sbatp13186
Rp13187
(dp13188
g16
g270
sbatp13189
Rp13190
(dp13191
g16
VSBAR
p13192
sbatp13193
Rp13194
(dp13195
g16
VNP
p13196
sbatp13197
Rp13198
(dp13199
g16
VPP
p13200
sbatp13201
Rp13202
(dp13203
g16
VVP
p13204
sbatp13205
Rp13206
(dp13207
g16
VNP
p13208
sbatp13209
Rp13210
(dp13211
g16
VPP
p13212
sbag5
(g6
g7
(lp13213
g193
atp13214
Rp13215
(dp13216
g16
g193
sbag5
(g6
g7
(lp13217
g5
(g6
g7
(lp13218
Vour
p13219
atp13220
Rp13221
(dp13222
g16
VPRP$
p13223
sbag5
(g6
g7
(lp13224
Vresults
p13225
atp13226
Rp13227
(dp13228
g16
VNNS
p13229
sbatp13230
Rp13231
(dp13232
g16
VNP
p13233
sbag5
(g6
g7
(lp13234
g5
(g6
g7
(lp13235
Vare
p13236
atp13237
Rp13238
(dp13239
g16
VVBP
p13240
sbag5
(g6
g7
(lp13241
g5
(g6
g7
(lp13242
Vconsistent
p13243
atp13244
Rp13245
(dp13246
g16
VJJ
p13247
sbag5
(g6
g7
(lp13248
g5
(g6
g7
(lp13249
Vwith
p13250
atp13251
Rp13252
(dp13253
g16
VIN
p13254
sbag5
(g6
g7
(lp13255
g5
(g6
g7
(lp13256
Vtwo
p13257
atp13258
Rp13259
(dp13260
g16
VCD
p13261
sbag5
(g6
g7
(lp13262
Vclaims
p13263
atp13264
Rp13265
(dp13266
g16
VNNS
p13267
sbatp13268
Rp13269
(dp13270
g16
VNP
p13271
sbatp13272
Rp13273
(dp13274
g16
VPP
p13275
sbatp13276
Rp13277
(dp13278
g16
VADJP
p13279
sbatp13280
Rp13281
(dp13282
g16
VVP
p13283
sbatp13284
Rp13285
(dp13286
g16
g270
sbatp13287
Rp13288
(dp13289
g16
VROOT
p13290
sbasg411
(icmyPackage
CorE
p13291
(dp13292
g414
(lp13293
(I0
I0
tp13294
a(I0
I21
tp13295
asg418
g12994
sbsg419
(icmyPackage
CorE
p13296
(dp13297
g414
(lp13298
(I1
I1
tp13299
a(I1
I23
tp13300
asg418
g5
(g6
g7
(lp13301
g13038
ag13210
ag13215
ag13231
ag13281
atp13302
Rp13303
(dp13304
g16
g429
sbsbsg430
g3290
sg453
(lp13305
g13016
a(isxpPackage
sxpSent
p13306
(dp13307
g457
(lp13308
I34
asg459
VThus, at least restricted to phenomena which can be explained by the experiments described here, our results are consistent with two claims
p13309
sg461
I11
sg446
I109
sg462
I29
sbasba(icmyPackage
CELink
p13310
(dp13311
g3
(lp13312
g5
(g6
g7
(lp13313
g5
(g6
g7
(lp13314
g5
(g6
g7
(lp13315
g5
(g6
g7
(lp13316
VHowever
p13317
atp13318
Rp13319
(dp13320
g16
VRB
p13321
sbatp13322
Rp13323
(dp13324
g16
VADVP
p13325
sbag5
(g6
g7
(lp13326
g193
atp13327
Rp13328
(dp13329
g16
g193
sbag5
(g6
g7
(lp13330
g5
(g6
g7
(lp13331
Vthe
p13332
atp13333
Rp13334
(dp13335
g16
VDT
p13336
sbag5
(g6
g7
(lp13337
Vfailure
p13338
atp13339
Rp13340
(dp13341
g16
VNN
p13342
sbag5
(g6
g7
(lp13343
g5
(g6
g7
(lp13344
g5
(g6
g7
(lp13345
Vto
p13346
atp13347
Rp13348
(dp13349
g16
VTO
p13350
sbag5
(g6
g7
(lp13351
g5
(g6
g7
(lp13352
Vuncover
p13353
atp13354
Rp13355
(dp13356
g16
VVB
p13357
sbag5
(g6
g7
(lp13358
g5
(g6
g7
(lp13359
Vgains
p13360
atp13361
Rp13362
(dp13363
g16
VNNS
p13364
sbatp13365
Rp13366
(dp13367
g16
VNP
p13368
sbag5
(g6
g7
(lp13369
g5
(g6
g7
(lp13370
g5
(g6
g7
(lp13371
Vwhen
p13372
atp13373
Rp13374
(dp13375
g16
VWRB
p13376
sbatp13377
Rp13378
(dp13379
g16
VWHADVP
p13380
sbag5
(g6
g7
(lp13381
g5
(g6
g7
(lp13382
g5
(g6
g7
(lp13383
g5
(g6
g7
(lp13384
Vsearching
p13385
atp13386
Rp13387
(dp13388
g16
VVBG
p13389
sbag5
(g6
g7
(lp13390
g5
(g6
g7
(lp13391
Vacross
p13392
atp13393
Rp13394
(dp13395
g16
VIN
p13396
sbag5
(g6
g7
(lp13397
g5
(g6
g7
(lp13398
g5
(g6
g7
(lp13399
g104
atp13400
Rp13401
(dp13402
g16
VDT
p13403
sbag5
(g6
g7
(lp13404
Vvariety
p13405
atp13406
Rp13407
(dp13408
g16
VNN
p13409
sbatp13410
Rp13411
(dp13412
g16
VNP
p13413
sbag5
(g6
g7
(lp13414
g5
(g6
g7
(lp13415
Vof
p13416
atp13417
Rp13418
(dp13419
g16
VIN
p13420
sbag5
(g6
g7
(lp13421
g5
(g6
g7
(lp13422
g5
(g6
g7
(lp13423
Vpossible
p13424
atp13425
Rp13426
(dp13427
g16
VJJ
p13428
sbag5
(g6
g7
(lp13429
Vmechanisms
p13430
atp13431
Rp13432
(dp13433
g16
VNNS
p13434
sbatp13435
Rp13436
(dp13437
g16
VNP
p13438
sbag5
(g6
g7
(lp13439
g5
(g6
g7
(lp13440
Vfor
p13441
atp13442
Rp13443
(dp13444
g16
VIN
p13445
sbag5
(g6
g7
(lp13446
g5
(g6
g7
(lp13447
Vimprovement
p13448
atp13449
Rp13450
(dp13451
g16
VNN
p13452
sbatp13453
Rp13454
(dp13455
g16
VNP
p13456
sbatp13457
Rp13458
(dp13459
g16
VPP
p13460
sbatp13461
Rp13462
(dp13463
g16
VNP
p13464
sbatp13465
Rp13466
(dp13467
g16
VPP
p13468
sbatp13469
Rp13470
(dp13471
g16
VNP
p13472
sbatp13473
Rp13474
(dp13475
g16
VPP
p13476
sbatp13477
Rp13478
(dp13479
g16
VVP
p13480
sbatp13481
Rp13482
(dp13483
g16
g270
sbag5
(g6
g7
(lp13484
g193
atp13485
Rp13486
(dp13487
g16
g193
sbag5
(g6
g7
(lp13488
g5
(g6
g7
(lp13489
g5
(g6
g7
(lp13490
Vtraining
p13491
atp13492
Rp13493
(dp13494
g16
VVBG
p13495
sbag5
(g6
g7
(lp13496
g5
(g6
g7
(lp13497
Vprocedures
p13498
atp13499
Rp13500
(dp13501
g16
VNNS
p13502
sbatp13503
Rp13504
(dp13505
g16
VNP
p13506
sbag5
(g6
g7
(lp13507
g5
(g6
g7
(lp13508
Vfor
p13509
atp13510
Rp13511
(dp13512
g16
VIN
p13513
sbag5
(g6
g7
(lp13514
g5
(g6
g7
(lp13515
Vembeddings
p13516
atp13517
Rp13518
(dp13519
g16
VNNS
p13520
sbag5
(g6
g7
(lp13521
g193
atp13522
Rp13523
(dp13524
g16
g193
sbag5
(g6
g7
(lp13525
Vhyperparameter
p13526
atp13527
Rp13528
(dp13529
g16
VNN
p13530
sbag5
(g6
g7
(lp13531
Vsettings
p13532
atp13533
Rp13534
(dp13535
g16
VNNS
p13536
sbag5
(g6
g7
(lp13537
g193
atp13538
Rp13539
(dp13540
g16
g193
sbag5
(g6
g7
(lp13541
Vtasks
p13542
atp13543
Rp13544
(dp13545
g16
VNNS
p13546
sbag5
(g6
g7
(lp13547
g193
atp13548
Rp13549
(dp13550
g16
g193
sbag5
(g6
g7
(lp13551
Vand
p13552
atp13553
Rp13554
(dp13555
g16
VCC
p13556
sbag5
(g6
g7
(lp13557
Vresource
p13558
atp13559
Rp13560
(dp13561
g16
VNN
p13562
sbag5
(g6
g7
(lp13563
Vscenarios
p13564
atp13565
Rp13566
(dp13567
g16
VNNS
p13568
sbatp13569
Rp13570
(dp13571
g16
VNP
p13572
sbatp13573
Rp13574
(dp13575
g16
VPP
p13576
sbatp13577
Rp13578
(dp13579
g16
VVP
p13580
sbatp13581
Rp13582
(dp13583
g16
g270
sbatp13584
Rp13585
(dp13586
g16
g270
sbatp13587
Rp13588
(dp13589
g16
VSBAR
p13590
sbatp13591
Rp13592
(dp13593
g16
VVP
p13594
sbatp13595
Rp13596
(dp13597
g16
VVP
p13598
sbatp13599
Rp13600
(dp13601
g16
g270
sbatp13602
Rp13603
(dp13604
g16
VNP
p13605
sbag5
(g6
g7
(lp13606
g5
(g6
g7
(lp13607
Vsuggests
p13608
atp13609
Rp13610
(dp13611
g16
VVBZ
p13612
sbag5
(g6
g7
(lp13613
g5
(g6
g7
(lp13614
Vthat
p13615
atp13616
Rp13617
(dp13618
g16
VIN
p13619
sbag5
(g6
g7
(lp13620
g5
(g6
g7
(lp13621
g5
(g6
g7
(lp13622
g5
(g6
g7
(lp13623
Vthese
p13624
atp13625
Rp13626
(dp13627
g16
VDT
p13628
sbag5
(g6
g7
(lp13629
Vgains
p13630
atp13631
Rp13632
(dp13633
g16
VNNS
p13634
sbatp13635
Rp13636
(dp13637
g16
VNP
p13638
sbag5
(g6
g7
(lp13639
g5
(g6
g7
(lp13640
V-LRB-
p13641
atp13642
Rp13643
(dp13644
g16
V-LRB-
p13645
sbag5
(g6
g7
(lp13646
g5
(g6
g7
(lp13647
Vif
p13648
atp13649
Rp13650
(dp13651
g16
VIN
p13652
sbag5
(g6
g7
(lp13653
g5
(g6
g7
(lp13654
g5
(g6
g7
(lp13655
Vthey
p13656
atp13657
Rp13658
(dp13659
g16
VPRP
p13660
sbatp13661
Rp13662
(dp13663
g16
VNP
p13664
sbag5
(g6
g7
(lp13665
g5
(g6
g7
(lp13666
Vdo
p13667
atp13668
Rp13669
(dp13670
g16
VVBP
p13671
sbag5
(g6
g7
(lp13672
g5
(g6
g7
(lp13673
Vexist
p13674
atp13675
Rp13676
(dp13677
g16
VVB
p13678
sbatp13679
Rp13680
(dp13681
g16
VVP
p13682
sbatp13683
Rp13684
(dp13685
g16
VVP
p13686
sbatp13687
Rp13688
(dp13689
g16
g270
sbatp13690
Rp13691
(dp13692
g16
VSBAR
p13693
sbag5
(g6
g7
(lp13694
V-RRB-
p13695
atp13696
Rp13697
(dp13698
g16
V-RRB-
p13699
sbatp13700
Rp13701
(dp13702
g16
VPRN
p13703
sbatp13704
Rp13705
(dp13706
g16
VNP
p13707
sbag5
(g6
g7
(lp13708
g5
(g6
g7
(lp13709
Vare
p13710
atp13711
Rp13712
(dp13713
g16
VVBP
p13714
sbag5
(g6
g7
(lp13715
g5
(g6
g7
(lp13716
Vextremely
p13717
atp13718
Rp13719
(dp13720
g16
VRB
p13721
sbag5
(g6
g7
(lp13722
Vsensitive
p13723
atp13724
Rp13725
(dp13726
g16
VJJ
p13727
sbag5
(g6
g7
(lp13728
g5
(g6
g7
(lp13729
Vto
p13730
atp13731
Rp13732
(dp13733
g16
VTO
p13734
sbag5
(g6
g7
(lp13735
g5
(g6
g7
(lp13736
Vthese
p13737
atp13738
Rp13739
(dp13740
g16
VDT
p13741
sbag5
(g6
g7
(lp13742
Vtraining
p13743
atp13744
Rp13745
(dp13746
g16
VNN
p13747
sbag5
(g6
g7
(lp13748
Vconditions
p13749
atp13750
Rp13751
(dp13752
g16
VNNS
p13753
sbatp13754
Rp13755
(dp13756
g16
VNP
p13757
sbatp13758
Rp13759
(dp13760
g16
VPP
p13761
sbatp13762
Rp13763
(dp13764
g16
VADJP
p13765
sbag5
(g6
g7
(lp13766
g5
(g6
g7
(lp13767
g193
atp13768
Rp13769
(dp13770
g16
g193
sbag5
(g6
g7
(lp13771
Vand
p13772
atp13773
Rp13774
(dp13775
g16
VCC
p13776
sbag5
(g6
g7
(lp13777
Vnot
p13778
atp13779
Rp13780
(dp13781
g16
VRB
p13782
sbag5
(g6
g7
(lp13783
g5
(g6
g7
(lp13784
g5
(g6
g7
(lp13785
Vnearly
p13786
atp13787
Rp13788
(dp13789
g16
VRB
p13790
sbatp13791
Rp13792
(dp13793
g16
VADVP
p13794
sbag5
(g6
g7
(lp13795
Vas
p13796
atp13797
Rp13798
(dp13799
g16
VIN
p13800
sbag5
(g6
g7
(lp13801
g5
(g6
g7
(lp13802
Vaccessible
p13803
atp13804
Rp13805
(dp13806
g16
VJJ
p13807
sbatp13808
Rp13809
(dp13810
g16
VADJP
p13811
sbatp13812
Rp13813
(dp13814
g16
VPP
p13815
sbatp13816
Rp13817
(dp13818
g16
VPRN
p13819
sbag5
(g6
g7
(lp13820
g5
(g6
g7
(lp13821
Vas
p13822
atp13823
Rp13824
(dp13825
g16
VIN
p13826
sbag5
(g6
g7
(lp13827
g5
(g6
g7
(lp13828
g5
(g6
g7
(lp13829
Vthey
p13830
atp13831
Rp13832
(dp13833
g16
VPRP
p13834
sbatp13835
Rp13836
(dp13837
g16
VNP
p13838
sbag5
(g6
g7
(lp13839
g5
(g6
g7
(lp13840
Vseem
p13841
atp13842
Rp13843
(dp13844
g16
VVBP
p13845
sbag5
(g6
g7
(lp13846
g5
(g6
g7
(lp13847
g5
(g6
g7
(lp13848
Vto
p13849
atp13850
Rp13851
(dp13852
g16
VTO
p13853
sbag5
(g6
g7
(lp13854
g5
(g6
g7
(lp13855
Vbe
p13856
atp13857
Rp13858
(dp13859
g16
VVB
p13860
sbag5
(g6
g7
(lp13861
g5
(g6
g7
(lp13862
Vin
p13863
atp13864
Rp13865
(dp13866
g16
VIN
p13867
sbag5
(g6
g7
(lp13868
g5
(g6
g7
(lp13869
Vdependency
p13870
atp13871
Rp13872
(dp13873
g16
VJJ
p13874
sbag5
(g6
g7
(lp13875
Vparsers
p13876
atp13877
Rp13878
(dp13879
g16
VNNS
p13880
sbatp13881
Rp13882
(dp13883
g16
VNP
p13884
sbatp13885
Rp13886
(dp13887
g16
VPP
p13888
sbatp13889
Rp13890
(dp13891
g16
VVP
p13892
sbatp13893
Rp13894
(dp13895
g16
VVP
p13896
sbatp13897
Rp13898
(dp13899
g16
g270
sbatp13900
Rp13901
(dp13902
g16
VVP
p13903
sbatp13904
Rp13905
(dp13906
g16
g270
sbatp13907
Rp13908
(dp13909
g16
VSBAR
p13910
sbatp13911
Rp13912
(dp13913
g16
VVP
p13914
sbatp13915
Rp13916
(dp13917
g16
g270
sbatp13918
Rp13919
(dp13920
g16
VSBAR
p13921
sbatp13922
Rp13923
(dp13924
g16
VVP
p13925
sbatp13926
Rp13927
(dp13928
g16
g270
sbatp13929
Rp13930
(dp13931
g16
VROOT
p13932
sbag5
(g6
g7
(lp13933
g5
(g6
g7
(lp13934
g5
(g6
g7
(lp13935
g5
(g6
g7
(lp13936
VIndeed
p13937
atp13938
Rp13939
(dp13940
g16
VRB
p13941
sbatp13942
Rp13943
(dp13944
g16
VADVP
p13945
sbag5
(g6
g7
(lp13946
g193
atp13947
Rp13948
(dp13949
g16
g193
sbag5
(g6
g7
(lp13950
g5
(g6
g7
(lp13951
Vour
p13952
atp13953
Rp13954
(dp13955
g16
VPRP$
p13956
sbag5
(g6
g7
(lp13957
Vresults
p13958
atp13959
Rp13960
(dp13961
g16
VNNS
p13962
sbatp13963
Rp13964
(dp13965
g16
VNP
p13966
sbag5
(g6
g7
(lp13967
g5
(g6
g7
(lp13968
Vsuggest
p13969
atp13970
Rp13971
(dp13972
g16
VVBP
p13973
sbag5
(g6
g7
(lp13974
g5
(g6
g7
(lp13975
g104
atp13976
Rp13977
(dp13978
g16
VDT
p13979
sbag5
(g6
g7
(lp13980
Vhypothesis
p13981
atp13982
Rp13983
(dp13984
g16
VNNS
p13985
sbatp13986
Rp13987
(dp13988
g16
VNP
p13989
sbag5
(g6
g7
(lp13990
g5
(g6
g7
(lp13991
Vthat
p13992
atp13993
Rp13994
(dp13995
g16
VIN
p13996
sbag5
(g6
g7
(lp13997
g5
(g6
g7
(lp13998
g5
(g6
g7
(lp13999
Vword
p14000
atp14001
Rp14002
(dp14003
g16
VNN
p14004
sbag5
(g6
g7
(lp14005
Vembeddings
p14006
atp14007
Rp14008
(dp14009
g16
VNNS
p14010
sbatp14011
Rp14012
(dp14013
g16
VNP
p14014
sbag5
(g6
g7
(lp14015
g5
(g6
g7
(lp14016
Vare
p14017
atp14018
Rp14019
(dp14020
g16
VVBP
p14021
sbag5
(g6
g7
(lp14022
g5
(g6
g7
(lp14023
Vuseful
p14024
atp14025
Rp14026
(dp14027
g16
VJJ
p14028
sbag5
(g6
g7
(lp14029
g5
(g6
g7
(lp14030
Vfor
p14031
atp14032
Rp14033
(dp14034
g16
VIN
p14035
sbag5
(g6
g7
(lp14036
g5
(g6
g7
(lp14037
Vdependency
p14038
atp14039
Rp14040
(dp14041
g16
VJJ
p14042
sbag5
(g6
g7
(lp14043
Vparsing
p14044
atp14045
Rp14046
(dp14047
g16
VNN
p14048
sbatp14049
Rp14050
(dp14051
g16
VNP
p14052
sbatp14053
Rp14054
(dp14055
g16
VPP
p14056
sbatp14057
Rp14058
(dp14059
g16
VADJP
p14060
sbag5
(g6
g7
(lp14061
g5
(g6
g7
(lp14062
V-LRB-
p14063
atp14064
Rp14065
(dp14066
g16
V-LRB-
p14067
sbag5
(g6
g7
(lp14068
Vand
p14069
atp14070
Rp14071
(dp14072
g16
VCC
p14073
sbag5
(g6
g7
(lp14074
g5
(g6
g7
(lp14075
g5
(g6
g7
(lp14076
Vperhaps
p14077
atp14078
Rp14079
(dp14080
g16
VRB
p14081
sbatp14082
Rp14083
(dp14084
g16
VADVP
p14085
sbag5
(g6
g7
(lp14086
g5
(g6
g7
(lp14087
Vother
p14088
atp14089
Rp14090
(dp14091
g16
VJJ
p14092
sbag5
(g6
g7
(lp14093
Vtasks
p14094
atp14095
Rp14096
(dp14097
g16
VNNS
p14098
sbatp14099
Rp14100
(dp14101
g16
VNP
p14102
sbatp14103
Rp14104
(dp14105
g16
VFRAG
p14106
sbag5
(g6
g7
(lp14107
V-RRB-
p14108
atp14109
Rp14110
(dp14111
g16
V-RRB-
p14112
sbatp14113
Rp14114
(dp14115
g16
VPRN
p14116
sbag5
(g6
g7
(lp14117
g5
(g6
g7
(lp14118
Vbecause
p14119
atp14120
Rp14121
(dp14122
g16
VIN
p14123
sbag5
(g6
g7
(lp14124
g5
(g6
g7
(lp14125
g5
(g6
g7
(lp14126
Vthey
p14127
atp14128
Rp14129
(dp14130
g16
VPRP
p14131
sbatp14132
Rp14133
(dp14134
g16
VNP
p14135
sbag5
(g6
g7
(lp14136
g5
(g6
g7
(lp14137
Vprovide
p14138
atp14139
Rp14140
(dp14141
g16
VVBP
p14142
sbag5
(g6
g7
(lp14143
g5
(g6
g7
(lp14144
g5
(g6
g7
(lp14145
g104
atp14146
Rp14147
(dp14148
g16
VDT
p14149
sbag5
(g6
g7
(lp14150
Vlevel
p14151
atp14152
Rp14153
(dp14154
g16
VNN
p14155
sbatp14156
Rp14157
(dp14158
g16
VNP
p14159
sbag5
(g6
g7
(lp14160
g5
(g6
g7
(lp14161
Vof
p14162
atp14163
Rp14164
(dp14165
g16
VIN
p14166
sbag5
(g6
g7
(lp14167
g5
(g6
g7
(lp14168
Vsyntactic
p14169
atp14170
Rp14171
(dp14172
g16
VJJ
p14173
sbag5
(g6
g7
(lp14174
Vabstraction
p14175
atp14176
Rp14177
(dp14178
g16
VNN
p14179
sbatp14180
Rp14181
(dp14182
g16
VNP
p14183
sbatp14184
Rp14185
(dp14186
g16
VPP
p14187
sbag5
(g6
g7
(lp14188
g5
(g6
g7
(lp14189
g5
(g6
g7
(lp14190
Vwhich
p14191
atp14192
Rp14193
(dp14194
g16
VWDT
p14195
sbatp14196
Rp14197
(dp14198
g16
VWHNP
p14199
sbag5
(g6
g7
(lp14200
g5
(g6
g7
(lp14201
g5
(g6
g7
(lp14202
Vis
p14203
atp14204
Rp14205
(dp14206
g16
VVBZ
p14207
sbag5
(g6
g7
(lp14208
g5
(g6
g7
(lp14209
Vexplicitly
p14210
atp14211
Rp14212
(dp14213
g16
VRB
p14214
sbatp14215
Rp14216
(dp14217
g16
VADVP
p14218
sbag5
(g6
g7
(lp14219
g5
(g6
g7
(lp14220
Vannotated
p14221
atp14222
Rp14223
(dp14224
g16
VVBG
p14225
sbag5
(g6
g7
(lp14226
g5
(g6
g7
(lp14227
Vin
p14228
atp14229
Rp14230
(dp14231
g16
VIN
p14232
sbag5
(g6
g7
(lp14233
g5
(g6
g7
(lp14234
Vconstituency
p14235
atp14236
Rp14237
(dp14238
g16
VNN
p14239
sbag5
(g6
g7
(lp14240
Vparses
p14241
atp14242
Rp14243
(dp14244
g16
VNNS
p14245
sbatp14246
Rp14247
(dp14248
g16
VNP
p14249
sbatp14250
Rp14251
(dp14252
g16
VPP
p14253
sbatp14254
Rp14255
(dp14256
g16
VVP
p14257
sbatp14258
Rp14259
(dp14260
g16
VVP
p14261
sbatp14262
Rp14263
(dp14264
g16
g270
sbatp14265
Rp14266
(dp14267
g16
VSBAR
p14268
sbatp14269
Rp14270
(dp14271
g16
VNP
p14272
sbatp14273
Rp14274
(dp14275
g16
VVP
p14276
sbatp14277
Rp14278
(dp14279
g16
g270
sbatp14280
Rp14281
(dp14282
g16
VSBAR
p14283
sbatp14284
Rp14285
(dp14286
g16
VVP
p14287
sbatp14288
Rp14289
(dp14290
g16
g270
sbatp14291
Rp14292
(dp14293
g16
VSBAR
p14294
sbatp14295
Rp14296
(dp14297
g16
VVP
p14298
sbatp14299
Rp14300
(dp14301
g16
g270
sbatp14302
Rp14303
(dp14304
g16
VROOT
p14305
sbasg411
(icmyPackage
CorE
p14306
(dp14307
g414
(lp14308
(I0
I53
tp14309
a(I1
I34
tp14310
asg418
g5
(g6
g7
(lp14311
g13809
ag13908
ag13943
ag13948
ag13964
ag13971
ag13987
ag13994
ag14012
ag14019
ag14058
ag14114
ag14121
ag14133
ag14140
ag14157
ag14185
ag14197
ag14205
ag14216
ag14223
ag14230
ag14237
atp14312
Rp14313
(dp14314
g16
g429
sbsbsg419
(icmyPackage
CorE
p14315
(dp14316
g414
(lp14317
(I0
I0
tp14318
a(I0
I51
tp14319
asg418
g5
(g6
g7
(lp14320
g13323
ag13328
ag13603
ag13610
ag13617
ag13705
ag13712
ag13763
ag13769
ag13774
ag13780
ag13792
atp14321
Rp14322
(dp14323
g16
g429
sbsbsg430
g1217
sg453
(lp14324
(isxpPackage
sxpSent
p14325
(dp14326
g457
(lp14327
I35
asg459
VHowever, the failure to uncover gains when searching across a variety of possible mechanisms for improvement, training procedures for embeddings, hyperparameter settings, tasks, and resource scenarios suggests that these gains (if they do exist) are extremely sensitive to these training conditions, and not nearly as accessible as they seem to be in dependency parsers
p14328
sg461
I11
sg446
I112
sg462
I30
sba(isxpPackage
sxpSent
p14329
(dp14330
g457
(lp14331
I35
aI36
asg459
VIndeed, our results suggest a hypothesis that word embeddings are useful for dependency parsing (and perhaps other tasks) because they provide a level of syntactic abstraction which is explicitly annotated in constituency parses
p14332
sg461
I11
sg446
I113
sg462
I30
sbasba(icmyPackage
CELink
p14333
(dp14334
g3
(lp14335
g14303
asg411
(icmyPackage
CorE
p14336
(dp14337
g414
(lp14338
(I0
I22
tp14339
a(I0
I35
tp14340
asg418
g14278
sbsg419
(icmyPackage
CorE
p14341
(dp14342
g414
(lp14343
(I0
I0
tp14344
a(I0
I20
tp14345
asg418
g5
(g6
g7
(lp14346
g13943
ag13948
ag13964
ag13971
ag13987
ag13994
ag14012
ag14019
ag14058
ag14114
atp14347
Rp14348
(dp14349
g16
g429
sbsbsg430
g3612
sg453
(lp14350
g14329
asba.