(lp0
(icmyPackage
CELink
p1
(dp2
S'PTreelst'
p3
(lp4
ccopy_reg
_reconstructor
p5
(cnltk.tree
Tree
p6
c__builtin__
list
p7
(lp8
g5
(g6
g7
(lp9
g5
(g6
g7
(lp10
g5
(g6
g7
(lp11
VBy
p12
atp13
Rp14
(dp15
S'_label'
p16
VIN
p17
sbag5
(g6
g7
(lp18
g5
(g6
g7
(lp19
g5
(g6
g7
(lp20
Vproviding
p21
atp22
Rp23
(dp24
g16
VVBG
p25
sbag5
(g6
g7
(lp26
g5
(g6
g7
(lp27
g5
(g6
g7
(lp28
Van
p29
atp30
Rp31
(dp32
g16
VDT
p33
sbag5
(g6
g7
(lp34
Vempirical
p35
atp36
Rp37
(dp38
g16
VJJ
p39
sbag5
(g6
g7
(lp40
Vmeasure
p41
atp42
Rp43
(dp44
g16
VNN
p45
sbatp46
Rp47
(dp48
g16
VNP
p49
sbag5
(g6
g7
(lp50
g5
(g6
g7
(lp51
Vof
p52
atp53
Rp54
(dp55
g16
VIN
p56
sbag5
(g6
g7
(lp57
g5
(g6
g7
(lp58
g5
(g6
g7
(lp59
Vsemantic
p60
atp61
Rp62
(dp63
g16
VJJ
p64
sbag5
(g6
g7
(lp65
Vsimilarity
p66
atp67
Rp68
(dp69
g16
VNN
p70
sbatp71
Rp72
(dp73
g16
VNP
p74
sbag5
(g6
g7
(lp75
g5
(g6
g7
(lp76
Vbetween
p77
atp78
Rp79
(dp80
g16
VIN
p81
sbag5
(g6
g7
(lp82
g5
(g6
g7
(lp83
g5
(g6
g7
(lp84
Vwords
p85
atp86
Rp87
(dp88
g16
VNNS
p89
sbatp90
Rp91
(dp92
g16
VNP
p93
sbag5
(g6
g7
(lp94
g5
(g6
g7
(lp95
Vderived
p96
atp97
Rp98
(dp99
g16
VVBN
p100
sbag5
(g6
g7
(lp101
g5
(g6
g7
(lp102
Vfrom
p103
atp104
Rp105
(dp106
g16
VIN
p107
sbag5
(g6
g7
(lp108
g5
(g6
g7
(lp109
Vlexical
p110
atp111
Rp112
(dp113
g16
VJJ
p114
sbag5
(g6
g7
(lp115
Vco-occurrences
p116
atp117
Rp118
(dp119
g16
VNNS
p120
sbatp121
Rp122
(dp123
g16
VNP
p124
sbatp125
Rp126
(dp127
g16
VPP
p128
sbatp129
Rp130
(dp131
g16
VVP
p132
sbatp133
Rp134
(dp135
g16
VNP
p136
sbatp137
Rp138
(dp139
g16
VPP
p140
sbatp141
Rp142
(dp143
g16
VNP
p144
sbatp145
Rp146
(dp147
g16
VPP
p148
sbatp149
Rp150
(dp151
g16
VNP
p152
sbatp153
Rp154
(dp155
g16
VVP
p156
sbatp157
Rp158
(dp159
g16
VS
p160
sbatp161
Rp162
(dp163
g16
VPP
p164
sbag5
(g6
g7
(lp165
V,
p166
atp167
Rp168
(dp169
g16
g166
sbag5
(g6
g7
(lp170
g5
(g6
g7
(lp171
Vdistributional
p172
atp173
Rp174
(dp175
g16
VJJ
p176
sbag5
(g6
g7
(lp177
Vsemantics
p178
atp179
Rp180
(dp181
g16
VNNS
p182
sbatp183
Rp184
(dp185
g16
VNP
p186
sbag5
(g6
g7
(lp187
g5
(g6
g7
(lp188
g5
(g6
g7
(lp189
Vnot
p190
atp191
Rp192
(dp193
g16
VRB
p194
sbag5
(g6
g7
(lp195
Vonly
p196
atp197
Rp198
(dp199
g16
VJJ
p200
sbatp201
Rp202
(dp203
g16
VCONJP
p204
sbag5
(g6
g7
(lp205
g5
(g6
g7
(lp206
g5
(g6
g7
(lp207
Vreliably
p208
atp209
Rp210
(dp211
g16
VRB
p212
sbatp213
Rp214
(dp215
g16
VADVP
p216
sbag5
(g6
g7
(lp217
Vcaptures
p218
atp219
Rp220
(dp221
g16
VVBZ
p222
sbag5
(g6
g7
(lp223
g5
(g6
g7
(lp224
g5
(g6
g7
(lp225
Vhow
p226
atp227
Rp228
(dp229
g16
VWRB
p230
sbatp231
Rp232
(dp233
g16
VWHADVP
p234
sbag5
(g6
g7
(lp235
g5
(g6
g7
(lp236
g5
(g6
g7
(lp237
g5
(g6
g7
(lp238
Vthe
p239
atp240
Rp241
(dp242
g16
VDT
p243
sbag5
(g6
g7
(lp244
Vverbs
p245
atp246
Rp247
(dp248
g16
VNNS
p249
sbatp250
Rp251
(dp252
g16
VNP
p253
sbag5
(g6
g7
(lp254
g5
(g6
g7
(lp255
Vin
p256
atp257
Rp258
(dp259
g16
VIN
p260
sbag5
(g6
g7
(lp261
g5
(g6
g7
(lp262
g5
(g6
g7
(lp263
Vthe
p264
atp265
Rp266
(dp267
g16
VDT
p268
sbag5
(g6
g7
(lp269
Vdistribution
p270
atp271
Rp272
(dp273
g16
VNN
p274
sbatp275
Rp276
(dp277
g16
VNP
p278
sbag5
(g6
g7
(lp279
g5
(g6
g7
(lp280
Vof
p281
atp282
Rp283
(dp284
g16
VIN
p285
sbag5
(g6
g7
(lp286
g5
(g6
g7
(lp287
Va
p288
atp289
Rp290
(dp291
g16
VDT
p292
sbag5
(g6
g7
(lp293
Vconstruction
p294
atp295
Rp296
(dp297
g16
VNN
p298
sbatp299
Rp300
(dp301
g16
VNP
p302
sbatp303
Rp304
(dp305
g16
VPP
p306
sbatp307
Rp308
(dp309
g16
VNP
p310
sbatp311
Rp312
(dp313
g16
VPP
p314
sbatp315
Rp316
(dp317
g16
VNP
p318
sbag5
(g6
g7
(lp319
g5
(g6
g7
(lp320
Vare
p321
atp322
Rp323
(dp324
g16
VVBP
p325
sbag5
(g6
g7
(lp326
g5
(g6
g7
(lp327
Vrelated
p328
atp329
Rp330
(dp331
g16
VVBN
p332
sbatp333
Rp334
(dp335
g16
VADJP
p336
sbatp337
Rp338
(dp339
g16
VVP
p340
sbatp341
Rp342
(dp343
g16
g160
sbatp344
Rp345
(dp346
g16
VSBAR
p347
sbatp348
Rp349
(dp350
g16
VVP
p351
sbag5
(g6
g7
(lp352
g166
atp353
Rp354
(dp355
g16
g166
sbag5
(g6
g7
(lp356
Vbut
p357
atp358
Rp359
(dp360
g16
VCC
p361
sbag5
(g6
g7
(lp362
g5
(g6
g7
(lp363
g5
(g6
g7
(lp364
Valso
p365
atp366
Rp367
(dp368
g16
VRB
p369
sbatp370
Rp371
(dp372
g16
VADVP
p373
sbag5
(g6
g7
(lp374
Venables
p375
atp376
Rp377
(dp378
g16
VVBZ
p379
sbag5
(g6
g7
(lp380
g5
(g6
g7
(lp381
Vthe
p382
atp383
Rp384
(dp385
g16
VDT
p386
sbag5
(g6
g7
(lp387
Vuse
p388
atp389
Rp390
(dp391
g16
VNN
p392
sbatp393
Rp394
(dp395
g16
VNP
p396
sbag5
(g6
g7
(lp397
g5
(g6
g7
(lp398
Vof
p399
atp400
Rp401
(dp402
g16
VIN
p403
sbag5
(g6
g7
(lp404
g5
(g6
g7
(lp405
g5
(g6
g7
(lp406
Vvisualization
p407
atp408
Rp409
(dp410
g16
VNN
p411
sbag5
(g6
g7
(lp412
Vtechniques
p413
atp414
Rp415
(dp416
g16
VNNS
p417
sbatp418
Rp419
(dp420
g16
VNP
p421
sbag5
(g6
g7
(lp422
Vand
p423
atp424
Rp425
(dp426
g16
VCC
p427
sbag5
(g6
g7
(lp428
g5
(g6
g7
(lp429
Vstatistical
p430
atp431
Rp432
(dp433
g16
VJJ
p434
sbag5
(g6
g7
(lp435
Vmodeling
p436
atp437
Rp438
(dp439
g16
VNN
p440
sbatp441
Rp442
(dp443
g16
VNP
p444
sbatp445
Rp446
(dp447
g16
VNP
p448
sbatp449
Rp450
(dp451
g16
VPP
p452
sbag5
(g6
g7
(lp453
g5
(g6
g7
(lp454
g5
(g6
g7
(lp455
Vto
p456
atp457
Rp458
(dp459
g16
VTO
p460
sbag5
(g6
g7
(lp461
g5
(g6
g7
(lp462
g5
(g6
g7
(lp463
Vanalyze
p464
atp465
Rp466
(dp467
g16
VVB
p468
sbag5
(g6
g7
(lp469
g5
(g6
g7
(lp470
g5
(g6
g7
(lp471
Vthe
p472
atp473
Rp474
(dp475
g16
VDT
p476
sbag5
(g6
g7
(lp477
Vsemantic
p478
atp479
Rp480
(dp481
g16
VJJ
p482
sbag5
(g6
g7
(lp483
Vdevelopment
p484
atp485
Rp486
(dp487
g16
VNN
p488
sbatp489
Rp490
(dp491
g16
VNP
p492
sbag5
(g6
g7
(lp493
g5
(g6
g7
(lp494
Vof
p495
atp496
Rp497
(dp498
g16
VIN
p499
sbag5
(g6
g7
(lp500
g5
(g6
g7
(lp501
g5
(g6
g7
(lp502
g288
atp503
Rp504
(dp505
g16
VDT
p506
sbag5
(g6
g7
(lp507
Vconstruction
p508
atp509
Rp510
(dp511
g16
VNN
p512
sbatp513
Rp514
(dp515
g16
VNP
p516
sbag5
(g6
g7
(lp517
g5
(g6
g7
(lp518
Vover
p519
atp520
Rp521
(dp522
g16
VIN
p523
sbag5
(g6
g7
(lp524
g5
(g6
g7
(lp525
Vtime
p526
atp527
Rp528
(dp529
g16
VNN
p530
sbatp531
Rp532
(dp533
g16
VNP
p534
sbatp535
Rp536
(dp537
g16
VPP
p538
sbatp539
Rp540
(dp541
g16
VNP
p542
sbatp543
Rp544
(dp545
g16
VPP
p546
sbatp547
Rp548
(dp549
g16
VNP
p550
sbatp551
Rp552
(dp553
g16
VVP
p554
sbag5
(g6
g7
(lp555
Vand
p556
atp557
Rp558
(dp559
g16
VCC
p560
sbag5
(g6
g7
(lp561
g5
(g6
g7
(lp562
Videntify
p563
atp564
Rp565
(dp566
g16
VVB
p567
sbag5
(g6
g7
(lp568
g5
(g6
g7
(lp569
g5
(g6
g7
(lp570
Vthe
p571
atp572
Rp573
(dp574
g16
VDT
p575
sbag5
(g6
g7
(lp576
Vsemantic
p577
atp578
Rp579
(dp580
g16
VJJ
p581
sbag5
(g6
g7
(lp582
Vdeterminants
p583
atp584
Rp585
(dp586
g16
VNNS
p587
sbatp588
Rp589
(dp590
g16
VNP
p591
sbag5
(g6
g7
(lp592
g5
(g6
g7
(lp593
Vof
p594
atp595
Rp596
(dp597
g16
VIN
p598
sbag5
(g6
g7
(lp599
g5
(g6
g7
(lp600
Vsyntactic
p601
atp602
Rp603
(dp604
g16
VJJ
p605
sbag5
(g6
g7
(lp606
Vproductivity
p607
atp608
Rp609
(dp610
g16
VNN
p611
sbatp612
Rp613
(dp614
g16
VNP
p615
sbatp616
Rp617
(dp618
g16
VPP
p619
sbatp620
Rp621
(dp622
g16
VNP
p623
sbag5
(g6
g7
(lp624
g5
(g6
g7
(lp625
Vin
p626
atp627
Rp628
(dp629
g16
VIN
p630
sbag5
(g6
g7
(lp631
g5
(g6
g7
(lp632
g5
(g6
g7
(lp633
Vnaturally
p634
atp635
Rp636
(dp637
g16
VRB
p638
sbag5
(g6
g7
(lp639
Voccurring
p640
atp641
Rp642
(dp643
g16
VVBG
p644
sbatp645
Rp646
(dp647
g16
VADJP
p648
sbag5
(g6
g7
(lp649
Vdata
p650
atp651
Rp652
(dp653
g16
VNNS
p654
sbatp655
Rp656
(dp657
g16
VNP
p658
sbatp659
Rp660
(dp661
g16
VPP
p662
sbatp663
Rp664
(dp665
g16
VVP
p666
sbatp667
Rp668
(dp669
g16
VVP
p670
sbatp671
Rp672
(dp673
g16
VVP
p674
sbatp675
Rp676
(dp677
g16
g160
sbatp678
Rp679
(dp680
g16
VVP
p681
sbatp682
Rp683
(dp684
g16
VVP
p685
sbatp686
Rp687
(dp688
g16
g160
sbatp689
Rp690
(dp691
g16
VROOT
p692
sbasS'cause'
p693
(icmyPackage
CorE
p694
(dp695
S'span'
p696
(lp697
(I0
I1
tp698
a(I0
I13
tp699
asS'PTree'
p700
g158
sbsS'effect'
p701
(icmyPackage
CorE
p702
(dp703
g696
(lp704
(I0
I14
tp705
a(I0
I65
tp706
asg700
g5
(g6
g7
(lp707
g168
ag184
ag683
atp708
Rp709
(dp710
g16
S'ROOT'
p711
sbsbsS'pt'
p712
(icmyPackage
pattern
p713
(dp714
S'pfreq'
p715
I0
sS'moresent'
p716
I0
sS'main_token'
p717
(lp718
(lp719
(lp720
S'by'
p721
aS'through'
p722
aaasS'ptype'
p723
(lp724
I2
aI1
aI1
asS'cases'
p725
(lp726
S'By extracting comments and comparisons of the cited articles and then organizing them according to the time of publication discovers and displays how the area has developed as a research literature.'
p727
asS'id'
p728
I67
sS'constraints'
p729
(lp730
(lp731
a(lp732
S'&V-ing@C@'
p733
aS'&R'
p734
aasbsS'sInfo'
p735
(lp736
(isxpPackage
sxpSent
p737
(dp738
S'sysCEidlst'
p739
(lp740
I0
asS'sentence_text'
p741
VBy providing an empirical measure of semantic similarity between words derived from lexical co-occurrences, distributional semantics not only reliably captures how the verbs in the distribution of a construction are related, but also enables the use of visualization techniques and statistical modeling to analyze the semantic development of a construction over time and identify the semantic determinants of syntactic productivity in naturally occurring data
p742
sS'id_sec'
p743
I1
sg728
I1
sS'id_para'
p744
I0
sbasba(icmyPackage
CELink
p745
(dp746
g3
(lp747
g5
(g6
g7
(lp748
g5
(g6
g7
(lp749
g5
(g6
g7
(lp750
g5
(g6
g7
(lp751
VShe
p752
atp753
Rp754
(dp755
g16
VPRP
p756
sbatp757
Rp758
(dp759
g16
VNP
p760
sbag5
(g6
g7
(lp761
g5
(g6
g7
(lp762
Vtyped
p763
atp764
Rp765
(dp766
g16
VVBN
p767
sbag5
(g6
g7
(lp768
g5
(g6
g7
(lp769
Vher
p770
atp771
Rp772
(dp773
g16
VPRP$
p774
sbag5
(g6
g7
(lp775
Vway
p776
atp777
Rp778
(dp779
g16
VNN
p780
sbatp781
Rp782
(dp783
g16
VNP
p784
sbag5
(g6
g7
(lp785
g5
(g6
g7
(lp786
Vto
p787
atp788
Rp789
(dp790
g16
VTO
p791
sbag5
(g6
g7
(lp792
g5
(g6
g7
(lp793
g288
atp794
Rp795
(dp796
g16
VDT
p797
sbag5
(g6
g7
(lp798
Vpromotion
p799
atp800
Rp801
(dp802
g16
VNN
p803
sbatp804
Rp805
(dp806
g16
VNP
p807
sbatp808
Rp809
(dp810
g16
VPP
p811
sbatp812
Rp813
(dp814
g16
VVP
p815
sbatp816
Rp817
(dp818
g16
g160
sbatp819
Rp820
(dp821
g16
VROOT
p822
sbag5
(g6
g7
(lp823
g5
(g6
g7
(lp824
g5
(g6
g7
(lp825
g5
(g6
g7
(lp826
VAs
p827
atp828
Rp829
(dp830
g16
VIN
p831
sbag5
(g6
g7
(lp832
g5
(g6
g7
(lp833
g5
(g6
g7
(lp834
Vreported
p835
atp836
Rp837
(dp838
g16
VVBD
p839
sbag5
(g6
g7
(lp840
g5
(g6
g7
(lp841
Vby
p842
atp843
Rp844
(dp845
g16
VIN
p846
sbag5
(g6
g7
(lp847
g5
(g6
g7
(lp848
VIsrael
p849
atp850
Rp851
(dp852
g16
VNNP
p853
sbatp854
Rp855
(dp856
g16
VNP
p857
sbatp858
Rp859
(dp860
g16
VPP
p861
sbatp862
Rp863
(dp864
g16
VVP
p865
sbatp866
Rp867
(dp868
g16
g160
sbatp869
Rp870
(dp871
g16
VSBAR
p872
sbag5
(g6
g7
(lp873
g166
atp874
Rp875
(dp876
g16
g166
sbag5
(g6
g7
(lp877
g5
(g6
g7
(lp878
g5
(g6
g7
(lp879
Vexamples
p880
atp881
Rp882
(dp883
g16
VNNS
p884
sbatp885
Rp886
(dp887
g16
VNP
p888
sbag5
(g6
g7
(lp889
g5
(g6
g7
(lp890
Vlike
p891
atp892
Rp893
(dp894
g16
VIN
p895
sbag5
(g6
g7
(lp896
g5
(g6
g7
(lp897
g5
(g6
g7
(lp898
g5
(g6
g7
(lp899
V-LRB-
p900
atp901
Rp902
(dp903
g16
V-LRB-
p904
sbag5
(g6
g7
(lp905
V1
p906
atp907
Rp908
(dp909
g16
VLS
p910
sbag5
(g6
g7
(lp911
V-RRB-
p912
atp913
Rp914
(dp915
g16
V-RRB-
p916
sbatp917
Rp918
(dp919
g16
VLST
p920
sbag5
(g6
g7
(lp921
g166
atp922
Rp923
(dp924
g16
g166
sbag5
(g6
g7
(lp925
g5
(g6
g7
(lp926
g5
(g6
g7
(lp927
Vin
p928
atp929
Rp930
(dp931
g16
VIN
p932
sbag5
(g6
g7
(lp933
g5
(g6
g7
(lp934
Vwhich
p935
atp936
Rp937
(dp938
g16
VWDT
p939
sbatp940
Rp941
(dp942
g16
VWHNP
p943
sbatp944
Rp945
(dp946
g16
VWHPP
p947
sbag5
(g6
g7
(lp948
g5
(g6
g7
(lp949
g5
(g6
g7
(lp950
g5
(g6
g7
(lp951
Vthe
p952
atp953
Rp954
(dp955
g16
VDT
p956
sbag5
(g6
g7
(lp957
Vmain
p958
atp959
Rp960
(dp961
g16
VJJ
p962
sbag5
(g6
g7
(lp963
Vverb
p964
atp965
Rp966
(dp967
g16
VNN
p968
sbatp969
Rp970
(dp971
g16
VNP
p972
sbag5
(g6
g7
(lp973
g5
(g6
g7
(lp974
Vdescribes
p975
atp976
Rp977
(dp978
g16
VVBZ
p979
sbag5
(g6
g7
(lp980
g5
(g6
g7
(lp981
g5
(g6
g7
(lp982
g5
(g6
g7
(lp983
g5
(g6
g7
(lp984
Vthe
p985
atp986
Rp987
(dp988
g16
VDT
p989
sbag5
(g6
g7
(lp990
Vphysical
p991
atp992
Rp993
(dp994
g16
VJJ
p995
sbag5
(g6
g7
(lp996
Vmeans
p997
atp998
Rp999
(dp1000
g16
VNN
p1001
sbatp1002
Rp1003
(dp1004
g16
VNP
p1005
sbag5
(g6
g7
(lp1006
g5
(g6
g7
(lp1007
g5
(g6
g7
(lp1008
Vwhereby
p1009
atp1010
Rp1011
(dp1012
g16
VWRB
p1013
sbatp1014
Rp1015
(dp1016
g16
VWHADVP
p1017
sbag5
(g6
g7
(lp1018
g5
(g6
g7
(lp1019
g5
(g6
g7
(lp1020
g5
(g6
g7
(lp1021
Vmotion
p1022
atp1023
Rp1024
(dp1025
g16
VNN
p1026
sbatp1027
Rp1028
(dp1029
g16
VNP
p1030
sbag5
(g6
g7
(lp1031
g5
(g6
g7
(lp1032
Vtowards
p1033
atp1034
Rp1035
(dp1036
g16
VIN
p1037
sbag5
(g6
g7
(lp1038
g5
(g6
g7
(lp1039
g288
atp1040
Rp1041
(dp1042
g16
VDT
p1043
sbag5
(g6
g7
(lp1044
Vgoal
p1045
atp1046
Rp1047
(dp1048
g16
VNN
p1049
sbatp1050
Rp1051
(dp1052
g16
VNP
p1053
sbatp1054
Rp1055
(dp1056
g16
VPP
p1057
sbatp1058
Rp1059
(dp1060
g16
VNP
p1061
sbag5
(g6
g7
(lp1062
g5
(g6
g7
(lp1063
Vis
p1064
atp1065
Rp1066
(dp1067
g16
VVBZ
p1068
sbag5
(g6
g7
(lp1069
g5
(g6
g7
(lp1070
Venabled
p1071
atp1072
Rp1073
(dp1074
g16
VVBN
p1075
sbatp1076
Rp1077
(dp1078
g16
VVP
p1079
sbatp1080
Rp1081
(dp1082
g16
VVP
p1083
sbatp1084
Rp1085
(dp1086
g16
g160
sbatp1087
Rp1088
(dp1089
g16
VSBAR
p1090
sbatp1091
Rp1092
(dp1093
g16
VNP
p1094
sbag5
(g6
g7
(lp1095
g166
atp1096
Rp1097
(dp1098
g16
g166
sbag5
(g6
g7
(lp1099
g5
(g6
g7
(lp1100
Vare
p1101
atp1102
Rp1103
(dp1104
g16
VVBP
p1105
sbag5
(g6
g7
(lp1106
g5
(g6
g7
(lp1107
Vattested
p1108
atp1109
Rp1110
(dp1111
g16
VVBN
p1112
sbag5
(g6
g7
(lp1113
g5
(g6
g7
(lp1114
Vas
p1115
atp1116
Rp1117
(dp1118
g16
VRB
p1119
sbag5
(g6
g7
(lp1120
Vearly
p1121
atp1122
Rp1123
(dp1124
g16
VRB
p1125
sbatp1126
Rp1127
(dp1128
g16
VADVP
p1129
sbag5
(g6
g7
(lp1130
g5
(g6
g7
(lp1131
Vas
p1132
atp1133
Rp1134
(dp1135
g16
VIN
p1136
sbag5
(g6
g7
(lp1137
g5
(g6
g7
(lp1138
Vthe
p1139
atp1140
Rp1141
(dp1142
g16
VDT
p1143
sbag5
(g6
g7
(lp1144
V16
p1145
atp1146
Rp1147
(dp1148
g16
VCD
p1149
sbag5
(g6
g7
(lp1150
Vth
p1151
atp1152
Rp1153
(dp1154
g16
VNN
p1155
sbag5
(g6
g7
(lp1156
Vcentury
p1157
atp1158
Rp1159
(dp1160
g16
VNN
p1161
sbatp1162
Rp1163
(dp1164
g16
VNP
p1165
sbatp1166
Rp1167
(dp1168
g16
VPP
p1169
sbatp1170
Rp1171
(dp1172
g16
VVP
p1173
sbatp1174
Rp1175
(dp1176
g16
VVP
p1177
sbatp1178
Rp1179
(dp1180
g16
g160
sbatp1181
Rp1182
(dp1183
g16
VSBAR
p1184
sbatp1185
Rp1186
(dp1187
g16
VVP
p1188
sbatp1189
Rp1190
(dp1191
g16
g160
sbag5
(g6
g7
(lp1192
g166
atp1193
Rp1194
(dp1195
g16
g166
sbag5
(g6
g7
(lp1196
Vbut
p1197
atp1198
Rp1199
(dp1200
g16
VCC
p1201
sbag5
(g6
g7
(lp1202
g5
(g6
g7
(lp1203
g5
(g6
g7
(lp1204
Vit
p1205
atp1206
Rp1207
(dp1208
g16
VPRP
p1209
sbatp1210
Rp1211
(dp1212
g16
VNP
p1213
sbag5
(g6
g7
(lp1214
g5
(g6
g7
(lp1215
Vwas
p1216
atp1217
Rp1218
(dp1219
g16
VVBD
p1220
sbag5
(g6
g7
(lp1221
Vnot
p1222
atp1223
Rp1224
(dp1225
g16
VRB
p1226
sbag5
(g6
g7
(lp1227
g5
(g6
g7
(lp1228
Vuntil
p1229
atp1230
Rp1231
(dp1232
g16
VIN
p1233
sbag5
(g6
g7
(lp1234
g5
(g6
g7
(lp1235
Vthe
p1236
atp1237
Rp1238
(dp1239
g16
VDT
p1240
sbag5
(g6
g7
(lp1241
V19
p1242
atp1243
Rp1244
(dp1245
g16
VCD
p1246
sbag5
(g6
g7
(lp1247
Vth
p1248
atp1249
Rp1250
(dp1251
g16
VNN
p1252
sbag5
(g6
g7
(lp1253
Vcentury
p1254
atp1255
Rp1256
(dp1257
g16
VNN
p1258
sbatp1259
Rp1260
(dp1261
g16
VNP
p1262
sbatp1263
Rp1264
(dp1265
g16
VPP
p1266
sbag5
(g6
g7
(lp1267
g5
(g6
g7
(lp1268
Vthat
p1269
atp1270
Rp1271
(dp1272
g16
VIN
p1273
sbag5
(g6
g7
(lp1274
g5
(g6
g7
(lp1275
g5
(g6
g7
(lp1276
Vexamples
p1277
atp1278
Rp1279
(dp1280
g16
VNNS
p1281
sbatp1282
Rp1283
(dp1284
g16
VNP
p1285
sbag5
(g6
g7
(lp1286
g5
(g6
g7
(lp1287
Vlike
p1288
atp1289
Rp1290
(dp1291
g16
VVBP
p1292
sbag5
(g6
g7
(lp1293
g5
(g6
g7
(lp1294
g5
(g6
g7
(lp1295
V-LRB-
p1296
atp1297
Rp1298
(dp1299
g16
V-LRB-
p1300
sbag5
(g6
g7
(lp1301
g5
(g6
g7
(lp1302
V2
p1303
atp1304
Rp1305
(dp1306
g16
VCD
p1307
sbatp1308
Rp1309
(dp1310
g16
VNP
p1311
sbag5
(g6
g7
(lp1312
V-RRB-
p1313
atp1314
Rp1315
(dp1316
g16
V-RRB-
p1317
sbag5
(g6
g7
(lp1318
g5
(g6
g7
(lp1319
Vstarted
p1320
atp1321
Rp1322
(dp1323
g16
VVBD
p1324
sbag5
(g6
g7
(lp1325
g5
(g6
g7
(lp1326
g5
(g6
g7
(lp1327
Vto
p1328
atp1329
Rp1330
(dp1331
g16
VTO
p1332
sbag5
(g6
g7
(lp1333
g5
(g6
g7
(lp1334
Vappear
p1335
atp1336
Rp1337
(dp1338
g16
VVB
p1339
sbatp1340
Rp1341
(dp1342
g16
VVP
p1343
sbatp1344
Rp1345
(dp1346
g16
VVP
p1347
sbatp1348
Rp1349
(dp1350
g16
g160
sbatp1351
Rp1352
(dp1353
g16
VVP
p1354
sbatp1355
Rp1356
(dp1357
g16
g160
sbatp1358
Rp1359
(dp1360
g16
VSBAR
p1361
sbatp1362
Rp1363
(dp1364
g16
VVP
p1365
sbatp1366
Rp1367
(dp1368
g16
g160
sbatp1369
Rp1370
(dp1371
g16
VSBAR
p1372
sbatp1373
Rp1374
(dp1375
g16
VVP
p1376
sbatp1377
Rp1378
(dp1379
g16
g160
sbatp1380
Rp1381
(dp1382
g16
g160
sbatp1383
Rp1384
(dp1385
g16
VSBAR
p1386
sbatp1387
Rp1388
(dp1389
g16
VNP
p1390
sbag5
(g6
g7
(lp1391
g166
atp1392
Rp1393
(dp1394
g16
g166
sbag5
(g6
g7
(lp1395
g5
(g6
g7
(lp1396
g5
(g6
g7
(lp1397
Vin
p1398
atp1399
Rp1400
(dp1401
g16
VIN
p1402
sbag5
(g6
g7
(lp1403
g5
(g6
g7
(lp1404
Vwhich
p1405
atp1406
Rp1407
(dp1408
g16
VWDT
p1409
sbatp1410
Rp1411
(dp1412
g16
VWHNP
p1413
sbatp1414
Rp1415
(dp1416
g16
VWHPP
p1417
sbag5
(g6
g7
(lp1418
g5
(g6
g7
(lp1419
g5
(g6
g7
(lp1420
g5
(g6
g7
(lp1421
Vthe
p1422
atp1423
Rp1424
(dp1425
g16
VDT
p1426
sbag5
(g6
g7
(lp1427
Vaction
p1428
atp1429
Rp1430
(dp1431
g16
VNN
p1432
sbatp1433
Rp1434
(dp1435
g16
VNP
p1436
sbag5
(g6
g7
(lp1437
g5
(g6
g7
(lp1438
Vdepicted
p1439
atp1440
Rp1441
(dp1442
g16
VVBN
p1443
sbag5
(g6
g7
(lp1444
g5
(g6
g7
(lp1445
Vby
p1446
atp1447
Rp1448
(dp1449
g16
VIN
p1450
sbag5
(g6
g7
(lp1451
g5
(g6
g7
(lp1452
Vthe
p1453
atp1454
Rp1455
(dp1456
g16
VDT
p1457
sbag5
(g6
g7
(lp1458
Vverb
p1459
atp1460
Rp1461
(dp1462
g16
VNN
p1463
sbatp1464
Rp1465
(dp1466
g16
VNP
p1467
sbatp1468
Rp1469
(dp1470
g16
VPP
p1471
sbatp1472
Rp1473
(dp1474
g16
VVP
p1475
sbatp1476
Rp1477
(dp1478
g16
VNP
p1479
sbag5
(g6
g7
(lp1480
g5
(g6
g7
(lp1481
Vprovides
p1482
atp1483
Rp1484
(dp1485
g16
VVBZ
p1486
sbag5
(g6
g7
(lp1487
g5
(g6
g7
(lp1488
g5
(g6
g7
(lp1489
g288
atp1490
Rp1491
(dp1492
g16
VDT
p1493
sbag5
(g6
g7
(lp1494
g5
(g6
g7
(lp1495
Vmore
p1496
atp1497
Rp1498
(dp1499
g16
VRBR
p1500
sbag5
(g6
g7
(lp1501
Vindirect
p1502
atp1503
Rp1504
(dp1505
g16
VJJ
p1506
sbatp1507
Rp1508
(dp1509
g16
VADJP
p1510
sbag5
(g6
g7
(lp1511
g5
(g6
g7
(lp1512
V-LRB-
p1513
atp1514
Rp1515
(dp1516
g16
V-LRB-
p1517
sbag5
(g6
g7
(lp1518
Vand
p1519
atp1520
Rp1521
(dp1522
g16
VCC
p1523
sbag5
(g6
g7
(lp1524
g5
(g6
g7
(lp1525
Vabstract
p1526
atp1527
Rp1528
(dp1529
g16
VJJ
p1530
sbatp1531
Rp1532
(dp1533
g16
VADJP
p1534
sbag5
(g6
g7
(lp1535
V-RRB-
p1536
atp1537
Rp1538
(dp1539
g16
V-RRB-
p1540
sbatp1541
Rp1542
(dp1543
g16
VPRN
p1544
sbag5
(g6
g7
(lp1545
Vway
p1546
atp1547
Rp1548
(dp1549
g16
VNN
p1550
sbatp1551
Rp1552
(dp1553
g16
VNP
p1554
sbag5
(g6
g7
(lp1555
g5
(g6
g7
(lp1556
Vof
p1557
atp1558
Rp1559
(dp1560
g16
VIN
p1561
sbag5
(g6
g7
(lp1562
g5
(g6
g7
(lp1563
g5
(g6
g7
(lp1564
Vattaining
p1565
atp1566
Rp1567
(dp1568
g16
VVBG
p1569
sbag5
(g6
g7
(lp1570
g5
(g6
g7
(lp1571
g5
(g6
g7
(lp1572
Vthe
p1573
atp1574
Rp1575
(dp1576
g16
VDT
p1577
sbag5
(g6
g7
(lp1578
Vagent
p1579
atp1580
Rp1581
(dp1582
g16
VNN
p1583
sbag5
(g6
g7
(lp1584
Vu
p1585
atp1586
Rp1587
(dp1588
g16
VNN
p1589
sbag5
(g6
g7
(lp1590
V'
p1591
atp1592
Rp1593
(dp1594
g16
VPOS
p1595
sbatp1596
Rp1597
(dp1598
g16
VNP
p1599
sbag5
(g6
g7
(lp1600
V\u005c
p1601
atp1602
Rp1603
(dp1604
g16
VNNP
p1605
sbag5
(g6
g7
(lp1606
Vu2019
p1607
atp1608
Rp1609
(dp1610
g16
VNNP
p1611
sbag5
(g6
g7
(lp1612
g1591
atp1613
Rp1614
(dp1615
g16
V''
p1616
sbatp1617
Rp1618
(dp1619
g16
VNP
p1620
sbatp1621
Rp1622
(dp1623
g16
VVP
p1624
sbatp1625
Rp1626
(dp1627
g16
g160
sbatp1628
Rp1629
(dp1630
g16
VPP
p1631
sbatp1632
Rp1633
(dp1634
g16
VNP
p1635
sbatp1636
Rp1637
(dp1638
g16
VVP
p1639
sbatp1640
Rp1641
(dp1642
g16
g160
sbatp1643
Rp1644
(dp1645
g16
VSBAR
p1646
sbatp1647
Rp1648
(dp1649
g16
VNP
p1650
sbatp1651
Rp1652
(dp1653
g16
VPP
p1654
sbatp1655
Rp1656
(dp1657
g16
VNP
p1658
sbag5
(g6
g7
(lp1659
g5
(g6
g7
(lp1660
Vs
p1661
atp1662
Rp1663
(dp1664
g16
VVBZ
p1665
sbag5
(g6
g7
(lp1666
g5
(g6
g7
(lp1667
Vgoal
p1668
atp1669
Rp1670
(dp1671
g16
VNN
p1672
sbatp1673
Rp1674
(dp1675
g16
VNP
p1676
sbatp1677
Rp1678
(dp1679
g16
VVP
p1680
sbatp1681
Rp1682
(dp1683
g16
g160
sbatp1684
Rp1685
(dp1686
g16
VROOT
p1687
sbasg693
(icmyPackage
CorE
p1688
(dp1689
g696
(lp1690
(I1
I1
tp1691
a(I1
I82
tp1692
asg700
g5
(g6
g7
(lp1693
g867
ag875
ag1656
atp1694
Rp1695
(dp1696
g16
g711
sbsbsg701
(icmyPackage
CorE
p1697
(dp1698
g696
(lp1699
(I0
I0
tp1700
a(I0
I6
tp1701
asg700
g820
sbsg712
(icmyPackage
pattern
p1702
(dp1703
g715
I26
sg716
I1
sg717
(lp1704
(lp1705
S'as'
p1706
aasg723
(lp1707
I3
aI1
aI1
asg725
(lp1708
S'You do not need to worry about the operation, as the software is very easy to use.'
p1709
asg728
I80
sg729
(lp1710
(lp1711
S'&R@Complete@'
p1712
aS'(,)'
p1713
aS'(-such/-same/-seem/-regard/-regards/-regarded/-view/-views/-viewed/-denote/-denoted/-denotes)'
p1714
aa(lp1715
S'(-if/-follow/-follows/-&adv)'
p1716
aS'&C@Complete@'
p1717
aasbsg735
(lp1718
(isxpPackage
sxpSent
p1719
(dp1720
g739
(lp1721
I1
asg741
VShe typed her way to a promotion
p1722
sg743
I2
sg728
I9
sg744
I3
sba(isxpPackage
sxpSent
p1723
(dp1724
g739
(lp1725
I1
asg741
VAs reported by Israel, examples like (1), in which the main verb describes the physical means whereby motion towards a goal is enabled, are attested as early as the 16 th century, but it was not until the 19 th century that examples like (2) started to appear, in which the action depicted by the verb provides a more indirect (and abstract) way of attaining the agent u'\u005cu2019' s goal
p1726
sg743
I2
sg728
I10
sg744
I4
sbasba(icmyPackage
CELink
p1727
(dp1728
g3
(lp1729
g5
(g6
g7
(lp1730
g5
(g6
g7
(lp1731
g5
(g6
g7
(lp1732
g5
(g6
g7
(lp1733
VAlong
p1734
atp1735
Rp1736
(dp1737
g16
VIN
p1738
sbag5
(g6
g7
(lp1739
g5
(g6
g7
(lp1740
g5
(g6
g7
(lp1741
Vthese
p1742
atp1743
Rp1744
(dp1745
g16
VDT
p1746
sbag5
(g6
g7
(lp1747
Vlines
p1748
atp1749
Rp1750
(dp1751
g16
VNNS
p1752
sbatp1753
Rp1754
(dp1755
g16
VNP
p1756
sbag5
(g6
g7
(lp1757
g166
atp1758
Rp1759
(dp1760
g16
g166
sbag5
(g6
g7
(lp1761
g5
(g6
g7
(lp1762
VSuttle
p1763
atp1764
Rp1765
(dp1766
g16
VNNP
p1767
sbag5
(g6
g7
(lp1768
Vand
p1769
atp1770
Rp1771
(dp1772
g16
VCC
p1773
sbag5
(g6
g7
(lp1774
VGoldberg
p1775
atp1776
Rp1777
(dp1778
g16
VNNP
p1779
sbag5
(g6
g7
(lp1780
V-LSB-
p1781
atp1782
Rp1783
(dp1784
g16
VNNP
p1785
sbag5
(g6
g7
(lp1786
VSuttle
p1787
atp1788
Rp1789
(dp1790
g16
VNNP
p1791
sbatp1792
Rp1793
(dp1794
g16
VNP
p1795
sbag5
(g6
g7
(lp1796
Vand
p1797
atp1798
Rp1799
(dp1800
g16
VCC
p1801
sbag5
(g6
g7
(lp1802
g5
(g6
g7
(lp1803
VGoldberg2011
p1804
atp1805
Rp1806
(dp1807
g16
VNNS
p1808
sbatp1809
Rp1810
(dp1811
g16
VNP
p1812
sbatp1813
Rp1814
(dp1815
g16
VNP
p1816
sbatp1817
Rp1818
(dp1819
g16
VPP
p1820
sbag5
(g6
g7
(lp1821
g5
(g6
g7
(lp1822
g166
atp1823
Rp1824
(dp1825
g16
g166
sbag5
(g6
g7
(lp1826
g5
(g6
g7
(lp1827
V1254
p1828
atp1829
Rp1830
(dp1831
g16
VCD
p1832
sbag5
(g6
g7
(lp1833
V-RSB-
p1834
atp1835
Rp1836
(dp1837
g16
VNNS
p1838
sbatp1839
Rp1840
(dp1841
g16
VNP
p1842
sbag5
(g6
g7
(lp1843
g5
(g6
g7
(lp1844
Vposit
p1845
atp1846
Rp1847
(dp1848
g16
VVBP
p1849
sbag5
(g6
g7
(lp1850
g5
(g6
g7
(lp1851
g5
(g6
g7
(lp1852
g288
atp1853
Rp1854
(dp1855
g16
VDT
p1856
sbag5
(g6
g7
(lp1857
Vcriterion
p1858
atp1859
Rp1860
(dp1861
g16
VNN
p1862
sbatp1863
Rp1864
(dp1865
g16
VNP
p1866
sbag5
(g6
g7
(lp1867
g5
(g6
g7
(lp1868
Vof
p1869
atp1870
Rp1871
(dp1872
g16
VIN
p1873
sbag5
(g6
g7
(lp1874
g5
(g6
g7
(lp1875
g5
(g6
g7
(lp1876
Vcoverage
p1877
atp1878
Rp1879
(dp1880
g16
VNN
p1881
sbatp1882
Rp1883
(dp1884
g16
VNP
p1885
sbag5
(g6
g7
(lp1886
g166
atp1887
Rp1888
(dp1889
g16
g166
sbag5
(g6
g7
(lp1890
g5
(g6
g7
(lp1891
Vdefined
p1892
atp1893
Rp1894
(dp1895
g16
VVBN
p1896
sbag5
(g6
g7
(lp1897
g5
(g6
g7
(lp1898
Vas
p1899
atp1900
Rp1901
(dp1902
g16
VIN
p1903
sbag5
(g6
g7
(lp1904
g5
(g6
g7
(lp1905
g5
(g6
g7
(lp1906
g5
(g6
g7
(lp1907
g1585
atp1908
Rp1909
(dp1910
g16
VNNP
p1911
sbag5
(g6
g7
(lp1912
g1591
atp1913
Rp1914
(dp1915
g16
VPOS
p1916
sbatp1917
Rp1918
(dp1919
g16
VNP
p1920
sbag5
(g6
g7
(lp1921
V\u005c
p1922
atp1923
Rp1924
(dp1925
g16
VJJ
p1926
sbag5
(g6
g7
(lp1927
Vu201c
p1928
atp1929
Rp1930
(dp1931
g16
VNNS
p1932
sbatp1933
Rp1934
(dp1935
g16
VNP
p1936
sbag5
(g6
g7
(lp1937
g1591
atp1938
Rp1939
(dp1940
g16
V''
p1941
sbag5
(g6
g7
(lp1942
g5
(g6
g7
(lp1943
g5
(g6
g7
(lp1944
g5
(g6
g7
(lp1945
Vthe
p1946
atp1947
Rp1948
(dp1949
g16
VDT
p1950
sbag5
(g6
g7
(lp1951
Vdegree
p1952
atp1953
Rp1954
(dp1955
g16
VNN
p1956
sbatp1957
Rp1958
(dp1959
g16
VNP
p1960
sbag5
(g6
g7
(lp1961
g5
(g6
g7
(lp1962
Vto
p1963
atp1964
Rp1965
(dp1966
g16
VTO
p1967
sbag5
(g6
g7
(lp1968
g5
(g6
g7
(lp1969
Vwhich
p1970
atp1971
Rp1972
(dp1973
g16
VWDT
p1974
sbatp1975
Rp1976
(dp1977
g16
VWHNP
p1978
sbatp1979
Rp1980
(dp1981
g16
VWHPP
p1982
sbatp1983
Rp1984
(dp1985
g16
VWHNP
p1986
sbag5
(g6
g7
(lp1987
g5
(g6
g7
(lp1988
g5
(g6
g7
(lp1989
Vattested
p1990
atp1991
Rp1992
(dp1993
g16
VVBD
p1994
sbag5
(g6
g7
(lp1995
g5
(g6
g7
(lp1996
g5
(g6
g7
(lp1997
g5
(g6
g7
(lp1998
g5
(g6
g7
(lp1999
Vinstances
p2000
atp2001
Rp2002
(dp2003
g16
VNNP
p2004
sbag5
(g6
g7
(lp2005
g1585
atp2006
Rp2007
(dp2008
g16
VNNP
p2009
sbag5
(g6
g7
(lp2010
g1591
atp2011
Rp2012
(dp2013
g16
VPOS
p2014
sbatp2015
Rp2016
(dp2017
g16
VNP
p2018
sbag5
(g6
g7
(lp2019
V\u005c
p2020
atp2021
Rp2022
(dp2023
g16
VJJ
p2024
sbag5
(g6
g7
(lp2025
Vu2018
p2026
atp2027
Rp2028
(dp2029
g16
VNNS
p2030
sbag5
(g6
g7
(lp2031
g1591
atp2032
Rp2033
(dp2034
g16
V''
p2035
sbag5
(g6
g7
(lp2036
Vcover
p2037
atp2038
Rp2039
(dp2040
g16
VNN
p2041
sbatp2042
Rp2043
(dp2044
g16
VNP
p2045
sbag5
(g6
g7
(lp2046
g5
(g6
g7
(lp2047
g1585
atp2048
Rp2049
(dp2050
g16
VVBP
p2051
sbag5
(g6
g7
(lp2052
g1591
atp2053
Rp2054
(dp2055
g16
V''
p2056
sbag5
(g6
g7
(lp2057
g5
(g6
g7
(lp2058
V\u005c
p2059
atp2060
Rp2061
(dp2062
g16
VJJ
p2063
sbag5
(g6
g7
(lp2064
Vu2019
p2065
atp2066
Rp2067
(dp2068
g16
VNNS
p2069
sbatp2070
Rp2071
(dp2072
g16
VNP
p2073
sbag5
(g6
g7
(lp2074
g1591
atp2075
Rp2076
(dp2077
g16
V''
p2078
sbatp2079
Rp2080
(dp2081
g16
VVP
p2082
sbatp2083
Rp2084
(dp2085
g16
g160
sbatp2086
Rp2087
(dp2088
g16
VSBAR
p2089
sbatp2090
Rp2091
(dp2092
g16
VVP
p2093
sbatp2094
Rp2095
(dp2096
g16
g160
sbatp2097
Rp2098
(dp2099
g16
VSBAR
p2100
sbatp2101
Rp2102
(dp2103
g16
VNP
p2104
sbatp2105
Rp2106
(dp2107
g16
VPP
p2108
sbatp2109
Rp2110
(dp2111
g16
VVP
p2112
sbatp2113
Rp2114
(dp2115
g16
VNP
p2116
sbatp2117
Rp2118
(dp2119
g16
VPP
p2120
sbatp2121
Rp2122
(dp2123
g16
VNP
p2124
sbatp2125
Rp2126
(dp2127
g16
VVP
p2128
sbatp2129
Rp2130
(dp2131
g16
VPRN
p2132
sbag5
(g6
g7
(lp2133
g5
(g6
g7
(lp2134
Vthe
p2135
atp2136
Rp2137
(dp2138
g16
VDT
p2139
sbag5
(g6
g7
(lp2140
Vcategory
p2141
atp2142
Rp2143
(dp2144
g16
VNN
p2145
sbatp2146
Rp2147
(dp2148
g16
VNP
p2149
sbag5
(g6
g7
(lp2150
g5
(g6
g7
(lp2151
Vdetermined
p2152
atp2153
Rp2154
(dp2155
g16
VVBD
p2156
sbag5
(g6
g7
(lp2157
g5
(g6
g7
(lp2158
Vjointly
p2159
atp2160
Rp2161
(dp2162
g16
VRB
p2163
sbatp2164
Rp2165
(dp2166
g16
VADVP
p2167
sbag5
(g6
g7
(lp2168
g5
(g6
g7
(lp2169
Vby
p2170
atp2171
Rp2172
(dp2173
g16
VIN
p2174
sbag5
(g6
g7
(lp2175
g5
(g6
g7
(lp2176
Vattested
p2177
atp2178
Rp2179
(dp2180
g16
VJJ
p2181
sbag5
(g6
g7
(lp2182
Vinstances
p2183
atp2184
Rp2185
(dp2186
g16
VNNS
p2187
sbatp2188
Rp2189
(dp2190
g16
VNP
p2191
sbatp2192
Rp2193
(dp2194
g16
VPP
p2195
sbag5
(g6
g7
(lp2196
g5
(g6
g7
(lp2197
Vtogether
p2198
atp2199
Rp2200
(dp2201
g16
VRB
p2202
sbatp2203
Rp2204
(dp2205
g16
VADVP
p2206
sbag5
(g6
g7
(lp2207
g5
(g6
g7
(lp2208
Vwith
p2209
atp2210
Rp2211
(dp2212
g16
VIN
p2213
sbag5
(g6
g7
(lp2214
g5
(g6
g7
(lp2215
g5
(g6
g7
(lp2216
Vthe
p2217
atp2218
Rp2219
(dp2220
g16
VDT
p2221
sbag5
(g6
g7
(lp2222
Vtarget
p2223
atp2224
Rp2225
(dp2226
g16
VNN
p2227
sbag5
(g6
g7
(lp2228
Vcoinage
p2229
atp2230
Rp2231
(dp2232
g16
VNN
p2233
sbag5
(g6
g7
(lp2234
g1585
atp2235
Rp2236
(dp2237
g16
VNN
p2238
sbag5
(g6
g7
(lp2239
g1591
atp2240
Rp2241
(dp2242
g16
VPOS
p2243
sbatp2244
Rp2245
(dp2246
g16
VNP
p2247
sbag5
(g6
g7
(lp2248
V\u005c
p2249
atp2250
Rp2251
(dp2252
g16
VJJ
p2253
sbag5
(g6
g7
(lp2254
Vu201d
p2255
atp2256
Rp2257
(dp2258
g16
VNNS
p2259
sbatp2260
Rp2261
(dp2262
g16
VNP
p2263
sbatp2264
Rp2265
(dp2266
g16
VPP
p2267
sbatp2268
Rp2269
(dp2270
g16
VVP
p2271
sbag5
(g6
g7
(lp2272
g1591
atp2273
Rp2274
(dp2275
g16
V''
p2276
sbatp2277
Rp2278
(dp2279
g16
g160
sbatp2280
Rp2281
(dp2282
g16
VROOT
p2283
sbasg693
(icmyPackage
CorE
p2284
(dp2285
g696
(lp2286
(I0
I22
tp2287
a(I0
I59
tp2288
asg700
g5
(g6
g7
(lp2289
g2102
ag2147
ag2269
atp2290
Rp2291
(dp2292
g16
g711
sbsbsg701
(icmyPackage
CorE
p2293
(dp2294
g696
(lp2295
(I0
I0
tp2296
a(I0
I20
tp2297
asg700
g5
(g6
g7
(lp2298
g1818
ag1824
ag1840
ag1847
ag1864
ag1871
ag1883
ag1888
ag1894
atp2299
Rp2300
(dp2301
g16
g711
sbsbsg712
g1702
sg735
(lp2302
(isxpPackage
sxpSent
p2303
(dp2304
g739
(lp2305
I2
asg741
VAlong these lines, Suttle and Goldberg [ Suttle and Goldberg2011 , 1254] posit a criterion of coverage, defined as u'\u005cu201c' the degree to which attested instances u'\u005cu2018' cover u'\u005cu2019' the category determined jointly by attested instances together with the target coinage u'\u005cu201d'
p2306
sg743
I2
sg728
I13
sg744
I5
sbasba(icmyPackage
CELink
p2307
(dp2308
g3
(lp2309
g5
(g6
g7
(lp2310
g5
(g6
g7
(lp2311
g5
(g6
g7
(lp2312
g5
(g6
g7
(lp2313
VThe
p2314
atp2315
Rp2316
(dp2317
g16
VDT
p2318
sbag5
(g6
g7
(lp2319
Vconstruction
p2320
atp2321
Rp2322
(dp2323
g16
VNN
p2324
sbatp2325
Rp2326
(dp2327
g16
VNP
p2328
sbag5
(g6
g7
(lp2329
g5
(g6
g7
(lp2330
g5
(g6
g7
(lp2331
Vgenerally
p2332
atp2333
Rp2334
(dp2335
g16
VRB
p2336
sbatp2337
Rp2338
(dp2339
g16
VADVP
p2340
sbag5
(g6
g7
(lp2341
Vconveys
p2342
atp2343
Rp2344
(dp2345
g16
VVBZ
p2346
sbag5
(g6
g7
(lp2347
g5
(g6
g7
(lp2348
g5
(g6
g7
(lp2349
Van
p2350
atp2351
Rp2352
(dp2353
g16
VDT
p2354
sbag5
(g6
g7
(lp2355
Vintensifying
p2356
atp2357
Rp2358
(dp2359
g16
VVBG
p2360
sbag5
(g6
g7
(lp2361
Vfunction
p2362
atp2363
Rp2364
(dp2365
g16
VNN
p2366
sbatp2367
Rp2368
(dp2369
g16
VNP
p2370
sbag5
(g6
g7
(lp2371
g5
(g6
g7
(lp2372
g5
(g6
g7
(lp2373
V-LRB-
p2374
atp2375
Rp2376
(dp2377
g16
V-LRB-
p2378
sbag5
(g6
g7
(lp2379
g5
(g6
g7
(lp2380
Vvery
p2381
atp2382
Rp2383
(dp2384
g16
VJJ
p2385
sbag5
(g6
g7
(lp2386
Vbroadly
p2387
atp2388
Rp2389
(dp2390
g16
VNNS
p2391
sbatp2392
Rp2393
(dp2394
g16
VNP
p2395
sbag5
(g6
g7
(lp2396
g5
(g6
g7
(lp2397
Vdefined
p2398
atp2399
Rp2400
(dp2401
g16
VVBD
p2402
sbatp2403
Rp2404
(dp2405
g16
VVP
p2406
sbatp2407
Rp2408
(dp2409
g16
g160
sbatp2410
Rp2411
(dp2412
g16
VSBAR
p2413
sbatp2414
Rp2415
(dp2416
g16
VNP
p2417
sbatp2418
Rp2419
(dp2420
g16
VVP
p2421
sbatp2422
Rp2423
(dp2424
g16
g160
sbatp2425
Rp2426
(dp2427
g16
VROOT
p2428
sbag5
(g6
g7
(lp2429
g5
(g6
g7
(lp2430
g5
(g6
g7
(lp2431
g5
(g6
g7
(lp2432
VThus
p2433
atp2434
Rp2435
(dp2436
g16
VRB
p2437
sbatp2438
Rp2439
(dp2440
g16
VADVP
p2441
sbag5
(g6
g7
(lp2442
g166
atp2443
Rp2444
(dp2445
g16
g166
sbag5
(g6
g7
(lp2446
g5
(g6
g7
(lp2447
g5
(g6
g7
(lp2448
Vscare/surprise
p2449
atp2450
Rp2451
(dp2452
g16
VNN
p2453
sbatp2454
Rp2455
(dp2456
g16
VNP
p2457
sbag5
(g6
g7
(lp2458
g5
(g6
g7
(lp2459
g5
(g6
g7
(lp2460
g5
(g6
g7
(lp2461
Vthe
p2462
atp2463
Rp2464
(dp2465
g16
VDT
p2466
sbag5
(g6
g7
(lp2467
Vhell
p2468
atp2469
Rp2470
(dp2471
g16
VNN
p2472
sbatp2473
Rp2474
(dp2475
g16
VNP
p2476
sbag5
(g6
g7
(lp2477
Vout
p2478
atp2479
Rp2480
(dp2481
g16
VIN
p2482
sbatp2483
Rp2484
(dp2485
g16
VADVP
p2486
sbag5
(g6
g7
(lp2487
Vof
p2488
atp2489
Rp2490
(dp2491
g16
VIN
p2492
sbag5
(g6
g7
(lp2493
g5
(g6
g7
(lp2494
Vmeans
p2495
atp2496
Rp2497
(dp2498
g16
VNNS
p2499
sbatp2500
Rp2501
(dp2502
g16
VNP
p2503
sbatp2504
Rp2505
(dp2506
g16
VPP
p2507
sbag5
(g6
g7
(lp2508
g5
(g6
g7
(lp2509
g5
(g6
g7
(lp2510
g5
(g6
g7
(lp2511
g5
(g6
g7
(lp2512
g5
(g6
g7
(lp2513
g1585
atp2514
Rp2515
(dp2516
g16
VNNP
p2517
sbag5
(g6
g7
(lp2518
g1591
atp2519
Rp2520
(dp2521
g16
VPOS
p2522
sbatp2523
Rp2524
(dp2525
g16
VNP
p2526
sbag5
(g6
g7
(lp2527
V\u005c
p2528
atp2529
Rp2530
(dp2531
g16
VJJ
p2532
sbag5
(g6
g7
(lp2533
Vu201c
p2534
atp2535
Rp2536
(dp2537
g16
VJJ
p2538
sbag5
(g6
g7
(lp2539
g1591
atp2540
Rp2541
(dp2542
g16
V''
p2543
sbag5
(g6
g7
(lp2544
Vscare/surprise
p2545
atp2546
Rp2547
(dp2548
g16
VNN
p2549
sbatp2550
Rp2551
(dp2552
g16
VNP
p2553
sbag5
(g6
g7
(lp2554
g5
(g6
g7
(lp2555
Vvery
p2556
atp2557
Rp2558
(dp2559
g16
VRB
p2560
sbag5
(g6
g7
(lp2561
Vmuch
p2562
atp2563
Rp2564
(dp2565
g16
VJJ
p2566
sbatp2567
Rp2568
(dp2569
g16
VADJP
p2570
sbatp2571
Rp2572
(dp2573
g16
VNP
p2574
sbag5
(g6
g7
(lp2575
g5
(g6
g7
(lp2576
g5
(g6
g7
(lp2577
g1585
atp2578
Rp2579
(dp2580
g16
VVBP
p2581
sbag5
(g6
g7
(lp2582
g1591
atp2583
Rp2584
(dp2585
g16
V``
p2586
sbag5
(g6
g7
(lp2587
g5
(g6
g7
(lp2588
V\u005c
p2589
atp2590
Rp2591
(dp2592
g16
VJJ
p2593
sbag5
(g6
g7
(lp2594
Vu201d
p2595
atp2596
Rp2597
(dp2598
g16
VNNS
p2599
sbatp2600
Rp2601
(dp2602
g16
VNP
p2603
sbag5
(g6
g7
(lp2604
g1591
atp2605
Rp2606
(dp2607
g16
V''
p2608
sbatp2609
Rp2610
(dp2611
g16
VVP
p2612
sbag5
(g6
g7
(lp2613
g166
atp2614
Rp2615
(dp2616
g16
g166
sbag5
(g6
g7
(lp2617
Vand
p2618
atp2619
Rp2620
(dp2621
g16
VCC
p2622
sbag5
(g6
g7
(lp2623
g5
(g6
g7
(lp2624
Vkick
p2625
atp2626
Rp2627
(dp2628
g16
VVBP
p2629
sbag5
(g6
g7
(lp2630
g5
(g6
g7
(lp2631
Vthe
p2632
atp2633
Rp2634
(dp2635
g16
VDT
p2636
sbag5
(g6
g7
(lp2637
Vhell
p2638
atp2639
Rp2640
(dp2641
g16
VNN
p2642
sbatp2643
Rp2644
(dp2645
g16
VNP
p2646
sbag5
(g6
g7
(lp2647
g5
(g6
g7
(lp2648
Vout
p2649
atp2650
Rp2651
(dp2652
g16
VRP
p2653
sbatp2654
Rp2655
(dp2656
g16
VPRT
p2657
sbatp2658
Rp2659
(dp2660
g16
VVP
p2661
sbatp2662
Rp2663
(dp2664
g16
VVP
p2665
sbatp2666
Rp2667
(dp2668
g16
g160
sbatp2669
Rp2670
(dp2671
g16
VSBAR
p2672
sbag5
(g6
g7
(lp2673
g5
(g6
g7
(lp2674
Vof
p2675
atp2676
Rp2677
(dp2678
g16
VIN
p2679
sbag5
(g6
g7
(lp2680
g5
(g6
g7
(lp2681
g5
(g6
g7
(lp2682
g5
(g6
g7
(lp2683
Vmeans
p2684
atp2685
Rp2686
(dp2687
g16
VNN
p2688
sbag5
(g6
g7
(lp2689
g1585
atp2690
Rp2691
(dp2692
g16
VNN
p2693
sbag5
(g6
g7
(lp2694
g1591
atp2695
Rp2696
(dp2697
g16
VPOS
p2698
sbatp2699
Rp2700
(dp2701
g16
VNP
p2702
sbag5
(g6
g7
(lp2703
V\u005c
p2704
atp2705
Rp2706
(dp2707
g16
VJJ
p2708
sbag5
(g6
g7
(lp2709
Vu201c
p2710
atp2711
Rp2712
(dp2713
g16
VJJ
p2714
sbag5
(g6
g7
(lp2715
g1591
atp2716
Rp2717
(dp2718
g16
V''
p2719
sbag5
(g6
g7
(lp2720
Vkick
p2721
atp2722
Rp2723
(dp2724
g16
VNN
p2725
sbatp2726
Rp2727
(dp2728
g16
VNP
p2729
sbag5
(g6
g7
(lp2730
g5
(g6
g7
(lp2731
Vvery
p2732
atp2733
Rp2734
(dp2735
g16
VRB
p2736
sbag5
(g6
g7
(lp2737
Vhard
p2738
atp2739
Rp2740
(dp2741
g16
VJJ
p2742
sbatp2743
Rp2744
(dp2745
g16
VADJP
p2746
sbatp2747
Rp2748
(dp2749
g16
VNP
p2750
sbatp2751
Rp2752
(dp2753
g16
VPP
p2754
sbatp2755
Rp2756
(dp2757
g16
VNP
p2758
sbag5
(g6
g7
(lp2759
g5
(g6
g7
(lp2760
g1585
atp2761
Rp2762
(dp2763
g16
VVBP
p2764
sbag5
(g6
g7
(lp2765
g1591
atp2766
Rp2767
(dp2768
g16
V''
p2769
sbag5
(g6
g7
(lp2770
g5
(g6
g7
(lp2771
V\u005c
p2772
atp2773
Rp2774
(dp2775
g16
VJJ
p2776
sbag5
(g6
g7
(lp2777
Vu201d
p2778
atp2779
Rp2780
(dp2781
g16
VNNS
p2782
sbatp2783
Rp2784
(dp2785
g16
VNP
p2786
sbag5
(g6
g7
(lp2787
g1591
atp2788
Rp2789
(dp2790
g16
V''
p2791
sbatp2792
Rp2793
(dp2794
g16
VVP
p2795
sbatp2796
Rp2797
(dp2798
g16
g160
sbatp2799
Rp2800
(dp2801
g16
VROOT
p2802
sbasg693
(icmyPackage
CorE
p2803
(dp2804
g696
(lp2805
(I0
I0
tp2806
a(I0
I10
tp2807
asg700
g2426
sbsg701
(icmyPackage
CorE
p2808
(dp2809
g696
(lp2810
(I1
I1
tp2811
a(I1
I41
tp2812
asg700
g5
(g6
g7
(lp2813
g2444
ag2756
ag2793
atp2814
Rp2815
(dp2816
g16
g711
sbsbsg712
(icmyPackage
pattern
p2817
(dp2818
g715
I35
sg716
I1
sg717
(lp2819
(lp2820
S'thus'
p2821
aasg723
(lp2822
I1
aI1
aI1
asg725
(lp2823
S'Japan will be on the dark side of the Earth, and thus will lack the warming influence of the Sun.'
p2824
asg728
I2
sg729
(lp2825
(lp2826
S'&C'
p2827
aS'(,/;/./--)'
p2828
aS'(&AND)'
p2829
aa(lp2830
S'&R'
p2831
aasbsg735
(lp2832
(isxpPackage
sxpSent
p2833
(dp2834
g739
(lp2835
I3
asg741
VThe construction generally conveys an intensifying function (very broadly defined
p2836
sg743
I3
sg728
I25
sg744
I11
sba(isxpPackage
sxpSent
p2837
(dp2838
g739
(lp2839
I3
asg741
VThus, scare/surprise the hell out of means u'\u005cu201c' scare/surprise very much u'\u005cu201d' , and kick the hell out of means u'\u005cu201c' kick very hard u'\u005cu201d'
p2840
sg743
I3
sg728
I26
sg744
I11
sbasba(icmyPackage
CELink
p2841
(dp2842
g3
(lp2843
g5
(g6
g7
(lp2844
g5
(g6
g7
(lp2845
g5
(g6
g7
(lp2846
g5
(g6
g7
(lp2847
VSince
p2848
atp2849
Rp2850
(dp2851
g16
VIN
p2852
sbag5
(g6
g7
(lp2853
g5
(g6
g7
(lp2854
g5
(g6
g7
(lp2855
Vthe
p2856
atp2857
Rp2858
(dp2859
g16
VDT
p2860
sbag5
(g6
g7
(lp2861
Vcorpus
p2862
atp2863
Rp2864
(dp2865
g16
VNN
p2866
sbag5
(g6
g7
(lp2867
Vsize
p2868
atp2869
Rp2870
(dp2871
g16
VNN
p2872
sbatp2873
Rp2874
(dp2875
g16
VNP
p2876
sbag5
(g6
g7
(lp2877
g5
(g6
g7
(lp2878
Vvaries
p2879
atp2880
Rp2881
(dp2882
g16
VVBZ
p2883
sbag5
(g6
g7
(lp2884
g5
(g6
g7
(lp2885
Vslightly
p2886
atp2887
Rp2888
(dp2889
g16
VRB
p2890
sbatp2891
Rp2892
(dp2893
g16
VADVP
p2894
sbag5
(g6
g7
(lp2895
g5
(g6
g7
(lp2896
Vin
p2897
atp2898
Rp2899
(dp2900
g16
VIN
p2901
sbag5
(g6
g7
(lp2902
g5
(g6
g7
(lp2903
Veach
p2904
atp2905
Rp2906
(dp2907
g16
VDT
p2908
sbag5
(g6
g7
(lp2909
Vdecade
p2910
atp2911
Rp2912
(dp2913
g16
VNN
p2914
sbatp2915
Rp2916
(dp2917
g16
VNP
p2918
sbatp2919
Rp2920
(dp2921
g16
VPP
p2922
sbatp2923
Rp2924
(dp2925
g16
VVP
p2926
sbatp2927
Rp2928
(dp2929
g16
g160
sbatp2930
Rp2931
(dp2932
g16
VSBAR
p2933
sbag5
(g6
g7
(lp2934
g166
atp2935
Rp2936
(dp2937
g16
g166
sbag5
(g6
g7
(lp2938
g5
(g6
g7
(lp2939
Vthe
p2940
atp2941
Rp2942
(dp2943
g16
VDT
p2944
sbag5
(g6
g7
(lp2945
Vtoken
p2946
atp2947
Rp2948
(dp2949
g16
VJJ
p2950
sbag5
(g6
g7
(lp2951
Vfrequencies
p2952
atp2953
Rp2954
(dp2955
g16
VNNS
p2956
sbatp2957
Rp2958
(dp2959
g16
VNP
p2960
sbag5
(g6
g7
(lp2961
g5
(g6
g7
(lp2962
Vare
p2963
atp2964
Rp2965
(dp2966
g16
VVBP
p2967
sbag5
(g6
g7
(lp2968
g5
(g6
g7
(lp2969
Vnormalized
p2970
atp2971
Rp2972
(dp2973
g16
VVBN
p2974
sbag5
(g6
g7
(lp2975
g5
(g6
g7
(lp2976
Vper
p2977
atp2978
Rp2979
(dp2980
g16
VIN
p2981
sbag5
(g6
g7
(lp2982
g5
(g6
g7
(lp2983
Vmillion
p2984
atp2985
Rp2986
(dp2987
g16
VCD
p2988
sbag5
(g6
g7
(lp2989
Vwords
p2990
atp2991
Rp2992
(dp2993
g16
VNNS
p2994
sbatp2995
Rp2996
(dp2997
g16
VNP
p2998
sbatp2999
Rp3000
(dp3001
g16
VPP
p3002
sbatp3003
Rp3004
(dp3005
g16
VVP
p3006
sbatp3007
Rp3008
(dp3009
g16
VVP
p3010
sbatp3011
Rp3012
(dp3013
g16
g160
sbatp3014
Rp3015
(dp3016
g16
VROOT
p3017
sbasg693
(icmyPackage
CorE
p3018
(dp3019
g696
(lp3020
(I0
I1
tp3021
a(I0
I7
tp3022
asg700
g5
(g6
g7
(lp3023
g2874
ag2881
ag2892
ag2899
ag2906
atp3024
Rp3025
(dp3026
g16
g711
sbsbsg701
(icmyPackage
CorE
p3027
(dp3028
g696
(lp3029
(I0
I10
tp3030
a(I0
I17
tp3031
asg700
g5
(g6
g7
(lp3032
g2958
ag3008
atp3033
Rp3034
(dp3035
g16
g711
sbsbsg712
(icmyPackage
pattern
p3036
(dp3037
g715
I15
sg716
I0
sg717
(lp3038
(lp3039
S'since'
p3040
aa(lp3041
S','
p3042
aasg723
(lp3043
I3
aI1
aI1
asg725
(lp3044
S'But, since the herpes virus does not always show its symptoms, prevention is not fool proof.'
p3045
asg728
I78
sg729
(lp3046
(lp3047
a(lp3048
S'&C@NCTime@'
p3049
aa(lp3050
S'&R@NCTime@'
p3051
aasbsg735
(lp3052
(isxpPackage
sxpSent
p3053
(dp3054
g739
(lp3055
I4
asg741
VSince the corpus size varies slightly in each decade, the token frequencies are normalized per million words
p3056
sg743
I3
sg728
I37
sg744
I15
sbasba(icmyPackage
CELink
p3057
(dp3058
g3
(lp3059
g5
(g6
g7
(lp3060
g5
(g6
g7
(lp3061
g5
(g6
g7
(lp3062
g5
(g6
g7
(lp3063
VThe
p3064
atp3065
Rp3066
(dp3067
g16
VDT
p3068
sbag5
(g6
g7
(lp3069
Vconstruction
p3070
atp3071
Rp3072
(dp3073
g16
VNN
p3074
sbatp3075
Rp3076
(dp3077
g16
VNP
p3078
sbag5
(g6
g7
(lp3079
g5
(g6
g7
(lp3080
Vis
p3081
atp3082
Rp3083
(dp3084
g16
VVBZ
p3085
sbag5
(g6
g7
(lp3086
g5
(g6
g7
(lp3087
Vfirst
p3088
atp3089
Rp3090
(dp3091
g16
VRB
p3092
sbatp3093
Rp3094
(dp3095
g16
VADVP
p3096
sbag5
(g6
g7
(lp3097
g5
(g6
g7
(lp3098
Vattested
p3099
atp3100
Rp3101
(dp3102
g16
VVBN
p3103
sbag5
(g6
g7
(lp3104
g5
(g6
g7
(lp3105
Vin
p3106
atp3107
Rp3108
(dp3109
g16
VIN
p3110
sbag5
(g6
g7
(lp3111
g5
(g6
g7
(lp3112
g5
(g6
g7
(lp3113
Vthe
p3114
atp3115
Rp3116
(dp3117
g16
VDT
p3118
sbag5
(g6
g7
(lp3119
Vcorpus
p3120
atp3121
Rp3122
(dp3123
g16
VNN
p3124
sbatp3125
Rp3126
(dp3127
g16
VNP
p3128
sbag5
(g6
g7
(lp3129
g5
(g6
g7
(lp3130
Vin
p3131
atp3132
Rp3133
(dp3134
g16
VIN
p3135
sbag5
(g6
g7
(lp3136
g5
(g6
g7
(lp3137
Vthe
p3138
atp3139
Rp3140
(dp3141
g16
VDT
p3142
sbag5
(g6
g7
(lp3143
V1930s
p3144
atp3145
Rp3146
(dp3147
g16
VNNS
p3148
sbatp3149
Rp3150
(dp3151
g16
VNP
p3152
sbatp3153
Rp3154
(dp3155
g16
VPP
p3156
sbatp3157
Rp3158
(dp3159
g16
VNP
p3160
sbatp3161
Rp3162
(dp3163
g16
VPP
p3164
sbatp3165
Rp3166
(dp3167
g16
VVP
p3168
sbatp3169
Rp3170
(dp3171
g16
VVP
p3172
sbatp3173
Rp3174
(dp3175
g16
g160
sbatp3176
Rp3177
(dp3178
g16
VROOT
p3179
sbag5
(g6
g7
(lp3180
g5
(g6
g7
(lp3181
g5
(g6
g7
(lp3182
g5
(g6
g7
(lp3183
VSince
p3184
atp3185
Rp3186
(dp3187
g16
VIN
p3188
sbag5
(g6
g7
(lp3189
g5
(g6
g7
(lp3190
Vthen
p3191
atp3192
Rp3193
(dp3194
g16
VRB
p3195
sbatp3196
Rp3197
(dp3198
g16
VNP
p3199
sbatp3200
Rp3201
(dp3202
g16
VPP
p3203
sbag5
(g6
g7
(lp3204
g166
atp3205
Rp3206
(dp3207
g16
g166
sbag5
(g6
g7
(lp3208
g5
(g6
g7
(lp3209
Vit
p3210
atp3211
Rp3212
(dp3213
g16
VPRP
p3214
sbatp3215
Rp3216
(dp3217
g16
VNP
p3218
sbag5
(g6
g7
(lp3219
g5
(g6
g7
(lp3220
Vhas
p3221
atp3222
Rp3223
(dp3224
g16
VVBZ
p3225
sbag5
(g6
g7
(lp3226
g5
(g6
g7
(lp3227
Vbeen
p3228
atp3229
Rp3230
(dp3231
g16
VVBN
p3232
sbag5
(g6
g7
(lp3233
g5
(g6
g7
(lp3234
g5
(g6
g7
(lp3235
Vsteadily
p3236
atp3237
Rp3238
(dp3239
g16
VRB
p3240
sbatp3241
Rp3242
(dp3243
g16
VADVP
p3244
sbag5
(g6
g7
(lp3245
Vincreasing
p3246
atp3247
Rp3248
(dp3249
g16
VVBG
p3250
sbag5
(g6
g7
(lp3251
g5
(g6
g7
(lp3252
Vin
p3253
atp3254
Rp3255
(dp3256
g16
VIN
p3257
sbag5
(g6
g7
(lp3258
g5
(g6
g7
(lp3259
g5
(g6
g7
(lp3260
Vtoken
p3261
atp3262
Rp3263
(dp3264
g16
VJJ
p3265
sbag5
(g6
g7
(lp3266
Vfrequency
p3267
atp3268
Rp3269
(dp3270
g16
VNN
p3271
sbatp3272
Rp3273
(dp3274
g16
VNP
p3275
sbag5
(g6
g7
(lp3276
V-LRB-
p3277
atp3278
Rp3279
(dp3280
g16
V-LRB-
p3281
sbag5
(g6
g7
(lp3282
g5
(g6
g7
(lp3283
Vto
p3284
atp3285
Rp3286
(dp3287
g16
VTO
p3288
sbag5
(g6
g7
(lp3289
g5
(g6
g7
(lp3290
Vthe
p3291
atp3292
Rp3293
(dp3294
g16
VDT
p3295
sbag5
(g6
g7
(lp3296
Vexception
p3297
atp3298
Rp3299
(dp3300
g16
VNN
p3301
sbatp3302
Rp3303
(dp3304
g16
VNP
p3305
sbatp3306
Rp3307
(dp3308
g16
VPP
p3309
sbag5
(g6
g7
(lp3310
g5
(g6
g7
(lp3311
Vof
p3312
atp3313
Rp3314
(dp3315
g16
VIN
p3316
sbag5
(g6
g7
(lp3317
g5
(g6
g7
(lp3318
g5
(g6
g7
(lp3319
g288
atp3320
Rp3321
(dp3322
g16
VDT
p3323
sbag5
(g6
g7
(lp3324
Vsudden
p3325
atp3326
Rp3327
(dp3328
g16
VJJ
p3329
sbag5
(g6
g7
(lp3330
Vdecrease
p3331
atp3332
Rp3333
(dp3334
g16
VNN
p3335
sbatp3336
Rp3337
(dp3338
g16
VNP
p3339
sbag5
(g6
g7
(lp3340
g5
(g6
g7
(lp3341
Vin
p3342
atp3343
Rp3344
(dp3345
g16
VIN
p3346
sbag5
(g6
g7
(lp3347
g5
(g6
g7
(lp3348
Vthe
p3349
atp3350
Rp3351
(dp3352
g16
VDT
p3353
sbag5
(g6
g7
(lp3354
V1990s
p3355
atp3356
Rp3357
(dp3358
g16
VNNS
p3359
sbatp3360
Rp3361
(dp3362
g16
VNP
p3363
sbatp3364
Rp3365
(dp3366
g16
VPP
p3367
sbatp3368
Rp3369
(dp3370
g16
VNP
p3371
sbatp3372
Rp3373
(dp3374
g16
VPP
p3375
sbatp3376
Rp3377
(dp3378
g16
VNP
p3379
sbatp3380
Rp3381
(dp3382
g16
VPP
p3383
sbatp3384
Rp3385
(dp3386
g16
VVP
p3387
sbatp3388
Rp3389
(dp3390
g16
VVP
p3391
sbatp3392
Rp3393
(dp3394
g16
VVP
p3395
sbatp3396
Rp3397
(dp3398
g16
g160
sbatp3399
Rp3400
(dp3401
g16
VROOT
p3402
sbasg693
(icmyPackage
CorE
p3403
(dp3404
g696
(lp3405
(I1
I1
tp3406
a(I1
I21
tp3407
asg700
g5
(g6
g7
(lp3408
g3197
ag3206
ag3216
ag3393
atp3409
Rp3410
(dp3411
g16
g711
sbsbsg701
(icmyPackage
CorE
p3412
(dp3413
g696
(lp3414
(I0
I0
tp3415
a(I0
I10
tp3416
asg700
g3177
sbsg712
(icmyPackage
pattern
p3417
(dp3418
g715
I23
sg716
I1
sg717
(lp3419
(lp3420
S'since'
p3421
aasg723
(lp3422
I3
aI1
aI1
asg725
(lp3423
S'This is one of the simplest cases since the surface is so thin.'
p3424
aS'He could not answer the question, since he had not made up his mind.'
p3425
aS'That manager has been a basket case here since his wife left him.'
p3426
asg728
I79
sg729
(lp3427
(lp3428
S'&R@NCTime@'
p3429
aS'(,)'
p3430
aa(lp3431
S'&C@NCTime@'
p3432
aasbsg735
(lp3433
(isxpPackage
sxpSent
p3434
(dp3435
g739
(lp3436
I5
asg741
VThe construction is first attested in the corpus in the 1930s
p3437
sg743
I3
sg728
I38
sg744
I16
sba(isxpPackage
sxpSent
p3438
(dp3439
g739
(lp3440
I5
asg741
VSince then, it has been steadily increasing in token frequency (to the exception of a sudden decrease in the 1990s
p3441
sg743
I3
sg728
I39
sg744
I16
sbasba(icmyPackage
CELink
p3442
(dp3443
g3
(lp3444
g5
(g6
g7
(lp3445
g5
(g6
g7
(lp3446
g5
(g6
g7
(lp3447
g5
(g6
g7
(lp3448
g5
(g6
g7
(lp3449
VTo
p3450
atp3451
Rp3452
(dp3453
g16
VTO
p3454
sbag5
(g6
g7
(lp3455
g5
(g6
g7
(lp3456
Vanswer
p3457
atp3458
Rp3459
(dp3460
g16
VVB
p3461
sbag5
(g6
g7
(lp3462
g5
(g6
g7
(lp3463
Vthese
p3464
atp3465
Rp3466
(dp3467
g16
VDT
p3468
sbag5
(g6
g7
(lp3469
Vquestions
p3470
atp3471
Rp3472
(dp3473
g16
VNNS
p3474
sbatp3475
Rp3476
(dp3477
g16
VNP
p3478
sbatp3479
Rp3480
(dp3481
g16
VVP
p3482
sbatp3483
Rp3484
(dp3485
g16
VVP
p3486
sbatp3487
Rp3488
(dp3489
g16
g160
sbag5
(g6
g7
(lp3490
g166
atp3491
Rp3492
(dp3493
g16
g166
sbag5
(g6
g7
(lp3494
g5
(g6
g7
(lp3495
VI
p3496
atp3497
Rp3498
(dp3499
g16
VPRP
p3500
sbatp3501
Rp3502
(dp3503
g16
VNP
p3504
sbag5
(g6
g7
(lp3505
g5
(g6
g7
(lp3506
Vwill
p3507
atp3508
Rp3509
(dp3510
g16
VMD
p3511
sbag5
(g6
g7
(lp3512
g5
(g6
g7
(lp3513
Vanalyze
p3514
atp3515
Rp3516
(dp3517
g16
VVB
p3518
sbag5
(g6
g7
(lp3519
g5
(g6
g7
(lp3520
g5
(g6
g7
(lp3521
Vthe
p3522
atp3523
Rp3524
(dp3525
g16
VDT
p3526
sbag5
(g6
g7
(lp3527
Vdistribution
p3528
atp3529
Rp3530
(dp3531
g16
VNN
p3532
sbatp3533
Rp3534
(dp3535
g16
VNP
p3536
sbag5
(g6
g7
(lp3537
g5
(g6
g7
(lp3538
Vof
p3539
atp3540
Rp3541
(dp3542
g16
VIN
p3543
sbag5
(g6
g7
(lp3544
g5
(g6
g7
(lp3545
g5
(g6
g7
(lp3546
Vthe
p3547
atp3548
Rp3549
(dp3550
g16
VDT
p3551
sbag5
(g6
g7
(lp3552
Vconstruction
p3553
atp3554
Rp3555
(dp3556
g16
VNN
p3557
sbatp3558
Rp3559
(dp3560
g16
VNP
p3561
sbag5
(g6
g7
(lp3562
g5
(g6
g7
(lp3563
Vfrom
p3564
atp3565
Rp3566
(dp3567
g16
VIN
p3568
sbag5
(g6
g7
(lp3569
g5
(g6
g7
(lp3570
g5
(g6
g7
(lp3571
g288
atp3572
Rp3573
(dp3574
g16
VDT
p3575
sbag5
(g6
g7
(lp3576
Vsemantic
p3577
atp3578
Rp3579
(dp3580
g16
VJJ
p3581
sbag5
(g6
g7
(lp3582
Vpoint
p3583
atp3584
Rp3585
(dp3586
g16
VNN
p3587
sbatp3588
Rp3589
(dp3590
g16
VNP
p3591
sbag5
(g6
g7
(lp3592
g5
(g6
g7
(lp3593
Vof
p3594
atp3595
Rp3596
(dp3597
g16
VIN
p3598
sbag5
(g6
g7
(lp3599
g5
(g6
g7
(lp3600
Vview
p3601
atp3602
Rp3603
(dp3604
g16
VNN
p3605
sbatp3606
Rp3607
(dp3608
g16
VNP
p3609
sbatp3610
Rp3611
(dp3612
g16
VPP
p3613
sbatp3614
Rp3615
(dp3616
g16
VNP
p3617
sbatp3618
Rp3619
(dp3620
g16
VPP
p3621
sbatp3622
Rp3623
(dp3624
g16
VNP
p3625
sbatp3626
Rp3627
(dp3628
g16
VPP
p3629
sbatp3630
Rp3631
(dp3632
g16
VNP
p3633
sbag5
(g6
g7
(lp3634
g5
(g6
g7
(lp3635
Vby
p3636
atp3637
Rp3638
(dp3639
g16
VIN
p3640
sbag5
(g6
g7
(lp3641
g5
(g6
g7
(lp3642
g5
(g6
g7
(lp3643
Vusing
p3644
atp3645
Rp3646
(dp3647
g16
VVBG
p3648
sbag5
(g6
g7
(lp3649
g5
(g6
g7
(lp3650
g5
(g6
g7
(lp3651
g288
atp3652
Rp3653
(dp3654
g16
VDT
p3655
sbag5
(g6
g7
(lp3656
Vmeasure
p3657
atp3658
Rp3659
(dp3660
g16
VNN
p3661
sbatp3662
Rp3663
(dp3664
g16
VNP
p3665
sbag5
(g6
g7
(lp3666
g5
(g6
g7
(lp3667
Vof
p3668
atp3669
Rp3670
(dp3671
g16
VIN
p3672
sbag5
(g6
g7
(lp3673
g5
(g6
g7
(lp3674
g5
(g6
g7
(lp3675
Vsemantic
p3676
atp3677
Rp3678
(dp3679
g16
VJJ
p3680
sbag5
(g6
g7
(lp3681
Vsimilarity
p3682
atp3683
Rp3684
(dp3685
g16
VNN
p3686
sbatp3687
Rp3688
(dp3689
g16
VNP
p3690
sbag5
(g6
g7
(lp3691
g5
(g6
g7
(lp3692
Vderived
p3693
atp3694
Rp3695
(dp3696
g16
VVBN
p3697
sbag5
(g6
g7
(lp3698
g5
(g6
g7
(lp3699
Vfrom
p3700
atp3701
Rp3702
(dp3703
g16
VIN
p3704
sbag5
(g6
g7
(lp3705
g5
(g6
g7
(lp3706
Vdistributional
p3707
atp3708
Rp3709
(dp3710
g16
VJJ
p3711
sbag5
(g6
g7
(lp3712
Vinformation
p3713
atp3714
Rp3715
(dp3716
g16
VNN
p3717
sbatp3718
Rp3719
(dp3720
g16
VNP
p3721
sbatp3722
Rp3723
(dp3724
g16
VPP
p3725
sbatp3726
Rp3727
(dp3728
g16
VVP
p3729
sbatp3730
Rp3731
(dp3732
g16
VNP
p3733
sbatp3734
Rp3735
(dp3736
g16
VPP
p3737
sbatp3738
Rp3739
(dp3740
g16
VNP
p3741
sbatp3742
Rp3743
(dp3744
g16
VVP
p3745
sbatp3746
Rp3747
(dp3748
g16
g160
sbatp3749
Rp3750
(dp3751
g16
VPP
p3752
sbatp3753
Rp3754
(dp3755
g16
VVP
p3756
sbatp3757
Rp3758
(dp3759
g16
VVP
p3760
sbatp3761
Rp3762
(dp3763
g16
g160
sbatp3764
Rp3765
(dp3766
g16
VROOT
p3767
sbasg693
(icmyPackage
CorE
p3768
(dp3769
g696
(lp3770
(I0
I20
tp3771
a(I0
I29
tp3772
asg700
g3747
sbsg701
(icmyPackage
CorE
p3773
(dp3774
g696
(lp3775
(I0
I0
tp3776
a(I0
I18
tp3777
asg700
g5
(g6
g7
(lp3778
g3488
ag3492
ag3502
ag3509
ag3516
ag3631
atp3779
Rp3780
(dp3781
g16
g711
sbsbsg712
(icmyPackage
pattern
p3782
(dp3783
g715
I0
sg716
I0
sg717
(lp3784
(lp3785
(lp3786
S'by'
p3787
aS'through'
p3788
aaasg723
(lp3789
I2
aI1
aI1
asg725
(lp3790
S'The similar relation can be detected by analyzing the contents of nodes based on such approaches as the Latent Semantic Analysis (LSA) and the Vector Space Model (VSM)'
p3791
asg728
I68
sg729
(lp3792
(lp3793
S'&R@Complete@'
p3794
aa(lp3795
S'&V-ing@C@'
p3796
aasbsg735
(lp3797
(isxpPackage
sxpSent
p3798
(dp3799
g739
(lp3800
I6
asg741
VTo answer these questions, I will analyze the distribution of the construction from a semantic point of view by using a measure of semantic similarity derived from distributional information
p3801
sg743
I3
sg728
I43
sg744
I16
sbasba(icmyPackage
CELink
p3802
(dp3803
g3
(lp3804
g5
(g6
g7
(lp3805
g5
(g6
g7
(lp3806
g5
(g6
g7
(lp3807
g5
(g6
g7
(lp3808
g5
(g6
g7
(lp3809
VOne
p3810
atp3811
Rp3812
(dp3813
g16
VCD
p3814
sbag5
(g6
g7
(lp3815
Vbenefit
p3816
atp3817
Rp3818
(dp3819
g16
VNN
p3820
sbatp3821
Rp3822
(dp3823
g16
VNP
p3824
sbag5
(g6
g7
(lp3825
g5
(g6
g7
(lp3826
Vof
p3827
atp3828
Rp3829
(dp3830
g16
VIN
p3831
sbag5
(g6
g7
(lp3832
g5
(g6
g7
(lp3833
Vthe
p3834
atp3835
Rp3836
(dp3837
g16
VDT
p3838
sbag5
(g6
g7
(lp3839
Vdistributional
p3840
atp3841
Rp3842
(dp3843
g16
VJJ
p3844
sbag5
(g6
g7
(lp3845
Vsemantics
p3846
atp3847
Rp3848
(dp3849
g16
VNNS
p3850
sbag5
(g6
g7
(lp3851
Vapproach
p3852
atp3853
Rp3854
(dp3855
g16
VNN
p3856
sbatp3857
Rp3858
(dp3859
g16
VNP
p3860
sbatp3861
Rp3862
(dp3863
g16
VPP
p3864
sbatp3865
Rp3866
(dp3867
g16
VNP
p3868
sbag5
(g6
g7
(lp3869
g5
(g6
g7
(lp3870
Vis
p3871
atp3872
Rp3873
(dp3874
g16
VVBZ
p3875
sbag5
(g6
g7
(lp3876
g5
(g6
g7
(lp3877
Vthat
p3878
atp3879
Rp3880
(dp3881
g16
VIN
p3882
sbag5
(g6
g7
(lp3883
g5
(g6
g7
(lp3884
g5
(g6
g7
(lp3885
Vit
p3886
atp3887
Rp3888
(dp3889
g16
VPRP
p3890
sbatp3891
Rp3892
(dp3893
g16
VNP
p3894
sbag5
(g6
g7
(lp3895
g5
(g6
g7
(lp3896
Vallows
p3897
atp3898
Rp3899
(dp3900
g16
VVBZ
p3901
sbag5
(g6
g7
(lp3902
g5
(g6
g7
(lp3903
g5
(g6
g7
(lp3904
g5
(g6
g7
(lp3905
Vsemantic
p3906
atp3907
Rp3908
(dp3909
g16
VJJ
p3910
sbag5
(g6
g7
(lp3911
Vsimilarity
p3912
atp3913
Rp3914
(dp3915
g16
VNN
p3916
sbatp3917
Rp3918
(dp3919
g16
VNP
p3920
sbag5
(g6
g7
(lp3921
g5
(g6
g7
(lp3922
Vbetween
p3923
atp3924
Rp3925
(dp3926
g16
VIN
p3927
sbag5
(g6
g7
(lp3928
g5
(g6
g7
(lp3929
Vwords
p3930
atp3931
Rp3932
(dp3933
g16
VNNS
p3934
sbatp3935
Rp3936
(dp3937
g16
VNP
p3938
sbatp3939
Rp3940
(dp3941
g16
VPP
p3942
sbatp3943
Rp3944
(dp3945
g16
VNP
p3946
sbag5
(g6
g7
(lp3947
g5
(g6
g7
(lp3948
Vto
p3949
atp3950
Rp3951
(dp3952
g16
VTO
p3953
sbag5
(g6
g7
(lp3954
g5
(g6
g7
(lp3955
Vbe
p3956
atp3957
Rp3958
(dp3959
g16
VVB
p3960
sbag5
(g6
g7
(lp3961
g5
(g6
g7
(lp3962
Vquantified
p3963
atp3964
Rp3965
(dp3966
g16
VVBN
p3967
sbag5
(g6
g7
(lp3968
g5
(g6
g7
(lp3969
Vby
p3970
atp3971
Rp3972
(dp3973
g16
VIN
p3974
sbag5
(g6
g7
(lp3975
g5
(g6
g7
(lp3976
g5
(g6
g7
(lp3977
Vmeasuring
p3978
atp3979
Rp3980
(dp3981
g16
VVBG
p3982
sbag5
(g6
g7
(lp3983
g5
(g6
g7
(lp3984
Vthe
p3985
atp3986
Rp3987
(dp3988
g16
VDT
p3989
sbag5
(g6
g7
(lp3990
Vsimilarity
p3991
atp3992
Rp3993
(dp3994
g16
VNN
p3995
sbatp3996
Rp3997
(dp3998
g16
VNP
p3999
sbag5
(g6
g7
(lp4000
g5
(g6
g7
(lp4001
Vin
p4002
atp4003
Rp4004
(dp4005
g16
VIN
p4006
sbag5
(g6
g7
(lp4007
g5
(g6
g7
(lp4008
Vtheir
p4009
atp4010
Rp4011
(dp4012
g16
VPRP$
p4013
sbag5
(g6
g7
(lp4014
Vdistribution
p4015
atp4016
Rp4017
(dp4018
g16
VNN
p4019
sbatp4020
Rp4021
(dp4022
g16
VNP
p4023
sbatp4024
Rp4025
(dp4026
g16
VPP
p4027
sbatp4028
Rp4029
(dp4030
g16
VVP
p4031
sbatp4032
Rp4033
(dp4034
g16
g160
sbatp4035
Rp4036
(dp4037
g16
VPP
p4038
sbatp4039
Rp4040
(dp4041
g16
VVP
p4042
sbatp4043
Rp4044
(dp4045
g16
VVP
p4046
sbatp4047
Rp4048
(dp4049
g16
VVP
p4050
sbatp4051
Rp4052
(dp4053
g16
g160
sbatp4054
Rp4055
(dp4056
g16
VVP
p4057
sbatp4058
Rp4059
(dp4060
g16
g160
sbatp4061
Rp4062
(dp4063
g16
VSBAR
p4064
sbatp4065
Rp4066
(dp4067
g16
VVP
p4068
sbatp4069
Rp4070
(dp4071
g16
g160
sbatp4072
Rp4073
(dp4074
g16
VROOT
p4075
sbasg693
(icmyPackage
CorE
p4076
(dp4077
g696
(lp4078
(I0
I19
tp4079
a(I0
I24
tp4080
asg700
g4033
sbsg701
(icmyPackage
CorE
p4081
(dp4082
g696
(lp4083
(I0
I0
tp4084
a(I0
I17
tp4085
asg700
g5
(g6
g7
(lp4086
g3866
ag3873
ag3880
ag3892
ag3899
ag3944
ag3951
ag3958
ag3965
atp4087
Rp4088
(dp4089
g16
g711
sbsbsg712
g3782
sg735
(lp4090
(isxpPackage
sxpSent
p4091
(dp4092
g739
(lp4093
I7
asg741
VOne benefit of the distributional semantics approach is that it allows semantic similarity between words to be quantified by measuring the similarity in their distribution
p4094
sg743
I4
sg728
I45
sg744
I17
sbasba(icmyPackage
CELink
p4095
(dp4096
g3
(lp4097
g5
(g6
g7
(lp4098
g5
(g6
g7
(lp4099
g5
(g6
g7
(lp4100
g5
(g6
g7
(lp4101
g5
(g6
g7
(lp4102
g5
(g6
g7
(lp4103
VA
p4104
atp4105
Rp4106
(dp4107
g16
VDT
p4108
sbag5
(g6
g7
(lp4109
Vwide
p4110
atp4111
Rp4112
(dp4113
g16
VJJ
p4114
sbag5
(g6
g7
(lp4115
Vrange
p4116
atp4117
Rp4118
(dp4119
g16
VNN
p4120
sbatp4121
Rp4122
(dp4123
g16
VNP
p4124
sbag5
(g6
g7
(lp4125
g5
(g6
g7
(lp4126
Vof
p4127
atp4128
Rp4129
(dp4130
g16
VIN
p4131
sbag5
(g6
g7
(lp4132
g5
(g6
g7
(lp4133
Vdistributional
p4134
atp4135
Rp4136
(dp4137
g16
VJJ
p4138
sbag5
(g6
g7
(lp4139
Vinformation
p4140
atp4141
Rp4142
(dp4143
g16
VNN
p4144
sbatp4145
Rp4146
(dp4147
g16
VNP
p4148
sbatp4149
Rp4150
(dp4151
g16
VPP
p4152
sbatp4153
Rp4154
(dp4155
g16
VNP
p4156
sbag5
(g6
g7
(lp4157
g5
(g6
g7
(lp4158
Vcan
p4159
atp4160
Rp4161
(dp4162
g16
VMD
p4163
sbag5
(g6
g7
(lp4164
g5
(g6
g7
(lp4165
Vbe
p4166
atp4167
Rp4168
(dp4169
g16
VVB
p4170
sbag5
(g6
g7
(lp4171
g5
(g6
g7
(lp4172
Vemployed
p4173
atp4174
Rp4175
(dp4176
g16
VVBN
p4177
sbag5
(g6
g7
(lp4178
g5
(g6
g7
(lp4179
Vin
p4180
atp4181
Rp4182
(dp4183
g16
VIN
p4184
sbag5
(g6
g7
(lp4185
g5
(g6
g7
(lp4186
Vvector-based
p4187
atp4188
Rp4189
(dp4190
g16
VJJ
p4191
sbag5
(g6
g7
(lp4192
Vmodels
p4193
atp4194
Rp4195
(dp4196
g16
VNNS
p4197
sbatp4198
Rp4199
(dp4200
g16
VNP
p4201
sbatp4202
Rp4203
(dp4204
g16
VPP
p4205
sbatp4206
Rp4207
(dp4208
g16
VVP
p4209
sbatp4210
Rp4211
(dp4212
g16
VVP
p4213
sbatp4214
Rp4215
(dp4216
g16
VVP
p4217
sbatp4218
Rp4219
(dp4220
g16
g160
sbag5
(g6
g7
(lp4221
V;
p4222
atp4223
Rp4224
(dp4225
g16
V:
p4226
sbag5
(g6
g7
(lp4227
g5
(g6
g7
(lp4228
g5
(g6
g7
(lp4229
Vthe
p4230
atp4231
Rp4232
(dp4233
g16
VDT
p4234
sbag5
(g6
g7
(lp4235
Vpresent
p4236
atp4237
Rp4238
(dp4239
g16
VJJ
p4240
sbag5
(g6
g7
(lp4241
Vstudy
p4242
atp4243
Rp4244
(dp4245
g16
VNN
p4246
sbatp4247
Rp4248
(dp4249
g16
VNP
p4250
sbag5
(g6
g7
(lp4251
g5
(g6
g7
(lp4252
Vuses
p4253
atp4254
Rp4255
(dp4256
g16
VVBZ
p4257
sbag5
(g6
g7
(lp4258
g5
(g6
g7
(lp4259
g5
(g6
g7
(lp4260
g5
(g6
g7
(lp4261
Vthe
p4262
atp4263
Rp4264
(dp4265
g16
VDT
p4266
sbag5
(g6
g7
(lp4267
g1585
atp4268
Rp4269
(dp4270
g16
VNN
p4271
sbag5
(g6
g7
(lp4272
g1591
atp4273
Rp4274
(dp4275
g16
VPOS
p4276
sbatp4277
Rp4278
(dp4279
g16
VNP
p4280
sbag5
(g6
g7
(lp4281
V\u005c
p4282
atp4283
Rp4284
(dp4285
g16
VJJ
p4286
sbag5
(g6
g7
(lp4287
Vu2018
p4288
atp4289
Rp4290
(dp4291
g16
VJJ
p4292
sbag5
(g6
g7
(lp4293
g1591
atp4294
Rp4295
(dp4296
g16
V''
p4297
sbag5
(g6
g7
(lp4298
Vbag
p4299
atp4300
Rp4301
(dp4302
g16
VNN
p4303
sbatp4304
Rp4305
(dp4306
g16
VNP
p4307
sbag5
(g6
g7
(lp4308
g5
(g6
g7
(lp4309
Vof
p4310
atp4311
Rp4312
(dp4313
g16
VIN
p4314
sbag5
(g6
g7
(lp4315
g5
(g6
g7
(lp4316
Vwords
p4317
atp4318
Rp4319
(dp4320
g16
VNNS
p4321
sbag5
(g6
g7
(lp4322
g1585
atp4323
Rp4324
(dp4325
g16
VNN
p4326
sbatp4327
Rp4328
(dp4329
g16
VNP
p4330
sbatp4331
Rp4332
(dp4333
g16
VPP
p4334
sbag5
(g6
g7
(lp4335
g1591
atp4336
Rp4337
(dp4338
g16
V''
p4339
sbag5
(g6
g7
(lp4340
g5
(g6
g7
(lp4341
g5
(g6
g7
(lp4342
g5
(g6
g7
(lp4343
V\u005c
p4344
atp4345
Rp4346
(dp4347
g16
VNNP
p4348
sbag5
(g6
g7
(lp4349
Vu2019
p4350
atp4351
Rp4352
(dp4353
g16
VNNP
p4354
sbag5
(g6
g7
(lp4355
g1591
atp4356
Rp4357
(dp4358
g16
VPOS
p4359
sbatp4360
Rp4361
(dp4362
g16
VNP
p4363
sbag5
(g6
g7
(lp4364
Vapproach
p4365
atp4366
Rp4367
(dp4368
g16
VNN
p4369
sbatp4370
Rp4371
(dp4372
g16
VNP
p4373
sbag5
(g6
g7
(lp4374
g166
atp4375
Rp4376
(dp4377
g16
g166
sbag5
(g6
g7
(lp4378
g5
(g6
g7
(lp4379
g5
(g6
g7
(lp4380
Vwhich
p4381
atp4382
Rp4383
(dp4384
g16
VWDT
p4385
sbatp4386
Rp4387
(dp4388
g16
VWHNP
p4389
sbag5
(g6
g7
(lp4390
g5
(g6
g7
(lp4391
g5
(g6
g7
(lp4392
Vis
p4393
atp4394
Rp4395
(dp4396
g16
VVBZ
p4397
sbag5
(g6
g7
(lp4398
g5
(g6
g7
(lp4399
Vbased
p4400
atp4401
Rp4402
(dp4403
g16
VVBN
p4404
sbag5
(g6
g7
(lp4405
g5
(g6
g7
(lp4406
Von
p4407
atp4408
Rp4409
(dp4410
g16
VIN
p4411
sbag5
(g6
g7
(lp4412
g5
(g6
g7
(lp4413
g5
(g6
g7
(lp4414
Vthe
p4415
atp4416
Rp4417
(dp4418
g16
VDT
p4419
sbag5
(g6
g7
(lp4420
Vfrequency
p4421
atp4422
Rp4423
(dp4424
g16
VNN
p4425
sbatp4426
Rp4427
(dp4428
g16
VNP
p4429
sbag5
(g6
g7
(lp4430
g5
(g6
g7
(lp4431
Vof
p4432
atp4433
Rp4434
(dp4435
g16
VIN
p4436
sbag5
(g6
g7
(lp4437
g5
(g6
g7
(lp4438
g5
(g6
g7
(lp4439
Vco-occurrence
p4440
atp4441
Rp4442
(dp4443
g16
VNN
p4444
sbatp4445
Rp4446
(dp4447
g16
VNP
p4448
sbag5
(g6
g7
(lp4449
g5
(g6
g7
(lp4450
Vof
p4451
atp4452
Rp4453
(dp4454
g16
VIN
p4455
sbag5
(g6
g7
(lp4456
g5
(g6
g7
(lp4457
Vwords
p4458
atp4459
Rp4460
(dp4461
g16
VNNS
p4462
sbatp4463
Rp4464
(dp4465
g16
VNP
p4466
sbatp4467
Rp4468
(dp4469
g16
VPP
p4470
sbatp4471
Rp4472
(dp4473
g16
VNP
p4474
sbatp4475
Rp4476
(dp4477
g16
VPP
p4478
sbatp4479
Rp4480
(dp4481
g16
VNP
p4482
sbatp4483
Rp4484
(dp4485
g16
VPP
p4486
sbag5
(g6
g7
(lp4487
g5
(g6
g7
(lp4488
Vwithin
p4489
atp4490
Rp4491
(dp4492
g16
VIN
p4493
sbag5
(g6
g7
(lp4494
g5
(g6
g7
(lp4495
g288
atp4496
Rp4497
(dp4498
g16
VDT
p4499
sbag5
(g6
g7
(lp4500
Vgiven
p4501
atp4502
Rp4503
(dp4504
g16
VVBN
p4505
sbag5
(g6
g7
(lp4506
Vcontext
p4507
atp4508
Rp4509
(dp4510
g16
VNN
p4511
sbag5
(g6
g7
(lp4512
Vwindow
p4513
atp4514
Rp4515
(dp4516
g16
VNN
p4517
sbatp4518
Rp4519
(dp4520
g16
VNP
p4521
sbatp4522
Rp4523
(dp4524
g16
VPP
p4525
sbatp4526
Rp4527
(dp4528
g16
VVP
p4529
sbatp4530
Rp4531
(dp4532
g16
VVP
p4533
sbatp4534
Rp4535
(dp4536
g16
g160
sbatp4537
Rp4538
(dp4539
g16
VSBAR
p4540
sbatp4541
Rp4542
(dp4543
g16
VNP
p4544
sbatp4545
Rp4546
(dp4547
g16
VNP
p4548
sbatp4549
Rp4550
(dp4551
g16
VVP
p4552
sbatp4553
Rp4554
(dp4555
g16
g160
sbatp4556
Rp4557
(dp4558
g16
g160
sbatp4559
Rp4560
(dp4561
g16
VROOT
p4562
sbasg693
(icmyPackage
CorE
p4563
(dp4564
g696
(lp4565
(I0
I37
tp4566
a(I0
I47
tp4567
asg700
g5
(g6
g7
(lp4568
g4480
ag4523
atp4569
Rp4570
(dp4571
g16
g711
sbsbsg701
(icmyPackage
CorE
p4572
(dp4573
g696
(lp4574
(I0
I0
tp4575
a(I0
I34
tp4576
asg700
g5
(g6
g7
(lp4577
g4219
ag4224
ag4248
ag4255
ag4305
ag4332
ag4337
ag4371
ag4376
ag4387
ag4395
atp4578
Rp4579
(dp4580
g16
g711
sbsbsg712
(icmyPackage
pattern
p4581
(dp4582
g715
I0
sg716
I0
sg717
(lp4583
(lp4584
S'based'
p4585
aS'on'
p4586
aasg723
(lp4587
I2
aI1
aI1
asg725
(lp4588
S'He said he planned to announce details of legislation on Sunday based on a Republican plan that would provide a short-term solution'
p4589
asg728
I48
sg729
(lp4590
(lp4591
S'&R'
p4592
aS'(,)'
p4593
aS'(&ADV)'
p4594
aa(lp4595
S'&V-ing/&NP@C@'
p4596
aS'(&Clause@C@)'
p4597
aasbsg735
(lp4598
(isxpPackage
sxpSent
p4599
(dp4600
g739
(lp4601
I8
asg741
VA wide range of distributional information can be employed in vector-based models; the present study uses the u'\u005cu2018' bag of words u'\u005cu2019' approach, which is based on the frequency of co-occurrence of words within a given context window
p4602
sg743
I4
sg728
I47
sg744
I17
sbasba(icmyPackage
CELink
p4603
(dp4604
g3
(lp4605
g5
(g6
g7
(lp4606
g5
(g6
g7
(lp4607
g5
(g6
g7
(lp4608
g5
(g6
g7
(lp4609
VAccording
p4610
atp4611
Rp4612
(dp4613
g16
VVBG
p4614
sbag5
(g6
g7
(lp4615
g5
(g6
g7
(lp4616
Vto
p4617
atp4618
Rp4619
(dp4620
g16
VTO
p4621
sbag5
(g6
g7
(lp4622
g5
(g6
g7
(lp4623
VSahlgren
p4624
atp4625
Rp4626
(dp4627
g16
VNNP
p4628
sbatp4629
Rp4630
(dp4631
g16
VNP
p4632
sbatp4633
Rp4634
(dp4635
g16
VPP
p4636
sbatp4637
Rp4638
(dp4639
g16
VPP
p4640
sbag5
(g6
g7
(lp4641
g5
(g6
g7
(lp4642
V-LSB-
p4643
atp4644
Rp4645
(dp4646
g16
VVBZ
p4647
sbatp4648
Rp4649
(dp4650
g16
VVP
p4651
sbag5
(g6
g7
(lp4652
g5
(g6
g7
(lp4653
g5
(g6
g7
(lp4654
VSahlgren2008
p4655
atp4656
Rp4657
(dp4658
g16
VNNP
p4659
sbag5
(g6
g7
(lp4660
V-RSB-
p4661
atp4662
Rp4663
(dp4664
g16
VNNP
p4665
sbatp4666
Rp4667
(dp4668
g16
VNP
p4669
sbag5
(g6
g7
(lp4670
g166
atp4671
Rp4672
(dp4673
g16
g166
sbag5
(g6
g7
(lp4674
g5
(g6
g7
(lp4675
g5
(g6
g7
(lp4676
Vthis
p4677
atp4678
Rp4679
(dp4680
g16
VDT
p4681
sbag5
(g6
g7
(lp4682
Vkind
p4683
atp4684
Rp4685
(dp4686
g16
VNN
p4687
sbatp4688
Rp4689
(dp4690
g16
VNP
p4691
sbag5
(g6
g7
(lp4692
g5
(g6
g7
(lp4693
Vof
p4694
atp4695
Rp4696
(dp4697
g16
VIN
p4698
sbag5
(g6
g7
(lp4699
g5
(g6
g7
(lp4700
Vmodel
p4701
atp4702
Rp4703
(dp4704
g16
VNN
p4705
sbag5
(g6
g7
(lp4706
Vcaptures
p4707
atp4708
Rp4709
(dp4710
g16
VNNS
p4711
sbatp4712
Rp4713
(dp4714
g16
VNP
p4715
sbatp4716
Rp4717
(dp4718
g16
VPP
p4719
sbag5
(g6
g7
(lp4720
g5
(g6
g7
(lp4721
g5
(g6
g7
(lp4722
Vto
p4723
atp4724
Rp4725
(dp4726
g16
VTO
p4727
sbag5
(g6
g7
(lp4728
g5
(g6
g7
(lp4729
Vwhat
p4730
atp4731
Rp4732
(dp4733
g16
VWDT
p4734
sbag5
(g6
g7
(lp4735
Vextent
p4736
atp4737
Rp4738
(dp4739
g16
VNN
p4740
sbatp4741
Rp4742
(dp4743
g16
VWHNP
p4744
sbatp4745
Rp4746
(dp4747
g16
VWHPP
p4748
sbag5
(g6
g7
(lp4749
g5
(g6
g7
(lp4750
g5
(g6
g7
(lp4751
Vwords
p4752
atp4753
Rp4754
(dp4755
g16
VNNS
p4756
sbatp4757
Rp4758
(dp4759
g16
VNP
p4760
sbag5
(g6
g7
(lp4761
g5
(g6
g7
(lp4762
Vcan
p4763
atp4764
Rp4765
(dp4766
g16
VMD
p4767
sbag5
(g6
g7
(lp4768
g5
(g6
g7
(lp4769
Vbe
p4770
atp4771
Rp4772
(dp4773
g16
VVB
p4774
sbag5
(g6
g7
(lp4775
g5
(g6
g7
(lp4776
Vsubstituted
p4777
atp4778
Rp4779
(dp4780
g16
VVBN
p4781
sbag5
(g6
g7
(lp4782
g5
(g6
g7
(lp4783
Vfor
p4784
atp4785
Rp4786
(dp4787
g16
VIN
p4788
sbag5
(g6
g7
(lp4789
g5
(g6
g7
(lp4790
g5
(g6
g7
(lp4791
Veach
p4792
atp4793
Rp4794
(dp4795
g16
VDT
p4796
sbag5
(g6
g7
(lp4797
Vother
p4798
atp4799
Rp4800
(dp4801
g16
VJJ
p4802
sbatp4803
Rp4804
(dp4805
g16
VNP
p4806
sbag5
(g6
g7
(lp4807
g166
atp4808
Rp4809
(dp4810
g16
g166
sbag5
(g6
g7
(lp4811
g5
(g6
g7
(lp4812
g5
(g6
g7
(lp4813
Vwhich
p4814
atp4815
Rp4816
(dp4817
g16
VWDT
p4818
sbatp4819
Rp4820
(dp4821
g16
VWHNP
p4822
sbag5
(g6
g7
(lp4823
g5
(g6
g7
(lp4824
g5
(g6
g7
(lp4825
Vis
p4826
atp4827
Rp4828
(dp4829
g16
VVBZ
p4830
sbag5
(g6
g7
(lp4831
g5
(g6
g7
(lp4832
g5
(g6
g7
(lp4833
g288
atp4834
Rp4835
(dp4836
g16
VDT
p4837
sbag5
(g6
g7
(lp4838
Vgood
p4839
atp4840
Rp4841
(dp4842
g16
VJJ
p4843
sbag5
(g6
g7
(lp4844
Vmeasure
p4845
atp4846
Rp4847
(dp4848
g16
VNN
p4849
sbatp4850
Rp4851
(dp4852
g16
VNP
p4853
sbag5
(g6
g7
(lp4854
g5
(g6
g7
(lp4855
Vof
p4856
atp4857
Rp4858
(dp4859
g16
VIN
p4860
sbag5
(g6
g7
(lp4861
g5
(g6
g7
(lp4862
g5
(g6
g7
(lp4863
Vsemantic
p4864
atp4865
Rp4866
(dp4867
g16
VJJ
p4868
sbag5
(g6
g7
(lp4869
Vsimilarity
p4870
atp4871
Rp4872
(dp4873
g16
VNN
p4874
sbatp4875
Rp4876
(dp4877
g16
VNP
p4878
sbag5
(g6
g7
(lp4879
g5
(g6
g7
(lp4880
Vbetween
p4881
atp4882
Rp4883
(dp4884
g16
VIN
p4885
sbag5
(g6
g7
(lp4886
g5
(g6
g7
(lp4887
Vverbs
p4888
atp4889
Rp4890
(dp4891
g16
VNNS
p4892
sbatp4893
Rp4894
(dp4895
g16
VNP
p4896
sbatp4897
Rp4898
(dp4899
g16
VPP
p4900
sbatp4901
Rp4902
(dp4903
g16
VNP
p4904
sbatp4905
Rp4906
(dp4907
g16
VPP
p4908
sbatp4909
Rp4910
(dp4911
g16
VNP
p4912
sbatp4913
Rp4914
(dp4915
g16
VVP
p4916
sbatp4917
Rp4918
(dp4919
g16
g160
sbatp4920
Rp4921
(dp4922
g16
VSBAR
p4923
sbatp4924
Rp4925
(dp4926
g16
VNP
p4927
sbatp4928
Rp4929
(dp4930
g16
VPP
p4931
sbatp4932
Rp4933
(dp4934
g16
VVP
p4935
sbatp4936
Rp4937
(dp4938
g16
VVP
p4939
sbatp4940
Rp4941
(dp4942
g16
VVP
p4943
sbatp4944
Rp4945
(dp4946
g16
g160
sbatp4947
Rp4948
(dp4949
g16
VSBAR
p4950
sbatp4951
Rp4952
(dp4953
g16
VNP
p4954
sbatp4955
Rp4956
(dp4957
g16
VNP
p4958
sbatp4959
Rp4960
(dp4961
g16
VSINV
p4962
sbatp4963
Rp4964
(dp4965
g16
VROOT
p4966
sbasg693
(icmyPackage
CorE
p4967
(dp4968
g696
(lp4969
(I0
I2
tp4970
ag4970
asg700
g4630
sbsg701
(icmyPackage
CorE
p4971
(dp4972
g696
(lp4973
(I0
I7
tp4974
a(I0
I31
tp4975
asg700
g5
(g6
g7
(lp4976
g4689
ag4717
ag4746
ag4758
ag4765
ag4772
ag4779
ag4786
ag4804
ag4809
ag4820
ag4828
ag4851
ag4858
ag4876
ag4883
atp4977
Rp4978
(dp4979
g16
g711
sbsbsg712
(icmyPackage
pattern
p4980
(dp4981
g715
I0
sg716
I0
sg717
(lp4982
(lp4983
S'according'
p4984
aS'to'
p4985
aa(lp4986
g3042
aasg723
(lp4987
I2
aI1
aI1
asg725
(lp4988
S'According to the efficiency principle and regional principle, the radius of the network should be small.'
p4989
asg728
I56
sg729
(lp4990
(lp4991
a(lp4992
S'&NP@C@'
p4993
aa(lp4994
S'&R'
p4995
aasbsg735
(lp4996
(isxpPackage
sxpSent
p4997
(dp4998
g739
(lp4999
I9
aI10
asg741
VAccording to Sahlgren [ Sahlgren2008 ] , this kind of model captures to what extent words can be substituted for each other, which is a good measure of semantic similarity between verbs
p5000
sg743
I4
sg728
I48
sg744
I17
sbasba(icmyPackage
CELink
p5001
(dp5002
g3
(lp5003
g4964
ag5
(g6
g7
(lp5004
g5
(g6
g7
(lp5005
g5
(g6
g7
(lp5006
g5
(g6
g7
(lp5007
g5
(g6
g7
(lp5008
VAs
p5009
atp5010
Rp5011
(dp5012
g16
VIN
p5013
sbag5
(g6
g7
(lp5014
g5
(g6
g7
(lp5015
g5
(g6
g7
(lp5016
Vit
p5017
atp5018
Rp5019
(dp5020
g16
VPRP
p5021
sbatp5022
Rp5023
(dp5024
g16
VNP
p5025
sbag5
(g6
g7
(lp5026
g5
(g6
g7
(lp5027
Vturns
p5028
atp5029
Rp5030
(dp5031
g16
VVBZ
p5032
sbag5
(g6
g7
(lp5033
g5
(g6
g7
(lp5034
Vout
p5035
atp5036
Rp5037
(dp5038
g16
VRP
p5039
sbatp5040
Rp5041
(dp5042
g16
VPRT
p5043
sbatp5044
Rp5045
(dp5046
g16
VVP
p5047
sbatp5048
Rp5049
(dp5050
g16
g160
sbatp5051
Rp5052
(dp5053
g16
VSBAR
p5054
sbag5
(g6
g7
(lp5055
g166
atp5056
Rp5057
(dp5058
g16
g166
sbag5
(g6
g7
(lp5059
g5
(g6
g7
(lp5060
Veven
p5061
atp5062
Rp5063
(dp5064
g16
VRB
p5065
sbatp5066
Rp5067
(dp5068
g16
VADVP
p5069
sbag5
(g6
g7
(lp5070
g5
(g6
g7
(lp5071
Vthis
p5072
atp5073
Rp5074
(dp5075
g16
VDT
p5076
sbag5
(g6
g7
(lp5077
Vrelatively
p5078
atp5079
Rp5080
(dp5081
g16
VRB
p5082
sbag5
(g6
g7
(lp5083
Vcoarse
p5084
atp5085
Rp5086
(dp5087
g16
VJJ
p5088
sbag5
(g6
g7
(lp5089
Vmodel
p5090
atp5091
Rp5092
(dp5093
g16
VNN
p5094
sbatp5095
Rp5096
(dp5097
g16
VNP
p5098
sbag5
(g6
g7
(lp5099
g5
(g6
g7
(lp5100
Vcaptures
p5101
atp5102
Rp5103
(dp5104
g16
VVBZ
p5105
sbag5
(g6
g7
(lp5106
g5
(g6
g7
(lp5107
Vsemantic
p5108
atp5109
Rp5110
(dp5111
g16
VJJ
p5112
sbag5
(g6
g7
(lp5113
Vdistinctions
p5114
atp5115
Rp5116
(dp5117
g16
VNNS
p5118
sbatp5119
Rp5120
(dp5121
g16
VNP
p5122
sbag5
(g6
g7
(lp5123
g5
(g6
g7
(lp5124
Vin
p5125
atp5126
Rp5127
(dp5128
g16
VIN
p5129
sbag5
(g6
g7
(lp5130
g5
(g6
g7
(lp5131
g5
(g6
g7
(lp5132
Vthe
p5133
atp5134
Rp5135
(dp5136
g16
VDT
p5137
sbag5
(g6
g7
(lp5138
Vdistribution
p5139
atp5140
Rp5141
(dp5142
g16
VNN
p5143
sbatp5144
Rp5145
(dp5146
g16
VNP
p5147
sbag5
(g6
g7
(lp5148
g5
(g6
g7
(lp5149
Vof
p5150
atp5151
Rp5152
(dp5153
g16
VIN
p5154
sbag5
(g6
g7
(lp5155
g5
(g6
g7
(lp5156
Vthe
p5157
atp5158
Rp5159
(dp5160
g16
VDT
p5161
sbag5
(g6
g7
(lp5162
Vhell
p5163
atp5164
Rp5165
(dp5166
g16
VNN
p5167
sbatp5168
Rp5169
(dp5170
g16
VNP
p5171
sbatp5172
Rp5173
(dp5174
g16
VPP
p5175
sbatp5176
Rp5177
(dp5178
g16
VNP
p5179
sbatp5180
Rp5181
(dp5182
g16
VPP
p5183
sbatp5184
Rp5185
(dp5186
g16
VVP
p5187
sbatp5188
Rp5189
(dp5190
g16
g160
sbag5
(g6
g7
(lp5191
V-
p5192
atp5193
Rp5194
(dp5195
g16
g4226
sbag5
(g6
g7
(lp5196
g5
(g6
g7
(lp5197
g5
(g6
g7
(lp5198
g5
(g6
g7
(lp5199
Vconstruction
p5200
atp5201
Rp5202
(dp5203
g16
VNN
p5204
sbatp5205
Rp5206
(dp5207
g16
VNP
p5208
sbag5
(g6
g7
(lp5209
g5
(g6
g7
(lp5210
g5
(g6
g7
(lp5211
Vthat
p5212
atp5213
Rp5214
(dp5215
g16
VWDT
p5216
sbatp5217
Rp5218
(dp5219
g16
VWHNP
p5220
sbag5
(g6
g7
(lp5221
g5
(g6
g7
(lp5222
g5
(g6
g7
(lp5223
Vmake
p5224
atp5225
Rp5226
(dp5227
g16
VVBP
p5228
sbag5
(g6
g7
(lp5229
g5
(g6
g7
(lp5230
Vintuitive
p5231
atp5232
Rp5233
(dp5234
g16
VJJ
p5235
sbatp5236
Rp5237
(dp5238
g16
VADJP
p5239
sbatp5240
Rp5241
(dp5242
g16
VVP
p5243
sbatp5244
Rp5245
(dp5246
g16
g160
sbatp5247
Rp5248
(dp5249
g16
VSBAR
p5250
sbatp5251
Rp5252
(dp5253
g16
VNP
p5254
sbag5
(g6
g7
(lp5255
g5
(g6
g7
(lp5256
Vsense
p5257
atp5258
Rp5259
(dp5260
g16
VVBP
p5261
sbatp5262
Rp5263
(dp5264
g16
VVP
p5265
sbatp5266
Rp5267
(dp5268
g16
g160
sbatp5269
Rp5270
(dp5271
g16
g160
sbatp5272
Rp5273
(dp5274
g16
VROOT
p5275
sbasg693
(icmyPackage
CorE
p5276
(dp5277
g696
(lp5278
(I1
I1
tp5279
a(I1
I24
tp5280
asg700
g5
(g6
g7
(lp5281
g5049
ag5057
ag5067
ag5096
ag5185
ag5194
ag5267
atp5282
Rp5283
(dp5284
g16
g711
sbsbsg701
(icmyPackage
CorE
p5285
(dp5286
g696
(lp5287
(I0
I15
tp5288
a(I0
I32
tp5289
asg700
g4945
sbsg712
g1702
sg735
(lp5290
g4997
a(isxpPackage
sxpSent
p5291
(dp5292
g739
(lp5293
I10
asg741
VAs it turns out, even this relatively coarse model captures semantic distinctions in the distribution of the hell -construction that make intuitive sense
p5294
sg743
I4
sg728
I49
sg744
I17
sbasba(icmyPackage
CELink
p5295
(dp5296
g3
(lp5297
g5
(g6
g7
(lp5298
g5
(g6
g7
(lp5299
g5
(g6
g7
(lp5300
g5
(g6
g7
(lp5301
VThis
p5302
atp5303
Rp5304
(dp5305
g16
VDT
p5306
sbatp5307
Rp5308
(dp5309
g16
VNP
p5310
sbag5
(g6
g7
(lp5311
g5
(g6
g7
(lp5312
Vis
p5313
atp5314
Rp5315
(dp5316
g16
VVBZ
p5317
sbag5
(g6
g7
(lp5318
g166
atp5319
Rp5320
(dp5321
g16
g166
sbag5
(g6
g7
(lp5322
g5
(g6
g7
(lp5323
Vhowever
p5324
atp5325
Rp5326
(dp5327
g16
VRB
p5328
sbatp5329
Rp5330
(dp5331
g16
VADVP
p5332
sbag5
(g6
g7
(lp5333
g166
atp5334
Rp5335
(dp5336
g16
g166
sbag5
(g6
g7
(lp5337
g5
(g6
g7
(lp5338
Vnot
p5339
atp5340
Rp5341
(dp5342
g16
VRB
p5343
sbag5
(g6
g7
(lp5344
Vas
p5345
atp5346
Rp5347
(dp5348
g16
VRB
p5349
sbag5
(g6
g7
(lp5350
Vproblematic
p5351
atp5352
Rp5353
(dp5354
g16
VJJ
p5355
sbatp5356
Rp5357
(dp5358
g16
VADJP
p5359
sbag5
(g6
g7
(lp5360
g5
(g6
g7
(lp5361
Vas
p5362
atp5363
Rp5364
(dp5365
g16
VIN
p5366
sbag5
(g6
g7
(lp5367
g5
(g6
g7
(lp5368
g5
(g6
g7
(lp5369
Vit
p5370
atp5371
Rp5372
(dp5373
g16
VPRP
p5374
sbatp5375
Rp5376
(dp5377
g16
VNP
p5378
sbag5
(g6
g7
(lp5379
g5
(g6
g7
(lp5380
Vmight
p5381
atp5382
Rp5383
(dp5384
g16
VMD
p5385
sbag5
(g6
g7
(lp5386
g5
(g6
g7
(lp5387
Vsound
p5388
atp5389
Rp5390
(dp5391
g16
VVB
p5392
sbatp5393
Rp5394
(dp5395
g16
VVP
p5396
sbatp5397
Rp5398
(dp5399
g16
VVP
p5400
sbatp5401
Rp5402
(dp5403
g16
g160
sbatp5404
Rp5405
(dp5406
g16
VSBAR
p5407
sbag5
(g6
g7
(lp5408
g166
atp5409
Rp5410
(dp5411
g16
g166
sbag5
(g6
g7
(lp5412
g5
(g6
g7
(lp5413
Vsince
p5414
atp5415
Rp5416
(dp5417
g16
VIN
p5418
sbag5
(g6
g7
(lp5419
g5
(g6
g7
(lp5420
g5
(g6
g7
(lp5421
g5
(g6
g7
(lp5422
Vthe
p5423
atp5424
Rp5425
(dp5426
g16
VDT
p5427
sbag5
(g6
g7
(lp5428
Vmeaning
p5429
atp5430
Rp5431
(dp5432
g16
VNN
p5433
sbatp5434
Rp5435
(dp5436
g16
VNP
p5437
sbag5
(g6
g7
(lp5438
g5
(g6
g7
(lp5439
Vof
p5440
atp5441
Rp5442
(dp5443
g16
VIN
p5444
sbag5
(g6
g7
(lp5445
g5
(g6
g7
(lp5446
g5
(g6
g7
(lp5447
Vthe
p5448
atp5449
Rp5450
(dp5451
g16
VDT
p5452
sbag5
(g6
g7
(lp5453
Vverbs
p5454
atp5455
Rp5456
(dp5457
g16
VNNS
p5458
sbatp5459
Rp5460
(dp5461
g16
VNP
p5462
sbag5
(g6
g7
(lp5463
g5
(g6
g7
(lp5464
Vunder
p5465
atp5466
Rp5467
(dp5468
g16
VIN
p5469
sbag5
(g6
g7
(lp5470
g5
(g6
g7
(lp5471
Vconsideration
p5472
atp5473
Rp5474
(dp5475
g16
VNN
p5476
sbatp5477
Rp5478
(dp5479
g16
VNP
p5480
sbatp5481
Rp5482
(dp5483
g16
VPP
p5484
sbatp5485
Rp5486
(dp5487
g16
VNP
p5488
sbatp5489
Rp5490
(dp5491
g16
VPP
p5492
sbatp5493
Rp5494
(dp5495
g16
VNP
p5496
sbag5
(g6
g7
(lp5497
g5
(g6
g7
(lp5498
Vare
p5499
atp5500
Rp5501
(dp5502
g16
VVBP
p5503
sbag5
(g6
g7
(lp5504
Vnot
p5505
atp5506
Rp5507
(dp5508
g16
VRB
p5509
sbag5
(g6
g7
(lp5510
g5
(g6
g7
(lp5511
Vlikely
p5512
atp5513
Rp5514
(dp5515
g16
VJJ
p5516
sbag5
(g6
g7
(lp5517
g5
(g6
g7
(lp5518
g5
(g6
g7
(lp5519
Vto
p5520
atp5521
Rp5522
(dp5523
g16
VTO
p5524
sbag5
(g6
g7
(lp5525
g5
(g6
g7
(lp5526
Vhave
p5527
atp5528
Rp5529
(dp5530
g16
VVB
p5531
sbag5
(g6
g7
(lp5532
g5
(g6
g7
(lp5533
Vchanged
p5534
atp5535
Rp5536
(dp5537
g16
VVBN
p5538
sbag5
(g6
g7
(lp5539
g5
(g6
g7
(lp5540
Vconsiderably
p5541
atp5542
Rp5543
(dp5544
g16
VRB
p5545
sbatp5546
Rp5547
(dp5548
g16
VADVP
p5549
sbag5
(g6
g7
(lp5550
g5
(g6
g7
(lp5551
Vwithin
p5552
atp5553
Rp5554
(dp5555
g16
VIN
p5556
sbag5
(g6
g7
(lp5557
g5
(g6
g7
(lp5558
g5
(g6
g7
(lp5559
Vthe
p5560
atp5561
Rp5562
(dp5563
g16
VDT
p5564
sbag5
(g6
g7
(lp5565
Vtime
p5566
atp5567
Rp5568
(dp5569
g16
VNN
p5570
sbag5
(g6
g7
(lp5571
Vframe
p5572
atp5573
Rp5574
(dp5575
g16
VNN
p5576
sbatp5577
Rp5578
(dp5579
g16
VNP
p5580
sbag5
(g6
g7
(lp5581
g5
(g6
g7
(lp5582
Vof
p5583
atp5584
Rp5585
(dp5586
g16
VIN
p5587
sbag5
(g6
g7
(lp5588
g5
(g6
g7
(lp5589
Vthis
p5590
atp5591
Rp5592
(dp5593
g16
VDT
p5594
sbag5
(g6
g7
(lp5595
Vstudy
p5596
atp5597
Rp5598
(dp5599
g16
VNN
p5600
sbatp5601
Rp5602
(dp5603
g16
VNP
p5604
sbatp5605
Rp5606
(dp5607
g16
VPP
p5608
sbatp5609
Rp5610
(dp5611
g16
VNP
p5612
sbatp5613
Rp5614
(dp5615
g16
VPP
p5616
sbatp5617
Rp5618
(dp5619
g16
VVP
p5620
sbatp5621
Rp5622
(dp5623
g16
VVP
p5624
sbatp5625
Rp5626
(dp5627
g16
VVP
p5628
sbatp5629
Rp5630
(dp5631
g16
g160
sbatp5632
Rp5633
(dp5634
g16
VADJP
p5635
sbatp5636
Rp5637
(dp5638
g16
VVP
p5639
sbatp5640
Rp5641
(dp5642
g16
g160
sbatp5643
Rp5644
(dp5645
g16
VSBAR
p5646
sbatp5647
Rp5648
(dp5649
g16
VVP
p5650
sbatp5651
Rp5652
(dp5653
g16
g160
sbatp5654
Rp5655
(dp5656
g16
VROOT
p5657
sbasg693
(icmyPackage
CorE
p5658
(dp5659
g696
(lp5660
(I0
I14
tp5661
a(I0
I29
tp5662
asg700
g5
(g6
g7
(lp5663
g5494
ag5501
ag5507
ag5514
ag5522
ag5529
ag5536
ag5547
ag5554
ag5562
atp5664
Rp5665
(dp5666
g16
g711
sbsbsg701
(icmyPackage
CorE
p5667
(dp5668
g696
(lp5669
(I0
I0
tp5670
a(I0
I11
tp5671
asg700
g5
(g6
g7
(lp5672
g5308
ag5315
ag5320
ag5330
ag5335
ag5357
ag5405
atp5673
Rp5674
(dp5675
g16
g711
sbsbsg712
g3417
sg735
(lp5676
(isxpPackage
sxpSent
p5677
(dp5678
g739
(lp5679
I11
asg741
VThis is, however, not as problematic as it might sound, since the meaning of the verbs under consideration are not likely to have changed considerably within the time frame of this study
p5680
sg743
I4
sg728
I52
sg744
I18
sbasba(icmyPackage
CELink
p5681
(dp5682
g3
(lp5683
g5
(g6
g7
(lp5684
g5
(g6
g7
(lp5685
g5
(g6
g7
(lp5686
g5
(g6
g7
(lp5687
g5
(g6
g7
(lp5688
VOnly
p5689
atp5690
Rp5691
(dp5692
g16
VRB
p5693
sbag5
(g6
g7
(lp5694
Vthe
p5695
atp5696
Rp5697
(dp5698
g16
VDT
p5699
sbag5
(g6
g7
(lp5700
Vnouns
p5701
atp5702
Rp5703
(dp5704
g16
VNNS
p5705
sbatp5706
Rp5707
(dp5708
g16
VNP
p5709
sbag5
(g6
g7
(lp5710
g166
atp5711
Rp5712
(dp5713
g16
g166
sbag5
(g6
g7
(lp5714
g5
(g6
g7
(lp5715
Vverbs
p5716
atp5717
Rp5718
(dp5719
g16
VNNS
p5720
sbatp5721
Rp5722
(dp5723
g16
VNP
p5724
sbag5
(g6
g7
(lp5725
g166
atp5726
Rp5727
(dp5728
g16
g166
sbatp5729
Rp5730
(dp5731
g16
VNP
p5732
sbag5
(g6
g7
(lp5733
g5
(g6
g7
(lp5734
g5
(g6
g7
(lp5735
Vadjectives
p5736
atp5737
Rp5738
(dp5739
g16
VVBZ
p5740
sbatp5741
Rp5742
(dp5743
g16
VVP
p5744
sbag5
(g6
g7
(lp5745
g166
atp5746
Rp5747
(dp5748
g16
g166
sbag5
(g6
g7
(lp5749
Vand
p5750
atp5751
Rp5752
(dp5753
g16
VCC
p5754
sbag5
(g6
g7
(lp5755
g5
(g6
g7
(lp5756
Vadverbs
p5757
atp5758
Rp5759
(dp5760
g16
VVBZ
p5761
sbag5
(g6
g7
(lp5762
g5
(g6
g7
(lp5763
g5
(g6
g7
(lp5764
g5
(g6
g7
(lp5765
Vlisted
p5766
atp5767
Rp5768
(dp5769
g16
VVBN
p5770
sbag5
(g6
g7
(lp5771
g5
(g6
g7
(lp5772
Vamong
p5773
atp5774
Rp5775
(dp5776
g16
VIN
p5777
sbag5
(g6
g7
(lp5778
g5
(g6
g7
(lp5779
g5
(g6
g7
(lp5780
Vthe
p5781
atp5782
Rp5783
(dp5784
g16
VDT
p5785
sbag5
(g6
g7
(lp5786
V5,000
p5787
atp5788
Rp5789
(dp5790
g16
VCD
p5791
sbag5
(g6
g7
(lp5792
Vmost
p5793
atp5794
Rp5795
(dp5796
g16
VJJS
p5797
sbag5
(g6
g7
(lp5798
Vfrequent
p5799
atp5800
Rp5801
(dp5802
g16
VJJ
p5803
sbag5
(g6
g7
(lp5804
Vwords
p5805
atp5806
Rp5807
(dp5808
g16
VNNS
p5809
sbatp5810
Rp5811
(dp5812
g16
VNP
p5813
sbag5
(g6
g7
(lp5814
g5
(g6
g7
(lp5815
Vin
p5816
atp5817
Rp5818
(dp5819
g16
VIN
p5820
sbag5
(g6
g7
(lp5821
g5
(g6
g7
(lp5822
g5
(g6
g7
(lp5823
Vthe
p5824
atp5825
Rp5826
(dp5827
g16
VDT
p5828
sbag5
(g6
g7
(lp5829
Vcorpus
p5830
atp5831
Rp5832
(dp5833
g16
VNN
p5834
sbatp5835
Rp5836
(dp5837
g16
VNP
p5838
sbag5
(g6
g7
(lp5839
g5
(g6
g7
(lp5840
g5
(g6
g7
(lp5841
g5
(g6
g7
(lp5842
Vwere
p5843
atp5844
Rp5845
(dp5846
g16
VVBD
p5847
sbag5
(g6
g7
(lp5848
g5
(g6
g7
(lp5849
Vconsidered
p5850
atp5851
Rp5852
(dp5853
g16
VVBN
p5854
sbatp5855
Rp5856
(dp5857
g16
VVP
p5858
sbatp5859
Rp5860
(dp5861
g16
VVP
p5862
sbatp5863
Rp5864
(dp5865
g16
g160
sbatp5866
Rp5867
(dp5868
g16
VSBAR
p5869
sbag5
(g6
g7
(lp5870
g5
(g6
g7
(lp5871
V-LRB-
p5872
atp5873
Rp5874
(dp5875
g16
V-LRB-
p5876
sbag5
(g6
g7
(lp5877
g5
(g6
g7
(lp5878
Vto
p5879
atp5880
Rp5881
(dp5882
g16
VTO
p5883
sbag5
(g6
g7
(lp5884
g5
(g6
g7
(lp5885
g5
(g6
g7
(lp5886
Vthe
p5887
atp5888
Rp5889
(dp5890
g16
VDT
p5891
sbag5
(g6
g7
(lp5892
Vexclusion
p5893
atp5894
Rp5895
(dp5896
g16
VNN
p5897
sbatp5898
Rp5899
(dp5900
g16
VNP
p5901
sbag5
(g6
g7
(lp5902
g5
(g6
g7
(lp5903
Vof
p5904
atp5905
Rp5906
(dp5907
g16
VIN
p5908
sbag5
(g6
g7
(lp5909
g5
(g6
g7
(lp5910
g5
(g6
g7
(lp5911
g5
(g6
g7
(lp5912
Vbe
p5913
atp5914
Rp5915
(dp5916
g16
VVB
p5917
sbatp5918
Rp5919
(dp5920
g16
VVP
p5921
sbag5
(g6
g7
(lp5922
g166
atp5923
Rp5924
(dp5925
g16
g166
sbag5
(g6
g7
(lp5926
g5
(g6
g7
(lp5927
Vhave
p5928
atp5929
Rp5930
(dp5931
g16
VVB
p5932
sbatp5933
Rp5934
(dp5935
g16
VVP
p5936
sbag5
(g6
g7
(lp5937
g166
atp5938
Rp5939
(dp5940
g16
g166
sbag5
(g6
g7
(lp5941
Vand
p5942
atp5943
Rp5944
(dp5945
g16
VCC
p5946
sbag5
(g6
g7
(lp5947
g5
(g6
g7
(lp5948
Vdo
p5949
atp5950
Rp5951
(dp5952
g16
VVB
p5953
sbatp5954
Rp5955
(dp5956
g16
VVP
p5957
sbatp5958
Rp5959
(dp5960
g16
VVP
p5961
sbatp5962
Rp5963
(dp5964
g16
g160
sbatp5965
Rp5966
(dp5967
g16
VPP
p5968
sbatp5969
Rp5970
(dp5971
g16
VNP
p5972
sbatp5973
Rp5974
(dp5975
g16
VPP
p5976
sbag5
(g6
g7
(lp5977
V-RRB-
p5978
atp5979
Rp5980
(dp5981
g16
V-RRB-
p5982
sbatp5983
Rp5984
(dp5985
g16
VPRN
p5986
sbatp5987
Rp5988
(dp5989
g16
VNP
p5990
sbatp5991
Rp5992
(dp5993
g16
VPP
p5994
sbatp5995
Rp5996
(dp5997
g16
VNP
p5998
sbatp5999
Rp6000
(dp6001
g16
VPP
p6002
sbatp6003
Rp6004
(dp6005
g16
VVP
p6006
sbatp6007
Rp6008
(dp6009
g16
g160
sbag5
(g6
g7
(lp6010
g166
atp6011
Rp6012
(dp6013
g16
g166
sbag5
(g6
g7
(lp6014
Vthus
p6015
atp6016
Rp6017
(dp6018
g16
VRB
p6019
sbag5
(g6
g7
(lp6020
g5
(g6
g7
(lp6021
g5
(g6
g7
(lp6022
Vignoring
p6023
atp6024
Rp6025
(dp6026
g16
VVBG
p6027
sbag5
(g6
g7
(lp6028
g5
(g6
g7
(lp6029
g5
(g6
g7
(lp6030
g5
(g6
g7
(lp6031
Vfunction
p6032
atp6033
Rp6034
(dp6035
g16
VNN
p6036
sbag5
(g6
g7
(lp6037
Vwords
p6038
atp6039
Rp6040
(dp6041
g16
VNNS
p6042
sbatp6043
Rp6044
(dp6045
g16
VNP
p6046
sbag5
(g6
g7
(lp6047
g5
(g6
g7
(lp6048
V-LRB-
p6049
atp6050
Rp6051
(dp6052
g16
V-LRB-
p6053
sbag5
(g6
g7
(lp6054
g5
(g6
g7
(lp6055
Varticles
p6056
atp6057
Rp6058
(dp6059
g16
VNNS
p6060
sbatp6061
Rp6062
(dp6063
g16
VNP
p6064
sbag5
(g6
g7
(lp6065
g166
atp6066
Rp6067
(dp6068
g16
g166
sbag5
(g6
g7
(lp6069
g5
(g6
g7
(lp6070
Vprepositions
p6071
atp6072
Rp6073
(dp6074
g16
VNNS
p6075
sbag5
(g6
g7
(lp6076
g166
atp6077
Rp6078
(dp6079
g16
g166
sbag5
(g6
g7
(lp6080
Vconjunctions
p6081
atp6082
Rp6083
(dp6084
g16
VNNS
p6085
sbag5
(g6
g7
(lp6086
g166
atp6087
Rp6088
(dp6089
g16
g166
sbag5
(g6
g7
(lp6090
Vetc.
p6091
atp6092
Rp6093
(dp6094
g16
VFW
p6095
sbatp6096
Rp6097
(dp6098
g16
VNP
p6099
sbag5
(g6
g7
(lp6100
V-RRB-
p6101
atp6102
Rp6103
(dp6104
g16
V-RRB-
p6105
sbatp6106
Rp6107
(dp6108
g16
VPRN
p6109
sbatp6110
Rp6111
(dp6112
g16
VNP
p6113
sbag5
(g6
g7
(lp6114
Vand
p6115
atp6116
Rp6117
(dp6118
g16
VCC
p6119
sbag5
(g6
g7
(lp6120
g5
(g6
g7
(lp6121
g5
(g6
g7
(lp6122
Vall
p6123
atp6124
Rp6125
(dp6126
g16
VDT
p6127
sbag5
(g6
g7
(lp6128
Vwords
p6129
atp6130
Rp6131
(dp6132
g16
VNNS
p6133
sbatp6134
Rp6135
(dp6136
g16
VNP
p6137
sbag5
(g6
g7
(lp6138
g5
(g6
g7
(lp6139
g5
(g6
g7
(lp6140
Vthat
p6141
atp6142
Rp6143
(dp6144
g16
VWDT
p6145
sbatp6146
Rp6147
(dp6148
g16
VWHNP
p6149
sbag5
(g6
g7
(lp6150
g5
(g6
g7
(lp6151
g5
(g6
g7
(lp6152
Vdid
p6153
atp6154
Rp6155
(dp6156
g16
VVBD
p6157
sbag5
(g6
g7
(lp6158
Vnot
p6159
atp6160
Rp6161
(dp6162
g16
VRB
p6163
sbag5
(g6
g7
(lp6164
g5
(g6
g7
(lp6165
Vmake
p6166
atp6167
Rp6168
(dp6169
g16
VVB
p6170
sbag5
(g6
g7
(lp6171
g5
(g6
g7
(lp6172
Vthe
p6173
atp6174
Rp6175
(dp6176
g16
VDT
p6177
sbag5
(g6
g7
(lp6178
Vtop
p6179
atp6180
Rp6181
(dp6182
g16
VJJ
p6183
sbag5
(g6
g7
(lp6184
V5,000
p6185
atp6186
Rp6187
(dp6188
g16
VCD
p6189
sbatp6190
Rp6191
(dp6192
g16
VNP
p6193
sbatp6194
Rp6195
(dp6196
g16
VVP
p6197
sbatp6198
Rp6199
(dp6200
g16
VVP
p6201
sbatp6202
Rp6203
(dp6204
g16
g160
sbatp6205
Rp6206
(dp6207
g16
VSBAR
p6208
sbatp6209
Rp6210
(dp6211
g16
VNP
p6212
sbatp6213
Rp6214
(dp6215
g16
VNP
p6216
sbatp6217
Rp6218
(dp6219
g16
VVP
p6220
sbatp6221
Rp6222
(dp6223
g16
g160
sbatp6224
Rp6225
(dp6226
g16
g160
sbatp6227
Rp6228
(dp6229
g16
VVP
p6230
sbatp6231
Rp6232
(dp6233
g16
VVP
p6234
sbatp6235
Rp6236
(dp6237
g16
g160
sbatp6238
Rp6239
(dp6240
g16
VROOT
p6241
sbasg693
(icmyPackage
CorE
p6242
(dp6243
g696
(lp6244
(I0
I0
tp6245
a(I0
I33
tp6246
asg700
g5
(g6
g7
(lp6247
g5730
ag5742
ag5747
ag5752
ag5759
ag6008
atp6248
Rp6249
(dp6250
g16
g711
sbsbsg701
(icmyPackage
CorE
p6251
(dp6252
g696
(lp6253
(I0
I36
tp6254
a(I0
I57
tp6255
asg700
g6222
sbsg712
g2817
sg735
(lp6256
(isxpPackage
sxpSent
p6257
(dp6258
g739
(lp6259
I12
asg741
VOnly the nouns, verbs, adjectives, and adverbs listed among the 5,000 most frequent words in the corpus were considered (to the exclusion of be , have , and do ), thus ignoring function words (articles, prepositions, conjunctions, etc.) and all words that did not make the top 5,000
p6260
sg743
I4
sg728
I57
sg744
I18
sbasba(icmyPackage
CELink
p6261
(dp6262
g3
(lp6263
g5
(g6
g7
(lp6264
g5
(g6
g7
(lp6265
g5
(g6
g7
(lp6266
g5
(g6
g7
(lp6267
VThe
p6268
atp6269
Rp6270
(dp6271
g16
VDT
p6272
sbag5
(g6
g7
(lp6273
Vco-occurrence
p6274
atp6275
Rp6276
(dp6277
g16
VJJ
p6278
sbag5
(g6
g7
(lp6279
Vmatrix
p6280
atp6281
Rp6282
(dp6283
g16
VNN
p6284
sbatp6285
Rp6286
(dp6287
g16
VNP
p6288
sbag5
(g6
g7
(lp6289
g5
(g6
g7
(lp6290
Vwas
p6291
atp6292
Rp6293
(dp6294
g16
VVBD
p6295
sbag5
(g6
g7
(lp6296
g5
(g6
g7
(lp6297
Vtransformed
p6298
atp6299
Rp6300
(dp6301
g16
VVBN
p6302
sbag5
(g6
g7
(lp6303
g5
(g6
g7
(lp6304
Vby
p6305
atp6306
Rp6307
(dp6308
g16
VIN
p6309
sbag5
(g6
g7
(lp6310
g5
(g6
g7
(lp6311
g5
(g6
g7
(lp6312
Vapplying
p6313
atp6314
Rp6315
(dp6316
g16
VVBG
p6317
sbag5
(g6
g7
(lp6318
g5
(g6
g7
(lp6319
g5
(g6
g7
(lp6320
g5
(g6
g7
(lp6321
g288
atp6322
Rp6323
(dp6324
g16
VDT
p6325
sbag5
(g6
g7
(lp6326
VPoint-wise
p6327
atp6328
Rp6329
(dp6330
g16
VJJ
p6331
sbag5
(g6
g7
(lp6332
VMutual
p6333
atp6334
Rp6335
(dp6336
g16
VNNP
p6337
sbag5
(g6
g7
(lp6338
VInformation
p6339
atp6340
Rp6341
(dp6342
g16
VNNP
p6343
sbag5
(g6
g7
(lp6344
Vweighting
p6345
atp6346
Rp6347
(dp6348
g16
VNN
p6349
sbag5
(g6
g7
(lp6350
Vscheme
p6351
atp6352
Rp6353
(dp6354
g16
VNN
p6355
sbatp6356
Rp6357
(dp6358
g16
VNP
p6359
sbag5
(g6
g7
(lp6360
g166
atp6361
Rp6362
(dp6363
g16
g166
sbag5
(g6
g7
(lp6364
g5
(g6
g7
(lp6365
Vusing
p6366
atp6367
Rp6368
(dp6369
g16
VVBG
p6370
sbag5
(g6
g7
(lp6371
g5
(g6
g7
(lp6372
Vthe
p6373
atp6374
Rp6375
(dp6376
g16
VDT
p6377
sbag5
(g6
g7
(lp6378
VDISSECT
p6379
atp6380
Rp6381
(dp6382
g16
VJJ
p6383
sbag5
(g6
g7
(lp6384
Vtoolkit
p6385
atp6386
Rp6387
(dp6388
g16
VJJ
p6389
sbag5
(g6
g7
(lp6390
V-LSB-
p6391
atp6392
Rp6393
(dp6394
g16
VNNP
p6395
sbag5
(g6
g7
(lp6396
VDinu
p6397
atp6398
Rp6399
(dp6400
g16
VNNP
p6401
sbag5
(g6
g7
(lp6402
Vet
p6403
atp6404
Rp6405
(dp6406
g16
VCC
p6407
sbag5
(g6
g7
(lp6408
Val.
p6409
atp6410
Rp6411
(dp6412
g16
VNNP
p6413
sbag5
(g6
g7
(lp6414
V2013
p6415
atp6416
Rp6417
(dp6418
g16
VCD
p6419
sbag5
(g6
g7
(lp6420
V-RSB-
p6421
atp6422
Rp6423
(dp6424
g16
VNN
p6425
sbatp6426
Rp6427
(dp6428
g16
VNP
p6429
sbatp6430
Rp6431
(dp6432
g16
VVP
p6433
sbag5
(g6
g7
(lp6434
g166
atp6435
Rp6436
(dp6437
g16
g166
sbatp6438
Rp6439
(dp6440
g16
VNP
p6441
sbag5
(g6
g7
(lp6442
g5
(g6
g7
(lp6443
Vto
p6444
atp6445
Rp6446
(dp6447
g16
VTO
p6448
sbag5
(g6
g7
(lp6449
g5
(g6
g7
(lp6450
Vturn
p6451
atp6452
Rp6453
(dp6454
g16
VVB
p6455
sbag5
(g6
g7
(lp6456
g5
(g6
g7
(lp6457
Vthe
p6458
atp6459
Rp6460
(dp6461
g16
VDT
p6462
sbag5
(g6
g7
(lp6463
Vraw
p6464
atp6465
Rp6466
(dp6467
g16
VJJ
p6468
sbag5
(g6
g7
(lp6469
Vfrequencies
p6470
atp6471
Rp6472
(dp6473
g16
VNNS
p6474
sbatp6475
Rp6476
(dp6477
g16
VNP
p6478
sbag5
(g6
g7
(lp6479
g5
(g6
g7
(lp6480
Vinto
p6481
atp6482
Rp6483
(dp6484
g16
VIN
p6485
sbag5
(g6
g7
(lp6486
g5
(g6
g7
(lp6487
g5
(g6
g7
(lp6488
Vweights
p6489
atp6490
Rp6491
(dp6492
g16
VNNS
p6493
sbatp6494
Rp6495
(dp6496
g16
VNP
p6497
sbag5
(g6
g7
(lp6498
g5
(g6
g7
(lp6499
g5
(g6
g7
(lp6500
Vthat
p6501
atp6502
Rp6503
(dp6504
g16
VWDT
p6505
sbatp6506
Rp6507
(dp6508
g16
VWHNP
p6509
sbag5
(g6
g7
(lp6510
g5
(g6
g7
(lp6511
g5
(g6
g7
(lp6512
Vreflect
p6513
atp6514
Rp6515
(dp6516
g16
VVBP
p6517
sbag5
(g6
g7
(lp6518
g5
(g6
g7
(lp6519
g5
(g6
g7
(lp6520
Vhow
p6521
atp6522
Rp6523
(dp6524
g16
VWRB
p6525
sbatp6526
Rp6527
(dp6528
g16
VWHADVP
p6529
sbag5
(g6
g7
(lp6530
g5
(g6
g7
(lp6531
g5
(g6
g7
(lp6532
Vdistinctive
p6533
atp6534
Rp6535
(dp6536
g16
VJJ
p6537
sbag5
(g6
g7
(lp6538
g288
atp6539
Rp6540
(dp6541
g16
VDT
p6542
sbag5
(g6
g7
(lp6543
Vcollocate
p6544
atp6545
Rp6546
(dp6547
g16
VNN
p6548
sbatp6549
Rp6550
(dp6551
g16
VNP
p6552
sbag5
(g6
g7
(lp6553
g5
(g6
g7
(lp6554
Vis
p6555
atp6556
Rp6557
(dp6558
g16
VVBZ
p6559
sbag5
(g6
g7
(lp6560
g5
(g6
g7
(lp6561
Vfor
p6562
atp6563
Rp6564
(dp6565
g16
VIN
p6566
sbag5
(g6
g7
(lp6567
g5
(g6
g7
(lp6568
g5
(g6
g7
(lp6569
g288
atp6570
Rp6571
(dp6572
g16
VDT
p6573
sbag5
(g6
g7
(lp6574
Vgiven
p6575
atp6576
Rp6577
(dp6578
g16
VVBN
p6579
sbag5
(g6
g7
(lp6580
Vtarget
p6581
atp6582
Rp6583
(dp6584
g16
VNN
p6585
sbag5
(g6
g7
(lp6586
Vword
p6587
atp6588
Rp6589
(dp6590
g16
VNN
p6591
sbatp6592
Rp6593
(dp6594
g16
VNP
p6595
sbag5
(g6
g7
(lp6596
g5
(g6
g7
(lp6597
Vwith
p6598
atp6599
Rp6600
(dp6601
g16
VIN
p6602
sbag5
(g6
g7
(lp6603
g5
(g6
g7
(lp6604
g5
(g6
g7
(lp6605
Vrespect
p6606
atp6607
Rp6608
(dp6609
g16
VNN
p6610
sbatp6611
Rp6612
(dp6613
g16
VNP
p6614
sbag5
(g6
g7
(lp6615
g5
(g6
g7
(lp6616
Vto
p6617
atp6618
Rp6619
(dp6620
g16
VTO
p6621
sbag5
(g6
g7
(lp6622
g5
(g6
g7
(lp6623
g5
(g6
g7
(lp6624
Vthe
p6625
atp6626
Rp6627
(dp6628
g16
VDT
p6629
sbag5
(g6
g7
(lp6630
Vother
p6631
atp6632
Rp6633
(dp6634
g16
VJJ
p6635
sbag5
(g6
g7
(lp6636
Vtarget
p6637
atp6638
Rp6639
(dp6640
g16
VNN
p6641
sbag5
(g6
g7
(lp6642
Vwords
p6643
atp6644
Rp6645
(dp6646
g16
VNNS
p6647
sbatp6648
Rp6649
(dp6650
g16
VNP
p6651
sbag5
(g6
g7
(lp6652
g5
(g6
g7
(lp6653
Vunder
p6654
atp6655
Rp6656
(dp6657
g16
VIN
p6658
sbag5
(g6
g7
(lp6659
g5
(g6
g7
(lp6660
Vconsideration
p6661
atp6662
Rp6663
(dp6664
g16
VNN
p6665
sbatp6666
Rp6667
(dp6668
g16
VNP
p6669
sbatp6670
Rp6671
(dp6672
g16
VPP
p6673
sbatp6674
Rp6675
(dp6676
g16
VNP
p6677
sbatp6678
Rp6679
(dp6680
g16
VPP
p6681
sbatp6682
Rp6683
(dp6684
g16
VNP
p6685
sbatp6686
Rp6687
(dp6688
g16
VPP
p6689
sbatp6690
Rp6691
(dp6692
g16
VNP
p6693
sbatp6694
Rp6695
(dp6696
g16
VPP
p6697
sbatp6698
Rp6699
(dp6700
g16
VVP
p6701
sbatp6702
Rp6703
(dp6704
g16
g160
sbatp6705
Rp6706
(dp6707
g16
VSBAR
p6708
sbatp6709
Rp6710
(dp6711
g16
VVP
p6712
sbatp6713
Rp6714
(dp6715
g16
g160
sbatp6716
Rp6717
(dp6718
g16
VSBAR
p6719
sbatp6720
Rp6721
(dp6722
g16
VNP
p6723
sbatp6724
Rp6725
(dp6726
g16
VPP
p6727
sbatp6728
Rp6729
(dp6730
g16
VVP
p6731
sbatp6732
Rp6733
(dp6734
g16
VVP
p6735
sbatp6736
Rp6737
(dp6738
g16
g160
sbatp6739
Rp6740
(dp6741
g16
VVP
p6742
sbatp6743
Rp6744
(dp6745
g16
g160
sbatp6746
Rp6747
(dp6748
g16
VPP
p6749
sbatp6750
Rp6751
(dp6752
g16
VVP
p6753
sbatp6754
Rp6755
(dp6756
g16
VVP
p6757
sbatp6758
Rp6759
(dp6760
g16
g160
sbatp6761
Rp6762
(dp6763
g16
VROOT
p6764
sbasg693
(icmyPackage
CorE
p6765
(dp6766
g696
(lp6767
(I0
I6
tp6768
a(I0
I52
tp6769
asg700
g6744
sbsg701
(icmyPackage
CorE
p6770
(dp6771
g696
(lp6772
(I0
I0
tp6773
a(I0
I4
tp6774
asg700
g5
(g6
g7
(lp6775
g6286
ag6293
ag6300
atp6776
Rp6777
(dp6778
g16
g711
sbsbsg712
g3782
sg735
(lp6779
(isxpPackage
sxpSent
p6780
(dp6781
g739
(lp6782
I13
aI14
asg741
VThe co-occurrence matrix was transformed by applying a Point-wise Mutual Information weighting scheme, using the DISSECT toolkit [ Dinu et al.2013 ] , to turn the raw frequencies into weights that reflect how distinctive a collocate is for a given target word with respect to the other target words under consideration
p6783
sg743
I4
sg728
I58
sg744
I19
sbasba(icmyPackage
CELink
p6784
(dp6785
g3
(lp6786
g6762
ag5
(g6
g7
(lp6787
g5
(g6
g7
(lp6788
g5
(g6
g7
(lp6789
g5
(g6
g7
(lp6790
g5
(g6
g7
(lp6791
VThe
p6792
atp6793
Rp6794
(dp6795
g16
VDT
p6796
sbag5
(g6
g7
(lp6797
Vresulting
p6798
atp6799
Rp6800
(dp6801
g16
VVBG
p6802
sbag5
(g6
g7
(lp6803
Vmatrix
p6804
atp6805
Rp6806
(dp6807
g16
VNN
p6808
sbatp6809
Rp6810
(dp6811
g16
VNP
p6812
sbag5
(g6
g7
(lp6813
g166
atp6814
Rp6815
(dp6816
g16
g166
sbag5
(g6
g7
(lp6817
g5
(g6
g7
(lp6818
g5
(g6
g7
(lp6819
Vwhich
p6820
atp6821
Rp6822
(dp6823
g16
VWDT
p6824
sbatp6825
Rp6826
(dp6827
g16
VWHNP
p6828
sbag5
(g6
g7
(lp6829
g5
(g6
g7
(lp6830
g5
(g6
g7
(lp6831
Vcontains
p6832
atp6833
Rp6834
(dp6835
g16
VVBZ
p6836
sbag5
(g6
g7
(lp6837
g5
(g6
g7
(lp6838
Vthe
p6839
atp6840
Rp6841
(dp6842
g16
VDT
p6843
sbag5
(g6
g7
(lp6844
Vdistributional
p6845
atp6846
Rp6847
(dp6848
g16
VJJ
p6849
sbag5
(g6
g7
(lp6850
Vinformation
p6851
atp6852
Rp6853
(dp6854
g16
VNN
p6855
sbatp6856
Rp6857
(dp6858
g16
VNP
p6859
sbag5
(g6
g7
(lp6860
g5
(g6
g7
(lp6861
V-LRB-
p6862
atp6863
Rp6864
(dp6865
g16
V-LRB-
p6866
sbag5
(g6
g7
(lp6867
g5
(g6
g7
(lp6868
Vin
p6869
atp6870
Rp6871
(dp6872
g16
VIN
p6873
sbag5
(g6
g7
(lp6874
g5
(g6
g7
(lp6875
V4,683
p6876
atp6877
Rp6878
(dp6879
g16
VCD
p6880
sbag5
(g6
g7
(lp6881
Vcolumns
p6882
atp6883
Rp6884
(dp6885
g16
VNNS
p6886
sbatp6887
Rp6888
(dp6889
g16
VNP
p6890
sbatp6891
Rp6892
(dp6893
g16
VPP
p6894
sbag5
(g6
g7
(lp6895
V-RRB-
p6896
atp6897
Rp6898
(dp6899
g16
V-RRB-
p6900
sbatp6901
Rp6902
(dp6903
g16
VPRN
p6904
sbag5
(g6
g7
(lp6905
g5
(g6
g7
(lp6906
Vfor
p6907
atp6908
Rp6909
(dp6910
g16
VIN
p6911
sbag5
(g6
g7
(lp6912
g5
(g6
g7
(lp6913
g5
(g6
g7
(lp6914
V92
p6915
atp6916
Rp6917
(dp6918
g16
VCD
p6919
sbag5
(g6
g7
(lp6920
Vverbs
p6921
atp6922
Rp6923
(dp6924
g16
VNNS
p6925
sbatp6926
Rp6927
(dp6928
g16
VNP
p6929
sbag5
(g6
g7
(lp6930
g5
(g6
g7
(lp6931
Voccurring
p6932
atp6933
Rp6934
(dp6935
g16
VVBG
p6936
sbag5
(g6
g7
(lp6937
g5
(g6
g7
(lp6938
Vin
p6939
atp6940
Rp6941
(dp6942
g16
VIN
p6943
sbag5
(g6
g7
(lp6944
g5
(g6
g7
(lp6945
Vthe
p6946
atp6947
Rp6948
(dp6949
g16
VDT
p6950
sbag5
(g6
g7
(lp6951
Vhell
p6952
atp6953
Rp6954
(dp6955
g16
VNN
p6956
sbag5
(g6
g7
(lp6957
g5192
atp6958
Rp6959
(dp6960
g16
g4226
sbag5
(g6
g7
(lp6961
Vconstruction
p6962
atp6963
Rp6964
(dp6965
g16
VNN
p6966
sbatp6967
Rp6968
(dp6969
g16
VNP
p6970
sbatp6971
Rp6972
(dp6973
g16
VPP
p6974
sbatp6975
Rp6976
(dp6977
g16
VVP
p6978
sbatp6979
Rp6980
(dp6981
g16
VNP
p6982
sbatp6983
Rp6984
(dp6985
g16
VPP
p6986
sbatp6987
Rp6988
(dp6989
g16
VVP
p6990
sbatp6991
Rp6992
(dp6993
g16
g160
sbatp6994
Rp6995
(dp6996
g16
VSBAR
p6997
sbag5
(g6
g7
(lp6998
g166
atp6999
Rp7000
(dp7001
g16
g166
sbatp7002
Rp7003
(dp7004
g16
VNP
p7005
sbag5
(g6
g7
(lp7006
g5
(g6
g7
(lp7007
Vconstitutes
p7008
atp7009
Rp7010
(dp7011
g16
VVBZ
p7012
sbag5
(g6
g7
(lp7013
g5
(g6
g7
(lp7014
Vthe
p7015
atp7016
Rp7017
(dp7018
g16
VDT
p7019
sbag5
(g6
g7
(lp7020
Vsemantic
p7021
atp7022
Rp7023
(dp7024
g16
VJJ
p7025
sbag5
(g6
g7
(lp7026
Vspace
p7027
atp7028
Rp7029
(dp7030
g16
VNN
p7031
sbatp7032
Rp7033
(dp7034
g16
VNP
p7035
sbag5
(g6
g7
(lp7036
g5
(g6
g7
(lp7037
Vunder
p7038
atp7039
Rp7040
(dp7041
g16
VIN
p7042
sbag5
(g6
g7
(lp7043
g5
(g6
g7
(lp7044
g5
(g6
g7
(lp7045
Vconsideration
p7046
atp7047
Rp7048
(dp7049
g16
VNN
p7050
sbatp7051
Rp7052
(dp7053
g16
VNP
p7054
sbag5
(g6
g7
(lp7055
g5
(g6
g7
(lp7056
Vin
p7057
atp7058
Rp7059
(dp7060
g16
VIN
p7061
sbag5
(g6
g7
(lp7062
g5
(g6
g7
(lp7063
Vthis
p7064
atp7065
Rp7066
(dp7067
g16
VDT
p7068
sbag5
(g6
g7
(lp7069
Vcase
p7070
atp7071
Rp7072
(dp7073
g16
VNN
p7074
sbag5
(g6
g7
(lp7075
Vstudy
p7076
atp7077
Rp7078
(dp7079
g16
VNN
p7080
sbatp7081
Rp7082
(dp7083
g16
VNP
p7084
sbatp7085
Rp7086
(dp7087
g16
VPP
p7088
sbatp7089
Rp7090
(dp7091
g16
VNP
p7092
sbatp7093
Rp7094
(dp7095
g16
VPP
p7096
sbatp7097
Rp7098
(dp7099
g16
VVP
p7100
sbatp7101
Rp7102
(dp7103
g16
g160
sbatp7104
Rp7105
(dp7106
g16
VROOT
p7107
sbasg693
(icmyPackage
CorE
p7108
(dp7109
g696
(lp7110
(I0
I0
tp7111
a(I0
I52
tp7112
asg700
g6762
sbsg701
(icmyPackage
CorE
p7113
(dp7114
g696
(lp7115
(I1
I32
tp7116
a(I1
I33
tp7117
asg700
g5
(g6
g7
(lp7118
g7072
ag7078
atp7119
Rp7120
(dp7121
g16
g711
sbsbsg712
(icmyPackage
pattern
p7122
(dp7123
g715
I4
sg716
I1
sg717
(lp7124
(lp7125
S'result'
p7126
aa(lp7127
S'is'
p7128
aasg723
(lp7129
I4
aI2
aI1
asg725
(lp7130
S'Amazing things will happen. The result of this trading is a market that has done what markets do: allocate resources to more productive use.'
p7131
asg728
I135
sg729
(lp7132
(lp7133
S'&C'
p7134
aS'(,/./;/--)'
p7135
aS'&ONE'
p7136
aS'(&adj)'
p7137
aa(lp7138
S'(of &THIS (&NP))'
p7139
aa(lp7140
S'&NP@R@'
p7141
aS'(&Clause@R@)'
p7142
aasbsg735
(lp7143
g6780
a(isxpPackage
sxpSent
p7144
(dp7145
g739
(lp7146
I14
asg741
VThe resulting matrix, which contains the distributional information (in 4,683 columns) for 92 verbs occurring in the hell -construction, constitutes the semantic space under consideration in this case study
p7147
sg743
I4
sg728
I59
sg744
I19
sbasba(icmyPackage
CELink
p7148
(dp7149
g3
(lp7150
g5
(g6
g7
(lp7151
g5
(g6
g7
(lp7152
g5
(g6
g7
(lp7153
g5
(g6
g7
(lp7154
VFor
p7155
atp7156
Rp7157
(dp7158
g16
VIN
p7159
sbag5
(g6
g7
(lp7160
g5
(g6
g7
(lp7161
g5
(g6
g7
(lp7162
Vconvenience
p7163
atp7164
Rp7165
(dp7166
g16
VNN
p7167
sbag5
(g6
g7
(lp7168
Vand
p7169
atp7170
Rp7171
(dp7172
g16
VCC
p7173
sbag5
(g6
g7
(lp7174
Vease
p7175
atp7176
Rp7177
(dp7178
g16
VNN
p7179
sbatp7180
Rp7181
(dp7182
g16
VNP
p7183
sbag5
(g6
g7
(lp7184
g5
(g6
g7
(lp7185
Vof
p7186
atp7187
Rp7188
(dp7189
g16
VIN
p7190
sbag5
(g6
g7
(lp7191
g5
(g6
g7
(lp7192
Vvisualization
p7193
atp7194
Rp7195
(dp7196
g16
VNN
p7197
sbatp7198
Rp7199
(dp7200
g16
VNP
p7201
sbatp7202
Rp7203
(dp7204
g16
VPP
p7205
sbatp7206
Rp7207
(dp7208
g16
VNP
p7209
sbatp7210
Rp7211
(dp7212
g16
VPP
p7213
sbag5
(g6
g7
(lp7214
g166
atp7215
Rp7216
(dp7217
g16
g166
sbag5
(g6
g7
(lp7218
g5
(g6
g7
(lp7219
Vthe
p7220
atp7221
Rp7222
(dp7223
g16
VDT
p7224
sbag5
(g6
g7
(lp7225
Vverbs
p7226
atp7227
Rp7228
(dp7229
g16
VNNS
p7230
sbatp7231
Rp7232
(dp7233
g16
VNP
p7234
sbag5
(g6
g7
(lp7235
g5
(g6
g7
(lp7236
Vare
p7237
atp7238
Rp7239
(dp7240
g16
VVBP
p7241
sbag5
(g6
g7
(lp7242
g5
(g6
g7
(lp7243
Vcolor-coded
p7244
atp7245
Rp7246
(dp7247
g16
VVBN
p7248
sbag5
(g6
g7
(lp7249
g5
(g6
g7
(lp7250
Vaccording
p7251
atp7252
Rp7253
(dp7254
g16
VVBG
p7255
sbag5
(g6
g7
(lp7256
g5
(g6
g7
(lp7257
Vto
p7258
atp7259
Rp7260
(dp7261
g16
VTO
p7262
sbag5
(g6
g7
(lp7263
g5
(g6
g7
(lp7264
g5
(g6
g7
(lp7265
Vfour
p7266
atp7267
Rp7268
(dp7269
g16
VCD
p7270
sbag5
(g6
g7
(lp7271
Vbroad
p7272
atp7273
Rp7274
(dp7275
g16
VJJ
p7276
sbag5
(g6
g7
(lp7277
Vsemantic
p7278
atp7279
Rp7280
(dp7281
g16
VJJ
p7282
sbag5
(g6
g7
(lp7283
Vgroupings
p7284
atp7285
Rp7286
(dp7287
g16
VNNS
p7288
sbatp7289
Rp7290
(dp7291
g16
VNP
p7292
sbag5
(g6
g7
(lp7293
g5
(g6
g7
(lp7294
g5
(g6
g7
(lp7295
Vthat
p7296
atp7297
Rp7298
(dp7299
g16
VWDT
p7300
sbatp7301
Rp7302
(dp7303
g16
VWHNP
p7304
sbag5
(g6
g7
(lp7305
g5
(g6
g7
(lp7306
g5
(g6
g7
(lp7307
Vwere
p7308
atp7309
Rp7310
(dp7311
g16
VVBD
p7312
sbag5
(g6
g7
(lp7313
g5
(g6
g7
(lp7314
Videntified
p7315
atp7316
Rp7317
(dp7318
g16
VVBN
p7319
sbag5
(g6
g7
(lp7320
g5
(g6
g7
(lp7321
g5
(g6
g7
(lp7322
g5
(g6
g7
(lp7323
Vinductively
p7324
atp7325
Rp7326
(dp7327
g16
VRB
p7328
sbatp7329
Rp7330
(dp7331
g16
VADVP
p7332
sbag5
(g6
g7
(lp7333
g5
(g6
g7
(lp7334
Vby
p7335
atp7336
Rp7337
(dp7338
g16
VIN
p7339
sbag5
(g6
g7
(lp7340
g5
(g6
g7
(lp7341
g5
(g6
g7
(lp7342
Vmeans
p7343
atp7344
Rp7345
(dp7346
g16
VNNS
p7347
sbatp7348
Rp7349
(dp7350
g16
VNP
p7351
sbag5
(g6
g7
(lp7352
g5
(g6
g7
(lp7353
Vof
p7354
atp7355
Rp7356
(dp7357
g16
VIN
p7358
sbag5
(g6
g7
(lp7359
g5
(g6
g7
(lp7360
Vhierarchical
p7361
atp7362
Rp7363
(dp7364
g16
VNN
p7365
sbatp7366
Rp7367
(dp7368
g16
VNP
p7369
sbatp7370
Rp7371
(dp7372
g16
VPP
p7373
sbatp7374
Rp7375
(dp7376
g16
VNP
p7377
sbatp7378
Rp7379
(dp7380
g16
VPP
p7381
sbatp7382
Rp7383
(dp7384
g16
VADVP
p7385
sbag5
(g6
g7
(lp7386
Vclustering
p7387
atp7388
Rp7389
(dp7390
g16
VVBG
p7391
sbag5
(g6
g7
(lp7392
V-LRB-
p7393
atp7394
Rp7395
(dp7396
g16
V-LRB-
p7397
sbag5
(g6
g7
(lp7398
g5
(g6
g7
(lp7399
g5
(g6
g7
(lp7400
Vusing
p7401
atp7402
Rp7403
(dp7404
g16
VVBG
p7405
sbag5
(g6
g7
(lp7406
VWard
p7407
atp7408
Rp7409
(dp7410
g16
VJJ
p7411
sbag5
(g6
g7
(lp7412
g1585
atp7413
Rp7414
(dp7415
g16
VNN
p7416
sbag5
(g6
g7
(lp7417
g1591
atp7418
Rp7419
(dp7420
g16
V''
p7421
sbatp7422
Rp7423
(dp7424
g16
VNP
p7425
sbag5
(g6
g7
(lp7426
g5
(g6
g7
(lp7427
V\u005c
p7428
atp7429
Rp7430
(dp7431
g16
VVBG
p7432
sbag5
(g6
g7
(lp7433
g5
(g6
g7
(lp7434
g5
(g6
g7
(lp7435
Vu2019
p7436
atp7437
Rp7438
(dp7439
g16
VNNP
p7440
sbag5
(g6
g7
(lp7441
g1591
atp7442
Rp7443
(dp7444
g16
VPOS
p7445
sbatp7446
Rp7447
(dp7448
g16
VNP
p7449
sbag5
(g6
g7
(lp7450
g1661
atp7451
Rp7452
(dp7453
g16
VJJ
p7454
sbag5
(g6
g7
(lp7455
Vcriterion
p7456
atp7457
Rp7458
(dp7459
g16
VNN
p7460
sbatp7461
Rp7462
(dp7463
g16
VNP
p7464
sbatp7465
Rp7466
(dp7467
g16
VVP
p7468
sbatp7469
Rp7470
(dp7471
g16
VNP
p7472
sbatp7473
Rp7474
(dp7475
g16
VVP
p7476
sbatp7477
Rp7478
(dp7479
g16
VVP
p7480
sbatp7481
Rp7482
(dp7483
g16
VVP
p7484
sbatp7485
Rp7486
(dp7487
g16
g160
sbatp7488
Rp7489
(dp7490
g16
VSBAR
p7491
sbatp7492
Rp7493
(dp7494
g16
VNP
p7495
sbatp7496
Rp7497
(dp7498
g16
VPP
p7499
sbatp7500
Rp7501
(dp7502
g16
VPP
p7503
sbatp7504
Rp7505
(dp7506
g16
VVP
p7507
sbatp7508
Rp7509
(dp7510
g16
VVP
p7511
sbatp7512
Rp7513
(dp7514
g16
g160
sbatp7515
Rp7516
(dp7517
g16
VROOT
p7518
sbasg693
(icmyPackage
CorE
p7519
(dp7520
g696
(lp7521
(I0
I13
tp7522
a(I0
I35
tp7523
asg700
g7493
sbsg701
(icmyPackage
CorE
p7524
(dp7525
g696
(lp7526
(I0
I0
tp7527
a(I0
I10
tp7528
asg700
g5
(g6
g7
(lp7529
g7211
ag7216
ag7232
ag7239
ag7246
atp7530
Rp7531
(dp7532
g16
g711
sbsbsg712
(icmyPackage
pattern
p7533
(dp7534
g715
I0
sg716
I0
sg717
(lp7535
(lp7536
S'according'
p7537
aS'to'
p7538
aasg723
(lp7539
I2
aI1
aI1
asg725
(lp7540
S'There could be different ways to arrange pictures in displays but picture should be selected according to the core sentences and arranged near the core sentences according to the semantic locality principle.'
p7541
asg728
I55
sg729
(lp7542
(lp7543
S'&R'
p7544
aS'(,)'
p7545
aa(lp7546
S'&NP@C@'
p7547
aasbsg735
(lp7548
(isxpPackage
sxpSent
p7549
(dp7550
g739
(lp7551
I15
asg741
VFor convenience and ease of visualization, the verbs are color-coded according to four broad semantic groupings that were identified inductively by means of hierarchical clustering (using Ward u'\u005cu2019' s criterion
p7552
sg743
I6
sg728
I70
sg744
I21
sbasba(icmyPackage
CELink
p7553
(dp7554
g3
(lp7555
g5
(g6
g7
(lp7556
g5
(g6
g7
(lp7557
g5
(g6
g7
(lp7558
g5
(g6
g7
(lp7559
g5
(g6
g7
(lp7560
g5
(g6
g7
(lp7561
V3
p7562
atp7563
Rp7564
(dp7565
g16
VCD
p7566
sbag5
(g6
g7
(lp7567
g7562
atp7568
Rp7569
(dp7570
g16
VCD
p7571
sbatp7572
Rp7573
(dp7574
g16
VQP
p7575
sbag5
(g6
g7
(lp7576
VAnother
p7577
atp7578
Rp7579
(dp7580
g16
VDT
p7581
sbag5
(g6
g7
(lp7582
Vbenefit
p7583
atp7584
Rp7585
(dp7586
g16
VNN
p7587
sbatp7588
Rp7589
(dp7590
g16
VNP
p7591
sbag5
(g6
g7
(lp7592
g5
(g6
g7
(lp7593
Vof
p7594
atp7595
Rp7596
(dp7597
g16
VIN
p7598
sbag5
(g6
g7
(lp7599
g5
(g6
g7
(lp7600
g5
(g6
g7
(lp7601
Vcombining
p7602
atp7603
Rp7604
(dp7605
g16
VVBG
p7606
sbag5
(g6
g7
(lp7607
g5
(g6
g7
(lp7608
g5
(g6
g7
(lp7609
Vclustering
p7610
atp7611
Rp7612
(dp7613
g16
VNN
p7614
sbatp7615
Rp7616
(dp7617
g16
VNP
p7618
sbag5
(g6
g7
(lp7619
Vand
p7620
atp7621
Rp7622
(dp7623
g16
VCC
p7624
sbag5
(g6
g7
(lp7625
g5
(g6
g7
(lp7626
VMDS
p7627
atp7628
Rp7629
(dp7630
g16
VNNP
p7631
sbatp7632
Rp7633
(dp7634
g16
VNP
p7635
sbatp7636
Rp7637
(dp7638
g16
VNP
p7639
sbatp7640
Rp7641
(dp7642
g16
VVP
p7643
sbatp7644
Rp7645
(dp7646
g16
g160
sbatp7647
Rp7648
(dp7649
g16
VPP
p7650
sbatp7651
Rp7652
(dp7653
g16
VNP
p7654
sbag5
(g6
g7
(lp7655
g5
(g6
g7
(lp7656
Vstems
p7657
atp7658
Rp7659
(dp7660
g16
VVBZ
p7661
sbag5
(g6
g7
(lp7662
g5
(g6
g7
(lp7663
Vfrom
p7664
atp7665
Rp7666
(dp7667
g16
VIN
p7668
sbag5
(g6
g7
(lp7669
g5
(g6
g7
(lp7670
Vthe
p7671
atp7672
Rp7673
(dp7674
g16
VDT
p7675
sbag5
(g6
g7
(lp7676
Vfact
p7677
atp7678
Rp7679
(dp7680
g16
VNN
p7681
sbatp7682
Rp7683
(dp7684
g16
VNP
p7685
sbatp7686
Rp7687
(dp7688
g16
VPP
p7689
sbag5
(g6
g7
(lp7690
g5
(g6
g7
(lp7691
Vthat
p7692
atp7693
Rp7694
(dp7695
g16
VIN
p7696
sbag5
(g6
g7
(lp7697
g5
(g6
g7
(lp7698
g5
(g6
g7
(lp7699
Vthe
p7700
atp7701
Rp7702
(dp7703
g16
VDT
p7704
sbag5
(g6
g7
(lp7705
Vlatter
p7706
atp7707
Rp7708
(dp7709
g16
VNN
p7710
sbatp7711
Rp7712
(dp7713
g16
VNP
p7714
sbag5
(g6
g7
(lp7715
g5
(g6
g7
(lp7716
Voften
p7717
atp7718
Rp7719
(dp7720
g16
VRB
p7721
sbatp7722
Rp7723
(dp7724
g16
VADVP
p7725
sbag5
(g6
g7
(lp7726
g5
(g6
g7
(lp7727
Vdistorts
p7728
atp7729
Rp7730
(dp7731
g16
VVBZ
p7732
sbag5
(g6
g7
(lp7733
g5
(g6
g7
(lp7734
Vthe
p7735
atp7736
Rp7737
(dp7738
g16
VDT
p7739
sbag5
(g6
g7
(lp7740
Vdata
p7741
atp7742
Rp7743
(dp7744
g16
VNNS
p7745
sbatp7746
Rp7747
(dp7748
g16
VNP
p7749
sbag5
(g6
g7
(lp7750
g5
(g6
g7
(lp7751
g5
(g6
g7
(lp7752
Vwhen
p7753
atp7754
Rp7755
(dp7756
g16
VWRB
p7757
sbatp7758
Rp7759
(dp7760
g16
VWHADVP
p7761
sbag5
(g6
g7
(lp7762
g5
(g6
g7
(lp7763
g5
(g6
g7
(lp7764
Vfitting
p7765
atp7766
Rp7767
(dp7768
g16
VVBZ
p7769
sbag5
(g6
g7
(lp7770
g5
(g6
g7
(lp7771
Vthe
p7772
atp7773
Rp7774
(dp7775
g16
VDT
p7776
sbag5
(g6
g7
(lp7777
Vobjects
p7778
atp7779
Rp7780
(dp7781
g16
VNNS
p7782
sbatp7783
Rp7784
(dp7785
g16
VNP
p7786
sbag5
(g6
g7
(lp7787
g5
(g6
g7
(lp7788
Vinto
p7789
atp7790
Rp7791
(dp7792
g16
VIN
p7793
sbag5
(g6
g7
(lp7794
g5
(g6
g7
(lp7795
g5
(g6
g7
(lp7796
Vtwo
p7797
atp7798
Rp7799
(dp7800
g16
VCD
p7801
sbag5
(g6
g7
(lp7802
Vdimensions
p7803
atp7804
Rp7805
(dp7806
g16
VNNS
p7807
sbatp7808
Rp7809
(dp7810
g16
VNP
p7811
sbag5
(g6
g7
(lp7812
g166
atp7813
Rp7814
(dp7815
g16
g166
sbag5
(g6
g7
(lp7816
g5
(g6
g7
(lp7817
g5
(g6
g7
(lp7818
Vin
p7819
atp7820
Rp7821
(dp7822
g16
VIN
p7823
sbag5
(g6
g7
(lp7824
g5
(g6
g7
(lp7825
Vthat
p7826
atp7827
Rp7828
(dp7829
g16
VWDT
p7830
sbatp7831
Rp7832
(dp7833
g16
VWHNP
p7834
sbatp7835
Rp7836
(dp7837
g16
VWHPP
p7838
sbag5
(g6
g7
(lp7839
g5
(g6
g7
(lp7840
g5
(g6
g7
(lp7841
Vsome
p7842
atp7843
Rp7844
(dp7845
g16
VDT
p7846
sbag5
(g6
g7
(lp7847
Vobjects
p7848
atp7849
Rp7850
(dp7851
g16
VNNS
p7852
sbatp7853
Rp7854
(dp7855
g16
VNP
p7856
sbag5
(g6
g7
(lp7857
g5
(g6
g7
(lp7858
Vmight
p7859
atp7860
Rp7861
(dp7862
g16
VMD
p7863
sbag5
(g6
g7
(lp7864
g5
(g6
g7
(lp7865
Vhave
p7866
atp7867
Rp7868
(dp7869
g16
VVB
p7870
sbag5
(g6
g7
(lp7871
g5
(g6
g7
(lp7872
g5
(g6
g7
(lp7873
Vto
p7874
atp7875
Rp7876
(dp7877
g16
VTO
p7878
sbag5
(g6
g7
(lp7879
g5
(g6
g7
(lp7880
Vbe
p7881
atp7882
Rp7883
(dp7884
g16
VVB
p7885
sbag5
(g6
g7
(lp7886
g5
(g6
g7
(lp7887
g5
(g6
g7
(lp7888
Vslightly
p7889
atp7890
Rp7891
(dp7892
g16
VRB
p7893
sbatp7894
Rp7895
(dp7896
g16
VADVP
p7897
sbag5
(g6
g7
(lp7898
Vmisplaced
p7899
atp7900
Rp7901
(dp7902
g16
VVBN
p7903
sbag5
(g6
g7
(lp7904
g5
(g6
g7
(lp7905
Vif
p7906
atp7907
Rp7908
(dp7909
g16
VIN
p7910
sbag5
(g6
g7
(lp7911
g5
(g6
g7
(lp7912
g5
(g6
g7
(lp7913
Vnot
p7914
atp7915
Rp7916
(dp7917
g16
VRB
p7918
sbag5
(g6
g7
(lp7919
Vall
p7920
atp7921
Rp7922
(dp7923
g16
VDT
p7924
sbag5
(g6
g7
(lp7925
Vdistance
p7926
atp7927
Rp7928
(dp7929
g16
VNN
p7930
sbag5
(g6
g7
(lp7931
Vrelations
p7932
atp7933
Rp7934
(dp7935
g16
VNNS
p7936
sbatp7937
Rp7938
(dp7939
g16
VNP
p7940
sbag5
(g6
g7
(lp7941
g5
(g6
g7
(lp7942
Vcan
p7943
atp7944
Rp7945
(dp7946
g16
VMD
p7947
sbag5
(g6
g7
(lp7948
g5
(g6
g7
(lp7949
Vbe
p7950
atp7951
Rp7952
(dp7953
g16
VVB
p7954
sbag5
(g6
g7
(lp7955
g5
(g6
g7
(lp7956
g5
(g6
g7
(lp7957
Vsimultaneously
p7958
atp7959
Rp7960
(dp7961
g16
VRB
p7962
sbatp7963
Rp7964
(dp7965
g16
VADVP
p7966
sbag5
(g6
g7
(lp7967
Vcomplied
p7968
atp7969
Rp7970
(dp7971
g16
VVBN
p7972
sbag5
(g6
g7
(lp7973
g5
(g6
g7
(lp7974
Vwith
p7975
atp7976
Rp7977
(dp7978
g16
VIN
p7979
sbatp7980
Rp7981
(dp7982
g16
VPP
p7983
sbatp7984
Rp7985
(dp7986
g16
VVP
p7987
sbatp7988
Rp7989
(dp7990
g16
VVP
p7991
sbatp7992
Rp7993
(dp7994
g16
VVP
p7995
sbatp7996
Rp7997
(dp7998
g16
g160
sbatp7999
Rp8000
(dp8001
g16
VSBAR
p8002
sbatp8003
Rp8004
(dp8005
g16
VVP
p8006
sbatp8007
Rp8008
(dp8009
g16
VVP
p8010
sbatp8011
Rp8012
(dp8013
g16
VVP
p8014
sbatp8015
Rp8016
(dp8017
g16
g160
sbatp8018
Rp8019
(dp8020
g16
VVP
p8021
sbatp8022
Rp8023
(dp8024
g16
VVP
p8025
sbatp8026
Rp8027
(dp8028
g16
g160
sbatp8029
Rp8030
(dp8031
g16
VSBAR
p8032
sbatp8033
Rp8034
(dp8035
g16
VNP
p8036
sbatp8037
Rp8038
(dp8039
g16
VPP
p8040
sbatp8041
Rp8042
(dp8043
g16
VVP
p8044
sbatp8045
Rp8046
(dp8047
g16
g160
sbatp8048
Rp8049
(dp8050
g16
VSBAR
p8051
sbatp8052
Rp8053
(dp8054
g16
VVP
p8055
sbatp8056
Rp8057
(dp8058
g16
g160
sbatp8059
Rp8060
(dp8061
g16
VSBAR
p8062
sbatp8063
Rp8064
(dp8065
g16
VVP
p8066
sbatp8067
Rp8068
(dp8069
g16
g160
sbatp8070
Rp8071
(dp8072
g16
VROOT
p8073
sbasg693
(icmyPackage
CorE
p8074
(dp8075
g696
(lp8076
(I0
I39
tp8077
a(I0
I47
tp8078
asg700
g7997
sbsg701
(icmyPackage
CorE
p8079
(dp8080
g696
(lp8081
(I0
I0
tp8082
a(I0
I37
tp8083
asg700
g5
(g6
g7
(lp8084
g7652
ag7659
ag7687
ag7694
ag7712
ag7723
ag7730
ag7747
ag7759
ag7767
ag7784
ag7791
ag7809
ag7814
ag7836
ag7854
ag7861
ag7868
ag7876
ag7883
ag7895
ag7901
atp8085
Rp8086
(dp8087
g16
g711
sbsbsg712
(icmyPackage
pattern
p8088
(dp8089
g715
I0
sg716
I0
sg717
(lp8090
(lp8091
S'if'
p8092
aasg723
(lp8093
I1
aI1
aI1
asg725
(lp8094
S'An effective knowledge flow network enables a research team to be very powerful in generating new knowledge if every node can innovate and output new knowledge to appropriate members.'
p8095
asg728
I14
sg729
(lp8096
(lp8097
S'&R@Complete@'
p8098
aa(lp8099
S'&C@Complete@'
p8100
aasbsg735
(lp8101
(isxpPackage
sxpSent
p8102
(dp8103
g739
(lp8104
I16
asg741
V3 3 Another benefit of combining clustering and MDS stems from the fact that the latter often distorts the data when fitting the objects into two dimensions, in that some objects might have to be slightly misplaced if not all distance relations can be simultaneously complied with
p8105
sg743
I6
sg728
I71
sg744
I21
sbasba(icmyPackage
CELink
p8106
(dp8107
g3
(lp8108
g5
(g6
g7
(lp8109
g5
(g6
g7
(lp8110
g5
(g6
g7
(lp8111
g5
(g6
g7
(lp8112
VSince
p8113
atp8114
Rp8115
(dp8116
g16
VIN
p8117
sbag5
(g6
g7
(lp8118
g5
(g6
g7
(lp8119
g5
(g6
g7
(lp8120
Vcluster
p8121
atp8122
Rp8123
(dp8124
g16
VNN
p8125
sbag5
(g6
g7
(lp8126
Vanalysis
p8127
atp8128
Rp8129
(dp8130
g16
VNN
p8131
sbatp8132
Rp8133
(dp8134
g16
VNP
p8135
sbag5
(g6
g7
(lp8136
g5
(g6
g7
(lp8137
Voperates
p8138
atp8139
Rp8140
(dp8141
g16
VVBZ
p8142
sbag5
(g6
g7
(lp8143
g5
(g6
g7
(lp8144
Vwith
p8145
atp8146
Rp8147
(dp8148
g16
VIN
p8149
sbag5
(g6
g7
(lp8150
g5
(g6
g7
(lp8151
g5
(g6
g7
(lp8152
Vall
p8153
atp8154
Rp8155
(dp8156
g16
VDT
p8157
sbag5
(g6
g7
(lp8158
V4,683
p8159
atp8160
Rp8161
(dp8162
g16
VCD
p8163
sbag5
(g6
g7
(lp8164
Vdimensions
p8165
atp8166
Rp8167
(dp8168
g16
VNNS
p8169
sbatp8170
Rp8171
(dp8172
g16
VNP
p8173
sbag5
(g6
g7
(lp8174
g5
(g6
g7
(lp8175
Vof
p8176
atp8177
Rp8178
(dp8179
g16
VIN
p8180
sbag5
(g6
g7
(lp8181
g5
(g6
g7
(lp8182
Vthe
p8183
atp8184
Rp8185
(dp8186
g16
VDT
p8187
sbag5
(g6
g7
(lp8188
Vdistributional
p8189
atp8190
Rp8191
(dp8192
g16
VJJ
p8193
sbag5
(g6
g7
(lp8194
Vspace
p8195
atp8196
Rp8197
(dp8198
g16
VNN
p8199
sbatp8200
Rp8201
(dp8202
g16
VNP
p8203
sbatp8204
Rp8205
(dp8206
g16
VPP
p8207
sbatp8208
Rp8209
(dp8210
g16
VNP
p8211
sbatp8212
Rp8213
(dp8214
g16
VPP
p8215
sbatp8216
Rp8217
(dp8218
g16
VVP
p8219
sbatp8220
Rp8221
(dp8222
g16
g160
sbatp8223
Rp8224
(dp8225
g16
VSBAR
p8226
sbag5
(g6
g7
(lp8227
g166
atp8228
Rp8229
(dp8230
g16
g166
sbag5
(g6
g7
(lp8231
g5
(g6
g7
(lp8232
Vit
p8233
atp8234
Rp8235
(dp8236
g16
VPRP
p8237
sbatp8238
Rp8239
(dp8240
g16
VNP
p8241
sbag5
(g6
g7
(lp8242
g5
(g6
g7
(lp8243
Vis
p8244
atp8245
Rp8246
(dp8247
g16
VVBZ
p8248
sbag5
(g6
g7
(lp8249
g5
(g6
g7
(lp8250
Vmore
p8251
atp8252
Rp8253
(dp8254
g16
VRBR
p8255
sbag5
(g6
g7
(lp8256
Vreliable
p8257
atp8258
Rp8259
(dp8260
g16
VJJ
p8261
sbag5
(g6
g7
(lp8262
g5
(g6
g7
(lp8263
Vthan
p8264
atp8265
Rp8266
(dp8267
g16
VIN
p8268
sbag5
(g6
g7
(lp8269
g5
(g6
g7
(lp8270
VMDS
p8271
atp8272
Rp8273
(dp8274
g16
VNNP
p8275
sbatp8276
Rp8277
(dp8278
g16
VNP
p8279
sbatp8280
Rp8281
(dp8282
g16
VPP
p8283
sbatp8284
Rp8285
(dp8286
g16
VADJP
p8287
sbag5
(g6
g7
(lp8288
g166
atp8289
Rp8290
(dp8291
g16
g166
sbag5
(g6
g7
(lp8292
g5
(g6
g7
(lp8293
Valthough
p8294
atp8295
Rp8296
(dp8297
g16
VIN
p8298
sbag5
(g6
g7
(lp8299
g5
(g6
g7
(lp8300
g5
(g6
g7
(lp8301
Vit
p8302
atp8303
Rp8304
(dp8305
g16
VPRP
p8306
sbatp8307
Rp8308
(dp8309
g16
VNP
p8310
sbag5
(g6
g7
(lp8311
g5
(g6
g7
(lp8312
Vlacks
p8313
atp8314
Rp8315
(dp8316
g16
VVBZ
p8317
sbag5
(g6
g7
(lp8318
g5
(g6
g7
(lp8319
g5
(g6
g7
(lp8320
Vthe
p8321
atp8322
Rp8323
(dp8324
g16
VDT
p8325
sbag5
(g6
g7
(lp8326
Vvisual
p8327
atp8328
Rp8329
(dp8330
g16
VJJ
p8331
sbag5
(g6
g7
(lp8332
Vappeal
p8333
atp8334
Rp8335
(dp8336
g16
VNN
p8337
sbatp8338
Rp8339
(dp8340
g16
VNP
p8341
sbag5
(g6
g7
(lp8342
g5
(g6
g7
(lp8343
Vof
p8344
atp8345
Rp8346
(dp8347
g16
VIN
p8348
sbag5
(g6
g7
(lp8349
g5
(g6
g7
(lp8350
Vthe
p8351
atp8352
Rp8353
(dp8354
g16
VDT
p8355
sbag5
(g6
g7
(lp8356
Vlatter
p8357
atp8358
Rp8359
(dp8360
g16
VNN
p8361
sbatp8362
Rp8363
(dp8364
g16
VNP
p8365
sbatp8366
Rp8367
(dp8368
g16
VPP
p8369
sbatp8370
Rp8371
(dp8372
g16
VNP
p8373
sbatp8374
Rp8375
(dp8376
g16
VVP
p8377
sbatp8378
Rp8379
(dp8380
g16
g160
sbatp8381
Rp8382
(dp8383
g16
VSBAR
p8384
sbatp8385
Rp8386
(dp8387
g16
VVP
p8388
sbatp8389
Rp8390
(dp8391
g16
g160
sbatp8392
Rp8393
(dp8394
g16
VROOT
p8395
sbasg693
(icmyPackage
CorE
p8396
(dp8397
g696
(lp8398
(I0
I1
tp8399
a(I0
I10
tp8400
asg700
g5
(g6
g7
(lp8401
g8133
ag8140
ag8147
ag8171
ag8178
ag8185
ag8191
atp8402
Rp8403
(dp8404
g16
g711
sbsbsg701
(icmyPackage
CorE
p8405
(dp8406
g696
(lp8407
(I0
I13
tp8408
a(I0
I28
tp8409
asg700
g5
(g6
g7
(lp8410
g8239
ag8386
atp8411
Rp8412
(dp8413
g16
g711
sbsbsg712
g3036
sg735
(lp8414
(isxpPackage
sxpSent
p8415
(dp8416
g739
(lp8417
I17
asg741
VSince cluster analysis operates with all 4,683 dimensions of the distributional space, it is more reliable than MDS, although it lacks the visual appeal of the latter
p8418
sg743
I6
sg728
I72
sg744
I21
sbasba(icmyPackage
CELink
p8419
(dp8420
g3
(lp8421
g5
(g6
g7
(lp8422
g5
(g6
g7
(lp8423
g5
(g6
g7
(lp8424
g5
(g6
g7
(lp8425
VBy
p8426
atp8427
Rp8428
(dp8429
g16
VIN
p8430
sbag5
(g6
g7
(lp8431
g5
(g6
g7
(lp8432
g5
(g6
g7
(lp8433
Vcomparing
p8434
atp8435
Rp8436
(dp8437
g16
VVBG
p8438
sbag5
(g6
g7
(lp8439
g5
(g6
g7
(lp8440
Vthe
p8441
atp8442
Rp8443
(dp8444
g16
VDT
p8445
sbag5
(g6
g7
(lp8446
Vplots
p8447
atp8448
Rp8449
(dp8450
g16
VNNS
p8451
sbatp8452
Rp8453
(dp8454
g16
VNP
p8455
sbag5
(g6
g7
(lp8456
g5
(g6
g7
(lp8457
Vin
p8458
atp8459
Rp8460
(dp8461
g16
VIN
p8462
sbag5
(g6
g7
(lp8463
g5
(g6
g7
(lp8464
VFigure
p8465
atp8466
Rp8467
(dp8468
g16
VNNP
p8469
sbag5
(g6
g7
(lp8470
g1303
atp8471
Rp8472
(dp8473
g16
VCD
p8474
sbatp8475
Rp8476
(dp8477
g16
VNP
p8478
sbatp8479
Rp8480
(dp8481
g16
VPP
p8482
sbatp8483
Rp8484
(dp8485
g16
VVP
p8486
sbatp8487
Rp8488
(dp8489
g16
g160
sbatp8490
Rp8491
(dp8492
g16
VPP
p8493
sbag5
(g6
g7
(lp8494
g166
atp8495
Rp8496
(dp8497
g16
g166
sbag5
(g6
g7
(lp8498
g5
(g6
g7
(lp8499
Vwe
p8500
atp8501
Rp8502
(dp8503
g16
VPRP
p8504
sbatp8505
Rp8506
(dp8507
g16
VNP
p8508
sbag5
(g6
g7
(lp8509
g5
(g6
g7
(lp8510
Vcan
p8511
atp8512
Rp8513
(dp8514
g16
VMD
p8515
sbag5
(g6
g7
(lp8516
g5
(g6
g7
(lp8517
Vfollow
p8518
atp8519
Rp8520
(dp8521
g16
VVB
p8522
sbag5
(g6
g7
(lp8523
g5
(g6
g7
(lp8524
g5
(g6
g7
(lp8525
Vthe
p8526
atp8527
Rp8528
(dp8529
g16
VDT
p8530
sbag5
(g6
g7
(lp8531
Vsemantic
p8532
atp8533
Rp8534
(dp8535
g16
VJJ
p8536
sbag5
(g6
g7
(lp8537
Vdevelopment
p8538
atp8539
Rp8540
(dp8541
g16
VNN
p8542
sbatp8543
Rp8544
(dp8545
g16
VNP
p8546
sbag5
(g6
g7
(lp8547
g5
(g6
g7
(lp8548
Vof
p8549
atp8550
Rp8551
(dp8552
g16
VIN
p8553
sbag5
(g6
g7
(lp8554
g5
(g6
g7
(lp8555
Vthe
p8556
atp8557
Rp8558
(dp8559
g16
VDT
p8560
sbag5
(g6
g7
(lp8561
Vhell
p8562
atp8563
Rp8564
(dp8565
g16
VNN
p8566
sbag5
(g6
g7
(lp8567
g5192
atp8568
Rp8569
(dp8570
g16
g4226
sbag5
(g6
g7
(lp8571
Vconstruction
p8572
atp8573
Rp8574
(dp8575
g16
VNN
p8576
sbatp8577
Rp8578
(dp8579
g16
VNP
p8580
sbatp8581
Rp8582
(dp8583
g16
VPP
p8584
sbatp8585
Rp8586
(dp8587
g16
VNP
p8588
sbatp8589
Rp8590
(dp8591
g16
VVP
p8592
sbatp8593
Rp8594
(dp8595
g16
VVP
p8596
sbatp8597
Rp8598
(dp8599
g16
g160
sbatp8600
Rp8601
(dp8602
g16
VROOT
p8603
sbasg693
(icmyPackage
CorE
p8604
(dp8605
g696
(lp8606
(I0
I1
tp8607
a(I0
I6
tp8608
asg700
g8488
sbsg701
(icmyPackage
CorE
p8609
(dp8610
g696
(lp8611
(I0
I7
tp8612
a(I0
I18
tp8613
asg700
g5
(g6
g7
(lp8614
g8496
ag8506
ag8594
atp8615
Rp8616
(dp8617
g16
g711
sbsbsg712
g713
sg735
(lp8618
(isxpPackage
sxpSent
p8619
(dp8620
g739
(lp8621
I18
asg741
VBy comparing the plots in Figure 2 , we can follow the semantic development of the hell -construction
p8622
sg743
I6
sg728
I73
sg744
I22
sbasba(icmyPackage
CELink
p8623
(dp8624
g3
(lp8625
g5
(g6
g7
(lp8626
g5
(g6
g7
(lp8627
g5
(g6
g7
(lp8628
g5
(g6
g7
(lp8629
g5
(g6
g7
(lp8630
VThese
p8631
atp8632
Rp8633
(dp8634
g16
VDT
p8635
sbag5
(g6
g7
(lp8636
Vtwo
p8637
atp8638
Rp8639
(dp8640
g16
VCD
p8641
sbag5
(g6
g7
(lp8642
Vclasses
p8643
atp8644
Rp8645
(dp8646
g16
VNNS
p8647
sbatp8648
Rp8649
(dp8650
g16
VNP
p8651
sbag5
(g6
g7
(lp8652
g5
(g6
g7
(lp8653
Valso
p8654
atp8655
Rp8656
(dp8657
g16
VRB
p8658
sbatp8659
Rp8660
(dp8661
g16
VADVP
p8662
sbag5
(g6
g7
(lp8663
g5
(g6
g7
(lp8664
Vcorrespond
p8665
atp8666
Rp8667
(dp8668
g16
VVB
p8669
sbag5
(g6
g7
(lp8670
g5
(g6
g7
(lp8671
Vto
p8672
atp8673
Rp8674
(dp8675
g16
VTO
p8676
sbag5
(g6
g7
(lp8677
g5
(g6
g7
(lp8678
g5
(g6
g7
(lp8679
Vthe
p8680
atp8681
Rp8682
(dp8683
g16
VDT
p8684
sbag5
(g6
g7
(lp8685
Vregions
p8686
atp8687
Rp8688
(dp8689
g16
VNNS
p8690
sbatp8691
Rp8692
(dp8693
g16
VNP
p8694
sbag5
(g6
g7
(lp8695
g5
(g6
g7
(lp8696
Vof
p8697
atp8698
Rp8699
(dp8700
g16
VIN
p8701
sbag5
(g6
g7
(lp8702
g5
(g6
g7
(lp8703
g5
(g6
g7
(lp8704
Vthe
p8705
atp8706
Rp8707
(dp8708
g16
VDT
p8709
sbag5
(g6
g7
(lp8710
Vsemantic
p8711
atp8712
Rp8713
(dp8714
g16
VJJ
p8715
sbag5
(g6
g7
(lp8716
Vdomain
p8717
atp8718
Rp8719
(dp8720
g16
VNN
p8721
sbatp8722
Rp8723
(dp8724
g16
VNP
p8725
sbag5
(g6
g7
(lp8726
g5
(g6
g7
(lp8727
g5
(g6
g7
(lp8728
Vthat
p8729
atp8730
Rp8731
(dp8732
g16
VWDT
p8733
sbatp8734
Rp8735
(dp8736
g16
VWHNP
p8737
sbag5
(g6
g7
(lp8738
g5
(g6
g7
(lp8739
g5
(g6
g7
(lp8740
Vattract
p8741
atp8742
Rp8743
(dp8744
g16
VVBP
p8745
sbag5
(g6
g7
(lp8746
g5
(g6
g7
(lp8747
Vthe
p8748
atp8749
Rp8750
(dp8751
g16
VDT
p8752
sbag5
(g6
g7
(lp8753
Vmost
p8754
atp8755
Rp8756
(dp8757
g16
VJJS
p8758
sbag5
(g6
g7
(lp8759
Vnew
p8760
atp8761
Rp8762
(dp8763
g16
VJJ
p8764
sbag5
(g6
g7
(lp8765
Vmembers
p8766
atp8767
Rp8768
(dp8769
g16
VNNS
p8770
sbatp8771
Rp8772
(dp8773
g16
VNP
p8774
sbatp8775
Rp8776
(dp8777
g16
VVP
p8778
sbatp8779
Rp8780
(dp8781
g16
g160
sbatp8782
Rp8783
(dp8784
g16
VSBAR
p8785
sbatp8786
Rp8787
(dp8788
g16
VNP
p8789
sbatp8790
Rp8791
(dp8792
g16
VPP
p8793
sbatp8794
Rp8795
(dp8796
g16
VNP
p8797
sbatp8798
Rp8799
(dp8800
g16
VPP
p8801
sbatp8802
Rp8803
(dp8804
g16
VVP
p8805
sbatp8806
Rp8807
(dp8808
g16
g160
sbag5
(g6
g7
(lp8809
g166
atp8810
Rp8811
(dp8812
g16
g166
sbag5
(g6
g7
(lp8813
Vand
p8814
atp8815
Rp8816
(dp8817
g16
VCC
p8818
sbag5
(g6
g7
(lp8819
g5
(g6
g7
(lp8820
g5
(g6
g7
(lp8821
Vthey
p8822
atp8823
Rp8824
(dp8825
g16
VPRP
p8826
sbatp8827
Rp8828
(dp8829
g16
VNP
p8830
sbag5
(g6
g7
(lp8831
g5
(g6
g7
(lp8832
Vconstantly
p8833
atp8834
Rp8835
(dp8836
g16
VRB
p8837
sbatp8838
Rp8839
(dp8840
g16
VADVP
p8841
sbag5
(g6
g7
(lp8842
g5
(g6
g7
(lp8843
Vdo
p8844
atp8845
Rp8846
(dp8847
g16
VVBP
p8848
sbag5
(g6
g7
(lp8849
g5
(g6
g7
(lp8850
Vso
p8851
atp8852
Rp8853
(dp8854
g16
VRB
p8855
sbatp8856
Rp8857
(dp8858
g16
VADVP
p8859
sbag5
(g6
g7
(lp8860
g5
(g6
g7
(lp8861
Vin
p8862
atp8863
Rp8864
(dp8865
g16
VIN
p8866
sbag5
(g6
g7
(lp8867
g5
(g6
g7
(lp8868
Vall
p8869
atp8870
Rp8871
(dp8872
g16
VDT
p8873
sbag5
(g6
g7
(lp8874
Vperiods
p8875
atp8876
Rp8877
(dp8878
g16
VNNS
p8879
sbatp8880
Rp8881
(dp8882
g16
VNP
p8883
sbatp8884
Rp8885
(dp8886
g16
VPP
p8887
sbatp8888
Rp8889
(dp8890
g16
VVP
p8891
sbatp8892
Rp8893
(dp8894
g16
g160
sbatp8895
Rp8896
(dp8897
g16
g160
sbatp8898
Rp8899
(dp8900
g16
VROOT
p8901
sbag5
(g6
g7
(lp8902
g5
(g6
g7
(lp8903
g5
(g6
g7
(lp8904
g5
(g6
g7
(lp8905
VOutside
p8906
atp8907
Rp8908
(dp8909
g16
VIN
p8910
sbag5
(g6
g7
(lp8911
g5
(g6
g7
(lp8912
Vof
p8913
atp8914
Rp8915
(dp8916
g16
VIN
p8917
sbag5
(g6
g7
(lp8918
g5
(g6
g7
(lp8919
Vthese
p8920
atp8921
Rp8922
(dp8923
g16
VDT
p8924
sbag5
(g6
g7
(lp8925
Vtwo
p8926
atp8927
Rp8928
(dp8929
g16
VCD
p8930
sbag5
(g6
g7
(lp8931
Vclusters
p8932
atp8933
Rp8934
(dp8935
g16
VNNS
p8936
sbatp8937
Rp8938
(dp8939
g16
VNP
p8940
sbatp8941
Rp8942
(dp8943
g16
VPP
p8944
sbatp8945
Rp8946
(dp8947
g16
VPP
p8948
sbag5
(g6
g7
(lp8949
g166
atp8950
Rp8951
(dp8952
g16
g166
sbag5
(g6
g7
(lp8953
g5
(g6
g7
(lp8954
Vthe
p8955
atp8956
Rp8957
(dp8958
g16
VDT
p8959
sbag5
(g6
g7
(lp8960
Vsemantic
p8961
atp8962
Rp8963
(dp8964
g16
VJJ
p8965
sbag5
(g6
g7
(lp8966
Vspace
p8967
atp8968
Rp8969
(dp8970
g16
VNN
p8971
sbatp8972
Rp8973
(dp8974
g16
VNP
p8975
sbag5
(g6
g7
(lp8976
g5
(g6
g7
(lp8977
Vis
p8978
atp8979
Rp8980
(dp8981
g16
VVBZ
p8982
sbag5
(g6
g7
(lp8983
g5
(g6
g7
(lp8984
g5
(g6
g7
(lp8985
Vmuch
p8986
atp8987
Rp8988
(dp8989
g16
VRB
p8990
sbag5
(g6
g7
(lp8991
Vmore
p8992
atp8993
Rp8994
(dp8995
g16
VRBR
p8996
sbatp8997
Rp8998
(dp8999
g16
VADVP
p9000
sbag5
(g6
g7
(lp9001
Vsparsely
p9002
atp9003
Rp9004
(dp9005
g16
VRB
p9006
sbag5
(g6
g7
(lp9007
Vpopulated
p9008
atp9009
Rp9010
(dp9011
g16
VJJ
p9012
sbatp9013
Rp9014
(dp9015
g16
VADJP
p9016
sbatp9017
Rp9018
(dp9019
g16
VVP
p9020
sbatp9021
Rp9022
(dp9023
g16
g160
sbatp9024
Rp9025
(dp9026
g16
VROOT
p9027
sbasg693
(icmyPackage
CorE
p9028
(dp9029
g696
(lp9030
(I0
I0
tp9031
a(I0
I22
tp9032
asg700
g5
(g6
g7
(lp9033
g8807
ag8811
ag8816
ag8828
ag8839
ag8846
atp9034
Rp9035
(dp9036
g16
g711
sbsbsg701
(icmyPackage
CorE
p9037
(dp9038
g696
(lp9039
(I0
I24
tp9040
a(I1
I12
tp9041
asg700
g5
(g6
g7
(lp9042
g8885
ag8946
ag8951
ag8973
ag8980
ag8998
ag9004
atp9043
Rp9044
(dp9045
g16
g711
sbsbsg712
(icmyPackage
pattern
p9046
(dp9047
g715
I265
sg716
I1
sg717
(lp9048
(lp9049
S'so'
p9050
aasg723
(lp9051
I1
aI1
aI1
asg725
(lp9052
S'It was not long before he saw me looking at him, and so he began to move.'
p9053
asg728
I0
sg729
(lp9054
(lp9055
S'&C'
p9056
aS'(,/;/./--)'
p9057
aS'(&AND)'
p9058
aa(lp9059
S'(-far)'
p9060
aS'(,)'
p9061
aS'&R'
p9062
aasbsg735
(lp9063
(isxpPackage
sxpSent
p9064
(dp9065
g739
(lp9066
I19
asg741
VThese two classes also correspond to the regions of the semantic domain that attract the most new members, and they constantly do so in all periods
p9067
sg743
I6
sg728
I76
sg744
I22
sba(isxpPackage
sxpSent
p9068
(dp9069
g739
(lp9070
I19
asg741
VOutside of these two clusters, the semantic space is much more sparsely populated
p9071
sg743
I6
sg728
I77
sg744
I22
sbasba(icmyPackage
CELink
p9072
(dp9073
g3
(lp9074
g5
(g6
g7
(lp9075
g5
(g6
g7
(lp9076
g5
(g6
g7
(lp9077
g5
(g6
g7
(lp9078
VOutside
p9079
atp9080
Rp9081
(dp9082
g16
VIN
p9083
sbag5
(g6
g7
(lp9084
Vof
p9085
atp9086
Rp9087
(dp9088
g16
VIN
p9089
sbag5
(g6
g7
(lp9090
g5
(g6
g7
(lp9091
g5
(g6
g7
(lp9092
Vthe
p9093
atp9094
Rp9095
(dp9096
g16
VDT
p9097
sbag5
(g6
g7
(lp9098
Vtwo
p9099
atp9100
Rp9101
(dp9102
g16
VCD
p9103
sbag5
(g6
g7
(lp9104
Videntified
p9105
atp9106
Rp9107
(dp9108
g16
VVBN
p9109
sbag5
(g6
g7
(lp9110
Vdomains
p9111
atp9112
Rp9113
(dp9114
g16
VNNS
p9115
sbatp9116
Rp9117
(dp9118
g16
VNP
p9119
sbag5
(g6
g7
(lp9120
g5
(g6
g7
(lp9121
Vof
p9122
atp9123
Rp9124
(dp9125
g16
VIN
p9126
sbag5
(g6
g7
(lp9127
g5
(g6
g7
(lp9128
Vpredilection
p9129
atp9130
Rp9131
(dp9132
g16
VNN
p9133
sbatp9134
Rp9135
(dp9136
g16
VNP
p9137
sbatp9138
Rp9139
(dp9140
g16
VPP
p9141
sbatp9142
Rp9143
(dp9144
g16
VNP
p9145
sbatp9146
Rp9147
(dp9148
g16
VPP
p9149
sbag5
(g6
g7
(lp9150
g166
atp9151
Rp9152
(dp9153
g16
g166
sbag5
(g6
g7
(lp9154
g5
(g6
g7
(lp9155
Vother
p9156
atp9157
Rp9158
(dp9159
g16
VJJ
p9160
sbag5
(g6
g7
(lp9161
Vclasses
p9162
atp9163
Rp9164
(dp9165
g16
VNNS
p9166
sbatp9167
Rp9168
(dp9169
g16
VNP
p9170
sbag5
(g6
g7
(lp9171
g5
(g6
g7
(lp9172
Vnever
p9173
atp9174
Rp9175
(dp9176
g16
VRB
p9177
sbatp9178
Rp9179
(dp9180
g16
VADVP
p9181
sbag5
(g6
g7
(lp9182
g5
(g6
g7
(lp9183
Vbecome
p9184
atp9185
Rp9186
(dp9187
g16
VVBP
p9188
sbag5
(g6
g7
(lp9189
g5
(g6
g7
(lp9190
Vimportant
p9191
atp9192
Rp9193
(dp9194
g16
VJJ
p9195
sbatp9196
Rp9197
(dp9198
g16
VADJP
p9199
sbag5
(g6
g7
(lp9200
g166
atp9201
Rp9202
(dp9203
g16
g166
sbag5
(g6
g7
(lp9204
g5
(g6
g7
(lp9205
g5
(g6
g7
(lp9206
Vassumedly
p9207
atp9208
Rp9209
(dp9210
g16
VRB
p9211
sbatp9212
Rp9213
(dp9214
g16
VADVP
p9215
sbag5
(g6
g7
(lp9216
Vbecause
p9217
atp9218
Rp9219
(dp9220
g16
VIN
p9221
sbag5
(g6
g7
(lp9222
g5
(g6
g7
(lp9223
g5
(g6
g7
(lp9224
Vthey
p9225
atp9226
Rp9227
(dp9228
g16
VPRP
p9229
sbatp9230
Rp9231
(dp9232
g16
VNP
p9233
sbag5
(g6
g7
(lp9234
g5
(g6
g7
(lp9235
Vdo
p9236
atp9237
Rp9238
(dp9239
g16
VVBP
p9240
sbag5
(g6
g7
(lp9241
Vnot
p9242
atp9243
Rp9244
(dp9245
g16
VRB
p9246
sbag5
(g6
g7
(lp9247
g5
(g6
g7
(lp9248
g5
(g6
g7
(lp9249
Vreceive
p9250
atp9251
Rp9252
(dp9253
g16
VVB
p9254
sbag5
(g6
g7
(lp9255
g5
(g6
g7
(lp9256
g5
(g6
g7
(lp9257
g288
atp9258
Rp9259
(dp9260
g16
VDT
p9261
sbag5
(g6
g7
(lp9262
g1585
atp9263
Rp9264
(dp9265
g16
VNN
p9266
sbag5
(g6
g7
(lp9267
g1591
atp9268
Rp9269
(dp9270
g16
VPOS
p9271
sbatp9272
Rp9273
(dp9274
g16
VNP
p9275
sbag5
(g6
g7
(lp9276
V\u005c
p9277
atp9278
Rp9279
(dp9280
g16
VJJ
p9281
sbag5
(g6
g7
(lp9282
Vu201c
p9283
atp9284
Rp9285
(dp9286
g16
VNNS
p9287
sbatp9288
Rp9289
(dp9290
g16
VNP
p9291
sbag5
(g6
g7
(lp9292
g1591
atp9293
Rp9294
(dp9295
g16
V''
p9296
sbag5
(g6
g7
(lp9297
g5
(g6
g7
(lp9298
g5
(g6
g7
(lp9299
g5
(g6
g7
(lp9300
Vcritical
p9301
atp9302
Rp9303
(dp9304
g16
VJJ
p9305
sbag5
(g6
g7
(lp9306
Vmass
p9307
atp9308
Rp9309
(dp9310
g16
VJJ
p9311
sbag5
(g6
g7
(lp9312
g1585
atp9313
Rp9314
(dp9315
g16
VNN
p9316
sbag5
(g6
g7
(lp9317
g1591
atp9318
Rp9319
(dp9320
g16
VPOS
p9321
sbatp9322
Rp9323
(dp9324
g16
VNP
p9325
sbag5
(g6
g7
(lp9326
V\u005c
p9327
atp9328
Rp9329
(dp9330
g16
VNN
p9331
sbag5
(g6
g7
(lp9332
Vu201d
p9333
atp9334
Rp9335
(dp9336
g16
VNN
p9337
sbag5
(g6
g7
(lp9338
g1591
atp9339
Rp9340
(dp9341
g16
V''
p9342
sbatp9343
Rp9344
(dp9345
g16
VNP
p9346
sbag5
(g6
g7
(lp9347
g5
(g6
g7
(lp9348
Vof
p9349
atp9350
Rp9351
(dp9352
g16
VIN
p9353
sbag5
(g6
g7
(lp9354
g5
(g6
g7
(lp9355
Vitems
p9356
atp9357
Rp9358
(dp9359
g16
VNNS
p9360
sbatp9361
Rp9362
(dp9363
g16
VNP
p9364
sbatp9365
Rp9366
(dp9367
g16
VPP
p9368
sbatp9369
Rp9370
(dp9371
g16
VNP
p9372
sbatp9373
Rp9374
(dp9375
g16
VVP
p9376
sbag5
(g6
g7
(lp9377
g166
atp9378
Rp9379
(dp9380
g16
g166
sbag5
(g6
g7
(lp9381
Vand
p9382
atp9383
Rp9384
(dp9385
g16
VCC
p9386
sbag5
(g6
g7
(lp9387
g5
(g6
g7
(lp9388
Vtherefore
p9389
atp9390
Rp9391
(dp9392
g16
VRB
p9393
sbatp9394
Rp9395
(dp9396
g16
VADVP
p9397
sbag5
(g6
g7
(lp9398
g5
(g6
g7
(lp9399
Vattract
p9400
atp9401
Rp9402
(dp9403
g16
VVB
p9404
sbag5
(g6
g7
(lp9405
g5
(g6
g7
(lp9406
Vnew
p9407
atp9408
Rp9409
(dp9410
g16
VJJ
p9411
sbag5
(g6
g7
(lp9412
Vmembers
p9413
atp9414
Rp9415
(dp9416
g16
VNNS
p9417
sbatp9418
Rp9419
(dp9420
g16
VNP
p9421
sbag5
(g6
g7
(lp9422
g5
(g6
g7
(lp9423
Vmore
p9424
atp9425
Rp9426
(dp9427
g16
VRBR
p9428
sbag5
(g6
g7
(lp9429
Vslowly
p9430
atp9431
Rp9432
(dp9433
g16
VRB
p9434
sbatp9435
Rp9436
(dp9437
g16
VADVP
p9438
sbatp9439
Rp9440
(dp9441
g16
VVP
p9442
sbatp9443
Rp9444
(dp9445
g16
VVP
p9446
sbatp9447
Rp9448
(dp9449
g16
VVP
p9450
sbatp9451
Rp9452
(dp9453
g16
g160
sbatp9454
Rp9455
(dp9456
g16
VSBAR
p9457
sbatp9458
Rp9459
(dp9460
g16
VVP
p9461
sbatp9462
Rp9463
(dp9464
g16
g160
sbatp9465
Rp9466
(dp9467
g16
VROOT
p9468
sbasg693
(icmyPackage
CorE
p9469
(dp9470
g696
(lp9471
(I0
I0
tp9472
a(I0
I35
tp9473
asg700
g5
(g6
g7
(lp9474
g9147
ag9152
ag9168
ag9179
ag9186
ag9197
ag9202
ag9213
ag9219
ag9231
ag9238
ag9244
ag9374
atp9475
Rp9476
(dp9477
g16
g711
sbsbsg701
(icmyPackage
CorE
p9478
(dp9479
g696
(lp9480
(I0
I39
tp9481
a(I0
I43
tp9482
asg700
g9440
sbsg712
(icmyPackage
pattern
p9483
(dp9484
g715
I62
sg716
I1
sg717
(lp9485
(lp9486
S'therefore'
p9487
aasg723
(lp9488
I1
aI1
aI1
asg725
(lp9489
S'He never lies; therefore, everyone likes to make friends with him.'
p9490
asg728
I1
sg729
(lp9491
(lp9492
S'&C'
p9493
aS'(,/;/./--)'
p9494
aS'(&AND)'
p9495
aa(lp9496
S'(,)'
p9497
aS'&R'
p9498
aasbsg735
(lp9499
(isxpPackage
sxpSent
p9500
(dp9501
g739
(lp9502
I20
aI21
asg741
VOutside of the two identified domains of predilection, other classes never become important, assumedly because they do not receive a u'\u005cu201c' critical mass u'\u005cu201d' of items, and therefore attract new members more slowly
p9503
sg743
I6
sg728
I82
sg744
I23
sbasba(icmyPackage
CELink
p9504
(dp9505
g3
(lp9506
g9476
asg693
(icmyPackage
CorE
p9507
(dp9508
g696
(lp9509
(I0
I17
tp9510
a(I0
I35
tp9511
asg700
g5
(g6
g7
(lp9512
g9231
ag9238
ag9244
ag9374
atp9513
Rp9514
(dp9515
g16
g711
sbsbsg701
(icmyPackage
CorE
p9516
(dp9517
g696
(lp9518
(I0
I0
tp9519
a(I0
I15
tp9520
asg700
g5
(g6
g7
(lp9521
g9147
ag9152
ag9168
ag9179
ag9186
ag9197
ag9202
ag9213
atp9522
Rp9523
(dp9524
g16
g711
sbsbsg712
(icmyPackage
pattern
p9525
(dp9526
g715
I407
sg716
I1
sg717
(lp9527
(lp9528
S'because'
p9529
aasg723
(lp9530
I3
aI1
aI1
asg725
(lp9531
S'It ends up in burnout and less production, because we inevitably run out of energy.'
p9532
asg728
I76
sg729
(lp9533
(lp9534
S'&R'
p9535
aS'(,)'
p9536
aS'(&ADV)'
p9537
aa(lp9538
S'&C'
p9539
aasbsg735
(lp9540
g9500
asba(icmyPackage
CELink
p9541
(dp9542
g3
(lp9543
g5
(g6
g7
(lp9544
g5
(g6
g7
(lp9545
g5
(g6
g7
(lp9546
g5
(g6
g7
(lp9547
VOn
p9548
atp9549
Rp9550
(dp9551
g16
VIN
p9552
sbag5
(g6
g7
(lp9553
g5
(g6
g7
(lp9554
Vthe
p9555
atp9556
Rp9557
(dp9558
g16
VDT
p9559
sbag5
(g6
g7
(lp9560
Vreasonable
p9561
atp9562
Rp9563
(dp9564
g16
VJJ
p9565
sbag5
(g6
g7
(lp9566
Vassumption
p9567
atp9568
Rp9569
(dp9570
g16
VNN
p9571
sbatp9572
Rp9573
(dp9574
g16
VNP
p9575
sbatp9576
Rp9577
(dp9578
g16
VPP
p9579
sbag5
(g6
g7
(lp9580
g5
(g6
g7
(lp9581
g5
(g6
g7
(lp9582
Vthat
p9583
atp9584
Rp9585
(dp9586
g16
VIN
p9587
sbag5
(g6
g7
(lp9588
g5
(g6
g7
(lp9589
g5
(g6
g7
(lp9590
g5
(g6
g7
(lp9591
Vthe
p9592
atp9593
Rp9594
(dp9595
g16
VDT
p9596
sbag5
(g6
g7
(lp9597
Vsemantic
p9598
atp9599
Rp9600
(dp9601
g16
VJJ
p9602
sbag5
(g6
g7
(lp9603
Vcontribution
p9604
atp9605
Rp9606
(dp9607
g16
VNN
p9608
sbatp9609
Rp9610
(dp9611
g16
VNP
p9612
sbag5
(g6
g7
(lp9613
g5
(g6
g7
(lp9614
Vof
p9615
atp9616
Rp9617
(dp9618
g16
VIN
p9619
sbag5
(g6
g7
(lp9620
g5
(g6
g7
(lp9621
Vthe
p9622
atp9623
Rp9624
(dp9625
g16
VDT
p9626
sbag5
(g6
g7
(lp9627
Vconstruction
p9628
atp9629
Rp9630
(dp9631
g16
VNN
p9632
sbatp9633
Rp9634
(dp9635
g16
VNP
p9636
sbatp9637
Rp9638
(dp9639
g16
VPP
p9640
sbatp9641
Rp9642
(dp9643
g16
VNP
p9644
sbag5
(g6
g7
(lp9645
g5
(g6
g7
(lp9646
Vdid
p9647
atp9648
Rp9649
(dp9650
g16
VVBD
p9651
sbag5
(g6
g7
(lp9652
Vnot
p9653
atp9654
Rp9655
(dp9656
g16
VRB
p9657
sbag5
(g6
g7
(lp9658
g5
(g6
g7
(lp9659
Vchange
p9660
atp9661
Rp9662
(dp9663
g16
VVB
p9664
sbatp9665
Rp9666
(dp9667
g16
VVP
p9668
sbatp9669
Rp9670
(dp9671
g16
VVP
p9672
sbatp9673
Rp9674
(dp9675
g16
g160
sbatp9676
Rp9677
(dp9678
g16
VSBAR
p9679
sbag5
(g6
g7
(lp9680
g166
atp9681
Rp9682
(dp9683
g16
g166
sbag5
(g6
g7
(lp9684
Vand
p9685
atp9686
Rp9687
(dp9688
g16
VCC
p9689
sbag5
(g6
g7
(lp9690
g5
(g6
g7
(lp9691
g5
(g6
g7
(lp9692
Vtherefore
p9693
atp9694
Rp9695
(dp9696
g16
VRB
p9697
sbatp9698
Rp9699
(dp9700
g16
VADVP
p9701
sbag5
(g6
g7
(lp9702
Vthat
p9703
atp9704
Rp9705
(dp9706
g16
VIN
p9707
sbag5
(g6
g7
(lp9708
g5
(g6
g7
(lp9709
g5
(g6
g7
(lp9710
Vall
p9711
atp9712
Rp9713
(dp9714
g16
VDT
p9715
sbag5
(g6
g7
(lp9716
Vverbs
p9717
atp9718
Rp9719
(dp9720
g16
VNNS
p9721
sbatp9722
Rp9723
(dp9724
g16
VNP
p9725
sbag5
(g6
g7
(lp9726
g5
(g6
g7
(lp9727
Vever
p9728
atp9729
Rp9730
(dp9731
g16
VRB
p9732
sbatp9733
Rp9734
(dp9735
g16
VADVP
p9736
sbag5
(g6
g7
(lp9737
g5
(g6
g7
(lp9738
Vattested
p9739
atp9740
Rp9741
(dp9742
g16
VVBD
p9743
sbag5
(g6
g7
(lp9744
g5
(g6
g7
(lp9745
Vin
p9746
atp9747
Rp9748
(dp9749
g16
VIN
p9750
sbag5
(g6
g7
(lp9751
g5
(g6
g7
(lp9752
g5
(g6
g7
(lp9753
Vit
p9754
atp9755
Rp9756
(dp9757
g16
VPRP
p9758
sbatp9759
Rp9760
(dp9761
g16
VNP
p9762
sbag5
(g6
g7
(lp9763
g5
(g6
g7
(lp9764
Vare
p9765
atp9766
Rp9767
(dp9768
g16
VVBP
p9769
sbag5
(g6
g7
(lp9770
g5
(g6
g7
(lp9771
Vequally
p9772
atp9773
Rp9774
(dp9775
g16
VRB
p9776
sbag5
(g6
g7
(lp9777
Vplausible
p9778
atp9779
Rp9780
(dp9781
g16
VJJ
p9782
sbag5
(g6
g7
(lp9783
g5
(g6
g7
(lp9784
Vfrom
p9785
atp9786
Rp9787
(dp9788
g16
VIN
p9789
sbag5
(g6
g7
(lp9790
g5
(g6
g7
(lp9791
g5
(g6
g7
(lp9792
g288
atp9793
Rp9794
(dp9795
g16
VDT
p9796
sbag5
(g6
g7
(lp9797
Vsemantic
p9798
atp9799
Rp9800
(dp9801
g16
VJJ
p9802
sbag5
(g6
g7
(lp9803
Vpoint
p9804
atp9805
Rp9806
(dp9807
g16
VNN
p9808
sbatp9809
Rp9810
(dp9811
g16
VNP
p9812
sbag5
(g6
g7
(lp9813
g5
(g6
g7
(lp9814
Vof
p9815
atp9816
Rp9817
(dp9818
g16
VIN
p9819
sbag5
(g6
g7
(lp9820
g5
(g6
g7
(lp9821
Vview
p9822
atp9823
Rp9824
(dp9825
g16
VNN
p9826
sbatp9827
Rp9828
(dp9829
g16
VNP
p9830
sbatp9831
Rp9832
(dp9833
g16
VPP
p9834
sbatp9835
Rp9836
(dp9837
g16
VNP
p9838
sbatp9839
Rp9840
(dp9841
g16
VPP
p9842
sbatp9843
Rp9844
(dp9845
g16
VADJP
p9846
sbatp9847
Rp9848
(dp9849
g16
VVP
p9850
sbatp9851
Rp9852
(dp9853
g16
g160
sbatp9854
Rp9855
(dp9856
g16
VSBAR
p9857
sbatp9858
Rp9859
(dp9860
g16
VVP
p9861
sbatp9862
Rp9863
(dp9864
g16
g160
sbatp9865
Rp9866
(dp9867
g16
VSBAR
p9868
sbatp9869
Rp9870
(dp9871
g16
VSBAR
p9872
sbag5
(g6
g7
(lp9873
g166
atp9874
Rp9875
(dp9876
g16
g166
sbag5
(g6
g7
(lp9877
g5
(g6
g7
(lp9878
g5
(g6
g7
(lp9879
Vthe
p9880
atp9881
Rp9882
(dp9883
g16
VDT
p9884
sbag5
(g6
g7
(lp9885
Vfact
p9886
atp9887
Rp9888
(dp9889
g16
VNN
p9890
sbatp9891
Rp9892
(dp9893
g16
VNP
p9894
sbag5
(g6
g7
(lp9895
g5
(g6
g7
(lp9896
Vthat
p9897
atp9898
Rp9899
(dp9900
g16
VIN
p9901
sbag5
(g6
g7
(lp9902
g5
(g6
g7
(lp9903
g5
(g6
g7
(lp9904
Vsome
p9905
atp9906
Rp9907
(dp9908
g16
VDT
p9909
sbag5
(g6
g7
(lp9910
Vverbs
p9911
atp9912
Rp9913
(dp9914
g16
VNNS
p9915
sbatp9916
Rp9917
(dp9918
g16
VNP
p9919
sbag5
(g6
g7
(lp9920
g5
(g6
g7
(lp9921
Vjoined
p9922
atp9923
Rp9924
(dp9925
g16
VVBD
p9926
sbag5
(g6
g7
(lp9927
g5
(g6
g7
(lp9928
g5
(g6
g7
(lp9929
Vthe
p9930
atp9931
Rp9932
(dp9933
g16
VDT
p9934
sbag5
(g6
g7
(lp9935
Vdistribution
p9936
atp9937
Rp9938
(dp9939
g16
VNN
p9940
sbatp9941
Rp9942
(dp9943
g16
VNP
p9944
sbag5
(g6
g7
(lp9945
Vlater
p9946
atp9947
Rp9948
(dp9949
g16
VRB
p9950
sbatp9951
Rp9952
(dp9953
g16
VADVP
p9954
sbag5
(g6
g7
(lp9955
g5
(g6
g7
(lp9956
Vthan
p9957
atp9958
Rp9959
(dp9960
g16
VIN
p9961
sbag5
(g6
g7
(lp9962
g5
(g6
g7
(lp9963
g5
(g6
g7
(lp9964
Vothers
p9965
atp9966
Rp9967
(dp9968
g16
VNNS
p9969
sbatp9970
Rp9971
(dp9972
g16
VNP
p9973
sbag5
(g6
g7
(lp9974
g5
(g6
g7
(lp9975
Vis
p9976
atp9977
Rp9978
(dp9979
g16
VVBZ
p9980
sbag5
(g6
g7
(lp9981
g5
(g6
g7
(lp9982
Vin
p9983
atp9984
Rp9985
(dp9986
g16
VIN
p9987
sbatp9988
Rp9989
(dp9990
g16
VPP
p9991
sbatp9992
Rp9993
(dp9994
g16
VVP
p9995
sbatp9996
Rp9997
(dp9998
g16
g160
sbatp9999
Rp10000
(dp10001
g16
VSBAR
p10002
sbatp10003
Rp10004
(dp10005
g16
VVP
p10006
sbatp10007
Rp10008
(dp10009
g16
g160
sbatp10010
Rp10011
(dp10012
g16
VSBAR
p10013
sbatp10014
Rp10015
(dp10016
g16
VNP
p10017
sbag5
(g6
g7
(lp10018
g5
(g6
g7
(lp10019
Vwant
p10020
atp10021
Rp10022
(dp10023
g16
VVBP
p10024
sbag5
(g6
g7
(lp10025
g5
(g6
g7
(lp10026
Vof
p10027
atp10028
Rp10029
(dp10030
g16
VIN
p10031
sbag5
(g6
g7
(lp10032
g5
(g6
g7
(lp10033
Van
p10034
atp10035
Rp10036
(dp10037
g16
VDT
p10038
sbag5
(g6
g7
(lp10039
Vexplanation
p10040
atp10041
Rp10042
(dp10043
g16
VNN
p10044
sbatp10045
Rp10046
(dp10047
g16
VNP
p10048
sbatp10049
Rp10050
(dp10051
g16
VPP
p10052
sbatp10053
Rp10054
(dp10055
g16
VVP
p10056
sbatp10057
Rp10058
(dp10059
g16
g160
sbatp10060
Rp10061
(dp10062
g16
VROOT
p10063
sbasg693
(icmyPackage
CorE
p10064
(dp10065
g696
(lp10066
(I0
I4
tp10067
a(I0
I13
tp10068
asg700
g9677
sbsg701
(icmyPackage
CorE
p10069
(dp10070
g696
(lp10071
(I0
I17
tp10072
a(I0
I50
tp10073
asg700
g5
(g6
g7
(lp10074
g9705
ag9863
ag9875
ag10015
ag10054
atp10075
Rp10076
(dp10077
g16
g711
sbsbsg712
g9483
sg735
(lp10078
(isxpPackage
sxpSent
p10079
(dp10080
g739
(lp10081
I22
asg741
VOn the reasonable assumption that the semantic contribution of the construction did not change, and therefore that all verbs ever attested in it are equally plausible from a semantic point of view, the fact that some verbs joined the distribution later than others is in want of an explanation
p10082
sg743
I7
sg728
I84
sg744
I24
sbasba(icmyPackage
CELink
p10083
(dp10084
g3
(lp10085
g5
(g6
g7
(lp10086
g5
(g6
g7
(lp10087
g5
(g6
g7
(lp10088
g5
(g6
g7
(lp10089
VIf
p10090
atp10091
Rp10092
(dp10093
g16
VIN
p10094
sbag5
(g6
g7
(lp10095
g5
(g6
g7
(lp10096
g5
(g6
g7
(lp10097
g5
(g6
g7
(lp10098
Vthe
p10099
atp10100
Rp10101
(dp10102
g16
VDT
p10103
sbag5
(g6
g7
(lp10104
Vsemantic
p10105
atp10106
Rp10107
(dp10108
g16
VJJ
p10109
sbag5
(g6
g7
(lp10110
Vspace
p10111
atp10112
Rp10113
(dp10114
g16
VNN
p10115
sbatp10116
Rp10117
(dp10118
g16
VNP
p10119
sbag5
(g6
g7
(lp10120
g5
(g6
g7
(lp10121
Varound
p10122
atp10123
Rp10124
(dp10125
g16
VIN
p10126
sbag5
(g6
g7
(lp10127
g5
(g6
g7
(lp10128
Vthe
p10129
atp10130
Rp10131
(dp10132
g16
VDT
p10133
sbag5
(g6
g7
(lp10134
Vnovel
p10135
atp10136
Rp10137
(dp10138
g16
VNN
p10139
sbag5
(g6
g7
(lp10140
Vitem
p10141
atp10142
Rp10143
(dp10144
g16
VNN
p10145
sbatp10146
Rp10147
(dp10148
g16
VNP
p10149
sbatp10150
Rp10151
(dp10152
g16
VPP
p10153
sbatp10154
Rp10155
(dp10156
g16
VNP
p10157
sbag5
(g6
g7
(lp10158
g5
(g6
g7
(lp10159
Vis
p10160
atp10161
Rp10162
(dp10163
g16
VVBZ
p10164
sbag5
(g6
g7
(lp10165
g5
(g6
g7
(lp10166
g5
(g6
g7
(lp10167
Vdense
p10168
atp10169
Rp10170
(dp10171
g16
VJJ
p10172
sbatp10173
Rp10174
(dp10175
g16
VNP
p10176
sbag5
(g6
g7
(lp10177
g166
atp10178
Rp10179
(dp10180
g16
g166
sbag5
(g6
g7
(lp10181
g5
(g6
g7
(lp10182
Vi.e.
p10183
atp10184
Rp10185
(dp10186
g16
VNNP
p10187
sbatp10188
Rp10189
(dp10190
g16
VNP
p10191
sbag5
(g6
g7
(lp10192
g166
atp10193
Rp10194
(dp10195
g16
g166
sbatp10196
Rp10197
(dp10198
g16
VNP
p10199
sbag5
(g6
g7
(lp10200
g166
atp10201
Rp10202
(dp10203
g16
g166
sbag5
(g6
g7
(lp10204
g5
(g6
g7
(lp10205
Vif
p10206
atp10207
Rp10208
(dp10209
g16
VIN
p10210
sbag5
(g6
g7
(lp10211
g5
(g6
g7
(lp10212
g5
(g6
g7
(lp10213
Vthere
p10214
atp10215
Rp10216
(dp10217
g16
VEX
p10218
sbatp10219
Rp10220
(dp10221
g16
VNP
p10222
sbag5
(g6
g7
(lp10223
g5
(g6
g7
(lp10224
Vis
p10225
atp10226
Rp10227
(dp10228
g16
VVBZ
p10229
sbag5
(g6
g7
(lp10230
g5
(g6
g7
(lp10231
g5
(g6
g7
(lp10232
g288
atp10233
Rp10234
(dp10235
g16
VDT
p10236
sbag5
(g6
g7
(lp10237
Vhigh
p10238
atp10239
Rp10240
(dp10241
g16
VJJ
p10242
sbag5
(g6
g7
(lp10243
Vnumber
p10244
atp10245
Rp10246
(dp10247
g16
VNN
p10248
sbatp10249
Rp10250
(dp10251
g16
VNP
p10252
sbag5
(g6
g7
(lp10253
g5
(g6
g7
(lp10254
Vof
p10255
atp10256
Rp10257
(dp10258
g16
VIN
p10259
sbag5
(g6
g7
(lp10260
g5
(g6
g7
(lp10261
Vsimilar
p10262
atp10263
Rp10264
(dp10265
g16
VJJ
p10266
sbag5
(g6
g7
(lp10267
Vitems
p10268
atp10269
Rp10270
(dp10271
g16
VNNS
p10272
sbatp10273
Rp10274
(dp10275
g16
VNP
p10276
sbatp10277
Rp10278
(dp10279
g16
VPP
p10280
sbatp10281
Rp10282
(dp10283
g16
VNP
p10284
sbatp10285
Rp10286
(dp10287
g16
VVP
p10288
sbatp10289
Rp10290
(dp10291
g16
g160
sbatp10292
Rp10293
(dp10294
g16
VSBAR
p10295
sbatp10296
Rp10297
(dp10298
g16
VVP
p10299
sbatp10300
Rp10301
(dp10302
g16
g160
sbatp10303
Rp10304
(dp10305
g16
VSBAR
p10306
sbag5
(g6
g7
(lp10307
g166
atp10308
Rp10309
(dp10310
g16
g166
sbag5
(g6
g7
(lp10311
g5
(g6
g7
(lp10312
Vthe
p10313
atp10314
Rp10315
(dp10316
g16
VDT
p10317
sbag5
(g6
g7
(lp10318
Vcoinage
p10319
atp10320
Rp10321
(dp10322
g16
VNN
p10323
sbatp10324
Rp10325
(dp10326
g16
VNP
p10327
sbag5
(g6
g7
(lp10328
g5
(g6
g7
(lp10329
Vwill
p10330
atp10331
Rp10332
(dp10333
g16
VMD
p10334
sbag5
(g6
g7
(lp10335
g5
(g6
g7
(lp10336
Vbe
p10337
atp10338
Rp10339
(dp10340
g16
VVB
p10341
sbag5
(g6
g7
(lp10342
g5
(g6
g7
(lp10343
Vvery
p10344
atp10345
Rp10346
(dp10347
g16
VRB
p10348
sbag5
(g6
g7
(lp10349
Vlikely
p10350
atp10351
Rp10352
(dp10353
g16
VJJ
p10354
sbatp10355
Rp10356
(dp10357
g16
VADJP
p10358
sbatp10359
Rp10360
(dp10361
g16
VVP
p10362
sbatp10363
Rp10364
(dp10365
g16
VVP
p10366
sbatp10367
Rp10368
(dp10369
g16
g160
sbatp10370
Rp10371
(dp10372
g16
VROOT
p10373
sbasg693
(icmyPackage
CorE
p10374
(dp10375
g696
(lp10376
(I0
I15
tp10377
a(I0
I22
tp10378
asg700
g10290
sbsg701
(icmyPackage
CorE
p10379
(dp10380
g696
(lp10381
(I0
I24
tp10382
a(I0
I29
tp10383
asg700
g5
(g6
g7
(lp10384
g10325
ag10364
atp10385
Rp10386
(dp10387
g16
g711
sbsbsg712
(icmyPackage
pattern
p10388
(dp10389
g715
I0
sg716
I0
sg717
(lp10390
(lp10391
(lp10392
S'if'
p10393
aS'once'
p10394
aaa(lp10395
g3042
aasg723
(lp10396
I1
aI1
aI1
asg725
(lp10397
S'If some light and mobile detection devices can be invented in the future, many new applications can be imagined, for example, people can get some services while thinking.'
p10398
asg728
I15
sg729
(lp10399
(lp10400
a(lp10401
S'&C@Complete@'
p10402
aa(lp10403
S'&R@Complete@'
p10404
aasbsg735
(lp10405
(isxpPackage
sxpSent
p10406
(dp10407
g739
(lp10408
I23
asg741
VIf the semantic space around the novel item is dense, i.e.,, if there is a high number of similar items, the coinage will be very likely
p10409
sg743
I7
sg728
I86
sg744
I24
sbasba(icmyPackage
CELink
p10410
(dp10411
g3
(lp10412
g5
(g6
g7
(lp10413
g5
(g6
g7
(lp10414
g5
(g6
g7
(lp10415
g5
(g6
g7
(lp10416
g5
(g6
g7
(lp10417
VThe
p10418
atp10419
Rp10420
(dp10421
g16
VDT
p10422
sbag5
(g6
g7
(lp10423
Vlatter
p10424
atp10425
Rp10426
(dp10427
g16
VJJ
p10428
sbag5
(g6
g7
(lp10429
Vvalue
p10430
atp10431
Rp10432
(dp10433
g16
VNN
p10434
sbatp10435
Rp10436
(dp10437
g16
VNP
p10438
sbag5
(g6
g7
(lp10439
g5
(g6
g7
(lp10440
g5
(g6
g7
(lp10441
Vdecreases
p10442
atp10443
Rp10444
(dp10445
g16
VVBZ
p10446
sbag5
(g6
g7
(lp10447
g5
(g6
g7
(lp10448
Vwith
p10449
atp10450
Rp10451
(dp10452
g16
VIN
p10453
sbag5
(g6
g7
(lp10454
g5
(g6
g7
(lp10455
g5
(g6
g7
(lp10456
Vspace
p10457
atp10458
Rp10459
(dp10460
g16
VNN
p10461
sbag5
(g6
g7
(lp10462
Vdensity
p10463
atp10464
Rp10465
(dp10466
g16
VNN
p10467
sbatp10468
Rp10469
(dp10470
g16
VNP
p10471
sbag5
(g6
g7
(lp10472
V-LRB-
p10473
atp10474
Rp10475
(dp10476
g16
V-LRB-
p10477
sbag5
(g6
g7
(lp10478
g5
(g6
g7
(lp10479
Vi.e.
p10480
atp10481
Rp10482
(dp10483
g16
VNNP
p10484
sbatp10485
Rp10486
(dp10487
g16
VNP
p10488
sbag5
(g6
g7
(lp10489
g166
atp10490
Rp10491
(dp10492
g16
g166
sbatp10493
Rp10494
(dp10495
g16
VNP
p10496
sbatp10497
Rp10498
(dp10499
g16
VPP
p10500
sbag5
(g6
g7
(lp10501
g166
atp10502
Rp10503
(dp10504
g16
g166
sbag5
(g6
g7
(lp10505
g5
(g6
g7
(lp10506
Vif
p10507
atp10508
Rp10509
(dp10510
g16
VIN
p10511
sbag5
(g6
g7
(lp10512
g5
(g6
g7
(lp10513
g5
(g6
g7
(lp10514
Vthere
p10515
atp10516
Rp10517
(dp10518
g16
VEX
p10519
sbatp10520
Rp10521
(dp10522
g16
VNP
p10523
sbag5
(g6
g7
(lp10524
g5
(g6
g7
(lp10525
Vare
p10526
atp10527
Rp10528
(dp10529
g16
VVBP
p10530
sbag5
(g6
g7
(lp10531
g5
(g6
g7
(lp10532
Vmany
p10533
atp10534
Rp10535
(dp10536
g16
VJJ
p10537
sbag5
(g6
g7
(lp10538
Vclose
p10539
atp10540
Rp10541
(dp10542
g16
VNN
p10543
sbag5
(g6
g7
(lp10544
Vneighbors
p10545
atp10546
Rp10547
(dp10548
g16
VNNS
p10549
sbag5
(g6
g7
(lp10550
V-RRB-
p10551
atp10552
Rp10553
(dp10554
g16
V-RRB-
p10555
sbatp10556
Rp10557
(dp10558
g16
VNP
p10559
sbatp10560
Rp10561
(dp10562
g16
VVP
p10563
sbatp10564
Rp10565
(dp10566
g16
g160
sbatp10567
Rp10568
(dp10569
g16
VSBAR
p10570
sbatp10571
Rp10572
(dp10573
g16
VVP
p10574
sbag5
(g6
g7
(lp10575
g166
atp10576
Rp10577
(dp10578
g16
g166
sbag5
(g6
g7
(lp10579
Vand
p10580
atp10581
Rp10582
(dp10583
g16
VCC
p10584
sbag5
(g6
g7
(lp10585
g5
(g6
g7
(lp10586
Vis
p10587
atp10588
Rp10589
(dp10590
g16
VVBZ
p10591
sbag5
(g6
g7
(lp10592
g5
(g6
g7
(lp10593
Vtherefore
p10594
atp10595
Rp10596
(dp10597
g16
VRB
p10598
sbatp10599
Rp10600
(dp10601
g16
VADVP
p10602
sbag5
(g6
g7
(lp10603
g5
(g6
g7
(lp10604
Vtechnically
p10605
atp10606
Rp10607
(dp10608
g16
VVBG
p10609
sbag5
(g6
g7
(lp10610
g5
(g6
g7
(lp10611
g5
(g6
g7
(lp10612
g288
atp10613
Rp10614
(dp10615
g16
VDT
p10616
sbag5
(g6
g7
(lp10617
Vmeasure
p10618
atp10619
Rp10620
(dp10621
g16
VNN
p10622
sbatp10623
Rp10624
(dp10625
g16
VNP
p10626
sbag5
(g6
g7
(lp10627
g5
(g6
g7
(lp10628
Vof
p10629
atp10630
Rp10631
(dp10632
g16
VIN
p10633
sbag5
(g6
g7
(lp10634
g5
(g6
g7
(lp10635
Vsparsity
p10636
atp10637
Rp10638
(dp10639
g16
VNN
p10640
sbatp10641
Rp10642
(dp10643
g16
VNP
p10644
sbatp10645
Rp10646
(dp10647
g16
VPP
p10648
sbatp10649
Rp10650
(dp10651
g16
VNP
p10652
sbatp10653
Rp10654
(dp10655
g16
VVP
p10656
sbatp10657
Rp10658
(dp10659
g16
VVP
p10660
sbatp10661
Rp10662
(dp10663
g16
VVP
p10664
sbatp10665
Rp10666
(dp10667
g16
g160
sbag5
(g6
g7
(lp10668
g4222
atp10669
Rp10670
(dp10671
g16
g4226
sbag5
(g6
g7
(lp10672
g5
(g6
g7
(lp10673
g5
(g6
g7
(lp10674
Vsince
p10675
atp10676
Rp10677
(dp10678
g16
VIN
p10679
sbag5
(g6
g7
(lp10680
g5
(g6
g7
(lp10681
Vcosine
p10682
atp10683
Rp10684
(dp10685
g16
VJJ
p10686
sbag5
(g6
g7
(lp10687
Vdistances
p10688
atp10689
Rp10690
(dp10691
g16
VNNS
p10692
sbatp10693
Rp10694
(dp10695
g16
VNP
p10696
sbatp10697
Rp10698
(dp10699
g16
VPP
p10700
sbag5
(g6
g7
(lp10701
g5
(g6
g7
(lp10702
Vare
p10703
atp10704
Rp10705
(dp10706
g16
VVBP
p10707
sbag5
(g6
g7
(lp10708
g5
(g6
g7
(lp10709
Vbetween
p10710
atp10711
Rp10712
(dp10713
g16
VIN
p10714
sbag5
(g6
g7
(lp10715
g5
(g6
g7
(lp10716
V0
p10717
atp10718
Rp10719
(dp10720
g16
VCD
p10721
sbag5
(g6
g7
(lp10722
Vand
p10723
atp10724
Rp10725
(dp10726
g16
VCC
p10727
sbag5
(g6
g7
(lp10728
g906
atp10729
Rp10730
(dp10731
g16
VCD
p10732
sbatp10733
Rp10734
(dp10735
g16
VNP
p10736
sbatp10737
Rp10738
(dp10739
g16
VPP
p10740
sbag5
(g6
g7
(lp10741
g166
atp10742
Rp10743
(dp10744
g16
g166
sbag5
(g6
g7
(lp10745
g5
(g6
g7
(lp10746
g5
(g6
g7
(lp10747
Vsubtracting
p10748
atp10749
Rp10750
(dp10751
g16
VVBG
p10752
sbag5
(g6
g7
(lp10753
g5
(g6
g7
(lp10754
Vthe
p10755
atp10756
Rp10757
(dp10758
g16
VDT
p10759
sbag5
(g6
g7
(lp10760
Vmean
p10761
atp10762
Rp10763
(dp10764
g16
VJJ
p10765
sbag5
(g6
g7
(lp10766
Vdistance
p10767
atp10768
Rp10769
(dp10770
g16
VNN
p10771
sbatp10772
Rp10773
(dp10774
g16
VNP
p10775
sbag5
(g6
g7
(lp10776
g5
(g6
g7
(lp10777
Vfrom
p10778
atp10779
Rp10780
(dp10781
g16
VIN
p10782
sbag5
(g6
g7
(lp10783
g5
(g6
g7
(lp10784
Vone
p10785
atp10786
Rp10787
(dp10788
g16
VCD
p10789
sbag5
(g6
g7
(lp10790
Vreturns
p10791
atp10792
Rp10793
(dp10794
g16
VNNS
p10795
sbatp10796
Rp10797
(dp10798
g16
VNP
p10799
sbatp10800
Rp10801
(dp10802
g16
VPP
p10803
sbag5
(g6
g7
(lp10804
g5
(g6
g7
(lp10805
g5
(g6
g7
(lp10806
g288
atp10807
Rp10808
(dp10809
g16
VDT
p10810
sbag5
(g6
g7
(lp10811
Vmeasure
p10812
atp10813
Rp10814
(dp10815
g16
VNN
p10816
sbatp10817
Rp10818
(dp10819
g16
VNP
p10820
sbag5
(g6
g7
(lp10821
g5
(g6
g7
(lp10822
Vof
p10823
atp10824
Rp10825
(dp10826
g16
VIN
p10827
sbag5
(g6
g7
(lp10828
g5
(g6
g7
(lp10829
g5
(g6
g7
(lp10830
Vdensity
p10831
atp10832
Rp10833
(dp10834
g16
VNN
p10835
sbatp10836
Rp10837
(dp10838
g16
VNP
p10839
sbag5
(g6
g7
(lp10840
g5
(g6
g7
(lp10841
Vwithin
p10842
atp10843
Rp10844
(dp10845
g16
VIN
p10846
sbag5
(g6
g7
(lp10847
g5
(g6
g7
(lp10848
Vthe
p10849
atp10850
Rp10851
(dp10852
g16
VDT
p10853
sbag5
(g6
g7
(lp10854
Vsame
p10855
atp10856
Rp10857
(dp10858
g16
VJJ
p10859
sbag5
(g6
g7
(lp10860
Vboundaries
p10861
atp10862
Rp10863
(dp10864
g16
VNNS
p10865
sbatp10866
Rp10867
(dp10868
g16
VNP
p10869
sbatp10870
Rp10871
(dp10872
g16
VPP
p10873
sbatp10874
Rp10875
(dp10876
g16
VNP
p10877
sbatp10878
Rp10879
(dp10880
g16
VPP
p10881
sbatp10882
Rp10883
(dp10884
g16
VNP
p10885
sbatp10886
Rp10887
(dp10888
g16
VVP
p10889
sbatp10890
Rp10891
(dp10892
g16
g160
sbatp10893
Rp10894
(dp10895
g16
VVP
p10896
sbatp10897
Rp10898
(dp10899
g16
g160
sbatp10900
Rp10901
(dp10902
g16
g160
sbatp10903
Rp10904
(dp10905
g16
VROOT
p10906
sbasg693
(icmyPackage
CorE
p10907
(dp10908
g696
(lp10909
(I0
I0
tp10910
a(I0
I20
tp10911
asg700
g5
(g6
g7
(lp10912
g10436
ag10572
ag10577
ag10582
ag10589
atp10913
Rp10914
(dp10915
g16
g711
sbsbsg701
(icmyPackage
CorE
p10916
(dp10917
g696
(lp10918
(I0
I22
tp10919
a(I0
I51
tp10920
asg700
g5
(g6
g7
(lp10921
g10654
ag10670
ag10898
atp10922
Rp10923
(dp10924
g16
g711
sbsbsg712
g9483
sg735
(lp10925
(isxpPackage
sxpSent
p10926
(dp10927
g739
(lp10928
I24
aI25
aI26
asg741
VThe latter value decreases with space density (i.e.,, if there are many close neighbors), and is therefore technically a measure of sparsity; since cosine distances are between 0 and 1, subtracting the mean distance from one returns a measure of density within the same boundaries
p10929
sg743
I7
sg728
I91
sg744
I26
sbasba(icmyPackage
CELink
p10930
(dp10931
g3
(lp10932
g10914
asg693
(icmyPackage
CorE
p10933
(dp10934
g696
(lp10935
(I0
I12
tp10936
a(I0
I17
tp10937
asg700
g10565
sbsg701
(icmyPackage
CorE
p10938
(dp10939
g696
(lp10940
(I0
I19
tp10941
a(I0
I20
tp10942
asg700
g5
(g6
g7
(lp10943
g10582
ag10589
atp10944
Rp10945
(dp10946
g16
g711
sbsbsg712
g10388
sg735
(lp10947
g10926
asba(icmyPackage
CELink
p10948
(dp10949
g3
(lp10950
g10923
asg693
(icmyPackage
CorE
p10951
(dp10952
g696
(lp10953
(I0
I0
tp10954
a(I0
I4
tp10955
asg700
g10654
sbsg701
(icmyPackage
CorE
p10956
(dp10957
g696
(lp10958
(I0
I5
tp10959
a(I0
I29
tp10960
asg700
g5
(g6
g7
(lp10961
g10670
ag10898
atp10962
Rp10963
(dp10964
g16
g711
sbsbsg712
(icmyPackage
pattern
p10965
(dp10966
g715
I30
sg716
I0
sg717
(lp10967
sg723
(lp10968
I3
aI2
aI1
asg725
(lp10969
S'Being over here we tend to be a bit isolated.'
p10970
aS'Not being sure of the word, he turned it up in the dictionary.'
p10971
asg728
I81
sg729
(lp10972
(lp10973
S'&V-ing@C@'
p10974
aS'(,)'
p10975
aS'&R@Complete@'
p10976
aasbsg735
(lp10977
g10926
asba(icmyPackage
CELink
p10978
(dp10979
g3
(lp10980
g5
(g6
g7
(lp10981
g5
(g6
g7
(lp10982
g5
(g6
g7
(lp10983
g5
(g6
g7
(lp10984
g5
(g6
g7
(lp10985
VThis
p10986
atp10987
Rp10988
(dp10989
g16
VDT
p10990
sbag5
(g6
g7
(lp10991
Vmeasure
p10992
atp10993
Rp10994
(dp10995
g16
VNN
p10996
sbatp10997
Rp10998
(dp10999
g16
VNP
p11000
sbag5
(g6
g7
(lp11001
g5
(g6
g7
(lp11002
Vof
p11003
atp11004
Rp11005
(dp11006
g16
VIN
p11007
sbag5
(g6
g7
(lp11008
g5
(g6
g7
(lp11009
Vdensity
p11010
atp11011
Rp11012
(dp11013
g16
VNN
p11014
sbatp11015
Rp11016
(dp11017
g16
VNP
p11018
sbatp11019
Rp11020
(dp11021
g16
VPP
p11022
sbatp11023
Rp11024
(dp11025
g16
VNP
p11026
sbag5
(g6
g7
(lp11027
g5
(g6
g7
(lp11028
Vwas
p11029
atp11030
Rp11031
(dp11032
g16
VVBD
p11033
sbag5
(g6
g7
(lp11034
g5
(g6
g7
(lp11035
Vused
p11036
atp11037
Rp11038
(dp11039
g16
VVBN
p11040
sbag5
(g6
g7
(lp11041
g5
(g6
g7
(lp11042
Vas
p11043
atp11044
Rp11045
(dp11046
g16
VIN
p11047
sbag5
(g6
g7
(lp11048
g5
(g6
g7
(lp11049
g5
(g6
g7
(lp11050
g288
atp11051
Rp11052
(dp11053
g16
VDT
p11054
sbag5
(g6
g7
(lp11055
Vfactor
p11056
atp11057
Rp11058
(dp11059
g16
VNN
p11060
sbatp11061
Rp11062
(dp11063
g16
VNP
p11064
sbag5
(g6
g7
(lp11065
g5
(g6
g7
(lp11066
Vin
p11067
atp11068
Rp11069
(dp11070
g16
VIN
p11071
sbag5
(g6
g7
(lp11072
g5
(g6
g7
(lp11073
Vlogistic
p11074
atp11075
Rp11076
(dp11077
g16
VJJ
p11078
sbag5
(g6
g7
(lp11079
Vregression
p11080
atp11081
Rp11082
(dp11083
g16
VNN
p11084
sbatp11085
Rp11086
(dp11087
g16
VNP
p11088
sbatp11089
Rp11090
(dp11091
g16
VPP
p11092
sbatp11093
Rp11094
(dp11095
g16
VNP
p11096
sbatp11097
Rp11098
(dp11099
g16
VPP
p11100
sbag5
(g6
g7
(lp11101
g5
(g6
g7
(lp11102
g5
(g6
g7
(lp11103
Vto
p11104
atp11105
Rp11106
(dp11107
g16
VTO
p11108
sbag5
(g6
g7
(lp11109
g5
(g6
g7
(lp11110
Vpredict
p11111
atp11112
Rp11113
(dp11114
g16
VVB
p11115
sbag5
(g6
g7
(lp11116
g5
(g6
g7
(lp11117
g5
(g6
g7
(lp11118
Vthe
p11119
atp11120
Rp11121
(dp11122
g16
VDT
p11123
sbag5
(g6
g7
(lp11124
Vfirst
p11125
atp11126
Rp11127
(dp11128
g16
VJJ
p11129
sbag5
(g6
g7
(lp11130
Voccurrence
p11131
atp11132
Rp11133
(dp11134
g16
VNN
p11135
sbatp11136
Rp11137
(dp11138
g16
VNP
p11139
sbag5
(g6
g7
(lp11140
g5
(g6
g7
(lp11141
Vof
p11142
atp11143
Rp11144
(dp11145
g16
VIN
p11146
sbag5
(g6
g7
(lp11147
g5
(g6
g7
(lp11148
g288
atp11149
Rp11150
(dp11151
g16
VDT
p11152
sbag5
(g6
g7
(lp11153
Vverb
p11154
atp11155
Rp11156
(dp11157
g16
VNN
p11158
sbatp11159
Rp11160
(dp11161
g16
VNP
p11162
sbatp11163
Rp11164
(dp11165
g16
VPP
p11166
sbatp11167
Rp11168
(dp11169
g16
VNP
p11170
sbag5
(g6
g7
(lp11171
g5
(g6
g7
(lp11172
Vin
p11173
atp11174
Rp11175
(dp11176
g16
VIN
p11177
sbag5
(g6
g7
(lp11178
g5
(g6
g7
(lp11179
g5
(g6
g7
(lp11180
Vthe
p11181
atp11182
Rp11183
(dp11184
g16
VDT
p11185
sbag5
(g6
g7
(lp11186
Vconstruction
p11187
atp11188
Rp11189
(dp11190
g16
VNN
p11191
sbatp11192
Rp11193
(dp11194
g16
VNP
p11195
sbag5
(g6
g7
(lp11196
g166
atp11197
Rp11198
(dp11199
g16
g166
sbag5
(g6
g7
(lp11200
g5
(g6
g7
(lp11201
Vcoded
p11202
atp11203
Rp11204
(dp11205
g16
VVBN
p11206
sbag5
(g6
g7
(lp11207
g5
(g6
g7
(lp11208
g5
(g6
g7
(lp11209
Vas
p11210
atp11211
Rp11212
(dp11213
g16
VIN
p11214
sbag5
(g6
g7
(lp11215
g5
(g6
g7
(lp11216
g5
(g6
g7
(lp11217
Vthe
p11218
atp11219
Rp11220
(dp11221
g16
VDT
p11222
sbag5
(g6
g7
(lp11223
Vbinary
p11224
atp11225
Rp11226
(dp11227
g16
VJJ
p11228
sbag5
(g6
g7
(lp11229
Vvariable
p11230
atp11231
Rp11232
(dp11233
g16
VJJ
p11234
sbag5
(g6
g7
(lp11235
VOccurrence
p11236
atp11237
Rp11238
(dp11239
g16
VNN
p11240
sbatp11241
Rp11242
(dp11243
g16
VNP
p11244
sbag5
(g6
g7
(lp11245
g166
atp11246
Rp11247
(dp11248
g16
g166
sbag5
(g6
g7
(lp11249
g5
(g6
g7
(lp11250
Vset
p11251
atp11252
Rp11253
(dp11254
g16
VVBN
p11255
sbag5
(g6
g7
(lp11256
g5
(g6
g7
(lp11257
Vto
p11258
atp11259
Rp11260
(dp11261
g16
VTO
p11262
sbag5
(g6
g7
(lp11263
g5
(g6
g7
(lp11264
g906
atp11265
Rp11266
(dp11267
g16
VCD
p11268
sbatp11269
Rp11270
(dp11271
g16
VNP
p11272
sbatp11273
Rp11274
(dp11275
g16
VPP
p11276
sbag5
(g6
g7
(lp11277
g5
(g6
g7
(lp11278
Vfor
p11279
atp11280
Rp11281
(dp11282
g16
VIN
p11283
sbag5
(g6
g7
(lp11284
g5
(g6
g7
(lp11285
g5
(g6
g7
(lp11286
Vthe
p11287
atp11288
Rp11289
(dp11290
g16
VDT
p11291
sbag5
(g6
g7
(lp11292
Vfirst
p11293
atp11294
Rp11295
(dp11296
g16
VJJ
p11297
sbag5
(g6
g7
(lp11298
Vperiod
p11299
atp11300
Rp11301
(dp11302
g16
VNN
p11303
sbatp11304
Rp11305
(dp11306
g16
VNP
p11307
sbag5
(g6
g7
(lp11308
g5
(g6
g7
(lp11309
g5
(g6
g7
(lp11310
Vin
p11311
atp11312
Rp11313
(dp11314
g16
VIN
p11315
sbag5
(g6
g7
(lp11316
g5
(g6
g7
(lp11317
Vwhich
p11318
atp11319
Rp11320
(dp11321
g16
VWDT
p11322
sbatp11323
Rp11324
(dp11325
g16
VWHNP
p11326
sbatp11327
Rp11328
(dp11329
g16
VWHPP
p11330
sbag5
(g6
g7
(lp11331
g5
(g6
g7
(lp11332
g5
(g6
g7
(lp11333
Vthe
p11334
atp11335
Rp11336
(dp11337
g16
VDT
p11338
sbag5
(g6
g7
(lp11339
Vverb
p11340
atp11341
Rp11342
(dp11343
g16
VNN
p11344
sbatp11345
Rp11346
(dp11347
g16
VNP
p11348
sbag5
(g6
g7
(lp11349
g5
(g6
g7
(lp11350
Vis
p11351
atp11352
Rp11353
(dp11354
g16
VVBZ
p11355
sbag5
(g6
g7
(lp11356
g5
(g6
g7
(lp11357
Vattested
p11358
atp11359
Rp11360
(dp11361
g16
VVBN
p11362
sbag5
(g6
g7
(lp11363
g5
(g6
g7
(lp11364
Vin
p11365
atp11366
Rp11367
(dp11368
g16
VIN
p11369
sbag5
(g6
g7
(lp11370
g5
(g6
g7
(lp11371
Vthe
p11372
atp11373
Rp11374
(dp11375
g16
VDT
p11376
sbag5
(g6
g7
(lp11377
Vconstruction
p11378
atp11379
Rp11380
(dp11381
g16
VNN
p11382
sbatp11383
Rp11384
(dp11385
g16
VNP
p11386
sbatp11387
Rp11388
(dp11389
g16
VPP
p11390
sbatp11391
Rp11392
(dp11393
g16
VVP
p11394
sbatp11395
Rp11396
(dp11397
g16
VVP
p11398
sbatp11399
Rp11400
(dp11401
g16
g160
sbatp11402
Rp11403
(dp11404
g16
VSBAR
p11405
sbatp11406
Rp11407
(dp11408
g16
VNP
p11409
sbatp11410
Rp11411
(dp11412
g16
VPP
p11413
sbatp11414
Rp11415
(dp11416
g16
VVP
p11417
sbag5
(g6
g7
(lp11418
g166
atp11419
Rp11420
(dp11421
g16
g166
sbatp11422
Rp11423
(dp11424
g16
VNP
p11425
sbatp11426
Rp11427
(dp11428
g16
VPP
p11429
sbag5
(g6
g7
(lp11430
Vand
p11431
atp11432
Rp11433
(dp11434
g16
VCC
p11435
sbag5
(g6
g7
(lp11436
g5
(g6
g7
(lp11437
Vto
p11438
atp11439
Rp11440
(dp11441
g16
VTO
p11442
sbag5
(g6
g7
(lp11443
g5
(g6
g7
(lp11444
g5
(g6
g7
(lp11445
g10717
atp11446
Rp11447
(dp11448
g16
VCD
p11449
sbatp11450
Rp11451
(dp11452
g16
VNP
p11453
sbag5
(g6
g7
(lp11454
g5
(g6
g7
(lp11455
Vfor
p11456
atp11457
Rp11458
(dp11459
g16
VIN
p11460
sbag5
(g6
g7
(lp11461
g5
(g6
g7
(lp11462
g5
(g6
g7
(lp11463
Vall
p11464
atp11465
Rp11466
(dp11467
g16
VDT
p11468
sbag5
(g6
g7
(lp11469
Vpreceding
p11470
atp11471
Rp11472
(dp11473
g16
VVBG
p11474
sbag5
(g6
g7
(lp11475
Vperiods
p11476
atp11477
Rp11478
(dp11479
g16
VNNS
p11480
sbatp11481
Rp11482
(dp11483
g16
VNP
p11484
sbag5
(g6
g7
(lp11485
g5
(g6
g7
(lp11486
g5
(g6
g7
(lp11487
V-LRB-
p11488
atp11489
Rp11490
(dp11491
g16
V-LRB-
p11492
sbag5
(g6
g7
(lp11493
g5
(g6
g7
(lp11494
Vlater
p11495
atp11496
Rp11497
(dp11498
g16
VJJ
p11499
sbag5
(g6
g7
(lp11500
Vperiods
p11501
atp11502
Rp11503
(dp11504
g16
VNNS
p11505
sbatp11506
Rp11507
(dp11508
g16
VNP
p11509
sbag5
(g6
g7
(lp11510
g5
(g6
g7
(lp11511
Vwere
p11512
atp11513
Rp11514
(dp11515
g16
VVBD
p11516
sbag5
(g6
g7
(lp11517
g5
(g6
g7
(lp11518
Vdiscarded
p11519
atp11520
Rp11521
(dp11522
g16
VVBN
p11523
sbatp11524
Rp11525
(dp11526
g16
VVP
p11527
sbatp11528
Rp11529
(dp11530
g16
VVP
p11531
sbatp11532
Rp11533
(dp11534
g16
g160
sbatp11535
Rp11536
(dp11537
g16
VSBAR
p11538
sbatp11539
Rp11540
(dp11541
g16
VNP
p11542
sbatp11543
Rp11544
(dp11545
g16
VPP
p11546
sbatp11547
Rp11548
(dp11549
g16
VNP
p11550
sbatp11551
Rp11552
(dp11553
g16
VPP
p11554
sbatp11555
Rp11556
(dp11557
g16
VPP
p11558
sbatp11559
Rp11560
(dp11561
g16
VVP
p11562
sbatp11563
Rp11564
(dp11565
g16
VNP
p11566
sbatp11567
Rp11568
(dp11569
g16
VPP
p11570
sbatp11571
Rp11572
(dp11573
g16
VVP
p11574
sbatp11575
Rp11576
(dp11577
g16
VVP
p11578
sbatp11579
Rp11580
(dp11581
g16
g160
sbatp11582
Rp11583
(dp11584
g16
VVP
p11585
sbatp11586
Rp11587
(dp11588
g16
VVP
p11589
sbatp11590
Rp11591
(dp11592
g16
g160
sbatp11593
Rp11594
(dp11595
g16
VROOT
p11596
sbasg693
(icmyPackage
CorE
p11597
(dp11598
g696
(lp11599
(I0
I7
tp11600
a(I0
I59
tp11601
asg700
g5
(g6
g7
(lp11602
g11094
ag11580
atp11603
Rp11604
(dp11605
g16
g711
sbsbsg701
(icmyPackage
CorE
p11606
(dp11607
g696
(lp11608
(I0
I0
tp11609
a(I0
I5
tp11610
asg700
g5
(g6
g7
(lp11611
g11024
ag11031
ag11038
atp11612
Rp11613
(dp11614
g16
g711
sbsbsg712
g1702
sg735
(lp11615
(isxpPackage
sxpSent
p11616
(dp11617
g739
(lp11618
I27
asg741
VThis measure of density was used as a factor in logistic regression to predict the first occurrence of a verb in the construction, coded as the binary variable Occurrence , set to 1 for the first period in which the verb is attested in the construction, and to 0 for all preceding periods (later periods were discarded
p11619
sg743
I7
sg728
I92
sg744
I27
sbasba(icmyPackage
CELink
p11620
(dp11621
g3
(lp11622
g5
(g6
g7
(lp11623
g5
(g6
g7
(lp11624
g5
(g6
g7
(lp11625
g5
(g6
g7
(lp11626
VFor
p11627
atp11628
Rp11629
(dp11630
g16
VIN
p11631
sbag5
(g6
g7
(lp11632
g5
(g6
g7
(lp11633
g5
(g6
g7
(lp11634
Vall
p11635
atp11636
Rp11637
(dp11638
g16
VDT
p11639
sbag5
(g6
g7
(lp11640
Vvalues
p11641
atp11642
Rp11643
(dp11644
g16
VNNS
p11645
sbatp11646
Rp11647
(dp11648
g16
VNP
p11649
sbag5
(g6
g7
(lp11650
g5
(g6
g7
(lp11651
Vof
p11652
atp11653
Rp11654
(dp11655
g16
VIN
p11656
sbag5
(g6
g7
(lp11657
g5
(g6
g7
(lp11658
VN
p11659
atp11660
Rp11661
(dp11662
g16
VNNP
p11663
sbatp11664
Rp11665
(dp11666
g16
VNP
p11667
sbatp11668
Rp11669
(dp11670
g16
VPP
p11671
sbag5
(g6
g7
(lp11672
g5
(g6
g7
(lp11673
g166
atp11674
Rp11675
(dp11676
g16
g166
sbag5
(g6
g7
(lp11677
g5
(g6
g7
(lp11678
g5
(g6
g7
(lp11679
Vwe
p11680
atp11681
Rp11682
(dp11683
g16
VPRP
p11684
sbatp11685
Rp11686
(dp11687
g16
VNP
p11688
sbag5
(g6
g7
(lp11689
g5
(g6
g7
(lp11690
Vfind
p11691
atp11692
Rp11693
(dp11694
g16
VVBP
p11695
sbag5
(g6
g7
(lp11696
g5
(g6
g7
(lp11697
g5
(g6
g7
(lp11698
g288
atp11699
Rp11700
(dp11701
g16
VDT
p11702
sbag5
(g6
g7
(lp11703
Vpositive
p11704
atp11705
Rp11706
(dp11707
g16
VJJ
p11708
sbag5
(g6
g7
(lp11709
Veffect
p11710
atp11711
Rp11712
(dp11713
g16
VNN
p11714
sbatp11715
Rp11716
(dp11717
g16
VNP
p11718
sbag5
(g6
g7
(lp11719
g5
(g6
g7
(lp11720
Vof
p11721
atp11722
Rp11723
(dp11724
g16
VIN
p11725
sbag5
(g6
g7
(lp11726
g5
(g6
g7
(lp11727
VDensity
p11728
atp11729
Rp11730
(dp11731
g16
VNNP
p11732
sbag5
(g6
g7
(lp11733
g166
atp11734
Rp11735
(dp11736
g16
g166
sbag5
(g6
g7
(lp11737
Vi.e.
p11738
atp11739
Rp11740
(dp11741
g16
VNNP
p11742
sbatp11743
Rp11744
(dp11745
g16
VNP
p11746
sbatp11747
Rp11748
(dp11749
g16
VPP
p11750
sbatp11751
Rp11752
(dp11753
g16
VNP
p11754
sbatp11755
Rp11756
(dp11757
g16
VVP
p11758
sbatp11759
Rp11760
(dp11761
g16
g160
sbag5
(g6
g7
(lp11762
g166
atp11763
Rp11764
(dp11765
g16
g166
sbatp11766
Rp11767
(dp11768
g16
VPRN
p11769
sbatp11770
Rp11771
(dp11772
g16
VNP
p11773
sbatp11774
Rp11775
(dp11776
g16
VPP
p11777
sbag5
(g6
g7
(lp11778
g166
atp11779
Rp11780
(dp11781
g16
g166
sbag5
(g6
g7
(lp11782
g5
(g6
g7
(lp11783
Vthere
p11784
atp11785
Rp11786
(dp11787
g16
VEX
p11788
sbatp11789
Rp11790
(dp11791
g16
VNP
p11792
sbag5
(g6
g7
(lp11793
g5
(g6
g7
(lp11794
Vis
p11795
atp11796
Rp11797
(dp11798
g16
VVBZ
p11799
sbag5
(g6
g7
(lp11800
g5
(g6
g7
(lp11801
g5
(g6
g7
(lp11802
g288
atp11803
Rp11804
(dp11805
g16
VDT
p11806
sbag5
(g6
g7
(lp11807
Vpositive
p11808
atp11809
Rp11810
(dp11811
g16
VJJ
p11812
sbag5
(g6
g7
(lp11813
Vrelation
p11814
atp11815
Rp11816
(dp11817
g16
VNN
p11818
sbatp11819
Rp11820
(dp11821
g16
VNP
p11822
sbag5
(g6
g7
(lp11823
g5
(g6
g7
(lp11824
Vbetween
p11825
atp11826
Rp11827
(dp11828
g16
VIN
p11829
sbag5
(g6
g7
(lp11830
g5
(g6
g7
(lp11831
g5
(g6
g7
(lp11832
g5
(g6
g7
(lp11833
Vthe
p11834
atp11835
Rp11836
(dp11837
g16
VDT
p11838
sbag5
(g6
g7
(lp11839
Vmeasure
p11840
atp11841
Rp11842
(dp11843
g16
VNN
p11844
sbatp11845
Rp11846
(dp11847
g16
VNP
p11848
sbag5
(g6
g7
(lp11849
g5
(g6
g7
(lp11850
Vof
p11851
atp11852
Rp11853
(dp11854
g16
VIN
p11855
sbag5
(g6
g7
(lp11856
g5
(g6
g7
(lp11857
Vdensity
p11858
atp11859
Rp11860
(dp11861
g16
VNN
p11862
sbatp11863
Rp11864
(dp11865
g16
VNP
p11866
sbatp11867
Rp11868
(dp11869
g16
VPP
p11870
sbatp11871
Rp11872
(dp11873
g16
VNP
p11874
sbag5
(g6
g7
(lp11875
Vand
p11876
atp11877
Rp11878
(dp11879
g16
VCC
p11880
sbag5
(g6
g7
(lp11881
g5
(g6
g7
(lp11882
g5
(g6
g7
(lp11883
Vthe
p11884
atp11885
Rp11886
(dp11887
g16
VDT
p11888
sbag5
(g6
g7
(lp11889
Vprobability
p11890
atp11891
Rp11892
(dp11893
g16
VNN
p11894
sbatp11895
Rp11896
(dp11897
g16
VNP
p11898
sbag5
(g6
g7
(lp11899
g5
(g6
g7
(lp11900
Vof
p11901
atp11902
Rp11903
(dp11904
g16
VIN
p11905
sbag5
(g6
g7
(lp11906
g5
(g6
g7
(lp11907
g5
(g6
g7
(lp11908
Vfirst
p11909
atp11910
Rp11911
(dp11912
g16
VJJ
p11913
sbag5
(g6
g7
(lp11914
Voccurrence
p11915
atp11916
Rp11917
(dp11918
g16
VNN
p11919
sbatp11920
Rp11921
(dp11922
g16
VNP
p11923
sbag5
(g6
g7
(lp11924
g5
(g6
g7
(lp11925
Vof
p11926
atp11927
Rp11928
(dp11929
g16
VIN
p11930
sbag5
(g6
g7
(lp11931
g5
(g6
g7
(lp11932
g5
(g6
g7
(lp11933
g288
atp11934
Rp11935
(dp11936
g16
VDT
p11937
sbag5
(g6
g7
(lp11938
Vverb
p11939
atp11940
Rp11941
(dp11942
g16
VNN
p11943
sbatp11944
Rp11945
(dp11946
g16
VNP
p11947
sbag5
(g6
g7
(lp11948
g5
(g6
g7
(lp11949
Vin
p11950
atp11951
Rp11952
(dp11953
g16
VIN
p11954
sbag5
(g6
g7
(lp11955
g5
(g6
g7
(lp11956
Vthe
p11957
atp11958
Rp11959
(dp11960
g16
VDT
p11961
sbag5
(g6
g7
(lp11962
Vconstruction
p11963
atp11964
Rp11965
(dp11966
g16
VNN
p11967
sbatp11968
Rp11969
(dp11970
g16
VNP
p11971
sbatp11972
Rp11973
(dp11974
g16
VPP
p11975
sbatp11976
Rp11977
(dp11978
g16
VNP
p11979
sbatp11980
Rp11981
(dp11982
g16
VPP
p11983
sbatp11984
Rp11985
(dp11986
g16
VNP
p11987
sbatp11988
Rp11989
(dp11990
g16
VPP
p11991
sbatp11992
Rp11993
(dp11994
g16
VNP
p11995
sbatp11996
Rp11997
(dp11998
g16
VNP
p11999
sbatp12000
Rp12001
(dp12002
g16
VPP
p12003
sbatp12004
Rp12005
(dp12006
g16
VNP
p12007
sbatp12008
Rp12009
(dp12010
g16
VVP
p12011
sbatp12012
Rp12013
(dp12014
g16
g160
sbatp12015
Rp12016
(dp12017
g16
VROOT
p12018
sbasg693
(icmyPackage
CorE
p12019
(dp12020
g696
(lp12021
(I0
I12
tp12022
a(I0
I14
tp12023
asg700
g11744
sbsg701
(icmyPackage
CorE
p12024
(dp12025
g696
(lp12026
(I0
I19
tp12027
a(I0
I38
tp12028
asg700
g12005
sbsg712
(icmyPackage
pattern
p12029
(dp12030
g715
I1
sg716
I0
sg717
(lp12031
(lp12032
(lp12033
S'effect'
p12034
aS'effects'
p12035
aaS'of'
p12036
aa(lp12037
(lp12038
S'is'
p12039
aS'was'
p12040
aaasg723
(lp12041
I4
aI2
aI1
asg725
(lp12042
sg728
I139
sg729
(lp12043
(lp12044
S'&ONE'
p12045
aS'(&adj)'
p12046
aa(lp12047
S'&NP@C@'
p12048
aa(lp12049
S'&NP@R@'
p12050
aasbsg735
(lp12051
(isxpPackage
sxpSent
p12052
(dp12053
g739
(lp12054
I28
asg741
VFor all values of N, we find a positive effect of Density , i.e.,, there is a positive relation between the measure of density and the probability of first occurrence of a verb in the construction
p12055
sg743
I7
sg728
I96
sg744
I28
sbasba(icmyPackage
CELink
p12056
(dp12057
g3
(lp12058
g5
(g6
g7
(lp12059
g5
(g6
g7
(lp12060
g5
(g6
g7
(lp12061
g5
(g6
g7
(lp12062
g5
(g6
g7
(lp12063
VHowever
p12064
atp12065
Rp12066
(dp12067
g16
VRB
p12068
sbatp12069
Rp12070
(dp12071
g16
VADVP
p12072
sbag5
(g6
g7
(lp12073
g166
atp12074
Rp12075
(dp12076
g16
g166
sbag5
(g6
g7
(lp12077
g5
(g6
g7
(lp12078
Vthe
p12079
atp12080
Rp12081
(dp12082
g16
VDT
p12083
sbag5
(g6
g7
(lp12084
Veffect
p12085
atp12086
Rp12087
(dp12088
g16
VNN
p12089
sbatp12090
Rp12091
(dp12092
g16
VNP
p12093
sbag5
(g6
g7
(lp12094
g5
(g6
g7
(lp12095
Vis
p12096
atp12097
Rp12098
(dp12099
g16
VVBZ
p12100
sbag5
(g6
g7
(lp12101
g5
(g6
g7
(lp12102
Vonly
p12103
atp12104
Rp12105
(dp12106
g16
VRB
p12107
sbag5
(g6
g7
(lp12108
Vsignificant
p12109
atp12110
Rp12111
(dp12112
g16
VJJ
p12113
sbag5
(g6
g7
(lp12114
g5
(g6
g7
(lp12115
Vfor
p12116
atp12117
Rp12118
(dp12119
g16
VIN
p12120
sbag5
(g6
g7
(lp12121
g5
(g6
g7
(lp12122
g5
(g6
g7
(lp12123
g5
(g6
g7
(lp12124
g11659
atp12125
Rp12126
(dp12127
g16
VNNP
p12128
sbag5
(g6
g7
(lp12129
g1585
atp12130
Rp12131
(dp12132
g16
VNNP
p12133
sbag5
(g6
g7
(lp12134
g1591
atp12135
Rp12136
(dp12137
g16
VPOS
p12138
sbatp12139
Rp12140
(dp12141
g16
VNP
p12142
sbag5
(g6
g7
(lp12143
V\u005c
p12144
atp12145
Rp12146
(dp12147
g16
VNN
p12148
sbag5
(g6
g7
(lp12149
Vu2265
p12150
atp12151
Rp12152
(dp12153
g16
VNNS
p12154
sbag5
(g6
g7
(lp12155
g1591
atp12156
Rp12157
(dp12158
g16
V''
p12159
sbatp12160
Rp12161
(dp12162
g16
VNP
p12163
sbag5
(g6
g7
(lp12164
g5
(g6
g7
(lp12165
V7
p12166
atp12167
Rp12168
(dp12169
g16
VCD
p12170
sbatp12171
Rp12172
(dp12173
g16
VADJP
p12174
sbatp12175
Rp12176
(dp12177
g16
VNP
p12178
sbatp12179
Rp12180
(dp12181
g16
VPP
p12182
sbatp12183
Rp12184
(dp12185
g16
VADJP
p12186
sbatp12187
Rp12188
(dp12189
g16
VVP
p12190
sbatp12191
Rp12192
(dp12193
g16
g160
sbag5
(g6
g7
(lp12194
g4222
atp12195
Rp12196
(dp12197
g16
g4226
sbag5
(g6
g7
(lp12198
g5
(g6
g7
(lp12199
g5
(g6
g7
(lp12200
Vhence
p12201
atp12202
Rp12203
(dp12204
g16
VRB
p12205
sbatp12206
Rp12207
(dp12208
g16
VADVP
p12209
sbag5
(g6
g7
(lp12210
g166
atp12211
Rp12212
(dp12213
g16
g166
sbag5
(g6
g7
(lp12214
g5
(g6
g7
(lp12215
g5
(g6
g7
(lp12216
Vthe
p12217
atp12218
Rp12219
(dp12220
g16
VDT
p12221
sbag5
(g6
g7
(lp12222
Vhypothesis
p12223
atp12224
Rp12225
(dp12226
g16
VNNS
p12227
sbatp12228
Rp12229
(dp12230
g16
VNP
p12231
sbag5
(g6
g7
(lp12232
g5
(g6
g7
(lp12233
Vthat
p12234
atp12235
Rp12236
(dp12237
g16
VIN
p12238
sbag5
(g6
g7
(lp12239
g5
(g6
g7
(lp12240
g5
(g6
g7
(lp12241
Vspace
p12242
atp12243
Rp12244
(dp12245
g16
VNN
p12246
sbag5
(g6
g7
(lp12247
Vdensity
p12248
atp12249
Rp12250
(dp12251
g16
VNN
p12252
sbatp12253
Rp12254
(dp12255
g16
VNP
p12256
sbag5
(g6
g7
(lp12257
g5
(g6
g7
(lp12258
Vincreases
p12259
atp12260
Rp12261
(dp12262
g16
VVBZ
p12263
sbag5
(g6
g7
(lp12264
g5
(g6
g7
(lp12265
g5
(g6
g7
(lp12266
g5
(g6
g7
(lp12267
g5
(g6
g7
(lp12268
Vthe
p12269
atp12270
Rp12271
(dp12272
g16
VDT
p12273
sbag5
(g6
g7
(lp12274
Vodds
p12275
atp12276
Rp12277
(dp12278
g16
VNNS
p12279
sbatp12280
Rp12281
(dp12282
g16
VNP
p12283
sbag5
(g6
g7
(lp12284
g5
(g6
g7
(lp12285
Vof
p12286
atp12287
Rp12288
(dp12289
g16
VIN
p12290
sbag5
(g6
g7
(lp12291
g5
(g6
g7
(lp12292
g288
atp12293
Rp12294
(dp12295
g16
VDT
p12296
sbag5
(g6
g7
(lp12297
Vcoinage
p12298
atp12299
Rp12300
(dp12301
g16
VNN
p12302
sbatp12303
Rp12304
(dp12305
g16
VNP
p12306
sbatp12307
Rp12308
(dp12309
g16
VPP
p12310
sbatp12311
Rp12312
(dp12313
g16
VNP
p12314
sbag5
(g6
g7
(lp12315
g5
(g6
g7
(lp12316
Voccurs
p12317
atp12318
Rp12319
(dp12320
g16
VVBZ
p12321
sbag5
(g6
g7
(lp12322
g5
(g6
g7
(lp12323
Vin
p12324
atp12325
Rp12326
(dp12327
g16
VIN
p12328
sbag5
(g6
g7
(lp12329
g5
(g6
g7
(lp12330
Vthe
p12331
atp12332
Rp12333
(dp12334
g16
VDT
p12335
sbag5
(g6
g7
(lp12336
Vconstruction
p12337
atp12338
Rp12339
(dp12340
g16
VNN
p12341
sbatp12342
Rp12343
(dp12344
g16
VNP
p12345
sbatp12346
Rp12347
(dp12348
g16
VPP
p12349
sbatp12350
Rp12351
(dp12352
g16
VVP
p12353
sbatp12354
Rp12355
(dp12356
g16
g160
sbatp12357
Rp12358
(dp12359
g16
VSBAR
p12360
sbatp12361
Rp12362
(dp12363
g16
VVP
p12364
sbatp12365
Rp12366
(dp12367
g16
g160
sbatp12368
Rp12369
(dp12370
g16
VSBAR
p12371
sbatp12372
Rp12373
(dp12374
g16
VNP
p12375
sbag5
(g6
g7
(lp12376
g5
(g6
g7
(lp12377
Vis
p12378
atp12379
Rp12380
(dp12381
g16
VVBZ
p12382
sbag5
(g6
g7
(lp12383
g5
(g6
g7
(lp12384
Vsupported
p12385
atp12386
Rp12387
(dp12388
g16
VVBN
p12389
sbag5
(g6
g7
(lp12390
g5
(g6
g7
(lp12391
Vfor
p12392
atp12393
Rp12394
(dp12395
g16
VIN
p12396
sbag5
(g6
g7
(lp12397
g5
(g6
g7
(lp12398
g5
(g6
g7
(lp12399
Vmeasures
p12400
atp12401
Rp12402
(dp12403
g16
VNNS
p12404
sbatp12405
Rp12406
(dp12407
g16
VNP
p12408
sbag5
(g6
g7
(lp12409
g5
(g6
g7
(lp12410
Vof
p12411
atp12412
Rp12413
(dp12414
g16
VIN
p12415
sbag5
(g6
g7
(lp12416
g5
(g6
g7
(lp12417
Vdensity
p12418
atp12419
Rp12420
(dp12421
g16
VNN
p12422
sbatp12423
Rp12424
(dp12425
g16
VNP
p12426
sbatp12427
Rp12428
(dp12429
g16
VPP
p12430
sbatp12431
Rp12432
(dp12433
g16
VNP
p12434
sbatp12435
Rp12436
(dp12437
g16
VPP
p12438
sbag5
(g6
g7
(lp12439
g5
(g6
g7
(lp12440
Vbased
p12441
atp12442
Rp12443
(dp12444
g16
VVBN
p12445
sbag5
(g6
g7
(lp12446
g5
(g6
g7
(lp12447
Von
p12448
atp12449
Rp12450
(dp12451
g16
VIN
p12452
sbag5
(g6
g7
(lp12453
g5
(g6
g7
(lp12454
g5
(g6
g7
(lp12455
Vthese
p12456
atp12457
Rp12458
(dp12459
g16
VDT
p12460
sbag5
(g6
g7
(lp12461
Vvalues
p12462
atp12463
Rp12464
(dp12465
g16
VNNS
p12466
sbatp12467
Rp12468
(dp12469
g16
VNP
p12470
sbag5
(g6
g7
(lp12471
g5
(g6
g7
(lp12472
Vof
p12473
atp12474
Rp12475
(dp12476
g16
VIN
p12477
sbag5
(g6
g7
(lp12478
g5
(g6
g7
(lp12479
g11659
atp12480
Rp12481
(dp12482
g16
VNNP
p12483
sbatp12484
Rp12485
(dp12486
g16
VNP
p12487
sbatp12488
Rp12489
(dp12490
g16
VPP
p12491
sbatp12492
Rp12493
(dp12494
g16
VNP
p12495
sbatp12496
Rp12497
(dp12498
g16
VPP
p12499
sbatp12500
Rp12501
(dp12502
g16
VPP
p12503
sbatp12504
Rp12505
(dp12506
g16
VVP
p12507
sbatp12508
Rp12509
(dp12510
g16
VVP
p12511
sbatp12512
Rp12513
(dp12514
g16
g160
sbatp12515
Rp12516
(dp12517
g16
g160
sbatp12518
Rp12519
(dp12520
g16
VROOT
p12521
sbasg693
(icmyPackage
CorE
p12522
(dp12523
g696
(lp12524
(I0
I0
tp12525
a(I0
I14
tp12526
asg700
g12192
sbsg701
(icmyPackage
CorE
p12527
(dp12528
g696
(lp12529
(I0
I18
tp12530
a(I0
I44
tp12531
asg700
g5
(g6
g7
(lp12532
g12373
ag12509
atp12533
Rp12534
(dp12535
g16
g711
sbsbsg712
(icmyPackage
pattern
p12536
(dp12537
g715
I7
sg716
I1
sg717
(lp12538
(lp12539
S'hence'
p12540
aasg723
(lp12541
I1
aI1
aI1
asg725
(lp12542
S'Increase in temperature increases the rate of deposition and hence the heat loss to the surroundings should be prevented.'
p12543
asg728
I4
sg729
(lp12544
(lp12545
S'&C'
p12546
aS'(,/;/./--)'
p12547
aS'(&AND)'
p12548
aa(lp12549
S'(,)'
p12550
aS'&R'
p12551
aasbsg735
(lp12552
(isxpPackage
sxpSent
p12553
(dp12554
g739
(lp12555
I29
aI30
asg741
VHowever, the effect is only significant for N u'\u005cu2265' 7; hence, the hypothesis that space density increases the odds of a coinage occurs in the construction is supported for measures of density based on these values of N
p12556
sg743
I7
sg728
I97
sg744
I28
sbasba(icmyPackage
CELink
p12557
(dp12558
g3
(lp12559
g12534
asg693
(icmyPackage
CorE
p12560
(dp12561
g696
(lp12562
(I0
I23
tp12563
a(I0
I26
tp12564
asg700
g12493
sbsg701
(icmyPackage
CorE
p12565
(dp12566
g696
(lp12567
(I0
I0
tp12568
a(I0
I20
tp12569
asg700
g5
(g6
g7
(lp12570
g12373
ag12380
ag12387
ag12436
atp12571
Rp12572
(dp12573
g16
g711
sbsbsg712
g4581
sg735
(lp12574
g12553
asba(icmyPackage
CELink
p12575
(dp12576
g3
(lp12577
g5
(g6
g7
(lp12578
g5
(g6
g7
(lp12579
g5
(g6
g7
(lp12580
g5
(g6
g7
(lp12581
VThis
p12582
atp12583
Rp12584
(dp12585
g16
VDT
p12586
sbatp12587
Rp12588
(dp12589
g16
VNP
p12590
sbag5
(g6
g7
(lp12591
g5
(g6
g7
(lp12592
Vis
p12593
atp12594
Rp12595
(dp12596
g16
VVBZ
p12597
sbag5
(g6
g7
(lp12598
g5
(g6
g7
(lp12599
Varguably
p12600
atp12601
Rp12602
(dp12603
g16
VJJ
p12604
sbatp12605
Rp12606
(dp12607
g16
VADJP
p12608
sbag5
(g6
g7
(lp12609
g5
(g6
g7
(lp12610
Vbecause
p12611
atp12612
Rp12613
(dp12614
g16
VIN
p12615
sbag5
(g6
g7
(lp12616
g5
(g6
g7
(lp12617
g5
(g6
g7
(lp12618
g288
atp12619
Rp12620
(dp12621
g16
VDT
p12622
sbag5
(g6
g7
(lp12623
Vhigher
p12624
atp12625
Rp12626
(dp12627
g16
VJJR
p12628
sbag5
(g6
g7
(lp12629
g11659
atp12630
Rp12631
(dp12632
g16
VNN
p12633
sbatp12634
Rp12635
(dp12636
g16
VNP
p12637
sbag5
(g6
g7
(lp12638
g5
(g6
g7
(lp12639
Vhelps
p12640
atp12641
Rp12642
(dp12643
g16
VVBZ
p12644
sbag5
(g6
g7
(lp12645
g5
(g6
g7
(lp12646
Vto
p12647
atp12648
Rp12649
(dp12650
g16
VTO
p12651
sbag5
(g6
g7
(lp12652
g5
(g6
g7
(lp12653
g5
(g6
g7
(lp12654
Vbetter
p12655
atp12656
Rp12657
(dp12658
g16
VJJR
p12659
sbag5
(g6
g7
(lp12660
Vdiscriminate
p12661
atp12662
Rp12663
(dp12664
g16
VNNS
p12665
sbatp12666
Rp12667
(dp12668
g16
VNP
p12669
sbag5
(g6
g7
(lp12670
g5
(g6
g7
(lp12671
Vbetween
p12672
atp12673
Rp12674
(dp12675
g16
VIN
p12676
sbag5
(g6
g7
(lp12677
g5
(g6
g7
(lp12678
g5
(g6
g7
(lp12679
Vdense
p12680
atp12681
Rp12682
(dp12683
g16
VJJ
p12684
sbag5
(g6
g7
(lp12685
Vclusters
p12686
atp12687
Rp12688
(dp12689
g16
VNNS
p12690
sbatp12691
Rp12692
(dp12693
g16
VNP
p12694
sbag5
(g6
g7
(lp12695
g5
(g6
g7
(lp12696
g5
(g6
g7
(lp12697
Vwhere
p12698
atp12699
Rp12700
(dp12701
g16
VWRB
p12702
sbatp12703
Rp12704
(dp12705
g16
VWHADVP
p12706
sbag5
(g6
g7
(lp12707
g5
(g6
g7
(lp12708
g5
(g6
g7
(lp12709
Vall
p12710
atp12711
Rp12712
(dp12713
g16
VDT
p12714
sbag5
(g6
g7
(lp12715
Vitems
p12716
atp12717
Rp12718
(dp12719
g16
VNNS
p12720
sbatp12721
Rp12722
(dp12723
g16
VNP
p12724
sbag5
(g6
g7
(lp12725
g5
(g6
g7
(lp12726
Vare
p12727
atp12728
Rp12729
(dp12730
g16
VVBP
p12731
sbag5
(g6
g7
(lp12732
g5
(g6
g7
(lp12733
Vclose
p12734
atp12735
Rp12736
(dp12737
g16
VRB
p12738
sbag5
(g6
g7
(lp12739
Vtogether
p12740
atp12741
Rp12742
(dp12743
g16
VRB
p12744
sbatp12745
Rp12746
(dp12747
g16
VADVP
p12748
sbag5
(g6
g7
(lp12749
g5
(g6
g7
(lp12750
Vfrom
p12751
atp12752
Rp12753
(dp12754
g16
VIN
p12755
sbag5
(g6
g7
(lp12756
g5
(g6
g7
(lp12757
g5
(g6
g7
(lp12758
Vlooser
p12759
atp12760
Rp12761
(dp12762
g16
VJJR
p12763
sbag5
(g6
g7
(lp12764
Vones
p12765
atp12766
Rp12767
(dp12768
g16
VNNS
p12769
sbatp12770
Rp12771
(dp12772
g16
VNP
p12773
sbag5
(g6
g7
(lp12774
g5
(g6
g7
(lp12775
g5
(g6
g7
(lp12776
Vthat
p12777
atp12778
Rp12779
(dp12780
g16
VWDT
p12781
sbatp12782
Rp12783
(dp12784
g16
VWHNP
p12785
sbag5
(g6
g7
(lp12786
g5
(g6
g7
(lp12787
g5
(g6
g7
(lp12788
Vconsist
p12789
atp12790
Rp12791
(dp12792
g16
VVBP
p12793
sbag5
(g6
g7
(lp12794
g5
(g6
g7
(lp12795
Vof
p12796
atp12797
Rp12798
(dp12799
g16
VIN
p12800
sbag5
(g6
g7
(lp12801
g5
(g6
g7
(lp12802
g5
(g6
g7
(lp12803
g288
atp12804
Rp12805
(dp12806
g16
VDT
p12807
sbag5
(g6
g7
(lp12808
Vfew
p12809
atp12810
Rp12811
(dp12812
g16
VJJ
p12813
sbag5
(g6
g7
(lp12814
g1585
atp12815
Rp12816
(dp12817
g16
VNN
p12818
sbag5
(g6
g7
(lp12819
g1591
atp12820
Rp12821
(dp12822
g16
VPOS
p12823
sbatp12824
Rp12825
(dp12826
g16
VNP
p12827
sbag5
(g6
g7
(lp12828
V\u005c
p12829
atp12830
Rp12831
(dp12832
g16
VJJ
p12833
sbag5
(g6
g7
(lp12834
Vu2018
p12835
atp12836
Rp12837
(dp12838
g16
VNNS
p12839
sbatp12840
Rp12841
(dp12842
g16
VNP
p12843
sbatp12844
Rp12845
(dp12846
g16
VPP
p12847
sbatp12848
Rp12849
(dp12850
g16
VVP
p12851
sbatp12852
Rp12853
(dp12854
g16
g160
sbatp12855
Rp12856
(dp12857
g16
VSBAR
p12858
sbatp12859
Rp12860
(dp12861
g16
VNP
p12862
sbatp12863
Rp12864
(dp12865
g16
VPP
p12866
sbatp12867
Rp12868
(dp12869
g16
VVP
p12870
sbatp12871
Rp12872
(dp12873
g16
g160
sbatp12874
Rp12875
(dp12876
g16
VSBAR
p12877
sbatp12878
Rp12879
(dp12880
g16
VNP
p12881
sbatp12882
Rp12883
(dp12884
g16
VPP
p12885
sbag5
(g6
g7
(lp12886
g1591
atp12887
Rp12888
(dp12889
g16
V''
p12890
sbag5
(g6
g7
(lp12891
g5
(g6
g7
(lp12892
g5
(g6
g7
(lp12893
g5
(g6
g7
(lp12894
Vcore
p12895
atp12896
Rp12897
(dp12898
g16
VJJ
p12899
sbag5
(g6
g7
(lp12900
g1585
atp12901
Rp12902
(dp12903
g16
VNN
p12904
sbag5
(g6
g7
(lp12905
g1591
atp12906
Rp12907
(dp12908
g16
VPOS
p12909
sbatp12910
Rp12911
(dp12912
g16
VNP
p12913
sbag5
(g6
g7
(lp12914
V\u005c
p12915
atp12916
Rp12917
(dp12918
g16
VCD
p12919
sbag5
(g6
g7
(lp12920
Vu2019
p12921
atp12922
Rp12923
(dp12924
g16
VJJ
p12925
sbag5
(g6
g7
(lp12926
g1591
atp12927
Rp12928
(dp12929
g16
V''
p12930
sbag5
(g6
g7
(lp12931
Vitems
p12932
atp12933
Rp12934
(dp12935
g16
VNNS
p12936
sbatp12937
Rp12938
(dp12939
g16
VNP
p12940
sbag5
(g6
g7
(lp12941
g5
(g6
g7
(lp12942
Vsurrounded
p12943
atp12944
Rp12945
(dp12946
g16
VVBN
p12947
sbag5
(g6
g7
(lp12948
g5
(g6
g7
(lp12949
Vby
p12950
atp12951
Rp12952
(dp12953
g16
VIN
p12954
sbag5
(g6
g7
(lp12955
g5
(g6
g7
(lp12956
Vmore
p12957
atp12958
Rp12959
(dp12960
g16
VJJR
p12961
sbag5
(g6
g7
(lp12962
Vdistant
p12963
atp12964
Rp12965
(dp12966
g16
VJJ
p12967
sbag5
(g6
g7
(lp12968
Vneighbors
p12969
atp12970
Rp12971
(dp12972
g16
VNNS
p12973
sbatp12974
Rp12975
(dp12976
g16
VNP
p12977
sbatp12978
Rp12979
(dp12980
g16
VPP
p12981
sbatp12982
Rp12983
(dp12984
g16
VVP
p12985
sbatp12986
Rp12987
(dp12988
g16
VNP
p12989
sbatp12990
Rp12991
(dp12992
g16
VNP
p12993
sbatp12994
Rp12995
(dp12996
g16
VPP
p12997
sbatp12998
Rp12999
(dp13000
g16
VVP
p13001
sbatp13002
Rp13003
(dp13004
g16
g160
sbatp13005
Rp13006
(dp13007
g16
VSBAR
p13008
sbatp13009
Rp13010
(dp13011
g16
VVP
p13012
sbatp13013
Rp13014
(dp13015
g16
g160
sbatp13016
Rp13017
(dp13018
g16
VROOT
p13019
sbasg693
(icmyPackage
CorE
p13020
(dp13021
g696
(lp13022
(I0
I4
tp13023
a(I0
I44
tp13024
asg700
g13003
sbsg701
(icmyPackage
CorE
p13025
(dp13026
g696
(lp13027
(I0
I0
tp13028
a(I0
I2
tp13029
asg700
g5
(g6
g7
(lp13030
g12588
ag12595
ag12606
atp13031
Rp13032
(dp13033
g16
g711
sbsbsg712
g9525
sg735
(lp13034
(isxpPackage
sxpSent
p13035
(dp13036
g739
(lp13037
I31
asg741
VThis is arguably because a higher N helps to better discriminate between dense clusters where all items are close together from looser ones that consist of a few u'\u005cu2018' core u'\u005cu2019' items surrounded by more distant neighbors
p13038
sg743
I7
sg728
I99
sg744
I29
sbasba(icmyPackage
CELink
p13039
(dp13040
g3
(lp13041
g5
(g6
g7
(lp13042
g5
(g6
g7
(lp13043
g5
(g6
g7
(lp13044
g5
(g6
g7
(lp13045
VThis
p13046
atp13047
Rp13048
(dp13049
g16
VDT
p13050
sbag5
(g6
g7
(lp13051
Vresult
p13052
atp13053
Rp13054
(dp13055
g16
VNN
p13056
sbatp13057
Rp13058
(dp13059
g16
VNP
p13060
sbag5
(g6
g7
(lp13061
g5
(g6
g7
(lp13062
Villustrates
p13063
atp13064
Rp13065
(dp13066
g16
VVBZ
p13067
sbag5
(g6
g7
(lp13068
g5
(g6
g7
(lp13069
g5
(g6
g7
(lp13070
Vthe
p13071
atp13072
Rp13073
(dp13074
g16
VDT
p13075
sbag5
(g6
g7
(lp13076
Vrole
p13077
atp13078
Rp13079
(dp13080
g16
VNN
p13081
sbatp13082
Rp13083
(dp13084
g16
VNP
p13085
sbag5
(g6
g7
(lp13086
g5
(g6
g7
(lp13087
Vof
p13088
atp13089
Rp13090
(dp13091
g16
VIN
p13092
sbag5
(g6
g7
(lp13093
g5
(g6
g7
(lp13094
g5
(g6
g7
(lp13095
Vtype
p13096
atp13097
Rp13098
(dp13099
g16
VNN
p13100
sbag5
(g6
g7
(lp13101
Vfrequency
p13102
atp13103
Rp13104
(dp13105
g16
VNN
p13106
sbatp13107
Rp13108
(dp13109
g16
VNP
p13110
sbag5
(g6
g7
(lp13111
g5
(g6
g7
(lp13112
Vin
p13113
atp13114
Rp13115
(dp13116
g16
VIN
p13117
sbag5
(g6
g7
(lp13118
g5
(g6
g7
(lp13119
Vsyntactic
p13120
atp13121
Rp13122
(dp13123
g16
VJJ
p13124
sbag5
(g6
g7
(lp13125
Vproductivity
p13126
atp13127
Rp13128
(dp13129
g16
VNN
p13130
sbatp13131
Rp13132
(dp13133
g16
VNP
p13134
sbatp13135
Rp13136
(dp13137
g16
VPP
p13138
sbatp13139
Rp13140
(dp13141
g16
VNP
p13142
sbatp13143
Rp13144
(dp13145
g16
VPP
p13146
sbag5
(g6
g7
(lp13147
g5
(g6
g7
(lp13148
g5
(g6
g7
(lp13149
g5
(g6
g7
(lp13150
g5
(g6
g7
(lp13151
g288
atp13152
Rp13153
(dp13154
g16
VDT
p13155
sbag5
(g6
g7
(lp13156
Vmeasure
p13157
atp13158
Rp13159
(dp13160
g16
VNN
p13161
sbatp13162
Rp13163
(dp13164
g16
VNP
p13165
sbag5
(g6
g7
(lp13166
g5
(g6
g7
(lp13167
Vof
p13168
atp13169
Rp13170
(dp13171
g16
VIN
p13172
sbag5
(g6
g7
(lp13173
g5
(g6
g7
(lp13174
g5
(g6
g7
(lp13175
Vdensity
p13176
atp13177
Rp13178
(dp13179
g16
VNN
p13180
sbatp13181
Rp13182
(dp13183
g16
VNP
p13184
sbag5
(g6
g7
(lp13185
g5
(g6
g7
(lp13186
g5
(g6
g7
(lp13187
Vthat
p13188
atp13189
Rp13190
(dp13191
g16
VWDT
p13192
sbatp13193
Rp13194
(dp13195
g16
VWHNP
p13196
sbag5
(g6
g7
(lp13197
g5
(g6
g7
(lp13198
g5
(g6
g7
(lp13199
Vis
p13200
atp13201
Rp13202
(dp13203
g16
VVBZ
p13204
sbag5
(g6
g7
(lp13205
g5
(g6
g7
(lp13206
Vsupported
p13207
atp13208
Rp13209
(dp13210
g16
VVBN
p13211
sbag5
(g6
g7
(lp13212
g5
(g6
g7
(lp13213
Vby
p13214
atp13215
Rp13216
(dp13217
g16
VIN
p13218
sbag5
(g6
g7
(lp13219
g5
(g6
g7
(lp13220
g5
(g6
g7
(lp13221
g288
atp13222
Rp13223
(dp13224
g16
VDT
p13225
sbag5
(g6
g7
(lp13226
Vhigher
p13227
atp13228
Rp13229
(dp13230
g16
VJJR
p13231
sbag5
(g6
g7
(lp13232
Vnumber
p13233
atp13234
Rp13235
(dp13236
g16
VNN
p13237
sbatp13238
Rp13239
(dp13240
g16
VNP
p13241
sbag5
(g6
g7
(lp13242
g5
(g6
g7
(lp13243
Vof
p13244
atp13245
Rp13246
(dp13247
g16
VIN
p13248
sbag5
(g6
g7
(lp13249
g5
(g6
g7
(lp13250
Vtypes
p13251
atp13252
Rp13253
(dp13254
g16
VNNS
p13255
sbatp13256
Rp13257
(dp13258
g16
VNP
p13259
sbatp13260
Rp13261
(dp13262
g16
VPP
p13263
sbatp13264
Rp13265
(dp13266
g16
VNP
p13267
sbatp13268
Rp13269
(dp13270
g16
VPP
p13271
sbatp13272
Rp13273
(dp13274
g16
VVP
p13275
sbatp13276
Rp13277
(dp13278
g16
VVP
p13279
sbatp13280
Rp13281
(dp13282
g16
g160
sbatp13283
Rp13284
(dp13285
g16
VSBAR
p13286
sbatp13287
Rp13288
(dp13289
g16
VNP
p13290
sbatp13291
Rp13292
(dp13293
g16
VPP
p13294
sbatp13295
Rp13296
(dp13297
g16
VNP
p13298
sbag5
(g6
g7
(lp13299
g5
(g6
g7
(lp13300
Vmakes
p13301
atp13302
Rp13303
(dp13304
g16
VVBZ
p13305
sbag5
(g6
g7
(lp13306
g5
(g6
g7
(lp13307
Vbetter
p13308
atp13309
Rp13310
(dp13311
g16
VJJR
p13312
sbag5
(g6
g7
(lp13313
Vprediction
p13314
atp13315
Rp13316
(dp13317
g16
VNN
p13318
sbatp13319
Rp13320
(dp13321
g16
VNP
p13322
sbag5
(g6
g7
(lp13323
g5
(g6
g7
(lp13324
Vthan
p13325
atp13326
Rp13327
(dp13328
g16
VIN
p13329
sbag5
(g6
g7
(lp13330
g5
(g6
g7
(lp13331
g5
(g6
g7
(lp13332
g288
atp13333
Rp13334
(dp13335
g16
VDT
p13336
sbag5
(g6
g7
(lp13337
Vmeasure
p13338
atp13339
Rp13340
(dp13341
g16
VNN
p13342
sbatp13343
Rp13344
(dp13345
g16
VNP
p13346
sbag5
(g6
g7
(lp13347
g5
(g6
g7
(lp13348
Vsupported
p13349
atp13350
Rp13351
(dp13352
g16
VVBN
p13353
sbag5
(g6
g7
(lp13354
g5
(g6
g7
(lp13355
Vby
p13356
atp13357
Rp13358
(dp13359
g16
VIN
p13360
sbag5
(g6
g7
(lp13361
g5
(g6
g7
(lp13362
Vfewer
p13363
atp13364
Rp13365
(dp13366
g16
VJJR
p13367
sbag5
(g6
g7
(lp13368
Vtypes
p13369
atp13370
Rp13371
(dp13372
g16
VNNS
p13373
sbatp13374
Rp13375
(dp13376
g16
VNP
p13377
sbatp13378
Rp13379
(dp13380
g16
VPP
p13381
sbatp13382
Rp13383
(dp13384
g16
VVP
p13385
sbatp13386
Rp13387
(dp13388
g16
VNP
p13389
sbatp13390
Rp13391
(dp13392
g16
VPP
p13393
sbatp13394
Rp13395
(dp13396
g16
VVP
p13397
sbatp13398
Rp13399
(dp13400
g16
g160
sbatp13401
Rp13402
(dp13403
g16
VSBAR
p13404
sbatp13405
Rp13406
(dp13407
g16
VNP
p13408
sbatp13409
Rp13410
(dp13411
g16
VVP
p13412
sbatp13413
Rp13414
(dp13415
g16
g160
sbatp13416
Rp13417
(dp13418
g16
VROOT
p13419
sbag5
(g6
g7
(lp13420
g5
(g6
g7
(lp13421
g5
(g6
g7
(lp13422
g5
(g6
g7
(lp13423
g5
(g6
g7
(lp13424
VThis
p13425
atp13426
Rp13427
(dp13428
g16
VDT
p13429
sbatp13430
Rp13431
(dp13432
g16
VNP
p13433
sbag5
(g6
g7
(lp13434
g5
(g6
g7
(lp13435
Vmeans
p13436
atp13437
Rp13438
(dp13439
g16
VVBZ
p13440
sbag5
(g6
g7
(lp13441
g5
(g6
g7
(lp13442
g5
(g6
g7
(lp13443
Vthat
p13444
atp13445
Rp13446
(dp13447
g16
VDT
p13448
sbag5
(g6
g7
(lp13449
Vproductivity
p13450
atp13451
Rp13452
(dp13453
g16
VNN
p13454
sbatp13455
Rp13456
(dp13457
g16
VNP
p13458
sbag5
(g6
g7
(lp13459
g5
(g6
g7
(lp13460
Vnot
p13461
atp13462
Rp13463
(dp13464
g16
VRB
p13465
sbag5
(g6
g7
(lp13466
Vonly
p13467
atp13468
Rp13469
(dp13470
g16
VJJ
p13471
sbatp13472
Rp13473
(dp13474
g16
VCONJP
p13475
sbag5
(g6
g7
(lp13476
g5
(g6
g7
(lp13477
Vhinges
p13478
atp13479
Rp13480
(dp13481
g16
VNNS
p13482
sbatp13483
Rp13484
(dp13485
g16
VNP
p13486
sbatp13487
Rp13488
(dp13489
g16
VNP
p13490
sbag5
(g6
g7
(lp13491
g5
(g6
g7
(lp13492
Von
p13493
atp13494
Rp13495
(dp13496
g16
VIN
p13497
sbag5
(g6
g7
(lp13498
g5
(g6
g7
(lp13499
g5
(g6
g7
(lp13500
Vhow
p13501
atp13502
Rp13503
(dp13504
g16
VWRB
p13505
sbatp13506
Rp13507
(dp13508
g16
VWHADVP
p13509
sbag5
(g6
g7
(lp13510
g5
(g6
g7
(lp13511
g5
(g6
g7
(lp13512
Vthe
p13513
atp13514
Rp13515
(dp13516
g16
VDT
p13517
sbag5
(g6
g7
(lp13518
Vexisting
p13519
atp13520
Rp13521
(dp13522
g16
VVBG
p13523
sbag5
(g6
g7
(lp13524
Vsemantic
p13525
atp13526
Rp13527
(dp13528
g16
VJJ
p13529
sbag5
(g6
g7
(lp13530
Vspace
p13531
atp13532
Rp13533
(dp13534
g16
VNN
p13535
sbatp13536
Rp13537
(dp13538
g16
VNP
p13539
sbag5
(g6
g7
(lp13540
g5
(g6
g7
(lp13541
Vrelates
p13542
atp13543
Rp13544
(dp13545
g16
VVBZ
p13546
sbag5
(g6
g7
(lp13547
g5
(g6
g7
(lp13548
Vto
p13549
atp13550
Rp13551
(dp13552
g16
VTO
p13553
sbag5
(g6
g7
(lp13554
g5
(g6
g7
(lp13555
Vthe
p13556
atp13557
Rp13558
(dp13559
g16
VDT
p13560
sbag5
(g6
g7
(lp13561
Vnovel
p13562
atp13563
Rp13564
(dp13565
g16
VNN
p13566
sbag5
(g6
g7
(lp13567
Vitem
p13568
atp13569
Rp13570
(dp13571
g16
VNN
p13572
sbatp13573
Rp13574
(dp13575
g16
VNP
p13576
sbatp13577
Rp13578
(dp13579
g16
VPP
p13580
sbatp13581
Rp13582
(dp13583
g16
VVP
p13584
sbatp13585
Rp13586
(dp13587
g16
g160
sbatp13588
Rp13589
(dp13590
g16
VSBAR
p13591
sbatp13592
Rp13593
(dp13594
g16
VPP
p13595
sbatp13596
Rp13597
(dp13598
g16
VVP
p13599
sbatp13600
Rp13601
(dp13602
g16
g160
sbag5
(g6
g7
(lp13603
g166
atp13604
Rp13605
(dp13606
g16
g166
sbag5
(g6
g7
(lp13607
g5
(g6
g7
(lp13608
Vit
p13609
atp13610
Rp13611
(dp13612
g16
VPRP
p13613
sbatp13614
Rp13615
(dp13616
g16
VNP
p13617
sbag5
(g6
g7
(lp13618
g5
(g6
g7
(lp13619
Valso
p13620
atp13621
Rp13622
(dp13623
g16
VRB
p13624
sbatp13625
Rp13626
(dp13627
g16
VADVP
p13628
sbag5
(g6
g7
(lp13629
g5
(g6
g7
(lp13630
Voccurs
p13631
atp13632
Rp13633
(dp13634
g16
VVBZ
p13635
sbag5
(g6
g7
(lp13636
g5
(g6
g7
(lp13637
Vmore
p13638
atp13639
Rp13640
(dp13641
g16
VRBR
p13642
sbatp13643
Rp13644
(dp13645
g16
VADVP
p13646
sbag5
(g6
g7
(lp13647
g5
(g6
g7
(lp13648
Vreliably
p13649
atp13650
Rp13651
(dp13652
g16
VRB
p13653
sbatp13654
Rp13655
(dp13656
g16
VADVP
p13657
sbag5
(g6
g7
(lp13658
g5
(g6
g7
(lp13659
g5
(g6
g7
(lp13660
Vwhen
p13661
atp13662
Rp13663
(dp13664
g16
VWRB
p13665
sbatp13666
Rp13667
(dp13668
g16
VWHADVP
p13669
sbag5
(g6
g7
(lp13670
g5
(g6
g7
(lp13671
g5
(g6
g7
(lp13672
Vthis
p13673
atp13674
Rp13675
(dp13676
g16
VDT
p13677
sbag5
(g6
g7
(lp13678
Vrelation
p13679
atp13680
Rp13681
(dp13682
g16
VNN
p13683
sbatp13684
Rp13685
(dp13686
g16
VNP
p13687
sbag5
(g6
g7
(lp13688
g5
(g6
g7
(lp13689
Vis
p13690
atp13691
Rp13692
(dp13693
g16
VVBZ
p13694
sbag5
(g6
g7
(lp13695
g5
(g6
g7
(lp13696
Vattested
p13697
atp13698
Rp13699
(dp13700
g16
VVBN
p13701
sbag5
(g6
g7
(lp13702
g5
(g6
g7
(lp13703
Vby
p13704
atp13705
Rp13706
(dp13707
g16
VIN
p13708
sbag5
(g6
g7
(lp13709
g5
(g6
g7
(lp13710
Vmore
p13711
atp13712
Rp13713
(dp13714
g16
VJJR
p13715
sbag5
(g6
g7
(lp13716
Vitems
p13717
atp13718
Rp13719
(dp13720
g16
VNNS
p13721
sbatp13722
Rp13723
(dp13724
g16
VNP
p13725
sbatp13726
Rp13727
(dp13728
g16
VPP
p13729
sbatp13730
Rp13731
(dp13732
g16
VVP
p13733
sbatp13734
Rp13735
(dp13736
g16
VVP
p13737
sbatp13738
Rp13739
(dp13740
g16
g160
sbatp13741
Rp13742
(dp13743
g16
VSBAR
p13744
sbatp13745
Rp13746
(dp13747
g16
VVP
p13748
sbatp13749
Rp13750
(dp13751
g16
g160
sbatp13752
Rp13753
(dp13754
g16
VROOT
p13755
sbasg693
(icmyPackage
CorE
p13756
(dp13757
g696
(lp13758
(I0
I0
tp13759
a(I0
I33
tp13760
asg700
g13417
sbsg701
(icmyPackage
CorE
p13761
(dp13762
g696
(lp13763
(I1
I2
tp13764
a(I1
I17
tp13765
asg700
g5
(g6
g7
(lp13766
g13488
ag13593
atp13767
Rp13768
(dp13769
g16
g711
sbsbsg712
(icmyPackage
pattern
p13770
(dp13771
g715
I0
sg716
I1
sg717
(lp13772
(lp13773
(lp13774
S'imply'
p13775
aS'implies'
p13776
aS'implied'
p13777
aS'mean'
p13778
aS'means'
p13779
aS'indicate'
p13780
aS'indicates'
p13781
aS'indicated'
p13782
aaasg723
(lp13783
I4
aI1
aI1
asg725
(lp13784
S' A little interaction helps a lot in understanding since interactions enable individuals to co-experience in multiple spaces. This implies an approach to improving the current research in many areas such as the semantic web, natural language processing, and text understanding by adding a little interaction.'
p13785
asg728
I94
sg729
(lp13786
(lp13787
S'&C'
p13788
aS'(,/./;/--)'
p13789
aS'&this'
p13790
aS'(&adj)'
p13791
aS'(&N)'
p13792
aS'(&CAN/have/has/had)'
p13793
aS'(&ADV)'
p13794
aa(lp13795
S'&NP@R@'
p13796
aasbsg735
(lp13797
(isxpPackage
sxpSent
p13798
(dp13799
g739
(lp13800
I32
asg741
VThis result illustrates the role of type frequency in syntactic productivity a measure of density that is supported by a higher number of types makes better prediction than a measure supported by fewer types
p13801
sg743
I7
sg728
I100
sg744
I29
sba(isxpPackage
sxpSent
p13802
(dp13803
g739
(lp13804
I32
asg741
VThis means that productivity not only hinges on how the existing semantic space relates to the novel item, it also occurs more reliably when this relation is attested by more items
p13805
sg743
I7
sg728
I101
sg744
I29
sbasba(icmyPackage
CELink
p13806
(dp13807
g3
(lp13808
g5
(g6
g7
(lp13809
g5
(g6
g7
(lp13810
g5
(g6
g7
(lp13811
g5
(g6
g7
(lp13812
VThese
p13813
atp13814
Rp13815
(dp13816
g16
VDT
p13817
sbag5
(g6
g7
(lp13818
Vfinding
p13819
atp13820
Rp13821
(dp13822
g16
VNN
p13823
sbatp13824
Rp13825
(dp13826
g16
VNP
p13827
sbag5
(g6
g7
(lp13828
g5
(g6
g7
(lp13829
Vsupport
p13830
atp13831
Rp13832
(dp13833
g16
VVBP
p13834
sbag5
(g6
g7
(lp13835
g5
(g6
g7
(lp13836
Vthe
p13837
atp13838
Rp13839
(dp13840
g16
VDT
p13841
sbag5
(g6
g7
(lp13842
Vview
p13843
atp13844
Rp13845
(dp13846
g16
VNN
p13847
sbatp13848
Rp13849
(dp13850
g16
VNP
p13851
sbag5
(g6
g7
(lp13852
g5
(g6
g7
(lp13853
Vthat
p13854
atp13855
Rp13856
(dp13857
g16
VIN
p13858
sbag5
(g6
g7
(lp13859
g5
(g6
g7
(lp13860
g5
(g6
g7
(lp13861
g5
(g6
g7
(lp13862
Vsemantic
p13863
atp13864
Rp13865
(dp13866
g16
VJJ
p13867
sbag5
(g6
g7
(lp13868
Vdensity
p13869
atp13870
Rp13871
(dp13872
g16
VNN
p13873
sbag5
(g6
g7
(lp13874
Vand
p13875
atp13876
Rp13877
(dp13878
g16
VCC
p13879
sbag5
(g6
g7
(lp13880
Vtype
p13881
atp13882
Rp13883
(dp13884
g16
VNN
p13885
sbag5
(g6
g7
(lp13886
Vfrequency
p13887
atp13888
Rp13889
(dp13890
g16
VNN
p13891
sbatp13892
Rp13893
(dp13894
g16
VNP
p13895
sbag5
(g6
g7
(lp13896
g166
atp13897
Rp13898
(dp13899
g16
g166
sbag5
(g6
g7
(lp13900
g5
(g6
g7
(lp13901
Vwhile
p13902
atp13903
Rp13904
(dp13905
g16
VIN
p13906
sbag5
(g6
g7
(lp13907
g5
(g6
g7
(lp13908
g5
(g6
g7
(lp13909
Vthey
p13910
atp13911
Rp13912
(dp13913
g16
VPRP
p13914
sbatp13915
Rp13916
(dp13917
g16
VNP
p13918
sbag5
(g6
g7
(lp13919
Vboth
p13920
atp13921
Rp13922
(dp13923
g16
VDT
p13924
sbag5
(g6
g7
(lp13925
g5
(g6
g7
(lp13926
g5
(g6
g7
(lp13927
Vpositively
p13928
atp13929
Rp13930
(dp13931
g16
VRB
p13932
sbatp13933
Rp13934
(dp13935
g16
VADVP
p13936
sbag5
(g6
g7
(lp13937
Vinfluence
p13938
atp13939
Rp13940
(dp13941
g16
VVBP
p13942
sbag5
(g6
g7
(lp13943
g5
(g6
g7
(lp13944
Vsyntactic
p13945
atp13946
Rp13947
(dp13948
g16
VJJ
p13949
sbag5
(g6
g7
(lp13950
Vproductivity
p13951
atp13952
Rp13953
(dp13954
g16
VNN
p13955
sbatp13956
Rp13957
(dp13958
g16
VNP
p13959
sbatp13960
Rp13961
(dp13962
g16
VVP
p13963
sbatp13964
Rp13965
(dp13966
g16
g160
sbatp13967
Rp13968
(dp13969
g16
VSBAR
p13970
sbag5
(g6
g7
(lp13971
g166
atp13972
Rp13973
(dp13974
g16
g166
sbatp13975
Rp13976
(dp13977
g16
VNP
p13978
sbag5
(g6
g7
(lp13979
g5
(g6
g7
(lp13980
Vdo
p13981
atp13982
Rp13983
(dp13984
g16
VVBP
p13985
sbag5
(g6
g7
(lp13986
g5
(g6
g7
(lp13987
Vso
p13988
atp13989
Rp13990
(dp13991
g16
VIN
p13992
sbag5
(g6
g7
(lp13993
g5
(g6
g7
(lp13994
g5
(g6
g7
(lp13995
Vin
p13996
atp13997
Rp13998
(dp13999
g16
VIN
p14000
sbag5
(g6
g7
(lp14001
g5
(g6
g7
(lp14002
Vdifferent
p14003
atp14004
Rp14005
(dp14006
g16
VJJ
p14007
sbag5
(g6
g7
(lp14008
Vways
p14009
atp14010
Rp14011
(dp14012
g16
VNNS
p14013
sbatp14014
Rp14015
(dp14016
g16
VNP
p14017
sbatp14018
Rp14019
(dp14020
g16
VPP
p14021
sbag5
(g6
g7
(lp14022
g5
(g6
g7
(lp14023
Vdensity
p14024
atp14025
Rp14026
(dp14027
g16
VNN
p14028
sbatp14029
Rp14030
(dp14031
g16
VNP
p14032
sbag5
(g6
g7
(lp14033
g5
(g6
g7
(lp14034
Vdefines
p14035
atp14036
Rp14037
(dp14038
g16
VVBZ
p14039
sbag5
(g6
g7
(lp14040
g5
(g6
g7
(lp14041
g5
(g6
g7
(lp14042
g5
(g6
g7
(lp14043
Vthe
p14044
atp14045
Rp14046
(dp14047
g16
VDT
p14048
sbag5
(g6
g7
(lp14049
Vnecessary
p14050
atp14051
Rp14052
(dp14053
g16
VJJ
p14054
sbag5
(g6
g7
(lp14055
Vconditions
p14056
atp14057
Rp14058
(dp14059
g16
VNNS
p14060
sbatp14061
Rp14062
(dp14063
g16
VNP
p14064
sbag5
(g6
g7
(lp14065
g5
(g6
g7
(lp14066
Vfor
p14067
atp14068
Rp14069
(dp14070
g16
VIN
p14071
sbag5
(g6
g7
(lp14072
g5
(g6
g7
(lp14073
g288
atp14074
Rp14075
(dp14076
g16
VDT
p14077
sbag5
(g6
g7
(lp14078
Vnew
p14079
atp14080
Rp14081
(dp14082
g16
VJJ
p14083
sbag5
(g6
g7
(lp14084
Vcoinage
p14085
atp14086
Rp14087
(dp14088
g16
VNN
p14089
sbatp14090
Rp14091
(dp14092
g16
VNP
p14093
sbatp14094
Rp14095
(dp14096
g16
VPP
p14097
sbatp14098
Rp14099
(dp14100
g16
VNP
p14101
sbag5
(g6
g7
(lp14102
g5
(g6
g7
(lp14103
Vto
p14104
atp14105
Rp14106
(dp14107
g16
VTO
p14108
sbag5
(g6
g7
(lp14109
g5
(g6
g7
(lp14110
Voccur
p14111
atp14112
Rp14113
(dp14114
g16
VVB
p14115
sbatp14116
Rp14117
(dp14118
g16
VVP
p14119
sbatp14120
Rp14121
(dp14122
g16
VVP
p14123
sbatp14124
Rp14125
(dp14126
g16
g160
sbatp14127
Rp14128
(dp14129
g16
VVP
p14130
sbatp14131
Rp14132
(dp14133
g16
g160
sbatp14134
Rp14135
(dp14136
g16
VSBAR
p14137
sbatp14138
Rp14139
(dp14140
g16
VVP
p14141
sbatp14142
Rp14143
(dp14144
g16
g160
sbatp14145
Rp14146
(dp14147
g16
VSBAR
p14148
sbag5
(g6
g7
(lp14149
g166
atp14150
Rp14151
(dp14152
g16
g166
sbag5
(g6
g7
(lp14153
g5
(g6
g7
(lp14154
Vwhile
p14155
atp14156
Rp14157
(dp14158
g16
VIN
p14159
sbag5
(g6
g7
(lp14160
g5
(g6
g7
(lp14161
g5
(g6
g7
(lp14162
Vtype
p14163
atp14164
Rp14165
(dp14166
g16
VNN
p14167
sbag5
(g6
g7
(lp14168
Vfrequency
p14169
atp14170
Rp14171
(dp14172
g16
VNN
p14173
sbatp14174
Rp14175
(dp14176
g16
VNP
p14177
sbag5
(g6
g7
(lp14178
g5
(g6
g7
(lp14179
Vincreases
p14180
atp14181
Rp14182
(dp14183
g16
VVBZ
p14184
sbag5
(g6
g7
(lp14185
g5
(g6
g7
(lp14186
Vthe
p14187
atp14188
Rp14189
(dp14190
g16
VDT
p14191
sbag5
(g6
g7
(lp14192
Vconfidence
p14193
atp14194
Rp14195
(dp14196
g16
VNN
p14197
sbatp14198
Rp14199
(dp14200
g16
VNP
p14201
sbag5
(g6
g7
(lp14202
g5
(g6
g7
(lp14203
Vthat
p14204
atp14205
Rp14206
(dp14207
g16
VIN
p14208
sbag5
(g6
g7
(lp14209
g5
(g6
g7
(lp14210
g5
(g6
g7
(lp14211
Vthis
p14212
atp14213
Rp14214
(dp14215
g16
VDT
p14216
sbag5
(g6
g7
(lp14217
Vcoinage
p14218
atp14219
Rp14220
(dp14221
g16
VNN
p14222
sbatp14223
Rp14224
(dp14225
g16
VNP
p14226
sbag5
(g6
g7
(lp14227
g5
(g6
g7
(lp14228
Vis
p14229
atp14230
Rp14231
(dp14232
g16
VVBZ
p14233
sbag5
(g6
g7
(lp14234
g5
(g6
g7
(lp14235
Vindeed
p14236
atp14237
Rp14238
(dp14239
g16
VRB
p14240
sbatp14241
Rp14242
(dp14243
g16
VADVP
p14244
sbag5
(g6
g7
(lp14245
g5
(g6
g7
(lp14246
Vpossible
p14247
atp14248
Rp14249
(dp14250
g16
VJJ
p14251
sbatp14252
Rp14253
(dp14254
g16
VADJP
p14255
sbatp14256
Rp14257
(dp14258
g16
VVP
p14259
sbatp14260
Rp14261
(dp14262
g16
g160
sbatp14263
Rp14264
(dp14265
g16
VSBAR
p14266
sbatp14267
Rp14268
(dp14269
g16
VVP
p14270
sbatp14271
Rp14272
(dp14273
g16
g160
sbatp14274
Rp14275
(dp14276
g16
VSBAR
p14277
sbatp14278
Rp14279
(dp14280
g16
VVP
p14281
sbatp14282
Rp14283
(dp14284
g16
g160
sbatp14285
Rp14286
(dp14287
g16
VROOT
p14288
sbasg693
(icmyPackage
CorE
p14289
(dp14290
g696
(lp14291
(I0
I0
tp14292
a(I0
I20
tp14293
asg700
g5
(g6
g7
(lp14294
g13825
ag13832
ag13849
ag13856
ag13976
ag13983
atp14295
Rp14296
(dp14297
g16
g711
sbsbsg701
(icmyPackage
CorE
p14298
(dp14299
g696
(lp14300
(I0
I22
tp14301
a(I0
I48
tp14302
asg700
g5
(g6
g7
(lp14303
g14132
ag14151
ag14275
atp14304
Rp14305
(dp14306
g16
g711
sbsbsg712
g9046
sg735
(lp14307
(isxpPackage
sxpSent
p14308
(dp14309
g739
(lp14310
I33
asg741
VThese finding support the view that semantic density and type frequency, while they both positively influence syntactic productivity, do so in different ways density defines the necessary conditions for a new coinage to occur, while type frequency increases the confidence that this coinage is indeed possible
p14311
sg743
I7
sg728
I102
sg744
I29
sbasba(icmyPackage
CELink
p14312
(dp14313
g3
(lp14314
g5
(g6
g7
(lp14315
g5
(g6
g7
(lp14316
g5
(g6
g7
(lp14317
g5
(g6
g7
(lp14318
g5
(g6
g7
(lp14319
VUsing
p14320
atp14321
Rp14322
(dp14323
g16
VVBG
p14324
sbag5
(g6
g7
(lp14325
g5
(g6
g7
(lp14326
g5
(g6
g7
(lp14327
Vmultidimensional
p14328
atp14329
Rp14330
(dp14331
g16
VJJ
p14332
sbag5
(g6
g7
(lp14333
Vscaling
p14334
atp14335
Rp14336
(dp14337
g16
VNN
p14338
sbatp14339
Rp14340
(dp14341
g16
VNP
p14342
sbag5
(g6
g7
(lp14343
Vand
p14344
atp14345
Rp14346
(dp14347
g16
VCC
p14348
sbag5
(g6
g7
(lp14349
g5
(g6
g7
(lp14350
Vlogistic
p14351
atp14352
Rp14353
(dp14354
g16
VJJ
p14355
sbag5
(g6
g7
(lp14356
Vregression
p14357
atp14358
Rp14359
(dp14360
g16
VNN
p14361
sbatp14362
Rp14363
(dp14364
g16
VNP
p14365
sbatp14366
Rp14367
(dp14368
g16
VNP
p14369
sbatp14370
Rp14371
(dp14372
g16
VVP
p14373
sbatp14374
Rp14375
(dp14376
g16
g160
sbag5
(g6
g7
(lp14377
g166
atp14378
Rp14379
(dp14380
g16
g166
sbag5
(g6
g7
(lp14381
g5
(g6
g7
(lp14382
Vit
p14383
atp14384
Rp14385
(dp14386
g16
VPRP
p14387
sbatp14388
Rp14389
(dp14390
g16
VNP
p14391
sbag5
(g6
g7
(lp14392
g5
(g6
g7
(lp14393
Vwas
p14394
atp14395
Rp14396
(dp14397
g16
VVBD
p14398
sbag5
(g6
g7
(lp14399
g5
(g6
g7
(lp14400
Vshown
p14401
atp14402
Rp14403
(dp14404
g16
VVBN
p14405
sbag5
(g6
g7
(lp14406
g5
(g6
g7
(lp14407
Vthat
p14408
atp14409
Rp14410
(dp14411
g16
VIN
p14412
sbag5
(g6
g7
(lp14413
g5
(g6
g7
(lp14414
g5
(g6
g7
(lp14415
g5
(g6
g7
(lp14416
Vthe
p14417
atp14418
Rp14419
(dp14420
g16
VDT
p14421
sbag5
(g6
g7
(lp14422
Voccurrence
p14423
atp14424
Rp14425
(dp14426
g16
VNN
p14427
sbatp14428
Rp14429
(dp14430
g16
VNP
p14431
sbag5
(g6
g7
(lp14432
g5
(g6
g7
(lp14433
Vof
p14434
atp14435
Rp14436
(dp14437
g16
VIN
p14438
sbag5
(g6
g7
(lp14439
g5
(g6
g7
(lp14440
g5
(g6
g7
(lp14441
Vnew
p14442
atp14443
Rp14444
(dp14445
g16
VJJ
p14446
sbag5
(g6
g7
(lp14447
Vitems
p14448
atp14449
Rp14450
(dp14451
g16
VNNS
p14452
sbatp14453
Rp14454
(dp14455
g16
VNP
p14456
sbag5
(g6
g7
(lp14457
g5
(g6
g7
(lp14458
Vthroughout
p14459
atp14460
Rp14461
(dp14462
g16
VIN
p14463
sbag5
(g6
g7
(lp14464
g5
(g6
g7
(lp14465
g5
(g6
g7
(lp14466
Vthe
p14467
atp14468
Rp14469
(dp14470
g16
VDT
p14471
sbag5
(g6
g7
(lp14472
Vhistory
p14473
atp14474
Rp14475
(dp14476
g16
VNN
p14477
sbatp14478
Rp14479
(dp14480
g16
VNP
p14481
sbag5
(g6
g7
(lp14482
g5
(g6
g7
(lp14483
Vof
p14484
atp14485
Rp14486
(dp14487
g16
VIN
p14488
sbag5
(g6
g7
(lp14489
g5
(g6
g7
(lp14490
Vthe
p14491
atp14492
Rp14493
(dp14494
g16
VDT
p14495
sbag5
(g6
g7
(lp14496
Vconstruction
p14497
atp14498
Rp14499
(dp14500
g16
VNN
p14501
sbatp14502
Rp14503
(dp14504
g16
VNP
p14505
sbatp14506
Rp14507
(dp14508
g16
VPP
p14509
sbatp14510
Rp14511
(dp14512
g16
VNP
p14513
sbatp14514
Rp14515
(dp14516
g16
VPP
p14517
sbatp14518
Rp14519
(dp14520
g16
VNP
p14521
sbatp14522
Rp14523
(dp14524
g16
VPP
p14525
sbatp14526
Rp14527
(dp14528
g16
VNP
p14529
sbag5
(g6
g7
(lp14530
g5
(g6
g7
(lp14531
Vcan
p14532
atp14533
Rp14534
(dp14535
g16
VMD
p14536
sbag5
(g6
g7
(lp14537
g5
(g6
g7
(lp14538
Vbe
p14539
atp14540
Rp14541
(dp14542
g16
VVB
p14543
sbag5
(g6
g7
(lp14544
g5
(g6
g7
(lp14545
Vpredicted
p14546
atp14547
Rp14548
(dp14549
g16
VVBN
p14550
sbag5
(g6
g7
(lp14551
g5
(g6
g7
(lp14552
Vby
p14553
atp14554
Rp14555
(dp14556
g16
VIN
p14557
sbag5
(g6
g7
(lp14558
g5
(g6
g7
(lp14559
g5
(g6
g7
(lp14560
Vthe
p14561
atp14562
Rp14563
(dp14564
g16
VDT
p14565
sbag5
(g6
g7
(lp14566
Vdensity
p14567
atp14568
Rp14569
(dp14570
g16
VNN
p14571
sbatp14572
Rp14573
(dp14574
g16
VNP
p14575
sbag5
(g6
g7
(lp14576
g5
(g6
g7
(lp14577
Vof
p14578
atp14579
Rp14580
(dp14581
g16
VIN
p14582
sbag5
(g6
g7
(lp14583
g5
(g6
g7
(lp14584
g5
(g6
g7
(lp14585
Vthe
p14586
atp14587
Rp14588
(dp14589
g16
VDT
p14590
sbag5
(g6
g7
(lp14591
Vsemantic
p14592
atp14593
Rp14594
(dp14595
g16
VJJ
p14596
sbag5
(g6
g7
(lp14597
Vspace
p14598
atp14599
Rp14600
(dp14601
g16
VNN
p14602
sbatp14603
Rp14604
(dp14605
g16
VNP
p14606
sbag5
(g6
g7
(lp14607
g5
(g6
g7
(lp14608
Vin
p14609
atp14610
Rp14611
(dp14612
g16
VIN
p14613
sbag5
(g6
g7
(lp14614
g5
(g6
g7
(lp14615
g5
(g6
g7
(lp14616
Vthe
p14617
atp14618
Rp14619
(dp14620
g16
VDT
p14621
sbag5
(g6
g7
(lp14622
Vneighborhood
p14623
atp14624
Rp14625
(dp14626
g16
VNN
p14627
sbatp14628
Rp14629
(dp14630
g16
VNP
p14631
sbag5
(g6
g7
(lp14632
g5
(g6
g7
(lp14633
Vof
p14634
atp14635
Rp14636
(dp14637
g16
VIN
p14638
sbag5
(g6
g7
(lp14639
g5
(g6
g7
(lp14640
g5
(g6
g7
(lp14641
Vthese
p14642
atp14643
Rp14644
(dp14645
g16
VDT
p14646
sbag5
(g6
g7
(lp14647
Vitems
p14648
atp14649
Rp14650
(dp14651
g16
VNNS
p14652
sbatp14653
Rp14654
(dp14655
g16
VNP
p14656
sbag5
(g6
g7
(lp14657
g5
(g6
g7
(lp14658
Vin
p14659
atp14660
Rp14661
(dp14662
g16
VIN
p14663
sbag5
(g6
g7
(lp14664
g5
(g6
g7
(lp14665
Vprior
p14666
atp14667
Rp14668
(dp14669
g16
VJJ
p14670
sbag5
(g6
g7
(lp14671
Vusage
p14672
atp14673
Rp14674
(dp14675
g16
VNN
p14676
sbatp14677
Rp14678
(dp14679
g16
VNP
p14680
sbatp14681
Rp14682
(dp14683
g16
VPP
p14684
sbatp14685
Rp14686
(dp14687
g16
VNP
p14688
sbatp14689
Rp14690
(dp14691
g16
VPP
p14692
sbatp14693
Rp14694
(dp14695
g16
VNP
p14696
sbatp14697
Rp14698
(dp14699
g16
VPP
p14700
sbatp14701
Rp14702
(dp14703
g16
VNP
p14704
sbatp14705
Rp14706
(dp14707
g16
VPP
p14708
sbatp14709
Rp14710
(dp14711
g16
VNP
p14712
sbatp14713
Rp14714
(dp14715
g16
VPP
p14716
sbatp14717
Rp14718
(dp14719
g16
VVP
p14720
sbatp14721
Rp14722
(dp14723
g16
VVP
p14724
sbatp14725
Rp14726
(dp14727
g16
VVP
p14728
sbatp14729
Rp14730
(dp14731
g16
g160
sbatp14732
Rp14733
(dp14734
g16
VSBAR
p14735
sbatp14736
Rp14737
(dp14738
g16
VVP
p14739
sbatp14740
Rp14741
(dp14742
g16
VVP
p14743
sbatp14744
Rp14745
(dp14746
g16
g160
sbatp14747
Rp14748
(dp14749
g16
VROOT
p14750
sbasg693
(icmyPackage
CorE
p14751
(dp14752
g696
(lp14753
(I0
I0
tp14754
a(I0
I5
tp14755
asg700
g14375
sbsg701
(icmyPackage
CorE
p14756
(dp14757
g696
(lp14758
(I0
I7
tp14759
a(I0
I40
tp14760
asg700
g5
(g6
g7
(lp14761
g14389
ag14741
atp14762
Rp14763
(dp14764
g16
g711
sbsbsg712
g10965
sg735
(lp14765
(isxpPackage
sxpSent
p14766
(dp14767
g739
(lp14768
I34
asg741
VUsing multidimensional scaling and logistic regression, it was shown that the occurrence of new items throughout the history of the construction can be predicted by the density of the semantic space in the neighborhood of these items in prior usage
p14769
sg743
I8
sg728
I106
sg744
I30
sbasba.