(lp0
(icmyPackage
CELink
p1
(dp2
S'PTreelst'
p3
(lp4
ccopy_reg
_reconstructor
p5
(cnltk.tree
Tree
p6
c__builtin__
list
p7
(lp8
g5
(g6
g7
(lp9
g5
(g6
g7
(lp10
g5
(g6
g7
(lp11
V2009
p12
atp13
Rp14
(dp15
S'_label'
p16
VVB
p17
sbag5
(g6
g7
(lp18
V-RRB-
p19
atp20
Rp21
(dp22
g16
V-RRB-
p23
sbag5
(g6
g7
(lp24
g5
(g6
g7
(lp25
Vpresented
p26
atp27
Rp28
(dp29
g16
VVBN
p30
sbag5
(g6
g7
(lp31
g5
(g6
g7
(lp32
g5
(g6
g7
(lp33
Va
p34
atp35
Rp36
(dp37
g16
VDT
p38
sbag5
(g6
g7
(lp39
Vmethod
p40
atp41
Rp42
(dp43
g16
VNN
p44
sbatp45
Rp46
(dp47
g16
VNP
p48
sbag5
(g6
g7
(lp49
g5
(g6
g7
(lp50
Vfor
p51
atp52
Rp53
(dp54
g16
VIN
p55
sbag5
(g6
g7
(lp56
g5
(g6
g7
(lp57
VLDA
p58
atp59
Rp60
(dp61
g16
VNNP
p62
sbag5
(g6
g7
(lp63
Vinference
p64
atp65
Rp66
(dp67
g16
VNN
p68
sbatp69
Rp70
(dp71
g16
VNP
p72
sbatp73
Rp74
(dp75
g16
VPP
p76
sbatp77
Rp78
(dp79
g16
VNP
p80
sbag5
(g6
g7
(lp81
g5
(g6
g7
(lp82
Vbased
p83
atp84
Rp85
(dp86
g16
VVBN
p87
sbag5
(g6
g7
(lp88
g5
(g6
g7
(lp89
Von
p90
atp91
Rp92
(dp93
g16
VIN
p94
sbag5
(g6
g7
(lp95
g5
(g6
g7
(lp96
Vparticle
p97
atp98
Rp99
(dp100
g16
VNN
p101
sbatp102
Rp103
(dp104
g16
VNP
p105
sbatp106
Rp107
(dp108
g16
VPP
p109
sbatp110
Rp111
(dp112
g16
VPP
p113
sbatp114
Rp115
(dp116
g16
VVP
p117
sbatp118
Rp119
(dp120
g16
VVP
p121
sbag5
(g6
g7
(lp122
g5
(g6
g7
(lp123
g5
(g6
g7
(lp124
Vfilters
p125
atp126
Rp127
(dp128
g16
VNNS
p129
sbatp130
Rp131
(dp132
g16
VNP
p133
sbag5
(g6
g7
(lp134
V,
p135
atp136
Rp137
(dp138
g16
g135
sbag5
(g6
g7
(lp139
g5
(g6
g7
(lp140
g5
(g6
g7
(lp141
Vwhere
p142
atp143
Rp144
(dp145
g16
VWRB
p146
sbatp147
Rp148
(dp149
g16
VWHADVP
p150
sbag5
(g6
g7
(lp151
g5
(g6
g7
(lp152
g5
(g6
g7
(lp153
g5
(g6
g7
(lp154
g34
atp155
Rp156
(dp157
g16
VDT
p158
sbag5
(g6
g7
(lp159
Vsample
p160
atp161
Rp162
(dp163
g16
VNN
p164
sbag5
(g6
g7
(lp165
Vset
p166
atp167
Rp168
(dp169
g16
VNN
p170
sbatp171
Rp172
(dp173
g16
VNP
p174
sbag5
(g6
g7
(lp175
g5
(g6
g7
(lp176
Vof
p177
atp178
Rp179
(dp180
g16
VIN
p181
sbag5
(g6
g7
(lp182
g5
(g6
g7
(lp183
Vmodels
p184
atp185
Rp186
(dp187
g16
VNNS
p188
sbatp189
Rp190
(dp191
g16
VNP
p192
sbatp193
Rp194
(dp195
g16
VPP
p196
sbatp197
Rp198
(dp199
g16
VNP
p200
sbag5
(g6
g7
(lp201
g5
(g6
g7
(lp202
Vis
p203
atp204
Rp205
(dp206
g16
VVBZ
p207
sbag5
(g6
g7
(lp208
g5
(g6
g7
(lp209
g5
(g6
g7
(lp210
Vupdated
p211
atp212
Rp213
(dp214
g16
VVBN
p215
sbag5
(g6
g7
(lp216
Vonline
p217
atp218
Rp219
(dp220
g16
VNNS
p221
sbatp222
Rp223
(dp224
g16
VNP
p225
sbag5
(g6
g7
(lp226
g5
(g6
g7
(lp227
Vwith
p228
atp229
Rp230
(dp231
g16
VIN
p232
sbag5
(g6
g7
(lp233
g5
(g6
g7
(lp234
g5
(g6
g7
(lp235
Veach
p236
atp237
Rp238
(dp239
g16
VDT
p240
sbag5
(g6
g7
(lp241
Vnew
p242
atp243
Rp244
(dp245
g16
VJJ
p246
sbag5
(g6
g7
(lp247
Vtoken
p248
atp249
Rp250
(dp251
g16
VNN
p252
sbatp253
Rp254
(dp255
g16
VNP
p256
sbag5
(g6
g7
(lp257
g5
(g6
g7
(lp258
Vobserved
p259
atp260
Rp261
(dp262
g16
VVBN
p263
sbag5
(g6
g7
(lp264
g5
(g6
g7
(lp265
Vfrom
p266
atp267
Rp268
(dp269
g16
VIN
p270
sbag5
(g6
g7
(lp271
g5
(g6
g7
(lp272
g34
atp273
Rp274
(dp275
g16
VDT
p276
sbag5
(g6
g7
(lp277
Vstream
p278
atp279
Rp280
(dp281
g16
VNN
p282
sbatp283
Rp284
(dp285
g16
VNP
p286
sbatp287
Rp288
(dp289
g16
VPP
p290
sbatp291
Rp292
(dp293
g16
VVP
p294
sbatp295
Rp296
(dp297
g16
VNP
p298
sbatp299
Rp300
(dp301
g16
VPP
p302
sbatp303
Rp304
(dp305
g16
VNP
p306
sbatp307
Rp308
(dp309
g16
VVP
p310
sbatp311
Rp312
(dp313
g16
VS
p314
sbatp315
Rp316
(dp317
g16
VSBAR
p318
sbatp319
Rp320
(dp321
g16
VNP
p322
sbatp323
Rp324
(dp325
g16
VSINV
p326
sbatp327
Rp328
(dp329
g16
VROOT
p330
sbasS'cause'
p331
(icmyPackage
CorE
p332
(dp333
S'span'
p334
(lp335
(I0
I10
tp336
a(I0
I11
tp337
asS'PTree'
p338
g5
(g6
g7
(lp339
g103
ag131
atp340
Rp341
(dp342
g16
S'ROOT'
p343
sbsbsS'effect'
p344
(icmyPackage
CorE
p345
(dp346
g334
(lp347
(I0
I13
tp348
a(I0
I29
tp349
asg338
g316
sbsS'pt'
p350
(icmyPackage
pattern
p351
(dp352
S'pfreq'
p353
I0
sS'moresent'
p354
I0
sS'main_token'
p355
(lp356
(lp357
S'based'
p358
aS'on'
p359
aa(lp360
S','
p361
aasS'ptype'
p362
(lp363
I2
aI1
aI1
asS'cases'
p364
(lp365
S"He said that, based on his own experience, more students have been going back in recent years as their home countries' economies heat up."
p366
asS'id'
p367
I47
sS'constraints'
p368
(lp369
(lp370
a(lp371
S'&V-ing/&NP@C@'
p372
aS'(&Clause@C@)'
p373
aa(lp374
S'&R'
p375
aasbsS'sInfo'
p376
(lp377
(isxpPackage
sxpSent
p378
(dp379
S'sysCEidlst'
p380
(lp381
I0
asS'sentence_text'
p382
V2009 ) presented a method for LDA inference based on particle filters, where a sample set of models is updated online with each new token observed from a stream
p383
sS'id_sec'
p384
I2
sg367
I7
sS'id_para'
p385
I2
sbasba(icmyPackage
CELink
p386
(dp387
g3
(lp388
g5
(g6
g7
(lp389
g5
(g6
g7
(lp390
g5
(g6
g7
(lp391
V2009
p392
atp393
Rp394
(dp395
g16
VVB
p396
sbag5
(g6
g7
(lp397
V-RRB-
p398
atp399
Rp400
(dp401
g16
V-RRB-
p402
sbag5
(g6
g7
(lp403
g5
(g6
g7
(lp404
Vrejuvenates
p405
atp406
Rp407
(dp408
g16
VNNS
p409
sbatp410
Rp411
(dp412
g16
VNP
p413
sbag5
(g6
g7
(lp414
g5
(g6
g7
(lp415
Vover
p416
atp417
Rp418
(dp419
g16
VIN
p420
sbag5
(g6
g7
(lp421
g5
(g6
g7
(lp422
g5
(g6
g7
(lp423
Vindependent
p424
atp425
Rp426
(dp427
g16
VJJ
p428
sbag5
(g6
g7
(lp429
Vdraws
p430
atp431
Rp432
(dp433
g16
VNNS
p434
sbatp435
Rp436
(dp437
g16
VNP
p438
sbag5
(g6
g7
(lp439
g5
(g6
g7
(lp440
Vfrom
p441
atp442
Rp443
(dp444
g16
VIN
p445
sbag5
(g6
g7
(lp446
g5
(g6
g7
(lp447
g5
(g6
g7
(lp448
Vthe
p449
atp450
Rp451
(dp452
g16
VDT
p453
sbag5
(g6
g7
(lp454
Vhistory
p455
atp456
Rp457
(dp458
g16
VNN
p459
sbatp460
Rp461
(dp462
g16
VNP
p463
sbag5
(g6
g7
(lp464
g5
(g6
g7
(lp465
Vby
p466
atp467
Rp468
(dp469
g16
VIN
p470
sbag5
(g6
g7
(lp471
g5
(g6
g7
(lp472
g5
(g6
g7
(lp473
Vstoring
p474
atp475
Rp476
(dp477
g16
VVBG
p478
sbag5
(g6
g7
(lp479
g5
(g6
g7
(lp480
Vall
p481
atp482
Rp483
(dp484
g16
VDT
p485
sbag5
(g6
g7
(lp486
Vpast
p487
atp488
Rp489
(dp490
g16
VJJ
p491
sbag5
(g6
g7
(lp492
Vobservations
p493
atp494
Rp495
(dp496
g16
VNNS
p497
sbag5
(g6
g7
(lp498
Vand
p499
atp500
Rp501
(dp502
g16
VCC
p503
sbag5
(g6
g7
(lp504
Vstates
p505
atp506
Rp507
(dp508
g16
VNNS
p509
sbatp510
Rp511
(dp512
g16
VNP
p513
sbatp514
Rp515
(dp516
g16
VVP
p517
sbatp518
Rp519
(dp520
g16
g314
sbatp521
Rp522
(dp523
g16
VPP
p524
sbatp525
Rp526
(dp527
g16
VNP
p528
sbatp529
Rp530
(dp531
g16
VPP
p532
sbatp533
Rp534
(dp535
g16
VNP
p536
sbatp537
Rp538
(dp539
g16
VPP
p540
sbatp541
Rp542
(dp543
g16
VVP
p544
sbatp545
Rp546
(dp547
g16
VROOT
p548
sbag5
(g6
g7
(lp549
g5
(g6
g7
(lp550
g5
(g6
g7
(lp551
g5
(g6
g7
(lp552
VThis
p553
atp554
Rp555
(dp556
g16
VDT
p557
sbag5
(g6
g7
(lp558
Valgorithm
p559
atp560
Rp561
(dp562
g16
VNN
p563
sbatp564
Rp565
(dp566
g16
VNP
p567
sbag5
(g6
g7
(lp568
g5
(g6
g7
(lp569
g5
(g6
g7
(lp570
g5
(g6
g7
(lp571
Vthus
p572
atp573
Rp574
(dp575
g16
VRB
p576
sbatp577
Rp578
(dp579
g16
VADVP
p580
sbag5
(g6
g7
(lp581
Vhas
p582
atp583
Rp584
(dp585
g16
VVBZ
p586
sbag5
(g6
g7
(lp587
g5
(g6
g7
(lp588
Vlinear
p589
atp590
Rp591
(dp592
g16
VJJ
p593
sbag5
(g6
g7
(lp594
Vstorage
p595
atp596
Rp597
(dp598
g16
VNN
p599
sbag5
(g6
g7
(lp600
Vcomplexity
p601
atp602
Rp603
(dp604
g16
VNN
p605
sbatp606
Rp607
(dp608
g16
VNP
p609
sbatp610
Rp611
(dp612
g16
VVP
p613
sbag5
(g6
g7
(lp614
Vand
p615
atp616
Rp617
(dp618
g16
VCC
p619
sbag5
(g6
g7
(lp620
g5
(g6
g7
(lp621
Vis
p622
atp623
Rp624
(dp625
g16
VVBZ
p626
sbag5
(g6
g7
(lp627
Vnot
p628
atp629
Rp630
(dp631
g16
VRB
p632
sbag5
(g6
g7
(lp633
g5
(g6
g7
(lp634
g5
(g6
g7
(lp635
Van
p636
atp637
Rp638
(dp639
g16
VDT
p640
sbag5
(g6
g7
(lp641
Vonline
p642
atp643
Rp644
(dp645
g16
VJJ
p646
sbag5
(g6
g7
(lp647
Vlearning
p648
atp649
Rp650
(dp651
g16
VNN
p652
sbag5
(g6
g7
(lp653
Valgorithm
p654
atp655
Rp656
(dp657
g16
VNN
p658
sbatp659
Rp660
(dp661
g16
VNP
p662
sbag5
(g6
g7
(lp663
g5
(g6
g7
(lp664
Vin
p665
atp666
Rp667
(dp668
g16
VIN
p669
sbag5
(g6
g7
(lp670
g5
(g6
g7
(lp671
g34
atp672
Rp673
(dp674
g16
VDT
p675
sbag5
(g6
g7
(lp676
Vstrict
p677
atp678
Rp679
(dp680
g16
VJJ
p681
sbag5
(g6
g7
(lp682
Vsense
p683
atp684
Rp685
(dp686
g16
VNN
p687
sbatp688
Rp689
(dp690
g16
VNP
p691
sbatp692
Rp693
(dp694
g16
VPP
p695
sbatp696
Rp697
(dp698
g16
VNP
p699
sbatp700
Rp701
(dp702
g16
VVP
p703
sbag5
(g6
g7
(lp704
g5
(g6
g7
(lp705
g5
(g6
g7
(lp706
V-LSB-
p707
atp708
Rp709
(dp710
g16
VCD
p711
sbag5
(g6
g7
(lp712
V6
p713
atp714
Rp715
(dp716
g16
VCD
p717
sbatp718
Rp719
(dp720
g16
VQP
p721
sbag5
(g6
g7
(lp722
V-RSB-
p723
atp724
Rp725
(dp726
g16
VNNS
p727
sbatp728
Rp729
(dp730
g16
VNP
p731
sbatp732
Rp733
(dp734
g16
VVP
p735
sbatp736
Rp737
(dp738
g16
g314
sbatp739
Rp740
(dp741
g16
VROOT
p742
sbasg331
(icmyPackage
CorE
p743
(dp744
g334
(lp745
(I0
I0
tp746
a(I1
I1
tp747
asg338
g5
(g6
g7
(lp748
g546
ag565
atp749
Rp750
(dp751
g16
g343
sbsbsg344
(icmyPackage
CorE
p752
(dp753
g334
(lp754
(I1
I3
tp755
a(I1
I20
tp756
asg338
g5
(g6
g7
(lp757
g584
ag607
ag617
ag701
ag729
atp758
Rp759
(dp760
g16
g343
sbsbsg350
(icmyPackage
pattern
p761
(dp762
g353
I35
sg354
I1
sg355
(lp763
(lp764
S'thus'
p765
aasg362
(lp766
I1
aI1
aI1
asg364
(lp767
S'Japan will be on the dark side of the Earth, and thus will lack the warming influence of the Sun.'
p768
asg367
I2
sg368
(lp769
(lp770
S'&C'
p771
aS'(,/;/./--)'
p772
aS'(&AND)'
p773
aa(lp774
S'&R'
p775
aasbsg376
(lp776
(isxpPackage
sxpSent
p777
(dp778
g380
(lp779
I1
asg382
V2009 ) rejuvenates over independent draws from the history by storing all past observations and states
p780
sg384
I2
sg367
I10
sg385
I2
sba(isxpPackage
sxpSent
p781
(dp782
g380
(lp783
I1
asg382
VThis algorithm thus has linear storage complexity and is not an online learning algorithm in a strict sense [ 6 ]
p784
sg384
I2
sg367
I11
sg385
I2
sbasba(icmyPackage
CELink
p785
(dp786
g3
(lp787
g5
(g6
g7
(lp788
g5
(g6
g7
(lp789
g5
(g6
g7
(lp790
g5
(g6
g7
(lp791
g5
(g6
g7
(lp792
VLDA
p793
atp794
Rp795
(dp796
g16
VNNP
p797
sbag5
(g6
g7
(lp798
V-LSB-
p799
atp800
Rp801
(dp802
g16
VNNP
p803
sbag5
(g6
g7
(lp804
V3
p805
atp806
Rp807
(dp808
g16
VNNP
p809
sbag5
(g6
g7
(lp810
V-RSB-
p811
atp812
Rp813
(dp814
g16
VNNP
p815
sbag5
(g6
g7
(lp816
Vu
p817
atp818
Rp819
(dp820
g16
VNN
p821
sbag5
(g6
g7
(lp822
V'
p823
atp824
Rp825
(dp826
g16
VPOS
p827
sbatp828
Rp829
(dp830
g16
VNP
p831
sbag5
(g6
g7
(lp832
V\u005c
p833
atp834
Rp835
(dp836
g16
VJJ
p837
sbag5
(g6
g7
(lp838
Vu201c
p839
atp840
Rp841
(dp842
g16
VNNS
p843
sbatp844
Rp845
(dp846
g16
VNP
p847
sbag5
(g6
g7
(lp848
g5
(g6
g7
(lp849
g823
atp850
Rp851
(dp852
g16
V``
p853
sbag5
(g6
g7
(lp854
Vexplains
p855
atp856
Rp857
(dp858
g16
VVBZ
p859
sbag5
(g6
g7
(lp860
g5
(g6
g7
(lp861
g5
(g6
g7
(lp862
g817
atp863
Rp864
(dp865
g16
VNNP
p866
sbag5
(g6
g7
(lp867
g823
atp868
Rp869
(dp870
g16
VPOS
p871
sbatp872
Rp873
(dp874
g16
VNP
p875
sbag5
(g6
g7
(lp876
V\u005c
p877
atp878
Rp879
(dp880
g16
VNN
p881
sbatp882
Rp883
(dp884
g16
VNP
p885
sbag5
(g6
g7
(lp886
g5
(g6
g7
(lp887
Vu201d
p888
atp889
Rp890
(dp891
g16
VRB
p892
sbatp893
Rp894
(dp895
g16
VADVP
p896
sbag5
(g6
g7
(lp897
g823
atp898
Rp899
(dp900
g16
V''
p901
sbag5
(g6
g7
(lp902
g5
(g6
g7
(lp903
g5
(g6
g7
(lp904
Vthe
p905
atp906
Rp907
(dp908
g16
VDT
p909
sbag5
(g6
g7
(lp910
Voccurrence
p911
atp912
Rp913
(dp914
g16
VNN
p915
sbatp916
Rp917
(dp918
g16
VNP
p919
sbag5
(g6
g7
(lp920
g5
(g6
g7
(lp921
Vof
p922
atp923
Rp924
(dp925
g16
VIN
p926
sbag5
(g6
g7
(lp927
g5
(g6
g7
(lp928
g5
(g6
g7
(lp929
Veach
p930
atp931
Rp932
(dp933
g16
VDT
p934
sbag5
(g6
g7
(lp935
Vword
p936
atp937
Rp938
(dp939
g16
VNN
p940
sbatp941
Rp942
(dp943
g16
VNP
p944
sbag5
(g6
g7
(lp945
g5
(g6
g7
(lp946
Vby
p947
atp948
Rp949
(dp950
g16
VIN
p951
sbag5
(g6
g7
(lp952
g5
(g6
g7
(lp953
g5
(g6
g7
(lp954
Vpostulating
p955
atp956
Rp957
(dp958
g16
VVBG
p959
sbag5
(g6
g7
(lp960
g5
(g6
g7
(lp961
Vthat
p962
atp963
Rp964
(dp965
g16
VIN
p966
sbag5
(g6
g7
(lp967
g5
(g6
g7
(lp968
g5
(g6
g7
(lp969
g34
atp970
Rp971
(dp972
g16
VDT
p973
sbag5
(g6
g7
(lp974
Vdocument
p975
atp976
Rp977
(dp978
g16
VNN
p979
sbatp980
Rp981
(dp982
g16
VNP
p983
sbag5
(g6
g7
(lp984
g5
(g6
g7
(lp985
Vwas
p986
atp987
Rp988
(dp989
g16
VVBD
p990
sbag5
(g6
g7
(lp991
g5
(g6
g7
(lp992
Vgenerated
p993
atp994
Rp995
(dp996
g16
VVBN
p997
sbag5
(g6
g7
(lp998
g5
(g6
g7
(lp999
Vby
p1000
atp1001
Rp1002
(dp1003
g16
VIN
p1004
sbag5
(g6
g7
(lp1005
g5
(g6
g7
(lp1006
Vrepeatedly
p1007
atp1008
Rp1009
(dp1010
g16
VRB
p1011
sbatp1012
Rp1013
(dp1014
g16
VADVP
p1015
sbatp1016
Rp1017
(dp1018
g16
VPP
p1019
sbatp1020
Rp1021
(dp1022
g16
VVP
p1023
sbatp1024
Rp1025
(dp1026
g16
VVP
p1027
sbatp1028
Rp1029
(dp1030
g16
g314
sbatp1031
Rp1032
(dp1033
g16
VSBAR
p1034
sbatp1035
Rp1036
(dp1037
g16
VVP
p1038
sbatp1039
Rp1040
(dp1041
g16
g314
sbatp1042
Rp1043
(dp1044
g16
VPP
p1045
sbatp1046
Rp1047
(dp1048
g16
VNP
p1049
sbatp1050
Rp1051
(dp1052
g16
VPP
p1053
sbatp1054
Rp1055
(dp1056
g16
VNP
p1057
sbatp1058
Rp1059
(dp1060
g16
VVP
p1061
sbatp1062
Rp1063
(dp1064
g16
g314
sbatp1065
Rp1066
(dp1067
g16
VROOT
p1068
sbasg331
(icmyPackage
CorE
p1069
(dp1070
g334
(lp1071
(I0
I21
tp1072
a(I0
I28
tp1073
asg338
g1040
sbsg344
(icmyPackage
CorE
p1074
(dp1075
g334
(lp1076
(I0
I5
tp1077
a(I0
I19
tp1078
asg338
g5
(g6
g7
(lp1079
g825
ag835
ag841
ag851
ag857
ag883
ag894
ag899
ag917
ag924
ag942
atp1080
Rp1081
(dp1082
g16
g343
sbsbsg350
(icmyPackage
pattern
p1083
(dp1084
g353
I0
sg354
I0
sg355
(lp1085
(lp1086
(lp1087
S'by'
p1088
aS'through'
p1089
aaasg362
(lp1090
I2
aI1
aI1
asg364
(lp1091
S'The similar relation can be detected by analyzing the contents of nodes based on such approaches as the Latent Semantic Analysis (LSA) and the Vector Space Model (VSM)'
p1092
asg367
I68
sg368
(lp1093
(lp1094
S'&R@Complete@'
p1095
aa(lp1096
S'&V-ing@C@'
p1097
aasbsg376
(lp1098
(isxpPackage
sxpSent
p1099
(dp1100
g380
(lp1101
I2
asg382
VLDA [ 3 ] u'\u005cu201c' explains u'\u005cu201d' the occurrence of each word by postulating that a document was generated by repeatedly
p1102
sg384
I3
sg367
I20
sg385
I4
sbasba(icmyPackage
CELink
p1103
(dp1104
g3
(lp1105
g5
(g6
g7
(lp1106
g5
(g6
g7
(lp1107
g5
(g6
g7
(lp1108
g5
(g6
g7
(lp1109
g5
(g6
g7
(lp1110
VThe
p1111
atp1112
Rp1113
(dp1114
g16
VDT
p1115
sbag5
(g6
g7
(lp1116
Vone
p1117
atp1118
Rp1119
(dp1120
g16
VNN
p1121
sbag5
(g6
g7
(lp1122
Vexisting
p1123
atp1124
Rp1125
(dp1126
g16
VVBG
p1127
sbag5
(g6
g7
(lp1128
Valgorithm
p1129
atp1130
Rp1131
(dp1132
g16
VNN
p1133
sbatp1134
Rp1135
(dp1136
g16
VNP
p1137
sbag5
(g6
g7
(lp1138
g5
(g6
g7
(lp1139
g5
(g6
g7
(lp1140
Vthat
p1141
atp1142
Rp1143
(dp1144
g16
VWDT
p1145
sbatp1146
Rp1147
(dp1148
g16
VWHNP
p1149
sbag5
(g6
g7
(lp1150
g5
(g6
g7
(lp1151
g5
(g6
g7
(lp1152
Vcan
p1153
atp1154
Rp1155
(dp1156
g16
VMD
p1157
sbag5
(g6
g7
(lp1158
g5
(g6
g7
(lp1159
Vbe
p1160
atp1161
Rp1162
(dp1163
g16
VVB
p1164
sbag5
(g6
g7
(lp1165
g5
(g6
g7
(lp1166
g5
(g6
g7
(lp1167
Vdirectly
p1168
atp1169
Rp1170
(dp1171
g16
VRB
p1172
sbatp1173
Rp1174
(dp1175
g16
VADVP
p1176
sbag5
(g6
g7
(lp1177
Vapplied
p1178
atp1179
Rp1180
(dp1181
g16
VVBN
p1182
sbag5
(g6
g7
(lp1183
g5
(g6
g7
(lp1184
Vunder
p1185
atp1186
Rp1187
(dp1188
g16
VIN
p1189
sbag5
(g6
g7
(lp1190
g5
(g6
g7
(lp1191
Vthis
p1192
atp1193
Rp1194
(dp1195
g16
VDT
p1196
sbag5
(g6
g7
(lp1197
Vconstraint
p1198
atp1199
Rp1200
(dp1201
g16
VNN
p1202
sbatp1203
Rp1204
(dp1205
g16
VNP
p1206
sbatp1207
Rp1208
(dp1209
g16
VPP
p1210
sbag5
(g6
g7
(lp1211
g135
atp1212
Rp1213
(dp1214
g16
g135
sbag5
(g6
g7
(lp1215
g5
(g6
g7
(lp1216
Vto
p1217
atp1218
Rp1219
(dp1220
g16
VTO
p1221
sbag5
(g6
g7
(lp1222
g5
(g6
g7
(lp1223
Vour
p1224
atp1225
Rp1226
(dp1227
g16
VPRP$
p1228
sbag5
(g6
g7
(lp1229
Vknowledge
p1230
atp1231
Rp1232
(dp1233
g16
VNN
p1234
sbatp1235
Rp1236
(dp1237
g16
VNP
p1238
sbatp1239
Rp1240
(dp1241
g16
VPP
p1242
sbatp1243
Rp1244
(dp1245
g16
VVP
p1246
sbatp1247
Rp1248
(dp1249
g16
VVP
p1250
sbatp1251
Rp1252
(dp1253
g16
VVP
p1254
sbatp1255
Rp1256
(dp1257
g16
g314
sbatp1258
Rp1259
(dp1260
g16
VSBAR
p1261
sbatp1262
Rp1263
(dp1264
g16
VNP
p1265
sbag5
(g6
g7
(lp1266
g135
atp1267
Rp1268
(dp1269
g16
g135
sbag5
(g6
g7
(lp1270
g5
(g6
g7
(lp1271
Vis
p1272
atp1273
Rp1274
(dp1275
g16
VVBZ
p1276
sbag5
(g6
g7
(lp1277
g5
(g6
g7
(lp1278
g5
(g6
g7
(lp1279
Vthe
p1280
atp1281
Rp1282
(dp1283
g16
VDT
p1284
sbag5
(g6
g7
(lp1285
Vstreaming
p1286
atp1287
Rp1288
(dp1289
g16
VNN
p1290
sbag5
(g6
g7
(lp1291
Vvariational
p1292
atp1293
Rp1294
(dp1295
g16
VJJ
p1296
sbag5
(g6
g7
(lp1297
VBayes
p1298
atp1299
Rp1300
(dp1301
g16
VNNP
p1302
sbag5
(g6
g7
(lp1303
Vframework
p1304
atp1305
Rp1306
(dp1307
g16
VNN
p1308
sbag5
(g6
g7
(lp1309
V-LSB-
p1310
atp1311
Rp1312
(dp1313
g16
VNN
p1314
sbatp1315
Rp1316
(dp1317
g16
VNP
p1318
sbag5
(g6
g7
(lp1319
g5
(g6
g7
(lp1320
g5
(g6
g7
(lp1321
g5
(g6
g7
(lp1322
g5
(g6
g7
(lp1323
V4
p1324
atp1325
Rp1326
(dp1327
g16
VCD
p1328
sbag5
(g6
g7
(lp1329
V-RSB-
p1330
atp1331
Rp1332
(dp1333
g16
VCD
p1334
sbatp1335
Rp1336
(dp1337
g16
VQP
p1338
sbatp1339
Rp1340
(dp1341
g16
VWHNP
p1342
sbag5
(g6
g7
(lp1343
g5
(g6
g7
(lp1344
Vin
p1345
atp1346
Rp1347
(dp1348
g16
VIN
p1349
sbag5
(g6
g7
(lp1350
g5
(g6
g7
(lp1351
Vwhich
p1352
atp1353
Rp1354
(dp1355
g16
VWDT
p1356
sbatp1357
Rp1358
(dp1359
g16
VWHNP
p1360
sbatp1361
Rp1362
(dp1363
g16
VWHPP
p1364
sbatp1365
Rp1366
(dp1367
g16
VWHNP
p1368
sbag5
(g6
g7
(lp1369
g5
(g6
g7
(lp1370
g5
(g6
g7
(lp1371
Vthe
p1372
atp1373
Rp1374
(dp1375
g16
VDT
p1376
sbag5
(g6
g7
(lp1377
Vposterior
p1378
atp1379
Rp1380
(dp1381
g16
VNN
p1382
sbatp1383
Rp1384
(dp1385
g16
VNP
p1386
sbag5
(g6
g7
(lp1387
g5
(g6
g7
(lp1388
Vis
p1389
atp1390
Rp1391
(dp1392
g16
VVBZ
p1393
sbag5
(g6
g7
(lp1394
g5
(g6
g7
(lp1395
Vrecursively
p1396
atp1397
Rp1398
(dp1399
g16
VRB
p1400
sbag5
(g6
g7
(lp1401
Vupdated
p1402
atp1403
Rp1404
(dp1405
g16
VJJ
p1406
sbatp1407
Rp1408
(dp1409
g16
VADJP
p1410
sbag5
(g6
g7
(lp1411
g5
(g6
g7
(lp1412
Vas
p1413
atp1414
Rp1415
(dp1416
g16
VIN
p1417
sbag5
(g6
g7
(lp1418
g5
(g6
g7
(lp1419
g5
(g6
g7
(lp1420
Vnew
p1421
atp1422
Rp1423
(dp1424
g16
VJJ
p1425
sbag5
(g6
g7
(lp1426
Vdata
p1427
atp1428
Rp1429
(dp1430
g16
VNNS
p1431
sbatp1432
Rp1433
(dp1434
g16
VNP
p1435
sbag5
(g6
g7
(lp1436
g5
(g6
g7
(lp1437
Varrives
p1438
atp1439
Rp1440
(dp1441
g16
VVBZ
p1442
sbag5
(g6
g7
(lp1443
g5
(g6
g7
(lp1444
g5
(g6
g7
(lp1445
Vusing
p1446
atp1447
Rp1448
(dp1449
g16
VVBG
p1450
sbag5
(g6
g7
(lp1451
g5
(g6
g7
(lp1452
g34
atp1453
Rp1454
(dp1455
g16
VDT
p1456
sbag5
(g6
g7
(lp1457
Vvariational
p1458
atp1459
Rp1460
(dp1461
g16
VJJ
p1462
sbag5
(g6
g7
(lp1463
Vapproximation
p1464
atp1465
Rp1466
(dp1467
g16
VNN
p1468
sbatp1469
Rp1470
(dp1471
g16
VNP
p1472
sbatp1473
Rp1474
(dp1475
g16
VVP
p1476
sbatp1477
Rp1478
(dp1479
g16
g314
sbatp1480
Rp1481
(dp1482
g16
VVP
p1483
sbatp1484
Rp1485
(dp1486
g16
g314
sbatp1487
Rp1488
(dp1489
g16
VSBAR
p1490
sbatp1491
Rp1492
(dp1493
g16
VVP
p1494
sbatp1495
Rp1496
(dp1497
g16
g314
sbatp1498
Rp1499
(dp1500
g16
VSBAR
p1501
sbatp1502
Rp1503
(dp1504
g16
VNP
p1505
sbatp1506
Rp1507
(dp1508
g16
VVP
p1509
sbatp1510
Rp1511
(dp1512
g16
g314
sbatp1513
Rp1514
(dp1515
g16
VROOT
p1516
sbasg331
(icmyPackage
CorE
p1517
(dp1518
g334
(lp1519
(I0
I34
tp1520
a(I0
I40
tp1521
asg338
g1485
sbsg344
(icmyPackage
CorE
p1522
(dp1523
g334
(lp1524
(I0
I0
tp1525
a(I0
I32
tp1526
asg338
g5
(g6
g7
(lp1527
g1263
ag1268
ag1274
ag1316
ag1366
ag1384
ag1391
ag1408
atp1528
Rp1529
(dp1530
g16
g343
sbsbsg350
(icmyPackage
pattern
p1531
(dp1532
g353
I26
sg354
I1
sg355
(lp1533
(lp1534
S'as'
p1535
aasg362
(lp1536
I3
aI1
aI1
asg364
(lp1537
S'You do not need to worry about the operation, as the software is very easy to use.'
p1538
asg367
I80
sg368
(lp1539
(lp1540
S'&R@Complete@'
p1541
aS'(,)'
p1542
aS'(-such/-same/-seem/-regard/-regards/-regarded/-view/-views/-viewed/-denote/-denoted/-denotes)'
p1543
aa(lp1544
S'(-if/-follow/-follows/-&adv)'
p1545
aS'&C@Complete@'
p1546
aasbsg376
(lp1547
(isxpPackage
sxpSent
p1548
(dp1549
g380
(lp1550
I3
asg382
VThe one existing algorithm that can be directly applied under this constraint, to our knowledge, is the streaming variational Bayes framework [ 4 ] in which the posterior is recursively updated as new data arrives using a variational approximation
p1551
sg384
I3
sg367
I28
sg385
I7
sbasba(icmyPackage
CELink
p1552
(dp1553
g3
(lp1554
g5
(g6
g7
(lp1555
g5
(g6
g7
(lp1556
g5
(g6
g7
(lp1557
g5
(g6
g7
(lp1558
Vwhere
p1559
atp1560
Rp1561
(dp1562
g16
VWRB
p1563
sbatp1564
Rp1565
(dp1566
g16
VWHADVP
p1567
sbag5
(g6
g7
(lp1568
g5
(g6
g7
(lp1569
g5
(g6
g7
(lp1570
g5
(g6
g7
(lp1571
g5
(g6
g7
(lp1572
g5
(g6
g7
(lp1573
VI
p1574
atp1575
Rp1576
(dp1577
g16
VNNP
p1578
sbag5
(g6
g7
(lp1579
g817
atp1580
Rp1581
(dp1582
g16
VNNP
p1583
sbag5
(g6
g7
(lp1584
g823
atp1585
Rp1586
(dp1587
g16
VPOS
p1588
sbatp1589
Rp1590
(dp1591
g16
VNP
p1592
sbag5
(g6
g7
(lp1593
V\u005c
p1594
atp1595
Rp1596
(dp1597
g16
VJJ
p1598
sbag5
(g6
g7
(lp1599
g5
(g6
g7
(lp1600
Vud835
p1601
atp1602
Rp1603
(dp1604
g16
VNNP
p1605
sbag5
(g6
g7
(lp1606
g823
atp1607
Rp1608
(dp1609
g16
VPOS
p1610
sbatp1611
Rp1612
(dp1613
g16
VNP
p1614
sbag5
(g6
g7
(lp1615
g817
atp1616
Rp1617
(dp1618
g16
VNN
p1619
sbag5
(g6
g7
(lp1620
g823
atp1621
Rp1622
(dp1623
g16
V''
p1624
sbatp1625
Rp1626
(dp1627
g16
VNP
p1628
sbag5
(g6
g7
(lp1629
g5
(g6
g7
(lp1630
g5
(g6
g7
(lp1631
g5
(g6
g7
(lp1632
V\u005c
p1633
atp1634
Rp1635
(dp1636
g16
VNNP
p1637
sbag5
(g6
g7
(lp1638
Vudc33
p1639
atp1640
Rp1641
(dp1642
g16
VNNP
p1643
sbag5
(g6
g7
(lp1644
g823
atp1645
Rp1646
(dp1647
g16
VPOS
p1648
sbatp1649
Rp1650
(dp1651
g16
VNP
p1652
sbag5
(g6
g7
(lp1653
g817
atp1654
Rp1655
(dp1656
g16
VNN
p1657
sbag5
(g6
g7
(lp1658
g823
atp1659
Rp1660
(dp1661
g16
VPOS
p1662
sbatp1663
Rp1664
(dp1665
g16
VNP
p1666
sbag5
(g6
g7
(lp1667
V\u005c
p1668
atp1669
Rp1670
(dp1671
g16
VNNP
p1672
sbag5
(g6
g7
(lp1673
Vu2062
p1674
atp1675
Rp1676
(dp1677
g16
VNNP
p1678
sbag5
(g6
g7
(lp1679
g823
atp1680
Rp1681
(dp1682
g16
V''
p1683
sbatp1684
Rp1685
(dp1686
g16
VNP
p1687
sbatp1688
Rp1689
(dp1690
g16
VNP
p1691
sbag5
(g6
g7
(lp1692
g5
(g6
g7
(lp1693
V-LRB-
p1694
atp1695
Rp1696
(dp1697
g16
V-LRB-
p1698
sbag5
(g6
g7
(lp1699
g5
(g6
g7
(lp1700
g817
atp1701
Rp1702
(dp1703
g16
VVBP
p1704
sbag5
(g6
g7
(lp1705
g823
atp1706
Rp1707
(dp1708
g16
V``
p1709
sbag5
(g6
g7
(lp1710
g5
(g6
g7
(lp1711
g5
(g6
g7
(lp1712
g5
(g6
g7
(lp1713
V\u005c
p1714
atp1715
Rp1716
(dp1717
g16
VNNP
p1718
sbag5
(g6
g7
(lp1719
Vud835
p1720
atp1721
Rp1722
(dp1723
g16
VNNP
p1724
sbag5
(g6
g7
(lp1725
g823
atp1726
Rp1727
(dp1728
g16
V''
p1729
sbag5
(g6
g7
(lp1730
g817
atp1731
Rp1732
(dp1733
g16
VNNP
p1734
sbag5
(g6
g7
(lp1735
g823
atp1736
Rp1737
(dp1738
g16
VPOS
p1739
sbatp1740
Rp1741
(dp1742
g16
VNP
p1743
sbag5
(g6
g7
(lp1744
V\u005c
p1745
atp1746
Rp1747
(dp1748
g16
VJJ
p1749
sbag5
(g6
g7
(lp1750
g5
(g6
g7
(lp1751
Vudc33
p1752
atp1753
Rp1754
(dp1755
g16
VNNP
p1756
sbag5
(g6
g7
(lp1757
g823
atp1758
Rp1759
(dp1760
g16
VPOS
p1761
sbatp1762
Rp1763
(dp1764
g16
VNP
p1765
sbag5
(g6
g7
(lp1766
g817
atp1767
Rp1768
(dp1769
g16
VNN
p1770
sbag5
(g6
g7
(lp1771
g823
atp1772
Rp1773
(dp1774
g16
V''
p1775
sbatp1776
Rp1777
(dp1778
g16
VNP
p1779
sbag5
(g6
g7
(lp1780
g5
(g6
g7
(lp1781
V\u005c
p1782
atp1783
Rp1784
(dp1785
g16
VRB
p1786
sbag5
(g6
g7
(lp1787
Vu2032
p1788
atp1789
Rp1790
(dp1791
g16
VJJ
p1792
sbatp1793
Rp1794
(dp1795
g16
VADJP
p1796
sbatp1797
Rp1798
(dp1799
g16
VNP
p1800
sbag5
(g6
g7
(lp1801
g823
atp1802
Rp1803
(dp1804
g16
V''
p1805
sbatp1806
Rp1807
(dp1808
g16
VVP
p1809
sbag5
(g6
g7
(lp1810
V-RRB-
p1811
atp1812
Rp1813
(dp1814
g16
V-RRB-
p1815
sbatp1816
Rp1817
(dp1818
g16
VPRN
p1819
sbatp1820
Rp1821
(dp1822
g16
VNP
p1823
sbag5
(g6
g7
(lp1824
g5
(g6
g7
(lp1825
Vis
p1826
atp1827
Rp1828
(dp1829
g16
VVBZ
p1830
sbag5
(g6
g7
(lp1831
g5
(g6
g7
(lp1832
Vthe
p1833
atp1834
Rp1835
(dp1836
g16
VDT
p1837
sbag5
(g6
g7
(lp1838
Vindicator
p1839
atp1840
Rp1841
(dp1842
g16
VNN
p1843
sbag5
(g6
g7
(lp1844
Vfunction
p1845
atp1846
Rp1847
(dp1848
g16
VNN
p1849
sbatp1850
Rp1851
(dp1852
g16
VNP
p1853
sbag5
(g6
g7
(lp1854
g135
atp1855
Rp1856
(dp1857
g16
g135
sbag5
(g6
g7
(lp1858
g5
(g6
g7
(lp1859
g5
(g6
g7
(lp1860
Vevaluating
p1861
atp1862
Rp1863
(dp1864
g16
VVBG
p1865
sbag5
(g6
g7
(lp1866
g5
(g6
g7
(lp1867
Vto
p1868
atp1869
Rp1870
(dp1871
g16
VTO
p1872
sbag5
(g6
g7
(lp1873
g5
(g6
g7
(lp1874
V1
p1875
atp1876
Rp1877
(dp1878
g16
VCD
p1879
sbatp1880
Rp1881
(dp1882
g16
VNP
p1883
sbatp1884
Rp1885
(dp1886
g16
VPP
p1887
sbag5
(g6
g7
(lp1888
g5
(g6
g7
(lp1889
Vif
p1890
atp1891
Rp1892
(dp1893
g16
VIN
p1894
sbag5
(g6
g7
(lp1895
g5
(g6
g7
(lp1896
g5
(g6
g7
(lp1897
g5
(g6
g7
(lp1898
g5
(g6
g7
(lp1899
g817
atp1900
Rp1901
(dp1902
g16
VNNP
p1903
sbag5
(g6
g7
(lp1904
g823
atp1905
Rp1906
(dp1907
g16
VPOS
p1908
sbatp1909
Rp1910
(dp1911
g16
VNP
p1912
sbag5
(g6
g7
(lp1913
V\u005c
p1914
atp1915
Rp1916
(dp1917
g16
VJJ
p1918
sbag5
(g6
g7
(lp1919
g5
(g6
g7
(lp1920
Vud835
p1921
atp1922
Rp1923
(dp1924
g16
VNNP
p1925
sbag5
(g6
g7
(lp1926
g823
atp1927
Rp1928
(dp1929
g16
VPOS
p1930
sbatp1931
Rp1932
(dp1933
g16
VNP
p1934
sbag5
(g6
g7
(lp1935
g817
atp1936
Rp1937
(dp1938
g16
VNN
p1939
sbag5
(g6
g7
(lp1940
g823
atp1941
Rp1942
(dp1943
g16
V''
p1944
sbatp1945
Rp1946
(dp1947
g16
VNP
p1948
sbag5
(g6
g7
(lp1949
g5
(g6
g7
(lp1950
V\u005c
p1951
atp1952
Rp1953
(dp1954
g16
VVBG
p1955
sbag5
(g6
g7
(lp1956
g5
(g6
g7
(lp1957
g5
(g6
g7
(lp1958
Vudc33
p1959
atp1960
Rp1961
(dp1962
g16
VNNP
p1963
sbag5
(g6
g7
(lp1964
g823
atp1965
Rp1966
(dp1967
g16
VPOS
p1968
sbatp1969
Rp1970
(dp1971
g16
VNP
p1972
sbag5
(g6
g7
(lp1973
g5
(g6
g7
(lp1974
V=
p1975
atp1976
Rp1977
(dp1978
g16
VSYM
p1979
sbag5
(g6
g7
(lp1980
g5
(g6
g7
(lp1981
g817
atp1982
Rp1983
(dp1984
g16
VNN
p1985
sbag5
(g6
g7
(lp1986
g823
atp1987
Rp1988
(dp1989
g16
V''
p1990
sbatp1991
Rp1992
(dp1993
g16
VNP
p1994
sbatp1995
Rp1996
(dp1997
g16
VVP
p1998
sbatp1999
Rp2000
(dp2001
g16
g314
sbatp2002
Rp2003
(dp2004
g16
VVP
p2005
sbatp2006
Rp2007
(dp2008
g16
VNP
p2009
sbag5
(g6
g7
(lp2010
g5
(g6
g7
(lp2011
V\u005c
p2012
atp2013
Rp2014
(dp2015
g16
VVBZ
p2016
sbag5
(g6
g7
(lp2017
g5
(g6
g7
(lp2018
g5
(g6
g7
(lp2019
g5
(g6
g7
(lp2020
Vud835
p2021
atp2022
Rp2023
(dp2024
g16
VNNP
p2025
sbag5
(g6
g7
(lp2026
g823
atp2027
Rp2028
(dp2029
g16
VPOS
p2030
sbatp2031
Rp2032
(dp2033
g16
VNP
p2034
sbag5
(g6
g7
(lp2035
g817
atp2036
Rp2037
(dp2038
g16
VNN
p2039
sbag5
(g6
g7
(lp2040
g823
atp2041
Rp2042
(dp2043
g16
V''
p2044
sbag5
(g6
g7
(lp2045
V\u005c
p2046
atp2047
Rp2048
(dp2049
g16
VNN
p2050
sbatp2051
Rp2052
(dp2053
g16
VNP
p2054
sbag5
(g6
g7
(lp2055
g5
(g6
g7
(lp2056
g5
(g6
g7
(lp2057
g5
(g6
g7
(lp2058
Vudc33
p2059
atp2060
Rp2061
(dp2062
g16
VNNP
p2063
sbag5
(g6
g7
(lp2064
g823
atp2065
Rp2066
(dp2067
g16
VPOS
p2068
sbatp2069
Rp2070
(dp2071
g16
VNP
p2072
sbag5
(g6
g7
(lp2073
g817
atp2074
Rp2075
(dp2076
g16
VNN
p2077
sbag5
(g6
g7
(lp2078
g823
atp2079
Rp2080
(dp2081
g16
VPOS
p2082
sbatp2083
Rp2084
(dp2085
g16
VNP
p2086
sbag5
(g6
g7
(lp2087
V\u005c
p2088
atp2089
Rp2090
(dp2091
g16
VNNP
p2092
sbag5
(g6
g7
(lp2093
Vu2032
p2094
atp2095
Rp2096
(dp2097
g16
VNNP
p2098
sbag5
(g6
g7
(lp2099
g823
atp2100
Rp2101
(dp2102
g16
V''
p2103
sbatp2104
Rp2105
(dp2106
g16
VNP
p2107
sbag5
(g6
g7
(lp2108
Vand
p2109
atp2110
Rp2111
(dp2112
g16
VCC
p2113
sbag5
(g6
g7
(lp2114
g5
(g6
g7
(lp2115
V0
p2116
atp2117
Rp2118
(dp2119
g16
VCD
p2120
sbatp2121
Rp2122
(dp2123
g16
VNP
p2124
sbatp2125
Rp2126
(dp2127
g16
VNP
p2128
sbag5
(g6
g7
(lp2129
g5
(g6
g7
(lp2130
Votherwise
p2131
atp2132
Rp2133
(dp2134
g16
VRB
p2135
sbatp2136
Rp2137
(dp2138
g16
VADVP
p2139
sbatp2140
Rp2141
(dp2142
g16
VVP
p2143
sbatp2144
Rp2145
(dp2146
g16
g314
sbatp2147
Rp2148
(dp2149
g16
VSBAR
p2150
sbatp2151
Rp2152
(dp2153
g16
VVP
p2154
sbatp2155
Rp2156
(dp2157
g16
g314
sbatp2158
Rp2159
(dp2160
g16
VVP
p2161
sbatp2162
Rp2163
(dp2164
g16
g314
sbatp2165
Rp2166
(dp2167
g16
VSBAR
p2168
sbatp2169
Rp2170
(dp2171
g16
VROOT
p2172
sbasg331
(icmyPackage
CorE
p2173
(dp2174
g334
(lp2175
(I0
I43
tp2176
a(I0
I65
tp2177
asg338
g5
(g6
g7
(lp2178
g2007
ag2014
ag2052
ag2084
atp2179
Rp2180
(dp2181
g16
g343
sbsbsg344
(icmyPackage
CorE
p2182
(dp2183
g334
(lp2184
(I0
I1
tp2185
a(I0
I41
tp2186
asg338
g5
(g6
g7
(lp2187
g1821
ag1828
ag1851
ag1856
ag1863
ag1885
atp2188
Rp2189
(dp2190
g16
g343
sbsbsg350
(icmyPackage
pattern
p2191
(dp2192
g353
I0
sg354
I0
sg355
(lp2193
(lp2194
S'if'
p2195
aasg362
(lp2196
I1
aI1
aI1
asg364
(lp2197
S'An effective knowledge flow network enables a research team to be very powerful in generating new knowledge if every node can innovate and output new knowledge to appropriate members.'
p2198
asg367
I14
sg368
(lp2199
(lp2200
S'&R@Complete@'
p2201
aa(lp2202
S'&C@Complete@'
p2203
aasbsg376
(lp2204
(isxpPackage
sxpSent
p2205
(dp2206
g380
(lp2207
I4
asg382
Vwhere I u'\u005cud835' u'\u005cudc33' u'\u005cu2062' ( u'\u005cud835' u'\u005cudc33' u'\u005cu2032' ) is the indicator function, evaluating to 1 if u'\u005cud835' u'\u005cudc33' = u'\u005cud835' u'\u005cudc33' u'\u005cu2032' and 0 otherwise
p2208
sg384
I4
sg367
I46
sg385
I17
sbasba(icmyPackage
CELink
p2209
(dp2210
g3
(lp2211
g5
(g6
g7
(lp2212
g5
(g6
g7
(lp2213
g5
(g6
g7
(lp2214
g5
(g6
g7
(lp2215
g5
(g6
g7
(lp2216
VNow
p2217
atp2218
Rp2219
(dp2220
g16
VRB
p2221
sbatp2222
Rp2223
(dp2224
g16
VNP
p2225
sbag5
(g6
g7
(lp2226
g5
(g6
g7
(lp2227
g5
(g6
g7
(lp2228
g5
(g6
g7
(lp2229
Veach
p2230
atp2231
Rp2232
(dp2233
g16
VDT
p2234
sbag5
(g6
g7
(lp2235
Vparticle
p2236
atp2237
Rp2238
(dp2239
g16
VNN
p2240
sbag5
(g6
g7
(lp2241
Vp
p2242
atp2243
Rp2244
(dp2245
g16
VNN
p2246
sbatp2247
Rp2248
(dp2249
g16
VNP
p2250
sbag5
(g6
g7
(lp2251
g5
(g6
g7
(lp2252
Vis
p2253
atp2254
Rp2255
(dp2256
g16
VVBZ
p2257
sbag5
(g6
g7
(lp2258
g5
(g6
g7
(lp2259
Vpropagated
p2260
atp2261
Rp2262
(dp2263
g16
VVBN
p2264
sbag5
(g6
g7
(lp2265
g5
(g6
g7
(lp2266
Vforward
p2267
atp2268
Rp2269
(dp2270
g16
VRP
p2271
sbatp2272
Rp2273
(dp2274
g16
VPRT
p2275
sbag5
(g6
g7
(lp2276
g5
(g6
g7
(lp2277
Vby
p2278
atp2279
Rp2280
(dp2281
g16
VIN
p2282
sbag5
(g6
g7
(lp2283
g5
(g6
g7
(lp2284
g5
(g6
g7
(lp2285
Vdrawing
p2286
atp2287
Rp2288
(dp2289
g16
VVBG
p2290
sbag5
(g6
g7
(lp2291
g5
(g6
g7
(lp2292
g34
atp2293
Rp2294
(dp2295
g16
VDT
p2296
sbag5
(g6
g7
(lp2297
Vtopic
p2298
atp2299
Rp2300
(dp2301
g16
VNN
p2302
sbatp2303
Rp2304
(dp2305
g16
VNP
p2306
sbatp2307
Rp2308
(dp2309
g16
VVP
p2310
sbatp2311
Rp2312
(dp2313
g16
g314
sbatp2314
Rp2315
(dp2316
g16
VPP
p2317
sbatp2318
Rp2319
(dp2320
g16
VVP
p2321
sbatp2322
Rp2323
(dp2324
g16
VVP
p2325
sbatp2326
Rp2327
(dp2328
g16
g314
sbatp2329
Rp2330
(dp2331
g16
VSBAR
p2332
sbatp2333
Rp2334
(dp2335
g16
VNP
p2336
sbag5
(g6
g7
(lp2337
g5
(g6
g7
(lp2338
g5
(g6
g7
(lp2339
Vz
p2340
atp2341
Rp2342
(dp2343
g16
VSYM
p2344
sbatp2345
Rp2346
(dp2347
g16
VX
p2348
sbag5
(g6
g7
(lp2349
g5
(g6
g7
(lp2350
g5
(g6
g7
(lp2351
g5
(g6
g7
(lp2352
Vi
p2353
atp2354
Rp2355
(dp2356
g16
VFW
p2357
sbatp2358
Rp2359
(dp2360
g16
VNP
p2361
sbag5
(g6
g7
(lp2362
g5
(g6
g7
(lp2363
V-LRB-
p2364
atp2365
Rp2366
(dp2367
g16
V-LRB-
p2368
sbag5
(g6
g7
(lp2369
g5
(g6
g7
(lp2370
g2242
atp2371
Rp2372
(dp2373
g16
VNN
p2374
sbatp2375
Rp2376
(dp2377
g16
VNP
p2378
sbag5
(g6
g7
(lp2379
V-RRB-
p2380
atp2381
Rp2382
(dp2383
g16
V-RRB-
p2384
sbatp2385
Rp2386
(dp2387
g16
VPRN
p2388
sbatp2389
Rp2390
(dp2391
g16
VNP
p2392
sbag5
(g6
g7
(lp2393
g5
(g6
g7
(lp2394
Vfrom
p2395
atp2396
Rp2397
(dp2398
g16
VIN
p2399
sbag5
(g6
g7
(lp2400
g5
(g6
g7
(lp2401
g5
(g6
g7
(lp2402
g5
(g6
g7
(lp2403
Vthe
p2404
atp2405
Rp2406
(dp2407
g16
VDT
p2408
sbag5
(g6
g7
(lp2409
Vconditional
p2410
atp2411
Rp2412
(dp2413
g16
VJJ
p2414
sbag5
(g6
g7
(lp2415
Vposterior
p2416
atp2417
Rp2418
(dp2419
g16
VNN
p2420
sbag5
(g6
g7
(lp2421
Vdistribution
p2422
atp2423
Rp2424
(dp2425
g16
VNN
p2426
sbag5
(g6
g7
(lp2427
g817
atp2428
Rp2429
(dp2430
g16
VNN
p2431
sbag5
(g6
g7
(lp2432
g823
atp2433
Rp2434
(dp2435
g16
VPOS
p2436
sbatp2437
Rp2438
(dp2439
g16
VNP
p2440
sbag5
(g6
g7
(lp2441
V\u005c
p2442
atp2443
Rp2444
(dp2445
g16
VJJ
p2446
sbag5
(g6
g7
(lp2447
g5
(g6
g7
(lp2448
Vud835
p2449
atp2450
Rp2451
(dp2452
g16
VNNP
p2453
sbag5
(g6
g7
(lp2454
g823
atp2455
Rp2456
(dp2457
g16
VPOS
p2458
sbatp2459
Rp2460
(dp2461
g16
VNP
p2462
sbag5
(g6
g7
(lp2463
g817
atp2464
Rp2465
(dp2466
g16
VNN
p2467
sbag5
(g6
g7
(lp2468
g823
atp2469
Rp2470
(dp2471
g16
V''
p2472
sbatp2473
Rp2474
(dp2475
g16
VNP
p2476
sbag5
(g6
g7
(lp2477
g5
(g6
g7
(lp2478
g5
(g6
g7
(lp2479
V\u005c
p2480
atp2481
Rp2482
(dp2483
g16
VVBG
p2484
sbag5
(g6
g7
(lp2485
g5
(g6
g7
(lp2486
Vudc0f
p2487
atp2488
Rp2489
(dp2490
g16
VNNS
p2491
sbatp2492
Rp2493
(dp2494
g16
VNP
p2495
sbag5
(g6
g7
(lp2496
g823
atp2497
Rp2498
(dp2499
g16
V''
p2500
sbatp2501
Rp2502
(dp2503
g16
VVP
p2504
sbag5
(g6
g7
(lp2505
g5
(g6
g7
(lp2506
V-LRB-
p2507
atp2508
Rp2509
(dp2510
g16
V-LRB-
p2511
sbag5
(g6
g7
(lp2512
g5
(g6
g7
(lp2513
g5
(g6
g7
(lp2514
g2340
atp2515
Rp2516
(dp2517
g16
VSYM
p2518
sbatp2519
Rp2520
(dp2521
g16
g2348
sbag5
(g6
g7
(lp2522
g5
(g6
g7
(lp2523
g5
(g6
g7
(lp2524
g5
(g6
g7
(lp2525
g2353
atp2526
Rp2527
(dp2528
g16
VFW
p2529
sbatp2530
Rp2531
(dp2532
g16
VNP
p2533
sbag5
(g6
g7
(lp2534
g5
(g6
g7
(lp2535
V-LRB-
p2536
atp2537
Rp2538
(dp2539
g16
V-LRB-
p2540
sbag5
(g6
g7
(lp2541
g5
(g6
g7
(lp2542
g2242
atp2543
Rp2544
(dp2545
g16
VNN
p2546
sbatp2547
Rp2548
(dp2549
g16
VNP
p2550
sbag5
(g6
g7
(lp2551
V-RRB-
p2552
atp2553
Rp2554
(dp2555
g16
V-RRB-
p2556
sbatp2557
Rp2558
(dp2559
g16
VPRN
p2560
sbag5
(g6
g7
(lp2561
g5
(g6
g7
(lp2562
g817
atp2563
Rp2564
(dp2565
g16
VNN
p2566
sbatp2567
Rp2568
(dp2569
g16
VNP
p2570
sbag5
(g6
g7
(lp2571
g823
atp2572
Rp2573
(dp2574
g16
V''
p2575
sbag5
(g6
g7
(lp2576
g5
(g6
g7
(lp2577
g5
(g6
g7
(lp2578
g5
(g6
g7
(lp2579
g5
(g6
g7
(lp2580
g5
(g6
g7
(lp2581
V\u005c
p2582
atp2583
Rp2584
(dp2585
g16
VNNP
p2586
sbag5
(g6
g7
(lp2587
Vu2223
p2588
atp2589
Rp2590
(dp2591
g16
VNNP
p2592
sbag5
(g6
g7
(lp2593
g823
atp2594
Rp2595
(dp2596
g16
VPOS
p2597
sbatp2598
Rp2599
(dp2600
g16
VNP
p2601
sbag5
(g6
g7
(lp2602
g817
atp2603
Rp2604
(dp2605
g16
VNN
p2606
sbag5
(g6
g7
(lp2607
g823
atp2608
Rp2609
(dp2610
g16
VPOS
p2611
sbatp2612
Rp2613
(dp2614
g16
VNP
p2615
sbag5
(g6
g7
(lp2616
V\u005c
p2617
atp2618
Rp2619
(dp2620
g16
VNNP
p2621
sbag5
(g6
g7
(lp2622
Vud835
p2623
atp2624
Rp2625
(dp2626
g16
VNNP
p2627
sbag5
(g6
g7
(lp2628
g823
atp2629
Rp2630
(dp2631
g16
V''
p2632
sbatp2633
Rp2634
(dp2635
g16
VNP
p2636
sbag5
(g6
g7
(lp2637
g5
(g6
g7
(lp2638
g5
(g6
g7
(lp2639
g817
atp2640
Rp2641
(dp2642
g16
VNNP
p2643
sbag5
(g6
g7
(lp2644
g823
atp2645
Rp2646
(dp2647
g16
VPOS
p2648
sbatp2649
Rp2650
(dp2651
g16
VNP
p2652
sbag5
(g6
g7
(lp2653
V\u005c
p2654
atp2655
Rp2656
(dp2657
g16
VJJ
p2658
sbag5
(g6
g7
(lp2659
Vudc33
p2660
atp2661
Rp2662
(dp2663
g16
VJJ
p2664
sbag5
(g6
g7
(lp2665
g823
atp2666
Rp2667
(dp2668
g16
V''
p2669
sbag5
(g6
g7
(lp2670
g2353
atp2671
Rp2672
(dp2673
g16
VNN
p2674
sbatp2675
Rp2676
(dp2677
g16
VNP
p2678
sbatp2679
Rp2680
(dp2681
g16
VNP
p2682
sbag5
(g6
g7
(lp2683
V-
p2684
atp2685
Rp2686
(dp2687
g16
V:
p2688
sbag5
(g6
g7
(lp2689
g5
(g6
g7
(lp2690
g5
(g6
g7
(lp2691
g1875
atp2692
Rp2693
(dp2694
g16
VCD
p2695
sbag5
(g6
g7
(lp2696
V-LRB-
p2697
atp2698
Rp2699
(dp2700
g16
V-LRB-
p2701
sbag5
(g6
g7
(lp2702
g2242
atp2703
Rp2704
(dp2705
g16
VNN
p2706
sbag5
(g6
g7
(lp2707
V-RRB-
p2708
atp2709
Rp2710
(dp2711
g16
V-RRB-
p2712
sbatp2713
Rp2714
(dp2715
g16
VNP
p2716
sbag5
(g6
g7
(lp2717
g135
atp2718
Rp2719
(dp2720
g16
g135
sbag5
(g6
g7
(lp2721
g5
(g6
g7
(lp2722
g5
(g6
g7
(lp2723
g817
atp2724
Rp2725
(dp2726
g16
VNNP
p2727
sbag5
(g6
g7
(lp2728
g823
atp2729
Rp2730
(dp2731
g16
VPOS
p2732
sbatp2733
Rp2734
(dp2735
g16
VNP
p2736
sbag5
(g6
g7
(lp2737
V\u005c
p2738
atp2739
Rp2740
(dp2741
g16
VJJ
p2742
sbag5
(g6
g7
(lp2743
Vud835
p2744
atp2745
Rp2746
(dp2747
g16
VJJ
p2748
sbag5
(g6
g7
(lp2749
g823
atp2750
Rp2751
(dp2752
g16
V''
p2753
sbag5
(g6
g7
(lp2754
g817
atp2755
Rp2756
(dp2757
g16
VNN
p2758
sbatp2759
Rp2760
(dp2761
g16
VNP
p2762
sbatp2763
Rp2764
(dp2765
g16
VNP
p2766
sbatp2767
Rp2768
(dp2769
g16
VNP
p2770
sbag5
(g6
g7
(lp2771
g823
atp2772
Rp2773
(dp2774
g16
V''
p2775
sbatp2776
Rp2777
(dp2778
g16
VNP
p2779
sbag5
(g6
g7
(lp2780
g5
(g6
g7
(lp2781
V\u005c
p2782
atp2783
Rp2784
(dp2785
g16
VVBZ
p2786
sbag5
(g6
g7
(lp2787
g5
(g6
g7
(lp2788
g5
(g6
g7
(lp2789
Vudc30
p2790
atp2791
Rp2792
(dp2793
g16
VNNP
p2794
sbag5
(g6
g7
(lp2795
g823
atp2796
Rp2797
(dp2798
g16
VPOS
p2799
sbatp2800
Rp2801
(dp2802
g16
VNP
p2803
sbag5
(g6
g7
(lp2804
g2353
atp2805
Rp2806
(dp2807
g16
VNN
p2808
sbatp2809
Rp2810
(dp2811
g16
VNP
p2812
sbatp2813
Rp2814
(dp2815
g16
VVP
p2816
sbatp2817
Rp2818
(dp2819
g16
g314
sbatp2820
Rp2821
(dp2822
g16
VSBAR
p2823
sbag5
(g6
g7
(lp2824
V-RRB-
p2825
atp2826
Rp2827
(dp2828
g16
V-RRB-
p2829
sbatp2830
Rp2831
(dp2832
g16
VPRN
p2833
sbag5
(g6
g7
(lp2834
Vand
p2835
atp2836
Rp2837
(dp2838
g16
VCC
p2839
sbag5
(g6
g7
(lp2840
g5
(g6
g7
(lp2841
Vscaling
p2842
atp2843
Rp2844
(dp2845
g16
VVBG
p2846
sbag5
(g6
g7
(lp2847
g5
(g6
g7
(lp2848
Vthe
p2849
atp2850
Rp2851
(dp2852
g16
VDT
p2853
sbag5
(g6
g7
(lp2854
g5
(g6
g7
(lp2855
Vparticle
p2856
atp2857
Rp2858
(dp2859
g16
VNN
p2860
sbag5
(g6
g7
(lp2861
Vweight
p2862
atp2863
Rp2864
(dp2865
g16
VNN
p2866
sbatp2867
Rp2868
(dp2869
g16
VNP
p2870
sbag5
(g6
g7
(lp2871
g5
(g6
g7
(lp2872
Vby
p2873
atp2874
Rp2875
(dp2876
g16
VIN
p2877
sbag5
(g6
g7
(lp2878
g5
(g6
g7
(lp2879
g817
atp2880
Rp2881
(dp2882
g16
VNN
p2883
sbatp2884
Rp2885
(dp2886
g16
VNP
p2887
sbatp2888
Rp2889
(dp2890
g16
VPP
p2891
sbag5
(g6
g7
(lp2892
g823
atp2893
Rp2894
(dp2895
g16
V''
p2896
sbag5
(g6
g7
(lp2897
g5
(g6
g7
(lp2898
g5
(g6
g7
(lp2899
g5
(g6
g7
(lp2900
g5
(g6
g7
(lp2901
V\u005c
p2902
atp2903
Rp2904
(dp2905
g16
VNNP
p2906
sbag5
(g6
g7
(lp2907
Vud835
p2908
atp2909
Rp2910
(dp2911
g16
VNNP
p2912
sbag5
(g6
g7
(lp2913
g823
atp2914
Rp2915
(dp2916
g16
VPOS
p2917
sbatp2918
Rp2919
(dp2920
g16
VNP
p2921
sbag5
(g6
g7
(lp2922
g817
atp2923
Rp2924
(dp2925
g16
VNN
p2926
sbag5
(g6
g7
(lp2927
g823
atp2928
Rp2929
(dp2930
g16
VPOS
p2931
sbatp2932
Rp2933
(dp2934
g16
VNP
p2935
sbag5
(g6
g7
(lp2936
V\u005c
p2937
atp2938
Rp2939
(dp2940
g16
VNNP
p2941
sbag5
(g6
g7
(lp2942
Vudc0f
p2943
atp2944
Rp2945
(dp2946
g16
VNNP
p2947
sbag5
(g6
g7
(lp2948
g823
atp2949
Rp2950
(dp2951
g16
V''
p2952
sbatp2953
Rp2954
(dp2955
g16
VNP
p2956
sbag5
(g6
g7
(lp2957
g5
(g6
g7
(lp2958
V-LRB-
p2959
atp2960
Rp2961
(dp2962
g16
V-LRB-
p2963
sbag5
(g6
g7
(lp2964
g5
(g6
g7
(lp2965
Vw
p2966
atp2967
Rp2968
(dp2969
g16
VNNP
p2970
sbag5
(g6
g7
(lp2971
g2353
atp2972
Rp2973
(dp2974
g16
VNNP
p2975
sbag5
(g6
g7
(lp2976
g817
atp2977
Rp2978
(dp2979
g16
VNNP
p2980
sbag5
(g6
g7
(lp2981
g823
atp2982
Rp2983
(dp2984
g16
VPOS
p2985
sbatp2986
Rp2987
(dp2988
g16
VNP
p2989
sbag5
(g6
g7
(lp2990
V\u005c
p2991
atp2992
Rp2993
(dp2994
g16
VNN
p2995
sbag5
(g6
g7
(lp2996
Vu2223
p2997
atp2998
Rp2999
(dp3000
g16
VNNS
p3001
sbatp3002
Rp3003
(dp3004
g16
VNP
p3005
sbatp3006
Rp3007
(dp3008
g16
VNP
p3009
sbag5
(g6
g7
(lp3010
g823
atp3011
Rp3012
(dp3013
g16
V''
p3014
sbag5
(g6
g7
(lp3015
g5
(g6
g7
(lp3016
g5
(g6
g7
(lp3017
g5
(g6
g7
(lp3018
g817
atp3019
Rp3020
(dp3021
g16
VNNP
p3022
sbag5
(g6
g7
(lp3023
g823
atp3024
Rp3025
(dp3026
g16
VPOS
p3027
sbatp3028
Rp3029
(dp3030
g16
VNP
p3031
sbag5
(g6
g7
(lp3032
V\u005c
p3033
atp3034
Rp3035
(dp3036
g16
VJJ
p3037
sbag5
(g6
g7
(lp3038
g5
(g6
g7
(lp3039
Vud835
p3040
atp3041
Rp3042
(dp3043
g16
VNNP
p3044
sbag5
(g6
g7
(lp3045
g823
atp3046
Rp3047
(dp3048
g16
VPOS
p3049
sbatp3050
Rp3051
(dp3052
g16
VNP
p3053
sbag5
(g6
g7
(lp3054
g817
atp3055
Rp3056
(dp3057
g16
VNN
p3058
sbag5
(g6
g7
(lp3059
g823
atp3060
Rp3061
(dp3062
g16
V''
p3063
sbatp3064
Rp3065
(dp3066
g16
VNP
p3067
sbag5
(g6
g7
(lp3068
g5
(g6
g7
(lp3069
V\u005c
p3070
atp3071
Rp3072
(dp3073
g16
VJJ
p3074
sbag5
(g6
g7
(lp3075
Vudc33
p3076
atp3077
Rp3078
(dp3079
g16
VNNS
p3080
sbatp3081
Rp3082
(dp3083
g16
VNP
p3084
sbatp3085
Rp3086
(dp3087
g16
VNP
p3088
sbag5
(g6
g7
(lp3089
g823
atp3090
Rp3091
(dp3092
g16
V''
p3093
sbag5
(g6
g7
(lp3094
g5
(g6
g7
(lp3095
g2353
atp3096
Rp3097
(dp3098
g16
VFW
p3099
sbatp3100
Rp3101
(dp3102
g16
VNP
p3103
sbag5
(g6
g7
(lp3104
g2684
atp3105
Rp3106
(dp3107
g16
g2688
sbag5
(g6
g7
(lp3108
g5
(g6
g7
(lp3109
g5
(g6
g7
(lp3110
g1875
atp3111
Rp3112
(dp3113
g16
VCD
p3114
sbag5
(g6
g7
(lp3115
V-LRB-
p3116
atp3117
Rp3118
(dp3119
g16
V-LRB-
p3120
sbag5
(g6
g7
(lp3121
g2242
atp3122
Rp3123
(dp3124
g16
VNN
p3125
sbag5
(g6
g7
(lp3126
V-RRB-
p3127
atp3128
Rp3129
(dp3130
g16
V-RRB-
p3131
sbatp3132
Rp3133
(dp3134
g16
VNP
p3135
sbag5
(g6
g7
(lp3136
g135
atp3137
Rp3138
(dp3139
g16
g135
sbag5
(g6
g7
(lp3140
g5
(g6
g7
(lp3141
g5
(g6
g7
(lp3142
g5
(g6
g7
(lp3143
g817
atp3144
Rp3145
(dp3146
g16
VNNP
p3147
sbag5
(g6
g7
(lp3148
g823
atp3149
Rp3150
(dp3151
g16
VPOS
p3152
sbatp3153
Rp3154
(dp3155
g16
VNP
p3156
sbag5
(g6
g7
(lp3157
V\u005c
p3158
atp3159
Rp3160
(dp3161
g16
VJJ
p3162
sbag5
(g6
g7
(lp3163
g5
(g6
g7
(lp3164
Vud835
p3165
atp3166
Rp3167
(dp3168
g16
VNNP
p3169
sbag5
(g6
g7
(lp3170
g823
atp3171
Rp3172
(dp3173
g16
VPOS
p3174
sbatp3175
Rp3176
(dp3177
g16
VNP
p3178
sbag5
(g6
g7
(lp3179
g817
atp3180
Rp3181
(dp3182
g16
VNN
p3183
sbag5
(g6
g7
(lp3184
g823
atp3185
Rp3186
(dp3187
g16
V''
p3188
sbatp3189
Rp3190
(dp3191
g16
VNP
p3192
sbag5
(g6
g7
(lp3193
g5
(g6
g7
(lp3194
V\u005c
p3195
atp3196
Rp3197
(dp3198
g16
VJJ
p3199
sbag5
(g6
g7
(lp3200
Vudc30
p3201
atp3202
Rp3203
(dp3204
g16
VNNS
p3205
sbatp3206
Rp3207
(dp3208
g16
VNP
p3209
sbatp3210
Rp3211
(dp3212
g16
VNP
p3213
sbatp3214
Rp3215
(dp3216
g16
VNP
p3217
sbag5
(g6
g7
(lp3218
g823
atp3219
Rp3220
(dp3221
g16
V''
p3222
sbag5
(g6
g7
(lp3223
g5
(g6
g7
(lp3224
g2353
atp3225
Rp3226
(dp3227
g16
VFW
p3228
sbatp3229
Rp3230
(dp3231
g16
VNP
p3232
sbag5
(g6
g7
(lp3233
g2684
atp3234
Rp3235
(dp3236
g16
g2688
sbag5
(g6
g7
(lp3237
g5
(g6
g7
(lp3238
g1875
atp3239
Rp3240
(dp3241
g16
VCD
p3242
sbatp3243
Rp3244
(dp3245
g16
VNP
p3246
sbatp3247
Rp3248
(dp3249
g16
VNP
p3250
sbatp3251
Rp3252
(dp3253
g16
VVP
p3254
sbatp3255
Rp3256
(dp3257
g16
VVP
p3258
sbatp3259
Rp3260
(dp3261
g16
VNP
p3262
sbatp3263
Rp3264
(dp3265
g16
VPP
p3266
sbatp3267
Rp3268
(dp3269
g16
VNP
p3270
sbatp3271
Rp3272
(dp3273
g16
g2348
sbatp3274
Rp3275
(dp3276
g16
VFRAG
p3277
sbatp3278
Rp3279
(dp3280
g16
VROOT
p3281
sbasg331
(icmyPackage
CorE
p3282
(dp3283
g334
(lp3284
(I0
I8
tp3285
a(I0
I10
tp3286
asg338
g2312
sbsg344
(icmyPackage
CorE
p3287
(dp3288
g334
(lp3289
(I0
I11
tp3290
a(I0
I123
tp3291
asg338
g5
(g6
g7
(lp3292
g2346
ag2390
ag2397
ag2474
ag2502
ag2831
ag2837
ag2844
ag2851
ag2868
ag2889
ag2894
ag3007
ag3012
ag3086
ag3091
ag3101
ag3106
ag3215
ag3220
ag3230
ag3235
atp3293
Rp3294
(dp3295
g16
g343
sbsbsg350
(icmyPackage
pattern
p3296
(dp3297
g353
I0
sg354
I0
sg355
(lp3298
(lp3299
(lp3300
S'by'
p3301
aS'through'
p3302
aaasg362
(lp3303
I2
aI1
aI1
asg364
(lp3304
S'By extracting comments and comparisons of the cited articles and then organizing them according to the time of publication discovers and displays how the area has developed as a research literature.'
p3305
asg367
I67
sg368
(lp3306
(lp3307
a(lp3308
S'&V-ing@C@'
p3309
aS'&R'
p3310
aasbsg376
(lp3311
(isxpPackage
sxpSent
p3312
(dp3313
g380
(lp3314
I5
asg382
VNow each particle p is propagated forward by drawing a topic z i ( p ) from the conditional posterior distribution u'\u005cud835' u'\u005cudc0f' ( z i ( p ) u'\u005cu2223' u'\u005cud835' u'\u005cudc33' i - 1 ( p ) , u'\u005cud835' u'\u005cudc30' i ) and scaling the particle weight by u'\u005cud835' u'\u005cudc0f' ( w i u'\u005cu2223' u'\u005cud835' u'\u005cudc33' i - 1 ( p ) , u'\u005cud835' u'\u005cudc30' i - 1
p3315
sg384
I4
sg367
I47
sg385
I17
sbasba(icmyPackage
CELink
p3316
(dp3317
g3
(lp3318
g5
(g6
g7
(lp3319
g5
(g6
g7
(lp3320
g5
(g6
g7
(lp3321
g5
(g6
g7
(lp3322
g5
(g6
g7
(lp3323
g5
(g6
g7
(lp3324
VDropping
p3325
atp3326
Rp3327
(dp3328
g16
VVBG
p3329
sbag5
(g6
g7
(lp3330
g5
(g6
g7
(lp3331
g5
(g6
g7
(lp3332
g5
(g6
g7
(lp3333
Vthe
p3334
atp3335
Rp3336
(dp3337
g16
VDT
p3338
sbag5
(g6
g7
(lp3339
Vsuperscript
p3340
atp3341
Rp3342
(dp3343
g16
VNN
p3344
sbatp3345
Rp3346
(dp3347
g16
VNP
p3348
sbag5
(g6
g7
(lp3349
g5
(g6
g7
(lp3350
V-LRB-
p3351
atp3352
Rp3353
(dp3354
g16
V-LRB-
p3355
sbag5
(g6
g7
(lp3356
g5
(g6
g7
(lp3357
g2242
atp3358
Rp3359
(dp3360
g16
VNN
p3361
sbatp3362
Rp3363
(dp3364
g16
VNP
p3365
sbag5
(g6
g7
(lp3366
V-RRB-
p3367
atp3368
Rp3369
(dp3370
g16
V-RRB-
p3371
sbatp3372
Rp3373
(dp3374
g16
VPRN
p3375
sbatp3376
Rp3377
(dp3378
g16
VNP
p3379
sbag5
(g6
g7
(lp3380
g5
(g6
g7
(lp3381
Vfor
p3382
atp3383
Rp3384
(dp3385
g16
VIN
p3386
sbag5
(g6
g7
(lp3387
g5
(g6
g7
(lp3388
Vnotational
p3389
atp3390
Rp3391
(dp3392
g16
VJJ
p3393
sbag5
(g6
g7
(lp3394
Vconvenience
p3395
atp3396
Rp3397
(dp3398
g16
VNN
p3399
sbatp3400
Rp3401
(dp3402
g16
VNP
p3403
sbatp3404
Rp3405
(dp3406
g16
VPP
p3407
sbatp3408
Rp3409
(dp3410
g16
VNP
p3411
sbatp3412
Rp3413
(dp3414
g16
VVP
p3415
sbatp3416
Rp3417
(dp3418
g16
g314
sbag5
(g6
g7
(lp3419
g135
atp3420
Rp3421
(dp3422
g16
g135
sbag5
(g6
g7
(lp3423
g5
(g6
g7
(lp3424
g5
(g6
g7
(lp3425
Vthe
p3426
atp3427
Rp3428
(dp3429
g16
VDT
p3430
sbag5
(g6
g7
(lp3431
Vconditional
p3432
atp3433
Rp3434
(dp3435
g16
VJJ
p3436
sbag5
(g6
g7
(lp3437
Vposterior
p3438
atp3439
Rp3440
(dp3441
g16
VNN
p3442
sbatp3443
Rp3444
(dp3445
g16
VNP
p3446
sbag5
(g6
g7
(lp3447
g5
(g6
g7
(lp3448
Vused
p3449
atp3450
Rp3451
(dp3452
g16
VVBN
p3453
sbag5
(g6
g7
(lp3454
g5
(g6
g7
(lp3455
Vin
p3456
atp3457
Rp3458
(dp3459
g16
VIN
p3460
sbag5
(g6
g7
(lp3461
g5
(g6
g7
(lp3462
Vthe
p3463
atp3464
Rp3465
(dp3466
g16
VDT
p3467
sbag5
(g6
g7
(lp3468
Vpropagation
p3469
atp3470
Rp3471
(dp3472
g16
VNN
p3473
sbag5
(g6
g7
(lp3474
Vstep
p3475
atp3476
Rp3477
(dp3478
g16
VNN
p3479
sbatp3480
Rp3481
(dp3482
g16
VNP
p3483
sbatp3484
Rp3485
(dp3486
g16
VPP
p3487
sbatp3488
Rp3489
(dp3490
g16
VVP
p3491
sbatp3492
Rp3493
(dp3494
g16
VNP
p3495
sbag5
(g6
g7
(lp3496
g5
(g6
g7
(lp3497
Vis
p3498
atp3499
Rp3500
(dp3501
g16
VVBZ
p3502
sbag5
(g6
g7
(lp3503
g5
(g6
g7
(lp3504
Vgiven
p3505
atp3506
Rp3507
(dp3508
g16
VVBN
p3509
sbag5
(g6
g7
(lp3510
g5
(g6
g7
(lp3511
Vby
p3512
atp3513
Rp3514
(dp3515
g16
VIN
p3516
sbatp3517
Rp3518
(dp3519
g16
VPP
p3520
sbatp3521
Rp3522
(dp3523
g16
VVP
p3524
sbatp3525
Rp3526
(dp3527
g16
VVP
p3528
sbatp3529
Rp3530
(dp3531
g16
g314
sbatp3532
Rp3533
(dp3534
g16
VFRAG
p3535
sbatp3536
Rp3537
(dp3538
g16
VROOT
p3539
sbasg331
(icmyPackage
CorE
p3540
(dp3541
g334
(lp3542
(I0
I0
tp3543
a(I0
I8
tp3544
asg338
g3417
sbsg344
(icmyPackage
CorE
p3545
(dp3546
g334
(lp3547
(I0
I10
tp3548
a(I0
I20
tp3549
asg338
g5
(g6
g7
(lp3550
g3493
ag3526
atp3551
Rp3552
(dp3553
g16
g343
sbsbsg350
(icmyPackage
pattern
p3554
(dp3555
g353
I30
sg354
I0
sg355
(lp3556
sg362
(lp3557
I3
aI2
aI1
asg364
(lp3558
S'Being over here we tend to be a bit isolated.'
p3559
aS'Not being sure of the word, he turned it up in the dictionary.'
p3560
asg367
I81
sg368
(lp3561
(lp3562
S'&V-ing@C@'
p3563
aS'(,)'
p3564
aS'&R@Complete@'
p3565
aasbsg376
(lp3566
(isxpPackage
sxpSent
p3567
(dp3568
g380
(lp3569
I6
asg382
VDropping the superscript ( p ) for notational convenience, the conditional posterior used in the propagation step is given by
p3570
sg384
I4
sg367
I49
sg385
I18
sbasba(icmyPackage
CELink
p3571
(dp3572
g3
(lp3573
g5
(g6
g7
(lp3574
g5
(g6
g7
(lp3575
g5
(g6
g7
(lp3576
g5
(g6
g7
(lp3577
g5
(g6
g7
(lp3578
VTo
p3579
atp3580
Rp3581
(dp3582
g16
VTO
p3583
sbag5
(g6
g7
(lp3584
g5
(g6
g7
(lp3585
g5
(g6
g7
(lp3586
Vcombat
p3587
atp3588
Rp3589
(dp3590
g16
VVB
p3591
sbag5
(g6
g7
(lp3592
g5
(g6
g7
(lp3593
Vthis
p3594
atp3595
Rp3596
(dp3597
g16
VDT
p3598
sbag5
(g6
g7
(lp3599
Vinefficiency
p3600
atp3601
Rp3602
(dp3603
g16
VNN
p3604
sbatp3605
Rp3606
(dp3607
g16
VNP
p3608
sbag5
(g6
g7
(lp3609
g135
atp3610
Rp3611
(dp3612
g16
g135
sbag5
(g6
g7
(lp3613
g5
(g6
g7
(lp3614
Vafter
p3615
atp3616
Rp3617
(dp3618
g16
VIN
p3619
sbag5
(g6
g7
(lp3620
g5
(g6
g7
(lp3621
g5
(g6
g7
(lp3622
Vevery
p3623
atp3624
Rp3625
(dp3626
g16
VDT
p3627
sbag5
(g6
g7
(lp3628
Vstate
p3629
atp3630
Rp3631
(dp3632
g16
VNN
p3633
sbag5
(g6
g7
(lp3634
Vtransition
p3635
atp3636
Rp3637
(dp3638
g16
VNN
p3639
sbatp3640
Rp3641
(dp3642
g16
VNP
p3643
sbag5
(g6
g7
(lp3644
g5
(g6
g7
(lp3645
g5
(g6
g7
(lp3646
g5
(g6
g7
(lp3647
Vwe
p3648
atp3649
Rp3650
(dp3651
g16
VPRP
p3652
sbatp3653
Rp3654
(dp3655
g16
VNP
p3656
sbag5
(g6
g7
(lp3657
g5
(g6
g7
(lp3658
Vestimate
p3659
atp3660
Rp3661
(dp3662
g16
VVBP
p3663
sbag5
(g6
g7
(lp3664
g5
(g6
g7
(lp3665
g5
(g6
g7
(lp3666
g5
(g6
g7
(lp3667
Vthe
p3668
atp3669
Rp3670
(dp3671
g16
VDT
p3672
sbag5
(g6
g7
(lp3673
Veffective
p3674
atp3675
Rp3676
(dp3677
g16
VJJ
p3678
sbag5
(g6
g7
(lp3679
Vsample
p3680
atp3681
Rp3682
(dp3683
g16
VNN
p3684
sbag5
(g6
g7
(lp3685
Vsize
p3686
atp3687
Rp3688
(dp3689
g16
VNN
p3690
sbatp3691
Rp3692
(dp3693
g16
VNP
p3694
sbag5
(g6
g7
(lp3695
g5
(g6
g7
(lp3696
V-LRB-
p3697
atp3698
Rp3699
(dp3700
g16
V-LRB-
p3701
sbag5
(g6
g7
(lp3702
g5
(g6
g7
(lp3703
VESS
p3704
atp3705
Rp3706
(dp3707
g16
VNNP
p3708
sbatp3709
Rp3710
(dp3711
g16
VNP
p3712
sbag5
(g6
g7
(lp3713
V-RRB-
p3714
atp3715
Rp3716
(dp3717
g16
V-RRB-
p3718
sbatp3719
Rp3720
(dp3721
g16
VPRN
p3722
sbatp3723
Rp3724
(dp3725
g16
VNP
p3726
sbag5
(g6
g7
(lp3727
g5
(g6
g7
(lp3728
Vof
p3729
atp3730
Rp3731
(dp3732
g16
VIN
p3733
sbag5
(g6
g7
(lp3734
g5
(g6
g7
(lp3735
Vthe
p3736
atp3737
Rp3738
(dp3739
g16
VDT
p3740
sbag5
(g6
g7
(lp3741
Vparticle
p3742
atp3743
Rp3744
(dp3745
g16
VNN
p3746
sbag5
(g6
g7
(lp3747
Vweights
p3748
atp3749
Rp3750
(dp3751
g16
VNNS
p3752
sbatp3753
Rp3754
(dp3755
g16
VNP
p3756
sbatp3757
Rp3758
(dp3759
g16
VPP
p3760
sbatp3761
Rp3762
(dp3763
g16
VNP
p3764
sbag5
(g6
g7
(lp3765
g5
(g6
g7
(lp3766
Vas
p3767
atp3768
Rp3769
(dp3770
g16
VIN
p3771
sbag5
(g6
g7
(lp3772
g5
(g6
g7
(lp3773
g5
(g6
g7
(lp3774
g5
(g6
g7
(lp3775
g817
atp3776
Rp3777
(dp3778
g16
VNNP
p3779
sbag5
(g6
g7
(lp3780
g823
atp3781
Rp3782
(dp3783
g16
VPOS
p3784
sbatp3785
Rp3786
(dp3787
g16
VNP
p3788
sbag5
(g6
g7
(lp3789
V\u005c
p3790
atp3791
Rp3792
(dp3793
g16
VJJ
p3794
sbag5
(g6
g7
(lp3795
g5
(g6
g7
(lp3796
Vu2225
p3797
atp3798
Rp3799
(dp3800
g16
VNNP
p3801
sbag5
(g6
g7
(lp3802
g823
atp3803
Rp3804
(dp3805
g16
VPOS
p3806
sbatp3807
Rp3808
(dp3809
g16
VNP
p3810
sbag5
(g6
g7
(lp3811
g817
atp3812
Rp3813
(dp3814
g16
VNN
p3815
sbag5
(g6
g7
(lp3816
g823
atp3817
Rp3818
(dp3819
g16
V''
p3820
sbatp3821
Rp3822
(dp3823
g16
VNP
p3824
sbag5
(g6
g7
(lp3825
g5
(g6
g7
(lp3826
V\u005c
p3827
atp3828
Rp3829
(dp3830
g16
VVBG
p3831
sbag5
(g6
g7
(lp3832
g5
(g6
g7
(lp3833
g5
(g6
g7
(lp3834
g5
(g6
g7
(lp3835
g5
(g6
g7
(lp3836
Vu03a9
p3837
atp3838
Rp3839
(dp3840
g16
VNNP
p3841
sbag5
(g6
g7
(lp3842
g823
atp3843
Rp3844
(dp3845
g16
VPOS
p3846
sbatp3847
Rp3848
(dp3849
g16
VNP
p3850
sbag5
(g6
g7
(lp3851
g2353
atp3852
Rp3853
(dp3854
g16
VJJ
p3855
sbag5
(g6
g7
(lp3856
g817
atp3857
Rp3858
(dp3859
g16
VNN
p3860
sbag5
(g6
g7
(lp3861
g823
atp3862
Rp3863
(dp3864
g16
VPOS
p3865
sbatp3866
Rp3867
(dp3868
g16
VNP
p3869
sbag5
(g6
g7
(lp3870
V\u005c
p3871
atp3872
Rp3873
(dp3874
g16
VNNP
p3875
sbag5
(g6
g7
(lp3876
Vu2225
p3877
atp3878
Rp3879
(dp3880
g16
VNNP
p3881
sbag5
(g6
g7
(lp3882
g823
atp3883
Rp3884
(dp3885
g16
V''
p3886
sbatp3887
Rp3888
(dp3889
g16
VNP
p3890
sbag5
(g6
g7
(lp3891
g5
(g6
g7
(lp3892
V2
p3893
atp3894
Rp3895
(dp3896
g16
VCD
p3897
sbatp3898
Rp3899
(dp3900
g16
VNP
p3901
sbag5
(g6
g7
(lp3902
g2684
atp3903
Rp3904
(dp3905
g16
g2688
sbag5
(g6
g7
(lp3906
g5
(g6
g7
(lp3907
g5
(g6
g7
(lp3908
g5
(g6
g7
(lp3909
g3893
atp3910
Rp3911
(dp3912
g16
VCD
p3913
sbag5
(g6
g7
(lp3914
V-LSB-
p3915
atp3916
Rp3917
(dp3918
g16
VCD
p3919
sbatp3920
Rp3921
(dp3922
g16
VQP
p3923
sbatp3924
Rp3925
(dp3926
g16
VNP
p3927
sbag5
(g6
g7
(lp3928
g5
(g6
g7
(lp3929
V14
p3930
atp3931
Rp3932
(dp3933
g16
VCD
p3934
sbag5
(g6
g7
(lp3935
V-RSB-
p3936
atp3937
Rp3938
(dp3939
g16
VNNS
p3940
sbatp3941
Rp3942
(dp3943
g16
VNP
p3944
sbatp3945
Rp3946
(dp3947
g16
VNP
p3948
sbatp3949
Rp3950
(dp3951
g16
VNP
p3952
sbatp3953
Rp3954
(dp3955
g16
VVP
p3956
sbatp3957
Rp3958
(dp3959
g16
VNP
p3960
sbatp3961
Rp3962
(dp3963
g16
VPP
p3964
sbatp3965
Rp3966
(dp3967
g16
VVP
p3968
sbatp3969
Rp3970
(dp3971
g16
g314
sbatp3972
Rp3973
(dp3974
g16
VSBAR
p3975
sbatp3976
Rp3977
(dp3978
g16
VNP
p3979
sbatp3980
Rp3981
(dp3982
g16
VPP
p3983
sbatp3984
Rp3985
(dp3986
g16
VVP
p3987
sbag5
(g6
g7
(lp3988
Vand
p3989
atp3990
Rp3991
(dp3992
g16
VCC
p3993
sbag5
(g6
g7
(lp3994
g5
(g6
g7
(lp3995
Vresample
p3996
atp3997
Rp3998
(dp3999
g16
VVB
p4000
sbag5
(g6
g7
(lp4001
g5
(g6
g7
(lp4002
Vthe
p4003
atp4004
Rp4005
(dp4006
g16
VDT
p4007
sbag5
(g6
g7
(lp4008
Vparticles
p4009
atp4010
Rp4011
(dp4012
g16
VNNS
p4013
sbatp4014
Rp4015
(dp4016
g16
VNP
p4017
sbag5
(g6
g7
(lp4018
g5
(g6
g7
(lp4019
g5
(g6
g7
(lp4020
Vwhen
p4021
atp4022
Rp4023
(dp4024
g16
VWRB
p4025
sbatp4026
Rp4027
(dp4028
g16
VWHADVP
p4029
sbag5
(g6
g7
(lp4030
g5
(g6
g7
(lp4031
g5
(g6
g7
(lp4032
Vthat
p4033
atp4034
Rp4035
(dp4036
g16
VDT
p4037
sbag5
(g6
g7
(lp4038
Vestimate
p4039
atp4040
Rp4041
(dp4042
g16
VNN
p4043
sbatp4044
Rp4045
(dp4046
g16
VNP
p4047
sbag5
(g6
g7
(lp4048
g5
(g6
g7
(lp4049
Vdrops
p4050
atp4051
Rp4052
(dp4053
g16
VVBZ
p4054
sbag5
(g6
g7
(lp4055
g5
(g6
g7
(lp4056
Vbelow
p4057
atp4058
Rp4059
(dp4060
g16
VIN
p4061
sbag5
(g6
g7
(lp4062
g5
(g6
g7
(lp4063
g34
atp4064
Rp4065
(dp4066
g16
VDT
p4067
sbag5
(g6
g7
(lp4068
Vprespecified
p4069
atp4070
Rp4071
(dp4072
g16
VJJ
p4073
sbag5
(g6
g7
(lp4074
Vthreshold
p4075
atp4076
Rp4077
(dp4078
g16
VNN
p4079
sbatp4080
Rp4081
(dp4082
g16
VNP
p4083
sbatp4084
Rp4085
(dp4086
g16
VPP
p4087
sbatp4088
Rp4089
(dp4090
g16
VVP
p4091
sbatp4092
Rp4093
(dp4094
g16
g314
sbatp4095
Rp4096
(dp4097
g16
VSBAR
p4098
sbatp4099
Rp4100
(dp4101
g16
VVP
p4102
sbatp4103
Rp4104
(dp4105
g16
VVP
p4106
sbatp4107
Rp4108
(dp4109
g16
VVP
p4110
sbatp4111
Rp4112
(dp4113
g16
g314
sbatp4114
Rp4115
(dp4116
g16
VFRAG
p4117
sbatp4118
Rp4119
(dp4120
g16
VROOT
p4121
sbasg331
(icmyPackage
CorE
p4122
(dp4123
g334
(lp4124
(I0
I23
tp4125
a(I0
I50
tp4126
asg338
g5
(g6
g7
(lp4127
g3958
ag3991
ag3998
ag4015
ag4027
ag4035
atp4128
Rp4129
(dp4130
g16
g343
sbsbsg344
(icmyPackage
CorE
p4131
(dp4132
g334
(lp4133
(I0
I5
tp4134
a(I0
I21
tp4135
asg338
g5
(g6
g7
(lp4136
g3617
ag3641
ag3654
ag3661
ag3762
atp4137
Rp4138
(dp4139
g16
g343
sbsbsg350
g1531
sg376
(lp4140
(isxpPackage
sxpSent
p4141
(dp4142
g380
(lp4143
I7
asg382
VTo combat this inefficiency, after every state transition we estimate the effective sample size (ESS) of the particle weights as u'\u005cu2225' u'\u005cu03a9' i u'\u005cu2225' 2 - 2 [ 14 ] and resample the particles when that estimate drops below a prespecified threshold
p4144
sg384
I4
sg367
I55
sg385
I22
sbasba(icmyPackage
CELink
p4145
(dp4146
g3
(lp4147
g5
(g6
g7
(lp4148
g5
(g6
g7
(lp4149
g5
(g6
g7
(lp4150
g5
(g6
g7
(lp4151
VIf
p4152
atp4153
Rp4154
(dp4155
g16
VIN
p4156
sbag5
(g6
g7
(lp4157
g5
(g6
g7
(lp4158
g5
(g6
g7
(lp4159
Vwe
p4160
atp4161
Rp4162
(dp4163
g16
VPRP
p4164
sbatp4165
Rp4166
(dp4167
g16
VNP
p4168
sbag5
(g6
g7
(lp4169
g5
(g6
g7
(lp4170
Vwant
p4171
atp4172
Rp4173
(dp4174
g16
VVBP
p4175
sbag5
(g6
g7
(lp4176
g5
(g6
g7
(lp4177
g5
(g6
g7
(lp4178
Vto
p4179
atp4180
Rp4181
(dp4182
g16
VTO
p4183
sbag5
(g6
g7
(lp4184
g5
(g6
g7
(lp4185
Vfit
p4186
atp4187
Rp4188
(dp4189
g16
VVB
p4190
sbag5
(g6
g7
(lp4191
g5
(g6
g7
(lp4192
g34
atp4193
Rp4194
(dp4195
g16
VDT
p4196
sbag5
(g6
g7
(lp4197
Vmodel
p4198
atp4199
Rp4200
(dp4201
g16
VNN
p4202
sbatp4203
Rp4204
(dp4205
g16
VNP
p4206
sbag5
(g6
g7
(lp4207
g5
(g6
g7
(lp4208
Vto
p4209
atp4210
Rp4211
(dp4212
g16
VTO
p4213
sbag5
(g6
g7
(lp4214
g5
(g6
g7
(lp4215
g34
atp4216
Rp4217
(dp4218
g16
VDT
p4219
sbag5
(g6
g7
(lp4220
Vlong
p4221
atp4222
Rp4223
(dp4224
g16
VJJ
p4225
sbag5
(g6
g7
(lp4226
Vnon-i.i.d.
p4227
atp4228
Rp4229
(dp4230
g16
VJJ
p4231
sbag5
(g6
g7
(lp4232
Vstream
p4233
atp4234
Rp4235
(dp4236
g16
VNN
p4237
sbatp4238
Rp4239
(dp4240
g16
VNP
p4241
sbatp4242
Rp4243
(dp4244
g16
VPP
p4245
sbatp4246
Rp4247
(dp4248
g16
VVP
p4249
sbatp4250
Rp4251
(dp4252
g16
VVP
p4253
sbatp4254
Rp4255
(dp4256
g16
g314
sbatp4257
Rp4258
(dp4259
g16
VVP
p4260
sbatp4261
Rp4262
(dp4263
g16
g314
sbatp4264
Rp4265
(dp4266
g16
VSBAR
p4267
sbag5
(g6
g7
(lp4268
g135
atp4269
Rp4270
(dp4271
g16
g135
sbag5
(g6
g7
(lp4272
g5
(g6
g7
(lp4273
Vwe
p4274
atp4275
Rp4276
(dp4277
g16
VPRP
p4278
sbatp4279
Rp4280
(dp4281
g16
VNP
p4282
sbag5
(g6
g7
(lp4283
g5
(g6
g7
(lp4284
Vrequire
p4285
atp4286
Rp4287
(dp4288
g16
VVBP
p4289
sbag5
(g6
g7
(lp4290
g5
(g6
g7
(lp4291
g5
(g6
g7
(lp4292
Van
p4293
atp4294
Rp4295
(dp4296
g16
VDT
p4297
sbag5
(g6
g7
(lp4298
Vunbiased
p4299
atp4300
Rp4301
(dp4302
g16
VJJ
p4303
sbag5
(g6
g7
(lp4304
Vrejuvenation
p4305
atp4306
Rp4307
(dp4308
g16
VNN
p4309
sbag5
(g6
g7
(lp4310
Vsequence
p4311
atp4312
Rp4313
(dp4314
g16
VNN
p4315
sbatp4316
Rp4317
(dp4318
g16
VNP
p4319
sbag5
(g6
g7
(lp4320
g5
(g6
g7
(lp4321
Vas
p4322
atp4323
Rp4324
(dp4325
g16
VRB
p4326
sbag5
(g6
g7
(lp4327
Vwell
p4328
atp4329
Rp4330
(dp4331
g16
VRB
p4332
sbag5
(g6
g7
(lp4333
Vas
p4334
atp4335
Rp4336
(dp4337
g16
VIN
p4338
sbatp4339
Rp4340
(dp4341
g16
VCONJP
p4342
sbag5
(g6
g7
(lp4343
g5
(g6
g7
(lp4344
Vsub-linear
p4345
atp4346
Rp4347
(dp4348
g16
VJJ
p4349
sbag5
(g6
g7
(lp4350
Vstorage
p4351
atp4352
Rp4353
(dp4354
g16
VNN
p4355
sbag5
(g6
g7
(lp4356
Vcomplexity
p4357
atp4358
Rp4359
(dp4360
g16
VNN
p4361
sbatp4362
Rp4363
(dp4364
g16
VNP
p4365
sbatp4366
Rp4367
(dp4368
g16
VNP
p4369
sbatp4370
Rp4371
(dp4372
g16
VVP
p4373
sbatp4374
Rp4375
(dp4376
g16
g314
sbatp4377
Rp4378
(dp4379
g16
VROOT
p4380
sbasg331
(icmyPackage
CorE
p4381
(dp4382
g334
(lp4383
(I0
I1
tp4384
a(I0
I11
tp4385
asg338
g4262
sbsg344
(icmyPackage
CorE
p4386
(dp4387
g334
(lp4388
(I0
I13
tp4389
a(I0
I24
tp4390
asg338
g5
(g6
g7
(lp4391
g4280
ag4371
atp4392
Rp4393
(dp4394
g16
g343
sbsbsg350
(icmyPackage
pattern
p4395
(dp4396
g353
I0
sg354
I0
sg355
(lp4397
(lp4398
(lp4399
S'if'
p4400
aS'once'
p4401
aaa(lp4402
g361
aasg362
(lp4403
I1
aI1
aI1
asg364
(lp4404
S'If some light and mobile detection devices can be invented in the future, many new applications can be imagined, for example, people can get some services while thinking.'
p4405
asg367
I15
sg368
(lp4406
(lp4407
a(lp4408
S'&C@Complete@'
p4409
aa(lp4410
S'&R@Complete@'
p4411
aasbsg376
(lp4412
(isxpPackage
sxpSent
p4413
(dp4414
g380
(lp4415
I8
asg382
VIf we want to fit a model to a long non-i.i.d.stream, we require an unbiased rejuvenation sequence as well as sub-linear storage complexity
p4416
sg384
I4
sg367
I70
sg385
I25
sbasba(icmyPackage
CELink
p4417
(dp4418
g3
(lp4419
g5
(g6
g7
(lp4420
g5
(g6
g7
(lp4421
g5
(g6
g7
(lp4422
g5
(g6
g7
(lp4423
VReservoir
p4424
atp4425
Rp4426
(dp4427
g16
VJJ
p4428
sbag5
(g6
g7
(lp4429
Vsampling
p4430
atp4431
Rp4432
(dp4433
g16
VNN
p4434
sbatp4435
Rp4436
(dp4437
g16
VNP
p4438
sbag5
(g6
g7
(lp4439
g5
(g6
g7
(lp4440
Vis
p4441
atp4442
Rp4443
(dp4444
g16
VVBZ
p4445
sbag5
(g6
g7
(lp4446
g5
(g6
g7
(lp4447
g5
(g6
g7
(lp4448
g34
atp4449
Rp4450
(dp4451
g16
VDT
p4452
sbag5
(g6
g7
(lp4453
Vwidely-used
p4454
atp4455
Rp4456
(dp4457
g16
VJJ
p4458
sbag5
(g6
g7
(lp4459
Vfamily
p4460
atp4461
Rp4462
(dp4463
g16
VNN
p4464
sbatp4465
Rp4466
(dp4467
g16
VNP
p4468
sbag5
(g6
g7
(lp4469
g5
(g6
g7
(lp4470
Vof
p4471
atp4472
Rp4473
(dp4474
g16
VIN
p4475
sbag5
(g6
g7
(lp4476
g5
(g6
g7
(lp4477
g5
(g6
g7
(lp4478
Valgorithms
p4479
atp4480
Rp4481
(dp4482
g16
VNNS
p4483
sbatp4484
Rp4485
(dp4486
g16
VNP
p4487
sbag5
(g6
g7
(lp4488
g5
(g6
g7
(lp4489
Vfor
p4490
atp4491
Rp4492
(dp4493
g16
VIN
p4494
sbag5
(g6
g7
(lp4495
g5
(g6
g7
(lp4496
g5
(g6
g7
(lp4497
Vchoosing
p4498
atp4499
Rp4500
(dp4501
g16
VVBG
p4502
sbag5
(g6
g7
(lp4503
g5
(g6
g7
(lp4504
g5
(g6
g7
(lp4505
Van
p4506
atp4507
Rp4508
(dp4509
g16
VDT
p4510
sbag5
(g6
g7
(lp4511
Varray
p4512
atp4513
Rp4514
(dp4515
g16
VNN
p4516
sbatp4517
Rp4518
(dp4519
g16
VNP
p4520
sbag5
(g6
g7
(lp4521
g5
(g6
g7
(lp4522
V-LRB-
p4523
atp4524
Rp4525
(dp4526
g16
V-LRB-
p4527
sbag5
(g6
g7
(lp4528
g5
(g6
g7
(lp4529
g5
(g6
g7
(lp4530
g5
(g6
g7
(lp4531
g817
atp4532
Rp4533
(dp4534
g16
VNNP
p4535
sbag5
(g6
g7
(lp4536
g823
atp4537
Rp4538
(dp4539
g16
VPOS
p4540
sbatp4541
Rp4542
(dp4543
g16
VNP
p4544
sbag5
(g6
g7
(lp4545
V\u005c
p4546
atp4547
Rp4548
(dp4549
g16
VJJ
p4550
sbag5
(g6
g7
(lp4551
Vu201c
p4552
atp4553
Rp4554
(dp4555
g16
VNNS
p4556
sbag5
(g6
g7
(lp4557
g823
atp4558
Rp4559
(dp4560
g16
V''
p4561
sbag5
(g6
g7
(lp4562
Vreservoir
p4563
atp4564
Rp4565
(dp4566
g16
VNN
p4567
sbatp4568
Rp4569
(dp4570
g16
VNP
p4571
sbag5
(g6
g7
(lp4572
g5
(g6
g7
(lp4573
g817
atp4574
Rp4575
(dp4576
g16
VVBP
p4577
sbag5
(g6
g7
(lp4578
g823
atp4579
Rp4580
(dp4581
g16
V''
p4582
sbag5
(g6
g7
(lp4583
g5
(g6
g7
(lp4584
V\u005c
p4585
atp4586
Rp4587
(dp4588
g16
VJJ
p4589
sbag5
(g6
g7
(lp4590
Vu201d
p4591
atp4592
Rp4593
(dp4594
g16
VNNS
p4595
sbatp4596
Rp4597
(dp4598
g16
VNP
p4599
sbag5
(g6
g7
(lp4600
g823
atp4601
Rp4602
(dp4603
g16
V''
p4604
sbatp4605
Rp4606
(dp4607
g16
VVP
p4608
sbatp4609
Rp4610
(dp4611
g16
g314
sbag5
(g6
g7
(lp4612
V-RRB-
p4613
atp4614
Rp4615
(dp4616
g16
V-RRB-
p4617
sbatp4618
Rp4619
(dp4620
g16
VPRN
p4621
sbag5
(g6
g7
(lp4622
g5
(g6
g7
(lp4623
Vof
p4624
atp4625
Rp4626
(dp4627
g16
VIN
p4628
sbag5
(g6
g7
(lp4629
g5
(g6
g7
(lp4630
Vk
p4631
atp4632
Rp4633
(dp4634
g16
VNN
p4635
sbag5
(g6
g7
(lp4636
Vitems
p4637
atp4638
Rp4639
(dp4640
g16
VNNS
p4641
sbatp4642
Rp4643
(dp4644
g16
VNP
p4645
sbatp4646
Rp4647
(dp4648
g16
VPP
p4649
sbatp4650
Rp4651
(dp4652
g16
VNP
p4653
sbatp4654
Rp4655
(dp4656
g16
VVP
p4657
sbatp4658
Rp4659
(dp4660
g16
g314
sbatp4661
Rp4662
(dp4663
g16
VPP
p4664
sbatp4665
Rp4666
(dp4667
g16
VNP
p4668
sbatp4669
Rp4670
(dp4671
g16
VPP
p4672
sbatp4673
Rp4674
(dp4675
g16
VNP
p4676
sbatp4677
Rp4678
(dp4679
g16
VVP
p4680
sbatp4681
Rp4682
(dp4683
g16
g314
sbatp4684
Rp4685
(dp4686
g16
VROOT
p4687
sbasg331
(icmyPackage
CorE
p4688
(dp4689
g334
(lp4690
(I0
I9
tp4691
a(I0
I27
tp4692
asg338
g4659
sbsg344
(icmyPackage
CorE
p4693
(dp4694
g334
(lp4695
(I0
I0
tp4696
a(I0
I7
tp4697
asg338
g5
(g6
g7
(lp4698
g4436
ag4443
ag4466
ag4473
ag4485
atp4699
Rp4700
(dp4701
g16
g343
sbsbsg350
(icmyPackage
pattern
p4702
(dp4703
g353
I25
sg354
I0
sg355
(lp4704
(lp4705
S'for'
p4706
aasg362
(lp4707
I2
aI1
aI1
asg364
(lp4708
S'She was angry with him for being late.'
p4709
asg367
I44
sg368
(lp4710
(lp4711
S'&R'
p4712
aa(lp4713
S'&V-ing@C@'
p4714
aasbsg376
(lp4715
(isxpPackage
sxpSent
p4716
(dp4717
g380
(lp4718
I9
aI10
asg382
VReservoir sampling is a widely-used family of algorithms for choosing an array ( u'\u005cu201c' reservoir u'\u005cu201d' ) of k items
p4719
sg384
I5
sg367
I71
sg385
I26
sbasba(icmyPackage
CELink
p4720
(dp4721
g3
(lp4722
g4685
ag5
(g6
g7
(lp4723
g5
(g6
g7
(lp4724
g5
(g6
g7
(lp4725
g5
(g6
g7
(lp4726
g5
(g6
g7
(lp4727
VThe
p4728
atp4729
Rp4730
(dp4731
g16
VDT
p4732
sbag5
(g6
g7
(lp4733
g5
(g6
g7
(lp4734
Vmost
p4735
atp4736
Rp4737
(dp4738
g16
VRBS
p4739
sbag5
(g6
g7
(lp4740
Vcommon
p4741
atp4742
Rp4743
(dp4744
g16
VJJ
p4745
sbatp4746
Rp4747
(dp4748
g16
VADJP
p4749
sbag5
(g6
g7
(lp4750
Vexample
p4751
atp4752
Rp4753
(dp4754
g16
VNN
p4755
sbatp4756
Rp4757
(dp4758
g16
VNP
p4759
sbag5
(g6
g7
(lp4760
g135
atp4761
Rp4762
(dp4763
g16
g135
sbag5
(g6
g7
(lp4764
g5
(g6
g7
(lp4765
Vpresented
p4766
atp4767
Rp4768
(dp4769
g16
VVBN
p4770
sbag5
(g6
g7
(lp4771
g5
(g6
g7
(lp4772
Vin
p4773
atp4774
Rp4775
(dp4776
g16
VIN
p4777
sbag5
(g6
g7
(lp4778
g5
(g6
g7
(lp4779
g5
(g6
g7
(lp4780
VVitter
p4781
atp4782
Rp4783
(dp4784
g16
VNNP
p4785
sbatp4786
Rp4787
(dp4788
g16
VNP
p4789
sbag5
(g6
g7
(lp4790
g5
(g6
g7
(lp4791
V-LRB-
p4792
atp4793
Rp4794
(dp4795
g16
V-LRB-
p4796
sbag5
(g6
g7
(lp4797
g5
(g6
g7
(lp4798
V1985
p4799
atp4800
Rp4801
(dp4802
g16
VCD
p4803
sbatp4804
Rp4805
(dp4806
g16
VNP
p4807
sbag5
(g6
g7
(lp4808
V-RRB-
p4809
atp4810
Rp4811
(dp4812
g16
V-RRB-
p4813
sbatp4814
Rp4815
(dp4816
g16
VPRN
p4817
sbatp4818
Rp4819
(dp4820
g16
VNP
p4821
sbatp4822
Rp4823
(dp4824
g16
VPP
p4825
sbag5
(g6
g7
(lp4826
g5
(g6
g7
(lp4827
Vas
p4828
atp4829
Rp4830
(dp4831
g16
VIN
p4832
sbag5
(g6
g7
(lp4833
g5
(g6
g7
(lp4834
VAlgorithm
p4835
atp4836
Rp4837
(dp4838
g16
VNNP
p4839
sbag5
(g6
g7
(lp4840
VR
p4841
atp4842
Rp4843
(dp4844
g16
VNN
p4845
sbatp4846
Rp4847
(dp4848
g16
VNP
p4849
sbatp4850
Rp4851
(dp4852
g16
VPP
p4853
sbatp4854
Rp4855
(dp4856
g16
VVP
p4857
sbag5
(g6
g7
(lp4858
g135
atp4859
Rp4860
(dp4861
g16
g135
sbatp4862
Rp4863
(dp4864
g16
VNP
p4865
sbag5
(g6
g7
(lp4866
g5
(g6
g7
(lp4867
Vchooses
p4868
atp4869
Rp4870
(dp4871
g16
VVBZ
p4872
sbag5
(g6
g7
(lp4873
g5
(g6
g7
(lp4874
g5
(g6
g7
(lp4875
g4631
atp4876
Rp4877
(dp4878
g16
VNN
p4879
sbag5
(g6
g7
(lp4880
Velements
p4881
atp4882
Rp4883
(dp4884
g16
VNNS
p4885
sbatp4886
Rp4887
(dp4888
g16
VNP
p4889
sbag5
(g6
g7
(lp4890
g5
(g6
g7
(lp4891
Vof
p4892
atp4893
Rp4894
(dp4895
g16
VIN
p4896
sbag5
(g6
g7
(lp4897
g5
(g6
g7
(lp4898
g34
atp4899
Rp4900
(dp4901
g16
VDT
p4902
sbag5
(g6
g7
(lp4903
Vstream
p4904
atp4905
Rp4906
(dp4907
g16
VNN
p4908
sbag5
(g6
g7
(lp4909
Vsuch
p4910
atp4911
Rp4912
(dp4913
g16
VJJ
p4914
sbatp4915
Rp4916
(dp4917
g16
VNP
p4918
sbatp4919
Rp4920
(dp4921
g16
VPP
p4922
sbatp4923
Rp4924
(dp4925
g16
VNP
p4926
sbag5
(g6
g7
(lp4927
g5
(g6
g7
(lp4928
Vthat
p4929
atp4930
Rp4931
(dp4932
g16
VIN
p4933
sbag5
(g6
g7
(lp4934
g5
(g6
g7
(lp4935
g5
(g6
g7
(lp4936
g5
(g6
g7
(lp4937
Veach
p4938
atp4939
Rp4940
(dp4941
g16
VDT
p4942
sbag5
(g6
g7
(lp4943
Vpossible
p4944
atp4945
Rp4946
(dp4947
g16
VJJ
p4948
sbag5
(g6
g7
(lp4949
Vsubset
p4950
atp4951
Rp4952
(dp4953
g16
VNN
p4954
sbatp4955
Rp4956
(dp4957
g16
VNP
p4958
sbag5
(g6
g7
(lp4959
g5
(g6
g7
(lp4960
Vof
p4961
atp4962
Rp4963
(dp4964
g16
VIN
p4965
sbag5
(g6
g7
(lp4966
g5
(g6
g7
(lp4967
g4631
atp4968
Rp4969
(dp4970
g16
VNN
p4971
sbag5
(g6
g7
(lp4972
Velements
p4973
atp4974
Rp4975
(dp4976
g16
VNNS
p4977
sbatp4978
Rp4979
(dp4980
g16
VNP
p4981
sbatp4982
Rp4983
(dp4984
g16
VPP
p4985
sbatp4986
Rp4987
(dp4988
g16
VNP
p4989
sbag5
(g6
g7
(lp4990
g5
(g6
g7
(lp4991
Vis
p4992
atp4993
Rp4994
(dp4995
g16
VVBZ
p4996
sbag5
(g6
g7
(lp4997
g5
(g6
g7
(lp4998
Vequiprobable
p4999
atp5000
Rp5001
(dp5002
g16
VJJ
p5003
sbatp5004
Rp5005
(dp5006
g16
VADJP
p5007
sbatp5008
Rp5009
(dp5010
g16
VVP
p5011
sbatp5012
Rp5013
(dp5014
g16
g314
sbatp5015
Rp5016
(dp5017
g16
VSBAR
p5018
sbatp5019
Rp5020
(dp5021
g16
VVP
p5022
sbatp5023
Rp5024
(dp5025
g16
g314
sbatp5026
Rp5027
(dp5028
g16
VROOT
p5029
sbasg331
(icmyPackage
CorE
p5030
(dp5031
g334
(lp5032
(I1
I12
tp5033
a(I1
I30
tp5034
asg338
g5
(g6
g7
(lp5035
g4847
ag4860
ag5020
atp5036
Rp5037
(dp5038
g16
g343
sbsbsg344
(icmyPackage
CorE
p5039
(dp5040
g334
(lp5041
(I0
I0
tp5042
a(I1
I10
tp5043
asg338
g5
(g6
g7
(lp5044
g4685
ag4757
ag4762
ag4768
ag4823
atp5045
Rp5046
(dp5047
g16
g343
sbsbsg350
g1531
sg376
(lp5048
g4716
a(isxpPackage
sxpSent
p5049
(dp5050
g380
(lp5051
I10
asg382
VThe most common example, presented in Vitter ( 1985 ) as Algorithm R, chooses k elements of a stream such that each possible subset of k elements is equiprobable
p5052
sg384
I5
sg367
I72
sg385
I26
sbasba(icmyPackage
CELink
p5053
(dp5054
g3
(lp5055
g5
(g6
g7
(lp5056
g5
(g6
g7
(lp5057
g5
(g6
g7
(lp5058
g5
(g6
g7
(lp5059
g5
(g6
g7
(lp5060
VTo
p5061
atp5062
Rp5063
(dp5064
g16
VTO
p5065
sbag5
(g6
g7
(lp5066
g5
(g6
g7
(lp5067
Vensure
p5068
atp5069
Rp5070
(dp5071
g16
VVB
p5072
sbag5
(g6
g7
(lp5073
g5
(g6
g7
(lp5074
Vconstant
p5075
atp5076
Rp5077
(dp5078
g16
VJJ
p5079
sbag5
(g6
g7
(lp5080
Vspace
p5081
atp5082
Rp5083
(dp5084
g16
VNN
p5085
sbatp5086
Rp5087
(dp5088
g16
VNP
p5089
sbag5
(g6
g7
(lp5090
g5
(g6
g7
(lp5091
Vover
p5092
atp5093
Rp5094
(dp5095
g16
VIN
p5096
sbag5
(g6
g7
(lp5097
g5
(g6
g7
(lp5098
Van
p5099
atp5100
Rp5101
(dp5102
g16
VDT
p5103
sbag5
(g6
g7
(lp5104
Vunbounded
p5105
atp5106
Rp5107
(dp5108
g16
VJJ
p5109
sbag5
(g6
g7
(lp5110
Vstream
p5111
atp5112
Rp5113
(dp5114
g16
VNN
p5115
sbatp5116
Rp5117
(dp5118
g16
VNP
p5119
sbatp5120
Rp5121
(dp5122
g16
VPP
p5123
sbatp5124
Rp5125
(dp5126
g16
VVP
p5127
sbatp5128
Rp5129
(dp5130
g16
VVP
p5131
sbatp5132
Rp5133
(dp5134
g16
g314
sbag5
(g6
g7
(lp5135
g135
atp5136
Rp5137
(dp5138
g16
g135
sbag5
(g6
g7
(lp5139
g5
(g6
g7
(lp5140
Vwe
p5141
atp5142
Rp5143
(dp5144
g16
VPRP
p5145
sbatp5146
Rp5147
(dp5148
g16
VNP
p5149
sbag5
(g6
g7
(lp5150
g5
(g6
g7
(lp5151
Vdraw
p5152
atp5153
Rp5154
(dp5155
g16
VVBP
p5156
sbag5
(g6
g7
(lp5157
g5
(g6
g7
(lp5158
g5
(g6
g7
(lp5159
g5
(g6
g7
(lp5160
Vthe
p5161
atp5162
Rp5163
(dp5164
g16
VDT
p5165
sbag5
(g6
g7
(lp5166
Vrejuvenation
p5167
atp5168
Rp5169
(dp5170
g16
VNN
p5171
sbag5
(g6
g7
(lp5172
Vsequence
p5173
atp5174
Rp5175
(dp5176
g16
VNN
p5177
sbag5
(g6
g7
(lp5178
g817
atp5179
Rp5180
(dp5181
g16
VNN
p5182
sbag5
(g6
g7
(lp5183
g823
atp5184
Rp5185
(dp5186
g16
VPOS
p5187
sbatp5188
Rp5189
(dp5190
g16
VNP
p5191
sbag5
(g6
g7
(lp5192
V\u005c
p5193
atp5194
Rp5195
(dp5196
g16
VJJ
p5197
sbag5
(g6
g7
(lp5198
g5
(g6
g7
(lp5199
Vu211b
p5200
atp5201
Rp5202
(dp5203
g16
VNNP
p5204
sbag5
(g6
g7
(lp5205
g823
atp5206
Rp5207
(dp5208
g16
VPOS
p5209
sbatp5210
Rp5211
(dp5212
g16
VNP
p5213
sbag5
(g6
g7
(lp5214
g817
atp5215
Rp5216
(dp5217
g16
VNN
p5218
sbag5
(g6
g7
(lp5219
g823
atp5220
Rp5221
(dp5222
g16
V''
p5223
sbatp5224
Rp5225
(dp5226
g16
VNP
p5227
sbag5
(g6
g7
(lp5228
g5
(g6
g7
(lp5229
g5
(g6
g7
(lp5230
g5
(g6
g7
(lp5231
V\u005c
p5232
atp5233
Rp5234
(dp5235
g16
VJJ
p5236
sbag5
(g6
g7
(lp5237
Vu2062
p5238
atp5239
Rp5240
(dp5241
g16
VNNS
p5242
sbag5
(g6
g7
(lp5243
g823
atp5244
Rp5245
(dp5246
g16
V''
p5247
sbatp5248
Rp5249
(dp5250
g16
VNP
p5251
sbag5
(g6
g7
(lp5252
g5
(g6
g7
(lp5253
V-LRB-
p5254
atp5255
Rp5256
(dp5257
g16
V-LRB-
p5258
sbag5
(g6
g7
(lp5259
g5
(g6
g7
(lp5260
g2353
atp5261
Rp5262
(dp5263
g16
VNNP
p5264
sbatp5265
Rp5266
(dp5267
g16
VNP
p5268
sbag5
(g6
g7
(lp5269
V-RRB-
p5270
atp5271
Rp5272
(dp5273
g16
V-RRB-
p5274
sbatp5275
Rp5276
(dp5277
g16
VPRN
p5278
sbatp5279
Rp5280
(dp5281
g16
VNP
p5282
sbag5
(g6
g7
(lp5283
Vuniformly
p5284
atp5285
Rp5286
(dp5287
g16
VRB
p5288
sbag5
(g6
g7
(lp5289
g5
(g6
g7
(lp5290
Vfrom
p5291
atp5292
Rp5293
(dp5294
g16
VIN
p5295
sbag5
(g6
g7
(lp5296
g5
(g6
g7
(lp5297
g34
atp5298
Rp5299
(dp5300
g16
VDT
p5301
sbag5
(g6
g7
(lp5302
Vreservoir
p5303
atp5304
Rp5305
(dp5306
g16
VNN
p5307
sbatp5308
Rp5309
(dp5310
g16
VNP
p5311
sbatp5312
Rp5313
(dp5314
g16
VPP
p5315
sbatp5316
Rp5317
(dp5318
g16
VADVP
p5319
sbatp5320
Rp5321
(dp5322
g16
VNP
p5323
sbatp5324
Rp5325
(dp5326
g16
VVP
p5327
sbatp5328
Rp5329
(dp5330
g16
g314
sbatp5331
Rp5332
(dp5333
g16
VROOT
p5334
sbag5
(g6
g7
(lp5335
g5
(g6
g7
(lp5336
g5
(g6
g7
(lp5337
g5
(g6
g7
(lp5338
VAs
p5339
atp5340
Rp5341
(dp5342
g16
VIN
p5343
sbag5
(g6
g7
(lp5344
g5
(g6
g7
(lp5345
g5
(g6
g7
(lp5346
g5
(g6
g7
(lp5347
Veach
p5348
atp5349
Rp5350
(dp5351
g16
VDT
p5352
sbag5
(g6
g7
(lp5353
Vtoken
p5354
atp5355
Rp5356
(dp5357
g16
VJJ
p5358
sbatp5359
Rp5360
(dp5361
g16
VNP
p5362
sbag5
(g6
g7
(lp5363
g5
(g6
g7
(lp5364
Vof
p5365
atp5366
Rp5367
(dp5368
g16
VIN
p5369
sbag5
(g6
g7
(lp5370
g5
(g6
g7
(lp5371
Vthe
p5372
atp5373
Rp5374
(dp5375
g16
VDT
p5376
sbag5
(g6
g7
(lp5377
Vtraining
p5378
atp5379
Rp5380
(dp5381
g16
VNN
p5382
sbag5
(g6
g7
(lp5383
Vdata
p5384
atp5385
Rp5386
(dp5387
g16
VNNS
p5388
sbatp5389
Rp5390
(dp5391
g16
VNP
p5392
sbatp5393
Rp5394
(dp5395
g16
VPP
p5396
sbatp5397
Rp5398
(dp5399
g16
VNP
p5400
sbag5
(g6
g7
(lp5401
g5
(g6
g7
(lp5402
Vis
p5403
atp5404
Rp5405
(dp5406
g16
VVBZ
p5407
sbag5
(g6
g7
(lp5408
g5
(g6
g7
(lp5409
Vingested
p5410
atp5411
Rp5412
(dp5413
g16
VVBN
p5414
sbag5
(g6
g7
(lp5415
g5
(g6
g7
(lp5416
Vby
p5417
atp5418
Rp5419
(dp5420
g16
VIN
p5421
sbag5
(g6
g7
(lp5422
g5
(g6
g7
(lp5423
Vthe
p5424
atp5425
Rp5426
(dp5427
g16
VDT
p5428
sbag5
(g6
g7
(lp5429
Vparticle
p5430
atp5431
Rp5432
(dp5433
g16
VNN
p5434
sbag5
(g6
g7
(lp5435
Vfilter
p5436
atp5437
Rp5438
(dp5439
g16
VNN
p5440
sbatp5441
Rp5442
(dp5443
g16
VNP
p5444
sbatp5445
Rp5446
(dp5447
g16
VPP
p5448
sbatp5449
Rp5450
(dp5451
g16
VVP
p5452
sbatp5453
Rp5454
(dp5455
g16
VVP
p5456
sbatp5457
Rp5458
(dp5459
g16
g314
sbatp5460
Rp5461
(dp5462
g16
VSBAR
p5463
sbag5
(g6
g7
(lp5464
g135
atp5465
Rp5466
(dp5467
g16
g135
sbag5
(g6
g7
(lp5468
g5
(g6
g7
(lp5469
Vwe
p5470
atp5471
Rp5472
(dp5473
g16
VPRP
p5474
sbatp5475
Rp5476
(dp5477
g16
VNP
p5478
sbag5
(g6
g7
(lp5479
g5
(g6
g7
(lp5480
g5
(g6
g7
(lp5481
Vdecide
p5482
atp5483
Rp5484
(dp5485
g16
VVBP
p5486
sbag5
(g6
g7
(lp5487
g5
(g6
g7
(lp5488
g5
(g6
g7
(lp5489
Vto
p5490
atp5491
Rp5492
(dp5493
g16
VTO
p5494
sbag5
(g6
g7
(lp5495
g5
(g6
g7
(lp5496
Vinsert
p5497
atp5498
Rp5499
(dp5500
g16
VVB
p5501
sbag5
(g6
g7
(lp5502
g5
(g6
g7
(lp5503
Vthat
p5504
atp5505
Rp5506
(dp5507
g16
VDT
p5508
sbag5
(g6
g7
(lp5509
Vtoken
p5510
atp5511
Rp5512
(dp5513
g16
VJJ
p5514
sbatp5515
Rp5516
(dp5517
g16
VNP
p5518
sbag5
(g6
g7
(lp5519
g5
(g6
g7
(lp5520
Vinto
p5521
atp5522
Rp5523
(dp5524
g16
VIN
p5525
sbag5
(g6
g7
(lp5526
g5
(g6
g7
(lp5527
Vthe
p5528
atp5529
Rp5530
(dp5531
g16
VDT
p5532
sbag5
(g6
g7
(lp5533
Vreservoir
p5534
atp5535
Rp5536
(dp5537
g16
VNN
p5538
sbatp5539
Rp5540
(dp5541
g16
VNP
p5542
sbatp5543
Rp5544
(dp5545
g16
VPP
p5546
sbatp5547
Rp5548
(dp5549
g16
VVP
p5550
sbatp5551
Rp5552
(dp5553
g16
VVP
p5554
sbatp5555
Rp5556
(dp5557
g16
g314
sbatp5558
Rp5559
(dp5560
g16
VVP
p5561
sbag5
(g6
g7
(lp5562
g135
atp5563
Rp5564
(dp5565
g16
g135
sbag5
(g6
g7
(lp5566
Vor
p5567
atp5568
Rp5569
(dp5570
g16
VCC
p5571
sbag5
(g6
g7
(lp5572
Vnot
p5573
atp5574
Rp5575
(dp5576
g16
VRB
p5577
sbag5
(g6
g7
(lp5578
g135
atp5579
Rp5580
(dp5581
g16
g135
sbag5
(g6
g7
(lp5582
g5
(g6
g7
(lp5583
g5
(g6
g7
(lp5584
Vindependent
p5585
atp5586
Rp5587
(dp5588
g16
VJJ
p5589
sbatp5590
Rp5591
(dp5592
g16
VADJP
p5593
sbag5
(g6
g7
(lp5594
g5
(g6
g7
(lp5595
Vof
p5596
atp5597
Rp5598
(dp5599
g16
VIN
p5600
sbag5
(g6
g7
(lp5601
g5
(g6
g7
(lp5602
Vthe
p5603
atp5604
Rp5605
(dp5606
g16
VDT
p5607
sbag5
(g6
g7
(lp5608
Vother
p5609
atp5610
Rp5611
(dp5612
g16
VJJ
p5613
sbag5
(g6
g7
(lp5614
Vtokens
p5615
atp5616
Rp5617
(dp5618
g16
VNNS
p5619
sbatp5620
Rp5621
(dp5622
g16
VNP
p5623
sbatp5624
Rp5625
(dp5626
g16
VPP
p5627
sbatp5628
Rp5629
(dp5630
g16
VVP
p5631
sbag5
(g6
g7
(lp5632
g5
(g6
g7
(lp5633
Vin
p5634
atp5635
Rp5636
(dp5637
g16
VIN
p5638
sbag5
(g6
g7
(lp5639
g5
(g6
g7
(lp5640
Vthe
p5641
atp5642
Rp5643
(dp5644
g16
VDT
p5645
sbag5
(g6
g7
(lp5646
Vcurrent
p5647
atp5648
Rp5649
(dp5650
g16
VJJ
p5651
sbag5
(g6
g7
(lp5652
Vdocument
p5653
atp5654
Rp5655
(dp5656
g16
VNN
p5657
sbatp5658
Rp5659
(dp5660
g16
VNP
p5661
sbatp5662
Rp5663
(dp5664
g16
VPP
p5665
sbatp5666
Rp5667
(dp5668
g16
VVP
p5669
sbatp5670
Rp5671
(dp5672
g16
g314
sbatp5673
Rp5674
(dp5675
g16
VROOT
p5676
sbasg331
(icmyPackage
CorE
p5677
(dp5678
g334
(lp5679
(I1
I1
tp5680
a(I1
I35
tp5681
asg338
g5
(g6
g7
(lp5682
g5458
ag5466
ag5476
ag5667
atp5683
Rp5684
(dp5685
g16
g343
sbsbsg344
(icmyPackage
CorE
p5686
(dp5687
g334
(lp5688
(I0
I0
tp5689
a(I0
I30
tp5690
asg338
g5332
sbsg350
g1531
sg376
(lp5691
(isxpPackage
sxpSent
p5692
(dp5693
g380
(lp5694
I11
asg382
VTo ensure constant space over an unbounded stream, we draw the rejuvenation sequence u'\u005cu211b' u'\u005cu2062' ( i ) uniformly from a reservoir
p5695
sg384
I5
sg367
I76
sg385
I29
sba(isxpPackage
sxpSent
p5696
(dp5697
g380
(lp5698
I11
aI12
asg382
VAs each token of the training data is ingested by the particle filter, we decide to insert that token into the reservoir, or not, independent of the other tokens in the current document
p5699
sg384
I5
sg367
I77
sg385
I29
sbasba(icmyPackage
CELink
p5700
(dp5701
g3
(lp5702
g5674
ag5
(g6
g7
(lp5703
g5
(g6
g7
(lp5704
g5
(g6
g7
(lp5705
g5
(g6
g7
(lp5706
VThus
p5707
atp5708
Rp5709
(dp5710
g16
VRB
p5711
sbatp5712
Rp5713
(dp5714
g16
VADVP
p5715
sbag5
(g6
g7
(lp5716
g135
atp5717
Rp5718
(dp5719
g16
g135
sbag5
(g6
g7
(lp5720
g5
(g6
g7
(lp5721
Vat
p5722
atp5723
Rp5724
(dp5725
g16
VIN
p5726
sbag5
(g6
g7
(lp5727
g5
(g6
g7
(lp5728
g5
(g6
g7
(lp5729
Vthe
p5730
atp5731
Rp5732
(dp5733
g16
VDT
p5734
sbag5
(g6
g7
(lp5735
Vend
p5736
atp5737
Rp5738
(dp5739
g16
VNN
p5740
sbatp5741
Rp5742
(dp5743
g16
VNP
p5744
sbag5
(g6
g7
(lp5745
g5
(g6
g7
(lp5746
Vof
p5747
atp5748
Rp5749
(dp5750
g16
VIN
p5751
sbag5
(g6
g7
(lp5752
g5
(g6
g7
(lp5753
g5
(g6
g7
(lp5754
Vstep
p5755
atp5756
Rp5757
(dp5758
g16
VNN
p5759
sbag5
(g6
g7
(lp5760
g2353
atp5761
Rp5762
(dp5763
g16
VNNS
p5764
sbatp5765
Rp5766
(dp5767
g16
VNP
p5768
sbag5
(g6
g7
(lp5769
g5
(g6
g7
(lp5770
Vof
p5771
atp5772
Rp5773
(dp5774
g16
VIN
p5775
sbag5
(g6
g7
(lp5776
g5
(g6
g7
(lp5777
Vthe
p5778
atp5779
Rp5780
(dp5781
g16
VDT
p5782
sbag5
(g6
g7
(lp5783
Vparticle
p5784
atp5785
Rp5786
(dp5787
g16
VNN
p5788
sbag5
(g6
g7
(lp5789
Vfilter
p5790
atp5791
Rp5792
(dp5793
g16
VNN
p5794
sbatp5795
Rp5796
(dp5797
g16
VNP
p5798
sbatp5799
Rp5800
(dp5801
g16
VPP
p5802
sbatp5803
Rp5804
(dp5805
g16
VNP
p5806
sbatp5807
Rp5808
(dp5809
g16
VPP
p5810
sbatp5811
Rp5812
(dp5813
g16
VNP
p5814
sbatp5815
Rp5816
(dp5817
g16
VPP
p5818
sbag5
(g6
g7
(lp5819
g135
atp5820
Rp5821
(dp5822
g16
g135
sbag5
(g6
g7
(lp5823
g5
(g6
g7
(lp5824
g5
(g6
g7
(lp5825
Veach
p5826
atp5827
Rp5828
(dp5829
g16
VDT
p5830
sbatp5831
Rp5832
(dp5833
g16
VNP
p5834
sbag5
(g6
g7
(lp5835
g5
(g6
g7
(lp5836
Vof
p5837
atp5838
Rp5839
(dp5840
g16
VIN
p5841
sbag5
(g6
g7
(lp5842
g5
(g6
g7
(lp5843
g5
(g6
g7
(lp5844
Vthe
p5845
atp5846
Rp5847
(dp5848
g16
VDT
p5849
sbag5
(g6
g7
(lp5850
g2353
atp5851
Rp5852
(dp5853
g16
VFW
p5854
sbag5
(g6
g7
(lp5855
Vtokens
p5856
atp5857
Rp5858
(dp5859
g16
VFW
p5860
sbatp5861
Rp5862
(dp5863
g16
VNP
p5864
sbag5
(g6
g7
(lp5865
g5
(g6
g7
(lp5866
Vseen
p5867
atp5868
Rp5869
(dp5870
g16
VVBN
p5871
sbag5
(g6
g7
(lp5872
g5
(g6
g7
(lp5873
Vso
p5874
atp5875
Rp5876
(dp5877
g16
VRB
p5878
sbag5
(g6
g7
(lp5879
Vfar
p5880
atp5881
Rp5882
(dp5883
g16
VRB
p5884
sbatp5885
Rp5886
(dp5887
g16
VADVP
p5888
sbag5
(g6
g7
(lp5889
g5
(g6
g7
(lp5890
Vin
p5891
atp5892
Rp5893
(dp5894
g16
VIN
p5895
sbag5
(g6
g7
(lp5896
g5
(g6
g7
(lp5897
Vthe
p5898
atp5899
Rp5900
(dp5901
g16
VDT
p5902
sbag5
(g6
g7
(lp5903
Vtraining
p5904
atp5905
Rp5906
(dp5907
g16
VNN
p5908
sbag5
(g6
g7
(lp5909
Vsequence
p5910
atp5911
Rp5912
(dp5913
g16
VNN
p5914
sbatp5915
Rp5916
(dp5917
g16
VNP
p5918
sbatp5919
Rp5920
(dp5921
g16
VPP
p5922
sbatp5923
Rp5924
(dp5925
g16
VVP
p5926
sbatp5927
Rp5928
(dp5929
g16
VNP
p5930
sbatp5931
Rp5932
(dp5933
g16
VPP
p5934
sbatp5935
Rp5936
(dp5937
g16
VNP
p5938
sbag5
(g6
g7
(lp5939
g5
(g6
g7
(lp5940
Vhas
p5941
atp5942
Rp5943
(dp5944
g16
VVBZ
p5945
sbag5
(g6
g7
(lp5946
g5
(g6
g7
(lp5947
g5
(g6
g7
(lp5948
Van
p5949
atp5950
Rp5951
(dp5952
g16
VDT
p5953
sbag5
(g6
g7
(lp5954
Vequal
p5955
atp5956
Rp5957
(dp5958
g16
VJJ
p5959
sbag5
(g6
g7
(lp5960
Vprobability
p5961
atp5962
Rp5963
(dp5964
g16
VNN
p5965
sbatp5966
Rp5967
(dp5968
g16
VNP
p5969
sbag5
(g6
g7
(lp5970
g5
(g6
g7
(lp5971
Vof
p5972
atp5973
Rp5974
(dp5975
g16
VIN
p5976
sbag5
(g6
g7
(lp5977
g5
(g6
g7
(lp5978
g5
(g6
g7
(lp5979
Vbeing
p5980
atp5981
Rp5982
(dp5983
g16
VVBG
p5984
sbag5
(g6
g7
(lp5985
g5
(g6
g7
(lp5986
Vin
p5987
atp5988
Rp5989
(dp5990
g16
VIN
p5991
sbag5
(g6
g7
(lp5992
g5
(g6
g7
(lp5993
Vthe
p5994
atp5995
Rp5996
(dp5997
g16
VDT
p5998
sbag5
(g6
g7
(lp5999
Vreservoir
p6000
atp6001
Rp6002
(dp6003
g16
VNN
p6004
sbatp6005
Rp6006
(dp6007
g16
VNP
p6008
sbatp6009
Rp6010
(dp6011
g16
VPP
p6012
sbatp6013
Rp6014
(dp6015
g16
VVP
p6016
sbatp6017
Rp6018
(dp6019
g16
g314
sbatp6020
Rp6021
(dp6022
g16
VPP
p6023
sbag5
(g6
g7
(lp6024
g135
atp6025
Rp6026
(dp6027
g16
g135
sbag5
(g6
g7
(lp6028
g5
(g6
g7
(lp6029
g5
(g6
g7
(lp6030
Vhence
p6031
atp6032
Rp6033
(dp6034
g16
VRB
p6035
sbatp6036
Rp6037
(dp6038
g16
VADVP
p6039
sbag5
(g6
g7
(lp6040
Vbeing
p6041
atp6042
Rp6043
(dp6044
g16
VVBG
p6045
sbag5
(g6
g7
(lp6046
g5
(g6
g7
(lp6047
Vselected
p6048
atp6049
Rp6050
(dp6051
g16
VVBN
p6052
sbag5
(g6
g7
(lp6053
g5
(g6
g7
(lp6054
Vfor
p6055
atp6056
Rp6057
(dp6058
g16
VIN
p6059
sbag5
(g6
g7
(lp6060
g5
(g6
g7
(lp6061
Vrejuvenation
p6062
atp6063
Rp6064
(dp6065
g16
VNN
p6066
sbatp6067
Rp6068
(dp6069
g16
VNP
p6070
sbatp6071
Rp6072
(dp6073
g16
VPP
p6074
sbatp6075
Rp6076
(dp6077
g16
VVP
p6078
sbatp6079
Rp6080
(dp6081
g16
VVP
p6082
sbatp6083
Rp6084
(dp6085
g16
VNP
p6086
sbatp6087
Rp6088
(dp6089
g16
VVP
p6090
sbatp6091
Rp6092
(dp6093
g16
g314
sbatp6094
Rp6095
(dp6096
g16
VROOT
p6097
sbasg331
(icmyPackage
CorE
p6098
(dp6099
g334
(lp6100
(I0
I0
tp6101
a(I0
I35
tp6102
asg338
g5674
sbsg344
(icmyPackage
CorE
p6103
(dp6104
g334
(lp6105
(I1
I1
tp6106
a(I1
I39
tp6107
asg338
g5
(g6
g7
(lp6108
g5718
ag5816
ag5821
ag5936
ag6088
atp6109
Rp6110
(dp6111
g16
g343
sbsbsg350
g761
sg376
(lp6112
g5696
a(isxpPackage
sxpSent
p6113
(dp6114
g380
(lp6115
I12
asg382
VThus, at the end of step i of the particle filter, each of the i tokens seen so far in the training sequence has an equal probability of being in the reservoir, hence being selected for rejuvenation
p6116
sg384
I5
sg367
I78
sg385
I29
sbasba(icmyPackage
CELink
p6117
(dp6118
g3
(lp6119
g5
(g6
g7
(lp6120
g5
(g6
g7
(lp6121
g5
(g6
g7
(lp6122
g5
(g6
g7
(lp6123
VWe
p6124
atp6125
Rp6126
(dp6127
g16
VPRP
p6128
sbatp6129
Rp6130
(dp6131
g16
VNP
p6132
sbag5
(g6
g7
(lp6133
g5
(g6
g7
(lp6134
Vpreprocess
p6135
atp6136
Rp6137
(dp6138
g16
VVBZ
p6139
sbag5
(g6
g7
(lp6140
g5
(g6
g7
(lp6141
Vthe
p6142
atp6143
Rp6144
(dp6145
g16
VDT
p6146
sbag5
(g6
g7
(lp6147
Vdata
p6148
atp6149
Rp6150
(dp6151
g16
VNNS
p6152
sbatp6153
Rp6154
(dp6155
g16
VNP
p6156
sbag5
(g6
g7
(lp6157
g5
(g6
g7
(lp6158
Vby
p6159
atp6160
Rp6161
(dp6162
g16
VIN
p6163
sbag5
(g6
g7
(lp6164
g5
(g6
g7
(lp6165
g5
(g6
g7
(lp6166
g5
(g6
g7
(lp6167
Vsplitting
p6168
atp6169
Rp6170
(dp6171
g16
VVBG
p6172
sbag5
(g6
g7
(lp6173
g5
(g6
g7
(lp6174
g5
(g6
g7
(lp6175
Veach
p6176
atp6177
Rp6178
(dp6179
g16
VDT
p6180
sbag5
(g6
g7
(lp6181
Vline
p6182
atp6183
Rp6184
(dp6185
g16
VNN
p6186
sbatp6187
Rp6188
(dp6189
g16
VNP
p6190
sbag5
(g6
g7
(lp6191
g5
(g6
g7
(lp6192
Von
p6193
atp6194
Rp6195
(dp6196
g16
VIN
p6197
sbag5
(g6
g7
(lp6198
g5
(g6
g7
(lp6199
Vnon-alphabet
p6200
atp6201
Rp6202
(dp6203
g16
VJJ
p6204
sbag5
(g6
g7
(lp6205
Vcharacters
p6206
atp6207
Rp6208
(dp6209
g16
VNNS
p6210
sbatp6211
Rp6212
(dp6213
g16
VNP
p6214
sbatp6215
Rp6216
(dp6217
g16
VPP
p6218
sbatp6219
Rp6220
(dp6221
g16
VNP
p6222
sbatp6223
Rp6224
(dp6225
g16
VVP
p6226
sbag5
(g6
g7
(lp6227
g135
atp6228
Rp6229
(dp6230
g16
g135
sbag5
(g6
g7
(lp6231
g5
(g6
g7
(lp6232
Vconverting
p6233
atp6234
Rp6235
(dp6236
g16
VVBG
p6237
sbag5
(g6
g7
(lp6238
g5
(g6
g7
(lp6239
Vthe
p6240
atp6241
Rp6242
(dp6243
g16
VDT
p6244
sbag5
(g6
g7
(lp6245
Vresulting
p6246
atp6247
Rp6248
(dp6249
g16
VVBG
p6250
sbag5
(g6
g7
(lp6251
Vtokens
p6252
atp6253
Rp6254
(dp6255
g16
VNNS
p6256
sbatp6257
Rp6258
(dp6259
g16
VNP
p6260
sbag5
(g6
g7
(lp6261
g5
(g6
g7
(lp6262
Vto
p6263
atp6264
Rp6265
(dp6266
g16
VTO
p6267
sbag5
(g6
g7
(lp6268
g5
(g6
g7
(lp6269
Vlower-case
p6270
atp6271
Rp6272
(dp6273
g16
VNN
p6274
sbatp6275
Rp6276
(dp6277
g16
VNP
p6278
sbatp6279
Rp6280
(dp6281
g16
VPP
p6282
sbatp6283
Rp6284
(dp6285
g16
VVP
p6286
sbag5
(g6
g7
(lp6287
g135
atp6288
Rp6289
(dp6290
g16
g135
sbag5
(g6
g7
(lp6291
Vand
p6292
atp6293
Rp6294
(dp6295
g16
VCC
p6296
sbag5
(g6
g7
(lp6297
g5
(g6
g7
(lp6298
Vfiltering
p6299
atp6300
Rp6301
(dp6302
g16
VVBG
p6303
sbag5
(g6
g7
(lp6304
g5
(g6
g7
(lp6305
Vout
p6306
atp6307
Rp6308
(dp6309
g16
VRP
p6310
sbatp6311
Rp6312
(dp6313
g16
VPRT
p6314
sbag5
(g6
g7
(lp6315
g5
(g6
g7
(lp6316
g5
(g6
g7
(lp6317
Vany
p6318
atp6319
Rp6320
(dp6321
g16
VDT
p6322
sbag5
(g6
g7
(lp6323
Vtokens
p6324
atp6325
Rp6326
(dp6327
g16
VNNS
p6328
sbatp6329
Rp6330
(dp6331
g16
VNP
p6332
sbag5
(g6
g7
(lp6333
g5
(g6
g7
(lp6334
g5
(g6
g7
(lp6335
Vthat
p6336
atp6337
Rp6338
(dp6339
g16
VWDT
p6340
sbatp6341
Rp6342
(dp6343
g16
VWHNP
p6344
sbag5
(g6
g7
(lp6345
g5
(g6
g7
(lp6346
g5
(g6
g7
(lp6347
Vappear
p6348
atp6349
Rp6350
(dp6351
g16
VVBP
p6352
sbag5
(g6
g7
(lp6353
g5
(g6
g7
(lp6354
Vin
p6355
atp6356
Rp6357
(dp6358
g16
VIN
p6359
sbag5
(g6
g7
(lp6360
g5
(g6
g7
(lp6361
g5
(g6
g7
(lp6362
g34
atp6363
Rp6364
(dp6365
g16
VDT
p6366
sbag5
(g6
g7
(lp6367
Vlist
p6368
atp6369
Rp6370
(dp6371
g16
VNN
p6372
sbatp6373
Rp6374
(dp6375
g16
VNP
p6376
sbag5
(g6
g7
(lp6377
g5
(g6
g7
(lp6378
Vof
p6379
atp6380
Rp6381
(dp6382
g16
VIN
p6383
sbag5
(g6
g7
(lp6384
g5
(g6
g7
(lp6385
Vcommon
p6386
atp6387
Rp6388
(dp6389
g16
VJJ
p6390
sbag5
(g6
g7
(lp6391
VEnglish
p6392
atp6393
Rp6394
(dp6395
g16
VJJ
p6396
sbag5
(g6
g7
(lp6397
Vstop
p6398
atp6399
Rp6400
(dp6401
g16
VNN
p6402
sbag5
(g6
g7
(lp6403
Vwords
p6404
atp6405
Rp6406
(dp6407
g16
VNNS
p6408
sbatp6409
Rp6410
(dp6411
g16
VNP
p6412
sbatp6413
Rp6414
(dp6415
g16
VPP
p6416
sbatp6417
Rp6418
(dp6419
g16
VNP
p6420
sbatp6421
Rp6422
(dp6423
g16
VPP
p6424
sbatp6425
Rp6426
(dp6427
g16
VVP
p6428
sbatp6429
Rp6430
(dp6431
g16
g314
sbatp6432
Rp6433
(dp6434
g16
VSBAR
p6435
sbatp6436
Rp6437
(dp6438
g16
VNP
p6439
sbatp6440
Rp6441
(dp6442
g16
VVP
p6443
sbatp6444
Rp6445
(dp6446
g16
VVP
p6447
sbatp6448
Rp6449
(dp6450
g16
g314
sbatp6451
Rp6452
(dp6453
g16
VPP
p6454
sbatp6455
Rp6456
(dp6457
g16
VVP
p6458
sbatp6459
Rp6460
(dp6461
g16
g314
sbatp6462
Rp6463
(dp6464
g16
VROOT
p6465
sbasg331
(icmyPackage
CorE
p6466
(dp6467
g334
(lp6468
(I0
I5
tp6469
a(I0
I33
tp6470
asg338
g6449
sbsg344
(icmyPackage
CorE
p6471
(dp6472
g334
(lp6473
(I0
I0
tp6474
a(I0
I3
tp6475
asg338
g5
(g6
g7
(lp6476
g6130
ag6137
ag6154
atp6477
Rp6478
(dp6479
g16
g343
sbsbsg350
g1083
sg376
(lp6480
(isxpPackage
sxpSent
p6481
(dp6482
g380
(lp6483
I13
asg382
VWe preprocess the data by splitting each line on non-alphabet characters, converting the resulting tokens to lower-case, and filtering out any tokens that appear in a list of common English stop words
p6484
sg384
I6
sg367
I88
sg385
I31
sbasba(icmyPackage
CELink
p6485
(dp6486
g3
(lp6487
g5
(g6
g7
(lp6488
g5
(g6
g7
(lp6489
g5
(g6
g7
(lp6490
g5
(g6
g7
(lp6491
VAfter
p6492
atp6493
Rp6494
(dp6495
g16
VIN
p6496
sbag5
(g6
g7
(lp6497
g5
(g6
g7
(lp6498
Vthese
p6499
atp6500
Rp6501
(dp6502
g16
VDT
p6503
sbag5
(g6
g7
(lp6504
Vsteps
p6505
atp6506
Rp6507
(dp6508
g16
VNNS
p6509
sbatp6510
Rp6511
(dp6512
g16
VNP
p6513
sbatp6514
Rp6515
(dp6516
g16
VPP
p6517
sbag5
(g6
g7
(lp6518
g135
atp6519
Rp6520
(dp6521
g16
g135
sbag5
(g6
g7
(lp6522
g5
(g6
g7
(lp6523
Vwe
p6524
atp6525
Rp6526
(dp6527
g16
VPRP
p6528
sbatp6529
Rp6530
(dp6531
g16
VNP
p6532
sbag5
(g6
g7
(lp6533
g5
(g6
g7
(lp6534
Vcompute
p6535
atp6536
Rp6537
(dp6538
g16
VVBD
p6539
sbag5
(g6
g7
(lp6540
g5
(g6
g7
(lp6541
Vthe
p6542
atp6543
Rp6544
(dp6545
g16
VDT
p6546
sbag5
(g6
g7
(lp6547
Vvocabulary
p6548
atp6549
Rp6550
(dp6551
g16
VNN
p6552
sbatp6553
Rp6554
(dp6555
g16
VNP
p6556
sbag5
(g6
g7
(lp6557
g5
(g6
g7
(lp6558
Vfor
p6559
atp6560
Rp6561
(dp6562
g16
VIN
p6563
sbag5
(g6
g7
(lp6564
g5
(g6
g7
(lp6565
g5
(g6
g7
(lp6566
Veach
p6567
atp6568
Rp6569
(dp6570
g16
VDT
p6571
sbag5
(g6
g7
(lp6572
Vdataset
p6573
atp6574
Rp6575
(dp6576
g16
VNN
p6577
sbatp6578
Rp6579
(dp6580
g16
VNP
p6581
sbag5
(g6
g7
(lp6582
g5
(g6
g7
(lp6583
Vas
p6584
atp6585
Rp6586
(dp6587
g16
VIN
p6588
sbag5
(g6
g7
(lp6589
g5
(g6
g7
(lp6590
g5
(g6
g7
(lp6591
Vthe
p6592
atp6593
Rp6594
(dp6595
g16
VDT
p6596
sbag5
(g6
g7
(lp6597
Vset
p6598
atp6599
Rp6600
(dp6601
g16
VNN
p6602
sbatp6603
Rp6604
(dp6605
g16
VNP
p6606
sbag5
(g6
g7
(lp6607
g5
(g6
g7
(lp6608
Vof
p6609
atp6610
Rp6611
(dp6612
g16
VIN
p6613
sbag5
(g6
g7
(lp6614
g5
(g6
g7
(lp6615
Vall
p6616
atp6617
Rp6618
(dp6619
g16
VDT
p6620
sbag5
(g6
g7
(lp6621
Vnon-singleton
p6622
atp6623
Rp6624
(dp6625
g16
VJJ
p6626
sbag5
(g6
g7
(lp6627
Vtypes
p6628
atp6629
Rp6630
(dp6631
g16
VNNS
p6632
sbatp6633
Rp6634
(dp6635
g16
VNP
p6636
sbatp6637
Rp6638
(dp6639
g16
VPP
p6640
sbatp6641
Rp6642
(dp6643
g16
VNP
p6644
sbatp6645
Rp6646
(dp6647
g16
VPP
p6648
sbatp6649
Rp6650
(dp6651
g16
VNP
p6652
sbatp6653
Rp6654
(dp6655
g16
VPP
p6656
sbag5
(g6
g7
(lp6657
g5
(g6
g7
(lp6658
Vin
p6659
atp6660
Rp6661
(dp6662
g16
VIN
p6663
sbag5
(g6
g7
(lp6664
g5
(g6
g7
(lp6665
g5
(g6
g7
(lp6666
Vthe
p6667
atp6668
Rp6669
(dp6670
g16
VDT
p6671
sbag5
(g6
g7
(lp6672
Vtraining
p6673
atp6674
Rp6675
(dp6676
g16
VNN
p6677
sbag5
(g6
g7
(lp6678
Vdata
p6679
atp6680
Rp6681
(dp6682
g16
VNNS
p6683
sbatp6684
Rp6685
(dp6686
g16
VNP
p6687
sbag5
(g6
g7
(lp6688
g5
(g6
g7
(lp6689
Vaugmented
p6690
atp6691
Rp6692
(dp6693
g16
VVBN
p6694
sbag5
(g6
g7
(lp6695
g5
(g6
g7
(lp6696
Vwith
p6697
atp6698
Rp6699
(dp6700
g16
VIN
p6701
sbag5
(g6
g7
(lp6702
g5
(g6
g7
(lp6703
g34
atp6704
Rp6705
(dp6706
g16
VDT
p6707
sbag5
(g6
g7
(lp6708
Vspecial
p6709
atp6710
Rp6711
(dp6712
g16
VJJ
p6713
sbag5
(g6
g7
(lp6714
Vout-of-vocabulary
p6715
atp6716
Rp6717
(dp6718
g16
VJJ
p6719
sbag5
(g6
g7
(lp6720
Vsymbol
p6721
atp6722
Rp6723
(dp6724
g16
VNN
p6725
sbatp6726
Rp6727
(dp6728
g16
VNP
p6729
sbatp6730
Rp6731
(dp6732
g16
VPP
p6733
sbatp6734
Rp6735
(dp6736
g16
VVP
p6737
sbatp6738
Rp6739
(dp6740
g16
VNP
p6741
sbatp6742
Rp6743
(dp6744
g16
VPP
p6745
sbatp6746
Rp6747
(dp6748
g16
VVP
p6749
sbatp6750
Rp6751
(dp6752
g16
g314
sbatp6753
Rp6754
(dp6755
g16
VROOT
p6756
sbasg331
(icmyPackage
CorE
p6757
(dp6758
g334
(lp6759
(I0
I12
tp6760
a(I0
I26
tp6761
asg338
g5
(g6
g7
(lp6762
g6642
ag6661
ag6685
ag6692
ag6699
ag6705
ag6711
ag6717
atp6763
Rp6764
(dp6765
g16
g343
sbsbsg344
(icmyPackage
CorE
p6766
(dp6767
g334
(lp6768
(I0
I0
tp6769
a(I0
I10
tp6770
asg338
g5
(g6
g7
(lp6771
g6515
ag6520
ag6530
ag6537
ag6554
ag6561
ag6579
atp6772
Rp6773
(dp6774
g16
g343
sbsbsg350
g1531
sg376
(lp6775
(isxpPackage
sxpSent
p6776
(dp6777
g380
(lp6778
I14
asg382
VAfter these steps, we compute the vocabulary for each dataset as the set of all non-singleton types in the training data augmented with a special out-of-vocabulary symbol
p6779
sg384
I6
sg367
I91
sg385
I31
sbasba(icmyPackage
CELink
p6780
(dp6781
g3
(lp6782
g5
(g6
g7
(lp6783
g5
(g6
g7
(lp6784
g5
(g6
g7
(lp6785
g5
(g6
g7
(lp6786
VDuring
p6787
atp6788
Rp6789
(dp6790
g16
VIN
p6791
sbag5
(g6
g7
(lp6792
g5
(g6
g7
(lp6793
Vtraining
p6794
atp6795
Rp6796
(dp6797
g16
VNN
p6798
sbatp6799
Rp6800
(dp6801
g16
VNP
p6802
sbatp6803
Rp6804
(dp6805
g16
VPP
p6806
sbag5
(g6
g7
(lp6807
g5
(g6
g7
(lp6808
Vwe
p6809
atp6810
Rp6811
(dp6812
g16
VPRP
p6813
sbatp6814
Rp6815
(dp6816
g16
VNP
p6817
sbag5
(g6
g7
(lp6818
g5
(g6
g7
(lp6819
Vreport
p6820
atp6821
Rp6822
(dp6823
g16
VVBP
p6824
sbag5
(g6
g7
(lp6825
g5
(g6
g7
(lp6826
g5
(g6
g7
(lp6827
Vthe
p6828
atp6829
Rp6830
(dp6831
g16
VDT
p6832
sbag5
(g6
g7
(lp6833
Vout-of-sample
p6834
atp6835
Rp6836
(dp6837
g16
VJJ
p6838
sbag5
(g6
g7
(lp6839
VNMI
p6840
atp6841
Rp6842
(dp6843
g16
VNN
p6844
sbatp6845
Rp6846
(dp6847
g16
VNP
p6848
sbag5
(g6
g7
(lp6849
g135
atp6850
Rp6851
(dp6852
g16
g135
sbag5
(g6
g7
(lp6853
g5
(g6
g7
(lp6854
Vcalculated
p6855
atp6856
Rp6857
(dp6858
g16
VVBN
p6859
sbag5
(g6
g7
(lp6860
g5
(g6
g7
(lp6861
Vby
p6862
atp6863
Rp6864
(dp6865
g16
VIN
p6866
sbag5
(g6
g7
(lp6867
g5
(g6
g7
(lp6868
g5
(g6
g7
(lp6869
g5
(g6
g7
(lp6870
Vholding
p6871
atp6872
Rp6873
(dp6874
g16
VVBG
p6875
sbag5
(g6
g7
(lp6876
g5
(g6
g7
(lp6877
g5
(g6
g7
(lp6878
g5
(g6
g7
(lp6879
Vthe
p6880
atp6881
Rp6882
(dp6883
g16
VDT
p6884
sbag5
(g6
g7
(lp6885
Vword
p6886
atp6887
Rp6888
(dp6889
g16
VNN
p6890
sbag5
(g6
g7
(lp6891
Vproportions
p6892
atp6893
Rp6894
(dp6895
g16
VNNS
p6896
sbag5
(g6
g7
(lp6897
g817
atp6898
Rp6899
(dp6900
g16
VNN
p6901
sbag5
(g6
g7
(lp6902
g823
atp6903
Rp6904
(dp6905
g16
VPOS
p6906
sbatp6907
Rp6908
(dp6909
g16
VNP
p6910
sbag5
(g6
g7
(lp6911
V\u005c
p6912
atp6913
Rp6914
(dp6915
g16
VNN
p6916
sbag5
(g6
g7
(lp6917
Vu03a6
p6918
atp6919
Rp6920
(dp6921
g16
VNN
p6922
sbag5
(g6
g7
(lp6923
g823
atp6924
Rp6925
(dp6926
g16
V''
p6927
sbatp6928
Rp6929
(dp6930
g16
VNP
p6931
sbag5
(g6
g7
(lp6932
g5
(g6
g7
(lp6933
Vfixed
p6934
atp6935
Rp6936
(dp6937
g16
VVBN
p6938
sbatp6939
Rp6940
(dp6941
g16
VVP
p6942
sbatp6943
Rp6944
(dp6945
g16
VNP
p6946
sbatp6947
Rp6948
(dp6949
g16
VVP
p6950
sbag5
(g6
g7
(lp6951
g135
atp6952
Rp6953
(dp6954
g16
g135
sbag5
(g6
g7
(lp6955
g5
(g6
g7
(lp6956
Vrunning
p6957
atp6958
Rp6959
(dp6960
g16
VVBG
p6961
sbag5
(g6
g7
(lp6962
g5
(g6
g7
(lp6963
g5
(g6
g7
(lp6964
Vfive
p6965
atp6966
Rp6967
(dp6968
g16
VCD
p6969
sbag5
(g6
g7
(lp6970
Vsweeps
p6971
atp6972
Rp6973
(dp6974
g16
VNNS
p6975
sbatp6976
Rp6977
(dp6978
g16
VNP
p6979
sbag5
(g6
g7
(lp6980
g5
(g6
g7
(lp6981
Vof
p6982
atp6983
Rp6984
(dp6985
g16
VIN
p6986
sbag5
(g6
g7
(lp6987
g5
(g6
g7
(lp6988
g5
(g6
g7
(lp6989
Vcollapsed
p6990
atp6991
Rp6992
(dp6993
g16
VJJ
p6994
sbag5
(g6
g7
(lp6995
VGibbs
p6996
atp6997
Rp6998
(dp6999
g16
VNNS
p7000
sbatp7001
Rp7002
(dp7003
g16
VNP
p7004
sbag5
(g6
g7
(lp7005
g5
(g6
g7
(lp7006
Vsampling
p7007
atp7008
Rp7009
(dp7010
g16
VVBG
p7011
sbag5
(g6
g7
(lp7012
g5
(g6
g7
(lp7013
Von
p7014
atp7015
Rp7016
(dp7017
g16
VIN
p7018
sbag5
(g6
g7
(lp7019
g5
(g6
g7
(lp7020
Vthe
p7021
atp7022
Rp7023
(dp7024
g16
VDT
p7025
sbag5
(g6
g7
(lp7026
Vtest
p7027
atp7028
Rp7029
(dp7030
g16
VNN
p7031
sbag5
(g6
g7
(lp7032
Vset
p7033
atp7034
Rp7035
(dp7036
g16
VNN
p7037
sbatp7038
Rp7039
(dp7040
g16
VNP
p7041
sbatp7042
Rp7043
(dp7044
g16
VPP
p7045
sbatp7046
Rp7047
(dp7048
g16
VVP
p7049
sbatp7050
Rp7051
(dp7052
g16
VNP
p7053
sbatp7054
Rp7055
(dp7056
g16
VPP
p7057
sbatp7058
Rp7059
(dp7060
g16
VNP
p7061
sbatp7062
Rp7063
(dp7064
g16
VVP
p7065
sbag5
(g6
g7
(lp7066
g135
atp7067
Rp7068
(dp7069
g16
g135
sbag5
(g6
g7
(lp7070
Vand
p7071
atp7072
Rp7073
(dp7074
g16
VCC
p7075
sbag5
(g6
g7
(lp7076
g5
(g6
g7
(lp7077
Vcomputing
p7078
atp7079
Rp7080
(dp7081
g16
VVBG
p7082
sbag5
(g6
g7
(lp7083
g5
(g6
g7
(lp7084
g5
(g6
g7
(lp7085
Vthe
p7086
atp7087
Rp7088
(dp7089
g16
VDT
p7090
sbag5
(g6
g7
(lp7091
Vtopic
p7092
atp7093
Rp7094
(dp7095
g16
VNN
p7096
sbatp7097
Rp7098
(dp7099
g16
VNP
p7100
sbag5
(g6
g7
(lp7101
g5
(g6
g7
(lp7102
Vfor
p7103
atp7104
Rp7105
(dp7106
g16
VIN
p7107
sbag5
(g6
g7
(lp7108
g5
(g6
g7
(lp7109
Veach
p7110
atp7111
Rp7112
(dp7113
g16
VDT
p7114
sbag5
(g6
g7
(lp7115
Vdocument
p7116
atp7117
Rp7118
(dp7119
g16
VNN
p7120
sbatp7121
Rp7122
(dp7123
g16
VNP
p7124
sbatp7125
Rp7126
(dp7127
g16
VPP
p7128
sbatp7129
Rp7130
(dp7131
g16
VNP
p7132
sbag5
(g6
g7
(lp7133
g5
(g6
g7
(lp7134
Vas
p7135
atp7136
Rp7137
(dp7138
g16
VIN
p7139
sbag5
(g6
g7
(lp7140
g5
(g6
g7
(lp7141
g5
(g6
g7
(lp7142
Vthe
p7143
atp7144
Rp7145
(dp7146
g16
VDT
p7147
sbag5
(g6
g7
(lp7148
Vtopic
p7149
atp7150
Rp7151
(dp7152
g16
VNN
p7153
sbatp7154
Rp7155
(dp7156
g16
VNP
p7157
sbag5
(g6
g7
(lp7158
g5
(g6
g7
(lp7159
Vassigned
p7160
atp7161
Rp7162
(dp7163
g16
VVBN
p7164
sbag5
(g6
g7
(lp7165
g5
(g6
g7
(lp7166
Vto
p7167
atp7168
Rp7169
(dp7170
g16
VTO
p7171
sbag5
(g6
g7
(lp7172
g5
(g6
g7
(lp7173
g5
(g6
g7
(lp7174
Vthe
p7175
atp7176
Rp7177
(dp7178
g16
VDT
p7179
sbag5
(g6
g7
(lp7180
Vmost
p7181
atp7182
Rp7183
(dp7184
g16
VJJS
p7185
sbag5
(g6
g7
(lp7186
Vtokens
p7187
atp7188
Rp7189
(dp7190
g16
VNNS
p7191
sbatp7192
Rp7193
(dp7194
g16
VNP
p7195
sbag5
(g6
g7
(lp7196
g5
(g6
g7
(lp7197
Vin
p7198
atp7199
Rp7200
(dp7201
g16
VIN
p7202
sbag5
(g6
g7
(lp7203
g5
(g6
g7
(lp7204
Vthat
p7205
atp7206
Rp7207
(dp7208
g16
VDT
p7209
sbag5
(g6
g7
(lp7210
Vdocument
p7211
atp7212
Rp7213
(dp7214
g16
VNN
p7215
sbatp7216
Rp7217
(dp7218
g16
VNP
p7219
sbatp7220
Rp7221
(dp7222
g16
VPP
p7223
sbatp7224
Rp7225
(dp7226
g16
VNP
p7227
sbatp7228
Rp7229
(dp7230
g16
VPP
p7231
sbatp7232
Rp7233
(dp7234
g16
VVP
p7235
sbatp7236
Rp7237
(dp7238
g16
VNP
p7239
sbatp7240
Rp7241
(dp7242
g16
VPP
p7243
sbatp7244
Rp7245
(dp7246
g16
VVP
p7247
sbatp7248
Rp7249
(dp7250
g16
VVP
p7251
sbatp7252
Rp7253
(dp7254
g16
g314
sbatp7255
Rp7256
(dp7257
g16
VPP
p7258
sbatp7259
Rp7260
(dp7261
g16
VVP
p7262
sbatp7263
Rp7264
(dp7265
g16
VNP
p7266
sbatp7267
Rp7268
(dp7269
g16
VVP
p7270
sbatp7271
Rp7272
(dp7273
g16
g314
sbatp7274
Rp7275
(dp7276
g16
VROOT
p7277
sbasg331
(icmyPackage
CorE
p7278
(dp7279
g334
(lp7280
(I0
I41
tp7281
a(I0
I49
tp7282
asg338
g5
(g6
g7
(lp7283
g7155
ag7162
ag7169
ag7193
ag7200
ag7207
atp7284
Rp7285
(dp7286
g16
g343
sbsbsg344
(icmyPackage
CorE
p7287
(dp7288
g334
(lp7289
(I0
I0
tp7290
a(I0
I39
tp7291
asg338
g5
(g6
g7
(lp7292
g6804
ag6815
ag6822
ag6846
ag6851
ag6857
ag6864
ag6948
ag6953
ag7063
ag7068
ag7073
ag7080
ag7130
atp7293
Rp7294
(dp7295
g16
g343
sbsbsg350
g1531
sg376
(lp7296
(isxpPackage
sxpSent
p7297
(dp7298
g380
(lp7299
I15
aI16
asg382
VDuring training we report the out-of-sample NMI, calculated by holding the word proportions u'\u005cu03a6' fixed, running five sweeps of collapsed Gibbs sampling on the test set, and computing the topic for each document as the topic assigned to the most tokens in that document
p7300
sg384
I6
sg367
I92
sg385
I32
sbasba(icmyPackage
CELink
p7301
(dp7302
g3
(lp7303
g7294
asg331
(icmyPackage
CorE
p7304
(dp7305
g334
(lp7306
(I0
I10
tp7307
a(I0
I19
tp7308
asg338
g6948
sbsg344
(icmyPackage
CorE
p7309
(dp7310
g334
(lp7311
(I0
I20
tp7312
a(I0
I39
tp7313
asg338
g5
(g6
g7
(lp7314
g6953
ag7063
ag7068
ag7073
ag7080
ag7130
atp7315
Rp7316
(dp7317
g16
g343
sbsbsg350
g3296
sg376
(lp7318
g7297
asba(icmyPackage
CELink
p7319
(dp7320
g3
(lp7321
g5
(g6
g7
(lp7322
g5
(g6
g7
(lp7323
g5
(g6
g7
(lp7324
g5
(g6
g7
(lp7325
g5
(g6
g7
(lp7326
VThe
p7327
atp7328
Rp7329
(dp7330
g16
VDT
p7331
sbag5
(g6
g7
(lp7332
Vvariance
p7333
atp7334
Rp7335
(dp7336
g16
VNN
p7337
sbatp7338
Rp7339
(dp7340
g16
VNP
p7341
sbag5
(g6
g7
(lp7342
g5
(g6
g7
(lp7343
Vof
p7344
atp7345
Rp7346
(dp7347
g16
VIN
p7348
sbag5
(g6
g7
(lp7349
g5
(g6
g7
(lp7350
Vthe
p7351
atp7352
Rp7353
(dp7354
g16
VDT
p7355
sbag5
(g6
g7
(lp7356
Vparticle
p7357
atp7358
Rp7359
(dp7360
g16
VNN
p7361
sbag5
(g6
g7
(lp7362
Vfilter
p7363
atp7364
Rp7365
(dp7366
g16
VNN
p7367
sbatp7368
Rp7369
(dp7370
g16
VNP
p7371
sbatp7372
Rp7373
(dp7374
g16
VPP
p7375
sbatp7376
Rp7377
(dp7378
g16
VNP
p7379
sbag5
(g6
g7
(lp7380
g5
(g6
g7
(lp7381
Vis
p7382
atp7383
Rp7384
(dp7385
g16
VVBZ
p7386
sbag5
(g6
g7
(lp7387
g5
(g6
g7
(lp7388
Voften
p7389
atp7390
Rp7391
(dp7392
g16
VRB
p7393
sbag5
(g6
g7
(lp7394
Vlarge
p7395
atp7396
Rp7397
(dp7398
g16
VJJ
p7399
sbatp7400
Rp7401
(dp7402
g16
VADJP
p7403
sbag5
(g6
g7
(lp7404
g135
atp7405
Rp7406
(dp7407
g16
g135
sbag5
(g6
g7
(lp7408
g5
(g6
g7
(lp7409
Vso
p7410
atp7411
Rp7412
(dp7413
g16
VRB
p7414
sbag5
(g6
g7
(lp7415
g5
(g6
g7
(lp7416
Vfor
p7417
atp7418
Rp7419
(dp7420
g16
VIN
p7421
sbag5
(g6
g7
(lp7422
g5
(g6
g7
(lp7423
Veach
p7424
atp7425
Rp7426
(dp7427
g16
VDT
p7428
sbag5
(g6
g7
(lp7429
Vexperiment
p7430
atp7431
Rp7432
(dp7433
g16
VNN
p7434
sbatp7435
Rp7436
(dp7437
g16
VNP
p7438
sbatp7439
Rp7440
(dp7441
g16
VPP
p7442
sbatp7443
Rp7444
(dp7445
g16
VADVP
p7446
sbag5
(g6
g7
(lp7447
g5
(g6
g7
(lp7448
g5
(g6
g7
(lp7449
g5
(g6
g7
(lp7450
Vwe
p7451
atp7452
Rp7453
(dp7454
g16
VPRP
p7455
sbatp7456
Rp7457
(dp7458
g16
VNP
p7459
sbag5
(g6
g7
(lp7460
g5
(g6
g7
(lp7461
g5
(g6
g7
(lp7462
Vperform
p7463
atp7464
Rp7465
(dp7466
g16
VVB
p7467
sbag5
(g6
g7
(lp7468
g5
(g6
g7
(lp7469
V30
p7470
atp7471
Rp7472
(dp7473
g16
VCD
p7474
sbag5
(g6
g7
(lp7475
Vruns
p7476
atp7477
Rp7478
(dp7479
g16
VNNS
p7480
sbatp7481
Rp7482
(dp7483
g16
VNP
p7484
sbatp7485
Rp7486
(dp7487
g16
VVP
p7488
sbag5
(g6
g7
(lp7489
Vand
p7490
atp7491
Rp7492
(dp7493
g16
VCC
p7494
sbag5
(g6
g7
(lp7495
g5
(g6
g7
(lp7496
Vplot
p7497
atp7498
Rp7499
(dp7500
g16
VVB
p7501
sbag5
(g6
g7
(lp7502
g5
(g6
g7
(lp7503
Vthe
p7504
atp7505
Rp7506
(dp7507
g16
VDT
p7508
sbag5
(g6
g7
(lp7509
Vmean
p7510
atp7511
Rp7512
(dp7513
g16
VJJ
p7514
sbag5
(g6
g7
(lp7515
VNMI
p7516
atp7517
Rp7518
(dp7519
g16
VNN
p7520
sbatp7521
Rp7522
(dp7523
g16
VNP
p7524
sbag5
(g6
g7
(lp7525
g5
(g6
g7
(lp7526
Vinside
p7527
atp7528
Rp7529
(dp7530
g16
VIN
p7531
sbag5
(g6
g7
(lp7532
g5
(g6
g7
(lp7533
g5
(g6
g7
(lp7534
Vbands
p7535
atp7536
Rp7537
(dp7538
g16
VNNS
p7539
sbatp7540
Rp7541
(dp7542
g16
VNP
p7543
sbag5
(g6
g7
(lp7544
g5
(g6
g7
(lp7545
Vspanning
p7546
atp7547
Rp7548
(dp7549
g16
VVBG
p7550
sbag5
(g6
g7
(lp7551
g5
(g6
g7
(lp7552
Vone
p7553
atp7554
Rp7555
(dp7556
g16
VCD
p7557
sbag5
(g6
g7
(lp7558
Vsample
p7559
atp7560
Rp7561
(dp7562
g16
VNN
p7563
sbag5
(g6
g7
(lp7564
Vstandard
p7565
atp7566
Rp7567
(dp7568
g16
VNN
p7569
sbag5
(g6
g7
(lp7570
Vdeviation
p7571
atp7572
Rp7573
(dp7574
g16
VNN
p7575
sbatp7576
Rp7577
(dp7578
g16
VNP
p7579
sbag5
(g6
g7
(lp7580
g5
(g6
g7
(lp7581
Vin
p7582
atp7583
Rp7584
(dp7585
g16
VIN
p7586
sbag5
(g6
g7
(lp7587
g5
(g6
g7
(lp7588
Veither
p7589
atp7590
Rp7591
(dp7592
g16
VDT
p7593
sbag5
(g6
g7
(lp7594
Vdirection
p7595
atp7596
Rp7597
(dp7598
g16
VNN
p7599
sbatp7600
Rp7601
(dp7602
g16
VNP
p7603
sbatp7604
Rp7605
(dp7606
g16
VPP
p7607
sbatp7608
Rp7609
(dp7610
g16
VVP
p7611
sbatp7612
Rp7613
(dp7614
g16
VNP
p7615
sbatp7616
Rp7617
(dp7618
g16
VPP
p7619
sbatp7620
Rp7621
(dp7622
g16
VVP
p7623
sbatp7624
Rp7625
(dp7626
g16
VVP
p7627
sbatp7628
Rp7629
(dp7630
g16
g314
sbatp7631
Rp7632
(dp7633
g16
VSBAR
p7634
sbatp7635
Rp7636
(dp7637
g16
VVP
p7638
sbatp7639
Rp7640
(dp7641
g16
g314
sbatp7642
Rp7643
(dp7644
g16
VROOT
p7645
sbasg331
(icmyPackage
CorE
p7646
(dp7647
g334
(lp7648
(I0
I0
tp7649
a(I0
I8
tp7650
asg338
g5
(g6
g7
(lp7651
g7377
ag7384
ag7401
atp7652
Rp7653
(dp7654
g16
g343
sbsbsg344
(icmyPackage
CorE
p7655
(dp7656
g334
(lp7657
(I0
I11
tp7658
a(I0
I31
tp7659
asg338
g5
(g6
g7
(lp7660
g7440
ag7457
ag7486
ag7492
ag7499
ag7522
ag7529
ag7541
ag7548
ag7577
ag7584
ag7591
atp7661
Rp7662
(dp7663
g16
g343
sbsbsg350
(icmyPackage
pattern
p7664
(dp7665
g353
I265
sg354
I1
sg355
(lp7666
(lp7667
S'so'
p7668
aasg362
(lp7669
I1
aI1
aI1
asg364
(lp7670
S'It was not long before he saw me looking at him, and so he began to move.'
p7671
asg367
I0
sg368
(lp7672
(lp7673
S'&C'
p7674
aS'(,/;/./--)'
p7675
aS'(&AND)'
p7676
aa(lp7677
S'(-far)'
p7678
aS'(,)'
p7679
aS'&R'
p7680
aasbsg376
(lp7681
(isxpPackage
sxpSent
p7682
(dp7683
g380
(lp7684
I17
asg382
VThe variance of the particle filter is often large, so for each experiment we perform 30 runs and plot the mean NMI inside bands spanning one sample standard deviation in either direction
p7685
sg384
I6
sg367
I94
sg385
I32
sbasba(icmyPackage
CELink
p7686
(dp7687
g3
(lp7688
g5
(g6
g7
(lp7689
g5
(g6
g7
(lp7690
g5
(g6
g7
(lp7691
g5
(g6
g7
(lp7692
VThen
p7693
atp7694
Rp7695
(dp7696
g16
VRB
p7697
sbatp7698
Rp7699
(dp7700
g16
VADVP
p7701
sbag5
(g6
g7
(lp7702
g135
atp7703
Rp7704
(dp7705
g16
g135
sbag5
(g6
g7
(lp7706
g5
(g6
g7
(lp7707
Vfor
p7708
atp7709
Rp7710
(dp7711
g16
VIN
p7712
sbag5
(g6
g7
(lp7713
g5
(g6
g7
(lp7714
g5
(g6
g7
(lp7715
Veach
p7716
atp7717
Rp7718
(dp7719
g16
VDT
p7720
sbag5
(g6
g7
(lp7721
Vdataset
p7722
atp7723
Rp7724
(dp7725
g16
VNN
p7726
sbatp7727
Rp7728
(dp7729
g16
VNP
p7730
sbag5
(g6
g7
(lp7731
g135
atp7732
Rp7733
(dp7734
g16
g135
sbag5
(g6
g7
(lp7735
g5
(g6
g7
(lp7736
Vfor
p7737
atp7738
Rp7739
(dp7740
g16
VIN
p7741
sbag5
(g6
g7
(lp7742
g5
(g6
g7
(lp7743
g5
(g6
g7
(lp7744
g5
(g6
g7
(lp7745
Vrejuvenation
p7746
atp7747
Rp7748
(dp7749
g16
VNN
p7750
sbatp7751
Rp7752
(dp7753
g16
VNP
p7754
sbag5
(g6
g7
(lp7755
g5
(g6
g7
(lp7756
Vdisabled
p7757
atp7758
Rp7759
(dp7760
g16
VVBN
p7761
sbatp7762
Rp7763
(dp7764
g16
VVP
p7765
sbatp7766
Rp7767
(dp7768
g16
VNP
p7769
sbag5
(g6
g7
(lp7770
g135
atp7771
Rp7772
(dp7773
g16
g135
sbag5
(g6
g7
(lp7774
g5
(g6
g7
(lp7775
g5
(g6
g7
(lp7776
Vrejuvenation
p7777
atp7778
Rp7779
(dp7780
g16
VNN
p7781
sbatp7782
Rp7783
(dp7784
g16
VNP
p7785
sbag5
(g6
g7
(lp7786
g5
(g6
g7
(lp7787
Vbased
p7788
atp7789
Rp7790
(dp7791
g16
VVBN
p7792
sbag5
(g6
g7
(lp7793
g5
(g6
g7
(lp7794
Von
p7795
atp7796
Rp7797
(dp7798
g16
VIN
p7799
sbag5
(g6
g7
(lp7800
g5
(g6
g7
(lp7801
g5
(g6
g7
(lp7802
g34
atp7803
Rp7804
(dp7805
g16
VDT
p7806
sbag5
(g6
g7
(lp7807
Vreservoir
p7808
atp7809
Rp7810
(dp7811
g16
VNN
p7812
sbatp7813
Rp7814
(dp7815
g16
VNP
p7816
sbag5
(g6
g7
(lp7817
g5
(g6
g7
(lp7818
Vof
p7819
atp7820
Rp7821
(dp7822
g16
VIN
p7823
sbag5
(g6
g7
(lp7824
g5
(g6
g7
(lp7825
Vsize
p7826
atp7827
Rp7828
(dp7829
g16
VNN
p7830
sbag5
(g6
g7
(lp7831
V1000
p7832
atp7833
Rp7834
(dp7835
g16
VCD
p7836
sbatp7837
Rp7838
(dp7839
g16
VNP
p7840
sbatp7841
Rp7842
(dp7843
g16
VPP
p7844
sbatp7845
Rp7846
(dp7847
g16
VNP
p7848
sbatp7849
Rp7850
(dp7851
g16
VPP
p7852
sbatp7853
Rp7854
(dp7855
g16
VVP
p7856
sbatp7857
Rp7858
(dp7859
g16
VNP
p7860
sbag5
(g6
g7
(lp7861
g135
atp7862
Rp7863
(dp7864
g16
g135
sbag5
(g6
g7
(lp7865
Vand
p7866
atp7867
Rp7868
(dp7869
g16
VCC
p7870
sbag5
(g6
g7
(lp7871
g5
(g6
g7
(lp7872
g5
(g6
g7
(lp7873
Vrejuvenation
p7874
atp7875
Rp7876
(dp7877
g16
VNN
p7878
sbatp7879
Rp7880
(dp7881
g16
VNP
p7882
sbag5
(g6
g7
(lp7883
g5
(g6
g7
(lp7884
Vbased
p7885
atp7886
Rp7887
(dp7888
g16
VVBN
p7889
sbag5
(g6
g7
(lp7890
g5
(g6
g7
(lp7891
Von
p7892
atp7893
Rp7894
(dp7895
g16
VIN
p7896
sbag5
(g6
g7
(lp7897
g5
(g6
g7
(lp7898
Vthe
p7899
atp7900
Rp7901
(dp7902
g16
VDT
p7903
sbag5
(g6
g7
(lp7904
Ventire
p7905
atp7906
Rp7907
(dp7908
g16
VJJ
p7909
sbag5
(g6
g7
(lp7910
Vhistory
p7911
atp7912
Rp7913
(dp7914
g16
VNN
p7915
sbatp7916
Rp7917
(dp7918
g16
VNP
p7919
sbatp7920
Rp7921
(dp7922
g16
VPP
p7923
sbag5
(g6
g7
(lp7924
g5
(g6
g7
(lp7925
V-LRB-
p7926
atp7927
Rp7928
(dp7929
g16
V-LRB-
p7930
sbag5
(g6
g7
(lp7931
g5
(g6
g7
(lp7932
Vin
p7933
atp7934
Rp7935
(dp7936
g16
VIN
p7937
sbag5
(g6
g7
(lp7938
g5
(g6
g7
(lp7939
Vturn
p7940
atp7941
Rp7942
(dp7943
g16
VNN
p7944
sbatp7945
Rp7946
(dp7947
g16
VNP
p7948
sbatp7949
Rp7950
(dp7951
g16
VPP
p7952
sbag5
(g6
g7
(lp7953
V-RRB-
p7954
atp7955
Rp7956
(dp7957
g16
V-RRB-
p7958
sbatp7959
Rp7960
(dp7961
g16
VPRN
p7962
sbatp7963
Rp7964
(dp7965
g16
VVP
p7966
sbatp7967
Rp7968
(dp7969
g16
VNP
p7970
sbatp7971
Rp7972
(dp7973
g16
VNP
p7974
sbatp7975
Rp7976
(dp7977
g16
VPP
p7978
sbatp7979
Rp7980
(dp7981
g16
VNP
p7982
sbatp7983
Rp7984
(dp7985
g16
VPP
p7986
sbag5
(g6
g7
(lp7987
g135
atp7988
Rp7989
(dp7990
g16
g135
sbag5
(g6
g7
(lp7991
g5
(g6
g7
(lp7992
Vwe
p7993
atp7994
Rp7995
(dp7996
g16
VPRP
p7997
sbatp7998
Rp7999
(dp8000
g16
VNP
p8001
sbag5
(g6
g7
(lp8002
g5
(g6
g7
(lp8003
Vperform
p8004
atp8005
Rp8006
(dp8007
g16
VVBP
p8008
sbag5
(g6
g7
(lp8009
g5
(g6
g7
(lp8010
g5
(g6
g7
(lp8011
V30
p8012
atp8013
Rp8014
(dp8015
g16
VCD
p8016
sbag5
(g6
g7
(lp8017
Vruns
p8018
atp8019
Rp8020
(dp8021
g16
VNNS
p8022
sbatp8023
Rp8024
(dp8025
g16
VNP
p8026
sbag5
(g6
g7
(lp8027
g5
(g6
g7
(lp8028
Vof
p8029
atp8030
Rp8031
(dp8032
g16
VIN
p8033
sbag5
(g6
g7
(lp8034
g5
(g6
g7
(lp8035
Vthe
p8036
atp8037
Rp8038
(dp8039
g16
VDT
p8040
sbag5
(g6
g7
(lp8041
Vparticle
p8042
atp8043
Rp8044
(dp8045
g16
VNN
p8046
sbag5
(g6
g7
(lp8047
Vfilter
p8048
atp8049
Rp8050
(dp8051
g16
VNN
p8052
sbatp8053
Rp8054
(dp8055
g16
VNP
p8056
sbatp8057
Rp8058
(dp8059
g16
VPP
p8060
sbatp8061
Rp8062
(dp8063
g16
VNP
p8064
sbag5
(g6
g7
(lp8065
g5
(g6
g7
(lp8066
Vfrom
p8067
atp8068
Rp8069
(dp8070
g16
VIN
p8071
sbag5
(g6
g7
(lp8072
g5
(g6
g7
(lp8073
Vthat
p8074
atp8075
Rp8076
(dp8077
g16
VDT
p8078
sbag5
(g6
g7
(lp8079
Vfixed
p8080
atp8081
Rp8082
(dp8083
g16
VJJ
p8084
sbag5
(g6
g7
(lp8085
Vinitial
p8086
atp8087
Rp8088
(dp8089
g16
VJJ
p8090
sbag5
(g6
g7
(lp8091
Vmodel
p8092
atp8093
Rp8094
(dp8095
g16
VNN
p8096
sbatp8097
Rp8098
(dp8099
g16
VNP
p8100
sbatp8101
Rp8102
(dp8103
g16
VPP
p8104
sbatp8105
Rp8106
(dp8107
g16
VVP
p8108
sbatp8109
Rp8110
(dp8111
g16
g314
sbatp8112
Rp8113
(dp8114
g16
VROOT
p8115
sbasg331
(icmyPackage
CorE
p8116
(dp8117
g334
(lp8118
(I0
I23
tp8119
a(I0
I25
tp8120
asg338
g7917
sbsg344
(icmyPackage
CorE
p8121
(dp8122
g334
(lp8123
(I0
I31
tp8124
a(I0
I43
tp8125
asg338
g5
(g6
g7
(lp8126
g7999
ag8106
atp8127
Rp8128
(dp8129
g16
g343
sbsbsg350
g351
sg376
(lp8130
(isxpPackage
sxpSent
p8131
(dp8132
g380
(lp8133
I18
asg382
VThen, for each dataset, for rejuvenation disabled, rejuvenation based on a reservoir of size 1000, and rejuvenation based on the entire history (in turn), we perform 30 runs of the particle filter from that fixed initial model
p8134
sg384
I6
sg367
I99
sg385
I33
sbasba(icmyPackage
CELink
p8135
(dp8136
g3
(lp8137
g5
(g6
g7
(lp8138
g5
(g6
g7
(lp8139
g5
(g6
g7
(lp8140
g5
(g6
g7
(lp8141
VWe
p8142
atp8143
Rp8144
(dp8145
g16
VPRP
p8146
sbatp8147
Rp8148
(dp8149
g16
VNP
p8150
sbag5
(g6
g7
(lp8151
g5
(g6
g7
(lp8152
Vobserved
p8153
atp8154
Rp8155
(dp8156
g16
VVBD
p8157
sbag5
(g6
g7
(lp8158
g5
(g6
g7
(lp8159
Vpreviously
p8160
atp8161
Rp8162
(dp8163
g16
VRB
p8164
sbatp8165
Rp8166
(dp8167
g16
VADVP
p8168
sbag5
(g6
g7
(lp8169
g5
(g6
g7
(lp8170
Vthat
p8171
atp8172
Rp8173
(dp8174
g16
VIN
p8175
sbag5
(g6
g7
(lp8176
g5
(g6
g7
(lp8177
g5
(g6
g7
(lp8178
g5
(g6
g7
(lp8179
Vvariance
p8180
atp8181
Rp8182
(dp8183
g16
VNN
p8184
sbatp8185
Rp8186
(dp8187
g16
VNP
p8188
sbag5
(g6
g7
(lp8189
g5
(g6
g7
(lp8190
Vin
p8191
atp8192
Rp8193
(dp8194
g16
VIN
p8195
sbag5
(g6
g7
(lp8196
g5
(g6
g7
(lp8197
g5
(g6
g7
(lp8198
Vthe
p8199
atp8200
Rp8201
(dp8202
g16
VDT
p8203
sbag5
(g6
g7
(lp8204
VGibbs
p8205
atp8206
Rp8207
(dp8208
g16
VNNP
p8209
sbag5
(g6
g7
(lp8210
Vinitialization
p8211
atp8212
Rp8213
(dp8214
g16
VNN
p8215
sbatp8216
Rp8217
(dp8218
g16
VNP
p8219
sbag5
(g6
g7
(lp8220
g5
(g6
g7
(lp8221
Vof
p8222
atp8223
Rp8224
(dp8225
g16
VIN
p8226
sbag5
(g6
g7
(lp8227
g5
(g6
g7
(lp8228
Vthe
p8229
atp8230
Rp8231
(dp8232
g16
VDT
p8233
sbag5
(g6
g7
(lp8234
Vmodel
p8235
atp8236
Rp8237
(dp8238
g16
VNN
p8239
sbatp8240
Rp8241
(dp8242
g16
VNP
p8243
sbatp8244
Rp8245
(dp8246
g16
VPP
p8247
sbatp8248
Rp8249
(dp8250
g16
VNP
p8251
sbatp8252
Rp8253
(dp8254
g16
VPP
p8255
sbatp8256
Rp8257
(dp8258
g16
VNP
p8259
sbag5
(g6
g7
(lp8260
g5
(g6
g7
(lp8261
Vcontributes
p8262
atp8263
Rp8264
(dp8265
g16
VVBZ
p8266
sbag5
(g6
g7
(lp8267
g5
(g6
g7
(lp8268
Vsignificantly
p8269
atp8270
Rp8271
(dp8272
g16
VRB
p8273
sbatp8274
Rp8275
(dp8276
g16
VADVP
p8277
sbag5
(g6
g7
(lp8278
g5
(g6
g7
(lp8279
Vto
p8280
atp8281
Rp8282
(dp8283
g16
VTO
p8284
sbag5
(g6
g7
(lp8285
g5
(g6
g7
(lp8286
g5
(g6
g7
(lp8287
Vvariance
p8288
atp8289
Rp8290
(dp8291
g16
VNN
p8292
sbatp8293
Rp8294
(dp8295
g16
VNP
p8296
sbag5
(g6
g7
(lp8297
g5
(g6
g7
(lp8298
Vof
p8299
atp8300
Rp8301
(dp8302
g16
VIN
p8303
sbag5
(g6
g7
(lp8304
g5
(g6
g7
(lp8305
Vthe
p8306
atp8307
Rp8308
(dp8309
g16
VDT
p8310
sbag5
(g6
g7
(lp8311
Voverall
p8312
atp8313
Rp8314
(dp8315
g16
VJJ
p8316
sbag5
(g6
g7
(lp8317
Valgorithm
p8318
atp8319
Rp8320
(dp8321
g16
VNN
p8322
sbatp8323
Rp8324
(dp8325
g16
VNP
p8326
sbatp8327
Rp8328
(dp8329
g16
VPP
p8330
sbatp8331
Rp8332
(dp8333
g16
VNP
p8334
sbatp8335
Rp8336
(dp8337
g16
VPP
p8338
sbag5
(g6
g7
(lp8339
g135
atp8340
Rp8341
(dp8342
g16
g135
sbag5
(g6
g7
(lp8343
g5
(g6
g7
(lp8344
Vas
p8345
atp8346
Rp8347
(dp8348
g16
VIN
p8349
sbag5
(g6
g7
(lp8350
g5
(g6
g7
(lp8351
g5
(g6
g7
(lp8352
Vmeasured
p8353
atp8354
Rp8355
(dp8356
g16
VVBN
p8357
sbag5
(g6
g7
(lp8358
g5
(g6
g7
(lp8359
Vby
p8360
atp8361
Rp8362
(dp8363
g16
VIN
p8364
sbag5
(g6
g7
(lp8365
g5
(g6
g7
(lp8366
VNMI
p8367
atp8368
Rp8369
(dp8370
g16
VNNP
p8371
sbatp8372
Rp8373
(dp8374
g16
VNP
p8375
sbatp8376
Rp8377
(dp8378
g16
VPP
p8379
sbatp8380
Rp8381
(dp8382
g16
VVP
p8383
sbatp8384
Rp8385
(dp8386
g16
g314
sbatp8387
Rp8388
(dp8389
g16
VSBAR
p8390
sbatp8391
Rp8392
(dp8393
g16
VVP
p8394
sbatp8395
Rp8396
(dp8397
g16
g314
sbatp8398
Rp8399
(dp8400
g16
VSBAR
p8401
sbatp8402
Rp8403
(dp8404
g16
VVP
p8405
sbatp8406
Rp8407
(dp8408
g16
g314
sbatp8409
Rp8410
(dp8411
g16
VROOT
p8412
sbag5
(g6
g7
(lp8413
g5
(g6
g7
(lp8414
g5
(g6
g7
(lp8415
g5
(g6
g7
(lp8416
VWith
p8417
atp8418
Rp8419
(dp8420
g16
VIN
p8421
sbag5
(g6
g7
(lp8422
g5
(g6
g7
(lp8423
g5
(g6
g7
(lp8424
Vthis
p8425
atp8426
Rp8427
(dp8428
g16
VDT
p8429
sbatp8430
Rp8431
(dp8432
g16
VNP
p8433
sbag5
(g6
g7
(lp8434
g5
(g6
g7
(lp8435
Vin
p8436
atp8437
Rp8438
(dp8439
g16
VIN
p8440
sbag5
(g6
g7
(lp8441
g5
(g6
g7
(lp8442
Vmind
p8443
atp8444
Rp8445
(dp8446
g16
VNN
p8447
sbatp8448
Rp8449
(dp8450
g16
VNP
p8451
sbatp8452
Rp8453
(dp8454
g16
VPP
p8455
sbatp8456
Rp8457
(dp8458
g16
VNP
p8459
sbatp8460
Rp8461
(dp8462
g16
VPP
p8463
sbag5
(g6
g7
(lp8464
g135
atp8465
Rp8466
(dp8467
g16
g135
sbag5
(g6
g7
(lp8468
g5
(g6
g7
(lp8469
Vwe
p8470
atp8471
Rp8472
(dp8473
g16
VPRP
p8474
sbatp8475
Rp8476
(dp8477
g16
VNP
p8478
sbag5
(g6
g7
(lp8479
g5
(g6
g7
(lp8480
Vconsider
p8481
atp8482
Rp8483
(dp8484
g16
VVBP
p8485
sbag5
(g6
g7
(lp8486
g5
(g6
g7
(lp8487
Vwhether
p8488
atp8489
Rp8490
(dp8491
g16
VIN
p8492
sbag5
(g6
g7
(lp8493
g5
(g6
g7
(lp8494
g5
(g6
g7
(lp8495
Vwe
p8496
atp8497
Rp8498
(dp8499
g16
VPRP
p8500
sbatp8501
Rp8502
(dp8503
g16
VNP
p8504
sbag5
(g6
g7
(lp8505
g5
(g6
g7
(lp8506
Vcan
p8507
atp8508
Rp8509
(dp8510
g16
VMD
p8511
sbag5
(g6
g7
(lp8512
g5
(g6
g7
(lp8513
Vreduce
p8514
atp8515
Rp8516
(dp8517
g16
VVB
p8518
sbag5
(g6
g7
(lp8519
g5
(g6
g7
(lp8520
g5
(g6
g7
(lp8521
Vvariance
p8522
atp8523
Rp8524
(dp8525
g16
VNN
p8526
sbatp8527
Rp8528
(dp8529
g16
VNP
p8530
sbag5
(g6
g7
(lp8531
g5
(g6
g7
(lp8532
Vin
p8533
atp8534
Rp8535
(dp8536
g16
VIN
p8537
sbag5
(g6
g7
(lp8538
g5
(g6
g7
(lp8539
Vthe
p8540
atp8541
Rp8542
(dp8543
g16
VDT
p8544
sbag5
(g6
g7
(lp8545
Vinitialization
p8546
atp8547
Rp8548
(dp8549
g16
VNN
p8550
sbatp8551
Rp8552
(dp8553
g16
VNP
p8554
sbatp8555
Rp8556
(dp8557
g16
VPP
p8558
sbatp8559
Rp8560
(dp8561
g16
VNP
p8562
sbag5
(g6
g7
(lp8563
g5
(g6
g7
(lp8564
Vby
p8565
atp8566
Rp8567
(dp8568
g16
VIN
p8569
sbag5
(g6
g7
(lp8570
g5
(g6
g7
(lp8571
g5
(g6
g7
(lp8572
Vtuning
p8573
atp8574
Rp8575
(dp8576
g16
VVBG
p8577
sbag5
(g6
g7
(lp8578
g5
(g6
g7
(lp8579
Vthe
p8580
atp8581
Rp8582
(dp8583
g16
VDT
p8584
sbag5
(g6
g7
(lp8585
Vinitial
p8586
atp8587
Rp8588
(dp8589
g16
VJJ
p8590
sbag5
(g6
g7
(lp8591
Vmodel
p8592
atp8593
Rp8594
(dp8595
g16
VNN
p8596
sbatp8597
Rp8598
(dp8599
g16
VNP
p8600
sbatp8601
Rp8602
(dp8603
g16
VVP
p8604
sbatp8605
Rp8606
(dp8607
g16
g314
sbatp8608
Rp8609
(dp8610
g16
VPP
p8611
sbatp8612
Rp8613
(dp8614
g16
VVP
p8615
sbatp8616
Rp8617
(dp8618
g16
VVP
p8619
sbatp8620
Rp8621
(dp8622
g16
g314
sbatp8623
Rp8624
(dp8625
g16
VSBAR
p8626
sbatp8627
Rp8628
(dp8629
g16
VVP
p8630
sbatp8631
Rp8632
(dp8633
g16
g314
sbatp8634
Rp8635
(dp8636
g16
VROOT
p8637
sbasg331
(icmyPackage
CorE
p8638
(dp8639
g334
(lp8640
(I0
I22
tp8641
a(I1
I19
tp8642
asg338
g5
(g6
g7
(lp8643
g8385
ag8635
atp8644
Rp8645
(dp8646
g16
g343
sbsbsg344
(icmyPackage
CorE
p8647
(dp8648
g334
(lp8649
(I0
I0
tp8650
a(I0
I19
tp8651
asg338
g5
(g6
g7
(lp8652
g8148
ag8155
ag8166
ag8173
ag8257
ag8264
ag8275
ag8336
atp8653
Rp8654
(dp8655
g16
g343
sbsbsg350
g1531
sg376
(lp8656
(isxpPackage
sxpSent
p8657
(dp8658
g380
(lp8659
I19
asg382
VWe observed previously that variance in the Gibbs initialization of the model contributes significantly to variance of the overall algorithm, as measured by NMI
p8660
sg384
I6
sg367
I110
sg385
I36
sba(isxpPackage
sxpSent
p8661
(dp8662
g380
(lp8663
I19
aI20
aI21
asg382
VWith this in mind, we consider whether we can reduce variance in the initialization by tuning the initial model
p8664
sg384
I6
sg367
I111
sg385
I36
sbasba(icmyPackage
CELink
p8665
(dp8666
g3
(lp8667
g8635
asg331
(icmyPackage
CorE
p8668
(dp8669
g334
(lp8670
(I0
I16
tp8671
a(I0
I19
tp8672
asg338
g8606
sbsg344
(icmyPackage
CorE
p8673
(dp8674
g334
(lp8675
(I0
I0
tp8676
a(I0
I14
tp8677
asg338
g5
(g6
g7
(lp8678
g8461
ag8466
ag8476
ag8483
ag8490
ag8502
ag8509
ag8516
ag8560
atp8679
Rp8680
(dp8681
g16
g343
sbsbsg350
g1083
sg376
(lp8682
g8661
asba(icmyPackage
CELink
p8683
(dp8684
g3
(lp8685
g8635
ag5
(g6
g7
(lp8686
g5
(g6
g7
(lp8687
g5
(g6
g7
(lp8688
g5
(g6
g7
(lp8689
g5
(g6
g7
(lp8690
VThus
p8691
atp8692
Rp8693
(dp8694
g16
VRB
p8695
sbatp8696
Rp8697
(dp8698
g16
VADVP
p8699
sbag5
(g6
g7
(lp8700
g5
(g6
g7
(lp8701
Vwe
p8702
atp8703
Rp8704
(dp8705
g16
VPRP
p8706
sbatp8707
Rp8708
(dp8709
g16
VNP
p8710
sbag5
(g6
g7
(lp8711
g5
(g6
g7
(lp8712
Vperform
p8713
atp8714
Rp8715
(dp8716
g16
VVBP
p8717
sbag5
(g6
g7
(lp8718
g5
(g6
g7
(lp8719
g5
(g6
g7
(lp8720
g34
atp8721
Rp8722
(dp8723
g16
VDT
p8724
sbag5
(g6
g7
(lp8725
Vset
p8726
atp8727
Rp8728
(dp8729
g16
VNN
p8730
sbatp8731
Rp8732
(dp8733
g16
VNP
p8734
sbag5
(g6
g7
(lp8735
g5
(g6
g7
(lp8736
Vof
p8737
atp8738
Rp8739
(dp8740
g16
VIN
p8741
sbag5
(g6
g7
(lp8742
g5
(g6
g7
(lp8743
g5
(g6
g7
(lp8744
Vexperiments
p8745
atp8746
Rp8747
(dp8748
g16
VNNS
p8749
sbatp8750
Rp8751
(dp8752
g16
VNP
p8753
sbag5
(g6
g7
(lp8754
g5
(g6
g7
(lp8755
g5
(g6
g7
(lp8756
Vin
p8757
atp8758
Rp8759
(dp8760
g16
VIN
p8761
sbag5
(g6
g7
(lp8762
g5
(g6
g7
(lp8763
Vwhich
p8764
atp8765
Rp8766
(dp8767
g16
VWDT
p8768
sbatp8769
Rp8770
(dp8771
g16
VWHNP
p8772
sbatp8773
Rp8774
(dp8775
g16
VWHPP
p8776
sbag5
(g6
g7
(lp8777
g5
(g6
g7
(lp8778
g5
(g6
g7
(lp8779
Vwe
p8780
atp8781
Rp8782
(dp8783
g16
VPRP
p8784
sbatp8785
Rp8786
(dp8787
g16
VNP
p8788
sbag5
(g6
g7
(lp8789
g5
(g6
g7
(lp8790
Vperform
p8791
atp8792
Rp8793
(dp8794
g16
VVBP
p8795
sbag5
(g6
g7
(lp8796
g5
(g6
g7
(lp8797
g5
(g6
g7
(lp8798
VGibbs
p8799
atp8800
Rp8801
(dp8802
g16
VNNP
p8803
sbatp8804
Rp8805
(dp8806
g16
VNP
p8807
sbag5
(g6
g7
(lp8808
g5
(g6
g7
(lp8809
Vinitialization
p8810
atp8811
Rp8812
(dp8813
g16
VVB
p8814
sbag5
(g6
g7
(lp8815
g5
(g6
g7
(lp8816
g5
(g6
g7
(lp8817
V20
p8818
atp8819
Rp8820
(dp8821
g16
VCD
p8822
sbag5
(g6
g7
(lp8823
Vtimes
p8824
atp8825
Rp8826
(dp8827
g16
VNNS
p8828
sbatp8829
Rp8830
(dp8831
g16
VQP
p8832
sbatp8833
Rp8834
(dp8835
g16
VNP
p8836
sbag5
(g6
g7
(lp8837
g5
(g6
g7
(lp8838
Von
p8839
atp8840
Rp8841
(dp8842
g16
VIN
p8843
sbag5
(g6
g7
(lp8844
g5
(g6
g7
(lp8845
Vthe
p8846
atp8847
Rp8848
(dp8849
g16
VDT
p8850
sbag5
(g6
g7
(lp8851
Vinitialization
p8852
atp8853
Rp8854
(dp8855
g16
VNN
p8856
sbag5
(g6
g7
(lp8857
Vset
p8858
atp8859
Rp8860
(dp8861
g16
VNN
p8862
sbatp8863
Rp8864
(dp8865
g16
VNP
p8866
sbatp8867
Rp8868
(dp8869
g16
VPP
p8870
sbag5
(g6
g7
(lp8871
g135
atp8872
Rp8873
(dp8874
g16
g135
sbag5
(g6
g7
(lp8875
g5
(g6
g7
(lp8876
g5
(g6
g7
(lp8877
Vsetting
p8878
atp8879
Rp8880
(dp8881
g16
VVBG
p8882
sbag5
(g6
g7
(lp8883
g5
(g6
g7
(lp8884
g5
(g6
g7
(lp8885
Vthe
p8886
atp8887
Rp8888
(dp8889
g16
VDT
p8890
sbag5
(g6
g7
(lp8891
Vparticle
p8892
atp8893
Rp8894
(dp8895
g16
VNN
p8896
sbag5
(g6
g7
(lp8897
Vfilter
p8898
atp8899
Rp8900
(dp8901
g16
VNN
p8902
sbag5
(g6
g7
(lp8903
g817
atp8904
Rp8905
(dp8906
g16
VNN
p8907
sbag5
(g6
g7
(lp8908
g823
atp8909
Rp8910
(dp8911
g16
VPOS
p8912
sbatp8913
Rp8914
(dp8915
g16
VNP
p8916
sbag5
(g6
g7
(lp8917
V\u005c
p8918
atp8919
Rp8920
(dp8921
g16
VNNP
p8922
sbag5
(g6
g7
(lp8923
Vu2019
p8924
atp8925
Rp8926
(dp8927
g16
VNNP
p8928
sbag5
(g6
g7
(lp8929
g823
atp8930
Rp8931
(dp8932
g16
V''
p8933
sbatp8934
Rp8935
(dp8936
g16
VNP
p8937
sbatp8938
Rp8939
(dp8940
g16
VVP
p8941
sbatp8942
Rp8943
(dp8944
g16
g314
sbatp8945
Rp8946
(dp8947
g16
VVP
p8948
sbatp8949
Rp8950
(dp8951
g16
g314
sbatp8952
Rp8953
(dp8954
g16
VVP
p8955
sbatp8956
Rp8957
(dp8958
g16
g314
sbatp8959
Rp8960
(dp8961
g16
VSBAR
p8962
sbatp8963
Rp8964
(dp8965
g16
VNP
p8966
sbatp8967
Rp8968
(dp8969
g16
VPP
p8970
sbatp8971
Rp8972
(dp8973
g16
VNP
p8974
sbatp8975
Rp8976
(dp8977
g16
VVP
p8978
sbatp8979
Rp8980
(dp8981
g16
g314
sbag5
(g6
g7
(lp8982
g5
(g6
g7
(lp8983
Vs
p8984
atp8985
Rp8986
(dp8987
g16
VVBZ
p8988
sbag5
(g6
g7
(lp8989
g5
(g6
g7
(lp8990
Vinitial
p8991
atp8992
Rp8993
(dp8994
g16
VJJ
p8995
sbag5
(g6
g7
(lp8996
Vmodel
p8997
atp8998
Rp8999
(dp9000
g16
VNN
p9001
sbatp9002
Rp9003
(dp9004
g16
VNP
p9005
sbag5
(g6
g7
(lp9006
g5
(g6
g7
(lp9007
Vto
p9008
atp9009
Rp9010
(dp9011
g16
VTO
p9012
sbag5
(g6
g7
(lp9013
g5
(g6
g7
(lp9014
g5
(g6
g7
(lp9015
Vthe
p9016
atp9017
Rp9018
(dp9019
g16
VDT
p9020
sbag5
(g6
g7
(lp9021
Vmodel
p9022
atp9023
Rp9024
(dp9025
g16
VNN
p9026
sbatp9027
Rp9028
(dp9029
g16
VNP
p9030
sbag5
(g6
g7
(lp9031
g5
(g6
g7
(lp9032
Vout
p9033
atp9034
Rp9035
(dp9036
g16
VRB
p9037
sbag5
(g6
g7
(lp9038
Vof
p9039
atp9040
Rp9041
(dp9042
g16
VIN
p9043
sbag5
(g6
g7
(lp9044
g5
(g6
g7
(lp9045
Vthese
p9046
atp9047
Rp9048
(dp9049
g16
VDT
p9050
sbag5
(g6
g7
(lp9051
V20
p9052
atp9053
Rp9054
(dp9055
g16
VCD
p9056
sbatp9057
Rp9058
(dp9059
g16
VNP
p9060
sbatp9061
Rp9062
(dp9063
g16
VPP
p9064
sbatp9065
Rp9066
(dp9067
g16
VNP
p9068
sbatp9069
Rp9070
(dp9071
g16
VPP
p9072
sbag5
(g6
g7
(lp9073
g5
(g6
g7
(lp9074
Vwith
p9075
atp9076
Rp9077
(dp9078
g16
VIN
p9079
sbag5
(g6
g7
(lp9080
g5
(g6
g7
(lp9081
Vthe
p9082
atp9083
Rp9084
(dp9085
g16
VDT
p9086
sbag5
(g6
g7
(lp9087
Vhighest
p9088
atp9089
Rp9090
(dp9091
g16
VJJS
p9092
sbag5
(g6
g7
(lp9093
Vin-sample
p9094
atp9095
Rp9096
(dp9097
g16
VNN
p9098
sbatp9099
Rp9100
(dp9101
g16
VNP
p9102
sbatp9103
Rp9104
(dp9105
g16
VPP
p9106
sbatp9107
Rp9108
(dp9109
g16
VVP
p9110
sbag5
(g6
g7
(lp9111
g5
(g6
g7
(lp9112
VNMI
p9113
atp9114
Rp9115
(dp9116
g16
VNNP
p9117
sbatp9118
Rp9119
(dp9120
g16
VNP
p9121
sbatp9122
Rp9123
(dp9124
g16
VSINV
p9125
sbatp9126
Rp9127
(dp9128
g16
VROOT
p9129
sbasg331
(icmyPackage
CorE
p9130
(dp9131
g334
(lp9132
(I0
I0
tp9133
a(I0
I19
tp9134
asg338
g8635
sbsg344
(icmyPackage
CorE
p9135
(dp9136
g334
(lp9137
(I1
I1
tp9138
a(I1
I43
tp9139
asg338
g5
(g6
g7
(lp9140
g8708
ag8976
ag9108
ag9119
atp9141
Rp9142
(dp9143
g16
g343
sbsbsg350
g761
sg376
(lp9144
g8661
a(isxpPackage
sxpSent
p9145
(dp9146
g380
(lp9147
I21
asg382
VThus we perform a set of experiments in which we perform Gibbs initialization 20 times on the initialization set, setting the particle filter u'\u005cu2019' s initial model to the model out of these 20 with the highest in-sample NMI
p9148
sg384
I6
sg367
I112
sg385
I36
sbasba(icmyPackage
CELink
p9149
(dp9150
g3
(lp9151
g5
(g6
g7
(lp9152
g5
(g6
g7
(lp9153
g5
(g6
g7
(lp9154
g5
(g6
g7
(lp9155
g5
(g6
g7
(lp9156
VWe
p9157
atp9158
Rp9159
(dp9160
g16
VPRP
p9161
sbatp9162
Rp9163
(dp9164
g16
VNP
p9165
sbag5
(g6
g7
(lp9166
g5
(g6
g7
(lp9167
Vmay
p9168
atp9169
Rp9170
(dp9171
g16
VMD
p9172
sbag5
(g6
g7
(lp9173
Vnot
p9174
atp9175
Rp9176
(dp9177
g16
VRB
p9178
sbag5
(g6
g7
(lp9179
g5
(g6
g7
(lp9180
Valways
p9181
atp9182
Rp9183
(dp9184
g16
VRB
p9185
sbatp9186
Rp9187
(dp9188
g16
VADVP
p9189
sbag5
(g6
g7
(lp9190
g5
(g6
g7
(lp9191
Vhave
p9192
atp9193
Rp9194
(dp9195
g16
VVB
p9196
sbag5
(g6
g7
(lp9197
g5
(g6
g7
(lp9198
Vlabeled
p9199
atp9200
Rp9201
(dp9202
g16
VVBN
p9203
sbag5
(g6
g7
(lp9204
g5
(g6
g7
(lp9205
g5
(g6
g7
(lp9206
Vdata
p9207
atp9208
Rp9209
(dp9210
g16
VNNS
p9211
sbatp9212
Rp9213
(dp9214
g16
VNP
p9215
sbag5
(g6
g7
(lp9216
g5
(g6
g7
(lp9217
Vfor
p9218
atp9219
Rp9220
(dp9221
g16
VIN
p9222
sbag5
(g6
g7
(lp9223
g5
(g6
g7
(lp9224
Vinitialization
p9225
atp9226
Rp9227
(dp9228
g16
VNN
p9229
sbatp9230
Rp9231
(dp9232
g16
VNP
p9233
sbatp9234
Rp9235
(dp9236
g16
VPP
p9237
sbatp9238
Rp9239
(dp9240
g16
VNP
p9241
sbatp9242
Rp9243
(dp9244
g16
VVP
p9245
sbatp9246
Rp9247
(dp9248
g16
VVP
p9249
sbatp9250
Rp9251
(dp9252
g16
VVP
p9253
sbatp9254
Rp9255
(dp9256
g16
g314
sbag5
(g6
g7
(lp9257
g135
atp9258
Rp9259
(dp9260
g16
g135
sbag5
(g6
g7
(lp9261
Vso
p9262
atp9263
Rp9264
(dp9265
g16
VIN
p9266
sbag5
(g6
g7
(lp9267
g5
(g6
g7
(lp9268
g5
(g6
g7
(lp9269
Vwe
p9270
atp9271
Rp9272
(dp9273
g16
VPRP
p9274
sbatp9275
Rp9276
(dp9277
g16
VNP
p9278
sbag5
(g6
g7
(lp9279
g5
(g6
g7
(lp9280
Valso
p9281
atp9282
Rp9283
(dp9284
g16
VRB
p9285
sbatp9286
Rp9287
(dp9288
g16
VADVP
p9289
sbag5
(g6
g7
(lp9290
g5
(g6
g7
(lp9291
Vconsider
p9292
atp9293
Rp9294
(dp9295
g16
VVBP
p9296
sbag5
(g6
g7
(lp9297
g5
(g6
g7
(lp9298
g5
(g6
g7
(lp9299
g34
atp9300
Rp9301
(dp9302
g16
VDT
p9303
sbag5
(g6
g7
(lp9304
Vvariation
p9305
atp9306
Rp9307
(dp9308
g16
VNN
p9309
sbatp9310
Rp9311
(dp9312
g16
VNP
p9313
sbag5
(g6
g7
(lp9314
g5
(g6
g7
(lp9315
g5
(g6
g7
(lp9316
Vin
p9317
atp9318
Rp9319
(dp9320
g16
VIN
p9321
sbag5
(g6
g7
(lp9322
g5
(g6
g7
(lp9323
Vwhich
p9324
atp9325
Rp9326
(dp9327
g16
VWDT
p9328
sbatp9329
Rp9330
(dp9331
g16
VWHNP
p9332
sbatp9333
Rp9334
(dp9335
g16
VWHPP
p9336
sbag5
(g6
g7
(lp9337
g5
(g6
g7
(lp9338
g5
(g6
g7
(lp9339
VGibbs
p9340
atp9341
Rp9342
(dp9343
g16
VNNP
p9344
sbag5
(g6
g7
(lp9345
Vinitialization
p9346
atp9347
Rp9348
(dp9349
g16
VNNP
p9350
sbatp9351
Rp9352
(dp9353
g16
VNP
p9354
sbag5
(g6
g7
(lp9355
g5
(g6
g7
(lp9356
Vis
p9357
atp9358
Rp9359
(dp9360
g16
VVBZ
p9361
sbag5
(g6
g7
(lp9362
g5
(g6
g7
(lp9363
Vperformed
p9364
atp9365
Rp9366
(dp9367
g16
VVBN
p9368
sbag5
(g6
g7
(lp9369
g5
(g6
g7
(lp9370
V20
p9371
atp9372
Rp9373
(dp9374
g16
VCD
p9375
sbag5
(g6
g7
(lp9376
Vtimes
p9377
atp9378
Rp9379
(dp9380
g16
VNNS
p9381
sbatp9382
Rp9383
(dp9384
g16
VNP
p9385
sbag5
(g6
g7
(lp9386
g5
(g6
g7
(lp9387
Von
p9388
atp9389
Rp9390
(dp9391
g16
VIN
p9392
sbag5
(g6
g7
(lp9393
g5
(g6
g7
(lp9394
g5
(g6
g7
(lp9395
Vthe
p9396
atp9397
Rp9398
(dp9399
g16
VDT
p9400
sbag5
(g6
g7
(lp9401
Vfirst
p9402
atp9403
Rp9404
(dp9405
g16
VJJ
p9406
sbag5
(g6
g7
(lp9407
V80
p9408
atp9409
Rp9410
(dp9411
g16
VCD
p9412
sbag5
(g6
g7
(lp9413
V%
p9414
atp9415
Rp9416
(dp9417
g16
VNN
p9418
sbatp9419
Rp9420
(dp9421
g16
VNP
p9422
sbag5
(g6
g7
(lp9423
g5
(g6
g7
(lp9424
Vof
p9425
atp9426
Rp9427
(dp9428
g16
VIN
p9429
sbag5
(g6
g7
(lp9430
g5
(g6
g7
(lp9431
Vthe
p9432
atp9433
Rp9434
(dp9435
g16
VDT
p9436
sbag5
(g6
g7
(lp9437
Vinitialization
p9438
atp9439
Rp9440
(dp9441
g16
VNN
p9442
sbag5
(g6
g7
(lp9443
Vsample
p9444
atp9445
Rp9446
(dp9447
g16
VNN
p9448
sbatp9449
Rp9450
(dp9451
g16
VNP
p9452
sbatp9453
Rp9454
(dp9455
g16
VPP
p9456
sbatp9457
Rp9458
(dp9459
g16
VNP
p9460
sbatp9461
Rp9462
(dp9463
g16
VPP
p9464
sbatp9465
Rp9466
(dp9467
g16
VVP
p9468
sbatp9469
Rp9470
(dp9471
g16
VVP
p9472
sbatp9473
Rp9474
(dp9475
g16
g314
sbatp9476
Rp9477
(dp9478
g16
VSBAR
p9479
sbatp9480
Rp9481
(dp9482
g16
VNP
p9483
sbatp9484
Rp9485
(dp9486
g16
VVP
p9487
sbatp9488
Rp9489
(dp9490
g16
g314
sbag5
(g6
g7
(lp9491
g135
atp9492
Rp9493
(dp9494
g16
g135
sbag5
(g6
g7
(lp9495
g5
(g6
g7
(lp9496
g5
(g6
g7
(lp9497
g5
(g6
g7
(lp9498
Vheld-out
p9499
atp9500
Rp9501
(dp9502
g16
VJJ
p9503
sbag5
(g6
g7
(lp9504
Vperplexity
p9505
atp9506
Rp9507
(dp9508
g16
VNN
p9509
sbatp9510
Rp9511
(dp9512
g16
VNP
p9513
sbag5
(g6
g7
(lp9514
g5
(g6
g7
(lp9515
V-LRB-
p9516
atp9517
Rp9518
(dp9519
g16
V-LRB-
p9520
sbag5
(g6
g7
(lp9521
g5
(g6
g7
(lp9522
Vper
p9523
atp9524
Rp9525
(dp9526
g16
VIN
p9527
sbag5
(g6
g7
(lp9528
g5
(g6
g7
(lp9529
Vword
p9530
atp9531
Rp9532
(dp9533
g16
VNN
p9534
sbatp9535
Rp9536
(dp9537
g16
VNP
p9538
sbatp9539
Rp9540
(dp9541
g16
VPP
p9542
sbag5
(g6
g7
(lp9543
V-RRB-
p9544
atp9545
Rp9546
(dp9547
g16
V-RRB-
p9548
sbatp9549
Rp9550
(dp9551
g16
VPRN
p9552
sbatp9553
Rp9554
(dp9555
g16
VNP
p9556
sbag5
(g6
g7
(lp9557
g5
(g6
g7
(lp9558
Vis
p9559
atp9560
Rp9561
(dp9562
g16
VVBZ
p9563
sbag5
(g6
g7
(lp9564
g5
(g6
g7
(lp9565
Vestimated
p9566
atp9567
Rp9568
(dp9569
g16
VVBN
p9570
sbag5
(g6
g7
(lp9571
g5
(g6
g7
(lp9572
Von
p9573
atp9574
Rp9575
(dp9576
g16
VIN
p9577
sbag5
(g6
g7
(lp9578
g5
(g6
g7
(lp9579
g5
(g6
g7
(lp9580
Vthe
p9581
atp9582
Rp9583
(dp9584
g16
VDT
p9585
sbag5
(g6
g7
(lp9586
Vremaining
p9587
atp9588
Rp9589
(dp9590
g16
VVBG
p9591
sbag5
(g6
g7
(lp9592
V20
p9593
atp9594
Rp9595
(dp9596
g16
VCD
p9597
sbag5
(g6
g7
(lp9598
g9414
atp9599
Rp9600
(dp9601
g16
VNN
p9602
sbatp9603
Rp9604
(dp9605
g16
VNP
p9606
sbag5
(g6
g7
(lp9607
g135
atp9608
Rp9609
(dp9610
g16
g135
sbag5
(g6
g7
(lp9611
g5
(g6
g7
(lp9612
Vusing
p9613
atp9614
Rp9615
(dp9616
g16
VVBG
p9617
sbag5
(g6
g7
(lp9618
g5
(g6
g7
(lp9619
g34
atp9620
Rp9621
(dp9622
g16
VDT
p9623
sbag5
(g6
g7
(lp9624
Vfirst-moment
p9625
atp9626
Rp9627
(dp9628
g16
VJJ
p9629
sbag5
(g6
g7
(lp9630
Vparticle
p9631
atp9632
Rp9633
(dp9634
g16
VNN
p9635
sbatp9636
Rp9637
(dp9638
g16
VNP
p9639
sbag5
(g6
g7
(lp9640
g5
(g6
g7
(lp9641
g5
(g6
g7
(lp9642
Vlearning
p9643
atp9644
Rp9645
(dp9646
g16
VVBG
p9647
sbag5
(g6
g7
(lp9648
g5
(g6
g7
(lp9649
Vapproximation
p9650
atp9651
Rp9652
(dp9653
g16
VJJ
p9654
sbag5
(g6
g7
(lp9655
V-LSB-
p9656
atp9657
Rp9658
(dp9659
g16
VNNP
p9660
sbag5
(g6
g7
(lp9661
V20
p9662
atp9663
Rp9664
(dp9665
g16
VCD
p9666
sbag5
(g6
g7
(lp9667
V-RSB-
p9668
atp9669
Rp9670
(dp9671
g16
VNNS
p9672
sbatp9673
Rp9674
(dp9675
g16
VNP
p9676
sbatp9677
Rp9678
(dp9679
g16
VVP
p9680
sbatp9681
Rp9682
(dp9683
g16
g314
sbatp9684
Rp9685
(dp9686
g16
VVP
p9687
sbatp9688
Rp9689
(dp9690
g16
VNP
p9691
sbatp9692
Rp9693
(dp9694
g16
VPP
p9695
sbatp9696
Rp9697
(dp9698
g16
VVP
p9699
sbatp9700
Rp9701
(dp9702
g16
VVP
p9703
sbatp9704
Rp9705
(dp9706
g16
g314
sbag5
(g6
g7
(lp9707
g135
atp9708
Rp9709
(dp9710
g16
g135
sbag5
(g6
g7
(lp9711
Vand
p9712
atp9713
Rp9714
(dp9715
g16
VCC
p9716
sbag5
(g6
g7
(lp9717
g5
(g6
g7
(lp9718
g5
(g6
g7
(lp9719
Vthe
p9720
atp9721
Rp9722
(dp9723
g16
VDT
p9724
sbag5
(g6
g7
(lp9725
Vparticle
p9726
atp9727
Rp9728
(dp9729
g16
VNN
p9730
sbag5
(g6
g7
(lp9731
Vfilter
p9732
atp9733
Rp9734
(dp9735
g16
VNN
p9736
sbatp9737
Rp9738
(dp9739
g16
VNP
p9740
sbag5
(g6
g7
(lp9741
g5
(g6
g7
(lp9742
Vis
p9743
atp9744
Rp9745
(dp9746
g16
VVBZ
p9747
sbag5
(g6
g7
(lp9748
g5
(g6
g7
(lp9749
Vstarted
p9750
atp9751
Rp9752
(dp9753
g16
VVBN
p9754
sbag5
(g6
g7
(lp9755
g5
(g6
g7
(lp9756
Vfrom
p9757
atp9758
Rp9759
(dp9760
g16
VIN
p9761
sbag5
(g6
g7
(lp9762
g5
(g6
g7
(lp9763
g5
(g6
g7
(lp9764
Vthe
p9765
atp9766
Rp9767
(dp9768
g16
VDT
p9769
sbag5
(g6
g7
(lp9770
Vmodel
p9771
atp9772
Rp9773
(dp9774
g16
VNN
p9775
sbatp9776
Rp9777
(dp9778
g16
VNP
p9779
sbag5
(g6
g7
(lp9780
g5
(g6
g7
(lp9781
Vout
p9782
atp9783
Rp9784
(dp9785
g16
VRB
p9786
sbag5
(g6
g7
(lp9787
Vof
p9788
atp9789
Rp9790
(dp9791
g16
VIN
p9792
sbag5
(g6
g7
(lp9793
g5
(g6
g7
(lp9794
Vthese
p9795
atp9796
Rp9797
(dp9798
g16
VDT
p9799
sbag5
(g6
g7
(lp9800
V20
p9801
atp9802
Rp9803
(dp9804
g16
VCD
p9805
sbatp9806
Rp9807
(dp9808
g16
VNP
p9809
sbatp9810
Rp9811
(dp9812
g16
VPP
p9813
sbatp9814
Rp9815
(dp9816
g16
VNP
p9817
sbatp9818
Rp9819
(dp9820
g16
VPP
p9821
sbag5
(g6
g7
(lp9822
g5
(g6
g7
(lp9823
Vwith
p9824
atp9825
Rp9826
(dp9827
g16
VIN
p9828
sbag5
(g6
g7
(lp9829
g5
(g6
g7
(lp9830
Vthe
p9831
atp9832
Rp9833
(dp9834
g16
VDT
p9835
sbag5
(g6
g7
(lp9836
Vlowest
p9837
atp9838
Rp9839
(dp9840
g16
VJJS
p9841
sbag5
(g6
g7
(lp9842
Vheld-out
p9843
atp9844
Rp9845
(dp9846
g16
VJJ
p9847
sbag5
(g6
g7
(lp9848
Vperplexity
p9849
atp9850
Rp9851
(dp9852
g16
VNN
p9853
sbatp9854
Rp9855
(dp9856
g16
VNP
p9857
sbatp9858
Rp9859
(dp9860
g16
VPP
p9861
sbatp9862
Rp9863
(dp9864
g16
VVP
p9865
sbatp9866
Rp9867
(dp9868
g16
VVP
p9869
sbatp9870
Rp9871
(dp9872
g16
g314
sbatp9873
Rp9874
(dp9875
g16
g314
sbatp9876
Rp9877
(dp9878
g16
VROOT
p9879
sbasg331
(icmyPackage
CorE
p9880
(dp9881
g334
(lp9882
(I0
I0
tp9883
a(I0
I8
tp9884
asg338
g9255
sbsg344
(icmyPackage
CorE
p9885
(dp9886
g334
(lp9887
(I0
I11
tp9888
a(I0
I75
tp9889
asg338
g5
(g6
g7
(lp9890
g9489
ag9493
ag9705
ag9709
ag9714
ag9871
atp9891
Rp9892
(dp9893
g16
g343
sbsbsg350
g7664
sg376
(lp9894
(isxpPackage
sxpSent
p9895
(dp9896
g380
(lp9897
I22
asg382
VWe may not always have labeled data for initialization, so we also consider a variation in which Gibbs initialization is performed 20 times on the first 80% of the initialization sample, held-out perplexity (per word) is estimated on the remaining 20%, using a first-moment particle learning approximation [ 20 ] , and the particle filter is started from the model out of these 20 with the lowest held-out perplexity
p9898
sg384
I6
sg367
I114
sg385
I36
sbasba(icmyPackage
CELink
p9899
(dp9900
g3
(lp9901
g5
(g6
g7
(lp9902
g5
(g6
g7
(lp9903
g5
(g6
g7
(lp9904
g5
(g6
g7
(lp9905
g5
(g6
g7
(lp9906
VThe
p9907
atp9908
Rp9909
(dp9910
g16
VDT
p9911
sbag5
(g6
g7
(lp9912
Vresults
p9913
atp9914
Rp9915
(dp9916
g16
VNNS
p9917
sbatp9918
Rp9919
(dp9920
g16
VNP
p9921
sbag5
(g6
g7
(lp9922
g135
atp9923
Rp9924
(dp9925
g16
g135
sbag5
(g6
g7
(lp9926
g5
(g6
g7
(lp9927
Vshown
p9928
atp9929
Rp9930
(dp9931
g16
VVBN
p9932
sbag5
(g6
g7
(lp9933
g5
(g6
g7
(lp9934
Vin
p9935
atp9936
Rp9937
(dp9938
g16
VIN
p9939
sbag5
(g6
g7
(lp9940
g5
(g6
g7
(lp9941
VFigure
p9942
atp9943
Rp9944
(dp9945
g16
VNNP
p9946
sbag5
(g6
g7
(lp9947
g805
atp9948
Rp9949
(dp9950
g16
VCD
p9951
sbatp9952
Rp9953
(dp9954
g16
VNP
p9955
sbatp9956
Rp9957
(dp9958
g16
VPP
p9959
sbatp9960
Rp9961
(dp9962
g16
VVP
p9963
sbag5
(g6
g7
(lp9964
g135
atp9965
Rp9966
(dp9967
g16
g135
sbatp9968
Rp9969
(dp9970
g16
VNP
p9971
sbag5
(g6
g7
(lp9972
g5
(g6
g7
(lp9973
Vshow
p9974
atp9975
Rp9976
(dp9977
g16
VVBP
p9978
sbag5
(g6
g7
(lp9979
g5
(g6
g7
(lp9980
Vthat
p9981
atp9982
Rp9983
(dp9984
g16
VIN
p9985
sbag5
(g6
g7
(lp9986
g5
(g6
g7
(lp9987
g5
(g6
g7
(lp9988
Vwe
p9989
atp9990
Rp9991
(dp9992
g16
VPRP
p9993
sbatp9994
Rp9995
(dp9996
g16
VNP
p9997
sbag5
(g6
g7
(lp9998
g5
(g6
g7
(lp9999
Vcan
p10000
atp10001
Rp10002
(dp10003
g16
VMD
p10004
sbag5
(g6
g7
(lp10005
g5
(g6
g7
(lp10006
Vameliorate
p10007
atp10008
Rp10009
(dp10010
g16
VVB
p10011
sbag5
(g6
g7
(lp10012
g5
(g6
g7
(lp10013
Vthe
p10014
atp10015
Rp10016
(dp10017
g16
VDT
p10018
sbag5
(g6
g7
(lp10019
Vvariance
p10020
atp10021
Rp10022
(dp10023
g16
VNN
p10024
sbatp10025
Rp10026
(dp10027
g16
VNP
p10028
sbag5
(g6
g7
(lp10029
g5
(g6
g7
(lp10030
g5
(g6
g7
(lp10031
Vdue
p10032
atp10033
Rp10034
(dp10035
g16
VJJ
p10036
sbag5
(g6
g7
(lp10037
g5
(g6
g7
(lp10038
g5
(g6
g7
(lp10039
Vto
p10040
atp10041
Rp10042
(dp10043
g16
VTO
p10044
sbag5
(g6
g7
(lp10045
g5
(g6
g7
(lp10046
Vinitialization
p10047
atp10048
Rp10049
(dp10050
g16
VVB
p10051
sbag5
(g6
g7
(lp10052
g5
(g6
g7
(lp10053
Vby
p10054
atp10055
Rp10056
(dp10057
g16
VIN
p10058
sbag5
(g6
g7
(lp10059
g5
(g6
g7
(lp10060
g5
(g6
g7
(lp10061
Vtuning
p10062
atp10063
Rp10064
(dp10065
g16
VVBG
p10066
sbag5
(g6
g7
(lp10067
g5
(g6
g7
(lp10068
Vthe
p10069
atp10070
Rp10071
(dp10072
g16
VDT
p10073
sbag5
(g6
g7
(lp10074
Vinitial
p10075
atp10076
Rp10077
(dp10078
g16
VJJ
p10079
sbag5
(g6
g7
(lp10080
Vmodel
p10081
atp10082
Rp10083
(dp10084
g16
VNN
p10085
sbatp10086
Rp10087
(dp10088
g16
VNP
p10089
sbag5
(g6
g7
(lp10090
g5
(g6
g7
(lp10091
Vto
p10092
atp10093
Rp10094
(dp10095
g16
VTO
p10096
sbag5
(g6
g7
(lp10097
g5
(g6
g7
(lp10098
VNMI
p10099
atp10100
Rp10101
(dp10102
g16
VNNP
p10103
sbatp10104
Rp10105
(dp10106
g16
VNP
p10107
sbatp10108
Rp10109
(dp10110
g16
VPP
p10111
sbatp10112
Rp10113
(dp10114
g16
VVP
p10115
sbatp10116
Rp10117
(dp10118
g16
g314
sbatp10119
Rp10120
(dp10121
g16
VPP
p10122
sbatp10123
Rp10124
(dp10125
g16
VVP
p10126
sbatp10127
Rp10128
(dp10129
g16
VVP
p10130
sbatp10131
Rp10132
(dp10133
g16
g314
sbatp10134
Rp10135
(dp10136
g16
VADJP
p10137
sbag5
(g6
g7
(lp10138
Vor
p10139
atp10140
Rp10141
(dp10142
g16
VCC
p10143
sbag5
(g6
g7
(lp10144
g5
(g6
g7
(lp10145
Vperplexity
p10146
atp10147
Rp10148
(dp10149
g16
VRB
p10150
sbatp10151
Rp10152
(dp10153
g16
VADVP
p10154
sbatp10155
Rp10156
(dp10157
g16
VUCP
p10158
sbatp10159
Rp10160
(dp10161
g16
VVP
p10162
sbatp10163
Rp10164
(dp10165
g16
VVP
p10166
sbatp10167
Rp10168
(dp10169
g16
g314
sbatp10170
Rp10171
(dp10172
g16
VSBAR
p10173
sbatp10174
Rp10175
(dp10176
g16
VVP
p10177
sbatp10178
Rp10179
(dp10180
g16
g314
sbatp10181
Rp10182
(dp10183
g16
VROOT
p10184
sbasg331
(icmyPackage
CorE
p10185
(dp10186
g334
(lp10187
(I0
I19
tp10188
a(I0
I24
tp10189
asg338
g10117
sbsg344
(icmyPackage
CorE
p10190
(dp10191
g334
(lp10192
(I0
I0
tp10193
a(I0
I17
tp10194
asg338
g5
(g6
g7
(lp10195
g9969
ag9976
ag9983
ag9995
ag10002
ag10009
ag10026
ag10034
ag10042
ag10049
atp10196
Rp10197
(dp10198
g16
g343
sbsbsg350
g1083
sg376
(lp10199
(isxpPackage
sxpSent
p10200
(dp10201
g380
(lp10202
I23
asg382
VThe results, shown in Figure 3 , show that we can ameliorate the variance due to initialization by tuning the initial model to NMI or perplexity
p10203
sg384
I6
sg367
I115
sg385
I36
sbasba(icmyPackage
CELink
p10204
(dp10205
g3
(lp10206
g5
(g6
g7
(lp10207
g5
(g6
g7
(lp10208
g5
(g6
g7
(lp10209
g5
(g6
g7
(lp10210
VThey
p10211
atp10212
Rp10213
(dp10214
g16
VPRP
p10215
sbatp10216
Rp10217
(dp10218
g16
VNP
p10219
sbag5
(g6
g7
(lp10220
g5
(g6
g7
(lp10221
g5
(g6
g7
(lp10222
Vlater
p10223
atp10224
Rp10225
(dp10226
g16
VRB
p10227
sbatp10228
Rp10229
(dp10230
g16
VADVP
p10231
sbag5
(g6
g7
(lp10232
Vshowed
p10233
atp10234
Rp10235
(dp10236
g16
VVBD
p10237
sbag5
(g6
g7
(lp10238
g5
(g6
g7
(lp10239
Vthat
p10240
atp10241
Rp10242
(dp10243
g16
VIN
p10244
sbag5
(g6
g7
(lp10245
g5
(g6
g7
(lp10246
g5
(g6
g7
(lp10247
Vrejuvenation
p10248
atp10249
Rp10250
(dp10251
g16
VNN
p10252
sbag5
(g6
g7
(lp10253
Vimproved
p10254
atp10255
Rp10256
(dp10257
g16
VJJ
p10258
sbag5
(g6
g7
(lp10259
Vperformance
p10260
atp10261
Rp10262
(dp10263
g16
VNN
p10264
sbatp10265
Rp10266
(dp10267
g16
VNP
p10268
sbag5
(g6
g7
(lp10269
g5
(g6
g7
(lp10270
V-LSB-
p10271
atp10272
Rp10273
(dp10274
g16
VVBD
p10275
sbag5
(g6
g7
(lp10276
g5
(g6
g7
(lp10277
g5
(g6
g7
(lp10278
g713
atp10279
Rp10280
(dp10281
g16
VCD
p10282
sbag5
(g6
g7
(lp10283
V-RSB-
p10284
atp10285
Rp10286
(dp10287
g16
VNNS
p10288
sbatp10289
Rp10290
(dp10291
g16
VNP
p10292
sbag5
(g6
g7
(lp10293
g135
atp10294
Rp10295
(dp10296
g16
g135
sbag5
(g6
g7
(lp10297
Vbut
p10298
atp10299
Rp10300
(dp10301
g16
VCC
p10302
sbag5
(g6
g7
(lp10303
g5
(g6
g7
(lp10304
Vthis
p10305
atp10306
Rp10307
(dp10308
g16
VDT
p10309
sbag5
(g6
g7
(lp10310
g5
(g6
g7
(lp10311
Vimpaired
p10312
atp10313
Rp10314
(dp10315
g16
VJJ
p10316
sbag5
(g6
g7
(lp10317
Vcognitive
p10318
atp10319
Rp10320
(dp10321
g16
VJJ
p10322
sbatp10323
Rp10324
(dp10325
g16
VADJP
p10326
sbag5
(g6
g7
(lp10327
Vplausibility
p10328
atp10329
Rp10330
(dp10331
g16
VNN
p10332
sbatp10333
Rp10334
(dp10335
g16
VNP
p10336
sbatp10337
Rp10338
(dp10339
g16
VNP
p10340
sbag5
(g6
g7
(lp10341
g5
(g6
g7
(lp10342
Vby
p10343
atp10344
Rp10345
(dp10346
g16
VIN
p10347
sbag5
(g6
g7
(lp10348
g5
(g6
g7
(lp10349
g5
(g6
g7
(lp10350
Vnecessitating
p10351
atp10352
Rp10353
(dp10354
g16
VVBG
p10355
sbag5
(g6
g7
(lp10356
g5
(g6
g7
(lp10357
g5
(g6
g7
(lp10358
Vstorage
p10359
atp10360
Rp10361
(dp10362
g16
VNN
p10363
sbatp10364
Rp10365
(dp10366
g16
VNP
p10367
sbag5
(g6
g7
(lp10368
g5
(g6
g7
(lp10369
Vof
p10370
atp10371
Rp10372
(dp10373
g16
VIN
p10374
sbag5
(g6
g7
(lp10375
g5
(g6
g7
(lp10376
Vall
p10377
atp10378
Rp10379
(dp10380
g16
VDT
p10381
sbag5
(g6
g7
(lp10382
Vprevious
p10383
atp10384
Rp10385
(dp10386
g16
VJJ
p10387
sbag5
(g6
g7
(lp10388
Vstates
p10389
atp10390
Rp10391
(dp10392
g16
VNNS
p10393
sbag5
(g6
g7
(lp10394
Vand
p10395
atp10396
Rp10397
(dp10398
g16
VCC
p10399
sbag5
(g6
g7
(lp10400
Vobservations
p10401
atp10402
Rp10403
(dp10404
g16
VNNS
p10405
sbatp10406
Rp10407
(dp10408
g16
VNP
p10409
sbatp10410
Rp10411
(dp10412
g16
VPP
p10413
sbatp10414
Rp10415
(dp10416
g16
VNP
p10417
sbatp10418
Rp10419
(dp10420
g16
VVP
p10421
sbatp10422
Rp10423
(dp10424
g16
g314
sbatp10425
Rp10426
(dp10427
g16
VPP
p10428
sbatp10429
Rp10430
(dp10431
g16
VVP
p10432
sbatp10433
Rp10434
(dp10435
g16
g314
sbatp10436
Rp10437
(dp10438
g16
VSBAR
p10439
sbatp10440
Rp10441
(dp10442
g16
VVP
p10443
sbatp10444
Rp10445
(dp10446
g16
g314
sbatp10447
Rp10448
(dp10449
g16
VROOT
p10450
sbasg331
(icmyPackage
CorE
p10451
(dp10452
g334
(lp10453
(I0
I17
tp10454
a(I0
I24
tp10455
asg338
g10423
sbsg344
(icmyPackage
CorE
p10456
(dp10457
g334
(lp10458
(I0
I0
tp10459
a(I0
I15
tp10460
asg338
g5
(g6
g7
(lp10461
g10217
ag10229
ag10235
ag10242
ag10266
ag10273
ag10338
atp10462
Rp10463
(dp10464
g16
g343
sbsbsg350
g1083
sg376
(lp10465
(isxpPackage
sxpSent
p10466
(dp10467
g380
(lp10468
I24
asg382
VThey later showed that rejuvenation improved performance [ 6 ] , but this impaired cognitive plausibility by necessitating storage of all previous states and observations
p10469
sg384
I10
sg367
I118
sg385
I37
sbasba(icmyPackage
CELink
p10470
(dp10471
g3
(lp10472
g5
(g6
g7
(lp10473
g5
(g6
g7
(lp10474
g5
(g6
g7
(lp10475
g5
(g6
g7
(lp10476
g5
(g6
g7
(lp10477
g5
(g6
g7
(lp10478
VWe
p10479
atp10480
Rp10481
(dp10482
g16
VPRP
p10483
sbatp10484
Rp10485
(dp10486
g16
VNP
p10487
sbag5
(g6
g7
(lp10488
g5
(g6
g7
(lp10489
Vattempted
p10490
atp10491
Rp10492
(dp10493
g16
VVBD
p10494
sbag5
(g6
g7
(lp10495
g5
(g6
g7
(lp10496
g5
(g6
g7
(lp10497
Vto
p10498
atp10499
Rp10500
(dp10501
g16
VTO
p10502
sbag5
(g6
g7
(lp10503
g5
(g6
g7
(lp10504
Vcorrect
p10505
atp10506
Rp10507
(dp10508
g16
VVB
p10509
sbag5
(g6
g7
(lp10510
g5
(g6
g7
(lp10511
Vthis
p10512
atp10513
Rp10514
(dp10515
g16
VDT
p10516
sbatp10517
Rp10518
(dp10519
g16
VNP
p10520
sbag5
(g6
g7
(lp10521
g5
(g6
g7
(lp10522
Vby
p10523
atp10524
Rp10525
(dp10526
g16
VIN
p10527
sbag5
(g6
g7
(lp10528
g5
(g6
g7
(lp10529
g5
(g6
g7
(lp10530
Vdrawing
p10531
atp10532
Rp10533
(dp10534
g16
VVBG
p10535
sbag5
(g6
g7
(lp10536
g5
(g6
g7
(lp10537
Vthe
p10538
atp10539
Rp10540
(dp10541
g16
VDT
p10542
sbag5
(g6
g7
(lp10543
Vrejuvenation
p10544
atp10545
Rp10546
(dp10547
g16
VNN
p10548
sbag5
(g6
g7
(lp10549
Vsequence
p10550
atp10551
Rp10552
(dp10553
g16
VNN
p10554
sbatp10555
Rp10556
(dp10557
g16
VNP
p10558
sbag5
(g6
g7
(lp10559
g5
(g6
g7
(lp10560
Vfrom
p10561
atp10562
Rp10563
(dp10564
g16
VIN
p10565
sbag5
(g6
g7
(lp10566
g5
(g6
g7
(lp10567
g34
atp10568
Rp10569
(dp10570
g16
VDT
p10571
sbag5
(g6
g7
(lp10572
Vreservoir
p10573
atp10574
Rp10575
(dp10576
g16
VNN
p10577
sbatp10578
Rp10579
(dp10580
g16
VNP
p10581
sbatp10582
Rp10583
(dp10584
g16
VPP
p10585
sbatp10586
Rp10587
(dp10588
g16
VVP
p10589
sbatp10590
Rp10591
(dp10592
g16
g314
sbatp10593
Rp10594
(dp10595
g16
VPP
p10596
sbatp10597
Rp10598
(dp10599
g16
VVP
p10600
sbatp10601
Rp10602
(dp10603
g16
VVP
p10604
sbatp10605
Rp10606
(dp10607
g16
g314
sbatp10608
Rp10609
(dp10610
g16
VVP
p10611
sbatp10612
Rp10613
(dp10614
g16
g314
sbag5
(g6
g7
(lp10615
g135
atp10616
Rp10617
(dp10618
g16
g135
sbag5
(g6
g7
(lp10619
Vbut
p10620
atp10621
Rp10622
(dp10623
g16
VCC
p10624
sbag5
(g6
g7
(lp10625
g5
(g6
g7
(lp10626
g5
(g6
g7
(lp10627
Vour
p10628
atp10629
Rp10630
(dp10631
g16
VPRP$
p10632
sbag5
(g6
g7
(lp10633
Vresults
p10634
atp10635
Rp10636
(dp10637
g16
VNNS
p10638
sbatp10639
Rp10640
(dp10641
g16
VNP
p10642
sbag5
(g6
g7
(lp10643
g5
(g6
g7
(lp10644
g5
(g6
g7
(lp10645
Vindicate
p10646
atp10647
Rp10648
(dp10649
g16
VVBP
p10650
sbag5
(g6
g7
(lp10651
g5
(g6
g7
(lp10652
Vthat
p10653
atp10654
Rp10655
(dp10656
g16
VIN
p10657
sbag5
(g6
g7
(lp10658
g5
(g6
g7
(lp10659
g5
(g6
g7
(lp10660
g5
(g6
g7
(lp10661
Vthe
p10662
atp10663
Rp10664
(dp10665
g16
VDT
p10666
sbag5
(g6
g7
(lp10667
Vparticle
p10668
atp10669
Rp10670
(dp10671
g16
VNN
p10672
sbag5
(g6
g7
(lp10673
Vfilter
p10674
atp10675
Rp10676
(dp10677
g16
VNN
p10678
sbatp10679
Rp10680
(dp10681
g16
VNP
p10682
sbag5
(g6
g7
(lp10683
g5
(g6
g7
(lp10684
Vfor
p10685
atp10686
Rp10687
(dp10688
g16
VIN
p10689
sbag5
(g6
g7
(lp10690
g5
(g6
g7
(lp10691
g5
(g6
g7
(lp10692
VLDA
p10693
atp10694
Rp10695
(dp10696
g16
VNNP
p10697
sbatp10698
Rp10699
(dp10700
g16
VNP
p10701
sbag5
(g6
g7
(lp10702
g5
(g6
g7
(lp10703
Von
p10704
atp10705
Rp10706
(dp10707
g16
VIN
p10708
sbag5
(g6
g7
(lp10709
g5
(g6
g7
(lp10710
Vour
p10711
atp10712
Rp10713
(dp10714
g16
VPRP$
p10715
sbag5
(g6
g7
(lp10716
Vdataset
p10717
atp10718
Rp10719
(dp10720
g16
VNN
p10721
sbatp10722
Rp10723
(dp10724
g16
VNP
p10725
sbatp10726
Rp10727
(dp10728
g16
VPP
p10729
sbatp10730
Rp10731
(dp10732
g16
VNP
p10733
sbatp10734
Rp10735
(dp10736
g16
VPP
p10737
sbatp10738
Rp10739
(dp10740
g16
VNP
p10741
sbag5
(g6
g7
(lp10742
g5
(g6
g7
(lp10743
Vis
p10744
atp10745
Rp10746
(dp10747
g16
VVBZ
p10748
sbag5
(g6
g7
(lp10749
g5
(g6
g7
(lp10750
Vhighly
p10751
atp10752
Rp10753
(dp10754
g16
VRB
p10755
sbag5
(g6
g7
(lp10756
Vsensitive
p10757
atp10758
Rp10759
(dp10760
g16
VJJ
p10761
sbag5
(g6
g7
(lp10762
g5
(g6
g7
(lp10763
Vto
p10764
atp10765
Rp10766
(dp10767
g16
VTO
p10768
sbag5
(g6
g7
(lp10769
g5
(g6
g7
(lp10770
Vinitialization
p10771
atp10772
Rp10773
(dp10774
g16
VNN
p10775
sbatp10776
Rp10777
(dp10778
g16
VNP
p10779
sbatp10780
Rp10781
(dp10782
g16
VPP
p10783
sbatp10784
Rp10785
(dp10786
g16
VADJP
p10787
sbatp10788
Rp10789
(dp10790
g16
VVP
p10791
sbatp10792
Rp10793
(dp10794
g16
g314
sbatp10795
Rp10796
(dp10797
g16
VSBAR
p10798
sbatp10799
Rp10800
(dp10801
g16
VVP
p10802
sbag5
(g6
g7
(lp10803
Vand
p10804
atp10805
Rp10806
(dp10807
g16
VCC
p10808
sbag5
(g6
g7
(lp10809
Vnot
p10810
atp10811
Rp10812
(dp10813
g16
VRB
p10814
sbag5
(g6
g7
(lp10815
g5
(g6
g7
(lp10816
Vinfluenced
p10817
atp10818
Rp10819
(dp10820
g16
VVBD
p10821
sbag5
(g6
g7
(lp10822
g5
(g6
g7
(lp10823
Vby
p10824
atp10825
Rp10826
(dp10827
g16
VIN
p10828
sbag5
(g6
g7
(lp10829
g5
(g6
g7
(lp10830
Vrejuvenation
p10831
atp10832
Rp10833
(dp10834
g16
VNN
p10835
sbatp10836
Rp10837
(dp10838
g16
VNP
p10839
sbatp10840
Rp10841
(dp10842
g16
VPP
p10843
sbatp10844
Rp10845
(dp10846
g16
VVP
p10847
sbatp10848
Rp10849
(dp10850
g16
VVP
p10851
sbatp10852
Rp10853
(dp10854
g16
g314
sbatp10855
Rp10856
(dp10857
g16
g314
sbatp10858
Rp10859
(dp10860
g16
VFRAG
p10861
sbatp10862
Rp10863
(dp10864
g16
VROOT
p10865
sbasg331
(icmyPackage
CorE
p10866
(dp10867
g334
(lp10868
(I0
I6
tp10869
a(I0
I12
tp10870
asg338
g10591
sbsg344
(icmyPackage
CorE
p10871
(dp10872
g334
(lp10873
(I0
I13
tp10874
a(I0
I36
tp10875
asg338
g5
(g6
g7
(lp10876
g10617
ag10622
ag10853
atp10877
Rp10878
(dp10879
g16
g343
sbsbsg350
g3296
sg376
(lp10880
(isxpPackage
sxpSent
p10881
(dp10882
g380
(lp10883
I25
asg382
VWe attempted to correct this by drawing the rejuvenation sequence from a reservoir, but our results indicate that the particle filter for LDA on our dataset is highly sensitive to initialization and not influenced by rejuvenation
p10884
sg384
I10
sg367
I119
sg385
I37
sbasba(icmyPackage
CELink
p10885
(dp10886
g3
(lp10887
g5
(g6
g7
(lp10888
g5
(g6
g7
(lp10889
g5
(g6
g7
(lp10890
g5
(g6
g7
(lp10891
g5
(g6
g7
(lp10892
VIn
p10893
atp10894
Rp10895
(dp10896
g16
VIN
p10897
sbag5
(g6
g7
(lp10898
g5
(g6
g7
(lp10899
g5
(g6
g7
(lp10900
g5
(g6
g7
(lp10901
Vthe
p10902
atp10903
Rp10904
(dp10905
g16
VDT
p10906
sbag5
(g6
g7
(lp10907
Vexperiments
p10908
atp10909
Rp10910
(dp10911
g16
VNNS
p10912
sbatp10913
Rp10914
(dp10915
g16
VNP
p10916
sbag5
(g6
g7
(lp10917
g5
(g6
g7
(lp10918
Vof
p10919
atp10920
Rp10921
(dp10922
g16
VIN
p10923
sbag5
(g6
g7
(lp10924
g5
(g6
g7
(lp10925
VB
p10926
atp10927
Rp10928
(dp10929
g16
VNNP
p10930
sbag5
(g6
g7
(lp10931
Vrschinger
p10932
atp10933
Rp10934
(dp10935
g16
VNN
p10936
sbatp10937
Rp10938
(dp10939
g16
VNP
p10940
sbatp10941
Rp10942
(dp10943
g16
VPP
p10944
sbatp10945
Rp10946
(dp10947
g16
VNP
p10948
sbag5
(g6
g7
(lp10949
Vand
p10950
atp10951
Rp10952
(dp10953
g16
VCC
p10954
sbag5
(g6
g7
(lp10955
g5
(g6
g7
(lp10956
g5
(g6
g7
(lp10957
VJohnson
p10958
atp10959
Rp10960
(dp10961
g16
VNNP
p10962
sbatp10963
Rp10964
(dp10965
g16
VNP
p10966
sbag5
(g6
g7
(lp10967
g5
(g6
g7
(lp10968
V-LRB-
p10969
atp10970
Rp10971
(dp10972
g16
V-LRB-
p10973
sbag5
(g6
g7
(lp10974
g5
(g6
g7
(lp10975
V2012
p10976
atp10977
Rp10978
(dp10979
g16
VCD
p10980
sbatp10981
Rp10982
(dp10983
g16
VNP
p10984
sbag5
(g6
g7
(lp10985
V-RRB-
p10986
atp10987
Rp10988
(dp10989
g16
V-RRB-
p10990
sbatp10991
Rp10992
(dp10993
g16
VPRN
p10994
sbatp10995
Rp10996
(dp10997
g16
VNP
p10998
sbatp10999
Rp11000
(dp11001
g16
VNP
p11002
sbatp11003
Rp11004
(dp11005
g16
VPP
p11006
sbag5
(g6
g7
(lp11007
g135
atp11008
Rp11009
(dp11010
g16
g135
sbag5
(g6
g7
(lp11011
g5
(g6
g7
(lp11012
Vthe
p11013
atp11014
Rp11015
(dp11016
g16
VDT
p11017
sbag5
(g6
g7
(lp11018
Vparticle
p11019
atp11020
Rp11021
(dp11022
g16
VNN
p11023
sbag5
(g6
g7
(lp11024
Vcloud
p11025
atp11026
Rp11027
(dp11028
g16
VNN
p11029
sbatp11030
Rp11031
(dp11032
g16
VNP
p11033
sbag5
(g6
g7
(lp11034
g5
(g6
g7
(lp11035
Vappears
p11036
atp11037
Rp11038
(dp11039
g16
VVBZ
p11040
sbag5
(g6
g7
(lp11041
g5
(g6
g7
(lp11042
g5
(g6
g7
(lp11043
Vto
p11044
atp11045
Rp11046
(dp11047
g16
VTO
p11048
sbag5
(g6
g7
(lp11049
g5
(g6
g7
(lp11050
Vbe
p11051
atp11052
Rp11053
(dp11054
g16
VVB
p11055
sbag5
(g6
g7
(lp11056
g5
(g6
g7
(lp11057
Vresampled
p11058
atp11059
Rp11060
(dp11061
g16
VVBN
p11062
sbag5
(g6
g7
(lp11063
g5
(g6
g7
(lp11064
Vonce
p11065
atp11066
Rp11067
(dp11068
g16
VRB
p11069
sbatp11070
Rp11071
(dp11072
g16
VADVP
p11073
sbag5
(g6
g7
(lp11074
g5
(g6
g7
(lp11075
Vper
p11076
atp11077
Rp11078
(dp11079
g16
VIN
p11080
sbag5
(g6
g7
(lp11081
g5
(g6
g7
(lp11082
Vutterance
p11083
atp11084
Rp11085
(dp11086
g16
VNN
p11087
sbatp11088
Rp11089
(dp11090
g16
VNP
p11091
sbatp11092
Rp11093
(dp11094
g16
VPP
p11095
sbag5
(g6
g7
(lp11096
g5
(g6
g7
(lp11097
Vwith
p11098
atp11099
Rp11100
(dp11101
g16
VIN
p11102
sbag5
(g6
g7
(lp11103
g5
(g6
g7
(lp11104
g34
atp11105
Rp11106
(dp11107
g16
VDT
p11108
sbag5
(g6
g7
(lp11109
Vlarge
p11110
atp11111
Rp11112
(dp11113
g16
VJJ
p11114
sbag5
(g6
g7
(lp11115
Vrejuvenation
p11116
atp11117
Rp11118
(dp11119
g16
VNN
p11120
sbag5
(g6
g7
(lp11121
Vsequence
p11122
atp11123
Rp11124
(dp11125
g16
VNN
p11126
sbatp11127
Rp11128
(dp11129
g16
VNP
p11130
sbatp11131
Rp11132
(dp11133
g16
VPP
p11134
sbatp11135
Rp11136
(dp11137
g16
VVP
p11138
sbatp11139
Rp11140
(dp11141
g16
VVP
p11142
sbatp11143
Rp11144
(dp11145
g16
VVP
p11146
sbatp11147
Rp11148
(dp11149
g16
g314
sbatp11150
Rp11151
(dp11152
g16
VVP
p11153
sbatp11154
Rp11155
(dp11156
g16
g314
sbag5
(g6
g7
(lp11157
V;
p11158
atp11159
Rp11160
(dp11161
g16
g2688
sbag5
(g6
g7
(lp11162
g5
(g6
g7
(lp11163
g5
(g6
g7
(lp11164
g5
(g6
g7
(lp11165
g1324
atp11166
Rp11167
(dp11168
g16
VCD
p11169
sbag5
(g6
g7
(lp11170
g1324
atp11171
Rp11172
(dp11173
g16
VCD
p11174
sbatp11175
Rp11176
(dp11177
g16
VQP
p11178
sbag5
(g6
g7
(lp11179
VThe
p11180
atp11181
Rp11182
(dp11183
g16
VDT
p11184
sbag5
(g6
g7
(lp11185
VESS
p11186
atp11187
Rp11188
(dp11189
g16
VNNP
p11190
sbag5
(g6
g7
(lp11191
Vthreshold
p11192
atp11193
Rp11194
(dp11195
g16
VNN
p11196
sbatp11197
Rp11198
(dp11199
g16
VNP
p11200
sbag5
(g6
g7
(lp11201
g5
(g6
g7
(lp11202
Vis
p11203
atp11204
Rp11205
(dp11206
g16
VVBZ
p11207
sbag5
(g6
g7
(lp11208
g5
(g6
g7
(lp11209
g5
(g6
g7
(lp11210
VP
p11211
atp11212
Rp11213
(dp11214
g16
VNNP
p11215
sbatp11216
Rp11217
(dp11218
g16
VNP
p11219
sbag5
(g6
g7
(lp11220
g11158
atp11221
Rp11222
(dp11223
g16
g2688
sbag5
(g6
g7
(lp11224
g5
(g6
g7
(lp11225
g5
(g6
g7
(lp11226
Vthe
p11227
atp11228
Rp11229
(dp11230
g16
VDT
p11231
sbag5
(g6
g7
(lp11232
Vrejuvenation
p11233
atp11234
Rp11235
(dp11236
g16
VNN
p11237
sbag5
(g6
g7
(lp11238
Vsequence
p11239
atp11240
Rp11241
(dp11242
g16
VNN
p11243
sbatp11244
Rp11245
(dp11246
g16
VNP
p11247
sbag5
(g6
g7
(lp11248
g5
(g6
g7
(lp11249
Vis
p11250
atp11251
Rp11252
(dp11253
g16
VVBZ
p11254
sbag5
(g6
g7
(lp11255
g5
(g6
g7
(lp11256
g5
(g6
g7
(lp11257
g5
(g6
g7
(lp11258
V100
p11259
atp11260
Rp11261
(dp11262
g16
VCD
p11263
sbag5
(g6
g7
(lp11264
Vor
p11265
atp11266
Rp11267
(dp11268
g16
VCC
p11269
sbag5
(g6
g7
(lp11270
V1600
p11271
atp11272
Rp11273
(dp11274
g16
VCD
p11275
sbatp11276
Rp11277
(dp11278
g16
VQP
p11279
sbag5
(g6
g7
(lp11280
Vutterances
p11281
atp11282
Rp11283
(dp11284
g16
VNNS
p11285
sbatp11286
Rp11287
(dp11288
g16
VNP
p11289
sbag5
(g6
g7
(lp11290
g135
atp11291
Rp11292
(dp11293
g16
g135
sbag5
(g6
g7
(lp11294
g5
(g6
g7
(lp11295
g5
(g6
g7
(lp11296
Valmost
p11297
atp11298
Rp11299
(dp11300
g16
VRB
p11301
sbag5
(g6
g7
(lp11302
Vone
p11303
atp11304
Rp11305
(dp11306
g16
VCD
p11307
sbag5
(g6
g7
(lp11308
Vsixth
p11309
atp11310
Rp11311
(dp11312
g16
VNN
p11313
sbatp11314
Rp11315
(dp11316
g16
VNP
p11317
sbag5
(g6
g7
(lp11318
g5
(g6
g7
(lp11319
Vof
p11320
atp11321
Rp11322
(dp11323
g16
VIN
p11324
sbag5
(g6
g7
(lp11325
g5
(g6
g7
(lp11326
g5
(g6
g7
(lp11327
Vthe
p11328
atp11329
Rp11330
(dp11331
g16
VDT
p11332
sbag5
(g6
g7
(lp11333
Vtraining
p11334
atp11335
Rp11336
(dp11337
g16
VNN
p11338
sbag5
(g6
g7
(lp11339
Vdata
p11340
atp11341
Rp11342
(dp11343
g16
VNNS
p11344
sbatp11345
Rp11346
(dp11347
g16
VNP
p11348
sbag5
(g6
g7
(lp11349
g5
(g6
g7
(lp11350
g5
(g6
g7
(lp11351
g5
(g6
g7
(lp11352
Veach
p11353
atp11354
Rp11355
(dp11356
g16
VDT
p11357
sbag5
(g6
g7
(lp11358
Vparticle
p11359
atp11360
Rp11361
(dp11362
g16
VNN
p11363
sbatp11364
Rp11365
(dp11366
g16
VNP
p11367
sbag5
(g6
g7
(lp11368
g5
(g6
g7
(lp11369
g5
(g6
g7
(lp11370
Vtakes
p11371
atp11372
Rp11373
(dp11374
g16
VVBZ
p11375
sbag5
(g6
g7
(lp11376
g5
(g6
g7
(lp11377
g5
(g6
g7
(lp11378
Vmany
p11379
atp11380
Rp11381
(dp11382
g16
VRB
p11383
sbag5
(g6
g7
(lp11384
Vmore
p11385
atp11386
Rp11387
(dp11388
g16
VJJR
p11389
sbatp11390
Rp11391
(dp11392
g16
VADJP
p11393
sbag5
(g6
g7
(lp11394
Vrejuvenation
p11395
atp11396
Rp11397
(dp11398
g16
VNN
p11399
sbag5
(g6
g7
(lp11400
VMCMC
p11401
atp11402
Rp11403
(dp11404
g16
VNN
p11405
sbag5
(g6
g7
(lp11406
Vsteps
p11407
atp11408
Rp11409
(dp11410
g16
VNNS
p11411
sbatp11412
Rp11413
(dp11414
g16
VNP
p11415
sbag5
(g6
g7
(lp11416
g5
(g6
g7
(lp11417
Vthan
p11418
atp11419
Rp11420
(dp11421
g16
VIN
p11422
sbag5
(g6
g7
(lp11423
g5
(g6
g7
(lp11424
Vnew
p11425
atp11426
Rp11427
(dp11428
g16
VJJ
p11429
sbag5
(g6
g7
(lp11430
Vstate
p11431
atp11432
Rp11433
(dp11434
g16
VNN
p11435
sbag5
(g6
g7
(lp11436
Vtransitions
p11437
atp11438
Rp11439
(dp11440
g16
VNNS
p11441
sbatp11442
Rp11443
(dp11444
g16
VNP
p11445
sbatp11446
Rp11447
(dp11448
g16
VPP
p11449
sbatp11450
Rp11451
(dp11452
g16
VVP
p11453
sbag5
(g6
g7
(lp11454
Vand
p11455
atp11456
Rp11457
(dp11458
g16
VCC
p11459
sbag5
(g6
g7
(lp11460
g5
(g6
g7
(lp11461
g5
(g6
g7
(lp11462
Vthus
p11463
atp11464
Rp11465
(dp11466
g16
VRB
p11467
sbatp11468
Rp11469
(dp11470
g16
VADVP
p11471
sbag5
(g6
g7
(lp11472
Vresembles
p11473
atp11474
Rp11475
(dp11476
g16
VVBZ
p11477
sbag5
(g6
g7
(lp11478
g5
(g6
g7
(lp11479
g34
atp11480
Rp11481
(dp11482
g16
VDT
p11483
sbag5
(g6
g7
(lp11484
Vbatch
p11485
atp11486
Rp11487
(dp11488
g16
VNN
p11489
sbag5
(g6
g7
(lp11490
VMCMC
p11491
atp11492
Rp11493
(dp11494
g16
VNN
p11495
sbag5
(g6
g7
(lp11496
Vsampler
p11497
atp11498
Rp11499
(dp11500
g16
VNN
p11501
sbatp11502
Rp11503
(dp11504
g16
VNP
p11505
sbatp11506
Rp11507
(dp11508
g16
VVP
p11509
sbatp11510
Rp11511
(dp11512
g16
VVP
p11513
sbatp11514
Rp11515
(dp11516
g16
g314
sbatp11517
Rp11518
(dp11519
g16
VSBAR
p11520
sbatp11521
Rp11522
(dp11523
g16
VNP
p11524
sbatp11525
Rp11526
(dp11527
g16
VPP
p11528
sbatp11529
Rp11530
(dp11531
g16
VNP
p11532
sbatp11533
Rp11534
(dp11535
g16
VNP
p11536
sbatp11537
Rp11538
(dp11539
g16
VVP
p11540
sbatp11541
Rp11542
(dp11543
g16
g314
sbatp11544
Rp11545
(dp11546
g16
VNP
p11547
sbatp11548
Rp11549
(dp11550
g16
VVP
p11551
sbatp11552
Rp11553
(dp11554
g16
g314
sbatp11555
Rp11556
(dp11557
g16
g314
sbatp11558
Rp11559
(dp11560
g16
VROOT
p11561
sbasg331
(icmyPackage
CorE
p11562
(dp11563
g334
(lp11564
(I0
I0
tp11565
a(I0
I63
tp11566
asg338
g5
(g6
g7
(lp11567
g11155
ag11160
ag11198
ag11205
ag11217
ag11222
ag11245
ag11252
ag11287
ag11292
ag11315
ag11322
ag11346
ag11365
ag11451
atp11568
Rp11569
(dp11570
g16
g343
sbsbsg344
(icmyPackage
CorE
p11571
(dp11572
g334
(lp11573
(I0
I66
tp11574
a(I0
I70
tp11575
asg338
g5
(g6
g7
(lp11576
g11475
ag11503
atp11577
Rp11578
(dp11579
g16
g343
sbsbsg350
g761
sg376
(lp11580
(isxpPackage
sxpSent
p11581
(dp11582
g380
(lp11583
I26
aI27
asg382
VIn the experiments of Brschinger and Johnson ( 2012 ) , the particle cloud appears to be resampled once per utterance with a large rejuvenation sequence; 4 4 The ESS threshold is P ; the rejuvenation sequence is 100 or 1600 utterances, almost one sixth of the training data each particle takes many more rejuvenation MCMC steps than new state transitions and thus resembles a batch MCMC sampler
p11584
sg384
I10
sg367
I120
sg385
I38
sbasba(icmyPackage
CELink
p11585
(dp11586
g3
(lp11587
g11569
asg331
(icmyPackage
CorE
p11588
(dp11589
g334
(lp11590
(I0
I20
tp11591
a(I0
I35
tp11592
asg338
g5
(g6
g7
(lp11593
g11093
ag11132
ag11160
ag11198
ag11205
ag11217
ag11222
atp11594
Rp11595
(dp11596
g16
g343
sbsbsg344
(icmyPackage
CorE
p11597
(dp11598
g334
(lp11599
(I0
I45
tp11600
a(I0
I63
tp11601
asg338
g5
(g6
g7
(lp11602
g11315
ag11322
ag11346
ag11365
ag11451
atp11603
Rp11604
(dp11605
g16
g343
sbsbsg350
g4395
sg376
(lp11606
g11581
asba(icmyPackage
CELink
p11607
(dp11608
g3
(lp11609
g5
(g6
g7
(lp11610
g5
(g6
g7
(lp11611
g5
(g6
g7
(lp11612
g5
(g6
g7
(lp11613
g5
(g6
g7
(lp11614
VPerplexity
p11615
atp11616
Rp11617
(dp11618
g16
VNNP
p11619
sbatp11620
Rp11621
(dp11622
g16
VNP
p11623
sbag5
(g6
g7
(lp11624
g5
(g6
g7
(lp11625
V-LRB-
p11626
atp11627
Rp11628
(dp11629
g16
V-LRB-
p11630
sbag5
(g6
g7
(lp11631
g5
(g6
g7
(lp11632
g5
(g6
g7
(lp11633
Vor
p11634
atp11635
Rp11636
(dp11637
g16
VCC
p11638
sbag5
(g6
g7
(lp11639
Vlikelihood
p11640
atp11641
Rp11642
(dp11643
g16
VCD
p11644
sbatp11645
Rp11646
(dp11647
g16
VQP
p11648
sbatp11649
Rp11650
(dp11651
g16
VNP
p11652
sbag5
(g6
g7
(lp11653
V-RRB-
p11654
atp11655
Rp11656
(dp11657
g16
V-RRB-
p11658
sbatp11659
Rp11660
(dp11661
g16
VPRN
p11662
sbatp11663
Rp11664
(dp11665
g16
VNP
p11666
sbag5
(g6
g7
(lp11667
g5
(g6
g7
(lp11668
g5
(g6
g7
(lp11669
Vis
p11670
atp11671
Rp11672
(dp11673
g16
VVBZ
p11674
sbag5
(g6
g7
(lp11675
g5
(g6
g7
(lp11676
Voften
p11677
atp11678
Rp11679
(dp11680
g16
VRB
p11681
sbatp11682
Rp11683
(dp11684
g16
VADVP
p11685
sbag5
(g6
g7
(lp11686
g5
(g6
g7
(lp11687
Vused
p11688
atp11689
Rp11690
(dp11691
g16
VVBN
p11692
sbag5
(g6
g7
(lp11693
g5
(g6
g7
(lp11694
g5
(g6
g7
(lp11695
Vto
p11696
atp11697
Rp11698
(dp11699
g16
VTO
p11700
sbag5
(g6
g7
(lp11701
g5
(g6
g7
(lp11702
Vestimate
p11703
atp11704
Rp11705
(dp11706
g16
VVB
p11707
sbag5
(g6
g7
(lp11708
g5
(g6
g7
(lp11709
Vmodel
p11710
atp11711
Rp11712
(dp11713
g16
VNN
p11714
sbag5
(g6
g7
(lp11715
Vperformance
p11716
atp11717
Rp11718
(dp11719
g16
VNN
p11720
sbatp11721
Rp11722
(dp11723
g16
VNP
p11724
sbag5
(g6
g7
(lp11725
g5
(g6
g7
(lp11726
Vin
p11727
atp11728
Rp11729
(dp11730
g16
VIN
p11731
sbag5
(g6
g7
(lp11732
g5
(g6
g7
(lp11733
g5
(g6
g7
(lp11734
VLDA
p11735
atp11736
Rp11737
(dp11738
g16
VNNP
p11739
sbag5
(g6
g7
(lp11740
V-LSB-
p11741
atp11742
Rp11743
(dp11744
g16
VNNP
p11745
sbag5
(g6
g7
(lp11746
g805
atp11747
Rp11748
(dp11749
g16
VCD
p11750
sbag5
(g6
g7
(lp11751
g135
atp11752
Rp11753
(dp11754
g16
g135
sbag5
(g6
g7
(lp11755
V11
p11756
atp11757
Rp11758
(dp11759
g16
VCD
p11760
sbag5
(g6
g7
(lp11761
g135
atp11762
Rp11763
(dp11764
g16
g135
sbag5
(g6
g7
(lp11765
V22
p11766
atp11767
Rp11768
(dp11769
g16
VCD
p11770
sbag5
(g6
g7
(lp11771
g135
atp11772
Rp11773
(dp11774
g16
g135
sbag5
(g6
g7
(lp11775
V12
p11776
atp11777
Rp11778
(dp11779
g16
VCD
p11780
sbatp11781
Rp11782
(dp11783
g16
VNP
p11784
sbag5
(g6
g7
(lp11785
g5
(g6
g7
(lp11786
V-RSB-
p11787
atp11788
Rp11789
(dp11790
g16
VVBN
p11791
sbatp11792
Rp11793
(dp11794
g16
VVP
p11795
sbatp11796
Rp11797
(dp11798
g16
VNP
p11799
sbatp11800
Rp11801
(dp11802
g16
VPP
p11803
sbatp11804
Rp11805
(dp11806
g16
VVP
p11807
sbatp11808
Rp11809
(dp11810
g16
VVP
p11811
sbatp11812
Rp11813
(dp11814
g16
g314
sbatp11815
Rp11816
(dp11817
g16
VVP
p11818
sbatp11819
Rp11820
(dp11821
g16
VVP
p11822
sbag5
(g6
g7
(lp11823
g135
atp11824
Rp11825
(dp11826
g16
g135
sbag5
(g6
g7
(lp11827
Vand
p11828
atp11829
Rp11830
(dp11831
g16
VCC
p11832
sbag5
(g6
g7
(lp11833
g5
(g6
g7
(lp11834
Vdoes
p11835
atp11836
Rp11837
(dp11838
g16
VVBZ
p11839
sbag5
(g6
g7
(lp11840
Vnot
p11841
atp11842
Rp11843
(dp11844
g16
VRB
p11845
sbag5
(g6
g7
(lp11846
g5
(g6
g7
(lp11847
Vcompare
p11848
atp11849
Rp11850
(dp11851
g16
VVB
p11852
sbag5
(g6
g7
(lp11853
g5
(g6
g7
(lp11854
Vthe
p11855
atp11856
Rp11857
(dp11858
g16
VDT
p11859
sbag5
(g6
g7
(lp11860
Vinferred
p11861
atp11862
Rp11863
(dp11864
g16
VJJ
p11865
sbag5
(g6
g7
(lp11866
Vmodel
p11867
atp11868
Rp11869
(dp11870
g16
VNN
p11871
sbatp11872
Rp11873
(dp11874
g16
VNP
p11875
sbag5
(g6
g7
(lp11876
g5
(g6
g7
(lp11877
Vagainst
p11878
atp11879
Rp11880
(dp11881
g16
VIN
p11882
sbag5
(g6
g7
(lp11883
g5
(g6
g7
(lp11884
Vgold-standard
p11885
atp11886
Rp11887
(dp11888
g16
VJJ
p11889
sbag5
(g6
g7
(lp11890
Vlabels
p11891
atp11892
Rp11893
(dp11894
g16
VNNS
p11895
sbatp11896
Rp11897
(dp11898
g16
VNP
p11899
sbatp11900
Rp11901
(dp11902
g16
VPP
p11903
sbag5
(g6
g7
(lp11904
g135
atp11905
Rp11906
(dp11907
g16
g135
sbag5
(g6
g7
(lp11908
g5
(g6
g7
(lp11909
Vyet
p11910
atp11911
Rp11912
(dp11913
g16
VRB
p11914
sbag5
(g6
g7
(lp11915
g5
(g6
g7
(lp11916
g5
(g6
g7
(lp11917
Vit
p11918
atp11919
Rp11920
(dp11921
g16
VPRP
p11922
sbatp11923
Rp11924
(dp11925
g16
VNP
p11926
sbag5
(g6
g7
(lp11927
g5
(g6
g7
(lp11928
Vappears
p11929
atp11930
Rp11931
(dp11932
g16
VVBZ
p11933
sbag5
(g6
g7
(lp11934
g5
(g6
g7
(lp11935
g5
(g6
g7
(lp11936
Vto
p11937
atp11938
Rp11939
(dp11940
g16
VTO
p11941
sbag5
(g6
g7
(lp11942
g5
(g6
g7
(lp11943
Vbe
p11944
atp11945
Rp11946
(dp11947
g16
VVB
p11948
sbag5
(g6
g7
(lp11949
g5
(g6
g7
(lp11950
g5
(g6
g7
(lp11951
g34
atp11952
Rp11953
(dp11954
g16
VDT
p11955
sbag5
(g6
g7
(lp11956
Vgood
p11957
atp11958
Rp11959
(dp11960
g16
VJJ
p11961
sbag5
(g6
g7
(lp11962
Vproxy
p11963
atp11964
Rp11965
(dp11966
g16
VNN
p11967
sbatp11968
Rp11969
(dp11970
g16
VNP
p11971
sbag5
(g6
g7
(lp11972
g5
(g6
g7
(lp11973
Vfor
p11974
atp11975
Rp11976
(dp11977
g16
VIN
p11978
sbag5
(g6
g7
(lp11979
g5
(g6
g7
(lp11980
g5
(g6
g7
(lp11981
VNMI
p11982
atp11983
Rp11984
(dp11985
g16
VNNP
p11986
sbatp11987
Rp11988
(dp11989
g16
VNP
p11990
sbag5
(g6
g7
(lp11991
g5
(g6
g7
(lp11992
Vin
p11993
atp11994
Rp11995
(dp11996
g16
VIN
p11997
sbag5
(g6
g7
(lp11998
g5
(g6
g7
(lp11999
Vour
p12000
atp12001
Rp12002
(dp12003
g16
VPRP$
p12004
sbag5
(g6
g7
(lp12005
Vexperiment
p12006
atp12007
Rp12008
(dp12009
g16
VNN
p12010
sbatp12011
Rp12012
(dp12013
g16
VNP
p12014
sbatp12015
Rp12016
(dp12017
g16
VPP
p12018
sbatp12019
Rp12020
(dp12021
g16
VNP
p12022
sbatp12023
Rp12024
(dp12025
g16
VPP
p12026
sbatp12027
Rp12028
(dp12029
g16
VNP
p12030
sbatp12031
Rp12032
(dp12033
g16
VVP
p12034
sbatp12035
Rp12036
(dp12037
g16
VVP
p12038
sbatp12039
Rp12040
(dp12041
g16
g314
sbatp12042
Rp12043
(dp12044
g16
VVP
p12045
sbatp12046
Rp12047
(dp12048
g16
g314
sbatp12049
Rp12050
(dp12051
g16
VSBAR
p12052
sbatp12053
Rp12054
(dp12055
g16
VVP
p12056
sbatp12057
Rp12058
(dp12059
g16
VVP
p12060
sbatp12061
Rp12062
(dp12063
g16
VVP
p12064
sbatp12065
Rp12066
(dp12067
g16
g314
sbatp12068
Rp12069
(dp12070
g16
VROOT
p12071
sbag5
(g6
g7
(lp12072
g5
(g6
g7
(lp12073
g5
(g6
g7
(lp12074
g5
(g6
g7
(lp12075
VThus
p12076
atp12077
Rp12078
(dp12079
g16
VRB
p12080
sbatp12081
Rp12082
(dp12083
g16
VADVP
p12084
sbag5
(g6
g7
(lp12085
g135
atp12086
Rp12087
(dp12088
g16
g135
sbag5
(g6
g7
(lp12089
g5
(g6
g7
(lp12090
Vif
p12091
atp12092
Rp12093
(dp12094
g16
VIN
p12095
sbag5
(g6
g7
(lp12096
g5
(g6
g7
(lp12097
g5
(g6
g7
(lp12098
Vinitialization
p12099
atp12100
Rp12101
(dp12102
g16
VNN
p12103
sbatp12104
Rp12105
(dp12106
g16
VNP
p12107
sbag5
(g6
g7
(lp12108
g5
(g6
g7
(lp12109
Vcontinues
p12110
atp12111
Rp12112
(dp12113
g16
VVBZ
p12114
sbag5
(g6
g7
(lp12115
g5
(g6
g7
(lp12116
g5
(g6
g7
(lp12117
Vto
p12118
atp12119
Rp12120
(dp12121
g16
VTO
p12122
sbag5
(g6
g7
(lp12123
g5
(g6
g7
(lp12124
Vbe
p12125
atp12126
Rp12127
(dp12128
g16
VVB
p12129
sbag5
(g6
g7
(lp12130
g5
(g6
g7
(lp12131
Vcrucial
p12132
atp12133
Rp12134
(dp12135
g16
VJJ
p12136
sbag5
(g6
g7
(lp12137
g5
(g6
g7
(lp12138
Vto
p12139
atp12140
Rp12141
(dp12142
g16
VTO
p12143
sbag5
(g6
g7
(lp12144
g5
(g6
g7
(lp12145
g5
(g6
g7
(lp12146
g5
(g6
g7
(lp12147
Vperformance
p12148
atp12149
Rp12150
(dp12151
g16
VNN
p12152
sbatp12153
Rp12154
(dp12155
g16
VNP
p12156
sbag5
(g6
g7
(lp12157
g135
atp12158
Rp12159
(dp12160
g16
g135
sbag5
(g6
g7
(lp12161
g5
(g6
g7
(lp12162
Vat
p12163
atp12164
Rp12165
(dp12166
g16
VIN
p12167
sbag5
(g6
g7
(lp12168
Vleast
p12169
atp12170
Rp12171
(dp12172
g16
VJJS
p12173
sbatp12174
Rp12175
(dp12176
g16
VADVP
p12177
sbatp12178
Rp12179
(dp12180
g16
VNP
p12181
sbag5
(g6
g7
(lp12182
g5
(g6
g7
(lp12183
g5
(g6
g7
(lp12184
g5
(g6
g7
(lp12185
Vwe
p12186
atp12187
Rp12188
(dp12189
g16
VPRP
p12190
sbatp12191
Rp12192
(dp12193
g16
VNP
p12194
sbag5
(g6
g7
(lp12195
g5
(g6
g7
(lp12196
Vmay
p12197
atp12198
Rp12199
(dp12200
g16
VMD
p12201
sbag5
(g6
g7
(lp12202
g5
(g6
g7
(lp12203
Vhave
p12204
atp12205
Rp12206
(dp12207
g16
VVB
p12208
sbag5
(g6
g7
(lp12209
g5
(g6
g7
(lp12210
g5
(g6
g7
(lp12211
Vthe
p12212
atp12213
Rp12214
(dp12215
g16
VDT
p12216
sbag5
(g6
g7
(lp12217
Vflexibility
p12218
atp12219
Rp12220
(dp12221
g16
VNN
p12222
sbatp12223
Rp12224
(dp12225
g16
VNP
p12226
sbag5
(g6
g7
(lp12227
g5
(g6
g7
(lp12228
Vof
p12229
atp12230
Rp12231
(dp12232
g16
VIN
p12233
sbag5
(g6
g7
(lp12234
g5
(g6
g7
(lp12235
g5
(g6
g7
(lp12236
Vinitializing
p12237
atp12238
Rp12239
(dp12240
g16
VVBG
p12241
sbag5
(g6
g7
(lp12242
g5
(g6
g7
(lp12243
Vwithout
p12244
atp12245
Rp12246
(dp12247
g16
VIN
p12248
sbag5
(g6
g7
(lp12249
g5
(g6
g7
(lp12250
Vgold-standard
p12251
atp12252
Rp12253
(dp12254
g16
VJJ
p12255
sbag5
(g6
g7
(lp12256
Vlabels
p12257
atp12258
Rp12259
(dp12260
g16
VNNS
p12261
sbatp12262
Rp12263
(dp12264
g16
VNP
p12265
sbatp12266
Rp12267
(dp12268
g16
VPP
p12269
sbatp12270
Rp12271
(dp12272
g16
VVP
p12273
sbatp12274
Rp12275
(dp12276
g16
g314
sbatp12277
Rp12278
(dp12279
g16
VPP
p12280
sbatp12281
Rp12282
(dp12283
g16
VNP
p12284
sbatp12285
Rp12286
(dp12287
g16
VVP
p12288
sbatp12289
Rp12290
(dp12291
g16
VVP
p12292
sbatp12293
Rp12294
(dp12295
g16
g314
sbatp12296
Rp12297
(dp12298
g16
VSBAR
p12299
sbatp12300
Rp12301
(dp12302
g16
VNP
p12303
sbatp12304
Rp12305
(dp12306
g16
VPP
p12307
sbatp12308
Rp12309
(dp12310
g16
VADJP
p12311
sbatp12312
Rp12313
(dp12314
g16
VVP
p12315
sbatp12316
Rp12317
(dp12318
g16
VVP
p12319
sbatp12320
Rp12321
(dp12322
g16
g314
sbatp12323
Rp12324
(dp12325
g16
VVP
p12326
sbatp12327
Rp12328
(dp12329
g16
g314
sbatp12330
Rp12331
(dp12332
g16
VSBAR
p12333
sbatp12334
Rp12335
(dp12336
g16
VPRN
p12337
sbatp12338
Rp12339
(dp12340
g16
VROOT
p12341
sbasg331
(icmyPackage
CorE
p12342
(dp12343
g334
(lp12344
(I0
I0
tp12345
a(I0
I47
tp12346
asg338
g12069
sbsg344
(icmyPackage
CorE
p12347
(dp12348
g334
(lp12349
(I1
I1
tp12350
a(I1
I22
tp12351
asg338
g5
(g6
g7
(lp12352
g12087
ag12331
atp12353
Rp12354
(dp12355
g16
g343
sbsbsg350
g761
sg376
(lp12356
(isxpPackage
sxpSent
p12357
(dp12358
g380
(lp12359
I28
asg382
VPerplexity (or likelihood) is often used to estimate model performance in LDA [ 3 , 11 , 22 , 12 ] , and does not compare the inferred model against gold-standard labels, yet it appears to be a good proxy for NMI in our experiment
p12360
sg384
I10
sg367
I124
sg385
I39
sba(isxpPackage
sxpSent
p12361
(dp12362
g380
(lp12363
I28
asg382
VThus, if initialization continues to be crucial to performance, at least we may have the flexibility of initializing without gold-standard labels
p12364
sg384
I10
sg367
I125
sg385
I39
sbasba(icmyPackage
CELink
p12365
(dp12366
g3
(lp12367
g5
(g6
g7
(lp12368
g5
(g6
g7
(lp12369
g5
(g6
g7
(lp12370
g5
(g6
g7
(lp12371
VWe
p12372
atp12373
Rp12374
(dp12375
g16
VPRP
p12376
sbatp12377
Rp12378
(dp12379
g16
VNP
p12380
sbag5
(g6
g7
(lp12381
g5
(g6
g7
(lp12382
Vhave
p12383
atp12384
Rp12385
(dp12386
g16
VVBP
p12387
sbag5
(g6
g7
(lp12388
g5
(g6
g7
(lp12389
g5
(g6
g7
(lp12390
Vproposed
p12391
atp12392
Rp12393
(dp12394
g16
VVBN
p12395
sbag5
(g6
g7
(lp12396
Vreservoir
p12397
atp12398
Rp12399
(dp12400
g16
VNN
p12401
sbag5
(g6
g7
(lp12402
Vsampling
p12403
atp12404
Rp12405
(dp12406
g16
VVBG
p12407
sbatp12408
Rp12409
(dp12410
g16
VNP
p12411
sbag5
(g6
g7
(lp12412
g5
(g6
g7
(lp12413
Vfor
p12414
atp12415
Rp12416
(dp12417
g16
VIN
p12418
sbag5
(g6
g7
(lp12419
g5
(g6
g7
(lp12420
g5
(g6
g7
(lp12421
Vreducing
p12422
atp12423
Rp12424
(dp12425
g16
VVBG
p12426
sbag5
(g6
g7
(lp12427
g5
(g6
g7
(lp12428
g5
(g6
g7
(lp12429
Vthe
p12430
atp12431
Rp12432
(dp12433
g16
VDT
p12434
sbag5
(g6
g7
(lp12435
Vstorage
p12436
atp12437
Rp12438
(dp12439
g16
VNN
p12440
sbag5
(g6
g7
(lp12441
Vcomplexity
p12442
atp12443
Rp12444
(dp12445
g16
VNN
p12446
sbatp12447
Rp12448
(dp12449
g16
VNP
p12450
sbag5
(g6
g7
(lp12451
g5
(g6
g7
(lp12452
Vof
p12453
atp12454
Rp12455
(dp12456
g16
VIN
p12457
sbag5
(g6
g7
(lp12458
g5
(g6
g7
(lp12459
g34
atp12460
Rp12461
(dp12462
g16
VDT
p12463
sbag5
(g6
g7
(lp12464
Vparticle
p12465
atp12466
Rp12467
(dp12468
g16
VNN
p12469
sbag5
(g6
g7
(lp12470
Vfilter
p12471
atp12472
Rp12473
(dp12474
g16
VNN
p12475
sbatp12476
Rp12477
(dp12478
g16
VNP
p12479
sbatp12480
Rp12481
(dp12482
g16
VPP
p12483
sbatp12484
Rp12485
(dp12486
g16
VNP
p12487
sbag5
(g6
g7
(lp12488
g5
(g6
g7
(lp12489
Vfrom
p12490
atp12491
Rp12492
(dp12493
g16
VIN
p12494
sbag5
(g6
g7
(lp12495
g5
(g6
g7
(lp12496
Vlinear
p12497
atp12498
Rp12499
(dp12500
g16
VNNP
p12501
sbatp12502
Rp12503
(dp12504
g16
VNP
p12505
sbatp12506
Rp12507
(dp12508
g16
VPP
p12509
sbag5
(g6
g7
(lp12510
g5
(g6
g7
(lp12511
Vto
p12512
atp12513
Rp12514
(dp12515
g16
VTO
p12516
sbag5
(g6
g7
(lp12517
g5
(g6
g7
(lp12518
Vconstant
p12519
atp12520
Rp12521
(dp12522
g16
VJJ
p12523
sbatp12524
Rp12525
(dp12526
g16
VNP
p12527
sbatp12528
Rp12529
(dp12530
g16
VPP
p12531
sbatp12532
Rp12533
(dp12534
g16
VVP
p12535
sbatp12536
Rp12537
(dp12538
g16
g314
sbatp12539
Rp12540
(dp12541
g16
VPP
p12542
sbatp12543
Rp12544
(dp12545
g16
VNP
p12546
sbatp12547
Rp12548
(dp12549
g16
VVP
p12550
sbatp12551
Rp12552
(dp12553
g16
g314
sbatp12554
Rp12555
(dp12556
g16
VROOT
p12557
sbasg331
(icmyPackage
CorE
p12558
(dp12559
g334
(lp12560
(I0
I6
tp12561
a(I0
I17
tp12562
asg338
g12537
sbsg344
(icmyPackage
CorE
p12563
(dp12564
g334
(lp12565
(I0
I0
tp12566
a(I0
I4
tp12567
asg338
g5
(g6
g7
(lp12568
g12378
ag12385
ag12409
atp12569
Rp12570
(dp12571
g16
g343
sbsbsg350
g4702
sg376
(lp12572
(isxpPackage
sxpSent
p12573
(dp12574
g380
(lp12575
I29
asg382
VWe have proposed reservoir sampling for reducing the storage complexity of a particle filter from linear to constant
p12576
sg384
I11
sg367
I129
sg385
I41
sbasba(icmyPackage
CELink
p12577
(dp12578
g3
(lp12579
g5
(g6
g7
(lp12580
g5
(g6
g7
(lp12581
g5
(g6
g7
(lp12582
g5
(g6
g7
(lp12583
VThis
p12584
atp12585
Rp12586
(dp12587
g16
VDT
p12588
sbag5
(g6
g7
(lp12589
Vwork
p12590
atp12591
Rp12592
(dp12593
g16
VNN
p12594
sbatp12595
Rp12596
(dp12597
g16
VNP
p12598
sbag5
(g6
g7
(lp12599
g5
(g6
g7
(lp12600
Vwas
p12601
atp12602
Rp12603
(dp12604
g16
VVBD
p12605
sbag5
(g6
g7
(lp12606
g5
(g6
g7
(lp12607
Vmotivated
p12608
atp12609
Rp12610
(dp12611
g16
VVBN
p12612
sbag5
(g6
g7
(lp12613
g5
(g6
g7
(lp12614
Vas
p12615
atp12616
Rp12617
(dp12618
g16
VIN
p12619
sbag5
(g6
g7
(lp12620
g5
(g6
g7
(lp12621
g5
(g6
g7
(lp12622
Van
p12623
atp12624
Rp12625
(dp12626
g16
VDT
p12627
sbag5
(g6
g7
(lp12628
Vexpected
p12629
atp12630
Rp12631
(dp12632
g16
VVBN
p12633
sbag5
(g6
g7
(lp12634
Vimprovement
p12635
atp12636
Rp12637
(dp12638
g16
VNN
p12639
sbatp12640
Rp12641
(dp12642
g16
VNP
p12643
sbag5
(g6
g7
(lp12644
g5
(g6
g7
(lp12645
Von
p12646
atp12647
Rp12648
(dp12649
g16
VIN
p12650
sbag5
(g6
g7
(lp12651
g5
(g6
g7
(lp12652
g5
(g6
g7
(lp12653
Vthe
p12654
atp12655
Rp12656
(dp12657
g16
VDT
p12658
sbag5
(g6
g7
(lp12659
Vmodel
p12660
atp12661
Rp12662
(dp12663
g16
VNN
p12664
sbatp12665
Rp12666
(dp12667
g16
VNP
p12668
sbag5
(g6
g7
(lp12669
g5
(g6
g7
(lp12670
Vof
p12671
atp12672
Rp12673
(dp12674
g16
VIN
p12675
sbag5
(g6
g7
(lp12676
g5
(g6
g7
(lp12677
VCanini
p12678
atp12679
Rp12680
(dp12681
g16
VNNP
p12682
sbag5
(g6
g7
(lp12683
Vet
p12684
atp12685
Rp12686
(dp12687
g16
VCC
p12688
sbag5
(g6
g7
(lp12689
Val
p12690
atp12691
Rp12692
(dp12693
g16
VNNP
p12694
sbatp12695
Rp12696
(dp12697
g16
VNP
p12698
sbatp12699
Rp12700
(dp12701
g16
VPP
p12702
sbatp12703
Rp12704
(dp12705
g16
VNP
p12706
sbatp12707
Rp12708
(dp12709
g16
VPP
p12710
sbatp12711
Rp12712
(dp12713
g16
VNP
p12714
sbatp12715
Rp12716
(dp12717
g16
VPP
p12718
sbatp12719
Rp12720
(dp12721
g16
VVP
p12722
sbatp12723
Rp12724
(dp12725
g16
VVP
p12726
sbatp12727
Rp12728
(dp12729
g16
g314
sbatp12730
Rp12731
(dp12732
g16
VROOT
p12733
sbasg331
(icmyPackage
CorE
p12734
(dp12735
g334
(lp12736
(I0
I5
tp12737
a(I0
I6
tp12738
asg338
g5
(g6
g7
(lp12739
g12625
ag12631
atp12740
Rp12741
(dp12742
g16
g343
sbsbsg344
(icmyPackage
CorE
p12743
(dp12744
g334
(lp12745
(I0
I0
tp12746
a(I0
I3
tp12747
asg338
g5
(g6
g7
(lp12748
g12596
ag12603
ag12610
atp12749
Rp12750
(dp12751
g16
g343
sbsbsg350
g1531
sg376
(lp12752
(isxpPackage
sxpSent
p12753
(dp12754
g380
(lp12755
I30
asg382
VThis work was motivated as an expected improvement on the model of Canini et al
p12756
sg384
I11
sg367
I130
sg385
I41
sbasba(icmyPackage
CELink
p12757
(dp12758
g3
(lp12759
g5
(g6
g7
(lp12760
g5
(g6
g7
(lp12761
g5
(g6
g7
(lp12762
g5
(g6
g7
(lp12763
VIn
p12764
atp12765
Rp12766
(dp12767
g16
VIN
p12768
sbag5
(g6
g7
(lp12769
g5
(g6
g7
(lp12770
Vconclusion
p12771
atp12772
Rp12773
(dp12774
g16
VNN
p12775
sbatp12776
Rp12777
(dp12778
g16
VNP
p12779
sbatp12780
Rp12781
(dp12782
g16
VPP
p12783
sbag5
(g6
g7
(lp12784
g135
atp12785
Rp12786
(dp12787
g16
g135
sbag5
(g6
g7
(lp12788
g5
(g6
g7
(lp12789
Vit
p12790
atp12791
Rp12792
(dp12793
g16
VPRP
p12794
sbatp12795
Rp12796
(dp12797
g16
VNP
p12798
sbag5
(g6
g7
(lp12799
g5
(g6
g7
(lp12800
Vis
p12801
atp12802
Rp12803
(dp12804
g16
VVBZ
p12805
sbag5
(g6
g7
(lp12806
g5
(g6
g7
(lp12807
Vnow
p12808
atp12809
Rp12810
(dp12811
g16
VRB
p12812
sbatp12813
Rp12814
(dp12815
g16
VADVP
p12816
sbag5
(g6
g7
(lp12817
g5
(g6
g7
(lp12818
Van
p12819
atp12820
Rp12821
(dp12822
g16
VDT
p12823
sbag5
(g6
g7
(lp12824
Vopen
p12825
atp12826
Rp12827
(dp12828
g16
VJJ
p12829
sbag5
(g6
g7
(lp12830
Vquestion
p12831
atp12832
Rp12833
(dp12834
g16
VNN
p12835
sbatp12836
Rp12837
(dp12838
g16
VNP
p12839
sbag5
(g6
g7
(lp12840
g5
(g6
g7
(lp12841
Vwhether
p12842
atp12843
Rp12844
(dp12845
g16
VIN
p12846
sbag5
(g6
g7
(lp12847
g5
(g6
g7
(lp12848
g5
(g6
g7
(lp12849
g817
atp12850
Rp12851
(dp12852
g16
VNNP
p12853
sbag5
(g6
g7
(lp12854
g823
atp12855
Rp12856
(dp12857
g16
VPOS
p12858
sbatp12859
Rp12860
(dp12861
g16
VNP
p12862
sbag5
(g6
g7
(lp12863
g5
(g6
g7
(lp12864
V\u005c
p12865
atp12866
Rp12867
(dp12868
g16
VVBZ
p12869
sbag5
(g6
g7
(lp12870
g5
(g6
g7
(lp12871
g5
(g6
g7
(lp12872
Vu2014
p12873
atp12874
Rp12875
(dp12876
g16
VJJ
p12877
sbatp12878
Rp12879
(dp12880
g16
VADJP
p12881
sbag5
(g6
g7
(lp12882
g823
atp12883
Rp12884
(dp12885
g16
V''
p12886
sbag5
(g6
g7
(lp12887
Vand
p12888
atp12889
Rp12890
(dp12891
g16
VCC
p12892
sbag5
(g6
g7
(lp12893
g5
(g6
g7
(lp12894
Vif
p12895
atp12896
Rp12897
(dp12898
g16
VIN
p12899
sbag5
(g6
g7
(lp12900
Vso
p12901
atp12902
Rp12903
(dp12904
g16
VRB
p12905
sbatp12906
Rp12907
(dp12908
g16
VADVP
p12909
sbatp12910
Rp12911
(dp12912
g16
VADJP
p12913
sbag5
(g6
g7
(lp12914
g135
atp12915
Rp12916
(dp12917
g16
g135
sbag5
(g6
g7
(lp12918
g5
(g6
g7
(lp12919
Vunder
p12920
atp12921
Rp12922
(dp12923
g16
VIN
p12924
sbag5
(g6
g7
(lp12925
g5
(g6
g7
(lp12926
g5
(g6
g7
(lp12927
Vwhat
p12928
atp12929
Rp12930
(dp12931
g16
VWP
p12932
sbatp12933
Rp12934
(dp12935
g16
VWHNP
p12936
sbag5
(g6
g7
(lp12937
g5
(g6
g7
(lp12938
g5
(g6
g7
(lp12939
g5
(g6
g7
(lp12940
Vassumptions
p12941
atp12942
Rp12943
(dp12944
g16
VNNP
p12945
sbag5
(g6
g7
(lp12946
g817
atp12947
Rp12948
(dp12949
g16
VNNP
p12950
sbag5
(g6
g7
(lp12951
g823
atp12952
Rp12953
(dp12954
g16
VPOS
p12955
sbatp12956
Rp12957
(dp12958
g16
VNP
p12959
sbag5
(g6
g7
(lp12960
V\u005c
p12961
atp12962
Rp12963
(dp12964
g16
VCD
p12965
sbag5
(g6
g7
(lp12966
Vu2014
p12967
atp12968
Rp12969
(dp12970
g16
VJJ
p12971
sbag5
(g6
g7
(lp12972
g823
atp12973
Rp12974
(dp12975
g16
V''
p12976
sbag5
(g6
g7
(lp12977
Vrejuvenation
p12978
atp12979
Rp12980
(dp12981
g16
VNN
p12982
sbag5
(g6
g7
(lp12983
Vbenefits
p12984
atp12985
Rp12986
(dp12987
g16
VNNS
p12988
sbatp12989
Rp12990
(dp12991
g16
VNP
p12992
sbag5
(g6
g7
(lp12993
g5
(g6
g7
(lp12994
Vparticle
p12995
atp12996
Rp12997
(dp12998
g16
VVBD
p12999
sbag5
(g6
g7
(lp13000
g5
(g6
g7
(lp13001
Vfilters
p13002
atp13003
Rp13004
(dp13005
g16
VNNS
p13006
sbatp13007
Rp13008
(dp13009
g16
VNP
p13010
sbag5
(g6
g7
(lp13011
g5
(g6
g7
(lp13012
Vfor
p13013
atp13014
Rp13015
(dp13016
g16
VIN
p13017
sbag5
(g6
g7
(lp13018
g5
(g6
g7
(lp13019
g5
(g6
g7
(lp13020
VLDA
p13021
atp13022
Rp13023
(dp13024
g16
VNNP
p13025
sbatp13026
Rp13027
(dp13028
g16
VNP
p13029
sbag5
(g6
g7
(lp13030
Vand
p13031
atp13032
Rp13033
(dp13034
g16
VCC
p13035
sbag5
(g6
g7
(lp13036
g5
(g6
g7
(lp13037
Vsimilar
p13038
atp13039
Rp13040
(dp13041
g16
VJJ
p13042
sbag5
(g6
g7
(lp13043
Vstatic
p13044
atp13045
Rp13046
(dp13047
g16
VJJ
p13048
sbag5
(g6
g7
(lp13049
VBayesian
p13050
atp13051
Rp13052
(dp13053
g16
VNNP
p13054
sbag5
(g6
g7
(lp13055
Vmodels
p13056
atp13057
Rp13058
(dp13059
g16
VNNS
p13060
sbatp13061
Rp13062
(dp13063
g16
VNP
p13064
sbatp13065
Rp13066
(dp13067
g16
VNP
p13068
sbatp13069
Rp13070
(dp13071
g16
VPP
p13072
sbatp13073
Rp13074
(dp13075
g16
VVP
p13076
sbatp13077
Rp13078
(dp13079
g16
g314
sbatp13080
Rp13081
(dp13082
g16
VSBAR
p13083
sbatp13084
Rp13085
(dp13086
g16
VPP
p13087
sbatp13088
Rp13089
(dp13090
g16
VVP
p13091
sbatp13092
Rp13093
(dp13094
g16
g314
sbatp13095
Rp13096
(dp13097
g16
VSBAR
p13098
sbatp13099
Rp13100
(dp13101
g16
VVP
p13102
sbatp13103
Rp13104
(dp13105
g16
g314
sbatp13106
Rp13107
(dp13108
g16
VROOT
p13109
sbasg331
(icmyPackage
CorE
p13110
(dp13111
g334
(lp13112
(I0
I0
tp13113
a(I0
I16
tp13114
asg338
g5
(g6
g7
(lp13115
g12781
ag12786
ag12796
ag12803
ag12814
ag12837
ag12844
ag12860
ag12867
ag12879
ag12884
ag12890
ag12897
atp13116
Rp13117
(dp13118
g16
g343
sbsbsg344
(icmyPackage
CorE
p13119
(dp13120
g334
(lp13121
(I0
I19
tp13122
a(I0
I36
tp13123
asg338
g5
(g6
g7
(lp13124
g12922
ag12934
ag12990
ag12997
ag13008
ag13015
ag13027
ag13033
ag13040
ag13046
ag13052
atp13125
Rp13126
(dp13127
g16
g343
sbsbsg350
g7664
sg376
(lp13128
(isxpPackage
sxpSent
p13129
(dp13130
g380
(lp13131
I31
asg382
VIn conclusion, it is now an open question whether u'\u005cu2014' and if so, under what assumptions u'\u005cu2014' rejuvenation benefits particle filters for LDA and similar static Bayesian models
p13132
sg384
I11
sg367
I135
sg385
I41
sbasba.