(lp0
(icmyPackage
CELink
p1
(dp2
S'PTreelst'
p3
(lp4
ccopy_reg
_reconstructor
p5
(cnltk.tree
Tree
p6
c__builtin__
list
p7
(lp8
g5
(g6
g7
(lp9
g5
(g6
g7
(lp10
g5
(g6
g7
(lp11
VWe
p12
atp13
Rp14
(dp15
S'_label'
p16
VPRP
p17
sbatp18
Rp19
(dp20
g16
VNP
p21
sbag5
(g6
g7
(lp22
g5
(g6
g7
(lp23
Vintroduce
p24
atp25
Rp26
(dp27
g16
VVB
p28
sbag5
(g6
g7
(lp29
g5
(g6
g7
(lp30
Va
p31
atp32
Rp33
(dp34
g16
VDT
p35
sbag5
(g6
g7
(lp36
Vmodel
p37
atp38
Rp39
(dp40
g16
VNN
p41
sbatp42
Rp43
(dp44
g16
VNP
p45
sbag5
(g6
g7
(lp46
g5
(g6
g7
(lp47
Vfor
p48
atp49
Rp50
(dp51
g16
VIN
p52
sbag5
(g6
g7
(lp53
g5
(g6
g7
(lp54
g5
(g6
g7
(lp55
Vincorporating
p56
atp57
Rp58
(dp59
g16
VVBG
p60
sbag5
(g6
g7
(lp61
g5
(g6
g7
(lp62
g5
(g6
g7
(lp63
Vcontextual
p64
atp65
Rp66
(dp67
g16
VJJ
p68
sbag5
(g6
g7
(lp69
Vinformation
p70
atp71
Rp72
(dp73
g16
VNN
p74
sbatp75
Rp76
(dp77
g16
VNP
p78
sbag5
(g6
g7
(lp79
g5
(g6
g7
(lp80
V-LRB-
p81
atp82
Rp83
(dp84
g16
V-LRB-
p85
sbag5
(g6
g7
(lp86
g5
(g6
g7
(lp87
Vsuch
p88
atp89
Rp90
(dp91
g16
VJJ
p92
sbag5
(g6
g7
(lp93
Vas
p94
atp95
Rp96
(dp97
g16
VIN
p98
sbag5
(g6
g7
(lp99
g5
(g6
g7
(lp100
Vgeography
p101
atp102
Rp103
(dp104
g16
VNN
p105
sbatp106
Rp107
(dp108
g16
VNP
p109
sbatp110
Rp111
(dp112
g16
VPP
p113
sbag5
(g6
g7
(lp114
V-RRB-
p115
atp116
Rp117
(dp118
g16
V-RRB-
p119
sbatp120
Rp121
(dp122
g16
VPRN
p123
sbatp124
Rp125
(dp126
g16
VNP
p127
sbag5
(g6
g7
(lp128
g5
(g6
g7
(lp129
Vin
p130
atp131
Rp132
(dp133
g16
VIN
p134
sbag5
(g6
g7
(lp135
g5
(g6
g7
(lp136
g5
(g6
g7
(lp137
Vlearning
p138
atp139
Rp140
(dp141
g16
VVBG
p142
sbag5
(g6
g7
(lp143
g5
(g6
g7
(lp144
g5
(g6
g7
(lp145
Vvector-space
p146
atp147
Rp148
(dp149
g16
VJJ
p150
sbag5
(g6
g7
(lp151
Vrepresentations
p152
atp153
Rp154
(dp155
g16
VNNS
p156
sbatp157
Rp158
(dp159
g16
VNP
p160
sbag5
(g6
g7
(lp161
g5
(g6
g7
(lp162
Vof
p163
atp164
Rp165
(dp166
g16
VIN
p167
sbag5
(g6
g7
(lp168
g5
(g6
g7
(lp169
Vsituated
p170
atp171
Rp172
(dp173
g16
VJJ
p174
sbag5
(g6
g7
(lp175
Vlanguage
p176
atp177
Rp178
(dp179
g16
VNN
p180
sbatp181
Rp182
(dp183
g16
VNP
p184
sbatp185
Rp186
(dp187
g16
VPP
p188
sbatp189
Rp190
(dp191
g16
VNP
p192
sbatp193
Rp194
(dp195
g16
VVP
p196
sbatp197
Rp198
(dp199
g16
VS
p200
sbatp201
Rp202
(dp203
g16
VPP
p204
sbatp205
Rp206
(dp207
g16
VVP
p208
sbatp209
Rp210
(dp211
g16
g200
sbatp212
Rp213
(dp214
g16
VPP
p215
sbatp216
Rp217
(dp218
g16
VVP
p219
sbatp220
Rp221
(dp222
g16
VFRAG
p223
sbatp224
Rp225
(dp226
g16
VROOT
p227
sbasS'cause'
p228
(icmyPackage
CorE
p229
(dp230
S'span'
p231
(lp232
(I0
I5
tp233
a(I0
I19
tp234
asS'PTree'
p235
g210
sbsS'effect'
p236
(icmyPackage
CorE
p237
(dp238
g231
(lp239
(I0
I0
tp240
a(I0
I3
tp241
asg235
g5
(g6
g7
(lp242
g19
ag26
ag43
atp243
Rp244
(dp245
g16
S'ROOT'
p246
sbsbsS'pt'
p247
(icmyPackage
pattern
p248
(dp249
S'pfreq'
p250
I25
sS'moresent'
p251
I0
sS'main_token'
p252
(lp253
(lp254
S'for'
p255
aasS'ptype'
p256
(lp257
I2
aI1
aI1
asS'cases'
p258
(lp259
S'She was angry with him for being late.'
p260
asS'id'
p261
I44
sS'constraints'
p262
(lp263
(lp264
S'&R'
p265
aa(lp266
S'&V-ing@C@'
p267
aasbsS'sInfo'
p268
(lp269
(isxpPackage
sxpSent
p270
(dp271
S'sysCEidlst'
p272
(lp273
I0
asS'sentence_text'
p274
VWe introduce a model for incorporating contextual information (such as geography) in learning vector-space representations of situated language
p275
sS'id_sec'
p276
I1
sg261
I0
sS'id_para'
p277
I0
sbasba(icmyPackage
CELink
p278
(dp279
g3
(lp280
g5
(g6
g7
(lp281
g5
(g6
g7
(lp282
g5
(g6
g7
(lp283
g5
(g6
g7
(lp284
g5
(g6
g7
(lp285
g5
(g6
g7
(lp286
VThe
p287
atp288
Rp289
(dp290
g16
VDT
p291
sbag5
(g6
g7
(lp292
Vvast
p293
atp294
Rp295
(dp296
g16
VJJ
p297
sbag5
(g6
g7
(lp298
Vtextual
p299
atp300
Rp301
(dp302
g16
VJJ
p303
sbag5
(g6
g7
(lp304
Vresources
p305
atp306
Rp307
(dp308
g16
VNNS
p309
sbatp310
Rp311
(dp312
g16
VNP
p313
sbag5
(g6
g7
(lp314
g5
(g6
g7
(lp315
Vused
p316
atp317
Rp318
(dp319
g16
VVBN
p320
sbag5
(g6
g7
(lp321
g5
(g6
g7
(lp322
Vin
p323
atp324
Rp325
(dp326
g16
VIN
p327
sbag5
(g6
g7
(lp328
g5
(g6
g7
(lp329
g5
(g6
g7
(lp330
g5
(g6
g7
(lp331
VNLP
p332
atp333
Rp334
(dp335
g16
VNNP
p336
sbag5
(g6
g7
(lp337
Vu
p338
atp339
Rp340
(dp341
g16
VNNP
p342
sbag5
(g6
g7
(lp343
V'
p344
atp345
Rp346
(dp347
g16
VPOS
p348
sbatp349
Rp350
(dp351
g16
VNP
p352
sbag5
(g6
g7
(lp353
V\u005c
p354
atp355
Rp356
(dp357
g16
VJJ
p358
sbag5
(g6
g7
(lp359
Vu2013
p360
atp361
Rp362
(dp363
g16
VJJ
p364
sbag5
(g6
g7
(lp365
g344
atp366
Rp367
(dp368
g16
V''
p369
sbag5
(g6
g7
(lp370
Vnewswire
p371
atp372
Rp373
(dp374
g16
VNN
p375
sbatp376
Rp377
(dp378
g16
VNP
p379
sbag5
(g6
g7
(lp380
V,
p381
atp382
Rp383
(dp384
g16
g381
sbag5
(g6
g7
(lp385
g5
(g6
g7
(lp386
Vweb
p387
atp388
Rp389
(dp390
g16
VNN
p391
sbag5
(g6
g7
(lp392
Vtext
p393
atp394
Rp395
(dp396
g16
VNN
p397
sbatp398
Rp399
(dp400
g16
VNP
p401
sbatp402
Rp403
(dp404
g16
VNP
p405
sbatp406
Rp407
(dp408
g16
VPP
p409
sbatp410
Rp411
(dp412
g16
VVP
p413
sbatp414
Rp415
(dp416
g16
VNP
p417
sbag5
(g6
g7
(lp418
g381
atp419
Rp420
(dp421
g16
g381
sbag5
(g6
g7
(lp422
g5
(g6
g7
(lp423
g5
(g6
g7
(lp424
Vparliamentary
p425
atp426
Rp427
(dp428
g16
VJJ
p429
sbag5
(g6
g7
(lp430
Vproceedings
p431
atp432
Rp433
(dp434
g16
VNNS
p435
sbag5
(g6
g7
(lp436
g338
atp437
Rp438
(dp439
g16
VNNS
p440
sbag5
(g6
g7
(lp441
g344
atp442
Rp443
(dp444
g16
VPOS
p445
sbatp446
Rp447
(dp448
g16
VNP
p449
sbag5
(g6
g7
(lp450
V\u005c
p451
atp452
Rp453
(dp454
g16
VJJ
p455
sbag5
(g6
g7
(lp456
Vu2013
p457
atp458
Rp459
(dp460
g16
VNNS
p461
sbatp462
Rp463
(dp464
g16
VNP
p465
sbag5
(g6
g7
(lp466
g344
atp467
Rp468
(dp469
g16
V''
p470
sbatp471
Rp472
(dp473
g16
VNP
p474
sbag5
(g6
g7
(lp475
g5
(g6
g7
(lp476
Vcan
p477
atp478
Rp479
(dp480
g16
VMD
p481
sbag5
(g6
g7
(lp482
g5
(g6
g7
(lp483
Vencourage
p484
atp485
Rp486
(dp487
g16
VVB
p488
sbag5
(g6
g7
(lp489
g5
(g6
g7
(lp490
g5
(g6
g7
(lp491
g31
atp492
Rp493
(dp494
g16
VDT
p495
sbag5
(g6
g7
(lp496
Vview
p497
atp498
Rp499
(dp500
g16
VNN
p501
sbatp502
Rp503
(dp504
g16
VNP
p505
sbag5
(g6
g7
(lp506
g5
(g6
g7
(lp507
Vof
p508
atp509
Rp510
(dp511
g16
VIN
p512
sbag5
(g6
g7
(lp513
g5
(g6
g7
(lp514
Vlanguage
p515
atp516
Rp517
(dp518
g16
VNN
p519
sbatp520
Rp521
(dp522
g16
VNP
p523
sbatp524
Rp525
(dp526
g16
VPP
p527
sbatp528
Rp529
(dp530
g16
VNP
p531
sbag5
(g6
g7
(lp532
g5
(g6
g7
(lp533
Vas
p534
atp535
Rp536
(dp537
g16
VIN
p538
sbag5
(g6
g7
(lp539
g5
(g6
g7
(lp540
g31
atp541
Rp542
(dp543
g16
VDT
p544
sbag5
(g6
g7
(lp545
Vdisembodied
p546
atp547
Rp548
(dp549
g16
VJJ
p550
sbag5
(g6
g7
(lp551
Vphenomenon
p552
atp553
Rp554
(dp555
g16
VNN
p556
sbatp557
Rp558
(dp559
g16
VNP
p560
sbatp561
Rp562
(dp563
g16
VPP
p564
sbatp565
Rp566
(dp567
g16
VVP
p568
sbatp569
Rp570
(dp571
g16
VVP
p572
sbatp573
Rp574
(dp575
g16
g200
sbatp576
Rp577
(dp578
g16
VROOT
p579
sbag5
(g6
g7
(lp580
g5
(g6
g7
(lp581
g5
(g6
g7
(lp582
g5
(g6
g7
(lp583
g5
(g6
g7
(lp584
VThe
p585
atp586
Rp587
(dp588
g16
VDT
p589
sbag5
(g6
g7
(lp590
Vrise
p591
atp592
Rp593
(dp594
g16
VNN
p595
sbatp596
Rp597
(dp598
g16
VNP
p599
sbag5
(g6
g7
(lp600
g5
(g6
g7
(lp601
Vof
p602
atp603
Rp604
(dp605
g16
VIN
p606
sbag5
(g6
g7
(lp607
g5
(g6
g7
(lp608
g5
(g6
g7
(lp609
Vsocial
p610
atp611
Rp612
(dp613
g16
VJJ
p614
sbag5
(g6
g7
(lp615
Vmedia
p616
atp617
Rp618
(dp619
g16
VNNS
p620
sbatp621
Rp622
(dp623
g16
VNP
p624
sbag5
(g6
g7
(lp625
g381
atp626
Rp627
(dp628
g16
g381
sbag5
(g6
g7
(lp629
g5
(g6
g7
(lp630
Vhowever
p631
atp632
Rp633
(dp634
g16
VRB
p635
sbatp636
Rp637
(dp638
g16
VADVP
p639
sbatp640
Rp641
(dp642
g16
VNP
p643
sbatp644
Rp645
(dp646
g16
VPP
p647
sbag5
(g6
g7
(lp648
g381
atp649
Rp650
(dp651
g16
g381
sbag5
(g6
g7
(lp652
g5
(g6
g7
(lp653
Vwith
p654
atp655
Rp656
(dp657
g16
VIN
p658
sbag5
(g6
g7
(lp659
g5
(g6
g7
(lp660
g5
(g6
g7
(lp661
Vits
p662
atp663
Rp664
(dp665
g16
VPRP$
p666
sbag5
(g6
g7
(lp667
Vlarge
p668
atp669
Rp670
(dp671
g16
VJJ
p672
sbag5
(g6
g7
(lp673
Vvolume
p674
atp675
Rp676
(dp677
g16
VNN
p678
sbatp679
Rp680
(dp681
g16
VNP
p682
sbag5
(g6
g7
(lp683
g5
(g6
g7
(lp684
Vof
p685
atp686
Rp687
(dp688
g16
VIN
p689
sbag5
(g6
g7
(lp690
g5
(g6
g7
(lp691
g5
(g6
g7
(lp692
Vtext
p693
atp694
Rp695
(dp696
g16
VNN
p697
sbatp698
Rp699
(dp700
g16
VNP
p701
sbag5
(g6
g7
(lp702
g5
(g6
g7
(lp703
Vpaired
p704
atp705
Rp706
(dp707
g16
VVBN
p708
sbag5
(g6
g7
(lp709
g5
(g6
g7
(lp710
Vwith
p711
atp712
Rp713
(dp714
g16
VIN
p715
sbag5
(g6
g7
(lp716
g5
(g6
g7
(lp717
Vinformation
p718
atp719
Rp720
(dp721
g16
VNN
p722
sbatp723
Rp724
(dp725
g16
VNP
p726
sbatp727
Rp728
(dp729
g16
VPP
p730
sbag5
(g6
g7
(lp731
g5
(g6
g7
(lp732
Vabout
p733
atp734
Rp735
(dp736
g16
VIN
p737
sbag5
(g6
g7
(lp738
g5
(g6
g7
(lp739
g5
(g6
g7
(lp740
Vits
p741
atp742
Rp743
(dp744
g16
VPRP$
p745
sbag5
(g6
g7
(lp746
Vauthor
p747
atp748
Rp749
(dp750
g16
VNN
p751
sbatp752
Rp753
(dp754
g16
VNP
p755
sbag5
(g6
g7
(lp756
Vand
p757
atp758
Rp759
(dp760
g16
VCC
p761
sbag5
(g6
g7
(lp762
g5
(g6
g7
(lp763
Vsocial
p764
atp765
Rp766
(dp767
g16
VJJ
p768
sbag5
(g6
g7
(lp769
Vcontext
p770
atp771
Rp772
(dp773
g16
VNN
p774
sbatp775
Rp776
(dp777
g16
VNP
p778
sbatp779
Rp780
(dp781
g16
VNP
p782
sbatp783
Rp784
(dp785
g16
VPP
p786
sbatp787
Rp788
(dp789
g16
VVP
p790
sbatp791
Rp792
(dp793
g16
VNP
p794
sbatp795
Rp796
(dp797
g16
VPP
p798
sbatp799
Rp800
(dp801
g16
VNP
p802
sbatp803
Rp804
(dp805
g16
VPP
p806
sbag5
(g6
g7
(lp807
g381
atp808
Rp809
(dp810
g16
g381
sbatp811
Rp812
(dp813
g16
VNP
p814
sbag5
(g6
g7
(lp815
g5
(g6
g7
(lp816
Vreminds
p817
atp818
Rp819
(dp820
g16
VVBZ
p821
sbag5
(g6
g7
(lp822
g5
(g6
g7
(lp823
Vus
p824
atp825
Rp826
(dp827
g16
VPRP
p828
sbatp829
Rp830
(dp831
g16
VNP
p832
sbag5
(g6
g7
(lp833
g5
(g6
g7
(lp834
Vthat
p835
atp836
Rp837
(dp838
g16
VIN
p839
sbag5
(g6
g7
(lp840
g5
(g6
g7
(lp841
g5
(g6
g7
(lp842
Veach
p843
atp844
Rp845
(dp846
g16
VDT
p847
sbag5
(g6
g7
(lp848
Vword
p849
atp850
Rp851
(dp852
g16
VNN
p853
sbatp854
Rp855
(dp856
g16
VNP
p857
sbag5
(g6
g7
(lp858
g5
(g6
g7
(lp859
Vis
p860
atp861
Rp862
(dp863
g16
VVBZ
p864
sbag5
(g6
g7
(lp865
g5
(g6
g7
(lp866
Vuttered
p867
atp868
Rp869
(dp870
g16
VVBN
p871
sbag5
(g6
g7
(lp872
g5
(g6
g7
(lp873
Vby
p874
atp875
Rp876
(dp877
g16
VIN
p878
sbag5
(g6
g7
(lp879
g5
(g6
g7
(lp880
g5
(g6
g7
(lp881
g31
atp882
Rp883
(dp884
g16
VDT
p885
sbag5
(g6
g7
(lp886
Vparticular
p887
atp888
Rp889
(dp890
g16
VJJ
p891
sbag5
(g6
g7
(lp892
Vperson
p893
atp894
Rp895
(dp896
g16
VNN
p897
sbatp898
Rp899
(dp900
g16
VNP
p901
sbag5
(g6
g7
(lp902
g5
(g6
g7
(lp903
Vat
p904
atp905
Rp906
(dp907
g16
VIN
p908
sbag5
(g6
g7
(lp909
g5
(g6
g7
(lp910
g31
atp911
Rp912
(dp913
g16
VDT
p914
sbag5
(g6
g7
(lp915
Vparticular
p916
atp917
Rp918
(dp919
g16
VJJ
p920
sbag5
(g6
g7
(lp921
Vplace
p922
atp923
Rp924
(dp925
g16
VNN
p926
sbag5
(g6
g7
(lp927
Vand
p928
atp929
Rp930
(dp931
g16
VCC
p932
sbag5
(g6
g7
(lp933
Vtime
p934
atp935
Rp936
(dp937
g16
VNN
p938
sbatp939
Rp940
(dp941
g16
VNP
p942
sbatp943
Rp944
(dp945
g16
VPP
p946
sbatp947
Rp948
(dp949
g16
VNP
p950
sbatp951
Rp952
(dp953
g16
VPP
p954
sbatp955
Rp956
(dp957
g16
VVP
p958
sbatp959
Rp960
(dp961
g16
VVP
p962
sbatp963
Rp964
(dp965
g16
g200
sbatp966
Rp967
(dp968
g16
VSBAR
p969
sbatp970
Rp971
(dp972
g16
VVP
p973
sbatp974
Rp975
(dp976
g16
g200
sbatp977
Rp978
(dp979
g16
VROOT
p980
sbasg228
(icmyPackage
CorE
p981
(dp982
g231
(lp983
(I0
I31
tp984
a(I1
I39
tp985
asg235
g5
(g6
g7
(lp986
g558
ag812
ag819
ag830
ag837
ag855
ag862
ag869
ag876
ag899
ag906
ag912
ag918
ag924
ag930
atp987
Rp988
(dp989
g16
g246
sbsbsg236
(icmyPackage
CorE
p990
(dp991
g231
(lp992
(I0
I0
tp993
a(I0
I29
tp994
asg235
g5
(g6
g7
(lp995
g472
ag479
ag486
ag529
atp996
Rp997
(dp998
g16
g246
sbsbsg247
(icmyPackage
pattern
p999
(dp1000
g250
I26
sg251
I1
sg252
(lp1001
(lp1002
S'as'
p1003
aasg256
(lp1004
I3
aI1
aI1
asg258
(lp1005
S'You do not need to worry about the operation, as the software is very easy to use.'
p1006
asg261
I80
sg262
(lp1007
(lp1008
S'&R@Complete@'
p1009
aS'(,)'
p1010
aS'(-such/-same/-seem/-regard/-regards/-regarded/-view/-views/-viewed/-denote/-denoted/-denotes)'
p1011
aa(lp1012
S'(-if/-follow/-follows/-&adv)'
p1013
aS'&C@Complete@'
p1014
aasbsg268
(lp1015
(isxpPackage
sxpSent
p1016
(dp1017
g272
(lp1018
I1
asg274
VThe vast textual resources used in NLP u'\u005cu2013' newswire, web text, parliamentary proceedings u'\u005cu2013' can encourage a view of language as a disembodied phenomenon
p1019
sg276
I2
sg261
I4
sg277
I2
sba(isxpPackage
sxpSent
p1020
(dp1021
g272
(lp1022
I1
asg274
VThe rise of social media, however, with its large volume of text paired with information about its author and social context, reminds us that each word is uttered by a particular person at a particular place and time
p1023
sg276
I2
sg261
I5
sg277
I2
sbasba(icmyPackage
CELink
p1024
(dp1025
g3
(lp1026
g5
(g6
g7
(lp1027
g5
(g6
g7
(lp1028
g5
(g6
g7
(lp1029
g5
(g6
g7
(lp1030
g5
(g6
g7
(lp1031
VOne
p1032
atp1033
Rp1034
(dp1035
g16
VCD
p1036
sbag5
(g6
g7
(lp1037
Vdesideratum
p1038
atp1039
Rp1040
(dp1041
g16
VNN
p1042
sbatp1043
Rp1044
(dp1045
g16
VNP
p1046
sbag5
(g6
g7
(lp1047
g5
(g6
g7
(lp1048
g5
(g6
g7
(lp1049
Vthat
p1050
atp1051
Rp1052
(dp1053
g16
VWDT
p1054
sbatp1055
Rp1056
(dp1057
g16
VWHNP
p1058
sbag5
(g6
g7
(lp1059
g5
(g6
g7
(lp1060
g5
(g6
g7
(lp1061
Vremains
p1062
atp1063
Rp1064
(dp1065
g16
VVBZ
p1066
sbag5
(g6
g7
(lp1067
g381
atp1068
Rp1069
(dp1070
g16
g381
sbag5
(g6
g7
(lp1071
g5
(g6
g7
(lp1072
Vhowever
p1073
atp1074
Rp1075
(dp1076
g16
VRB
p1077
sbatp1078
Rp1079
(dp1080
g16
VADVP
p1081
sbatp1082
Rp1083
(dp1084
g16
VVP
p1085
sbatp1086
Rp1087
(dp1088
g16
g200
sbatp1089
Rp1090
(dp1091
g16
VSBAR
p1092
sbatp1093
Rp1094
(dp1095
g16
VNP
p1096
sbag5
(g6
g7
(lp1097
g381
atp1098
Rp1099
(dp1100
g16
g381
sbag5
(g6
g7
(lp1101
g5
(g6
g7
(lp1102
Vis
p1103
atp1104
Rp1105
(dp1106
g16
VVBZ
p1107
sbag5
(g6
g7
(lp1108
g5
(g6
g7
(lp1109
g5
(g6
g7
(lp1110
Vhow
p1111
atp1112
Rp1113
(dp1114
g16
VWRB
p1115
sbatp1116
Rp1117
(dp1118
g16
VWHADVP
p1119
sbag5
(g6
g7
(lp1120
g5
(g6
g7
(lp1121
g5
(g6
g7
(lp1122
g5
(g6
g7
(lp1123
Vthe
p1124
atp1125
Rp1126
(dp1127
g16
VDT
p1128
sbag5
(g6
g7
(lp1129
Vmeaning
p1130
atp1131
Rp1132
(dp1133
g16
VNN
p1134
sbatp1135
Rp1136
(dp1137
g16
VNP
p1138
sbag5
(g6
g7
(lp1139
g5
(g6
g7
(lp1140
Vof
p1141
atp1142
Rp1143
(dp1144
g16
VIN
p1145
sbag5
(g6
g7
(lp1146
g5
(g6
g7
(lp1147
Vthese
p1148
atp1149
Rp1150
(dp1151
g16
VDT
p1152
sbag5
(g6
g7
(lp1153
Vterms
p1154
atp1155
Rp1156
(dp1157
g16
VNNS
p1158
sbatp1159
Rp1160
(dp1161
g16
VNP
p1162
sbatp1163
Rp1164
(dp1165
g16
VPP
p1166
sbatp1167
Rp1168
(dp1169
g16
VNP
p1170
sbag5
(g6
g7
(lp1171
g5
(g6
g7
(lp1172
Vis
p1173
atp1174
Rp1175
(dp1176
g16
VVBZ
p1177
sbag5
(g6
g7
(lp1178
g5
(g6
g7
(lp1179
Vshaped
p1180
atp1181
Rp1182
(dp1183
g16
VVBN
p1184
sbag5
(g6
g7
(lp1185
g5
(g6
g7
(lp1186
Vby
p1187
atp1188
Rp1189
(dp1190
g16
VIN
p1191
sbag5
(g6
g7
(lp1192
g5
(g6
g7
(lp1193
g5
(g6
g7
(lp1194
Vgeographical
p1195
atp1196
Rp1197
(dp1198
g16
VJJ
p1199
sbag5
(g6
g7
(lp1200
Vinfluences
p1201
atp1202
Rp1203
(dp1204
g16
VNNS
p1205
sbag5
(g6
g7
(lp1206
g338
atp1207
Rp1208
(dp1209
g16
VNNS
p1210
sbag5
(g6
g7
(lp1211
g344
atp1212
Rp1213
(dp1214
g16
VPOS
p1215
sbatp1216
Rp1217
(dp1218
g16
VNP
p1219
sbag5
(g6
g7
(lp1220
V\u005c
p1221
atp1222
Rp1223
(dp1224
g16
VJJ
p1225
sbag5
(g6
g7
(lp1226
Vu2013
p1227
atp1228
Rp1229
(dp1230
g16
VNNS
p1231
sbatp1232
Rp1233
(dp1234
g16
VNP
p1235
sbatp1236
Rp1237
(dp1238
g16
VPP
p1239
sbatp1240
Rp1241
(dp1242
g16
VVP
p1243
sbatp1244
Rp1245
(dp1246
g16
VVP
p1247
sbatp1248
Rp1249
(dp1250
g16
g200
sbatp1251
Rp1252
(dp1253
g16
VSBAR
p1254
sbag5
(g6
g7
(lp1255
g344
atp1256
Rp1257
(dp1258
g16
V''
p1259
sbag5
(g6
g7
(lp1260
g5
(g6
g7
(lp1261
Vwhile
p1262
atp1263
Rp1264
(dp1265
g16
VIN
p1266
sbag5
(g6
g7
(lp1267
g5
(g6
g7
(lp1268
g5
(g6
g7
(lp1269
Vwicked
p1270
atp1271
Rp1272
(dp1273
g16
VNNP
p1274
sbatp1275
Rp1276
(dp1277
g16
VNP
p1278
sbag5
(g6
g7
(lp1279
g5
(g6
g7
(lp1280
Vis
p1281
atp1282
Rp1283
(dp1284
g16
VVBZ
p1285
sbag5
(g6
g7
(lp1286
g5
(g6
g7
(lp1287
Vused
p1288
atp1289
Rp1290
(dp1291
g16
VVBN
p1292
sbag5
(g6
g7
(lp1293
g5
(g6
g7
(lp1294
Vthroughout
p1295
atp1296
Rp1297
(dp1298
g16
VIN
p1299
sbag5
(g6
g7
(lp1300
g5
(g6
g7
(lp1301
Vthe
p1302
atp1303
Rp1304
(dp1305
g16
VDT
p1306
sbag5
(g6
g7
(lp1307
VUnited
p1308
atp1309
Rp1310
(dp1311
g16
VNNP
p1312
sbag5
(g6
g7
(lp1313
VStates
p1314
atp1315
Rp1316
(dp1317
g16
VNNPS
p1318
sbatp1319
Rp1320
(dp1321
g16
VNP
p1322
sbatp1323
Rp1324
(dp1325
g16
VPP
p1326
sbag5
(g6
g7
(lp1327
g5
(g6
g7
(lp1328
g5
(g6
g7
(lp1329
Vto
p1330
atp1331
Rp1332
(dp1333
g16
VTO
p1334
sbag5
(g6
g7
(lp1335
g5
(g6
g7
(lp1336
Vmean
p1337
atp1338
Rp1339
(dp1340
g16
VVB
p1341
sbag5
(g6
g7
(lp1342
g5
(g6
g7
(lp1343
g5
(g6
g7
(lp1344
Vbad
p1345
atp1346
Rp1347
(dp1348
g16
VJJ
p1349
sbatp1350
Rp1351
(dp1352
g16
VADJP
p1353
sbag5
(g6
g7
(lp1354
Vor
p1355
atp1356
Rp1357
(dp1358
g16
VCC
p1359
sbag5
(g6
g7
(lp1360
g5
(g6
g7
(lp1361
Vevil
p1362
atp1363
Rp1364
(dp1365
g16
VJJ
p1366
sbatp1367
Rp1368
(dp1369
g16
VADJP
p1370
sbag5
(g6
g7
(lp1371
g5
(g6
g7
(lp1372
V-LRB-
p1373
atp1374
Rp1375
(dp1376
g16
V-LRB-
p1377
sbag5
(g6
g7
(lp1378
g5
(g6
g7
(lp1379
g5
(g6
g7
(lp1380
g5
(g6
g7
(lp1381
g338
atp1382
Rp1383
(dp1384
g16
VNNP
p1385
sbag5
(g6
g7
(lp1386
g344
atp1387
Rp1388
(dp1389
g16
VPOS
p1390
sbatp1391
Rp1392
(dp1393
g16
VNP
p1394
sbag5
(g6
g7
(lp1395
V\u005c
p1396
atp1397
Rp1398
(dp1399
g16
VNN
p1400
sbatp1401
Rp1402
(dp1403
g16
VNP
p1404
sbag5
(g6
g7
(lp1405
g5
(g6
g7
(lp1406
Vu201c
p1407
atp1408
Rp1409
(dp1410
g16
VVBZ
p1411
sbag5
(g6
g7
(lp1412
g344
atp1413
Rp1414
(dp1415
g16
V``
p1416
sbag5
(g6
g7
(lp1417
g5
(g6
g7
(lp1418
g5
(g6
g7
(lp1419
g5
(g6
g7
(lp1420
Vhe
p1421
atp1422
Rp1423
(dp1424
g16
VPRP
p1425
sbatp1426
Rp1427
(dp1428
g16
VNP
p1429
sbag5
(g6
g7
(lp1430
g5
(g6
g7
(lp1431
Vis
p1432
atp1433
Rp1434
(dp1435
g16
VVBZ
p1436
sbag5
(g6
g7
(lp1437
g5
(g6
g7
(lp1438
g5
(g6
g7
(lp1439
g31
atp1440
Rp1441
(dp1442
g16
VDT
p1443
sbag5
(g6
g7
(lp1444
Vwicked
p1445
atp1446
Rp1447
(dp1448
g16
VJJ
p1449
sbag5
(g6
g7
(lp1450
Vman
p1451
atp1452
Rp1453
(dp1454
g16
VNN
p1455
sbag5
(g6
g7
(lp1456
g338
atp1457
Rp1458
(dp1459
g16
VNN
p1460
sbag5
(g6
g7
(lp1461
g344
atp1462
Rp1463
(dp1464
g16
VPOS
p1465
sbatp1466
Rp1467
(dp1468
g16
VNP
p1469
sbag5
(g6
g7
(lp1470
V\u005c
p1471
atp1472
Rp1473
(dp1474
g16
VJJ
p1475
sbag5
(g6
g7
(lp1476
Vu201d
p1477
atp1478
Rp1479
(dp1480
g16
VNNS
p1481
sbatp1482
Rp1483
(dp1484
g16
VNP
p1485
sbatp1486
Rp1487
(dp1488
g16
VVP
p1489
sbatp1490
Rp1491
(dp1492
g16
g200
sbatp1493
Rp1494
(dp1495
g16
VSBAR
p1496
sbag5
(g6
g7
(lp1497
g344
atp1498
Rp1499
(dp1500
g16
V''
p1501
sbatp1502
Rp1503
(dp1504
g16
VVP
p1505
sbatp1506
Rp1507
(dp1508
g16
g200
sbag5
(g6
g7
(lp1509
V-RRB-
p1510
atp1511
Rp1512
(dp1513
g16
V-RRB-
p1514
sbatp1515
Rp1516
(dp1517
g16
VPRN
p1518
sbag5
(g6
g7
(lp1519
g381
atp1520
Rp1521
(dp1522
g16
g381
sbag5
(g6
g7
(lp1523
g5
(g6
g7
(lp1524
g5
(g6
g7
(lp1525
g5
(g6
g7
(lp1526
Vin
p1527
atp1528
Rp1529
(dp1530
g16
VIN
p1531
sbag5
(g6
g7
(lp1532
g5
(g6
g7
(lp1533
g5
(g6
g7
(lp1534
VNew
p1535
atp1536
Rp1537
(dp1538
g16
VNNP
p1539
sbag5
(g6
g7
(lp1540
VEngland
p1541
atp1542
Rp1543
(dp1544
g16
VNNP
p1545
sbatp1546
Rp1547
(dp1548
g16
VNP
p1549
sbag5
(g6
g7
(lp1550
g5
(g6
g7
(lp1551
g5
(g6
g7
(lp1552
g5
(g6
g7
(lp1553
Vit
p1554
atp1555
Rp1556
(dp1557
g16
VPRP
p1558
sbatp1559
Rp1560
(dp1561
g16
VNP
p1562
sbag5
(g6
g7
(lp1563
g5
(g6
g7
(lp1564
Vis
p1565
atp1566
Rp1567
(dp1568
g16
VVBZ
p1569
sbag5
(g6
g7
(lp1570
g5
(g6
g7
(lp1571
Vused
p1572
atp1573
Rp1574
(dp1575
g16
VVBN
p1576
sbag5
(g6
g7
(lp1577
g5
(g6
g7
(lp1578
Vas
p1579
atp1580
Rp1581
(dp1582
g16
VIN
p1583
sbag5
(g6
g7
(lp1584
g5
(g6
g7
(lp1585
g5
(g6
g7
(lp1586
Van
p1587
atp1588
Rp1589
(dp1590
g16
VDT
p1591
sbag5
(g6
g7
(lp1592
Vadverbial
p1593
atp1594
Rp1595
(dp1596
g16
VJJ
p1597
sbag5
(g6
g7
(lp1598
Vintensifier
p1599
atp1600
Rp1601
(dp1602
g16
VNN
p1603
sbatp1604
Rp1605
(dp1606
g16
VNP
p1607
sbag5
(g6
g7
(lp1608
V-LRB-
p1609
atp1610
Rp1611
(dp1612
g16
V-LRB-
p1613
sbag5
(g6
g7
(lp1614
g5
(g6
g7
(lp1615
g338
atp1616
Rp1617
(dp1618
g16
VNN
p1619
sbatp1620
Rp1621
(dp1622
g16
VNP
p1623
sbag5
(g6
g7
(lp1624
g344
atp1625
Rp1626
(dp1627
g16
V''
p1628
sbatp1629
Rp1630
(dp1631
g16
VNP
p1632
sbatp1633
Rp1634
(dp1635
g16
VPP
p1636
sbatp1637
Rp1638
(dp1639
g16
VVP
p1640
sbatp1641
Rp1642
(dp1643
g16
VVP
p1644
sbatp1645
Rp1646
(dp1647
g16
g200
sbatp1648
Rp1649
(dp1650
g16
VSBAR
p1651
sbatp1652
Rp1653
(dp1654
g16
VNP
p1655
sbatp1656
Rp1657
(dp1658
g16
VPP
p1659
sbag5
(g6
g7
(lp1660
g5
(g6
g7
(lp1661
g5
(g6
g7
(lp1662
V\u005c
p1663
atp1664
Rp1665
(dp1666
g16
VNNP
p1667
sbag5
(g6
g7
(lp1668
Vu201c
p1669
atp1670
Rp1671
(dp1672
g16
VNNP
p1673
sbag5
(g6
g7
(lp1674
g344
atp1675
Rp1676
(dp1677
g16
VPOS
p1678
sbatp1679
Rp1680
(dp1681
g16
VNP
p1682
sbag5
(g6
g7
(lp1683
g5
(g6
g7
(lp1684
Vmy
p1685
atp1686
Rp1687
(dp1688
g16
VPRP$
p1689
sbag5
(g6
g7
(lp1690
Vboy
p1691
atp1692
Rp1693
(dp1694
g16
VNN
p1695
sbag5
(g6
g7
(lp1696
g338
atp1697
Rp1698
(dp1699
g16
VNN
p1700
sbag5
(g6
g7
(lp1701
g344
atp1702
Rp1703
(dp1704
g16
VPOS
p1705
sbatp1706
Rp1707
(dp1708
g16
VNP
p1709
sbag5
(g6
g7
(lp1710
V\u005c
p1711
atp1712
Rp1713
(dp1714
g16
VJJ
p1715
sbag5
(g6
g7
(lp1716
Vu2019
p1717
atp1718
Rp1719
(dp1720
g16
VNNS
p1721
sbatp1722
Rp1723
(dp1724
g16
VNP
p1725
sbag5
(g6
g7
(lp1726
g344
atp1727
Rp1728
(dp1729
g16
V''
p1730
sbag5
(g6
g7
(lp1731
g5
(g6
g7
(lp1732
Vs
p1733
atp1734
Rp1735
(dp1736
g16
VVBZ
p1737
sbag5
(g6
g7
(lp1738
g5
(g6
g7
(lp1739
g5
(g6
g7
(lp1740
Vwicked
p1741
atp1742
Rp1743
(dp1744
g16
VJJ
p1745
sbag5
(g6
g7
(lp1746
Vsmart
p1747
atp1748
Rp1749
(dp1750
g16
VJJ
p1751
sbag5
(g6
g7
(lp1752
g338
atp1753
Rp1754
(dp1755
g16
VNN
p1756
sbag5
(g6
g7
(lp1757
g344
atp1758
Rp1759
(dp1760
g16
VPOS
p1761
sbatp1762
Rp1763
(dp1764
g16
VNP
p1765
sbag5
(g6
g7
(lp1766
V\u005c
p1767
atp1768
Rp1769
(dp1770
g16
VNNP
p1771
sbag5
(g6
g7
(lp1772
Vu201d
p1773
atp1774
Rp1775
(dp1776
g16
VNNP
p1777
sbag5
(g6
g7
(lp1778
g344
atp1779
Rp1780
(dp1781
g16
V''
p1782
sbatp1783
Rp1784
(dp1785
g16
VNP
p1786
sbatp1787
Rp1788
(dp1789
g16
VVP
p1790
sbatp1791
Rp1792
(dp1793
g16
g200
sbatp1794
Rp1795
(dp1796
g16
VSBAR
p1797
sbatp1798
Rp1799
(dp1800
g16
VADJP
p1801
sbatp1802
Rp1803
(dp1804
g16
VVP
p1805
sbatp1806
Rp1807
(dp1808
g16
VVP
p1809
sbatp1810
Rp1811
(dp1812
g16
g200
sbatp1813
Rp1814
(dp1815
g16
VVP
p1816
sbatp1817
Rp1818
(dp1819
g16
VVP
p1820
sbatp1821
Rp1822
(dp1823
g16
g200
sbatp1824
Rp1825
(dp1826
g16
VSBAR
p1827
sbatp1828
Rp1829
(dp1830
g16
VVP
p1831
sbatp1832
Rp1833
(dp1834
g16
g200
sbatp1835
Rp1836
(dp1837
g16
VROOT
p1838
sbasg228
(icmyPackage
CorE
p1839
(dp1840
g231
(lp1841
(I0
I62
tp1842
a(I0
I85
tp1843
asg235
g5
(g6
g7
(lp1844
g1630
ag1723
ag1728
ag1788
atp1845
Rp1846
(dp1847
g16
g246
sbsbsg236
(icmyPackage
CorE
p1848
(dp1849
g231
(lp1850
(I0
I0
tp1851
a(I0
I60
tp1852
asg235
g5
(g6
g7
(lp1853
g1094
ag1099
ag1105
ag1252
ag1257
ag1264
ag1276
ag1283
ag1290
ag1324
ag1332
ag1339
ag1351
ag1357
ag1368
ag1516
ag1521
ag1529
ag1547
ag1560
ag1567
ag1574
atp1854
Rp1855
(dp1856
g16
g246
sbsbsg247
g999
sg268
(lp1857
(isxpPackage
sxpSent
p1858
(dp1859
g272
(lp1860
I2
asg274
VOne desideratum that remains, however, is how the meaning of these terms is shaped by geographical influences u'\u005cu2013' while wicked is used throughout the United States to mean bad or evil ( u'\u005cu201c' he is a wicked man u'\u005cu201d' ), in New England it is used as an adverbial intensifier ( u'\u005cu201c' my boy u'\u005cu2019' s wicked smart u'\u005cu201d'
p1861
sg276
I2
sg261
I9
sg277
I3
sbasba(icmyPackage
CELink
p1862
(dp1863
g3
(lp1864
g5
(g6
g7
(lp1865
g5
(g6
g7
(lp1866
g5
(g6
g7
(lp1867
g5
(g6
g7
(lp1868
g5
(g6
g7
(lp1869
VIn
p1870
atp1871
Rp1872
(dp1873
g16
VIN
p1874
sbag5
(g6
g7
(lp1875
g5
(g6
g7
(lp1876
g5
(g6
g7
(lp1877
Vbringing
p1878
atp1879
Rp1880
(dp1881
g16
VVBG
p1882
sbag5
(g6
g7
(lp1883
g5
(g6
g7
(lp1884
Vin
p1885
atp1886
Rp1887
(dp1888
g16
VIN
p1889
sbag5
(g6
g7
(lp1890
g5
(g6
g7
(lp1891
Vextra-linguistic
p1892
atp1893
Rp1894
(dp1895
g16
VJJ
p1896
sbag5
(g6
g7
(lp1897
Vinformation
p1898
atp1899
Rp1900
(dp1901
g16
VNN
p1902
sbatp1903
Rp1904
(dp1905
g16
VNP
p1906
sbatp1907
Rp1908
(dp1909
g16
VPP
p1910
sbag5
(g6
g7
(lp1911
g5
(g6
g7
(lp1912
g5
(g6
g7
(lp1913
Vto
p1914
atp1915
Rp1916
(dp1917
g16
VTO
p1918
sbag5
(g6
g7
(lp1919
g5
(g6
g7
(lp1920
Vlearn
p1921
atp1922
Rp1923
(dp1924
g16
VVB
p1925
sbag5
(g6
g7
(lp1926
g5
(g6
g7
(lp1927
Vword
p1928
atp1929
Rp1930
(dp1931
g16
VNN
p1932
sbag5
(g6
g7
(lp1933
Vrepresentations
p1934
atp1935
Rp1936
(dp1937
g16
VNNS
p1938
sbatp1939
Rp1940
(dp1941
g16
VNP
p1942
sbatp1943
Rp1944
(dp1945
g16
VVP
p1946
sbatp1947
Rp1948
(dp1949
g16
VVP
p1950
sbatp1951
Rp1952
(dp1953
g16
g200
sbatp1954
Rp1955
(dp1956
g16
VVP
p1957
sbatp1958
Rp1959
(dp1960
g16
g200
sbatp1961
Rp1962
(dp1963
g16
VPP
p1964
sbag5
(g6
g7
(lp1965
g381
atp1966
Rp1967
(dp1968
g16
g381
sbag5
(g6
g7
(lp1969
g5
(g6
g7
(lp1970
Vour
p1971
atp1972
Rp1973
(dp1974
g16
VPRP$
p1975
sbag5
(g6
g7
(lp1976
Vwork
p1977
atp1978
Rp1979
(dp1980
g16
VNN
p1981
sbatp1982
Rp1983
(dp1984
g16
VNP
p1985
sbag5
(g6
g7
(lp1986
g5
(g6
g7
(lp1987
Vfalls
p1988
atp1989
Rp1990
(dp1991
g16
VVBZ
p1992
sbag5
(g6
g7
(lp1993
g5
(g6
g7
(lp1994
Vinto
p1995
atp1996
Rp1997
(dp1998
g16
VIN
p1999
sbag5
(g6
g7
(lp2000
g5
(g6
g7
(lp2001
g5
(g6
g7
(lp2002
Vthe
p2003
atp2004
Rp2005
(dp2006
g16
VDT
p2007
sbag5
(g6
g7
(lp2008
Vgeneral
p2009
atp2010
Rp2011
(dp2012
g16
VJJ
p2013
sbag5
(g6
g7
(lp2014
Vdomain
p2015
atp2016
Rp2017
(dp2018
g16
VNN
p2019
sbatp2020
Rp2021
(dp2022
g16
VNP
p2023
sbag5
(g6
g7
(lp2024
g5
(g6
g7
(lp2025
Vof
p2026
atp2027
Rp2028
(dp2029
g16
VIN
p2030
sbag5
(g6
g7
(lp2031
g5
(g6
g7
(lp2032
Vmultimodal
p2033
atp2034
Rp2035
(dp2036
g16
VJJ
p2037
sbag5
(g6
g7
(lp2038
Vlearning
p2039
atp2040
Rp2041
(dp2042
g16
VNN
p2043
sbatp2044
Rp2045
(dp2046
g16
VNP
p2047
sbatp2048
Rp2049
(dp2050
g16
VPP
p2051
sbatp2052
Rp2053
(dp2054
g16
VNP
p2055
sbatp2056
Rp2057
(dp2058
g16
VPP
p2059
sbatp2060
Rp2061
(dp2062
g16
VVP
p2063
sbatp2064
Rp2065
(dp2066
g16
g200
sbag5
(g6
g7
(lp2067
V;
p2068
atp2069
Rp2070
(dp2071
g16
V:
p2072
sbag5
(g6
g7
(lp2073
g5
(g6
g7
(lp2074
g5
(g6
g7
(lp2075
Vwhile
p2076
atp2077
Rp2078
(dp2079
g16
VIN
p2080
sbag5
(g6
g7
(lp2081
g5
(g6
g7
(lp2082
g5
(g6
g7
(lp2083
Vother
p2084
atp2085
Rp2086
(dp2087
g16
VJJ
p2088
sbag5
(g6
g7
(lp2089
Vwork
p2090
atp2091
Rp2092
(dp2093
g16
VNN
p2094
sbatp2095
Rp2096
(dp2097
g16
VNP
p2098
sbag5
(g6
g7
(lp2099
g5
(g6
g7
(lp2100
Vhas
p2101
atp2102
Rp2103
(dp2104
g16
VVBZ
p2105
sbag5
(g6
g7
(lp2106
g5
(g6
g7
(lp2107
Vused
p2108
atp2109
Rp2110
(dp2111
g16
VVBN
p2112
sbag5
(g6
g7
(lp2113
g5
(g6
g7
(lp2114
Vvisual
p2115
atp2116
Rp2117
(dp2118
g16
VJJ
p2119
sbag5
(g6
g7
(lp2120
Vinformation
p2121
atp2122
Rp2123
(dp2124
g16
VNN
p2125
sbatp2126
Rp2127
(dp2128
g16
VNP
p2129
sbag5
(g6
g7
(lp2130
g5
(g6
g7
(lp2131
g5
(g6
g7
(lp2132
Vto
p2133
atp2134
Rp2135
(dp2136
g16
VTO
p2137
sbag5
(g6
g7
(lp2138
g5
(g6
g7
(lp2139
Vimprove
p2140
atp2141
Rp2142
(dp2143
g16
VVB
p2144
sbag5
(g6
g7
(lp2145
g5
(g6
g7
(lp2146
Vdistributed
p2147
atp2148
Rp2149
(dp2150
g16
VVBN
p2151
sbag5
(g6
g7
(lp2152
g5
(g6
g7
(lp2153
g5
(g6
g7
(lp2154
g5
(g6
g7
(lp2155
Vrepresentations
p2156
atp2157
Rp2158
(dp2159
g16
VNNP
p2160
sbag5
(g6
g7
(lp2161
V-LSB-
p2162
atp2163
Rp2164
(dp2165
g16
VNNP
p2166
sbag5
(g6
g7
(lp2167
V-RSB-
p2168
atp2169
Rp2170
(dp2171
g16
VNNP
p2172
sbatp2173
Rp2174
(dp2175
g16
VNP
p2176
sbag5
(g6
g7
(lp2177
g381
atp2178
Rp2179
(dp2180
g16
g381
sbag5
(g6
g7
(lp2181
g5
(g6
g7
(lp2182
g5
(g6
g7
(lp2183
g5
(g6
g7
(lp2184
Vthis
p2185
atp2186
Rp2187
(dp2188
g16
VDT
p2189
sbag5
(g6
g7
(lp2190
Vwork
p2191
atp2192
Rp2193
(dp2194
g16
VNN
p2195
sbatp2196
Rp2197
(dp2198
g16
VNP
p2199
sbag5
(g6
g7
(lp2200
g5
(g6
g7
(lp2201
g5
(g6
g7
(lp2202
Vgenerally
p2203
atp2204
Rp2205
(dp2206
g16
VRB
p2207
sbatp2208
Rp2209
(dp2210
g16
VADVP
p2211
sbag5
(g6
g7
(lp2212
Vexploits
p2213
atp2214
Rp2215
(dp2216
g16
VVBN
p2217
sbag5
(g6
g7
(lp2218
g5
(g6
g7
(lp2219
Vinformation
p2220
atp2221
Rp2222
(dp2223
g16
VNN
p2224
sbatp2225
Rp2226
(dp2227
g16
VNP
p2228
sbag5
(g6
g7
(lp2229
g5
(g6
g7
(lp2230
Vabout
p2231
atp2232
Rp2233
(dp2234
g16
VIN
p2235
sbag5
(g6
g7
(lp2236
g5
(g6
g7
(lp2237
g5
(g6
g7
(lp2238
Vthe
p2239
atp2240
Rp2241
(dp2242
g16
VDT
p2243
sbag5
(g6
g7
(lp2244
Vobject
p2245
atp2246
Rp2247
(dp2248
g16
VNN
p2249
sbatp2250
Rp2251
(dp2252
g16
VNP
p2253
sbag5
(g6
g7
(lp2254
g5
(g6
g7
(lp2255
Vbeing
p2256
atp2257
Rp2258
(dp2259
g16
VVBG
p2260
sbag5
(g6
g7
(lp2261
g5
(g6
g7
(lp2262
Vdescribed
p2263
atp2264
Rp2265
(dp2266
g16
VVBN
p2267
sbag5
(g6
g7
(lp2268
V-LRB-
p2269
atp2270
Rp2271
(dp2272
g16
V-LRB-
p2273
sbag5
(g6
g7
(lp2274
g5
(g6
g7
(lp2275
Ve.g.
p2276
atp2277
Rp2278
(dp2279
g16
VNNP
p2280
sbatp2281
Rp2282
(dp2283
g16
VNP
p2284
sbag5
(g6
g7
(lp2285
g381
atp2286
Rp2287
(dp2288
g16
g381
sbatp2289
Rp2290
(dp2291
g16
VVP
p2292
sbatp2293
Rp2294
(dp2295
g16
VVP
p2296
sbatp2297
Rp2298
(dp2299
g16
VNP
p2300
sbatp2301
Rp2302
(dp2303
g16
VPP
p2304
sbag5
(g6
g7
(lp2305
g381
atp2306
Rp2307
(dp2308
g16
g381
sbag5
(g6
g7
(lp2309
g5
(g6
g7
(lp2310
Vstrawberry
p2311
atp2312
Rp2313
(dp2314
g16
VRB
p2315
sbatp2316
Rp2317
(dp2318
g16
VADVP
p2319
sbatp2320
Rp2321
(dp2322
g16
VVP
p2323
sbatp2324
Rp2325
(dp2326
g16
VNP
p2327
sbag5
(g6
g7
(lp2328
Vand
p2329
atp2330
Rp2331
(dp2332
g16
VCC
p2333
sbag5
(g6
g7
(lp2334
g5
(g6
g7
(lp2335
g5
(g6
g7
(lp2336
g31
atp2337
Rp2338
(dp2339
g16
VDT
p2340
sbag5
(g6
g7
(lp2341
Vpicture
p2342
atp2343
Rp2344
(dp2345
g16
VNN
p2346
sbatp2347
Rp2348
(dp2349
g16
VNP
p2350
sbag5
(g6
g7
(lp2351
g5
(g6
g7
(lp2352
Vof
p2353
atp2354
Rp2355
(dp2356
g16
VIN
p2357
sbag5
(g6
g7
(lp2358
g5
(g6
g7
(lp2359
g31
atp2360
Rp2361
(dp2362
g16
VDT
p2363
sbag5
(g6
g7
(lp2364
Vstrawberry
p2365
atp2366
Rp2367
(dp2368
g16
VNN
p2369
sbatp2370
Rp2371
(dp2372
g16
VNP
p2373
sbatp2374
Rp2375
(dp2376
g16
VPP
p2377
sbatp2378
Rp2379
(dp2380
g16
VNP
p2381
sbatp2382
Rp2383
(dp2384
g16
VNP
p2385
sbag5
(g6
g7
(lp2386
V-RRB-
p2387
atp2388
Rp2389
(dp2390
g16
V-RRB-
p2391
sbatp2392
Rp2393
(dp2394
g16
VNP
p2395
sbag5
(g6
g7
(lp2396
g2068
atp2397
Rp2398
(dp2399
g16
g2072
sbag5
(g6
g7
(lp2400
g5
(g6
g7
(lp2401
g5
(g6
g7
(lp2402
Vin
p2403
atp2404
Rp2405
(dp2406
g16
VIN
p2407
sbag5
(g6
g7
(lp2408
g5
(g6
g7
(lp2409
Vcontrast
p2410
atp2411
Rp2412
(dp2413
g16
VNN
p2414
sbatp2415
Rp2416
(dp2417
g16
VNP
p2418
sbatp2419
Rp2420
(dp2421
g16
VPP
p2422
sbag5
(g6
g7
(lp2423
g381
atp2424
Rp2425
(dp2426
g16
g381
sbag5
(g6
g7
(lp2427
g5
(g6
g7
(lp2428
Vwe
p2429
atp2430
Rp2431
(dp2432
g16
VPRP
p2433
sbatp2434
Rp2435
(dp2436
g16
VNP
p2437
sbag5
(g6
g7
(lp2438
g5
(g6
g7
(lp2439
Vuse
p2440
atp2441
Rp2442
(dp2443
g16
VVBP
p2444
sbag5
(g6
g7
(lp2445
g5
(g6
g7
(lp2446
Vinformation
p2447
atp2448
Rp2449
(dp2450
g16
VNN
p2451
sbatp2452
Rp2453
(dp2454
g16
VNP
p2455
sbag5
(g6
g7
(lp2456
g5
(g6
g7
(lp2457
Vabout
p2458
atp2459
Rp2460
(dp2461
g16
VIN
p2462
sbag5
(g6
g7
(lp2463
g5
(g6
g7
(lp2464
Vthe
p2465
atp2466
Rp2467
(dp2468
g16
VDT
p2469
sbag5
(g6
g7
(lp2470
Vspeaker
p2471
atp2472
Rp2473
(dp2474
g16
VNN
p2475
sbag5
(g6
g7
(lp2476
g5
(g6
g7
(lp2477
g5
(g6
g7
(lp2478
Vto
p2479
atp2480
Rp2481
(dp2482
g16
VTO
p2483
sbag5
(g6
g7
(lp2484
g5
(g6
g7
(lp2485
Vlearn
p2486
atp2487
Rp2488
(dp2489
g16
VVB
p2490
sbag5
(g6
g7
(lp2491
g5
(g6
g7
(lp2492
g5
(g6
g7
(lp2493
Vrepresentations
p2494
atp2495
Rp2496
(dp2497
g16
VNNS
p2498
sbatp2499
Rp2500
(dp2501
g16
VNP
p2502
sbag5
(g6
g7
(lp2503
g5
(g6
g7
(lp2504
g5
(g6
g7
(lp2505
Vthat
p2506
atp2507
Rp2508
(dp2509
g16
VWDT
p2510
sbatp2511
Rp2512
(dp2513
g16
VWHNP
p2514
sbag5
(g6
g7
(lp2515
g5
(g6
g7
(lp2516
g5
(g6
g7
(lp2517
Vvary
p2518
atp2519
Rp2520
(dp2521
g16
VVBP
p2522
sbag5
(g6
g7
(lp2523
g5
(g6
g7
(lp2524
Vaccording
p2525
atp2526
Rp2527
(dp2528
g16
VVBG
p2529
sbag5
(g6
g7
(lp2530
g5
(g6
g7
(lp2531
Vto
p2532
atp2533
Rp2534
(dp2535
g16
VTO
p2536
sbag5
(g6
g7
(lp2537
g5
(g6
g7
(lp2538
g5
(g6
g7
(lp2539
Vcontextual
p2540
atp2541
Rp2542
(dp2543
g16
VJJ
p2544
sbag5
(g6
g7
(lp2545
Vvariables
p2546
atp2547
Rp2548
(dp2549
g16
VNNS
p2550
sbatp2551
Rp2552
(dp2553
g16
VNP
p2554
sbag5
(g6
g7
(lp2555
g5
(g6
g7
(lp2556
Vfrom
p2557
atp2558
Rp2559
(dp2560
g16
VIN
p2561
sbag5
(g6
g7
(lp2562
g5
(g6
g7
(lp2563
g5
(g6
g7
(lp2564
Vthe
p2565
atp2566
Rp2567
(dp2568
g16
VDT
p2569
sbag5
(g6
g7
(lp2570
Vspeaker
p2571
atp2572
Rp2573
(dp2574
g16
VNN
p2575
sbag5
(g6
g7
(lp2576
g338
atp2577
Rp2578
(dp2579
g16
VNN
p2580
sbag5
(g6
g7
(lp2581
g344
atp2582
Rp2583
(dp2584
g16
VPOS
p2585
sbatp2586
Rp2587
(dp2588
g16
VNP
p2589
sbag5
(g6
g7
(lp2590
V\u005c
p2591
atp2592
Rp2593
(dp2594
g16
VJJ
p2595
sbag5
(g6
g7
(lp2596
Vu2019
p2597
atp2598
Rp2599
(dp2600
g16
VNNS
p2601
sbatp2602
Rp2603
(dp2604
g16
VNP
p2605
sbatp2606
Rp2607
(dp2608
g16
VPP
p2609
sbatp2610
Rp2611
(dp2612
g16
VNP
p2613
sbatp2614
Rp2615
(dp2616
g16
VPP
p2617
sbatp2618
Rp2619
(dp2620
g16
VPP
p2621
sbatp2622
Rp2623
(dp2624
g16
VVP
p2625
sbatp2626
Rp2627
(dp2628
g16
g200
sbatp2629
Rp2630
(dp2631
g16
VSBAR
p2632
sbatp2633
Rp2634
(dp2635
g16
VNP
p2636
sbatp2637
Rp2638
(dp2639
g16
VVP
p2640
sbatp2641
Rp2642
(dp2643
g16
VVP
p2644
sbatp2645
Rp2646
(dp2647
g16
g200
sbatp2648
Rp2649
(dp2650
g16
VNP
p2651
sbatp2652
Rp2653
(dp2654
g16
VPP
p2655
sbatp2656
Rp2657
(dp2658
g16
VVP
p2659
sbag5
(g6
g7
(lp2660
g344
atp2661
Rp2662
(dp2663
g16
V''
p2664
sbatp2665
Rp2666
(dp2667
g16
g200
sbatp2668
Rp2669
(dp2670
g16
VNP
p2671
sbatp2672
Rp2673
(dp2674
g16
VVP
p2675
sbatp2676
Rp2677
(dp2678
g16
VVP
p2679
sbatp2680
Rp2681
(dp2682
g16
VVP
p2683
sbatp2684
Rp2685
(dp2686
g16
g200
sbatp2687
Rp2688
(dp2689
g16
VVP
p2690
sbatp2691
Rp2692
(dp2693
g16
VVP
p2694
sbatp2695
Rp2696
(dp2697
g16
g200
sbatp2698
Rp2699
(dp2700
g16
VSBAR
p2701
sbag5
(g6
g7
(lp2702
g5
(g6
g7
(lp2703
g1733
atp2704
Rp2705
(dp2706
g16
VVBZ
p2707
sbag5
(g6
g7
(lp2708
g5
(g6
g7
(lp2709
Vperspective
p2710
atp2711
Rp2712
(dp2713
g16
VNN
p2714
sbatp2715
Rp2716
(dp2717
g16
VNP
p2718
sbatp2719
Rp2720
(dp2721
g16
VVP
p2722
sbatp2723
Rp2724
(dp2725
g16
g200
sbatp2726
Rp2727
(dp2728
g16
g200
sbatp2729
Rp2730
(dp2731
g16
VROOT
p2732
sbasg228
(icmyPackage
CorE
p2733
(dp2734
g231
(lp2735
(I0
I74
tp2736
a(I0
I82
tp2737
asg235
g2611
sbsg236
(icmyPackage
CorE
p2738
(dp2739
g231
(lp2740
(I0
I0
tp2741
a(I0
I71
tp2742
asg235
g5
(g6
g7
(lp2743
g2065
ag2070
ag2078
ag2096
ag2103
ag2110
ag2127
ag2135
ag2142
ag2149
ag2393
ag2398
ag2420
ag2425
ag2435
ag2442
ag2453
ag2460
ag2467
ag2473
ag2481
ag2488
ag2500
ag2512
ag2520
atp2744
Rp2745
(dp2746
g16
g246
sbsbsg247
(icmyPackage
pattern
p2747
(dp2748
g250
I0
sg251
I0
sg252
(lp2749
(lp2750
S'according'
p2751
aS'to'
p2752
aasg256
(lp2753
I2
aI1
aI1
asg258
(lp2754
S'There could be different ways to arrange pictures in displays but picture should be selected according to the core sentences and arranged near the core sentences according to the semantic locality principle.'
p2755
asg261
I55
sg262
(lp2756
(lp2757
S'&R'
p2758
aS'(,)'
p2759
aa(lp2760
S'&NP@C@'
p2761
aasbsg268
(lp2762
(isxpPackage
sxpSent
p2763
(dp2764
g272
(lp2765
I3
asg274
VIn bringing in extra-linguistic information to learn word representations, our work falls into the general domain of multimodal learning; while other work has used visual information to improve distributed representations [] , this work generally exploits information about the object being described (e.g.,, strawberry and a picture of a strawberry); in contrast, we use information about the speaker to learn representations that vary according to contextual variables from the speaker u'\u005cu2019' s perspective
p2766
sg276
I2
sg261
I13
sg277
I4
sbasba(icmyPackage
CELink
p2767
(dp2768
g3
(lp2769
g5
(g6
g7
(lp2770
g5
(g6
g7
(lp2771
g5
(g6
g7
(lp2772
g5
(g6
g7
(lp2773
g5
(g6
g7
(lp2774
g5
(g6
g7
(lp2775
VThe
p2776
atp2777
Rp2778
(dp2779
g16
VDT
p2780
sbag5
(g6
g7
(lp2781
Vmodel
p2782
atp2783
Rp2784
(dp2785
g16
VNN
p2786
sbatp2787
Rp2788
(dp2789
g16
VNP
p2790
sbag5
(g6
g7
(lp2791
g5
(g6
g7
(lp2792
g5
(g6
g7
(lp2793
g5
(g6
g7
(lp2794
Vwe
p2795
atp2796
Rp2797
(dp2798
g16
VPRP
p2799
sbatp2800
Rp2801
(dp2802
g16
VNP
p2803
sbag5
(g6
g7
(lp2804
g5
(g6
g7
(lp2805
Vintroduce
p2806
atp2807
Rp2808
(dp2809
g16
VVB
p2810
sbatp2811
Rp2812
(dp2813
g16
VVP
p2814
sbatp2815
Rp2816
(dp2817
g16
g200
sbatp2818
Rp2819
(dp2820
g16
VSBAR
p2821
sbatp2822
Rp2823
(dp2824
g16
VNP
p2825
sbag5
(g6
g7
(lp2826
g5
(g6
g7
(lp2827
Vis
p2828
atp2829
Rp2830
(dp2831
g16
VVBZ
p2832
sbag5
(g6
g7
(lp2833
g5
(g6
g7
(lp2834
Vgrounded
p2835
atp2836
Rp2837
(dp2838
g16
VVBN
p2839
sbag5
(g6
g7
(lp2840
g5
(g6
g7
(lp2841
Vin
p2842
atp2843
Rp2844
(dp2845
g16
VIN
p2846
sbag5
(g6
g7
(lp2847
g5
(g6
g7
(lp2848
Vthe
p2849
atp2850
Rp2851
(dp2852
g16
VDT
p2853
sbag5
(g6
g7
(lp2854
Vdistributional
p2855
atp2856
Rp2857
(dp2858
g16
VJJ
p2859
sbag5
(g6
g7
(lp2860
Vhypothesis
p2861
atp2862
Rp2863
(dp2864
g16
VJJ
p2865
sbag5
(g6
g7
(lp2866
V-LSB-
p2867
atp2868
Rp2869
(dp2870
g16
VNN
p2871
sbag5
(g6
g7
(lp2872
V-RSB-
p2873
atp2874
Rp2875
(dp2876
g16
VNN
p2877
sbatp2878
Rp2879
(dp2880
g16
VNP
p2881
sbatp2882
Rp2883
(dp2884
g16
VPP
p2885
sbatp2886
Rp2887
(dp2888
g16
VVP
p2889
sbatp2890
Rp2891
(dp2892
g16
VVP
p2893
sbatp2894
Rp2895
(dp2896
g16
g200
sbag5
(g6
g7
(lp2897
g381
atp2898
Rp2899
(dp2900
g16
g381
sbag5
(g6
g7
(lp2901
g5
(g6
g7
(lp2902
Vthat
p2903
atp2904
Rp2905
(dp2906
g16
VWDT
p2907
sbag5
(g6
g7
(lp2908
Vtwo
p2909
atp2910
Rp2911
(dp2912
g16
VCD
p2913
sbag5
(g6
g7
(lp2914
Vwords
p2915
atp2916
Rp2917
(dp2918
g16
VNNS
p2919
sbatp2920
Rp2921
(dp2922
g16
VWHNP
p2923
sbag5
(g6
g7
(lp2924
g5
(g6
g7
(lp2925
g5
(g6
g7
(lp2926
Vare
p2927
atp2928
Rp2929
(dp2930
g16
VVBP
p2931
sbag5
(g6
g7
(lp2932
g5
(g6
g7
(lp2933
Vsimilar
p2934
atp2935
Rp2936
(dp2937
g16
VJJ
p2938
sbag5
(g6
g7
(lp2939
g5
(g6
g7
(lp2940
Vby
p2941
atp2942
Rp2943
(dp2944
g16
VIN
p2945
sbag5
(g6
g7
(lp2946
g5
(g6
g7
(lp2947
g5
(g6
g7
(lp2948
Vappearing
p2949
atp2950
Rp2951
(dp2952
g16
VVBG
p2953
sbag5
(g6
g7
(lp2954
g5
(g6
g7
(lp2955
Vin
p2956
atp2957
Rp2958
(dp2959
g16
VIN
p2960
sbag5
(g6
g7
(lp2961
g5
(g6
g7
(lp2962
g5
(g6
g7
(lp2963
Vthe
p2964
atp2965
Rp2966
(dp2967
g16
VDT
p2968
sbag5
(g6
g7
(lp2969
Vsame
p2970
atp2971
Rp2972
(dp2973
g16
VJJ
p2974
sbag5
(g6
g7
(lp2975
Vkinds
p2976
atp2977
Rp2978
(dp2979
g16
VNNS
p2980
sbatp2981
Rp2982
(dp2983
g16
VNP
p2984
sbag5
(g6
g7
(lp2985
g5
(g6
g7
(lp2986
Vof
p2987
atp2988
Rp2989
(dp2990
g16
VIN
p2991
sbag5
(g6
g7
(lp2992
g5
(g6
g7
(lp2993
g5
(g6
g7
(lp2994
g5
(g6
g7
(lp2995
Vcontexts
p2996
atp2997
Rp2998
(dp2999
g16
VNNS
p3000
sbatp3001
Rp3002
(dp3003
g16
VNP
p3004
sbag5
(g6
g7
(lp3005
V-LRB-
p3006
atp3007
Rp3008
(dp3009
g16
V-LRB-
p3010
sbag5
(g6
g7
(lp3011
g5
(g6
g7
(lp3012
g5
(g6
g7
(lp3013
Vwhere
p3014
atp3015
Rp3016
(dp3017
g16
VWRB
p3018
sbatp3019
Rp3020
(dp3021
g16
VWHADVP
p3022
sbag5
(g6
g7
(lp3023
g5
(g6
g7
(lp3024
g5
(g6
g7
(lp3025
g338
atp3026
Rp3027
(dp3028
g16
VNN
p3029
sbatp3030
Rp3031
(dp3032
g16
VNP
p3033
sbag5
(g6
g7
(lp3034
g5
(g6
g7
(lp3035
g344
atp3036
Rp3037
(dp3038
g16
V``
p3039
sbag5
(g6
g7
(lp3040
V\u005c
p3041
atp3042
Rp3043
(dp3044
g16
VVBZ
p3045
sbag5
(g6
g7
(lp3046
g5
(g6
g7
(lp3047
g5
(g6
g7
(lp3048
Vu201c
p3049
atp3050
Rp3051
(dp3052
g16
VNNP
p3053
sbag5
(g6
g7
(lp3054
g344
atp3055
Rp3056
(dp3057
g16
VPOS
p3058
sbatp3059
Rp3060
(dp3061
g16
VNP
p3062
sbag5
(g6
g7
(lp3063
Vcontext
p3064
atp3065
Rp3066
(dp3067
g16
VNN
p3068
sbatp3069
Rp3070
(dp3071
g16
VNP
p3072
sbag5
(g6
g7
(lp3073
g5
(g6
g7
(lp3074
g338
atp3075
Rp3076
(dp3077
g16
VRB
p3078
sbatp3079
Rp3080
(dp3081
g16
VADVP
p3082
sbag5
(g6
g7
(lp3083
g344
atp3084
Rp3085
(dp3086
g16
V''
p3087
sbag5
(g6
g7
(lp3088
g5
(g6
g7
(lp3089
g5
(g6
g7
(lp3090
V\u005c
p3091
atp3092
Rp3093
(dp3094
g16
VJJ
p3095
sbag5
(g6
g7
(lp3096
Vu201d
p3097
atp3098
Rp3099
(dp3100
g16
VNNS
p3101
sbatp3102
Rp3103
(dp3104
g16
VNP
p3105
sbag5
(g6
g7
(lp3106
g344
atp3107
Rp3108
(dp3109
g16
V''
p3110
sbag5
(g6
g7
(lp3111
g5
(g6
g7
(lp3112
g5
(g6
g7
(lp3113
g5
(g6
g7
(lp3114
Vitself
p3115
atp3116
Rp3117
(dp3118
g16
VPRP
p3119
sbatp3120
Rp3121
(dp3122
g16
VNP
p3123
sbag5
(g6
g7
(lp3124
g5
(g6
g7
(lp3125
Vcan
p3126
atp3127
Rp3128
(dp3129
g16
VMD
p3130
sbag5
(g6
g7
(lp3131
g5
(g6
g7
(lp3132
Vbe
p3133
atp3134
Rp3135
(dp3136
g16
VVB
p3137
sbag5
(g6
g7
(lp3138
g5
(g6
g7
(lp3139
g5
(g6
g7
(lp3140
Vvariously
p3141
atp3142
Rp3143
(dp3144
g16
VRB
p3145
sbatp3146
Rp3147
(dp3148
g16
VADVP
p3149
sbag5
(g6
g7
(lp3150
Vdefined
p3151
atp3152
Rp3153
(dp3154
g16
VVBN
p3155
sbag5
(g6
g7
(lp3156
g5
(g6
g7
(lp3157
Vas
p3158
atp3159
Rp3160
(dp3161
g16
VIN
p3162
sbag5
(g6
g7
(lp3163
g5
(g6
g7
(lp3164
g5
(g6
g7
(lp3165
Vthe
p3166
atp3167
Rp3168
(dp3169
g16
VDT
p3170
sbag5
(g6
g7
(lp3171
Vbag
p3172
atp3173
Rp3174
(dp3175
g16
VNN
p3176
sbag5
(g6
g7
(lp3177
Vor
p3178
atp3179
Rp3180
(dp3181
g16
VCC
p3182
sbag5
(g6
g7
(lp3183
Vsequence
p3184
atp3185
Rp3186
(dp3187
g16
VNN
p3188
sbatp3189
Rp3190
(dp3191
g16
VNP
p3192
sbag5
(g6
g7
(lp3193
g5
(g6
g7
(lp3194
Vof
p3195
atp3196
Rp3197
(dp3198
g16
VIN
p3199
sbag5
(g6
g7
(lp3200
g5
(g6
g7
(lp3201
g5
(g6
g7
(lp3202
Vtokens
p3203
atp3204
Rp3205
(dp3206
g16
VNNS
p3207
sbatp3208
Rp3209
(dp3210
g16
VNP
p3211
sbag5
(g6
g7
(lp3212
g5
(g6
g7
(lp3213
Varound
p3214
atp3215
Rp3216
(dp3217
g16
VIN
p3218
sbag5
(g6
g7
(lp3219
g5
(g6
g7
(lp3220
g31
atp3221
Rp3222
(dp3223
g16
VDT
p3224
sbag5
(g6
g7
(lp3225
Vtarget
p3226
atp3227
Rp3228
(dp3229
g16
VNN
p3230
sbag5
(g6
g7
(lp3231
Vword
p3232
atp3233
Rp3234
(dp3235
g16
VNN
p3236
sbatp3237
Rp3238
(dp3239
g16
VNP
p3240
sbatp3241
Rp3242
(dp3243
g16
VPP
p3244
sbatp3245
Rp3246
(dp3247
g16
VNP
p3248
sbatp3249
Rp3250
(dp3251
g16
VPP
p3252
sbatp3253
Rp3254
(dp3255
g16
VNP
p3256
sbatp3257
Rp3258
(dp3259
g16
VPP
p3260
sbatp3261
Rp3262
(dp3263
g16
VVP
p3264
sbatp3265
Rp3266
(dp3267
g16
VVP
p3268
sbatp3269
Rp3270
(dp3271
g16
VVP
p3272
sbatp3273
Rp3274
(dp3275
g16
g200
sbatp3276
Rp3277
(dp3278
g16
VSBAR
p3279
sbatp3280
Rp3281
(dp3282
g16
VNP
p3283
sbatp3284
Rp3285
(dp3286
g16
VVP
p3287
sbatp3288
Rp3289
(dp3290
g16
g200
sbatp3291
Rp3292
(dp3293
g16
VSBAR
p3294
sbag5
(g6
g7
(lp3295
g381
atp3296
Rp3297
(dp3298
g16
g381
sbatp3299
Rp3300
(dp3301
g16
VNP
p3302
sbag5
(g6
g7
(lp3303
g5
(g6
g7
(lp3304
g5
(g6
g7
(lp3305
Veither
p3306
atp3307
Rp3308
(dp3309
g16
VRB
p3310
sbatp3311
Rp3312
(dp3313
g16
VADVP
p3314
sbag5
(g6
g7
(lp3315
Vby
p3316
atp3317
Rp3318
(dp3319
g16
VIN
p3320
sbag5
(g6
g7
(lp3321
g5
(g6
g7
(lp3322
Vlinear
p3323
atp3324
Rp3325
(dp3326
g16
VJJ
p3327
sbag5
(g6
g7
(lp3328
Vdistance
p3329
atp3330
Rp3331
(dp3332
g16
VNN
p3333
sbag5
(g6
g7
(lp3334
Vor
p3335
atp3336
Rp3337
(dp3338
g16
VCC
p3339
sbag5
(g6
g7
(lp3340
Vdependency
p3341
atp3342
Rp3343
(dp3344
g16
VNN
p3345
sbag5
(g6
g7
(lp3346
Vpath
p3347
atp3348
Rp3349
(dp3350
g16
VNN
p3351
sbatp3352
Rp3353
(dp3354
g16
VNP
p3355
sbatp3356
Rp3357
(dp3358
g16
VPP
p3359
sbatp3360
Rp3361
(dp3362
g16
VNP
p3363
sbatp3364
Rp3365
(dp3366
g16
VPP
p3367
sbatp3368
Rp3369
(dp3370
g16
VNP
p3371
sbatp3372
Rp3373
(dp3374
g16
VPP
p3375
sbatp3376
Rp3377
(dp3378
g16
VVP
p3379
sbatp3380
Rp3381
(dp3382
g16
g200
sbatp3383
Rp3384
(dp3385
g16
VPP
p3386
sbatp3387
Rp3388
(dp3389
g16
VADJP
p3390
sbatp3391
Rp3392
(dp3393
g16
VVP
p3394
sbatp3395
Rp3396
(dp3397
g16
VSQ
p3398
sbatp3399
Rp3400
(dp3401
g16
VSBARQ
p3402
sbatp3403
Rp3404
(dp3405
g16
VROOT
p3406
sbasg228
(icmyPackage
CorE
p3407
(dp3408
g231
(lp3409
(I0
I19
tp3410
a(I0
I62
tp3411
asg235
g3381
sbsg236
(icmyPackage
CorE
p3412
(dp3413
g231
(lp3414
(I0
I11
tp3415
a(I0
I17
tp3416
asg235
g5
(g6
g7
(lp3417
g2875
ag2899
ag2921
ag2929
ag2936
atp3418
Rp3419
(dp3420
g16
g246
sbsbsg247
(icmyPackage
pattern
p3421
(dp3422
g250
I0
sg251
I0
sg252
(lp3423
(lp3424
(lp3425
S'by'
p3426
aS'through'
p3427
aaasg256
(lp3428
I2
aI1
aI1
asg258
(lp3429
S'The similar relation can be detected by analyzing the contents of nodes based on such approaches as the Latent Semantic Analysis (LSA) and the Vector Space Model (VSM)'
p3430
asg261
I68
sg262
(lp3431
(lp3432
S'&R@Complete@'
p3433
aa(lp3434
S'&V-ing@C@'
p3435
aasbsg268
(lp3436
(isxpPackage
sxpSent
p3437
(dp3438
g272
(lp3439
I4
asg274
VThe model we introduce is grounded in the distributional hypothesis [] , that two words are similar by appearing in the same kinds of contexts (where u'\u005cu201c' context u'\u005cu201d' itself can be variously defined as the bag or sequence of tokens around a target word, either by linear distance or dependency path
p3440
sg276
I3
sg261
I16
sg277
I5
sbasba(icmyPackage
CELink
p3441
(dp3442
g3
(lp3443
g5
(g6
g7
(lp3444
g5
(g6
g7
(lp3445
g5
(g6
g7
(lp3446
g5
(g6
g7
(lp3447
VWe
p3448
atp3449
Rp3450
(dp3451
g16
VPRP
p3452
sbatp3453
Rp3454
(dp3455
g16
VNP
p3456
sbag5
(g6
g7
(lp3457
g5
(g6
g7
(lp3458
Vcan
p3459
atp3460
Rp3461
(dp3462
g16
VMD
p3463
sbag5
(g6
g7
(lp3464
g5
(g6
g7
(lp3465
Vinvoke
p3466
atp3467
Rp3468
(dp3469
g16
VVB
p3470
sbag5
(g6
g7
(lp3471
g5
(g6
g7
(lp3472
g5
(g6
g7
(lp3473
Vthe
p3474
atp3475
Rp3476
(dp3477
g16
VDT
p3478
sbag5
(g6
g7
(lp3479
Vdistributional
p3480
atp3481
Rp3482
(dp3483
g16
VJJ
p3484
sbag5
(g6
g7
(lp3485
Vhypothesis
p3486
atp3487
Rp3488
(dp3489
g16
VNNS
p3490
sbatp3491
Rp3492
(dp3493
g16
VNP
p3494
sbag5
(g6
g7
(lp3495
g5
(g6
g7
(lp3496
Vfor
p3497
atp3498
Rp3499
(dp3500
g16
VIN
p3501
sbag5
(g6
g7
(lp3502
g5
(g6
g7
(lp3503
g5
(g6
g7
(lp3504
Vmany
p3505
atp3506
Rp3507
(dp3508
g16
VJJ
p3509
sbag5
(g6
g7
(lp3510
Vinstances
p3511
atp3512
Rp3513
(dp3514
g16
VNNS
p3515
sbatp3516
Rp3517
(dp3518
g16
VNP
p3519
sbag5
(g6
g7
(lp3520
g5
(g6
g7
(lp3521
Vof
p3522
atp3523
Rp3524
(dp3525
g16
VIN
p3526
sbag5
(g6
g7
(lp3527
g5
(g6
g7
(lp3528
Vregional
p3529
atp3530
Rp3531
(dp3532
g16
VJJ
p3533
sbag5
(g6
g7
(lp3534
Vvariation
p3535
atp3536
Rp3537
(dp3538
g16
VNN
p3539
sbatp3540
Rp3541
(dp3542
g16
VNP
p3543
sbatp3544
Rp3545
(dp3546
g16
VPP
p3547
sbatp3548
Rp3549
(dp3550
g16
VNP
p3551
sbatp3552
Rp3553
(dp3554
g16
VPP
p3555
sbatp3556
Rp3557
(dp3558
g16
VNP
p3559
sbag5
(g6
g7
(lp3560
g5
(g6
g7
(lp3561
Vby
p3562
atp3563
Rp3564
(dp3565
g16
VIN
p3566
sbag5
(g6
g7
(lp3567
g5
(g6
g7
(lp3568
g5
(g6
g7
(lp3569
Vobserving
p3570
atp3571
Rp3572
(dp3573
g16
VVBG
p3574
sbag5
(g6
g7
(lp3575
g5
(g6
g7
(lp3576
Vthat
p3577
atp3578
Rp3579
(dp3580
g16
VIN
p3581
sbag5
(g6
g7
(lp3582
g5
(g6
g7
(lp3583
g5
(g6
g7
(lp3584
Vsuch
p3585
atp3586
Rp3587
(dp3588
g16
VJJ
p3589
sbag5
(g6
g7
(lp3590
Vvariants
p3591
atp3592
Rp3593
(dp3594
g16
VNNS
p3595
sbatp3596
Rp3597
(dp3598
g16
VNP
p3599
sbag5
(g6
g7
(lp3600
g5
(g6
g7
(lp3601
Voften
p3602
atp3603
Rp3604
(dp3605
g16
VRB
p3606
sbatp3607
Rp3608
(dp3609
g16
VADVP
p3610
sbag5
(g6
g7
(lp3611
g5
(g6
g7
(lp3612
Vappear
p3613
atp3614
Rp3615
(dp3616
g16
VVBP
p3617
sbag5
(g6
g7
(lp3618
g5
(g6
g7
(lp3619
Vin
p3620
atp3621
Rp3622
(dp3623
g16
VIN
p3624
sbag5
(g6
g7
(lp3625
g5
(g6
g7
(lp3626
Vsimilar
p3627
atp3628
Rp3629
(dp3630
g16
VJJ
p3631
sbag5
(g6
g7
(lp3632
Vcontexts
p3633
atp3634
Rp3635
(dp3636
g16
VNNS
p3637
sbatp3638
Rp3639
(dp3640
g16
VNP
p3641
sbatp3642
Rp3643
(dp3644
g16
VPP
p3645
sbatp3646
Rp3647
(dp3648
g16
VVP
p3649
sbatp3650
Rp3651
(dp3652
g16
g200
sbatp3653
Rp3654
(dp3655
g16
VSBAR
p3656
sbatp3657
Rp3658
(dp3659
g16
VVP
p3660
sbatp3661
Rp3662
(dp3663
g16
g200
sbatp3664
Rp3665
(dp3666
g16
VPP
p3667
sbatp3668
Rp3669
(dp3670
g16
VVP
p3671
sbatp3672
Rp3673
(dp3674
g16
VVP
p3675
sbatp3676
Rp3677
(dp3678
g16
g200
sbatp3679
Rp3680
(dp3681
g16
VROOT
p3682
sbasg228
(icmyPackage
CorE
p3683
(dp3684
g231
(lp3685
(I0
I13
tp3686
a(I0
I21
tp3687
asg235
g3662
sbsg236
(icmyPackage
CorE
p3688
(dp3689
g231
(lp3690
(I0
I0
tp3691
a(I0
I11
tp3692
asg235
g5
(g6
g7
(lp3693
g3454
ag3461
ag3468
ag3557
atp3694
Rp3695
(dp3696
g16
g246
sbsbsg247
g3421
sg268
(lp3697
(isxpPackage
sxpSent
p3698
(dp3699
g272
(lp3700
I5
asg274
VWe can invoke the distributional hypothesis for many instances of regional variation by observing that such variants often appear in similar contexts
p3701
sg276
I3
sg261
I17
sg277
I5
sbasba(icmyPackage
CELink
p3702
(dp3703
g3
(lp3704
g5
(g6
g7
(lp3705
g5
(g6
g7
(lp3706
g5
(g6
g7
(lp3707
g5
(g6
g7
(lp3708
VHere
p3709
atp3710
Rp3711
(dp3712
g16
VRB
p3713
sbatp3714
Rp3715
(dp3716
g16
VADVP
p3717
sbag5
(g6
g7
(lp3718
g381
atp3719
Rp3720
(dp3721
g16
g381
sbag5
(g6
g7
(lp3722
g5
(g6
g7
(lp3723
Vall
p3724
atp3725
Rp3726
(dp3727
g16
VDT
p3728
sbag5
(g6
g7
(lp3729
Vthree
p3730
atp3731
Rp3732
(dp3733
g16
VCD
p3734
sbag5
(g6
g7
(lp3735
Vvariants
p3736
atp3737
Rp3738
(dp3739
g16
VNNS
p3740
sbatp3741
Rp3742
(dp3743
g16
VNP
p3744
sbag5
(g6
g7
(lp3745
g5
(g6
g7
(lp3746
Vcan
p3747
atp3748
Rp3749
(dp3750
g16
VMD
p3751
sbag5
(g6
g7
(lp3752
g5
(g6
g7
(lp3753
Voften
p3754
atp3755
Rp3756
(dp3757
g16
VRB
p3758
sbatp3759
Rp3760
(dp3761
g16
VADVP
p3762
sbag5
(g6
g7
(lp3763
g5
(g6
g7
(lp3764
Vbe
p3765
atp3766
Rp3767
(dp3768
g16
VVB
p3769
sbag5
(g6
g7
(lp3770
g5
(g6
g7
(lp3771
Vseen
p3772
atp3773
Rp3774
(dp3775
g16
VVBN
p3776
sbag5
(g6
g7
(lp3777
g5
(g6
g7
(lp3778
Vin
p3779
atp3780
Rp3781
(dp3782
g16
VIN
p3783
sbag5
(g6
g7
(lp3784
g5
(g6
g7
(lp3785
g5
(g6
g7
(lp3786
g5
(g6
g7
(lp3787
Van
p3788
atp3789
Rp3790
(dp3791
g16
VDT
p3792
sbag5
(g6
g7
(lp3793
Vimmediately
p3794
atp3795
Rp3796
(dp3797
g16
VJJ
p3798
sbag5
(g6
g7
(lp3799
Vpre-adjectival
p3800
atp3801
Rp3802
(dp3803
g16
VJJ
p3804
sbag5
(g6
g7
(lp3805
Vposition
p3806
atp3807
Rp3808
(dp3809
g16
VNN
p3810
sbatp3811
Rp3812
(dp3813
g16
VNP
p3814
sbag5
(g6
g7
(lp3815
V-LRB-
p3816
atp3817
Rp3818
(dp3819
g16
V-LRB-
p3820
sbag5
(g6
g7
(lp3821
g5
(g6
g7
(lp3822
Vas
p3823
atp3824
Rp3825
(dp3826
g16
VIN
p3827
sbatp3828
Rp3829
(dp3830
g16
VPP
p3831
sbatp3832
Rp3833
(dp3834
g16
VNP
p3835
sbag5
(g6
g7
(lp3836
g5
(g6
g7
(lp3837
Vis
p3838
atp3839
Rp3840
(dp3841
g16
VVBZ
p3842
sbag5
(g6
g7
(lp3843
g5
(g6
g7
(lp3844
Vcommon
p3845
atp3846
Rp3847
(dp3848
g16
VJJ
p3849
sbag5
(g6
g7
(lp3850
g5
(g6
g7
(lp3851
Vwith
p3852
atp3853
Rp3854
(dp3855
g16
VIN
p3856
sbag5
(g6
g7
(lp3857
g5
(g6
g7
(lp3858
Vintensifying
p3859
atp3860
Rp3861
(dp3862
g16
VVBG
p3863
sbag5
(g6
g7
(lp3864
Vadverbs
p3865
atp3866
Rp3867
(dp3868
g16
VNNS
p3869
sbatp3870
Rp3871
(dp3872
g16
VNP
p3873
sbatp3874
Rp3875
(dp3876
g16
VPP
p3877
sbatp3878
Rp3879
(dp3880
g16
VADJP
p3881
sbatp3882
Rp3883
(dp3884
g16
VVP
p3885
sbatp3886
Rp3887
(dp3888
g16
g200
sbatp3889
Rp3890
(dp3891
g16
VSBAR
p3892
sbatp3893
Rp3894
(dp3895
g16
VVP
p3896
sbatp3897
Rp3898
(dp3899
g16
VVP
p3900
sbatp3901
Rp3902
(dp3903
g16
VVP
p3904
sbatp3905
Rp3906
(dp3907
g16
g200
sbatp3908
Rp3909
(dp3910
g16
VROOT
p3911
sbag5
(g6
g7
(lp3912
g5
(g6
g7
(lp3913
g5
(g6
g7
(lp3914
g5
(g6
g7
(lp3915
VGiven
p3916
atp3917
Rp3918
(dp3919
g16
VVBN
p3920
sbag5
(g6
g7
(lp3921
g5
(g6
g7
(lp3922
g5
(g6
g7
(lp3923
Vthe
p3924
atp3925
Rp3926
(dp3927
g16
VDT
p3928
sbag5
(g6
g7
(lp3929
Vempirical
p3930
atp3931
Rp3932
(dp3933
g16
VJJ
p3934
sbag5
(g6
g7
(lp3935
Vsuccess
p3936
atp3937
Rp3938
(dp3939
g16
VNN
p3940
sbatp3941
Rp3942
(dp3943
g16
VNP
p3944
sbag5
(g6
g7
(lp3945
g5
(g6
g7
(lp3946
Vof
p3947
atp3948
Rp3949
(dp3950
g16
VIN
p3951
sbag5
(g6
g7
(lp3952
g5
(g6
g7
(lp3953
g5
(g6
g7
(lp3954
g5
(g6
g7
(lp3955
Vvector-space
p3956
atp3957
Rp3958
(dp3959
g16
VJJ
p3960
sbag5
(g6
g7
(lp3961
Vrepresentations
p3962
atp3963
Rp3964
(dp3965
g16
VNNS
p3966
sbatp3967
Rp3968
(dp3969
g16
VNP
p3970
sbag5
(g6
g7
(lp3971
g5
(g6
g7
(lp3972
Vin
p3973
atp3974
Rp3975
(dp3976
g16
VIN
p3977
sbag5
(g6
g7
(lp3978
g5
(g6
g7
(lp3979
Vcapturing
p3980
atp3981
Rp3982
(dp3983
g16
VVBG
p3984
sbag5
(g6
g7
(lp3985
Vsemantic
p3986
atp3987
Rp3988
(dp3989
g16
VJJ
p3990
sbag5
(g6
g7
(lp3991
Vproperties
p3992
atp3993
Rp3994
(dp3995
g16
VNNS
p3996
sbatp3997
Rp3998
(dp3999
g16
VNP
p4000
sbatp4001
Rp4002
(dp4003
g16
VPP
p4004
sbatp4005
Rp4006
(dp4007
g16
VNP
p4008
sbag5
(g6
g7
(lp4009
Vand
p4010
atp4011
Rp4012
(dp4013
g16
VCC
p4014
sbag5
(g6
g7
(lp4015
g5
(g6
g7
(lp4016
g5
(g6
g7
(lp4017
Vtheir
p4018
atp4019
Rp4020
(dp4021
g16
VPRP$
p4022
sbag5
(g6
g7
(lp4023
Vsuccess
p4024
atp4025
Rp4026
(dp4027
g16
VNN
p4028
sbatp4029
Rp4030
(dp4031
g16
VNP
p4032
sbag5
(g6
g7
(lp4033
g5
(g6
g7
(lp4034
Vat
p4035
atp4036
Rp4037
(dp4038
g16
VIN
p4039
sbag5
(g6
g7
(lp4040
g5
(g6
g7
(lp4041
g5
(g6
g7
(lp4042
g31
atp4043
Rp4044
(dp4045
g16
VDT
p4046
sbag5
(g6
g7
(lp4047
Vvariety
p4048
atp4049
Rp4050
(dp4051
g16
VNN
p4052
sbatp4053
Rp4054
(dp4055
g16
VNP
p4056
sbag5
(g6
g7
(lp4057
g5
(g6
g7
(lp4058
Vof
p4059
atp4060
Rp4061
(dp4062
g16
VIN
p4063
sbag5
(g6
g7
(lp4064
g5
(g6
g7
(lp4065
VNLP
p4066
atp4067
Rp4068
(dp4069
g16
VNNP
p4070
sbag5
(g6
g7
(lp4071
Vtasks
p4072
atp4073
Rp4074
(dp4075
g16
VNNP
p4076
sbag5
(g6
g7
(lp4077
V-LSB-
p4078
atp4079
Rp4080
(dp4081
g16
VNNP
p4082
sbag5
(g6
g7
(lp4083
V-RSB-
p4084
atp4085
Rp4086
(dp4087
g16
VNNP
p4088
sbatp4089
Rp4090
(dp4091
g16
VNP
p4092
sbatp4093
Rp4094
(dp4095
g16
VPP
p4096
sbatp4097
Rp4098
(dp4099
g16
VNP
p4100
sbatp4101
Rp4102
(dp4103
g16
VPP
p4104
sbatp4105
Rp4106
(dp4107
g16
VNP
p4108
sbatp4109
Rp4110
(dp4111
g16
VNP
p4112
sbatp4113
Rp4114
(dp4115
g16
VPP
p4116
sbatp4117
Rp4118
(dp4119
g16
VNP
p4120
sbatp4121
Rp4122
(dp4123
g16
VPP
p4124
sbag5
(g6
g7
(lp4125
g381
atp4126
Rp4127
(dp4128
g16
g381
sbag5
(g6
g7
(lp4129
g5
(g6
g7
(lp4130
Vwe
p4131
atp4132
Rp4133
(dp4134
g16
VPRP
p4135
sbatp4136
Rp4137
(dp4138
g16
VNP
p4139
sbag5
(g6
g7
(lp4140
g5
(g6
g7
(lp4141
g5
(g6
g7
(lp4142
Vuse
p4143
atp4144
Rp4145
(dp4146
g16
VVBP
p4147
sbag5
(g6
g7
(lp4148
g5
(g6
g7
(lp4149
g31
atp4150
Rp4151
(dp4152
g16
VDT
p4153
sbag5
(g6
g7
(lp4154
Vsimple
p4155
atp4156
Rp4157
(dp4158
g16
VNN
p4159
sbatp4160
Rp4161
(dp4162
g16
VNP
p4163
sbatp4164
Rp4165
(dp4166
g16
VVP
p4167
sbag5
(g6
g7
(lp4168
g381
atp4169
Rp4170
(dp4171
g16
g381
sbag5
(g6
g7
(lp4172
Vbut
p4173
atp4174
Rp4175
(dp4176
g16
VCC
p4177
sbag5
(g6
g7
(lp4178
g5
(g6
g7
(lp4179
g5
(g6
g7
(lp4180
Vstate-of-the-art
p4181
atp4182
Rp4183
(dp4184
g16
VJJ
p4185
sbag5
(g6
g7
(lp4186
Vneural
p4187
atp4188
Rp4189
(dp4190
g16
VJJ
p4191
sbag5
(g6
g7
(lp4192
Varchitecture
p4193
atp4194
Rp4195
(dp4196
g16
VNN
p4197
sbag5
(g6
g7
(lp4198
V-LSB-
p4199
atp4200
Rp4201
(dp4202
g16
VNNP
p4203
sbag5
(g6
g7
(lp4204
V-RSB-
p4205
atp4206
Rp4207
(dp4208
g16
VNNP
p4209
sbatp4210
Rp4211
(dp4212
g16
VNP
p4213
sbag5
(g6
g7
(lp4214
g5
(g6
g7
(lp4215
g5
(g6
g7
(lp4216
Vto
p4217
atp4218
Rp4219
(dp4220
g16
VTO
p4221
sbag5
(g6
g7
(lp4222
g5
(g6
g7
(lp4223
Vlearn
p4224
atp4225
Rp4226
(dp4227
g16
VVB
p4228
sbag5
(g6
g7
(lp4229
g5
(g6
g7
(lp4230
g5
(g6
g7
(lp4231
Vlow-dimensional
p4232
atp4233
Rp4234
(dp4235
g16
VJJ
p4236
sbag5
(g6
g7
(lp4237
Vreal-valued
p4238
atp4239
Rp4240
(dp4241
g16
VJJ
p4242
sbag5
(g6
g7
(lp4243
Vrepresentations
p4244
atp4245
Rp4246
(dp4247
g16
VNNS
p4248
sbatp4249
Rp4250
(dp4251
g16
VNP
p4252
sbag5
(g6
g7
(lp4253
g5
(g6
g7
(lp4254
Vof
p4255
atp4256
Rp4257
(dp4258
g16
VIN
p4259
sbag5
(g6
g7
(lp4260
g5
(g6
g7
(lp4261
Vwords
p4262
atp4263
Rp4264
(dp4265
g16
VNNS
p4266
sbatp4267
Rp4268
(dp4269
g16
VNP
p4270
sbatp4271
Rp4272
(dp4273
g16
VPP
p4274
sbatp4275
Rp4276
(dp4277
g16
VNP
p4278
sbatp4279
Rp4280
(dp4281
g16
VVP
p4282
sbatp4283
Rp4284
(dp4285
g16
VVP
p4286
sbatp4287
Rp4288
(dp4289
g16
g200
sbatp4290
Rp4291
(dp4292
g16
VVP
p4293
sbatp4294
Rp4295
(dp4296
g16
VVP
p4297
sbatp4298
Rp4299
(dp4300
g16
g200
sbatp4301
Rp4302
(dp4303
g16
VROOT
p4304
sbasg228
(icmyPackage
CorE
p4305
(dp4306
g231
(lp4307
(I0
I16
tp4308
a(I1
I40
tp4309
asg235
g5
(g6
g7
(lp4310
g3883
ag4302
atp4311
Rp4312
(dp4313
g16
g246
sbsbsg236
(icmyPackage
CorE
p4314
(dp4315
g231
(lp4316
(I0
I0
tp4317
a(I0
I14
tp4318
asg235
g5
(g6
g7
(lp4319
g3715
ag3720
ag3742
ag3749
ag3760
ag3767
ag3774
ag3781
ag3812
ag3818
atp4320
Rp4321
(dp4322
g16
g246
sbsbsg247
g999
sg268
(lp4323
(isxpPackage
sxpSent
p4324
(dp4325
g272
(lp4326
I6
asg274
VHere, all three variants can often be seen in an immediately pre-adjectival position (as is common with intensifying adverbs
p4327
sg276
I3
sg261
I22
sg277
I9
sba(isxpPackage
sxpSent
p4328
(dp4329
g272
(lp4330
I6
asg274
VGiven the empirical success of vector-space representations in capturing semantic properties and their success at a variety of NLP tasks [] , we use a simple, but state-of-the-art neural architecture [] to learn low-dimensional real-valued representations of words
p4331
sg276
I3
sg261
I23
sg277
I10
sbasba(icmyPackage
CELink
p4332
(dp4333
g3
(lp4334
g5
(g6
g7
(lp4335
g5
(g6
g7
(lp4336
g5
(g6
g7
(lp4337
g5
(g6
g7
(lp4338
g5
(g6
g7
(lp4339
VThe
p4340
atp4341
Rp4342
(dp4343
g16
VDT
p4344
sbag5
(g6
g7
(lp4345
Vfinal
p4346
atp4347
Rp4348
(dp4349
g16
VJJ
p4350
sbag5
(g6
g7
(lp4351
Vprediction
p4352
atp4353
Rp4354
(dp4355
g16
VNN
p4356
sbatp4357
Rp4358
(dp4359
g16
VNP
p4360
sbag5
(g6
g7
(lp4361
g5
(g6
g7
(lp4362
Vover
p4363
atp4364
Rp4365
(dp4366
g16
VIN
p4367
sbag5
(g6
g7
(lp4368
g5
(g6
g7
(lp4369
Vthe
p4370
atp4371
Rp4372
(dp4373
g16
VDT
p4374
sbag5
(g6
g7
(lp4375
Voutput
p4376
atp4377
Rp4378
(dp4379
g16
VNN
p4380
sbag5
(g6
g7
(lp4381
Vvocabulary
p4382
atp4383
Rp4384
(dp4385
g16
VNN
p4386
sbatp4387
Rp4388
(dp4389
g16
VNP
p4390
sbatp4391
Rp4392
(dp4393
g16
VPP
p4394
sbatp4395
Rp4396
(dp4397
g16
VNP
p4398
sbag5
(g6
g7
(lp4399
g5
(g6
g7
(lp4400
Vis
p4401
atp4402
Rp4403
(dp4404
g16
VVBZ
p4405
sbag5
(g6
g7
(lp4406
g5
(g6
g7
(lp4407
Vthen
p4408
atp4409
Rp4410
(dp4411
g16
VRB
p4412
sbatp4413
Rp4414
(dp4415
g16
VADVP
p4416
sbag5
(g6
g7
(lp4417
g5
(g6
g7
(lp4418
Vfound
p4419
atp4420
Rp4421
(dp4422
g16
VVBN
p4423
sbag5
(g6
g7
(lp4424
g5
(g6
g7
(lp4425
Vby
p4426
atp4427
Rp4428
(dp4429
g16
VIN
p4430
sbag5
(g6
g7
(lp4431
g5
(g6
g7
(lp4432
g5
(g6
g7
(lp4433
Vpassing
p4434
atp4435
Rp4436
(dp4437
g16
VVBG
p4438
sbag5
(g6
g7
(lp4439
g5
(g6
g7
(lp4440
Vthis
p4441
atp4442
Rp4443
(dp4444
g16
VDT
p4445
sbag5
(g6
g7
(lp4446
Vresulting
p4447
atp4448
Rp4449
(dp4450
g16
VVBG
p4451
sbag5
(g6
g7
(lp4452
Vvector
p4453
atp4454
Rp4455
(dp4456
g16
VNN
p4457
sbatp4458
Rp4459
(dp4460
g16
VNP
p4461
sbag5
(g6
g7
(lp4462
g5
(g6
g7
(lp4463
Vthrough
p4464
atp4465
Rp4466
(dp4467
g16
VIN
p4468
sbag5
(g6
g7
(lp4469
g5
(g6
g7
(lp4470
g5
(g6
g7
(lp4471
g5
(g6
g7
(lp4472
Vthe
p4473
atp4474
Rp4475
(dp4476
g16
VDT
p4477
sbag5
(g6
g7
(lp4478
Vsoftmax
p4479
atp4480
Rp4481
(dp4482
g16
VNN
p4483
sbag5
(g6
g7
(lp4484
Vfunction
p4485
atp4486
Rp4487
(dp4488
g16
VNN
p4489
sbag5
(g6
g7
(lp4490
g338
atp4491
Rp4492
(dp4493
g16
VNN
p4494
sbag5
(g6
g7
(lp4495
g344
atp4496
Rp4497
(dp4498
g16
VPOS
p4499
sbatp4500
Rp4501
(dp4502
g16
VNP
p4503
sbag5
(g6
g7
(lp4504
V\u005c
p4505
atp4506
Rp4507
(dp4508
g16
VJJ
p4509
sbag5
(g6
g7
(lp4510
g5
(g6
g7
(lp4511
Vud835
p4512
atp4513
Rp4514
(dp4515
g16
VNNP
p4516
sbag5
(g6
g7
(lp4517
g344
atp4518
Rp4519
(dp4520
g16
VPOS
p4521
sbatp4522
Rp4523
(dp4524
g16
VNP
p4525
sbag5
(g6
g7
(lp4526
g338
atp4527
Rp4528
(dp4529
g16
VNN
p4530
sbag5
(g6
g7
(lp4531
g344
atp4532
Rp4533
(dp4534
g16
V''
p4535
sbatp4536
Rp4537
(dp4538
g16
VNP
p4539
sbag5
(g6
g7
(lp4540
g5
(g6
g7
(lp4541
V\u005c
p4542
atp4543
Rp4544
(dp4545
g16
VVBN
p4546
sbag5
(g6
g7
(lp4547
g5
(g6
g7
(lp4548
g5
(g6
g7
(lp4549
Vudc90
p4550
atp4551
Rp4552
(dp4553
g16
VNNP
p4554
sbag5
(g6
g7
(lp4555
g344
atp4556
Rp4557
(dp4558
g16
VPOS
p4559
sbatp4560
Rp4561
(dp4562
g16
VNP
p4563
sbag5
(g6
g7
(lp4564
g5
(g6
g7
(lp4565
V=
p4566
atp4567
Rp4568
(dp4569
g16
VSYM
p4570
sbag5
(g6
g7
(lp4571
g5
(g6
g7
(lp4572
Vsoftmax
p4573
atp4574
Rp4575
(dp4576
g16
VNN
p4577
sbag5
(g6
g7
(lp4578
g338
atp4579
Rp4580
(dp4581
g16
VNN
p4582
sbatp4583
Rp4584
(dp4585
g16
VNP
p4586
sbatp4587
Rp4588
(dp4589
g16
VVP
p4590
sbatp4591
Rp4592
(dp4593
g16
g200
sbag5
(g6
g7
(lp4594
g344
atp4595
Rp4596
(dp4597
g16
V''
p4598
sbag5
(g6
g7
(lp4599
g5
(g6
g7
(lp4600
g5
(g6
g7
(lp4601
g5
(g6
g7
(lp4602
V\u005c
p4603
atp4604
Rp4605
(dp4606
g16
VJJ
p4607
sbag5
(g6
g7
(lp4608
Vu2062
p4609
atp4610
Rp4611
(dp4612
g16
VNNS
p4613
sbatp4614
Rp4615
(dp4616
g16
VNP
p4617
sbag5
(g6
g7
(lp4618
g344
atp4619
Rp4620
(dp4621
g16
V''
p4622
sbag5
(g6
g7
(lp4623
g5
(g6
g7
(lp4624
V-LRB-
p4625
atp4626
Rp4627
(dp4628
g16
V-LRB-
p4629
sbag5
(g6
g7
(lp4630
g5
(g6
g7
(lp4631
g5
(g6
g7
(lp4632
VX
p4633
atp4634
Rp4635
(dp4636
g16
VNNP
p4637
sbatp4638
Rp4639
(dp4640
g16
VNP
p4641
sbag5
(g6
g7
(lp4642
g5
(g6
g7
(lp4643
g5
(g6
g7
(lp4644
g5
(g6
g7
(lp4645
g338
atp4646
Rp4647
(dp4648
g16
VNNP
p4649
sbag5
(g6
g7
(lp4650
g344
atp4651
Rp4652
(dp4653
g16
VPOS
p4654
sbatp4655
Rp4656
(dp4657
g16
VNP
p4658
sbag5
(g6
g7
(lp4659
V\u005c
p4660
atp4661
Rp4662
(dp4663
g16
VJJ
p4664
sbag5
(g6
g7
(lp4665
g5
(g6
g7
(lp4666
Vu2062
p4667
atp4668
Rp4669
(dp4670
g16
VNNP
p4671
sbag5
(g6
g7
(lp4672
g344
atp4673
Rp4674
(dp4675
g16
VPOS
p4676
sbatp4677
Rp4678
(dp4679
g16
VNP
p4680
sbag5
(g6
g7
(lp4681
g338
atp4682
Rp4683
(dp4684
g16
VNN
p4685
sbag5
(g6
g7
(lp4686
g344
atp4687
Rp4688
(dp4689
g16
V''
p4690
sbatp4691
Rp4692
(dp4693
g16
VNP
p4694
sbag5
(g6
g7
(lp4695
g5
(g6
g7
(lp4696
g5
(g6
g7
(lp4697
g5
(g6
g7
(lp4698
V\u005c
p4699
atp4700
Rp4701
(dp4702
g16
VNNP
p4703
sbag5
(g6
g7
(lp4704
Vud835
p4705
atp4706
Rp4707
(dp4708
g16
VNNP
p4709
sbag5
(g6
g7
(lp4710
g344
atp4711
Rp4712
(dp4713
g16
VPOS
p4714
sbatp4715
Rp4716
(dp4717
g16
VNP
p4718
sbag5
(g6
g7
(lp4719
g338
atp4720
Rp4721
(dp4722
g16
VNN
p4723
sbag5
(g6
g7
(lp4724
g344
atp4725
Rp4726
(dp4727
g16
VPOS
p4728
sbatp4729
Rp4730
(dp4731
g16
VNP
p4732
sbag5
(g6
g7
(lp4733
V\u005c
p4734
atp4735
Rp4736
(dp4737
g16
VNNP
p4738
sbag5
(g6
g7
(lp4739
Vudc89
p4740
atp4741
Rp4742
(dp4743
g16
VNNP
p4744
sbag5
(g6
g7
(lp4745
g344
atp4746
Rp4747
(dp4748
g16
V''
p4749
sbatp4750
Rp4751
(dp4752
g16
VNP
p4753
sbatp4754
Rp4755
(dp4756
g16
VNP
p4757
sbatp4758
Rp4759
(dp4760
g16
VNP
p4761
sbag5
(g6
g7
(lp4762
V-RRB-
p4763
atp4764
Rp4765
(dp4766
g16
V-RRB-
p4767
sbatp4768
Rp4769
(dp4770
g16
VPRN
p4771
sbag5
(g6
g7
(lp4772
g381
atp4773
Rp4774
(dp4775
g16
g381
sbag5
(g6
g7
(lp4776
g5
(g6
g7
(lp4777
g5
(g6
g7
(lp4778
Vgiving
p4779
atp4780
Rp4781
(dp4782
g16
VVBG
p4783
sbag5
(g6
g7
(lp4784
g5
(g6
g7
(lp4785
g31
atp4786
Rp4787
(dp4788
g16
VDT
p4789
sbag5
(g6
g7
(lp4790
Vvector
p4791
atp4792
Rp4793
(dp4794
g16
VNN
p4795
sbatp4796
Rp4797
(dp4798
g16
VNP
p4799
sbatp4800
Rp4801
(dp4802
g16
VVP
p4803
sbatp4804
Rp4805
(dp4806
g16
g200
sbatp4807
Rp4808
(dp4809
g16
VNP
p4810
sbag5
(g6
g7
(lp4811
Vin
p4812
atp4813
Rp4814
(dp4815
g16
VIN
p4816
sbag5
(g6
g7
(lp4817
g5
(g6
g7
(lp4818
Vthe
p4819
atp4820
Rp4821
(dp4822
g16
VDT
p4823
sbatp4824
Rp4825
(dp4826
g16
VNP
p4827
sbatp4828
Rp4829
(dp4830
g16
VPP
p4831
sbatp4832
Rp4833
(dp4834
g16
VVP
p4835
sbatp4836
Rp4837
(dp4838
g16
VNP
p4839
sbatp4840
Rp4841
(dp4842
g16
VPP
p4843
sbatp4844
Rp4845
(dp4846
g16
VVP
p4847
sbatp4848
Rp4849
(dp4850
g16
g200
sbatp4851
Rp4852
(dp4853
g16
VPP
p4854
sbatp4855
Rp4856
(dp4857
g16
VVP
p4858
sbatp4859
Rp4860
(dp4861
g16
VVP
p4862
sbatp4863
Rp4864
(dp4865
g16
g200
sbatp4866
Rp4867
(dp4868
g16
VROOT
p4869
sbasg228
(icmyPackage
CorE
p4870
(dp4871
g231
(lp4872
(I0
I11
tp4873
a(I0
I59
tp4874
asg235
g4849
sbsg236
(icmyPackage
CorE
p4875
(dp4876
g231
(lp4877
(I0
I0
tp4878
a(I0
I9
tp4879
asg235
g5
(g6
g7
(lp4880
g4396
ag4403
ag4414
ag4421
atp4881
Rp4882
(dp4883
g16
g246
sbsbsg247
g3421
sg268
(lp4884
(isxpPackage
sxpSent
p4885
(dp4886
g272
(lp4887
I7
asg274
VThe final prediction over the output vocabulary is then found by passing this resulting vector through the softmax function u'\u005cud835' u'\u005cudc90' = softmax u'\u005cu2062' ( X u'\u005cu2062' u'\u005cud835' u'\u005cudc89' ) , giving a vector in the
p4888
sg276
I3
sg261
I38
sg277
I11
sbasba(icmyPackage
CELink
p4889
(dp4890
g3
(lp4891
g5
(g6
g7
(lp4892
g5
(g6
g7
(lp4893
g5
(g6
g7
(lp4894
g5
(g6
g7
(lp4895
g5
(g6
g7
(lp4896
VA
p4897
atp4898
Rp4899
(dp4900
g16
VDT
p4901
sbag5
(g6
g7
(lp4902
Vjoint
p4903
atp4904
Rp4905
(dp4906
g16
VJJ
p4907
sbag5
(g6
g7
(lp4908
Vmodel
p4909
atp4910
Rp4911
(dp4912
g16
VNN
p4913
sbatp4914
Rp4915
(dp4916
g16
VNP
p4917
sbag5
(g6
g7
(lp4918
g5
(g6
g7
(lp4919
g5
(g6
g7
(lp4920
Vhas
p4921
atp4922
Rp4923
(dp4924
g16
VVBZ
p4925
sbag5
(g6
g7
(lp4926
g5
(g6
g7
(lp4927
g5
(g6
g7
(lp4928
Vthree
p4929
atp4930
Rp4931
(dp4932
g16
VCD
p4933
sbatp4934
Rp4935
(dp4936
g16
VNP
p4937
sbag5
(g6
g7
(lp4938
g31
atp4939
Rp4940
(dp4941
g16
VFW
p4942
sbag5
(g6
g7
(lp4943
Vpriori
p4944
atp4945
Rp4946
(dp4947
g16
VFW
p4948
sbatp4949
Rp4950
(dp4951
g16
VADVP
p4952
sbag5
(g6
g7
(lp4953
g5
(g6
g7
(lp4954
Vadvantages
p4955
atp4956
Rp4957
(dp4958
g16
VVBN
p4959
sbag5
(g6
g7
(lp4960
g5
(g6
g7
(lp4961
Vover
p4962
atp4963
Rp4964
(dp4965
g16
VIN
p4966
sbag5
(g6
g7
(lp4967
g5
(g6
g7
(lp4968
g5
(g6
g7
(lp4969
Vindependent
p4970
atp4971
Rp4972
(dp4973
g16
VJJ
p4974
sbag5
(g6
g7
(lp4975
Vmodels
p4976
atp4977
Rp4978
(dp4979
g16
VNNS
p4980
sbag5
(g6
g7
(lp4981
Vi
p4982
atp4983
Rp4984
(dp4985
g16
VNNS
p4986
sbatp4987
Rp4988
(dp4989
g16
VNP
p4990
sbag5
(g6
g7
(lp4991
V-RRB-
p4992
atp4993
Rp4994
(dp4995
g16
V-RRB-
p4996
sbag5
(g6
g7
(lp4997
g5
(g6
g7
(lp4998
g5
(g6
g7
(lp4999
g5
(g6
g7
(lp5000
g5
(g6
g7
(lp5001
Vsharing
p5002
atp5003
Rp5004
(dp5005
g16
VNN
p5006
sbag5
(g6
g7
(lp5007
Vdata
p5008
atp5009
Rp5010
(dp5011
g16
VNNS
p5012
sbatp5013
Rp5014
(dp5015
g16
VNP
p5016
sbag5
(g6
g7
(lp5017
g5
(g6
g7
(lp5018
Vacross
p5019
atp5020
Rp5021
(dp5022
g16
VIN
p5023
sbag5
(g6
g7
(lp5024
g5
(g6
g7
(lp5025
Vvariable
p5026
atp5027
Rp5028
(dp5029
g16
VJJ
p5030
sbag5
(g6
g7
(lp5031
Vvalues
p5032
atp5033
Rp5034
(dp5035
g16
VNNS
p5036
sbatp5037
Rp5038
(dp5039
g16
VNP
p5040
sbatp5041
Rp5042
(dp5043
g16
VPP
p5044
sbatp5045
Rp5046
(dp5047
g16
VNP
p5048
sbag5
(g6
g7
(lp5049
g5
(g6
g7
(lp5050
Vencourages
p5051
atp5052
Rp5053
(dp5054
g16
VVBZ
p5055
sbag5
(g6
g7
(lp5056
g5
(g6
g7
(lp5057
Vrepresentations
p5058
atp5059
Rp5060
(dp5061
g16
VNNS
p5062
sbatp5063
Rp5064
(dp5065
g16
VNP
p5066
sbag5
(g6
g7
(lp5067
g5
(g6
g7
(lp5068
Vacross
p5069
atp5070
Rp5071
(dp5072
g16
VIN
p5073
sbag5
(g6
g7
(lp5074
g5
(g6
g7
(lp5075
g5
(g6
g7
(lp5076
Vthose
p5077
atp5078
Rp5079
(dp5080
g16
VDT
p5081
sbag5
(g6
g7
(lp5082
Vvalues
p5083
atp5084
Rp5085
(dp5086
g16
VNNS
p5087
sbatp5088
Rp5089
(dp5090
g16
VNP
p5091
sbag5
(g6
g7
(lp5092
g5
(g6
g7
(lp5093
g5
(g6
g7
(lp5094
g5
(g6
g7
(lp5095
Vto
p5096
atp5097
Rp5098
(dp5099
g16
VTO
p5100
sbag5
(g6
g7
(lp5101
g5
(g6
g7
(lp5102
Vbe
p5103
atp5104
Rp5105
(dp5106
g16
VVB
p5107
sbag5
(g6
g7
(lp5108
g5
(g6
g7
(lp5109
Vsimilar
p5110
atp5111
Rp5112
(dp5113
g16
VJJ
p5114
sbatp5115
Rp5116
(dp5117
g16
VADJP
p5118
sbatp5119
Rp5120
(dp5121
g16
VVP
p5122
sbatp5123
Rp5124
(dp5125
g16
VVP
p5126
sbatp5127
Rp5128
(dp5129
g16
g200
sbatp5130
Rp5131
(dp5132
g16
VSBAR
p5133
sbag5
(g6
g7
(lp5134
g2068
atp5135
Rp5136
(dp5137
g16
g2072
sbag5
(g6
g7
(lp5138
g5
(g6
g7
(lp5139
Ve.g.
p5140
atp5141
Rp5142
(dp5143
g16
VNNP
p5144
sbatp5145
Rp5146
(dp5147
g16
VNP
p5148
sbatp5149
Rp5150
(dp5151
g16
VNP
p5152
sbatp5153
Rp5154
(dp5155
g16
VPP
p5156
sbatp5157
Rp5158
(dp5159
g16
VVP
p5160
sbatp5161
Rp5162
(dp5163
g16
g200
sbatp5164
Rp5165
(dp5166
g16
VSBAR
p5167
sbag5
(g6
g7
(lp5168
g381
atp5169
Rp5170
(dp5171
g16
g381
sbatp5172
Rp5173
(dp5174
g16
VNP
p5175
sbatp5176
Rp5177
(dp5178
g16
VPP
p5179
sbag5
(g6
g7
(lp5180
g381
atp5181
Rp5182
(dp5183
g16
g381
sbag5
(g6
g7
(lp5184
g5
(g6
g7
(lp5185
Vwhile
p5186
atp5187
Rp5188
(dp5189
g16
VIN
p5190
sbag5
(g6
g7
(lp5191
g5
(g6
g7
(lp5192
g5
(g6
g7
(lp5193
Vcity
p5194
atp5195
Rp5196
(dp5197
g16
VNN
p5198
sbatp5199
Rp5200
(dp5201
g16
VNP
p5202
sbag5
(g6
g7
(lp5203
g5
(g6
g7
(lp5204
Vmay
p5205
atp5206
Rp5207
(dp5208
g16
VMD
p5209
sbag5
(g6
g7
(lp5210
g5
(g6
g7
(lp5211
Vbe
p5212
atp5213
Rp5214
(dp5215
g16
VVB
p5216
sbag5
(g6
g7
(lp5217
g5
(g6
g7
(lp5218
g5
(g6
g7
(lp5219
Vcloser
p5220
atp5221
Rp5222
(dp5223
g16
VJJR
p5224
sbatp5225
Rp5226
(dp5227
g16
VADJP
p5228
sbag5
(g6
g7
(lp5229
g5
(g6
g7
(lp5230
Vto
p5231
atp5232
Rp5233
(dp5234
g16
VTO
p5235
sbag5
(g6
g7
(lp5236
g5
(g6
g7
(lp5237
g5
(g6
g7
(lp5238
VBoston
p5239
atp5240
Rp5241
(dp5242
g16
VNNP
p5243
sbatp5244
Rp5245
(dp5246
g16
VNP
p5247
sbag5
(g6
g7
(lp5248
g5
(g6
g7
(lp5249
Vin
p5250
atp5251
Rp5252
(dp5253
g16
VIN
p5254
sbag5
(g6
g7
(lp5255
g5
(g6
g7
(lp5256
VMassachusetts
p5257
atp5258
Rp5259
(dp5260
g16
VNNP
p5261
sbag5
(g6
g7
(lp5262
Vand
p5263
atp5264
Rp5265
(dp5266
g16
VCC
p5267
sbag5
(g6
g7
(lp5268
VChicago
p5269
atp5270
Rp5271
(dp5272
g16
VNNP
p5273
sbatp5274
Rp5275
(dp5276
g16
VNP
p5277
sbatp5278
Rp5279
(dp5280
g16
VPP
p5281
sbatp5282
Rp5283
(dp5284
g16
VNP
p5285
sbatp5286
Rp5287
(dp5288
g16
VPP
p5289
sbatp5290
Rp5291
(dp5292
g16
VADJP
p5293
sbag5
(g6
g7
(lp5294
g5
(g6
g7
(lp5295
Vin
p5296
atp5297
Rp5298
(dp5299
g16
VIN
p5300
sbag5
(g6
g7
(lp5301
g5
(g6
g7
(lp5302
VIllinois
p5303
atp5304
Rp5305
(dp5306
g16
VNNP
p5307
sbatp5308
Rp5309
(dp5310
g16
VNP
p5311
sbatp5312
Rp5313
(dp5314
g16
VPP
p5315
sbag5
(g6
g7
(lp5316
g381
atp5317
Rp5318
(dp5319
g16
g381
sbag5
(g6
g7
(lp5320
g5
(g6
g7
(lp5321
Vin
p5322
atp5323
Rp5324
(dp5325
g16
VIN
p5326
sbag5
(g6
g7
(lp5327
g5
(g6
g7
(lp5328
g5
(g6
g7
(lp5329
Vboth
p5330
atp5331
Rp5332
(dp5333
g16
VDT
p5334
sbag5
(g6
g7
(lp5335
Vplaces
p5336
atp5337
Rp5338
(dp5339
g16
VNNS
p5340
sbatp5341
Rp5342
(dp5343
g16
VNP
p5344
sbag5
(g6
g7
(lp5345
g5
(g6
g7
(lp5346
g5
(g6
g7
(lp5347
g5
(g6
g7
(lp5348
g5
(g6
g7
(lp5349
Vit
p5350
atp5351
Rp5352
(dp5353
g16
VPRP
p5354
sbatp5355
Rp5356
(dp5357
g16
VNP
p5358
sbag5
(g6
g7
(lp5359
g5
(g6
g7
(lp5360
Vstill
p5361
atp5362
Rp5363
(dp5364
g16
VRB
p5365
sbatp5366
Rp5367
(dp5368
g16
VADVP
p5369
sbag5
(g6
g7
(lp5370
g5
(g6
g7
(lp5371
g5
(g6
g7
(lp5372
Vgenerally
p5373
atp5374
Rp5375
(dp5376
g16
VRB
p5377
sbatp5378
Rp5379
(dp5380
g16
VADVP
p5381
sbag5
(g6
g7
(lp5382
Vconnotes
p5383
atp5384
Rp5385
(dp5386
g16
VVBZ
p5387
sbag5
(g6
g7
(lp5388
g5
(g6
g7
(lp5389
g5
(g6
g7
(lp5390
g31
atp5391
Rp5392
(dp5393
g16
VDT
p5394
sbag5
(g6
g7
(lp5395
Vmunicipality
p5396
atp5397
Rp5398
(dp5399
g16
VNN
p5400
sbatp5401
Rp5402
(dp5403
g16
VNP
p5404
sbag5
(g6
g7
(lp5405
g2068
atp5406
Rp5407
(dp5408
g16
g2072
sbag5
(g6
g7
(lp5409
g5
(g6
g7
(lp5410
g5
(g6
g7
(lp5411
g5
(g6
g7
(lp5412
V-LRB-
p5413
atp5414
Rp5415
(dp5416
g16
V-LRB-
p5417
sbag5
(g6
g7
(lp5418
g5
(g6
g7
(lp5419
Vii
p5420
atp5421
Rp5422
(dp5423
g16
VNN
p5424
sbatp5425
Rp5426
(dp5427
g16
VNP
p5428
sbag5
(g6
g7
(lp5429
V-RRB-
p5430
atp5431
Rp5432
(dp5433
g16
V-RRB-
p5434
sbatp5435
Rp5436
(dp5437
g16
VPRN
p5438
sbag5
(g6
g7
(lp5439
Vsuch
p5440
atp5441
Rp5442
(dp5443
g16
VJJ
p5444
sbag5
(g6
g7
(lp5445
Vsharing
p5446
atp5447
Rp5448
(dp5449
g16
VNN
p5450
sbatp5451
Rp5452
(dp5453
g16
VNP
p5454
sbag5
(g6
g7
(lp5455
g5
(g6
g7
(lp5456
g5
(g6
g7
(lp5457
g5
(g6
g7
(lp5458
Vcan
p5459
atp5460
Rp5461
(dp5462
g16
VMD
p5463
sbag5
(g6
g7
(lp5464
g5
(g6
g7
(lp5465
Vmitigate
p5466
atp5467
Rp5468
(dp5469
g16
VVB
p5470
sbag5
(g6
g7
(lp5471
g5
(g6
g7
(lp5472
Vdata
p5473
atp5474
Rp5475
(dp5476
g16
VNN
p5477
sbag5
(g6
g7
(lp5478
Vsparseness
p5479
atp5480
Rp5481
(dp5482
g16
VNNS
p5483
sbatp5484
Rp5485
(dp5486
g16
VNP
p5487
sbag5
(g6
g7
(lp5488
g5
(g6
g7
(lp5489
Vfor
p5490
atp5491
Rp5492
(dp5493
g16
VIN
p5494
sbag5
(g6
g7
(lp5495
g5
(g6
g7
(lp5496
Vless-witnessed
p5497
atp5498
Rp5499
(dp5500
g16
VJJ
p5501
sbag5
(g6
g7
(lp5502
Vareas
p5503
atp5504
Rp5505
(dp5506
g16
VNNS
p5507
sbatp5508
Rp5509
(dp5510
g16
VNP
p5511
sbatp5512
Rp5513
(dp5514
g16
VPP
p5515
sbatp5516
Rp5517
(dp5518
g16
VVP
p5519
sbatp5520
Rp5521
(dp5522
g16
VVP
p5523
sbatp5524
Rp5525
(dp5526
g16
g200
sbatp5527
Rp5528
(dp5529
g16
VSBAR
p5530
sbatp5531
Rp5532
(dp5533
g16
VNP
p5534
sbag5
(g6
g7
(lp5535
g2068
atp5536
Rp5537
(dp5538
g16
g2072
sbatp5539
Rp5540
(dp5541
g16
VNP
p5542
sbatp5543
Rp5544
(dp5545
g16
VVP
p5546
sbatp5547
Rp5548
(dp5549
g16
g200
sbag5
(g6
g7
(lp5550
Vand
p5551
atp5552
Rp5553
(dp5554
g16
VCC
p5555
sbag5
(g6
g7
(lp5556
g5
(g6
g7
(lp5557
V-LRB-
p5558
atp5559
Rp5560
(dp5561
g16
V-LRB-
p5562
sbag5
(g6
g7
(lp5563
g5
(g6
g7
(lp5564
Viii
p5565
atp5566
Rp5567
(dp5568
g16
VNN
p5569
sbatp5570
Rp5571
(dp5572
g16
VNP
p5573
sbag5
(g6
g7
(lp5574
V-RRB-
p5575
atp5576
Rp5577
(dp5578
g16
V-RRB-
p5579
sbatp5580
Rp5581
(dp5582
g16
VPRN
p5583
sbag5
(g6
g7
(lp5584
g5
(g6
g7
(lp5585
g5
(g6
g7
(lp5586
Vwith
p5587
atp5588
Rp5589
(dp5590
g16
VIN
p5591
sbag5
(g6
g7
(lp5592
g5
(g6
g7
(lp5593
g31
atp5594
Rp5595
(dp5596
g16
VDT
p5597
sbag5
(g6
g7
(lp5598
Vjoint
p5599
atp5600
Rp5601
(dp5602
g16
VJJ
p5603
sbag5
(g6
g7
(lp5604
Vmodel
p5605
atp5606
Rp5607
(dp5608
g16
VNN
p5609
sbatp5610
Rp5611
(dp5612
g16
VNP
p5613
sbatp5614
Rp5615
(dp5616
g16
VPP
p5617
sbag5
(g6
g7
(lp5618
g381
atp5619
Rp5620
(dp5621
g16
g381
sbag5
(g6
g7
(lp5622
g5
(g6
g7
(lp5623
Vall
p5624
atp5625
Rp5626
(dp5627
g16
VDT
p5628
sbag5
(g6
g7
(lp5629
Vrepresentations
p5630
atp5631
Rp5632
(dp5633
g16
VNNS
p5634
sbatp5635
Rp5636
(dp5637
g16
VNP
p5638
sbag5
(g6
g7
(lp5639
g5
(g6
g7
(lp5640
Vare
p5641
atp5642
Rp5643
(dp5644
g16
VVBP
p5645
sbag5
(g6
g7
(lp5646
g5
(g6
g7
(lp5647
Vguaranteed
p5648
atp5649
Rp5650
(dp5651
g16
VVBN
p5652
sbag5
(g6
g7
(lp5653
g5
(g6
g7
(lp5654
g5
(g6
g7
(lp5655
Vto
p5656
atp5657
Rp5658
(dp5659
g16
VTO
p5660
sbag5
(g6
g7
(lp5661
g5
(g6
g7
(lp5662
Vbe
p5663
atp5664
Rp5665
(dp5666
g16
VVB
p5667
sbag5
(g6
g7
(lp5668
g5
(g6
g7
(lp5669
Vin
p5670
atp5671
Rp5672
(dp5673
g16
VIN
p5674
sbag5
(g6
g7
(lp5675
g5
(g6
g7
(lp5676
Vthe
p5677
atp5678
Rp5679
(dp5680
g16
VDT
p5681
sbag5
(g6
g7
(lp5682
Vsame
p5683
atp5684
Rp5685
(dp5686
g16
VJJ
p5687
sbag5
(g6
g7
(lp5688
Vvector
p5689
atp5690
Rp5691
(dp5692
g16
VNN
p5693
sbag5
(g6
g7
(lp5694
Vspace
p5695
atp5696
Rp5697
(dp5698
g16
VNN
p5699
sbatp5700
Rp5701
(dp5702
g16
VNP
p5703
sbatp5704
Rp5705
(dp5706
g16
VPP
p5707
sbatp5708
Rp5709
(dp5710
g16
VVP
p5711
sbatp5712
Rp5713
(dp5714
g16
VVP
p5715
sbatp5716
Rp5717
(dp5718
g16
g200
sbatp5719
Rp5720
(dp5721
g16
VVP
p5722
sbatp5723
Rp5724
(dp5725
g16
VVP
p5726
sbatp5727
Rp5728
(dp5729
g16
g200
sbatp5730
Rp5731
(dp5732
g16
g200
sbatp5733
Rp5734
(dp5735
g16
VSBAR
p5736
sbatp5737
Rp5738
(dp5739
g16
VNP
p5740
sbatp5741
Rp5742
(dp5743
g16
VPP
p5744
sbatp5745
Rp5746
(dp5747
g16
VVP
p5748
sbatp5749
Rp5750
(dp5751
g16
VVP
p5752
sbatp5753
Rp5754
(dp5755
g16
g200
sbatp5756
Rp5757
(dp5758
g16
VSBAR
p5759
sbatp5760
Rp5761
(dp5762
g16
VVP
p5763
sbatp5764
Rp5765
(dp5766
g16
VVP
p5767
sbag5
(g6
g7
(lp5768
Vand
p5769
atp5770
Rp5771
(dp5772
g16
VCC
p5773
sbag5
(g6
g7
(lp5774
g5
(g6
g7
(lp5775
Vcan
p5776
atp5777
Rp5778
(dp5779
g16
VMD
p5780
sbag5
(g6
g7
(lp5781
g5
(g6
g7
(lp5782
Vtherefore
p5783
atp5784
Rp5785
(dp5786
g16
VRB
p5787
sbatp5788
Rp5789
(dp5790
g16
VADVP
p5791
sbag5
(g6
g7
(lp5792
g5
(g6
g7
(lp5793
Vbe
p5794
atp5795
Rp5796
(dp5797
g16
VVB
p5798
sbag5
(g6
g7
(lp5799
g5
(g6
g7
(lp5800
Vcompared
p5801
atp5802
Rp5803
(dp5804
g16
VVBN
p5805
sbag5
(g6
g7
(lp5806
g5
(g6
g7
(lp5807
Vto
p5808
atp5809
Rp5810
(dp5811
g16
VTO
p5812
sbag5
(g6
g7
(lp5813
g5
(g6
g7
(lp5814
Veach
p5815
atp5816
Rp5817
(dp5818
g16
VDT
p5819
sbag5
(g6
g7
(lp5820
Vother
p5821
atp5822
Rp5823
(dp5824
g16
VJJ
p5825
sbatp5826
Rp5827
(dp5828
g16
VNP
p5829
sbatp5830
Rp5831
(dp5832
g16
VPP
p5833
sbatp5834
Rp5835
(dp5836
g16
VVP
p5837
sbatp5838
Rp5839
(dp5840
g16
VVP
p5841
sbatp5842
Rp5843
(dp5844
g16
VVP
p5845
sbatp5846
Rp5847
(dp5848
g16
VVP
p5849
sbatp5850
Rp5851
(dp5852
g16
g200
sbag5
(g6
g7
(lp5853
g2068
atp5854
Rp5855
(dp5856
g16
g2072
sbag5
(g6
g7
(lp5857
g5
(g6
g7
(lp5858
g5
(g6
g7
(lp5859
Vwith
p5860
atp5861
Rp5862
(dp5863
g16
VIN
p5864
sbag5
(g6
g7
(lp5865
g5
(g6
g7
(lp5866
g5
(g6
g7
(lp5867
Vindividual
p5868
atp5869
Rp5870
(dp5871
g16
VJJ
p5872
sbag5
(g6
g7
(lp5873
Vmodels
p5874
atp5875
Rp5876
(dp5877
g16
VNNS
p5878
sbatp5879
Rp5880
(dp5881
g16
VNP
p5882
sbag5
(g6
g7
(lp5883
g5
(g6
g7
(lp5884
V-LRB-
p5885
atp5886
Rp5887
(dp5888
g16
V-LRB-
p5889
sbag5
(g6
g7
(lp5890
g5
(g6
g7
(lp5891
g5
(g6
g7
(lp5892
Veach
p5893
atp5894
Rp5895
(dp5896
g16
VDT
p5897
sbatp5898
Rp5899
(dp5900
g16
VNP
p5901
sbag5
(g6
g7
(lp5902
g5
(g6
g7
(lp5903
Vwith
p5904
atp5905
Rp5906
(dp5907
g16
VIN
p5908
sbag5
(g6
g7
(lp5909
g5
(g6
g7
(lp5910
Vdifferent
p5911
atp5912
Rp5913
(dp5914
g16
VJJ
p5915
sbag5
(g6
g7
(lp5916
Vinitializations
p5917
atp5918
Rp5919
(dp5920
g16
VNNS
p5921
sbatp5922
Rp5923
(dp5924
g16
VNP
p5925
sbatp5926
Rp5927
(dp5928
g16
VPP
p5929
sbatp5930
Rp5931
(dp5932
g16
VNP
p5933
sbag5
(g6
g7
(lp5934
V-RRB-
p5935
atp5936
Rp5937
(dp5938
g16
V-RRB-
p5939
sbatp5940
Rp5941
(dp5942
g16
VPRN
p5943
sbatp5944
Rp5945
(dp5946
g16
VNP
p5947
sbatp5948
Rp5949
(dp5950
g16
VPP
p5951
sbag5
(g6
g7
(lp5952
g381
atp5953
Rp5954
(dp5955
g16
g381
sbag5
(g6
g7
(lp5956
g5
(g6
g7
(lp5957
g5
(g6
g7
(lp5958
Vword
p5959
atp5960
Rp5961
(dp5962
g16
VNN
p5963
sbag5
(g6
g7
(lp5964
Vvectors
p5965
atp5966
Rp5967
(dp5968
g16
VNNS
p5969
sbatp5970
Rp5971
(dp5972
g16
VNP
p5973
sbag5
(g6
g7
(lp5974
g5
(g6
g7
(lp5975
Vacross
p5976
atp5977
Rp5978
(dp5979
g16
VIN
p5980
sbag5
(g6
g7
(lp5981
g5
(g6
g7
(lp5982
Vdifferent
p5983
atp5984
Rp5985
(dp5986
g16
VJJ
p5987
sbag5
(g6
g7
(lp5988
Vstates
p5989
atp5990
Rp5991
(dp5992
g16
VNNS
p5993
sbatp5994
Rp5995
(dp5996
g16
VNP
p5997
sbatp5998
Rp5999
(dp6000
g16
VPP
p6001
sbatp6002
Rp6003
(dp6004
g16
VNP
p6005
sbag5
(g6
g7
(lp6006
g5
(g6
g7
(lp6007
Vmay
p6008
atp6009
Rp6010
(dp6011
g16
VMD
p6012
sbag5
(g6
g7
(lp6013
Vnot
p6014
atp6015
Rp6016
(dp6017
g16
VRB
p6018
sbag5
(g6
g7
(lp6019
g5
(g6
g7
(lp6020
Vbe
p6021
atp6022
Rp6023
(dp6024
g16
VVB
p6025
sbag5
(g6
g7
(lp6026
g5
(g6
g7
(lp6027
g5
(g6
g7
(lp6028
Vdirectly
p6029
atp6030
Rp6031
(dp6032
g16
VRB
p6033
sbatp6034
Rp6035
(dp6036
g16
VADVP
p6037
sbag5
(g6
g7
(lp6038
Vcompared
p6039
atp6040
Rp6041
(dp6042
g16
VVBN
p6043
sbatp6044
Rp6045
(dp6046
g16
VVP
p6047
sbatp6048
Rp6049
(dp6050
g16
VVP
p6051
sbatp6052
Rp6053
(dp6054
g16
VVP
p6055
sbatp6056
Rp6057
(dp6058
g16
g200
sbatp6059
Rp6060
(dp6061
g16
g200
sbatp6062
Rp6063
(dp6064
g16
VROOT
p6065
sbasg228
(icmyPackage
CorE
p6066
(dp6067
g231
(lp6068
(I0
I0
tp6069
a(I0
I88
tp6070
asg235
g5
(g6
g7
(lp6071
g4915
ag5765
ag5771
ag5778
atp6072
Rp6073
(dp6074
g16
g246
sbsbsg236
(icmyPackage
CorE
p6075
(dp6076
g231
(lp6077
(I0
I90
tp6078
a(I0
I115
tp6079
asg235
g5
(g6
g7
(lp6080
g5839
ag5855
ag6057
atp6081
Rp6082
(dp6083
g16
g246
sbsbsg247
(icmyPackage
pattern
p6084
(dp6085
g250
I62
sg251
I1
sg252
(lp6086
(lp6087
S'therefore'
p6088
aasg256
(lp6089
I1
aI1
aI1
asg258
(lp6090
S'He never lies; therefore, everyone likes to make friends with him.'
p6091
asg261
I1
sg262
(lp6092
(lp6093
S'&C'
p6094
aS'(,/;/./--)'
p6095
aS'(&AND)'
p6096
aa(lp6097
S'(,)'
p6098
aS'&R'
p6099
aasbsg268
(lp6100
(isxpPackage
sxpSent
p6101
(dp6102
g272
(lp6103
I8
asg274
VA joint model has three a priori advantages over independent models i) sharing data across variable values encourages representations across those values to be similar; e.g.,, while city may be closer to Boston in Massachusetts and Chicago in Illinois, in both places it still generally connotes a municipality ; (ii) such sharing can mitigate data sparseness for less-witnessed areas; and (iii) with a joint model, all representations are guaranteed to be in the same vector space and can therefore be compared to each other; with individual models (each with different initializations), word vectors across different states may not be directly compared
p6104
sg276
I3
sg261
I58
sg277
I14
sbasba(icmyPackage
CELink
p6105
(dp6106
g3
(lp6107
g5
(g6
g7
(lp6108
g5
(g6
g7
(lp6109
g5
(g6
g7
(lp6110
g5
(g6
g7
(lp6111
g5
(g6
g7
(lp6112
VIn
p6113
atp6114
Rp6115
(dp6116
g16
VIN
p6117
sbag5
(g6
g7
(lp6118
g5
(g6
g7
(lp6119
Vall
p6120
atp6121
Rp6122
(dp6123
g16
VDT
p6124
sbag5
(g6
g7
(lp6125
Vexperiments
p6126
atp6127
Rp6128
(dp6129
g16
VNNS
p6130
sbatp6131
Rp6132
(dp6133
g16
VNP
p6134
sbatp6135
Rp6136
(dp6137
g16
VPP
p6138
sbag5
(g6
g7
(lp6139
g381
atp6140
Rp6141
(dp6142
g16
g381
sbag5
(g6
g7
(lp6143
g5
(g6
g7
(lp6144
Vthe
p6145
atp6146
Rp6147
(dp6148
g16
VDT
p6149
sbag5
(g6
g7
(lp6150
Vcontextual
p6151
atp6152
Rp6153
(dp6154
g16
VJJ
p6155
sbag5
(g6
g7
(lp6156
Vvariable
p6157
atp6158
Rp6159
(dp6160
g16
VNN
p6161
sbatp6162
Rp6163
(dp6164
g16
VNP
p6165
sbag5
(g6
g7
(lp6166
g5
(g6
g7
(lp6167
Vis
p6168
atp6169
Rp6170
(dp6171
g16
VVBZ
p6172
sbag5
(g6
g7
(lp6173
g5
(g6
g7
(lp6174
g5
(g6
g7
(lp6175
Vthe
p6176
atp6177
Rp6178
(dp6179
g16
VDT
p6180
sbag5
(g6
g7
(lp6181
g5
(g6
g7
(lp6182
Vobserved
p6183
atp6184
Rp6185
(dp6186
g16
VJJ
p6187
sbatp6188
Rp6189
(dp6190
g16
VADJP
p6191
sbag5
(g6
g7
(lp6192
VUS
p6193
atp6194
Rp6195
(dp6196
g16
VNNP
p6197
sbag5
(g6
g7
(lp6198
Vstate
p6199
atp6200
Rp6201
(dp6202
g16
VNN
p6203
sbatp6204
Rp6205
(dp6206
g16
VNP
p6207
sbag5
(g6
g7
(lp6208
g5
(g6
g7
(lp6209
V-LRB-
p6210
atp6211
Rp6212
(dp6213
g16
V-LRB-
p6214
sbag5
(g6
g7
(lp6215
g5
(g6
g7
(lp6216
Vincluding
p6217
atp6218
Rp6219
(dp6220
g16
VVBG
p6221
sbag5
(g6
g7
(lp6222
g5
(g6
g7
(lp6223
VDC
p6224
atp6225
Rp6226
(dp6227
g16
VNNP
p6228
sbatp6229
Rp6230
(dp6231
g16
VNP
p6232
sbatp6233
Rp6234
(dp6235
g16
VPP
p6236
sbag5
(g6
g7
(lp6237
V-RRB-
p6238
atp6239
Rp6240
(dp6241
g16
V-RRB-
p6242
sbatp6243
Rp6244
(dp6245
g16
VPRN
p6246
sbatp6247
Rp6248
(dp6249
g16
VNP
p6250
sbatp6251
Rp6252
(dp6253
g16
VVP
p6254
sbatp6255
Rp6256
(dp6257
g16
g200
sbag5
(g6
g7
(lp6258
g381
atp6259
Rp6260
(dp6261
g16
g381
sbag5
(g6
g7
(lp6262
Vso
p6263
atp6264
Rp6265
(dp6266
g16
VRB
p6267
sbag5
(g6
g7
(lp6268
g5
(g6
g7
(lp6269
g5
(g6
g7
(lp6270
Vthat
p6271
atp6272
Rp6273
(dp6274
g16
VDT
p6275
sbag5
(g6
g7
(lp6276
g338
atp6277
Rp6278
(dp6279
g16
VNN
p6280
sbag5
(g6
g7
(lp6281
g344
atp6282
Rp6283
(dp6284
g16
VPOS
p6285
sbatp6286
Rp6287
(dp6288
g16
VNP
p6289
sbag5
(g6
g7
(lp6290
g5
(g6
g7
(lp6291
V\u005c
p6292
atp6293
Rp6294
(dp6295
g16
VVBG
p6296
sbag5
(g6
g7
(lp6297
g5
(g6
g7
(lp6298
g5
(g6
g7
(lp6299
g5
(g6
g7
(lp6300
Vud835
p6301
atp6302
Rp6303
(dp6304
g16
VNNP
p6305
sbag5
(g6
g7
(lp6306
g344
atp6307
Rp6308
(dp6309
g16
VPOS
p6310
sbatp6311
Rp6312
(dp6313
g16
VNP
p6314
sbag5
(g6
g7
(lp6315
g338
atp6316
Rp6317
(dp6318
g16
VNN
p6319
sbag5
(g6
g7
(lp6320
g344
atp6321
Rp6322
(dp6323
g16
VPOS
p6324
sbatp6325
Rp6326
(dp6327
g16
VNP
p6328
sbag5
(g6
g7
(lp6329
V\u005c
p6330
atp6331
Rp6332
(dp6333
g16
VJJ
p6334
sbag5
(g6
g7
(lp6335
Vudc9e
p6336
atp6337
Rp6338
(dp6339
g16
VNN
p6340
sbatp6341
Rp6342
(dp6343
g16
VNP
p6344
sbatp6345
Rp6346
(dp6347
g16
VVP
p6348
sbatp6349
Rp6350
(dp6351
g16
g200
sbag5
(g6
g7
(lp6352
g344
atp6353
Rp6354
(dp6355
g16
V''
p6356
sbatp6357
Rp6358
(dp6359
g16
g200
sbatp6360
Rp6361
(dp6362
g16
VROOT
p6363
sbasg228
(icmyPackage
CorE
p6364
(dp6365
g231
(lp6366
(I0
I0
tp6367
a(I0
I16
tp6368
asg235
g5
(g6
g7
(lp6369
g6256
ag6260
atp6370
Rp6371
(dp6372
g16
g246
sbsbsg236
(icmyPackage
CorE
p6373
(dp6374
g231
(lp6375
(I0
I19
tp6376
a(I0
I28
tp6377
asg235
g5
(g6
g7
(lp6378
g6278
ag6283
ag6346
ag6354
atp6379
Rp6380
(dp6381
g16
g246
sbsbsg247
(icmyPackage
pattern
p6382
(dp6383
g250
I45
sg251
I0
sg252
(lp6384
(lp6385
S'so'
p6386
aS'that'
p6387
aasg256
(lp6388
I3
aI1
aI1
asg258
(lp6389
S'The teacher then decided to ask him some very easy questions so that he could get a few right.'
p6390
asg261
I77
sg262
(lp6391
(lp6392
S'&C'
p6393
aa(lp6394
S'&R'
p6395
aasbsg268
(lp6396
(isxpPackage
sxpSent
p6397
(dp6398
g272
(lp6399
I9
asg274
VIn all experiments, the contextual variable is the observed US state (including DC), so that u'\u005cud835' u'\u005cudc9e'
p6400
sg276
I4
sg261
I63
sg277
I15
sbasba(icmyPackage
CELink
p6401
(dp6402
g3
(lp6403
g5
(g6
g7
(lp6404
g5
(g6
g7
(lp6405
g5
(g6
g7
(lp6406
g5
(g6
g7
(lp6407
g5
(g6
g7
(lp6408
VTable
p6409
atp6410
Rp6411
(dp6412
g16
VNNP
p6413
sbag5
(g6
g7
(lp6414
V2
p6415
atp6416
Rp6417
(dp6418
g16
VCD
p6419
sbatp6420
Rp6421
(dp6422
g16
VNP
p6423
sbag5
(g6
g7
(lp6424
g5
(g6
g7
(lp6425
Vlikewise
p6426
atp6427
Rp6428
(dp6429
g16
VRB
p6430
sbatp6431
Rp6432
(dp6433
g16
VADVP
p6434
sbag5
(g6
g7
(lp6435
g5
(g6
g7
(lp6436
Vpresents
p6437
atp6438
Rp6439
(dp6440
g16
VVBZ
p6441
sbag5
(g6
g7
(lp6442
g5
(g6
g7
(lp6443
Vthe
p6444
atp6445
Rp6446
(dp6447
g16
VDT
p6448
sbag5
(g6
g7
(lp6449
Vterms
p6450
atp6451
Rp6452
(dp6453
g16
VNNS
p6454
sbatp6455
Rp6456
(dp6457
g16
VNP
p6458
sbag5
(g6
g7
(lp6459
g5
(g6
g7
(lp6460
Vwith
p6461
atp6462
Rp6463
(dp6464
g16
VIN
p6465
sbag5
(g6
g7
(lp6466
g5
(g6
g7
(lp6467
g5
(g6
g7
(lp6468
Vthe
p6469
atp6470
Rp6471
(dp6472
g16
VDT
p6473
sbag5
(g6
g7
(lp6474
Vhighest
p6475
atp6476
Rp6477
(dp6478
g16
VJJS
p6479
sbag5
(g6
g7
(lp6480
Vcosine
p6481
atp6482
Rp6483
(dp6484
g16
VNN
p6485
sbag5
(g6
g7
(lp6486
Vsimilarity
p6487
atp6488
Rp6489
(dp6490
g16
VNN
p6491
sbatp6492
Rp6493
(dp6494
g16
VNP
p6495
sbag5
(g6
g7
(lp6496
g5
(g6
g7
(lp6497
Vto
p6498
atp6499
Rp6500
(dp6501
g16
VTO
p6502
sbag5
(g6
g7
(lp6503
g5
(g6
g7
(lp6504
g5
(g6
g7
(lp6505
Vcity
p6506
atp6507
Rp6508
(dp6509
g16
VNN
p6510
sbatp6511
Rp6512
(dp6513
g16
VNP
p6514
sbag5
(g6
g7
(lp6515
g5
(g6
g7
(lp6516
Vin
p6517
atp6518
Rp6519
(dp6520
g16
VIN
p6521
sbag5
(g6
g7
(lp6522
g5
(g6
g7
(lp6523
Vboth
p6524
atp6525
Rp6526
(dp6527
g16
VDT
p6528
sbag5
(g6
g7
(lp6529
VCalifornia
p6530
atp6531
Rp6532
(dp6533
g16
VNNP
p6534
sbag5
(g6
g7
(lp6535
Vand
p6536
atp6537
Rp6538
(dp6539
g16
VCC
p6540
sbag5
(g6
g7
(lp6541
VNew
p6542
atp6543
Rp6544
(dp6545
g16
VNNP
p6546
sbag5
(g6
g7
(lp6547
VYork
p6548
atp6549
Rp6550
(dp6551
g16
VNNP
p6552
sbatp6553
Rp6554
(dp6555
g16
VNP
p6556
sbatp6557
Rp6558
(dp6559
g16
VPP
p6560
sbatp6561
Rp6562
(dp6563
g16
VNP
p6564
sbatp6565
Rp6566
(dp6567
g16
VPP
p6568
sbatp6569
Rp6570
(dp6571
g16
VNP
p6572
sbatp6573
Rp6574
(dp6575
g16
VPP
p6576
sbatp6577
Rp6578
(dp6579
g16
VVP
p6580
sbatp6581
Rp6582
(dp6583
g16
g200
sbag5
(g6
g7
(lp6584
g2068
atp6585
Rp6586
(dp6587
g16
g2072
sbag5
(g6
g7
(lp6588
g5
(g6
g7
(lp6589
g5
(g6
g7
(lp6590
Vwhile
p6591
atp6592
Rp6593
(dp6594
g16
VIN
p6595
sbag5
(g6
g7
(lp6596
g5
(g6
g7
(lp6597
g5
(g6
g7
(lp6598
g5
(g6
g7
(lp6599
Vthe
p6600
atp6601
Rp6602
(dp6603
g16
VDT
p6604
sbag5
(g6
g7
(lp6605
Vterms
p6606
atp6607
Rp6608
(dp6609
g16
VNNS
p6610
sbatp6611
Rp6612
(dp6613
g16
VNP
p6614
sbag5
(g6
g7
(lp6615
g5
(g6
g7
(lp6616
Vmost
p6617
atp6618
Rp6619
(dp6620
g16
VRBS
p6621
sbag5
(g6
g7
(lp6622
Vevoked
p6623
atp6624
Rp6625
(dp6626
g16
VVBN
p6627
sbag5
(g6
g7
(lp6628
g5
(g6
g7
(lp6629
Vby
p6630
atp6631
Rp6632
(dp6633
g16
VIN
p6634
sbag5
(g6
g7
(lp6635
g5
(g6
g7
(lp6636
g5
(g6
g7
(lp6637
Vcity
p6638
atp6639
Rp6640
(dp6641
g16
VNN
p6642
sbatp6643
Rp6644
(dp6645
g16
VNP
p6646
sbag5
(g6
g7
(lp6647
g5
(g6
g7
(lp6648
Vin
p6649
atp6650
Rp6651
(dp6652
g16
VIN
p6653
sbag5
(g6
g7
(lp6654
g5
(g6
g7
(lp6655
VCalifornia
p6656
atp6657
Rp6658
(dp6659
g16
VNNP
p6660
sbatp6661
Rp6662
(dp6663
g16
VNP
p6664
sbatp6665
Rp6666
(dp6667
g16
VPP
p6668
sbatp6669
Rp6670
(dp6671
g16
VNP
p6672
sbatp6673
Rp6674
(dp6675
g16
VPP
p6676
sbatp6677
Rp6678
(dp6679
g16
VVP
p6680
sbatp6681
Rp6682
(dp6683
g16
VNP
p6684
sbag5
(g6
g7
(lp6685
g5
(g6
g7
(lp6686
Vinclude
p6687
atp6688
Rp6689
(dp6690
g16
VVBP
p6691
sbag5
(g6
g7
(lp6692
g5
(g6
g7
(lp6693
Vregional
p6694
atp6695
Rp6696
(dp6697
g16
VJJ
p6698
sbag5
(g6
g7
(lp6699
Vlocations
p6700
atp6701
Rp6702
(dp6703
g16
VNNS
p6704
sbatp6705
Rp6706
(dp6707
g16
VNP
p6708
sbag5
(g6
g7
(lp6709
g5
(g6
g7
(lp6710
Vlike
p6711
atp6712
Rp6713
(dp6714
g16
VIN
p6715
sbag5
(g6
g7
(lp6716
g5
(g6
g7
(lp6717
VChinatown
p6718
atp6719
Rp6720
(dp6721
g16
VNNP
p6722
sbatp6723
Rp6724
(dp6725
g16
VNP
p6726
sbatp6727
Rp6728
(dp6729
g16
VPP
p6730
sbatp6731
Rp6732
(dp6733
g16
VVP
p6734
sbatp6735
Rp6736
(dp6737
g16
g200
sbatp6738
Rp6739
(dp6740
g16
VSBAR
p6741
sbag5
(g6
g7
(lp6742
g381
atp6743
Rp6744
(dp6745
g16
g381
sbag5
(g6
g7
(lp6746
g5
(g6
g7
(lp6747
g5
(g6
g7
(lp6748
g5
(g6
g7
(lp6749
VLos
p6750
atp6751
Rp6752
(dp6753
g16
VNNP
p6754
sbag5
(g6
g7
(lp6755
VAngeles
p6756
atp6757
Rp6758
(dp6759
g16
VNNP
p6760
sbag5
(g6
g7
(lp6761
g338
atp6762
Rp6763
(dp6764
g16
VNNP
p6765
sbag5
(g6
g7
(lp6766
g344
atp6767
Rp6768
(dp6769
g16
VPOS
p6770
sbatp6771
Rp6772
(dp6773
g16
VNP
p6774
sbag5
(g6
g7
(lp6775
V\u005c
p6776
atp6777
Rp6778
(dp6779
g16
VNN
p6780
sbag5
(g6
g7
(lp6781
g5
(g6
g7
(lp6782
Vu2019
p6783
atp6784
Rp6785
(dp6786
g16
VNNP
p6787
sbag5
(g6
g7
(lp6788
g344
atp6789
Rp6790
(dp6791
g16
VPOS
p6792
sbatp6793
Rp6794
(dp6795
g16
VNP
p6796
sbag5
(g6
g7
(lp6797
VSouth
p6798
atp6799
Rp6800
(dp6801
g16
VNNP
p6802
sbag5
(g6
g7
(lp6803
VBay
p6804
atp6805
Rp6806
(dp6807
g16
VNNP
p6808
sbatp6809
Rp6810
(dp6811
g16
VNP
p6812
sbag5
(g6
g7
(lp6813
Vand
p6814
atp6815
Rp6816
(dp6817
g16
VCC
p6818
sbag5
(g6
g7
(lp6819
g5
(g6
g7
(lp6820
g5
(g6
g7
(lp6821
VSan
p6822
atp6823
Rp6824
(dp6825
g16
VNNP
p6826
sbag5
(g6
g7
(lp6827
VFrancisco
p6828
atp6829
Rp6830
(dp6831
g16
VNNP
p6832
sbag5
(g6
g7
(lp6833
g338
atp6834
Rp6835
(dp6836
g16
VNNP
p6837
sbag5
(g6
g7
(lp6838
g344
atp6839
Rp6840
(dp6841
g16
VPOS
p6842
sbatp6843
Rp6844
(dp6845
g16
VNP
p6846
sbag5
(g6
g7
(lp6847
V\u005c
p6848
atp6849
Rp6850
(dp6851
g16
VNN
p6852
sbag5
(g6
g7
(lp6853
Vu2019
p6854
atp6855
Rp6856
(dp6857
g16
VNN
p6858
sbag5
(g6
g7
(lp6859
g344
atp6860
Rp6861
(dp6862
g16
V''
p6863
sbatp6864
Rp6865
(dp6866
g16
VNP
p6867
sbatp6868
Rp6869
(dp6870
g16
VNP
p6871
sbag5
(g6
g7
(lp6872
g5
(g6
g7
(lp6873
g1733
atp6874
Rp6875
(dp6876
g16
VVBZ
p6877
sbag5
(g6
g7
(lp6878
g5
(g6
g7
(lp6879
g5
(g6
g7
(lp6880
VEast
p6881
atp6882
Rp6883
(dp6884
g16
VNNP
p6885
sbag5
(g6
g7
(lp6886
VBay
p6887
atp6888
Rp6889
(dp6890
g16
VNNP
p6891
sbatp6892
Rp6893
(dp6894
g16
VNP
p6895
sbag5
(g6
g7
(lp6896
g381
atp6897
Rp6898
(dp6899
g16
g381
sbag5
(g6
g7
(lp6900
g5
(g6
g7
(lp6901
Vin
p6902
atp6903
Rp6904
(dp6905
g16
VIN
p6906
sbag5
(g6
g7
(lp6907
g5
(g6
g7
(lp6908
g5
(g6
g7
(lp6909
VNew
p6910
atp6911
Rp6912
(dp6913
g16
VNNP
p6914
sbag5
(g6
g7
(lp6915
VYork
p6916
atp6917
Rp6918
(dp6919
g16
VNNP
p6920
sbatp6921
Rp6922
(dp6923
g16
VNP
p6924
sbag5
(g6
g7
(lp6925
g5
(g6
g7
(lp6926
g5
(g6
g7
(lp6927
g5
(g6
g7
(lp6928
Vthe
p6929
atp6930
Rp6931
(dp6932
g16
VDT
p6933
sbag5
(g6
g7
(lp6934
Vmost
p6935
atp6936
Rp6937
(dp6938
g16
VRBS
p6939
sbag5
(g6
g7
(lp6940
Vsimilar
p6941
atp6942
Rp6943
(dp6944
g16
VJJ
p6945
sbag5
(g6
g7
(lp6946
Vterms
p6947
atp6948
Rp6949
(dp6950
g16
VNNS
p6951
sbatp6952
Rp6953
(dp6954
g16
VNP
p6955
sbag5
(g6
g7
(lp6956
g5
(g6
g7
(lp6957
Vinclude
p6958
atp6959
Rp6960
(dp6961
g16
VVBP
p6962
sbag5
(g6
g7
(lp6963
g5
(g6
g7
(lp6964
Vhamptons
p6965
atp6966
Rp6967
(dp6968
g16
VNNS
p6969
sbag5
(g6
g7
(lp6970
g381
atp6971
Rp6972
(dp6973
g16
g381
sbag5
(g6
g7
(lp6974
Vupstate
p6975
atp6976
Rp6977
(dp6978
g16
VNN
p6979
sbag5
(g6
g7
(lp6980
Vand
p6981
atp6982
Rp6983
(dp6984
g16
VCC
p6985
sbag5
(g6
g7
(lp6986
Vborough
p6987
atp6988
Rp6989
(dp6990
g16
VNN
p6991
sbatp6992
Rp6993
(dp6994
g16
VNP
p6995
sbag5
(g6
g7
(lp6996
g5
(g6
g7
(lp6997
g5
(g6
g7
(lp6998
V-LRB-
p6999
atp7000
Rp7001
(dp7002
g16
V-LRB-
p7003
sbag5
(g6
g7
(lp7004
g5
(g6
g7
(lp7005
g5
(g6
g7
(lp7006
VNew
p7007
atp7008
Rp7009
(dp7010
g16
VNNP
p7011
sbag5
(g6
g7
(lp7012
VYork
p7013
atp7014
Rp7015
(dp7016
g16
VNNP
p7017
sbag5
(g6
g7
(lp7018
VCity
p7019
atp7020
Rp7021
(dp7022
g16
VNNP
p7023
sbag5
(g6
g7
(lp7024
g338
atp7025
Rp7026
(dp7027
g16
VNN
p7028
sbag5
(g6
g7
(lp7029
g344
atp7030
Rp7031
(dp7032
g16
VPOS
p7033
sbatp7034
Rp7035
(dp7036
g16
VNP
p7037
sbag5
(g6
g7
(lp7038
V\u005c
p7039
atp7040
Rp7041
(dp7042
g16
VJJ
p7043
sbag5
(g6
g7
(lp7044
Vu2019
p7045
atp7046
Rp7047
(dp7048
g16
VNNS
p7049
sbatp7050
Rp7051
(dp7052
g16
VNP
p7053
sbag5
(g6
g7
(lp7054
g344
atp7055
Rp7056
(dp7057
g16
V''
p7058
sbag5
(g6
g7
(lp7059
g5
(g6
g7
(lp7060
g1733
atp7061
Rp7062
(dp7063
g16
VVBZ
p7064
sbag5
(g6
g7
(lp7065
g5
(g6
g7
(lp7066
g5
(g6
g7
(lp7067
Vterm
p7068
atp7069
Rp7070
(dp7071
g16
VNN
p7072
sbatp7073
Rp7074
(dp7075
g16
VNP
p7076
sbag5
(g6
g7
(lp7077
g5
(g6
g7
(lp7078
Vof
p7079
atp7080
Rp7081
(dp7082
g16
VIN
p7083
sbag5
(g6
g7
(lp7084
g5
(g6
g7
(lp7085
Vadministrative
p7086
atp7087
Rp7088
(dp7089
g16
VJJ
p7090
sbag5
(g6
g7
(lp7091
Vdivision
p7092
atp7093
Rp7094
(dp7095
g16
VNN
p7096
sbatp7097
Rp7098
(dp7099
g16
VNP
p7100
sbatp7101
Rp7102
(dp7103
g16
VPP
p7104
sbatp7105
Rp7106
(dp7107
g16
VNP
p7108
sbatp7109
Rp7110
(dp7111
g16
VVP
p7112
sbatp7113
Rp7114
(dp7115
g16
g200
sbatp7116
Rp7117
(dp7118
g16
VSBAR
p7119
sbatp7120
Rp7121
(dp7122
g16
VVP
p7123
sbatp7124
Rp7125
(dp7126
g16
g200
sbatp7127
Rp7128
(dp7129
g16
VSBAR
p7130
sbatp7131
Rp7132
(dp7133
g16
VNP
p7134
sbatp7135
Rp7136
(dp7137
g16
VPP
p7138
sbatp7139
Rp7140
(dp7141
g16
VNP
p7142
sbatp7143
Rp7144
(dp7145
g16
VVP
p7146
sbatp7147
Rp7148
(dp7149
g16
g200
sbatp7150
Rp7151
(dp7152
g16
g200
sbatp7153
Rp7154
(dp7155
g16
VROOT
p7156
sbag5
(g6
g7
(lp7157
g5
(g6
g7
(lp7158
g5
(g6
g7
(lp7159
g5
(g6
g7
(lp7160
VAs
p7161
atp7162
Rp7163
(dp7164
g16
VIN
p7165
sbag5
(g6
g7
(lp7166
g5
(g6
g7
(lp7167
g5
(g6
g7
(lp7168
g5
(g6
g7
(lp7169
g31
atp7170
Rp7171
(dp7172
g16
VDT
p7173
sbag5
(g6
g7
(lp7174
Vquantitative
p7175
atp7176
Rp7177
(dp7178
g16
VJJ
p7179
sbag5
(g6
g7
(lp7180
Vmeasure
p7181
atp7182
Rp7183
(dp7184
g16
VNN
p7185
sbatp7186
Rp7187
(dp7188
g16
VNP
p7189
sbag5
(g6
g7
(lp7190
g5
(g6
g7
(lp7191
Vof
p7192
atp7193
Rp7194
(dp7195
g16
VIN
p7196
sbag5
(g6
g7
(lp7197
g5
(g6
g7
(lp7198
Vour
p7199
atp7200
Rp7201
(dp7202
g16
VPRP$
p7203
sbag5
(g6
g7
(lp7204
Vmodel
p7205
atp7206
Rp7207
(dp7208
g16
VNN
p7209
sbatp7210
Rp7211
(dp7212
g16
VNP
p7213
sbatp7214
Rp7215
(dp7216
g16
VPP
p7217
sbatp7218
Rp7219
(dp7220
g16
VNP
p7221
sbag5
(g6
g7
(lp7222
g5
(g6
g7
(lp7223
g5
(g6
g7
(lp7224
g338
atp7225
Rp7226
(dp7227
g16
VNNP
p7228
sbag5
(g6
g7
(lp7229
g344
atp7230
Rp7231
(dp7232
g16
VPOS
p7233
sbatp7234
Rp7235
(dp7236
g16
VNP
p7237
sbag5
(g6
g7
(lp7238
V\u005c
p7239
atp7240
Rp7241
(dp7242
g16
VJJ
p7243
sbag5
(g6
g7
(lp7244
Vu2019
p7245
atp7246
Rp7247
(dp7248
g16
VNNS
p7249
sbatp7250
Rp7251
(dp7252
g16
VNP
p7253
sbag5
(g6
g7
(lp7254
g344
atp7255
Rp7256
(dp7257
g16
V''
p7258
sbag5
(g6
g7
(lp7259
g5
(g6
g7
(lp7260
g1733
atp7261
Rp7262
(dp7263
g16
VVBZ
p7264
sbag5
(g6
g7
(lp7265
g5
(g6
g7
(lp7266
Vperformance
p7267
atp7268
Rp7269
(dp7270
g16
VNN
p7271
sbatp7272
Rp7273
(dp7274
g16
VNP
p7275
sbatp7276
Rp7277
(dp7278
g16
VVP
p7279
sbatp7280
Rp7281
(dp7282
g16
g200
sbatp7283
Rp7284
(dp7285
g16
VSBAR
p7286
sbag5
(g6
g7
(lp7287
g381
atp7288
Rp7289
(dp7290
g16
g381
sbag5
(g6
g7
(lp7291
g5
(g6
g7
(lp7292
Vwe
p7293
atp7294
Rp7295
(dp7296
g16
VPRP
p7297
sbatp7298
Rp7299
(dp7300
g16
VNP
p7301
sbag5
(g6
g7
(lp7302
g5
(g6
g7
(lp7303
Vconsider
p7304
atp7305
Rp7306
(dp7307
g16
VVBP
p7308
sbag5
(g6
g7
(lp7309
g5
(g6
g7
(lp7310
g5
(g6
g7
(lp7311
Vthe
p7312
atp7313
Rp7314
(dp7315
g16
VDT
p7316
sbag5
(g6
g7
(lp7317
Vtask
p7318
atp7319
Rp7320
(dp7321
g16
VNN
p7322
sbatp7323
Rp7324
(dp7325
g16
VNP
p7326
sbag5
(g6
g7
(lp7327
g5
(g6
g7
(lp7328
Vof
p7329
atp7330
Rp7331
(dp7332
g16
VIN
p7333
sbag5
(g6
g7
(lp7334
g5
(g6
g7
(lp7335
g5
(g6
g7
(lp7336
Vjudging
p7337
atp7338
Rp7339
(dp7340
g16
VVBG
p7341
sbag5
(g6
g7
(lp7342
g5
(g6
g7
(lp7343
Vsemantic
p7344
atp7345
Rp7346
(dp7347
g16
VJJ
p7348
sbag5
(g6
g7
(lp7349
Vsimilarity
p7350
atp7351
Rp7352
(dp7353
g16
VNN
p7354
sbatp7355
Rp7356
(dp7357
g16
VNP
p7358
sbag5
(g6
g7
(lp7359
g5
(g6
g7
(lp7360
Vamong
p7361
atp7362
Rp7363
(dp7364
g16
VIN
p7365
sbag5
(g6
g7
(lp7366
g5
(g6
g7
(lp7367
g5
(g6
g7
(lp7368
Vwords
p7369
atp7370
Rp7371
(dp7372
g16
VNNS
p7373
sbatp7374
Rp7375
(dp7376
g16
VNP
p7377
sbag5
(g6
g7
(lp7378
g5
(g6
g7
(lp7379
Vwhose
p7380
atp7381
Rp7382
(dp7383
g16
VWP$
p7384
sbag5
(g6
g7
(lp7385
g5
(g6
g7
(lp7386
g5
(g6
g7
(lp7387
Vmeanings
p7388
atp7389
Rp7390
(dp7391
g16
VNNS
p7392
sbatp7393
Rp7394
(dp7395
g16
VNP
p7396
sbag5
(g6
g7
(lp7397
g5
(g6
g7
(lp7398
Vare
p7399
atp7400
Rp7401
(dp7402
g16
VVBP
p7403
sbag5
(g6
g7
(lp7404
g5
(g6
g7
(lp7405
Vlikely
p7406
atp7407
Rp7408
(dp7409
g16
VJJ
p7410
sbag5
(g6
g7
(lp7411
g5
(g6
g7
(lp7412
g5
(g6
g7
(lp7413
Vto
p7414
atp7415
Rp7416
(dp7417
g16
VTO
p7418
sbag5
(g6
g7
(lp7419
g5
(g6
g7
(lp7420
Vevoke
p7421
atp7422
Rp7423
(dp7424
g16
VVB
p7425
sbag5
(g6
g7
(lp7426
g5
(g6
g7
(lp7427
Vstrong
p7428
atp7429
Rp7430
(dp7431
g16
VJJ
p7432
sbag5
(g6
g7
(lp7433
Vgeographical
p7434
atp7435
Rp7436
(dp7437
g16
VJJ
p7438
sbag5
(g6
g7
(lp7439
Vcorrelations
p7440
atp7441
Rp7442
(dp7443
g16
VNNS
p7444
sbatp7445
Rp7446
(dp7447
g16
VNP
p7448
sbatp7449
Rp7450
(dp7451
g16
VVP
p7452
sbatp7453
Rp7454
(dp7455
g16
VVP
p7456
sbatp7457
Rp7458
(dp7459
g16
g200
sbatp7460
Rp7461
(dp7462
g16
VADJP
p7463
sbatp7464
Rp7465
(dp7466
g16
VVP
p7467
sbatp7468
Rp7469
(dp7470
g16
g200
sbatp7471
Rp7472
(dp7473
g16
VSBAR
p7474
sbatp7475
Rp7476
(dp7477
g16
VNP
p7478
sbatp7479
Rp7480
(dp7481
g16
VPP
p7482
sbatp7483
Rp7484
(dp7485
g16
VVP
p7486
sbatp7487
Rp7488
(dp7489
g16
g200
sbatp7490
Rp7491
(dp7492
g16
VPP
p7493
sbatp7494
Rp7495
(dp7496
g16
VNP
p7497
sbatp7498
Rp7499
(dp7500
g16
VVP
p7501
sbatp7502
Rp7503
(dp7504
g16
g200
sbatp7505
Rp7506
(dp7507
g16
VROOT
p7508
sbasg228
(icmyPackage
CorE
p7509
(dp7510
g231
(lp7511
(I1
I1
tp7512
a(I1
I33
tp7513
asg235
g5
(g6
g7
(lp7514
g7281
ag7289
ag7299
ag7499
atp7515
Rp7516
(dp7517
g16
g246
sbsbsg236
(icmyPackage
CorE
p7518
(dp7519
g231
(lp7520
(I0
I19
tp7521
a(I0
I82
tp7522
asg235
g5
(g6
g7
(lp7523
g6586
ag7148
atp7524
Rp7525
(dp7526
g16
g246
sbsbsg247
g999
sg268
(lp7527
(isxpPackage
sxpSent
p7528
(dp7529
g272
(lp7530
I10
asg274
VTable 2 likewise presents the terms with the highest cosine similarity to city in both California and New York; while the terms most evoked by city in California include regional locations like Chinatown, Los Angeles u'\u005cu2019' South Bay and San Francisco u'\u005cu2019' s East Bay, in New York the most similar terms include hamptons , upstate and borough (New York City u'\u005cu2019' s term of administrative division
p7531
sg276
I5
sg261
I66
sg277
I17
sba(isxpPackage
sxpSent
p7532
(dp7533
g272
(lp7534
I10
asg274
VAs a quantitative measure of our model u'\u005cu2019' s performance, we consider the task of judging semantic similarity among words whose meanings are likely to evoke strong geographical correlations
p7535
sg276
I6
sg261
I67
sg277
I18
sbasba(icmyPackage
CELink
p7536
(dp7537
g3
(lp7538
g5
(g6
g7
(lp7539
g5
(g6
g7
(lp7540
g5
(g6
g7
(lp7541
g5
(g6
g7
(lp7542
VIn
p7543
atp7544
Rp7545
(dp7546
g16
VIN
p7547
sbag5
(g6
g7
(lp7548
g5
(g6
g7
(lp7549
g5
(g6
g7
(lp7550
Vthe
p7551
atp7552
Rp7553
(dp7554
g16
VDT
p7555
sbag5
(g6
g7
(lp7556
Vabsence
p7557
atp7558
Rp7559
(dp7560
g16
VNN
p7561
sbatp7562
Rp7563
(dp7564
g16
VNP
p7565
sbag5
(g6
g7
(lp7566
g5
(g6
g7
(lp7567
Vof
p7568
atp7569
Rp7570
(dp7571
g16
VIN
p7572
sbag5
(g6
g7
(lp7573
g5
(g6
g7
(lp7574
g5
(g6
g7
(lp7575
g31
atp7576
Rp7577
(dp7578
g16
VDT
p7579
sbag5
(g6
g7
(lp7580
Vsizable
p7581
atp7582
Rp7583
(dp7584
g16
VJJ
p7585
sbag5
(g6
g7
(lp7586
Vnumber
p7587
atp7588
Rp7589
(dp7590
g16
VNN
p7591
sbatp7592
Rp7593
(dp7594
g16
VNP
p7595
sbag5
(g6
g7
(lp7596
g5
(g6
g7
(lp7597
Vof
p7598
atp7599
Rp7600
(dp7601
g16
VIN
p7602
sbag5
(g6
g7
(lp7603
g5
(g6
g7
(lp7604
g5
(g6
g7
(lp7605
g5
(g6
g7
(lp7606
Vlinguistically
p7607
atp7608
Rp7609
(dp7610
g16
VRB
p7611
sbag5
(g6
g7
(lp7612
Vinteresting
p7613
atp7614
Rp7615
(dp7616
g16
VJJ
p7617
sbatp7618
Rp7619
(dp7620
g16
VADJP
p7621
sbag5
(g6
g7
(lp7622
Vterms
p7623
atp7624
Rp7625
(dp7626
g16
VNNS
p7627
sbatp7628
Rp7629
(dp7630
g16
VNP
p7631
sbag5
(g6
g7
(lp7632
g5
(g6
g7
(lp7633
V-LRB-
p7634
atp7635
Rp7636
(dp7637
g16
V-LRB-
p7638
sbag5
(g6
g7
(lp7639
g5
(g6
g7
(lp7640
Vlike
p7641
atp7642
Rp7643
(dp7644
g16
VIN
p7645
sbag5
(g6
g7
(lp7646
g5
(g6
g7
(lp7647
Vwicked
p7648
atp7649
Rp7650
(dp7651
g16
VJJ
p7652
sbatp7653
Rp7654
(dp7655
g16
VADJP
p7656
sbatp7657
Rp7658
(dp7659
g16
VPP
p7660
sbag5
(g6
g7
(lp7661
V-RRB-
p7662
atp7663
Rp7664
(dp7665
g16
V-RRB-
p7666
sbatp7667
Rp7668
(dp7669
g16
VPRN
p7670
sbatp7671
Rp7672
(dp7673
g16
VNP
p7674
sbatp7675
Rp7676
(dp7677
g16
VPP
p7678
sbatp7679
Rp7680
(dp7681
g16
VNP
p7682
sbatp7683
Rp7684
(dp7685
g16
VPP
p7686
sbag5
(g6
g7
(lp7687
g5
(g6
g7
(lp7688
g5
(g6
g7
(lp7689
Vthat
p7690
atp7691
Rp7692
(dp7693
g16
VWDT
p7694
sbatp7695
Rp7696
(dp7697
g16
VWHNP
p7698
sbag5
(g6
g7
(lp7699
g5
(g6
g7
(lp7700
g5
(g6
g7
(lp7701
Vare
p7702
atp7703
Rp7704
(dp7705
g16
VVBP
p7706
sbag5
(g6
g7
(lp7707
g5
(g6
g7
(lp7708
Vknown
p7709
atp7710
Rp7711
(dp7712
g16
VVBN
p7713
sbag5
(g6
g7
(lp7714
g5
(g6
g7
(lp7715
g5
(g6
g7
(lp7716
Vto
p7717
atp7718
Rp7719
(dp7720
g16
VTO
p7721
sbag5
(g6
g7
(lp7722
g5
(g6
g7
(lp7723
Vbe
p7724
atp7725
Rp7726
(dp7727
g16
VVB
p7728
sbag5
(g6
g7
(lp7729
g5
(g6
g7
(lp7730
Vgeographically
p7731
atp7732
Rp7733
(dp7734
g16
VRB
p7735
sbag5
(g6
g7
(lp7736
Vvariable
p7737
atp7738
Rp7739
(dp7740
g16
VJJ
p7741
sbatp7742
Rp7743
(dp7744
g16
VADJP
p7745
sbatp7746
Rp7747
(dp7748
g16
VVP
p7749
sbatp7750
Rp7751
(dp7752
g16
VVP
p7753
sbatp7754
Rp7755
(dp7756
g16
g200
sbatp7757
Rp7758
(dp7759
g16
VVP
p7760
sbatp7761
Rp7762
(dp7763
g16
VVP
p7764
sbatp7765
Rp7766
(dp7767
g16
g200
sbatp7768
Rp7769
(dp7770
g16
VSBAR
p7771
sbatp7772
Rp7773
(dp7774
g16
VNP
p7775
sbatp7776
Rp7777
(dp7778
g16
VPP
p7779
sbag5
(g6
g7
(lp7780
g381
atp7781
Rp7782
(dp7783
g16
g381
sbag5
(g6
g7
(lp7784
g5
(g6
g7
(lp7785
Vwe
p7786
atp7787
Rp7788
(dp7789
g16
VPRP
p7790
sbatp7791
Rp7792
(dp7793
g16
VNP
p7794
sbag5
(g6
g7
(lp7795
g5
(g6
g7
(lp7796
Vconsider
p7797
atp7798
Rp7799
(dp7800
g16
VVBP
p7801
sbag5
(g6
g7
(lp7802
g5
(g6
g7
(lp7803
g5
(g6
g7
(lp7804
Vthe
p7805
atp7806
Rp7807
(dp7808
g16
VDT
p7809
sbag5
(g6
g7
(lp7810
Vproxy
p7811
atp7812
Rp7813
(dp7814
g16
VNN
p7815
sbatp7816
Rp7817
(dp7818
g16
VNP
p7819
sbag5
(g6
g7
(lp7820
g5
(g6
g7
(lp7821
Vof
p7822
atp7823
Rp7824
(dp7825
g16
VIN
p7826
sbag5
(g6
g7
(lp7827
g5
(g6
g7
(lp7828
g5
(g6
g7
(lp7829
Vestimating
p7830
atp7831
Rp7832
(dp7833
g16
VVBG
p7834
sbag5
(g6
g7
(lp7835
g5
(g6
g7
(lp7836
g5
(g6
g7
(lp7837
Vthe
p7838
atp7839
Rp7840
(dp7841
g16
VDT
p7842
sbag5
(g6
g7
(lp7843
Vnamed
p7844
atp7845
Rp7846
(dp7847
g16
VVBN
p7848
sbag5
(g6
g7
(lp7849
Ventities
p7850
atp7851
Rp7852
(dp7853
g16
VNNS
p7854
sbatp7855
Rp7856
(dp7857
g16
VNP
p7858
sbag5
(g6
g7
(lp7859
g5
(g6
g7
(lp7860
Vevoked
p7861
atp7862
Rp7863
(dp7864
g16
VVBN
p7865
sbag5
(g6
g7
(lp7866
g5
(g6
g7
(lp7867
Vby
p7868
atp7869
Rp7870
(dp7871
g16
VIN
p7872
sbag5
(g6
g7
(lp7873
g5
(g6
g7
(lp7874
g5
(g6
g7
(lp7875
Vspecific
p7876
atp7877
Rp7878
(dp7879
g16
VJJ
p7880
sbag5
(g6
g7
(lp7881
Vterms
p7882
atp7883
Rp7884
(dp7885
g16
VNNS
p7886
sbatp7887
Rp7888
(dp7889
g16
VNP
p7890
sbag5
(g6
g7
(lp7891
g5
(g6
g7
(lp7892
Vin
p7893
atp7894
Rp7895
(dp7896
g16
VIN
p7897
sbag5
(g6
g7
(lp7898
g5
(g6
g7
(lp7899
Vdifferent
p7900
atp7901
Rp7902
(dp7903
g16
VJJ
p7904
sbag5
(g6
g7
(lp7905
Vgeographical
p7906
atp7907
Rp7908
(dp7909
g16
VJJ
p7910
sbag5
(g6
g7
(lp7911
Vregions
p7912
atp7913
Rp7914
(dp7915
g16
VNNS
p7916
sbatp7917
Rp7918
(dp7919
g16
VNP
p7920
sbatp7921
Rp7922
(dp7923
g16
VPP
p7924
sbatp7925
Rp7926
(dp7927
g16
VNP
p7928
sbatp7929
Rp7930
(dp7931
g16
VPP
p7932
sbatp7933
Rp7934
(dp7935
g16
VVP
p7936
sbatp7937
Rp7938
(dp7939
g16
VNP
p7940
sbatp7941
Rp7942
(dp7943
g16
VVP
p7944
sbatp7945
Rp7946
(dp7947
g16
g200
sbatp7948
Rp7949
(dp7950
g16
VPP
p7951
sbatp7952
Rp7953
(dp7954
g16
VNP
p7955
sbatp7956
Rp7957
(dp7958
g16
VVP
p7959
sbatp7960
Rp7961
(dp7962
g16
g200
sbatp7963
Rp7964
(dp7965
g16
VROOT
p7966
sbag5
(g6
g7
(lp7967
g5
(g6
g7
(lp7968
g5
(g6
g7
(lp7969
g5
(g6
g7
(lp7970
VAs
p7971
atp7972
Rp7973
(dp7974
g16
VIN
p7975
sbag5
(g6
g7
(lp7976
g5
(g6
g7
(lp7977
g5
(g6
g7
(lp7978
Vnoted
p7979
atp7980
Rp7981
(dp7982
g16
VVBD
p7983
sbag5
(g6
g7
(lp7984
g5
(g6
g7
(lp7985
Vabove
p7986
atp7987
Rp7988
(dp7989
g16
VRB
p7990
sbatp7991
Rp7992
(dp7993
g16
VADVP
p7994
sbatp7995
Rp7996
(dp7997
g16
VVP
p7998
sbatp7999
Rp8000
(dp8001
g16
g200
sbatp8002
Rp8003
(dp8004
g16
VSBAR
p8005
sbag5
(g6
g7
(lp8006
g381
atp8007
Rp8008
(dp8009
g16
g381
sbag5
(g6
g7
(lp8010
g5
(g6
g7
(lp8011
g5
(g6
g7
(lp8012
Vgeographic
p8013
atp8014
Rp8015
(dp8016
g16
VJJ
p8017
sbag5
(g6
g7
(lp8018
Vterms
p8019
atp8020
Rp8021
(dp8022
g16
VNNS
p8023
sbatp8024
Rp8025
(dp8026
g16
VNP
p8027
sbag5
(g6
g7
(lp8028
g5
(g6
g7
(lp8029
Vlike
p8030
atp8031
Rp8032
(dp8033
g16
VIN
p8034
sbag5
(g6
g7
(lp8035
g5
(g6
g7
(lp8036
Vcity
p8037
atp8038
Rp8039
(dp8040
g16
VNN
p8041
sbatp8042
Rp8043
(dp8044
g16
VNP
p8045
sbatp8046
Rp8047
(dp8048
g16
VPP
p8049
sbatp8050
Rp8051
(dp8052
g16
VNP
p8053
sbag5
(g6
g7
(lp8054
g5
(g6
g7
(lp8055
Vprovide
p8056
atp8057
Rp8058
(dp8059
g16
VVBP
p8060
sbag5
(g6
g7
(lp8061
g5
(g6
g7
(lp8062
g5
(g6
g7
(lp8063
Vone
p8064
atp8065
Rp8066
(dp8067
g16
VCD
p8068
sbag5
(g6
g7
(lp8069
Vsuch
p8070
atp8071
Rp8072
(dp8073
g16
VJJ
p8074
sbag5
(g6
g7
(lp8075
Vexample
p8076
atp8077
Rp8078
(dp8079
g16
VNN
p8080
sbatp8081
Rp8082
(dp8083
g16
VNP
p8084
sbag5
(g6
g7
(lp8085
g5
(g6
g7
(lp8086
Vin
p8087
atp8088
Rp8089
(dp8090
g16
VIN
p8091
sbag5
(g6
g7
(lp8092
g5
(g6
g7
(lp8093
VMassachusetts
p8094
atp8095
Rp8096
(dp8097
g16
VNNP
p8098
sbatp8099
Rp8100
(dp8101
g16
VNP
p8102
sbatp8103
Rp8104
(dp8105
g16
VPP
p8106
sbag5
(g6
g7
(lp8107
g5
(g6
g7
(lp8108
g5
(g6
g7
(lp8109
g5
(g6
g7
(lp8110
Vwe
p8111
atp8112
Rp8113
(dp8114
g16
VPRP
p8115
sbatp8116
Rp8117
(dp8118
g16
VNP
p8119
sbag5
(g6
g7
(lp8120
g5
(g6
g7
(lp8121
Vexpect
p8122
atp8123
Rp8124
(dp8125
g16
VVBP
p8126
sbag5
(g6
g7
(lp8127
g5
(g6
g7
(lp8128
g5
(g6
g7
(lp8129
Vthe
p8130
atp8131
Rp8132
(dp8133
g16
VDT
p8134
sbag5
(g6
g7
(lp8135
Vterm
p8136
atp8137
Rp8138
(dp8139
g16
VNN
p8140
sbag5
(g6
g7
(lp8141
Vcity
p8142
atp8143
Rp8144
(dp8145
g16
VNN
p8146
sbatp8147
Rp8148
(dp8149
g16
VNP
p8150
sbag5
(g6
g7
(lp8151
g5
(g6
g7
(lp8152
Vto
p8153
atp8154
Rp8155
(dp8156
g16
VTO
p8157
sbag5
(g6
g7
(lp8158
g5
(g6
g7
(lp8159
Vbe
p8160
atp8161
Rp8162
(dp8163
g16
VVB
p8164
sbag5
(g6
g7
(lp8165
g5
(g6
g7
(lp8166
g5
(g6
g7
(lp8167
Vmore
p8168
atp8169
Rp8170
(dp8171
g16
VRBR
p8172
sbag5
(g6
g7
(lp8173
Vstrongly
p8174
atp8175
Rp8176
(dp8177
g16
VRB
p8178
sbatp8179
Rp8180
(dp8181
g16
VADVP
p8182
sbag5
(g6
g7
(lp8183
Vconnected
p8184
atp8185
Rp8186
(dp8187
g16
VVBN
p8188
sbag5
(g6
g7
(lp8189
g5
(g6
g7
(lp8190
g5
(g6
g7
(lp8191
Vto
p8192
atp8193
Rp8194
(dp8195
g16
VTO
p8196
sbag5
(g6
g7
(lp8197
g5
(g6
g7
(lp8198
Vgrounded
p8199
atp8200
Rp8201
(dp8202
g16
VVB
p8203
sbag5
(g6
g7
(lp8204
g5
(g6
g7
(lp8205
Vnamed
p8206
atp8207
Rp8208
(dp8209
g16
VVBN
p8210
sbag5
(g6
g7
(lp8211
Ventities
p8212
atp8213
Rp8214
(dp8215
g16
VNNS
p8216
sbatp8217
Rp8218
(dp8219
g16
VNP
p8220
sbag5
(g6
g7
(lp8221
g5
(g6
g7
(lp8222
Vlike
p8223
atp8224
Rp8225
(dp8226
g16
VIN
p8227
sbag5
(g6
g7
(lp8228
g5
(g6
g7
(lp8229
VBoston
p8230
atp8231
Rp8232
(dp8233
g16
VNNP
p8234
sbatp8235
Rp8236
(dp8237
g16
VNP
p8238
sbatp8239
Rp8240
(dp8241
g16
VPP
p8242
sbag5
(g6
g7
(lp8243
g5
(g6
g7
(lp8244
Vthan
p8245
atp8246
Rp8247
(dp8248
g16
VIN
p8249
sbag5
(g6
g7
(lp8250
g5
(g6
g7
(lp8251
Vto
p8252
atp8253
Rp8254
(dp8255
g16
VTO
p8256
sbag5
(g6
g7
(lp8257
g5
(g6
g7
(lp8258
Vother
p8259
atp8260
Rp8261
(dp8262
g16
VJJ
p8263
sbag5
(g6
g7
(lp8264
VUS
p8265
atp8266
Rp8267
(dp8268
g16
VNNP
p8269
sbag5
(g6
g7
(lp8270
Vcities
p8271
atp8272
Rp8273
(dp8274
g16
VNNS
p8275
sbatp8276
Rp8277
(dp8278
g16
VNP
p8279
sbatp8280
Rp8281
(dp8282
g16
VPP
p8283
sbatp8284
Rp8285
(dp8286
g16
VPP
p8287
sbatp8288
Rp8289
(dp8290
g16
VVP
p8291
sbatp8292
Rp8293
(dp8294
g16
VVP
p8295
sbatp8296
Rp8297
(dp8298
g16
g200
sbatp8299
Rp8300
(dp8301
g16
VVP
p8302
sbatp8303
Rp8304
(dp8305
g16
VVP
p8306
sbatp8307
Rp8308
(dp8309
g16
VVP
p8310
sbatp8311
Rp8312
(dp8313
g16
g200
sbatp8314
Rp8315
(dp8316
g16
VVP
p8317
sbatp8318
Rp8319
(dp8320
g16
g200
sbatp8321
Rp8322
(dp8323
g16
VSBAR
p8324
sbatp8325
Rp8326
(dp8327
g16
VNP
p8328
sbatp8329
Rp8330
(dp8331
g16
VVP
p8332
sbatp8333
Rp8334
(dp8335
g16
g200
sbatp8336
Rp8337
(dp8338
g16
VROOT
p8339
sbasg228
(icmyPackage
CorE
p8340
(dp8341
g231
(lp8342
(I1
I1
tp8343
a(I1
I6
tp8344
asg235
g5
(g6
g7
(lp8345
g8000
ag8008
ag8025
ag8032
atp8346
Rp8347
(dp8348
g16
g246
sbsbsg236
(icmyPackage
CorE
p8349
(dp8350
g231
(lp8351
(I0
I0
tp8352
a(I0
I39
tp8353
asg235
g7964
sbsg247
g999
sg268
(lp8354
(isxpPackage
sxpSent
p8355
(dp8356
g272
(lp8357
I11
asg274
VIn the absence of a sizable number of linguistically interesting terms (like wicked ) that are known to be geographically variable, we consider the proxy of estimating the named entities evoked by specific terms in different geographical regions
p8358
sg276
I6
sg261
I68
sg277
I18
sba(isxpPackage
sxpSent
p8359
(dp8360
g272
(lp8361
I11
asg274
VAs noted above, geographic terms like city provide one such example in Massachusetts we expect the term city to be more strongly connected to grounded named entities like Boston than to other US cities
p8362
sg276
I6
sg261
I69
sg277
I18
sbasba(icmyPackage
CELink
p8363
(dp8364
g3
(lp8365
g5
(g6
g7
(lp8366
g5
(g6
g7
(lp8367
g5
(g6
g7
(lp8368
g5
(g6
g7
(lp8369
g5
(g6
g7
(lp8370
VNote
p8371
atp8372
Rp8373
(dp8374
g16
VVB
p8375
sbag5
(g6
g7
(lp8376
g5
(g6
g7
(lp8377
Vthat
p8378
atp8379
Rp8380
(dp8381
g16
VIN
p8382
sbag5
(g6
g7
(lp8383
g5
(g6
g7
(lp8384
g5
(g6
g7
(lp8385
Vthis
p8386
atp8387
Rp8388
(dp8389
g16
VDT
p8390
sbatp8391
Rp8392
(dp8393
g16
VNP
p8394
sbag5
(g6
g7
(lp8395
g5
(g6
g7
(lp8396
Vis
p8397
atp8398
Rp8399
(dp8400
g16
VVBZ
p8401
sbag5
(g6
g7
(lp8402
Vnot
p8403
atp8404
Rp8405
(dp8406
g16
VRB
p8407
sbag5
(g6
g7
(lp8408
g5
(g6
g7
(lp8409
g5
(g6
g7
(lp8410
Vthe
p8411
atp8412
Rp8413
(dp8414
g16
VDT
p8415
sbag5
(g6
g7
(lp8416
Vsame
p8417
atp8418
Rp8419
(dp8420
g16
VJJ
p8421
sbatp8422
Rp8423
(dp8424
g16
VNP
p8425
sbag5
(g6
g7
(lp8426
Vas
p8427
atp8428
Rp8429
(dp8430
g16
VIN
p8431
sbag5
(g6
g7
(lp8432
g5
(g6
g7
(lp8433
g5
(g6
g7
(lp8434
g5
(g6
g7
(lp8435
Vsimply
p8436
atp8437
Rp8438
(dp8439
g16
VRB
p8440
sbatp8441
Rp8442
(dp8443
g16
VADVP
p8444
sbag5
(g6
g7
(lp8445
Vasking
p8446
atp8447
Rp8448
(dp8449
g16
VVBG
p8450
sbag5
(g6
g7
(lp8451
g5
(g6
g7
(lp8452
g5
(g6
g7
(lp8453
Vwhich
p8454
atp8455
Rp8456
(dp8457
g16
VWDT
p8458
sbatp8459
Rp8460
(dp8461
g16
VWHNP
p8462
sbag5
(g6
g7
(lp8463
g5
(g6
g7
(lp8464
g5
(g6
g7
(lp8465
g5
(g6
g7
(lp8466
Vsports
p8467
atp8468
Rp8469
(dp8470
g16
VNNS
p8471
sbatp8472
Rp8473
(dp8474
g16
VNP
p8475
sbag5
(g6
g7
(lp8476
g5
(g6
g7
(lp8477
g5
(g6
g7
(lp8478
g5
(g6
g7
(lp8479
Vteam
p8480
atp8481
Rp8482
(dp8483
g16
VNN
p8484
sbatp8485
Rp8486
(dp8487
g16
VNP
p8488
sbag5
(g6
g7
(lp8489
g5
(g6
g7
(lp8490
Vis
p8491
atp8492
Rp8493
(dp8494
g16
VVBZ
p8495
sbag5
(g6
g7
(lp8496
g5
(g6
g7
(lp8497
Vmost
p8498
atp8499
Rp8500
(dp8501
g16
VRBS
p8502
sbag5
(g6
g7
(lp8503
Vfrequently
p8504
atp8505
Rp8506
(dp8507
g16
VRB
p8508
sbatp8509
Rp8510
(dp8511
g16
VADVP
p8512
sbatp8513
Rp8514
(dp8515
g16
VVP
p8516
sbatp8517
Rp8518
(dp8519
g16
g200
sbatp8520
Rp8521
(dp8522
g16
VSBAR
p8523
sbag5
(g6
g7
(lp8524
g5
(g6
g7
(lp8525
V-LRB-
p8526
atp8527
Rp8528
(dp8529
g16
V-LRB-
p8530
sbag5
(g6
g7
(lp8531
Vor
p8532
atp8533
Rp8534
(dp8535
g16
VCC
p8536
sbag5
(g6
g7
(lp8537
g5
(g6
g7
(lp8538
Vmost
p8539
atp8540
Rp8541
(dp8542
g16
VRBS
p8543
sbag5
(g6
g7
(lp8544
Vcharacteristically
p8545
atp8546
Rp8547
(dp8548
g16
VJJ
p8549
sbatp8550
Rp8551
(dp8552
g16
VADJP
p8553
sbag5
(g6
g7
(lp8554
V-RRB-
p8555
atp8556
Rp8557
(dp8558
g16
V-RRB-
p8559
sbatp8560
Rp8561
(dp8562
g16
VPRN
p8563
sbatp8564
Rp8565
(dp8566
g16
VNP
p8567
sbag5
(g6
g7
(lp8568
g5
(g6
g7
(lp8569
Vmentioned
p8570
atp8571
Rp8572
(dp8573
g16
VVBN
p8574
sbag5
(g6
g7
(lp8575
g5
(g6
g7
(lp8576
Vin
p8577
atp8578
Rp8579
(dp8580
g16
VIN
p8581
sbag5
(g6
g7
(lp8582
g5
(g6
g7
(lp8583
g31
atp8584
Rp8585
(dp8586
g16
VDT
p8587
sbag5
(g6
g7
(lp8588
Vgiven
p8589
atp8590
Rp8591
(dp8592
g16
VVBN
p8593
sbag5
(g6
g7
(lp8594
Varea
p8595
atp8596
Rp8597
(dp8598
g16
VNN
p8599
sbatp8600
Rp8601
(dp8602
g16
VNP
p8603
sbatp8604
Rp8605
(dp8606
g16
VPP
p8607
sbatp8608
Rp8609
(dp8610
g16
VVP
p8611
sbatp8612
Rp8613
(dp8614
g16
g200
sbatp8615
Rp8616
(dp8617
g16
VSBAR
p8618
sbatp8619
Rp8620
(dp8621
g16
VVP
p8622
sbatp8623
Rp8624
(dp8625
g16
g200
sbatp8626
Rp8627
(dp8628
g16
VPP
p8629
sbatp8630
Rp8631
(dp8632
g16
VVP
p8633
sbatp8634
Rp8635
(dp8636
g16
g200
sbatp8637
Rp8638
(dp8639
g16
VSBAR
p8640
sbag5
(g6
g7
(lp8641
g2068
atp8642
Rp8643
(dp8644
g16
g2072
sbag5
(g6
g7
(lp8645
g5
(g6
g7
(lp8646
Vby
p8647
atp8648
Rp8649
(dp8650
g16
VIN
p8651
sbag5
(g6
g7
(lp8652
g5
(g6
g7
(lp8653
g5
(g6
g7
(lp8654
Vmeasuring
p8655
atp8656
Rp8657
(dp8658
g16
VVBG
p8659
sbag5
(g6
g7
(lp8660
g5
(g6
g7
(lp8661
Vthe
p8662
atp8663
Rp8664
(dp8665
g16
VDT
p8666
sbag5
(g6
g7
(lp8667
Vdistance
p8668
atp8669
Rp8670
(dp8671
g16
VNN
p8672
sbatp8673
Rp8674
(dp8675
g16
VNP
p8676
sbag5
(g6
g7
(lp8677
g5
(g6
g7
(lp8678
Vto
p8679
atp8680
Rp8681
(dp8682
g16
VTO
p8683
sbag5
(g6
g7
(lp8684
g5
(g6
g7
(lp8685
g5
(g6
g7
(lp8686
g31
atp8687
Rp8688
(dp8689
g16
VDT
p8690
sbag5
(g6
g7
(lp8691
Vtarget
p8692
atp8693
Rp8694
(dp8695
g16
VNN
p8696
sbag5
(g6
g7
(lp8697
Vword
p8698
atp8699
Rp8700
(dp8701
g16
VNN
p8702
sbatp8703
Rp8704
(dp8705
g16
VNP
p8706
sbag5
(g6
g7
(lp8707
g5
(g6
g7
(lp8708
V-LRB-
p8709
atp8710
Rp8711
(dp8712
g16
V-LRB-
p8713
sbag5
(g6
g7
(lp8714
g5
(g6
g7
(lp8715
Vfootball
p8716
atp8717
Rp8718
(dp8719
g16
VNN
p8720
sbatp8721
Rp8722
(dp8723
g16
VNP
p8724
sbag5
(g6
g7
(lp8725
V-RRB-
p8726
atp8727
Rp8728
(dp8729
g16
V-RRB-
p8730
sbatp8731
Rp8732
(dp8733
g16
VPRN
p8734
sbatp8735
Rp8736
(dp8737
g16
VNP
p8738
sbatp8739
Rp8740
(dp8741
g16
VPP
p8742
sbatp8743
Rp8744
(dp8745
g16
VVP
p8746
sbatp8747
Rp8748
(dp8749
g16
g200
sbatp8750
Rp8751
(dp8752
g16
VPP
p8753
sbatp8754
Rp8755
(dp8756
g16
VVP
p8757
sbatp8758
Rp8759
(dp8760
g16
g200
sbag5
(g6
g7
(lp8761
g381
atp8762
Rp8763
(dp8764
g16
g381
sbag5
(g6
g7
(lp8765
g5
(g6
g7
(lp8766
Vwe
p8767
atp8768
Rp8769
(dp8770
g16
VPRP
p8771
sbatp8772
Rp8773
(dp8774
g16
VNP
p8775
sbag5
(g6
g7
(lp8776
g5
(g6
g7
(lp8777
Vare
p8778
atp8779
Rp8780
(dp8781
g16
VVBP
p8782
sbag5
(g6
g7
(lp8783
g5
(g6
g7
(lp8784
Vattempting
p8785
atp8786
Rp8787
(dp8788
g16
VVBG
p8789
sbag5
(g6
g7
(lp8790
g5
(g6
g7
(lp8791
g5
(g6
g7
(lp8792
Vto
p8793
atp8794
Rp8795
(dp8796
g16
VTO
p8797
sbag5
(g6
g7
(lp8798
g5
(g6
g7
(lp8799
Vestimate
p8800
atp8801
Rp8802
(dp8803
g16
VVB
p8804
sbag5
(g6
g7
(lp8805
g5
(g6
g7
(lp8806
g5
(g6
g7
(lp8807
Vthe
p8808
atp8809
Rp8810
(dp8811
g16
VDT
p8812
sbag5
(g6
g7
(lp8813
Vvarying
p8814
atp8815
Rp8816
(dp8817
g16
VVBG
p8818
sbag5
(g6
g7
(lp8819
Vstrengths
p8820
atp8821
Rp8822
(dp8823
g16
VNNS
p8824
sbatp8825
Rp8826
(dp8827
g16
VNP
p8828
sbag5
(g6
g7
(lp8829
g5
(g6
g7
(lp8830
Vof
p8831
atp8832
Rp8833
(dp8834
g16
VIN
p8835
sbag5
(g6
g7
(lp8836
g5
(g6
g7
(lp8837
g5
(g6
g7
(lp8838
Vassociation
p8839
atp8840
Rp8841
(dp8842
g16
VNN
p8843
sbatp8844
Rp8845
(dp8846
g16
VNP
p8847
sbag5
(g6
g7
(lp8848
g5
(g6
g7
(lp8849
Vbetween
p8850
atp8851
Rp8852
(dp8853
g16
VIN
p8854
sbag5
(g6
g7
(lp8855
g5
(g6
g7
(lp8856
g5
(g6
g7
(lp8857
Vconcepts
p8858
atp8859
Rp8860
(dp8861
g16
VNNS
p8862
sbatp8863
Rp8864
(dp8865
g16
VNP
p8866
sbag5
(g6
g7
(lp8867
g5
(g6
g7
(lp8868
Vin
p8869
atp8870
Rp8871
(dp8872
g16
VIN
p8873
sbag5
(g6
g7
(lp8874
g5
(g6
g7
(lp8875
Vdifferent
p8876
atp8877
Rp8878
(dp8879
g16
VJJ
p8880
sbag5
(g6
g7
(lp8881
Vregions
p8882
atp8883
Rp8884
(dp8885
g16
VNNS
p8886
sbatp8887
Rp8888
(dp8889
g16
VNP
p8890
sbatp8891
Rp8892
(dp8893
g16
VPP
p8894
sbatp8895
Rp8896
(dp8897
g16
VNP
p8898
sbatp8899
Rp8900
(dp8901
g16
VPP
p8902
sbatp8903
Rp8904
(dp8905
g16
VNP
p8906
sbatp8907
Rp8908
(dp8909
g16
VPP
p8910
sbatp8911
Rp8912
(dp8913
g16
VNP
p8914
sbatp8915
Rp8916
(dp8917
g16
VVP
p8918
sbatp8919
Rp8920
(dp8921
g16
VVP
p8922
sbatp8923
Rp8924
(dp8925
g16
g200
sbatp8926
Rp8927
(dp8928
g16
VVP
p8929
sbatp8930
Rp8931
(dp8932
g16
VVP
p8933
sbatp8934
Rp8935
(dp8936
g16
g200
sbatp8937
Rp8938
(dp8939
g16
VROOT
p8940
sbasg228
(icmyPackage
CorE
p8941
(dp8942
g231
(lp8943
(I0
I28
tp8944
a(I0
I37
tp8945
asg235
g8748
sbsg236
(icmyPackage
CorE
p8946
(dp8947
g231
(lp8948
(I0
I38
tp8949
a(I0
I53
tp8950
asg235
g5
(g6
g7
(lp8951
g8763
ag8773
ag8931
atp8952
Rp8953
(dp8954
g16
g246
sbsbsg247
(icmyPackage
pattern
p8955
(dp8956
g250
I0
sg251
I0
sg252
(lp8957
(lp8958
(lp8959
S'by'
p8960
aS'through'
p8961
aaasg256
(lp8962
I2
aI1
aI1
asg258
(lp8963
S'By extracting comments and comparisons of the cited articles and then organizing them according to the time of publication discovers and displays how the area has developed as a research literature.'
p8964
asg261
I67
sg262
(lp8965
(lp8966
a(lp8967
S'&V-ing@C@'
p8968
aS'&R'
p8969
aasbsg268
(lp8970
(isxpPackage
sxpSent
p8971
(dp8972
g272
(lp8973
I12
asg274
VNote that this is not the same as simply asking which sports team is most frequently (or most characteristically) mentioned in a given area; by measuring the distance to a target word ( football ), we are attempting to estimate the varying strengths of association between concepts in different regions
p8974
sg276
I6
sg261
I87
sg277
I26
sbasba(icmyPackage
CELink
p8975
(dp8976
g3
(lp8977
g5
(g6
g7
(lp8978
g5
(g6
g7
(lp8979
g5
(g6
g7
(lp8980
g5
(g6
g7
(lp8981
VWe
p8982
atp8983
Rp8984
(dp8985
g16
VPRP
p8986
sbatp8987
Rp8988
(dp8989
g16
VNP
p8990
sbag5
(g6
g7
(lp8991
g5
(g6
g7
(lp8992
Vintroduced
p8993
atp8994
Rp8995
(dp8996
g16
VVBD
p8997
sbag5
(g6
g7
(lp8998
g5
(g6
g7
(lp8999
g31
atp9000
Rp9001
(dp9002
g16
VDT
p9003
sbag5
(g6
g7
(lp9004
Vmodel
p9005
atp9006
Rp9007
(dp9008
g16
VNN
p9009
sbatp9010
Rp9011
(dp9012
g16
VNP
p9013
sbag5
(g6
g7
(lp9014
g5
(g6
g7
(lp9015
Vfor
p9016
atp9017
Rp9018
(dp9019
g16
VIN
p9020
sbag5
(g6
g7
(lp9021
g5
(g6
g7
(lp9022
g5
(g6
g7
(lp9023
Vleveraging
p9024
atp9025
Rp9026
(dp9027
g16
VVBG
p9028
sbag5
(g6
g7
(lp9029
g5
(g6
g7
(lp9030
Vsituational
p9031
atp9032
Rp9033
(dp9034
g16
VJJ
p9035
sbag5
(g6
g7
(lp9036
Vinformation
p9037
atp9038
Rp9039
(dp9040
g16
VNN
p9041
sbatp9042
Rp9043
(dp9044
g16
VNP
p9045
sbag5
(g6
g7
(lp9046
g5
(g6
g7
(lp9047
Vin
p9048
atp9049
Rp9050
(dp9051
g16
VIN
p9052
sbag5
(g6
g7
(lp9053
g5
(g6
g7
(lp9054
g5
(g6
g7
(lp9055
Vlearning
p9056
atp9057
Rp9058
(dp9059
g16
VVBG
p9060
sbag5
(g6
g7
(lp9061
g5
(g6
g7
(lp9062
g5
(g6
g7
(lp9063
Vvector-space
p9064
atp9065
Rp9066
(dp9067
g16
VJJ
p9068
sbag5
(g6
g7
(lp9069
Vrepresentations
p9070
atp9071
Rp9072
(dp9073
g16
VNNS
p9074
sbatp9075
Rp9076
(dp9077
g16
VNP
p9078
sbag5
(g6
g7
(lp9079
g5
(g6
g7
(lp9080
Vof
p9081
atp9082
Rp9083
(dp9084
g16
VIN
p9085
sbag5
(g6
g7
(lp9086
g5
(g6
g7
(lp9087
g5
(g6
g7
(lp9088
Vwords
p9089
atp9090
Rp9091
(dp9092
g16
VNNS
p9093
sbatp9094
Rp9095
(dp9096
g16
VNP
p9097
sbag5
(g6
g7
(lp9098
g5
(g6
g7
(lp9099
g5
(g6
g7
(lp9100
Vthat
p9101
atp9102
Rp9103
(dp9104
g16
VWDT
p9105
sbatp9106
Rp9107
(dp9108
g16
VWHNP
p9109
sbag5
(g6
g7
(lp9110
g5
(g6
g7
(lp9111
g5
(g6
g7
(lp9112
Vare
p9113
atp9114
Rp9115
(dp9116
g16
VVBP
p9117
sbag5
(g6
g7
(lp9118
g5
(g6
g7
(lp9119
Vsensitive
p9120
atp9121
Rp9122
(dp9123
g16
VJJ
p9124
sbag5
(g6
g7
(lp9125
g5
(g6
g7
(lp9126
Vto
p9127
atp9128
Rp9129
(dp9130
g16
VTO
p9131
sbag5
(g6
g7
(lp9132
g5
(g6
g7
(lp9133
g5
(g6
g7
(lp9134
Vthe
p9135
atp9136
Rp9137
(dp9138
g16
VDT
p9139
sbag5
(g6
g7
(lp9140
Vspeaker
p9141
atp9142
Rp9143
(dp9144
g16
VNN
p9145
sbag5
(g6
g7
(lp9146
g338
atp9147
Rp9148
(dp9149
g16
VNN
p9150
sbag5
(g6
g7
(lp9151
g344
atp9152
Rp9153
(dp9154
g16
VPOS
p9155
sbatp9156
Rp9157
(dp9158
g16
VNP
p9159
sbag5
(g6
g7
(lp9160
V\u005c
p9161
atp9162
Rp9163
(dp9164
g16
VNNP
p9165
sbag5
(g6
g7
(lp9166
Vu2019
p9167
atp9168
Rp9169
(dp9170
g16
VNNP
p9171
sbag5
(g6
g7
(lp9172
g344
atp9173
Rp9174
(dp9175
g16
VPOS
p9176
sbag5
(g6
g7
(lp9177
g1733
atp9178
Rp9179
(dp9180
g16
VCD
p9181
sbag5
(g6
g7
(lp9182
Vsocial
p9183
atp9184
Rp9185
(dp9186
g16
VJJ
p9187
sbag5
(g6
g7
(lp9188
Vcontext
p9189
atp9190
Rp9191
(dp9192
g16
VNN
p9193
sbatp9194
Rp9195
(dp9196
g16
VNP
p9197
sbatp9198
Rp9199
(dp9200
g16
VPP
p9201
sbatp9202
Rp9203
(dp9204
g16
VADJP
p9205
sbatp9206
Rp9207
(dp9208
g16
VVP
p9209
sbatp9210
Rp9211
(dp9212
g16
g200
sbatp9213
Rp9214
(dp9215
g16
VSBAR
p9216
sbatp9217
Rp9218
(dp9219
g16
VNP
p9220
sbatp9221
Rp9222
(dp9223
g16
VPP
p9224
sbatp9225
Rp9226
(dp9227
g16
VNP
p9228
sbatp9229
Rp9230
(dp9231
g16
VVP
p9232
sbatp9233
Rp9234
(dp9235
g16
g200
sbatp9236
Rp9237
(dp9238
g16
VPP
p9239
sbatp9240
Rp9241
(dp9242
g16
VVP
p9243
sbatp9244
Rp9245
(dp9246
g16
g200
sbatp9247
Rp9248
(dp9249
g16
VPP
p9250
sbatp9251
Rp9252
(dp9253
g16
VVP
p9254
sbatp9255
Rp9256
(dp9257
g16
g200
sbatp9258
Rp9259
(dp9260
g16
VROOT
p9261
sbasg228
(icmyPackage
CorE
p9262
(dp9263
g231
(lp9264
(I0
I5
tp9265
a(I0
I27
tp9266
asg235
g9245
sbsg236
(icmyPackage
CorE
p9267
(dp9268
g231
(lp9269
(I0
I0
tp9270
a(I0
I3
tp9271
asg235
g5
(g6
g7
(lp9272
g8988
ag8995
ag9011
atp9273
Rp9274
(dp9275
g16
g246
sbsbsg247
g248
sg268
(lp9276
(isxpPackage
sxpSent
p9277
(dp9278
g272
(lp9279
I13
asg274
VWe introduced a model for leveraging situational information in learning vector-space representations of words that are sensitive to the speaker u'\u005cu2019' s social context
p9280
sg276
I7
sg261
I104
sg277
I33
sbasba(icmyPackage
CELink
p9281
(dp9282
g3
(lp9283
g5
(g6
g7
(lp9284
g5
(g6
g7
(lp9285
g5
(g6
g7
(lp9286
g5
(g6
g7
(lp9287
VBy
p9288
atp9289
Rp9290
(dp9291
g16
VIN
p9292
sbag5
(g6
g7
(lp9293
g5
(g6
g7
(lp9294
g5
(g6
g7
(lp9295
Vallowing
p9296
atp9297
Rp9298
(dp9299
g16
VVBG
p9300
sbag5
(g6
g7
(lp9301
g5
(g6
g7
(lp9302
g5
(g6
g7
(lp9303
Vall
p9304
atp9305
Rp9306
(dp9307
g16
VDT
p9308
sbag5
(g6
g7
(lp9309
Vwords
p9310
atp9311
Rp9312
(dp9313
g16
VNNS
p9314
sbatp9315
Rp9316
(dp9317
g16
VNP
p9318
sbag5
(g6
g7
(lp9319
g5
(g6
g7
(lp9320
Vin
p9321
atp9322
Rp9323
(dp9324
g16
VIN
p9325
sbag5
(g6
g7
(lp9326
g5
(g6
g7
(lp9327
Vdifferent
p9328
atp9329
Rp9330
(dp9331
g16
VJJ
p9332
sbag5
(g6
g7
(lp9333
Vregions
p9334
atp9335
Rp9336
(dp9337
g16
VNNS
p9338
sbatp9339
Rp9340
(dp9341
g16
VNP
p9342
sbatp9343
Rp9344
(dp9345
g16
VPP
p9346
sbatp9347
Rp9348
(dp9349
g16
VNP
p9350
sbag5
(g6
g7
(lp9351
g5
(g6
g7
(lp9352
V-LRB-
p9353
atp9354
Rp9355
(dp9356
g16
V-LRB-
p9357
sbag5
(g6
g7
(lp9358
g5
(g6
g7
(lp9359
g5
(g6
g7
(lp9360
g5
(g6
g7
(lp9361
g5
(g6
g7
(lp9362
g5
(g6
g7
(lp9363
Vor
p9364
atp9365
Rp9366
(dp9367
g16
VCC
p9368
sbag5
(g6
g7
(lp9369
Vmore
p9370
atp9371
Rp9372
(dp9373
g16
VJJR
p9374
sbatp9375
Rp9376
(dp9377
g16
VQP
p9378
sbatp9379
Rp9380
(dp9381
g16
VNP
p9382
sbag5
(g6
g7
(lp9383
g5
(g6
g7
(lp9384
Vgenerally
p9385
atp9386
Rp9387
(dp9388
g16
VRB
p9389
sbatp9390
Rp9391
(dp9392
g16
VADVP
p9393
sbatp9394
Rp9395
(dp9396
g16
VNP
p9397
sbag5
(g6
g7
(lp9398
g381
atp9399
Rp9400
(dp9401
g16
g381
sbag5
(g6
g7
(lp9402
g5
(g6
g7
(lp9403
Vwith
p9404
atp9405
Rp9406
(dp9407
g16
VIN
p9408
sbag5
(g6
g7
(lp9409
g5
(g6
g7
(lp9410
Vdifferent
p9411
atp9412
Rp9413
(dp9414
g16
VJJ
p9415
sbag5
(g6
g7
(lp9416
Vmetadata
p9417
atp9418
Rp9419
(dp9420
g16
VNN
p9421
sbatp9422
Rp9423
(dp9424
g16
VNP
p9425
sbatp9426
Rp9427
(dp9428
g16
VPP
p9429
sbatp9430
Rp9431
(dp9432
g16
VNP
p9433
sbag5
(g6
g7
(lp9434
g5
(g6
g7
(lp9435
Vfactors
p9436
atp9437
Rp9438
(dp9439
g16
VNNS
p9440
sbatp9441
Rp9442
(dp9443
g16
VNP
p9444
sbatp9445
Rp9446
(dp9447
g16
VNP
p9448
sbag5
(g6
g7
(lp9449
V-RRB-
p9450
atp9451
Rp9452
(dp9453
g16
V-RRB-
p9454
sbatp9455
Rp9456
(dp9457
g16
VPRN
p9458
sbag5
(g6
g7
(lp9459
g5
(g6
g7
(lp9460
g5
(g6
g7
(lp9461
Vto
p9462
atp9463
Rp9464
(dp9465
g16
VTO
p9466
sbag5
(g6
g7
(lp9467
g5
(g6
g7
(lp9468
Vexist
p9469
atp9470
Rp9471
(dp9472
g16
VVB
p9473
sbag5
(g6
g7
(lp9474
g5
(g6
g7
(lp9475
Vin
p9476
atp9477
Rp9478
(dp9479
g16
VIN
p9480
sbag5
(g6
g7
(lp9481
g5
(g6
g7
(lp9482
Vthe
p9483
atp9484
Rp9485
(dp9486
g16
VDT
p9487
sbag5
(g6
g7
(lp9488
Vsame
p9489
atp9490
Rp9491
(dp9492
g16
VJJ
p9493
sbag5
(g6
g7
(lp9494
Vvector
p9495
atp9496
Rp9497
(dp9498
g16
VNN
p9499
sbag5
(g6
g7
(lp9500
Vspace
p9501
atp9502
Rp9503
(dp9504
g16
VNN
p9505
sbatp9506
Rp9507
(dp9508
g16
VNP
p9509
sbatp9510
Rp9511
(dp9512
g16
VPP
p9513
sbatp9514
Rp9515
(dp9516
g16
VVP
p9517
sbatp9518
Rp9519
(dp9520
g16
VVP
p9521
sbatp9522
Rp9523
(dp9524
g16
g200
sbatp9525
Rp9526
(dp9527
g16
VVP
p9528
sbatp9529
Rp9530
(dp9531
g16
g200
sbatp9532
Rp9533
(dp9534
g16
VPP
p9535
sbag5
(g6
g7
(lp9536
g381
atp9537
Rp9538
(dp9539
g16
g381
sbag5
(g6
g7
(lp9540
g5
(g6
g7
(lp9541
Vwe
p9542
atp9543
Rp9544
(dp9545
g16
VPRP
p9546
sbatp9547
Rp9548
(dp9549
g16
VNP
p9550
sbag5
(g6
g7
(lp9551
g5
(g6
g7
(lp9552
Vare
p9553
atp9554
Rp9555
(dp9556
g16
VVBP
p9557
sbag5
(g6
g7
(lp9558
g5
(g6
g7
(lp9559
Vable
p9560
atp9561
Rp9562
(dp9563
g16
VJJ
p9564
sbag5
(g6
g7
(lp9565
g5
(g6
g7
(lp9566
g5
(g6
g7
(lp9567
g5
(g6
g7
(lp9568
Vcompare
p9569
atp9570
Rp9571
(dp9572
g16
VVBP
p9573
sbag5
(g6
g7
(lp9574
g5
(g6
g7
(lp9575
g5
(g6
g7
(lp9576
Vdifferent
p9577
atp9578
Rp9579
(dp9580
g16
VJJ
p9581
sbag5
(g6
g7
(lp9582
Vpoints
p9583
atp9584
Rp9585
(dp9586
g16
VNNS
p9587
sbatp9588
Rp9589
(dp9590
g16
VNP
p9591
sbag5
(g6
g7
(lp9592
g5
(g6
g7
(lp9593
Vin
p9594
atp9595
Rp9596
(dp9597
g16
VIN
p9598
sbag5
(g6
g7
(lp9599
g5
(g6
g7
(lp9600
g5
(g6
g7
(lp9601
Vthat
p9602
atp9603
Rp9604
(dp9605
g16
VDT
p9606
sbag5
(g6
g7
(lp9607
Vspace
p9608
atp9609
Rp9610
(dp9611
g16
VNN
p9612
sbag5
(g6
g7
(lp9613
g338
atp9614
Rp9615
(dp9616
g16
VNN
p9617
sbag5
(g6
g7
(lp9618
g344
atp9619
Rp9620
(dp9621
g16
VPOS
p9622
sbatp9623
Rp9624
(dp9625
g16
VNP
p9626
sbag5
(g6
g7
(lp9627
V\u005c
p9628
atp9629
Rp9630
(dp9631
g16
VJJ
p9632
sbag5
(g6
g7
(lp9633
Vu2013
p9634
atp9635
Rp9636
(dp9637
g16
VNNS
p9638
sbatp9639
Rp9640
(dp9641
g16
VNP
p9642
sbatp9643
Rp9644
(dp9645
g16
VPP
p9646
sbag5
(g6
g7
(lp9647
g344
atp9648
Rp9649
(dp9650
g16
V''
p9651
sbag5
(g6
g7
(lp9652
g5
(g6
g7
(lp9653
Vfor
p9654
atp9655
Rp9656
(dp9657
g16
VIN
p9658
sbag5
(g6
g7
(lp9659
g5
(g6
g7
(lp9660
Vexample
p9661
atp9662
Rp9663
(dp9664
g16
VNN
p9665
sbatp9666
Rp9667
(dp9668
g16
VNP
p9669
sbatp9670
Rp9671
(dp9672
g16
VPP
p9673
sbag5
(g6
g7
(lp9674
g381
atp9675
Rp9676
(dp9677
g16
g381
sbag5
(g6
g7
(lp9678
g5
(g6
g7
(lp9679
g5
(g6
g7
(lp9680
Vto
p9681
atp9682
Rp9683
(dp9684
g16
VTO
p9685
sbag5
(g6
g7
(lp9686
g5
(g6
g7
(lp9687
Vask
p9688
atp9689
Rp9690
(dp9691
g16
VVB
p9692
sbag5
(g6
g7
(lp9693
g5
(g6
g7
(lp9694
g5
(g6
g7
(lp9695
g5
(g6
g7
(lp9696
Vwhat
p9697
atp9698
Rp9699
(dp9700
g16
VWP
p9701
sbatp9702
Rp9703
(dp9704
g16
VWHNP
p9705
sbag5
(g6
g7
(lp9706
g5
(g6
g7
(lp9707
g5
(g6
g7
(lp9708
g5
(g6
g7
(lp9709
Vterms
p9710
atp9711
Rp9712
(dp9713
g16
VNNS
p9714
sbatp9715
Rp9716
(dp9717
g16
VNP
p9718
sbag5
(g6
g7
(lp9719
g5
(g6
g7
(lp9720
Vused
p9721
atp9722
Rp9723
(dp9724
g16
VVBN
p9725
sbag5
(g6
g7
(lp9726
g5
(g6
g7
(lp9727
Vin
p9728
atp9729
Rp9730
(dp9731
g16
VIN
p9732
sbag5
(g6
g7
(lp9733
g5
(g6
g7
(lp9734
VChicago
p9735
atp9736
Rp9737
(dp9738
g16
VNNP
p9739
sbatp9740
Rp9741
(dp9742
g16
VNP
p9743
sbatp9744
Rp9745
(dp9746
g16
VPP
p9747
sbatp9748
Rp9749
(dp9750
g16
VVP
p9751
sbatp9752
Rp9753
(dp9754
g16
VNP
p9755
sbag5
(g6
g7
(lp9756
g5
(g6
g7
(lp9757
Vare
p9758
atp9759
Rp9760
(dp9761
g16
VVBP
p9762
sbag5
(g6
g7
(lp9763
g5
(g6
g7
(lp9764
g5
(g6
g7
(lp9765
Vmost
p9766
atp9767
Rp9768
(dp9769
g16
VRBS
p9770
sbag5
(g6
g7
(lp9771
Vsimilar
p9772
atp9773
Rp9774
(dp9775
g16
VJJ
p9776
sbatp9777
Rp9778
(dp9779
g16
VADJP
p9780
sbag5
(g6
g7
(lp9781
g5
(g6
g7
(lp9782
Vto
p9783
atp9784
Rp9785
(dp9786
g16
VTO
p9787
sbag5
(g6
g7
(lp9788
g5
(g6
g7
(lp9789
g5
(g6
g7
(lp9790
Vhot
p9791
atp9792
Rp9793
(dp9794
g16
VJJ
p9795
sbag5
(g6
g7
(lp9796
Vdog
p9797
atp9798
Rp9799
(dp9800
g16
VNN
p9801
sbatp9802
Rp9803
(dp9804
g16
VNP
p9805
sbag5
(g6
g7
(lp9806
g5
(g6
g7
(lp9807
Vin
p9808
atp9809
Rp9810
(dp9811
g16
VIN
p9812
sbag5
(g6
g7
(lp9813
g5
(g6
g7
(lp9814
VNew
p9815
atp9816
Rp9817
(dp9818
g16
VNNP
p9819
sbag5
(g6
g7
(lp9820
VYork
p9821
atp9822
Rp9823
(dp9824
g16
VNNP
p9825
sbatp9826
Rp9827
(dp9828
g16
VNP
p9829
sbatp9830
Rp9831
(dp9832
g16
VPP
p9833
sbatp9834
Rp9835
(dp9836
g16
VNP
p9837
sbatp9838
Rp9839
(dp9840
g16
VPP
p9841
sbatp9842
Rp9843
(dp9844
g16
VADJP
p9845
sbatp9846
Rp9847
(dp9848
g16
VVP
p9849
sbatp9850
Rp9851
(dp9852
g16
g200
sbatp9853
Rp9854
(dp9855
g16
VSBAR
p9856
sbag5
(g6
g7
(lp9857
g381
atp9858
Rp9859
(dp9860
g16
g381
sbag5
(g6
g7
(lp9861
Vor
p9862
atp9863
Rp9864
(dp9865
g16
VCC
p9866
sbag5
(g6
g7
(lp9867
g5
(g6
g7
(lp9868
g5
(g6
g7
(lp9869
Vwhat
p9870
atp9871
Rp9872
(dp9873
g16
VWP
p9874
sbatp9875
Rp9876
(dp9877
g16
VWHNP
p9878
sbag5
(g6
g7
(lp9879
g5
(g6
g7
(lp9880
g5
(g6
g7
(lp9881
Vword
p9882
atp9883
Rp9884
(dp9885
g16
VNN
p9886
sbag5
(g6
g7
(lp9887
Vgroups
p9888
atp9889
Rp9890
(dp9891
g16
VNNS
p9892
sbatp9893
Rp9894
(dp9895
g16
VNP
p9896
sbag5
(g6
g7
(lp9897
g5
(g6
g7
(lp9898
Vshift
p9899
atp9900
Rp9901
(dp9902
g16
VVBP
p9903
sbag5
(g6
g7
(lp9904
g5
(g6
g7
(lp9905
Vtogether
p9906
atp9907
Rp9908
(dp9909
g16
VRB
p9910
sbatp9911
Rp9912
(dp9913
g16
VADVP
p9914
sbag5
(g6
g7
(lp9915
g5
(g6
g7
(lp9916
Vin
p9917
atp9918
Rp9919
(dp9920
g16
VIN
p9921
sbag5
(g6
g7
(lp9922
g5
(g6
g7
(lp9923
g5
(g6
g7
(lp9924
Vthe
p9925
atp9926
Rp9927
(dp9928
g16
VDT
p9929
sbag5
(g6
g7
(lp9930
Vsame
p9931
atp9932
Rp9933
(dp9934
g16
VJJ
p9935
sbag5
(g6
g7
(lp9936
Vregion
p9937
atp9938
Rp9939
(dp9940
g16
VNN
p9941
sbatp9942
Rp9943
(dp9944
g16
VNP
p9945
sbag5
(g6
g7
(lp9946
g5
(g6
g7
(lp9947
Vin
p9948
atp9949
Rp9950
(dp9951
g16
VIN
p9952
sbag5
(g6
g7
(lp9953
g5
(g6
g7
(lp9954
Vcomparison
p9955
atp9956
Rp9957
(dp9958
g16
VNN
p9959
sbatp9960
Rp9961
(dp9962
g16
VNP
p9963
sbatp9964
Rp9965
(dp9966
g16
VPP
p9967
sbatp9968
Rp9969
(dp9970
g16
VNP
p9971
sbatp9972
Rp9973
(dp9974
g16
VPP
p9975
sbag5
(g6
g7
(lp9976
g5
(g6
g7
(lp9977
Vto
p9978
atp9979
Rp9980
(dp9981
g16
VTO
p9982
sbag5
(g6
g7
(lp9983
g5
(g6
g7
(lp9984
g5
(g6
g7
(lp9985
Vthe
p9986
atp9987
Rp9988
(dp9989
g16
VDT
p9990
sbag5
(g6
g7
(lp9991
Vbackground
p9992
atp9993
Rp9994
(dp9995
g16
VNN
p9996
sbatp9997
Rp9998
(dp9999
g16
VNP
p10000
sbag5
(g6
g7
(lp10001
V-LRB-
p10002
atp10003
Rp10004
(dp10005
g16
V-LRB-
p10006
sbag5
(g6
g7
(lp10007
g5
(g6
g7
(lp10008
Vindicating
p10009
atp10010
Rp10011
(dp10012
g16
VIN
p10013
sbag5
(g6
g7
(lp10014
g5
(g6
g7
(lp10015
Vthe
p10016
atp10017
Rp10018
(dp10019
g16
VDT
p10020
sbag5
(g6
g7
(lp10021
Vshift
p10022
atp10023
Rp10024
(dp10025
g16
VNN
p10026
sbatp10027
Rp10028
(dp10029
g16
VNP
p10030
sbatp10031
Rp10032
(dp10033
g16
VPP
p10034
sbag5
(g6
g7
(lp10035
g5
(g6
g7
(lp10036
Vof
p10037
atp10038
Rp10039
(dp10040
g16
VIN
p10041
sbag5
(g6
g7
(lp10042
g5
(g6
g7
(lp10043
Van
p10044
atp10045
Rp10046
(dp10047
g16
VDT
p10048
sbag5
(g6
g7
(lp10049
Ventire
p10050
atp10051
Rp10052
(dp10053
g16
VJJ
p10054
sbag5
(g6
g7
(lp10055
Vsemantic
p10056
atp10057
Rp10058
(dp10059
g16
VJJ
p10060
sbag5
(g6
g7
(lp10061
Vfield
p10062
atp10063
Rp10064
(dp10065
g16
VNN
p10066
sbatp10067
Rp10068
(dp10069
g16
VNP
p10070
sbatp10071
Rp10072
(dp10073
g16
VPP
p10074
sbatp10075
Rp10076
(dp10077
g16
VNP
p10078
sbatp10079
Rp10080
(dp10081
g16
VPP
p10082
sbatp10083
Rp10084
(dp10085
g16
VVP
p10086
sbatp10087
Rp10088
(dp10089
g16
g200
sbatp10090
Rp10091
(dp10092
g16
VSBAR
p10093
sbatp10094
Rp10095
(dp10096
g16
VSBAR
p10097
sbatp10098
Rp10099
(dp10100
g16
VVP
p10101
sbatp10102
Rp10103
(dp10104
g16
VVP
p10105
sbatp10106
Rp10107
(dp10108
g16
g200
sbatp10109
Rp10110
(dp10111
g16
VNP
p10112
sbatp10113
Rp10114
(dp10115
g16
VVP
p10116
sbatp10117
Rp10118
(dp10119
g16
g200
sbatp10120
Rp10121
(dp10122
g16
VSBAR
p10123
sbatp10124
Rp10125
(dp10126
g16
VADJP
p10127
sbatp10128
Rp10129
(dp10130
g16
VVP
p10131
sbatp10132
Rp10133
(dp10134
g16
g200
sbatp10135
Rp10136
(dp10137
g16
VROOT
p10138
sbasg228
(icmyPackage
CorE
p10139
(dp10140
g231
(lp10141
(I0
I1
tp10142
a(I0
I23
tp10143
asg235
g9530
sbsg236
(icmyPackage
CorE
p10144
(dp10145
g231
(lp10146
(I0
I24
tp10147
a(I0
I82
tp10148
asg235
g5
(g6
g7
(lp10149
g9538
ag9548
ag10129
atp10150
Rp10151
(dp10152
g16
g246
sbsbsg247
g8955
sg268
(lp10153
(isxpPackage
sxpSent
p10154
(dp10155
g272
(lp10156
I14
asg274
VBy allowing all words in different regions (or more generally, with different metadata factors) to exist in the same vector space, we are able compare different points in that space u'\u005cu2013' for example, to ask what terms used in Chicago are most similar to hot dog in New York, or what word groups shift together in the same region in comparison to the background (indicating the shift of an entire semantic field
p10157
sg276
I7
sg261
I107
sg277
I34
sbasba.