(lp0
(icmyPackage
CELink
p1
(dp2
S'PTreelst'
p3
(lp4
ccopy_reg
_reconstructor
p5
(cnltk.tree
Tree
p6
c__builtin__
list
p7
(lp8
g5
(g6
g7
(lp9
g5
(g6
g7
(lp10
g5
(g6
g7
(lp11
g5
(g6
g7
(lp12
VInsight
p13
atp14
Rp15
(dp16
S'_label'
p17
VNNP
p18
sbatp19
Rp20
(dp21
g17
VNP
p22
sbag5
(g6
g7
(lp23
g5
(g6
g7
(lp24
Vinto
p25
atp26
Rp27
(dp28
g17
VIN
p29
sbag5
(g6
g7
(lp30
g5
(g6
g7
(lp31
Vconcreteness
p32
atp33
Rp34
(dp35
g17
VNNS
p36
sbatp37
Rp38
(dp39
g17
VNP
p40
sbatp41
Rp42
(dp43
g17
VPP
p44
sbatp45
Rp46
(dp47
g17
VNP
p48
sbag5
(g6
g7
(lp49
g5
(g6
g7
(lp50
Vcan
p51
atp52
Rp53
(dp54
g17
VMD
p55
sbag5
(g6
g7
(lp56
g5
(g6
g7
(lp57
Vhelp
p58
atp59
Rp60
(dp61
g17
VVB
p62
sbag5
(g6
g7
(lp63
g5
(g6
g7
(lp64
g5
(g6
g7
(lp65
Vsystems
p66
atp67
Rp68
(dp69
g17
VNNS
p70
sbatp71
Rp72
(dp73
g17
VNP
p74
sbag5
(g6
g7
(lp75
g5
(g6
g7
(lp76
Vto
p77
atp78
Rp79
(dp80
g17
VTO
p81
sbag5
(g6
g7
(lp82
g5
(g6
g7
(lp83
Vclassify
p84
atp85
Rp86
(dp87
g17
VVB
p88
sbag5
(g6
g7
(lp89
g5
(g6
g7
(lp90
Vadjective-noun
p91
atp92
Rp93
(dp94
g17
VJJ
p95
sbag5
(g6
g7
(lp96
Vpairs
p97
atp98
Rp99
(dp100
g17
VNNS
p101
sbatp102
Rp103
(dp104
g17
VNP
p105
sbag5
(g6
g7
(lp106
g5
(g6
g7
(lp107
Vaccording
p108
atp109
Rp110
(dp111
g17
VVBG
p112
sbag5
(g6
g7
(lp113
g5
(g6
g7
(lp114
Vto
p115
atp116
Rp117
(dp118
g17
VTO
p119
sbag5
(g6
g7
(lp120
g5
(g6
g7
(lp121
Vtheir
p122
atp123
Rp124
(dp125
g17
VPRP$
p126
sbag5
(g6
g7
(lp127
Vsemantics
p128
atp129
Rp130
(dp131
g17
VNNS
p132
sbatp133
Rp134
(dp135
g17
VNP
p136
sbatp137
Rp138
(dp139
g17
VPP
p140
sbatp141
Rp142
(dp143
g17
VPP
p144
sbatp145
Rp146
(dp147
g17
VVP
p148
sbatp149
Rp150
(dp151
g17
VVP
p152
sbatp153
Rp154
(dp155
g17
VS
p156
sbatp157
Rp158
(dp159
g17
VVP
p160
sbatp161
Rp162
(dp163
g17
VVP
p164
sbatp165
Rp166
(dp167
g17
g156
sbatp168
Rp169
(dp170
g17
VROOT
p171
sbasS'cause'
p172
(icmyPackage
CorE
p173
(dp174
S'span'
p175
(lp176
(I0
I12
tp177
a(I0
I13
tp178
asS'PTree'
p179
g134
sbsS'effect'
p180
(icmyPackage
CorE
p181
(dp182
g175
(lp183
(I0
I0
tp184
a(I0
I9
tp185
asg179
g5
(g6
g7
(lp186
g46
ag53
ag60
ag72
ag79
ag86
ag103
atp187
Rp188
(dp189
g17
S'ROOT'
p190
sbsbsS'pt'
p191
(icmyPackage
pattern
p192
(dp193
S'pfreq'
p194
I0
sS'moresent'
p195
I0
sS'main_token'
p196
(lp197
(lp198
S'according'
p199
aS'to'
p200
aasS'ptype'
p201
(lp202
I2
aI1
aI1
asS'cases'
p203
(lp204
S'There could be different ways to arrange pictures in displays but picture should be selected according to the core sentences and arranged near the core sentences according to the semantic locality principle.'
p205
asS'id'
p206
I55
sS'constraints'
p207
(lp208
(lp209
S'&R'
p210
aS'(,)'
p211
aa(lp212
S'&NP@C@'
p213
aasbsS'sInfo'
p214
(lp215
(isxpPackage
sxpSent
p216
(dp217
S'sysCEidlst'
p218
(lp219
I0
asS'sentence_text'
p220
VInsight into concreteness can help systems to classify adjective-noun pairs according to their semantics
p221
sS'id_sec'
p222
I2
sg206
I4
sS'id_para'
p223
I2
sbasba(icmyPackage
CELink
p224
(dp225
g3
(lp226
g5
(g6
g7
(lp227
g5
(g6
g7
(lp228
g5
(g6
g7
(lp229
g5
(g6
g7
(lp230
VHowever
p231
atp232
Rp233
(dp234
g17
VRB
p235
sbatp236
Rp237
(dp238
g17
VADVP
p239
sbag5
(g6
g7
(lp240
V,
p241
atp242
Rp243
(dp244
g17
g241
sbag5
(g6
g7
(lp245
g5
(g6
g7
(lp246
Vrecent
p247
atp248
Rp249
(dp250
g17
VJJ
p251
sbag5
(g6
g7
(lp252
Vwork
p253
atp254
Rp255
(dp256
g17
VNN
p257
sbatp258
Rp259
(dp260
g17
VNP
p261
sbag5
(g6
g7
(lp262
g5
(g6
g7
(lp263
Vhas
p264
atp265
Rp266
(dp267
g17
VVBZ
p268
sbag5
(g6
g7
(lp269
g5
(g6
g7
(lp270
Vhighlighted
p271
atp272
Rp273
(dp274
g17
VVBN
p275
sbag5
(g6
g7
(lp276
g5
(g6
g7
(lp277
g5
(g6
g7
(lp278
Vthe
p279
atp280
Rp281
(dp282
g17
VDT
p283
sbag5
(g6
g7
(lp284
Vapplication
p285
atp286
Rp287
(dp288
g17
VNN
p289
sbatp290
Rp291
(dp292
g17
VNP
p293
sbag5
(g6
g7
(lp294
g5
(g6
g7
(lp295
Vof
p296
atp297
Rp298
(dp299
g17
VIN
p300
sbag5
(g6
g7
(lp301
g5
(g6
g7
(lp302
Vsubjectivity
p303
atp304
Rp305
(dp306
g17
VJJ
p307
sbag5
(g6
g7
(lp308
Vanalysis
p309
atp310
Rp311
(dp312
g17
VNN
p313
sbatp314
Rp315
(dp316
g17
VNP
p317
sbatp318
Rp319
(dp320
g17
VPP
p321
sbatp322
Rp323
(dp324
g17
VNP
p325
sbag5
(g6
g7
(lp326
g5
(g6
g7
(lp327
Vto
p328
atp329
Rp330
(dp331
g17
VTO
p332
sbag5
(g6
g7
(lp333
g5
(g6
g7
(lp334
Vlexical
p335
atp336
Rp337
(dp338
g17
VJJ
p339
sbag5
(g6
g7
(lp340
Vsemantics
p341
atp342
Rp343
(dp344
g17
VNNS
p345
sbatp346
Rp347
(dp348
g17
VNP
p349
sbatp350
Rp351
(dp352
g17
VPP
p353
sbag5
(g6
g7
(lp354
g241
atp355
Rp356
(dp357
g17
g241
sbag5
(g6
g7
(lp358
g5
(g6
g7
(lp359
Vfor
p360
atp361
Rp362
(dp363
g17
VIN
p364
sbag5
(g6
g7
(lp365
g5
(g6
g7
(lp366
g5
(g6
g7
(lp367
Vinstance
p368
atp369
Rp370
(dp371
g17
VNN
p372
sbatp373
Rp374
(dp375
g17
VNP
p376
sbag5
(g6
g7
(lp377
g5
(g6
g7
(lp378
Vto
p379
atp380
Rp381
(dp382
g17
VTO
p383
sbag5
(g6
g7
(lp384
g5
(g6
g7
(lp385
g5
(g6
g7
(lp386
Vthe
p387
atp388
Rp389
(dp390
g17
VDT
p391
sbag5
(g6
g7
(lp392
Vtasks
p393
atp394
Rp395
(dp396
g17
VNNS
p397
sbatp398
Rp399
(dp400
g17
VNP
p401
sbag5
(g6
g7
(lp402
g5
(g6
g7
(lp403
Vof
p404
atp405
Rp406
(dp407
g17
VIN
p408
sbag5
(g6
g7
(lp409
g5
(g6
g7
(lp410
g5
(g6
g7
(lp411
Vdisambiguating
p412
atp413
Rp414
(dp415
g17
VVBG
p416
sbag5
(g6
g7
(lp417
g5
(g6
g7
(lp418
Vwords
p419
atp420
Rp421
(dp422
g17
VNNS
p423
sbatp424
Rp425
(dp426
g17
VNP
p427
sbag5
(g6
g7
(lp428
g5
(g6
g7
(lp429
Vaccording
p430
atp431
Rp432
(dp433
g17
VVBG
p434
sbag5
(g6
g7
(lp435
g5
(g6
g7
(lp436
Vto
p437
atp438
Rp439
(dp440
g17
VTO
p441
sbag5
(g6
g7
(lp442
g5
(g6
g7
(lp443
g5
(g6
g7
(lp444
Vtheir
p445
atp446
Rp447
(dp448
g17
VPRP$
p449
sbag5
(g6
g7
(lp450
Vusage
p451
atp452
Rp453
(dp454
g17
VNN
p455
sbag5
(g6
g7
(lp456
Vor
p457
atp458
Rp459
(dp460
g17
VCC
p461
sbag5
(g6
g7
(lp462
Vsense
p463
atp464
Rp465
(dp466
g17
VNN
p467
sbatp468
Rp469
(dp470
g17
VNP
p471
sbag5
(g6
g7
(lp472
g5
(g6
g7
(lp473
g5
(g6
g7
(lp474
V-LSB-
p475
atp476
Rp477
(dp478
g17
VNNP
p479
sbag5
(g6
g7
(lp480
V28
p481
atp482
Rp483
(dp484
g17
VCD
p485
sbag5
(g6
g7
(lp486
g241
atp487
Rp488
(dp489
g17
g241
sbag5
(g6
g7
(lp490
V2
p491
atp492
Rp493
(dp494
g17
VCD
p495
sbatp496
Rp497
(dp498
g17
VNP
p499
sbag5
(g6
g7
(lp500
V-RSB-
p501
atp502
Rp503
(dp504
g17
VJJ
p505
sbatp506
Rp507
(dp508
g17
VADJP
p509
sbatp510
Rp511
(dp512
g17
VNP
p513
sbatp514
Rp515
(dp516
g17
VPP
p517
sbatp518
Rp519
(dp520
g17
VPP
p521
sbatp522
Rp523
(dp524
g17
VVP
p525
sbatp526
Rp527
(dp528
g17
g156
sbatp529
Rp530
(dp531
g17
VPP
p532
sbatp533
Rp534
(dp535
g17
VNP
p536
sbatp537
Rp538
(dp539
g17
VPP
p540
sbatp541
Rp542
(dp543
g17
VNP
p544
sbatp545
Rp546
(dp547
g17
VPP
p548
sbatp549
Rp550
(dp551
g17
VVP
p552
sbatp553
Rp554
(dp555
g17
VVP
p556
sbatp557
Rp558
(dp559
g17
g156
sbatp560
Rp561
(dp562
g17
VROOT
p563
sbasg172
(icmyPackage
CorE
p564
(dp565
g175
(lp566
(I0
I25
tp567
a(I0
I33
tp568
asg179
g511
sbsg180
(icmyPackage
CorE
p569
(dp570
g175
(lp571
(I0
I0
tp572
a(I0
I22
tp573
asg179
g5
(g6
g7
(lp574
g237
ag243
ag259
ag266
ag273
ag323
ag351
ag356
ag362
ag374
ag381
ag399
ag406
ag414
ag425
atp575
Rp576
(dp577
g17
g190
sbsbsg191
g192
sg214
(lp578
(isxpPackage
sxpSent
p579
(dp580
g218
(lp581
I1
asg220
VHowever, recent work has highlighted the application of subjectivity analysis to lexical semantics, for instance to the tasks of disambiguating words according to their usage or sense [ 28 , 2 ]
p582
sg222
I2
sg206
I10
sg223
I3
sbasba(icmyPackage
CELink
p583
(dp584
g3
(lp585
g5
(g6
g7
(lp586
g5
(g6
g7
(lp587
g5
(g6
g7
(lp588
g5
(g6
g7
(lp589
g5
(g6
g7
(lp590
VA
p591
atp592
Rp593
(dp594
g17
VDT
p595
sbag5
(g6
g7
(lp596
Vprincipled
p597
atp598
Rp599
(dp600
g17
VJJ
p601
sbag5
(g6
g7
(lp602
Vtreatment
p603
atp604
Rp605
(dp606
g17
VNN
p607
sbatp608
Rp609
(dp610
g17
VNP
p611
sbag5
(g6
g7
(lp612
g5
(g6
g7
(lp613
Vof
p614
atp615
Rp616
(dp617
g17
VIN
p618
sbag5
(g6
g7
(lp619
g5
(g6
g7
(lp620
Vconcreteness
p621
atp622
Rp623
(dp624
g17
VNNS
p625
sbatp626
Rp627
(dp628
g17
VNP
p629
sbatp630
Rp631
(dp632
g17
VPP
p633
sbatp634
Rp635
(dp636
g17
VNP
p637
sbag5
(g6
g7
(lp638
g5
(g6
g7
(lp639
Vis
p640
atp641
Rp642
(dp643
g17
VVBZ
p644
sbag5
(g6
g7
(lp645
g5
(g6
g7
(lp646
Vthus
p647
atp648
Rp649
(dp650
g17
VRB
p651
sbatp652
Rp653
(dp654
g17
VADVP
p655
sbag5
(g6
g7
(lp656
g5
(g6
g7
(lp657
Vlikely
p658
atp659
Rp660
(dp661
g17
VJJ
p662
sbag5
(g6
g7
(lp663
g5
(g6
g7
(lp664
g5
(g6
g7
(lp665
Vto
p666
atp667
Rp668
(dp669
g17
VTO
p670
sbag5
(g6
g7
(lp671
g5
(g6
g7
(lp672
Vbe
p673
atp674
Rp675
(dp676
g17
VVB
p677
sbag5
(g6
g7
(lp678
g5
(g6
g7
(lp679
Vimportant
p680
atp681
Rp682
(dp683
g17
VJJ
p684
sbatp685
Rp686
(dp687
g17
VADJP
p688
sbag5
(g6
g7
(lp689
g5
(g6
g7
(lp690
Vif
p691
atp692
Rp693
(dp694
g17
VIN
p695
sbag5
(g6
g7
(lp696
g5
(g6
g7
(lp697
g5
(g6
g7
(lp698
Vthe
p699
atp700
Rp701
(dp702
g17
VDT
p703
sbag5
(g6
g7
(lp704
Vmulti-modal
p705
atp706
Rp707
(dp708
g17
VJJ
p709
sbag5
(g6
g7
(lp710
Vapproach
p711
atp712
Rp713
(dp714
g17
VNN
p715
sbatp716
Rp717
(dp718
g17
VNP
p719
sbag5
(g6
g7
(lp720
g5
(g6
g7
(lp721
Vis
p722
atp723
Rp724
(dp725
g17
VVBZ
p726
sbag5
(g6
g7
(lp727
g5
(g6
g7
(lp728
g5
(g6
g7
(lp729
Vto
p730
atp731
Rp732
(dp733
g17
VTO
p734
sbag5
(g6
g7
(lp735
g5
(g6
g7
(lp736
Vprove
p737
atp738
Rp739
(dp740
g17
VVB
p741
sbag5
(g6
g7
(lp742
g5
(g6
g7
(lp743
Veffective
p744
atp745
Rp746
(dp747
g17
VJJ
p748
sbatp749
Rp750
(dp751
g17
VADJP
p752
sbag5
(g6
g7
(lp753
g5
(g6
g7
(lp754
Von
p755
atp756
Rp757
(dp758
g17
VIN
p759
sbag5
(g6
g7
(lp760
g5
(g6
g7
(lp761
g5
(g6
g7
(lp762
Va
p763
atp764
Rp765
(dp766
g17
VDT
p767
sbag5
(g6
g7
(lp768
Vwider
p769
atp770
Rp771
(dp772
g17
VJJR
p773
sbag5
(g6
g7
(lp774
Vrange
p775
atp776
Rp777
(dp778
g17
VNN
p779
sbatp780
Rp781
(dp782
g17
VNP
p783
sbag5
(g6
g7
(lp784
g5
(g6
g7
(lp785
Vof
p786
atp787
Rp788
(dp789
g17
VIN
p790
sbag5
(g6
g7
(lp791
g5
(g6
g7
(lp792
Vconcepts
p793
atp794
Rp795
(dp796
g17
VNNS
p797
sbatp798
Rp799
(dp800
g17
VNP
p801
sbatp802
Rp803
(dp804
g17
VPP
p805
sbatp806
Rp807
(dp808
g17
VNP
p809
sbatp810
Rp811
(dp812
g17
VPP
p813
sbatp814
Rp815
(dp816
g17
VVP
p817
sbatp818
Rp819
(dp820
g17
VVP
p821
sbatp822
Rp823
(dp824
g17
g156
sbatp825
Rp826
(dp827
g17
VVP
p828
sbatp829
Rp830
(dp831
g17
g156
sbatp832
Rp833
(dp834
g17
VSBAR
p835
sbatp836
Rp837
(dp838
g17
VVP
p839
sbatp840
Rp841
(dp842
g17
VVP
p843
sbatp844
Rp845
(dp846
g17
g156
sbatp847
Rp848
(dp849
g17
VADJP
p850
sbatp851
Rp852
(dp853
g17
VVP
p854
sbatp855
Rp856
(dp857
g17
g156
sbatp858
Rp859
(dp860
g17
VROOT
p861
sbasg172
(icmyPackage
CorE
p862
(dp863
g175
(lp864
(I0
I0
tp865
a(I0
I5
tp866
asg179
g5
(g6
g7
(lp867
g635
ag642
atp868
Rp869
(dp870
g17
g190
sbsbsg180
(icmyPackage
CorE
p871
(dp872
g175
(lp873
(I0
I7
tp874
a(I0
I24
tp875
asg179
g848
sbsg191
(icmyPackage
pattern
p876
(dp877
g194
I35
sg195
I1
sg196
(lp878
(lp879
S'thus'
p880
aasg201
(lp881
I1
aI1
aI1
asg203
(lp882
S'Japan will be on the dark side of the Earth, and thus will lack the warming influence of the Sun.'
p883
asg206
I2
sg207
(lp884
(lp885
S'&C'
p886
aS'(,/;/./--)'
p887
aS'(&AND)'
p888
aa(lp889
S'&R'
p890
aasbsg214
(lp891
(isxpPackage
sxpSent
p892
(dp893
g218
(lp894
I2
asg220
VA principled treatment of concreteness is thus likely to be important if the multi-modal approach is to prove effective on a wider range of concepts
p895
sg222
I2
sg206
I14
sg223
I4
sbasba(icmyPackage
CELink
p896
(dp897
g3
(lp898
g5
(g6
g7
(lp899
g5
(g6
g7
(lp900
g5
(g6
g7
(lp901
g5
(g6
g7
(lp902
VIn
p903
atp904
Rp905
(dp906
g17
VIN
p907
sbag5
(g6
g7
(lp908
g5
(g6
g7
(lp909
Vaddition
p910
atp911
Rp912
(dp913
g17
VNN
p914
sbatp915
Rp916
(dp917
g17
VNP
p918
sbatp919
Rp920
(dp921
g17
VPP
p922
sbag5
(g6
g7
(lp923
g241
atp924
Rp925
(dp926
g17
g241
sbag5
(g6
g7
(lp927
g5
(g6
g7
(lp928
Vwe
p929
atp930
Rp931
(dp932
g17
VPRP
p933
sbatp934
Rp935
(dp936
g17
VNP
p937
sbag5
(g6
g7
(lp938
g5
(g6
g7
(lp939
Vanalyse
p940
atp941
Rp942
(dp943
g17
VVBP
p944
sbag5
(g6
g7
(lp945
g5
(g6
g7
(lp946
g5
(g6
g7
(lp947
Vthe
p948
atp949
Rp950
(dp951
g17
VDT
p952
sbag5
(g6
g7
(lp953
Veffect
p954
atp955
Rp956
(dp957
g17
VNN
p958
sbatp959
Rp960
(dp961
g17
VNP
p962
sbag5
(g6
g7
(lp963
g5
(g6
g7
(lp964
Vof
p965
atp966
Rp967
(dp968
g17
VIN
p969
sbag5
(g6
g7
(lp970
g5
(g6
g7
(lp971
g5
(g6
g7
(lp972
Vnoun
p973
atp974
Rp975
(dp976
g17
VNN
p977
sbag5
(g6
g7
(lp978
Vconcreteness
p979
atp980
Rp981
(dp982
g17
VNNS
p983
sbatp984
Rp985
(dp986
g17
VNP
p987
sbag5
(g6
g7
(lp988
Vand
p989
atp990
Rp991
(dp992
g17
VCC
p993
sbag5
(g6
g7
(lp994
g5
(g6
g7
(lp995
Vadjective
p996
atp997
Rp998
(dp999
g17
VNN
p1000
sbag5
(g6
g7
(lp1001
Vsubjectivity
p1002
atp1003
Rp1004
(dp1005
g17
VNN
p1006
sbatp1007
Rp1008
(dp1009
g17
VNP
p1010
sbatp1011
Rp1012
(dp1013
g17
VNP
p1014
sbatp1015
Rp1016
(dp1017
g17
VPP
p1018
sbatp1019
Rp1020
(dp1021
g17
VNP
p1022
sbag5
(g6
g7
(lp1023
g5
(g6
g7
(lp1024
Von
p1025
atp1026
Rp1027
(dp1028
g17
VIN
p1029
sbag5
(g6
g7
(lp1030
g5
(g6
g7
(lp1031
g5
(g6
g7
(lp1032
Vmeaning
p1033
atp1034
Rp1035
(dp1036
g17
VVBG
p1037
sbag5
(g6
g7
(lp1038
g5
(g6
g7
(lp1039
Vcombination
p1040
atp1041
Rp1042
(dp1043
g17
VNN
p1044
sbatp1045
Rp1046
(dp1047
g17
VNP
p1048
sbatp1049
Rp1050
(dp1051
g17
VVP
p1052
sbatp1053
Rp1054
(dp1055
g17
g156
sbatp1056
Rp1057
(dp1058
g17
VPP
p1059
sbag5
(g6
g7
(lp1060
g241
atp1061
Rp1062
(dp1063
g17
g241
sbag5
(g6
g7
(lp1064
g5
(g6
g7
(lp1065
g5
(g6
g7
(lp1066
Villustrating
p1067
atp1068
Rp1069
(dp1070
g17
VVBG
p1071
sbag5
(g6
g7
(lp1072
g5
(g6
g7
(lp1073
g5
(g6
g7
(lp1074
Vhow
p1075
atp1076
Rp1077
(dp1078
g17
VWRB
p1079
sbatp1080
Rp1081
(dp1082
g17
VWHADVP
p1083
sbag5
(g6
g7
(lp1084
g5
(g6
g7
(lp1085
g5
(g6
g7
(lp1086
g5
(g6
g7
(lp1087
Vthe
p1088
atp1089
Rp1090
(dp1091
g17
VDT
p1092
sbag5
(g6
g7
(lp1093
Vinteraction
p1094
atp1095
Rp1096
(dp1097
g17
VNN
p1098
sbatp1099
Rp1100
(dp1101
g17
VNP
p1102
sbag5
(g6
g7
(lp1103
g5
(g6
g7
(lp1104
Vof
p1105
atp1106
Rp1107
(dp1108
g17
VIN
p1109
sbag5
(g6
g7
(lp1110
g5
(g6
g7
(lp1111
Vthese
p1112
atp1113
Rp1114
(dp1115
g17
VDT
p1116
sbag5
(g6
g7
(lp1117
Vdimensions
p1118
atp1119
Rp1120
(dp1121
g17
VNNS
p1122
sbatp1123
Rp1124
(dp1125
g17
VNP
p1126
sbatp1127
Rp1128
(dp1129
g17
VPP
p1130
sbatp1131
Rp1132
(dp1133
g17
VNP
p1134
sbag5
(g6
g7
(lp1135
g5
(g6
g7
(lp1136
Venables
p1137
atp1138
Rp1139
(dp1140
g17
VVBZ
p1141
sbag5
(g6
g7
(lp1142
g5
(g6
g7
(lp1143
g5
(g6
g7
(lp1144
Vthe
p1145
atp1146
Rp1147
(dp1148
g17
VDT
p1149
sbag5
(g6
g7
(lp1150
g5
(g6
g7
(lp1151
Vaccurate
p1152
atp1153
Rp1154
(dp1155
g17
VJJ
p1156
sbatp1157
Rp1158
(dp1159
g17
VADJP
p1160
sbag5
(g6
g7
(lp1161
Vclassification
p1162
atp1163
Rp1164
(dp1165
g17
VNN
p1166
sbatp1167
Rp1168
(dp1169
g17
VNP
p1170
sbag5
(g6
g7
(lp1171
g5
(g6
g7
(lp1172
Vof
p1173
atp1174
Rp1175
(dp1176
g17
VIN
p1177
sbag5
(g6
g7
(lp1178
g5
(g6
g7
(lp1179
Vadjective-noun
p1180
atp1181
Rp1182
(dp1183
g17
VJJ
p1184
sbag5
(g6
g7
(lp1185
Vpairs
p1186
atp1187
Rp1188
(dp1189
g17
VNNS
p1190
sbatp1191
Rp1192
(dp1193
g17
VNP
p1194
sbatp1195
Rp1196
(dp1197
g17
VPP
p1198
sbatp1199
Rp1200
(dp1201
g17
VNP
p1202
sbag5
(g6
g7
(lp1203
g5
(g6
g7
(lp1204
Vaccording
p1205
atp1206
Rp1207
(dp1208
g17
VVBG
p1209
sbag5
(g6
g7
(lp1210
g5
(g6
g7
(lp1211
Vto
p1212
atp1213
Rp1214
(dp1215
g17
VTO
p1216
sbag5
(g6
g7
(lp1217
g5
(g6
g7
(lp1218
Vtheir
p1219
atp1220
Rp1221
(dp1222
g17
VPRP$
p1223
sbag5
(g6
g7
(lp1224
Vsemantics
p1225
atp1226
Rp1227
(dp1228
g17
VNNS
p1229
sbatp1230
Rp1231
(dp1232
g17
VNP
p1233
sbatp1234
Rp1235
(dp1236
g17
VPP
p1237
sbatp1238
Rp1239
(dp1240
g17
VPP
p1241
sbatp1242
Rp1243
(dp1244
g17
VVP
p1245
sbatp1246
Rp1247
(dp1248
g17
g156
sbatp1249
Rp1250
(dp1251
g17
VSBAR
p1252
sbatp1253
Rp1254
(dp1255
g17
VVP
p1256
sbatp1257
Rp1258
(dp1259
g17
g156
sbatp1260
Rp1261
(dp1262
g17
VVP
p1263
sbatp1264
Rp1265
(dp1266
g17
g156
sbatp1267
Rp1268
(dp1269
g17
VROOT
p1270
sbasg172
(icmyPackage
CorE
p1271
(dp1272
g175
(lp1273
(I0
I33
tp1274
a(I0
I34
tp1275
asg179
g1231
sbsg180
(icmyPackage
CorE
p1276
(dp1277
g175
(lp1278
(I0
I0
tp1279
a(I0
I30
tp1280
asg179
g5
(g6
g7
(lp1281
g920
ag925
ag935
ag942
ag1020
ag1057
ag1062
ag1069
ag1081
ag1132
ag1139
ag1200
atp1282
Rp1283
(dp1284
g17
g190
sbsbsg191
g192
sg214
(lp1285
(isxpPackage
sxpSent
p1286
(dp1287
g218
(lp1288
I3
asg220
VIn addition, we analyse the effect of noun concreteness and adjective subjectivity on meaning combination, illustrating how the interaction of these dimensions enables the accurate classification of adjective-noun pairs according to their semantics
p1289
sg222
I2
sg206
I20
sg223
I5
sbasba(icmyPackage
CELink
p1290
(dp1291
g3
(lp1292
g5
(g6
g7
(lp1293
g5
(g6
g7
(lp1294
g5
(g6
g7
(lp1295
g5
(g6
g7
(lp1296
VWe
p1297
atp1298
Rp1299
(dp1300
g17
VPRP
p1301
sbatp1302
Rp1303
(dp1304
g17
VNP
p1305
sbag5
(g6
g7
(lp1306
g5
(g6
g7
(lp1307
Vconclude
p1308
atp1309
Rp1310
(dp1311
g17
VVBP
p1312
sbag5
(g6
g7
(lp1313
g5
(g6
g7
(lp1314
Vby
p1315
atp1316
Rp1317
(dp1318
g17
VIN
p1319
sbag5
(g6
g7
(lp1320
g5
(g6
g7
(lp1321
g5
(g6
g7
(lp1322
Vdiscussing
p1323
atp1324
Rp1325
(dp1326
g17
VVBG
p1327
sbag5
(g6
g7
(lp1328
g5
(g6
g7
(lp1329
g5
(g6
g7
(lp1330
Vother
p1331
atp1332
Rp1333
(dp1334
g17
VJJ
p1335
sbag5
(g6
g7
(lp1336
Vpotential
p1337
atp1338
Rp1339
(dp1340
g17
VJJ
p1341
sbag5
(g6
g7
(lp1342
Vapplications
p1343
atp1344
Rp1345
(dp1346
g17
VNNS
p1347
sbatp1348
Rp1349
(dp1350
g17
VNP
p1351
sbag5
(g6
g7
(lp1352
g5
(g6
g7
(lp1353
Vof
p1354
atp1355
Rp1356
(dp1357
g17
VIN
p1358
sbag5
(g6
g7
(lp1359
g5
(g6
g7
(lp1360
Vconcreteness
p1361
atp1362
Rp1363
(dp1364
g17
VNNS
p1365
sbag5
(g6
g7
(lp1366
Vand
p1367
atp1368
Rp1369
(dp1370
g17
VCC
p1371
sbag5
(g6
g7
(lp1372
Vsubjectivity
p1373
atp1374
Rp1375
(dp1376
g17
VNN
p1377
sbatp1378
Rp1379
(dp1380
g17
VNP
p1381
sbatp1382
Rp1383
(dp1384
g17
VPP
p1385
sbatp1386
Rp1387
(dp1388
g17
VNP
p1389
sbag5
(g6
g7
(lp1390
g5
(g6
g7
(lp1391
Vto
p1392
atp1393
Rp1394
(dp1395
g17
VTO
p1396
sbag5
(g6
g7
(lp1397
g5
(g6
g7
(lp1398
VNLP
p1399
atp1400
Rp1401
(dp1402
g17
VNNP
p1403
sbatp1404
Rp1405
(dp1406
g17
VNP
p1407
sbatp1408
Rp1409
(dp1410
g17
VPP
p1411
sbatp1412
Rp1413
(dp1414
g17
VVP
p1415
sbatp1416
Rp1417
(dp1418
g17
g156
sbatp1419
Rp1420
(dp1421
g17
VPP
p1422
sbatp1423
Rp1424
(dp1425
g17
VVP
p1426
sbatp1427
Rp1428
(dp1429
g17
g156
sbatp1430
Rp1431
(dp1432
g17
VROOT
p1433
sbasg172
(icmyPackage
CorE
p1434
(dp1435
g175
(lp1436
(I0
I3
tp1437
a(I0
I12
tp1438
asg179
g1417
sbsg180
(icmyPackage
CorE
p1439
(dp1440
g175
(lp1441
(I0
I0
tp1442
a(I0
I1
tp1443
asg179
g5
(g6
g7
(lp1444
g1303
ag1310
atp1445
Rp1446
(dp1447
g17
g190
sbsbsg191
(icmyPackage
pattern
p1448
(dp1449
g194
I0
sg195
I0
sg196
(lp1450
(lp1451
(lp1452
S'by'
p1453
aS'through'
p1454
aaasg201
(lp1455
I2
aI1
aI1
asg203
(lp1456
S'The similar relation can be detected by analyzing the contents of nodes based on such approaches as the Latent Semantic Analysis (LSA) and the Vector Space Model (VSM)'
p1457
asg206
I68
sg207
(lp1458
(lp1459
S'&R@Complete@'
p1460
aa(lp1461
S'&V-ing@C@'
p1462
aasbsg214
(lp1463
(isxpPackage
sxpSent
p1464
(dp1465
g218
(lp1466
I4
asg220
VWe conclude by discussing other potential applications of concreteness and subjectivity to NLP
p1467
sg222
I2
sg206
I21
sg223
I5
sbasba(icmyPackage
CELink
p1468
(dp1469
g3
(lp1470
g5
(g6
g7
(lp1471
g5
(g6
g7
(lp1472
g5
(g6
g7
(lp1473
g5
(g6
g7
(lp1474
g5
(g6
g7
(lp1475
g591
atp1476
Rp1477
(dp1478
g17
VDT
p1479
sbag5
(g6
g7
(lp1480
g5
(g6
g7
(lp1481
Vlarge
p1482
atp1483
Rp1484
(dp1485
g17
VJJ
p1486
sbag5
(g6
g7
(lp1487
Vand
p1488
atp1489
Rp1490
(dp1491
g17
VCC
p1492
sbag5
(g6
g7
(lp1493
Vgrowing
p1494
atp1495
Rp1496
(dp1497
g17
VVBG
p1498
sbatp1499
Rp1500
(dp1501
g17
VADJP
p1502
sbag5
(g6
g7
(lp1503
Vbody
p1504
atp1505
Rp1506
(dp1507
g17
VNN
p1508
sbatp1509
Rp1510
(dp1511
g17
VNP
p1512
sbag5
(g6
g7
(lp1513
g5
(g6
g7
(lp1514
Vof
p1515
atp1516
Rp1517
(dp1518
g17
VIN
p1519
sbag5
(g6
g7
(lp1520
g5
(g6
g7
(lp1521
Vempirical
p1522
atp1523
Rp1524
(dp1525
g17
VJJ
p1526
sbag5
(g6
g7
(lp1527
Vevidence
p1528
atp1529
Rp1530
(dp1531
g17
VNN
p1532
sbatp1533
Rp1534
(dp1535
g17
VNP
p1536
sbatp1537
Rp1538
(dp1539
g17
VPP
p1540
sbatp1541
Rp1542
(dp1543
g17
VNP
p1544
sbag5
(g6
g7
(lp1545
g5
(g6
g7
(lp1546
Vindicates
p1547
atp1548
Rp1549
(dp1550
g17
VVBZ
p1551
sbag5
(g6
g7
(lp1552
g5
(g6
g7
(lp1553
g5
(g6
g7
(lp1554
Vclear
p1555
atp1556
Rp1557
(dp1558
g17
VJJ
p1559
sbag5
(g6
g7
(lp1560
Vdifferences
p1561
atp1562
Rp1563
(dp1564
g17
VNNS
p1565
sbatp1566
Rp1567
(dp1568
g17
VNP
p1569
sbag5
(g6
g7
(lp1570
g5
(g6
g7
(lp1571
Vbetween
p1572
atp1573
Rp1574
(dp1575
g17
VIN
p1576
sbag5
(g6
g7
(lp1577
g5
(g6
g7
(lp1578
g5
(g6
g7
(lp1579
Vconcrete
p1580
atp1581
Rp1582
(dp1583
g17
VJJ
p1584
sbag5
(g6
g7
(lp1585
Vconcepts
p1586
atp1587
Rp1588
(dp1589
g17
VNNS
p1590
sbatp1591
Rp1592
(dp1593
g17
VNP
p1594
sbag5
(g6
g7
(lp1595
g241
atp1596
Rp1597
(dp1598
g17
g241
sbag5
(g6
g7
(lp1599
g5
(g6
g7
(lp1600
Vsuch
p1601
atp1602
Rp1603
(dp1604
g17
VJJ
p1605
sbag5
(g6
g7
(lp1606
Vas
p1607
atp1608
Rp1609
(dp1610
g17
VIN
p1611
sbag5
(g6
g7
(lp1612
g5
(g6
g7
(lp1613
g5
(g6
g7
(lp1614
Vdonut
p1615
atp1616
Rp1617
(dp1618
g17
VNN
p1619
sbag5
(g6
g7
(lp1620
Vor
p1621
atp1622
Rp1623
(dp1624
g17
VCC
p1625
sbag5
(g6
g7
(lp1626
Vhotdog
p1627
atp1628
Rp1629
(dp1630
g17
VNN
p1631
sbatp1632
Rp1633
(dp1634
g17
VNP
p1635
sbag5
(g6
g7
(lp1636
Vand
p1637
atp1638
Rp1639
(dp1640
g17
VCC
p1641
sbag5
(g6
g7
(lp1642
g5
(g6
g7
(lp1643
Vabstract
p1644
atp1645
Rp1646
(dp1647
g17
VJJ
p1648
sbag5
(g6
g7
(lp1649
Vconcepts
p1650
atp1651
Rp1652
(dp1653
g17
VNNS
p1654
sbatp1655
Rp1656
(dp1657
g17
VNP
p1658
sbatp1659
Rp1660
(dp1661
g17
VNP
p1662
sbatp1663
Rp1664
(dp1665
g17
VPP
p1666
sbag5
(g6
g7
(lp1667
g241
atp1668
Rp1669
(dp1670
g17
g241
sbatp1671
Rp1672
(dp1673
g17
VNP
p1674
sbatp1675
Rp1676
(dp1677
g17
VPP
p1678
sbag5
(g6
g7
(lp1679
g5
(g6
g7
(lp1680
Vsuch
p1681
atp1682
Rp1683
(dp1684
g17
VJJ
p1685
sbag5
(g6
g7
(lp1686
Vas
p1687
atp1688
Rp1689
(dp1690
g17
VIN
p1691
sbag5
(g6
g7
(lp1692
g5
(g6
g7
(lp1693
Vguilt
p1694
atp1695
Rp1696
(dp1697
g17
VNN
p1698
sbag5
(g6
g7
(lp1699
Vor
p1700
atp1701
Rp1702
(dp1703
g17
VCC
p1704
sbag5
(g6
g7
(lp1705
Vobesity
p1706
atp1707
Rp1708
(dp1709
g17
VNN
p1710
sbatp1711
Rp1712
(dp1713
g17
VNP
p1714
sbatp1715
Rp1716
(dp1717
g17
VPP
p1718
sbatp1719
Rp1720
(dp1721
g17
VNP
p1722
sbatp1723
Rp1724
(dp1725
g17
VVP
p1726
sbatp1727
Rp1728
(dp1729
g17
g156
sbatp1730
Rp1731
(dp1732
g17
VROOT
p1733
sbasg172
(icmyPackage
CorE
p1734
(dp1735
g175
(lp1736
(I0
I0
tp1737
a(I0
I7
tp1738
asg179
g1542
sbsg180
(icmyPackage
CorE
p1739
(dp1740
g175
(lp1741
(I0
I9
tp1742
a(I0
I28
tp1743
asg179
g1720
sbsg191
(icmyPackage
pattern
p1744
(dp1745
g194
I0
sg195
I0
sg196
(lp1746
(lp1747
(lp1748
S'indicate'
p1749
aS'indicates'
p1750
aS'indicated'
p1751
aS'realize'
p1752
aS'realizes'
p1753
aS'realized'
p1754
aS'ensure'
p1755
aS'ensures'
p1756
aS'ensured'
p1757
aS'imply'
p1758
aS'implies'
p1759
aS'implied'
p1760
aaasg201
(lp1761
I4
aI1
aI1
asg203
(lp1762
S'The basic characteristics and principles of language use and understanding indicate the following dimensions for evaluating a summarization'
p1763
asg206
I88
sg207
(lp1764
(lp1765
S'&NP@C@'
p1766
aS'(&Clause@C@)'
p1767
aa(lp1768
S'&NP@R@'
p1769
aS'(&Clause@R@)'
p1770
aasbsg214
(lp1771
(isxpPackage
sxpSent
p1772
(dp1773
g218
(lp1774
I5
asg220
VA large and growing body of empirical evidence indicates clear differences between concrete concepts, such as donut or hotdog and abstract concepts, such as guilt or obesity
p1775
sg222
I3
sg206
I22
sg223
I6
sbasba(icmyPackage
CELink
p1776
(dp1777
g3
(lp1778
g5
(g6
g7
(lp1779
g5
(g6
g7
(lp1780
g5
(g6
g7
(lp1781
g5
(g6
g7
(lp1782
g5
(g6
g7
(lp1783
VTogether
p1784
atp1785
Rp1786
(dp1787
g17
VRB
p1788
sbatp1789
Rp1790
(dp1791
g17
VADVP
p1792
sbag5
(g6
g7
(lp1793
Vwith
p1794
atp1795
Rp1796
(dp1797
g17
VIN
p1798
sbag5
(g6
g7
(lp1799
g5
(g6
g7
(lp1800
g5
(g6
g7
(lp1801
Vthe
p1802
atp1803
Rp1804
(dp1805
g17
VDT
p1806
sbag5
(g6
g7
(lp1807
Vpractical
p1808
atp1809
Rp1810
(dp1811
g17
VJJ
p1812
sbag5
(g6
g7
(lp1813
Vapplications
p1814
atp1815
Rp1816
(dp1817
g17
VNNS
p1818
sbatp1819
Rp1820
(dp1821
g17
VNP
p1822
sbag5
(g6
g7
(lp1823
g5
(g6
g7
(lp1824
Voutlined
p1825
atp1826
Rp1827
(dp1828
g17
VVBN
p1829
sbag5
(g6
g7
(lp1830
g5
(g6
g7
(lp1831
Vin
p1832
atp1833
Rp1834
(dp1835
g17
VIN
p1836
sbag5
(g6
g7
(lp1837
g5
(g6
g7
(lp1838
VSection
p1839
atp1840
Rp1841
(dp1842
g17
VNNP
p1843
sbag5
(g6
g7
(lp1844
V1
p1845
atp1846
Rp1847
(dp1848
g17
VCD
p1849
sbatp1850
Rp1851
(dp1852
g17
VNP
p1853
sbatp1854
Rp1855
(dp1856
g17
VPP
p1857
sbatp1858
Rp1859
(dp1860
g17
VVP
p1861
sbatp1862
Rp1863
(dp1864
g17
VNP
p1865
sbatp1866
Rp1867
(dp1868
g17
VPP
p1869
sbag5
(g6
g7
(lp1870
g241
atp1871
Rp1872
(dp1873
g17
g241
sbag5
(g6
g7
(lp1874
g5
(g6
g7
(lp1875
Vthese
p1876
atp1877
Rp1878
(dp1879
g17
VDT
p1880
sbag5
(g6
g7
(lp1881
Vfacts
p1882
atp1883
Rp1884
(dp1885
g17
VNNS
p1886
sbatp1887
Rp1888
(dp1889
g17
VNP
p1890
sbag5
(g6
g7
(lp1891
g5
(g6
g7
(lp1892
Vindicate
p1893
atp1894
Rp1895
(dp1896
g17
VVBP
p1897
sbag5
(g6
g7
(lp1898
g5
(g6
g7
(lp1899
g5
(g6
g7
(lp1900
Vthe
p1901
atp1902
Rp1903
(dp1904
g17
VDT
p1905
sbag5
(g6
g7
(lp1906
Vpotential
p1907
atp1908
Rp1909
(dp1910
g17
VJJ
p1911
sbag5
(g6
g7
(lp1912
Vvalue
p1913
atp1914
Rp1915
(dp1916
g17
VNN
p1917
sbatp1918
Rp1919
(dp1920
g17
VNP
p1921
sbag5
(g6
g7
(lp1922
g5
(g6
g7
(lp1923
Vof
p1924
atp1925
Rp1926
(dp1927
g17
VIN
p1928
sbag5
(g6
g7
(lp1929
g5
(g6
g7
(lp1930
g5
(g6
g7
(lp1931
Vconcreteness
p1932
atp1933
Rp1934
(dp1935
g17
VNNS
p1936
sbatp1937
Rp1938
(dp1939
g17
VNP
p1940
sbag5
(g6
g7
(lp1941
g5
(g6
g7
(lp1942
Vfor
p1943
atp1944
Rp1945
(dp1946
g17
VIN
p1947
sbag5
(g6
g7
(lp1948
g5
(g6
g7
(lp1949
g5
(g6
g7
(lp1950
Vmodels
p1951
atp1952
Rp1953
(dp1954
g17
VNNS
p1955
sbatp1956
Rp1957
(dp1958
g17
VNP
p1959
sbag5
(g6
g7
(lp1960
g5
(g6
g7
(lp1961
Vaiming
p1962
atp1963
Rp1964
(dp1965
g17
VVBG
p1966
sbag5
(g6
g7
(lp1967
g5
(g6
g7
(lp1968
g5
(g6
g7
(lp1969
Vto
p1970
atp1971
Rp1972
(dp1973
g17
VTO
p1974
sbag5
(g6
g7
(lp1975
g5
(g6
g7
(lp1976
Vreplicate
p1977
atp1978
Rp1979
(dp1980
g17
VVB
p1981
sbag5
(g6
g7
(lp1982
g5
(g6
g7
(lp1983
g5
(g6
g7
(lp1984
Vhuman
p1985
atp1986
Rp1987
(dp1988
g17
VJJ
p1989
sbag5
(g6
g7
(lp1990
Vperformance
p1991
atp1992
Rp1993
(dp1994
g17
VNN
p1995
sbatp1996
Rp1997
(dp1998
g17
VNP
p1999
sbag5
(g6
g7
(lp2000
g5
(g6
g7
(lp2001
Vin
p2002
atp2003
Rp2004
(dp2005
g17
VIN
p2006
sbag5
(g6
g7
(lp2007
g5
(g6
g7
(lp2008
Vlanguage
p2009
atp2010
Rp2011
(dp2012
g17
VNN
p2013
sbatp2014
Rp2015
(dp2016
g17
VNP
p2017
sbatp2018
Rp2019
(dp2020
g17
VPP
p2021
sbatp2022
Rp2023
(dp2024
g17
VNP
p2025
sbag5
(g6
g7
(lp2026
g5
(g6
g7
(lp2027
Vprocessing
p2028
atp2029
Rp2030
(dp2031
g17
VNN
p2032
sbag5
(g6
g7
(lp2033
Vtasks
p2034
atp2035
Rp2036
(dp2037
g17
VNNS
p2038
sbatp2039
Rp2040
(dp2041
g17
VNP
p2042
sbatp2043
Rp2044
(dp2045
g17
VVP
p2046
sbatp2047
Rp2048
(dp2049
g17
VVP
p2050
sbatp2051
Rp2052
(dp2053
g17
g156
sbatp2054
Rp2055
(dp2056
g17
VVP
p2057
sbatp2058
Rp2059
(dp2060
g17
VNP
p2061
sbatp2062
Rp2063
(dp2064
g17
VPP
p2065
sbatp2066
Rp2067
(dp2068
g17
VNP
p2069
sbatp2070
Rp2071
(dp2072
g17
VPP
p2073
sbatp2074
Rp2075
(dp2076
g17
VNP
p2077
sbatp2078
Rp2079
(dp2080
g17
VVP
p2081
sbatp2082
Rp2083
(dp2084
g17
g156
sbatp2085
Rp2086
(dp2087
g17
VROOT
p2088
sbag5
(g6
g7
(lp2089
g5
(g6
g7
(lp2090
g5
(g6
g7
(lp2091
g5
(g6
g7
(lp2092
VWhile
p2093
atp2094
Rp2095
(dp2096
g17
VIN
p2097
sbag5
(g6
g7
(lp2098
g5
(g6
g7
(lp2099
g5
(g6
g7
(lp2100
Vautomatic
p2101
atp2102
Rp2103
(dp2104
g17
VJJ
p2105
sbag5
(g6
g7
(lp2106
Vmethods
p2107
atp2108
Rp2109
(dp2110
g17
VNNS
p2111
sbatp2112
Rp2113
(dp2114
g17
VNP
p2115
sbag5
(g6
g7
(lp2116
g5
(g6
g7
(lp2117
Vhave
p2118
atp2119
Rp2120
(dp2121
g17
VVBP
p2122
sbag5
(g6
g7
(lp2123
g5
(g6
g7
(lp2124
Vbeen
p2125
atp2126
Rp2127
(dp2128
g17
VVBN
p2129
sbag5
(g6
g7
(lp2130
g5
(g6
g7
(lp2131
Vproposed
p2132
atp2133
Rp2134
(dp2135
g17
VVBN
p2136
sbag5
(g6
g7
(lp2137
g5
(g6
g7
(lp2138
Vfor
p2139
atp2140
Rp2141
(dp2142
g17
VIN
p2143
sbag5
(g6
g7
(lp2144
g5
(g6
g7
(lp2145
g5
(g6
g7
(lp2146
Vthe
p2147
atp2148
Rp2149
(dp2150
g17
VDT
p2151
sbag5
(g6
g7
(lp2152
Vquantification
p2153
atp2154
Rp2155
(dp2156
g17
VNN
p2157
sbatp2158
Rp2159
(dp2160
g17
VNP
p2161
sbag5
(g6
g7
(lp2162
g5
(g6
g7
(lp2163
Vof
p2164
atp2165
Rp2166
(dp2167
g17
VIN
p2168
sbag5
(g6
g7
(lp2169
g5
(g6
g7
(lp2170
Vlexical
p2171
atp2172
Rp2173
(dp2174
g17
VJJ
p2175
sbag5
(g6
g7
(lp2176
Vconcreteness
p2177
atp2178
Rp2179
(dp2180
g17
VNNS
p2181
sbatp2182
Rp2183
(dp2184
g17
VNP
p2185
sbatp2186
Rp2187
(dp2188
g17
VPP
p2189
sbatp2190
Rp2191
(dp2192
g17
VNP
p2193
sbatp2194
Rp2195
(dp2196
g17
VPP
p2197
sbatp2198
Rp2199
(dp2200
g17
VVP
p2201
sbatp2202
Rp2203
(dp2204
g17
VVP
p2205
sbatp2206
Rp2207
(dp2208
g17
VVP
p2209
sbatp2210
Rp2211
(dp2212
g17
g156
sbatp2213
Rp2214
(dp2215
g17
VSBAR
p2216
sbag5
(g6
g7
(lp2217
g241
atp2218
Rp2219
(dp2220
g17
g241
sbag5
(g6
g7
(lp2221
g5
(g6
g7
(lp2222
Vthey
p2223
atp2224
Rp2225
(dp2226
g17
VPRP
p2227
sbatp2228
Rp2229
(dp2230
g17
VNP
p2231
sbag5
(g6
g7
(lp2232
g5
(g6
g7
(lp2233
g5
(g6
g7
(lp2234
Veach
p2235
atp2236
Rp2237
(dp2238
g17
VDT
p2239
sbatp2240
Rp2241
(dp2242
g17
VADVP
p2243
sbag5
(g6
g7
(lp2244
Vrely
p2245
atp2246
Rp2247
(dp2248
g17
VVBP
p2249
sbag5
(g6
g7
(lp2250
g5
(g6
g7
(lp2251
Von
p2252
atp2253
Rp2254
(dp2255
g17
VRP
p2256
sbatp2257
Rp2258
(dp2259
g17
VPRT
p2260
sbag5
(g6
g7
(lp2261
g5
(g6
g7
(lp2262
g5
(g6
g7
(lp2263
g5
(g6
g7
(lp2264
Vdictionaries
p2265
atp2266
Rp2267
(dp2268
g17
VJJ
p2269
sbag5
(g6
g7
(lp2270
Vor
p2271
atp2272
Rp2273
(dp2274
g17
VCC
p2275
sbag5
(g6
g7
(lp2276
Vsimilar
p2277
atp2278
Rp2279
(dp2280
g17
VJJ
p2281
sbatp2282
Rp2283
(dp2284
g17
VADJP
p2285
sbag5
(g6
g7
(lp2286
Vhand-coded
p2287
atp2288
Rp2289
(dp2290
g17
VJJ
p2291
sbag5
(g6
g7
(lp2292
Vresources
p2293
atp2294
Rp2295
(dp2296
g17
VNNS
p2297
sbatp2298
Rp2299
(dp2300
g17
VNP
p2301
sbag5
(g6
g7
(lp2302
g5
(g6
g7
(lp2303
g5
(g6
g7
(lp2304
V-LSB-
p2305
atp2306
Rp2307
(dp2308
g17
VNNP
p2309
sbag5
(g6
g7
(lp2310
V15
p2311
atp2312
Rp2313
(dp2314
g17
VCD
p2315
sbag5
(g6
g7
(lp2316
g241
atp2317
Rp2318
(dp2319
g17
g241
sbag5
(g6
g7
(lp2320
V27
p2321
atp2322
Rp2323
(dp2324
g17
VCD
p2325
sbatp2326
Rp2327
(dp2328
g17
VNP
p2329
sbag5
(g6
g7
(lp2330
V-RSB-
p2331
atp2332
Rp2333
(dp2334
g17
VJJ
p2335
sbatp2336
Rp2337
(dp2338
g17
VADJP
p2339
sbatp2340
Rp2341
(dp2342
g17
VNP
p2343
sbatp2344
Rp2345
(dp2346
g17
VVP
p2347
sbatp2348
Rp2349
(dp2350
g17
g156
sbatp2351
Rp2352
(dp2353
g17
VROOT
p2354
sbasg172
(icmyPackage
CorE
p2355
(dp2356
g175
(lp2357
(I0
I3
tp2358
a(I0
I8
tp2359
asg179
g5
(g6
g7
(lp2360
g1810
ag1816
ag1859
atp2361
Rp2362
(dp2363
g17
g190
sbsbsg180
(icmyPackage
CorE
p2364
(dp2365
g175
(lp2366
(I0
I13
tp2367
a(I1
I23
tp2368
asg179
g5
(g6
g7
(lp2369
g2075
ag2214
ag2219
ag2229
ag2241
ag2247
ag2258
ag2299
ag2307
ag2313
atp2370
Rp2371
(dp2372
g17
g190
sbsbsg191
(icmyPackage
pattern
p2373
(dp2374
g194
I0
sg195
I1
sg196
(lp2375
(lp2376
(lp2377
S'imply'
p2378
aS'implies'
p2379
aS'implied'
p2380
aS'indicate'
p2381
aS'indicates'
p2382
aS'indicated'
p2383
aaasg201
(lp2384
I4
aI1
aI1
asg203
(lp2385
S'The epistemology has been emphasized in the effort to solve the semantics problem. This implies that the current approaches to the semantic web, machine translation, and text understanding through processing symbols in the cyber space is questionable in essence.'
p2386
asg206
I93
sg207
(lp2387
(lp2388
S'&C'
p2389
aS'(,/./;/--)'
p2390
aS'&this'
p2391
aS'(&adj)'
p2392
aS'(&N)'
p2393
aS'(&CAN/have/has/had)'
p2394
aS'(&ADV)'
p2395
aa(lp2396
S'(that)'
p2397
aS'&R@Complete@'
p2398
aasbsg214
(lp2399
(isxpPackage
sxpSent
p2400
(dp2401
g218
(lp2402
I6
asg220
VTogether with the practical applications outlined in Section 1, these facts indicate the potential value of concreteness for models aiming to replicate human performance in language processing tasks
p2403
sg222
I3
sg206
I25
sg223
I6
sba(isxpPackage
sxpSent
p2404
(dp2405
g218
(lp2406
I6
asg220
VWhile automatic methods have been proposed for the quantification of lexical concreteness, they each rely on dictionaries or similar hand-coded resources [ 15 , 27 ]
p2407
sg222
I3
sg206
I26
sg223
I7
sbasba(icmyPackage
CELink
p2408
(dp2409
g3
(lp2410
g5
(g6
g7
(lp2411
g5
(g6
g7
(lp2412
g5
(g6
g7
(lp2413
g5
(g6
g7
(lp2414
VFor
p2415
atp2416
Rp2417
(dp2418
g17
VIN
p2419
sbag5
(g6
g7
(lp2420
g5
(g6
g7
(lp2421
Vexample
p2422
atp2423
Rp2424
(dp2425
g17
VNN
p2426
sbatp2427
Rp2428
(dp2429
g17
VNP
p2430
sbatp2431
Rp2432
(dp2433
g17
VPP
p2434
sbag5
(g6
g7
(lp2435
g241
atp2436
Rp2437
(dp2438
g17
g241
sbag5
(g6
g7
(lp2439
g5
(g6
g7
(lp2440
g5
(g6
g7
(lp2441
Vthe
p2442
atp2443
Rp2444
(dp2445
g17
VDT
p2446
sbag5
(g6
g7
(lp2447
Vutterance
p2448
atp2449
Rp2450
(dp2451
g17
VNN
p2452
sbatp2453
Rp2454
(dp2455
g17
VNP
p2456
sbag5
(g6
g7
(lp2457
g5
(g6
g7
(lp2458
g5
(g6
g7
(lp2459
g5
(g6
g7
(lp2460
Vhe
p2461
atp2462
Rp2463
(dp2464
g17
VPRP
p2465
sbatp2466
Rp2467
(dp2468
g17
VNP
p2469
sbag5
(g6
g7
(lp2470
g5
(g6
g7
(lp2471
Vsits
p2472
atp2473
Rp2474
(dp2475
g17
VVBZ
p2476
sbag5
(g6
g7
(lp2477
g5
(g6
g7
(lp2478
Vacross
p2479
atp2480
Rp2481
(dp2482
g17
VIN
p2483
sbag5
(g6
g7
(lp2484
g5
(g6
g7
(lp2485
Vthe
p2486
atp2487
Rp2488
(dp2489
g17
VDT
p2490
sbag5
(g6
g7
(lp2491
Vtable
p2492
atp2493
Rp2494
(dp2495
g17
VNN
p2496
sbatp2497
Rp2498
(dp2499
g17
VNP
p2500
sbatp2501
Rp2502
(dp2503
g17
VPP
p2504
sbatp2505
Rp2506
(dp2507
g17
VVP
p2508
sbatp2509
Rp2510
(dp2511
g17
g156
sbatp2512
Rp2513
(dp2514
g17
VSBAR
p2515
sbatp2516
Rp2517
(dp2518
g17
VNP
p2519
sbag5
(g6
g7
(lp2520
g5
(g6
g7
(lp2521
Vis
p2522
atp2523
Rp2524
(dp2525
g17
VVBZ
p2526
sbag5
(g6
g7
(lp2527
g5
(g6
g7
(lp2528
Vmore
p2529
atp2530
Rp2531
(dp2532
g17
VRBR
p2533
sbag5
(g6
g7
(lp2534
Vsubjective
p2535
atp2536
Rp2537
(dp2538
g17
VJJ
p2539
sbatp2540
Rp2541
(dp2542
g17
VADJP
p2543
sbag5
(g6
g7
(lp2544
g5
(g6
g7
(lp2545
Vthan
p2546
atp2547
Rp2548
(dp2549
g17
VIN
p2550
sbag5
(g6
g7
(lp2551
g5
(g6
g7
(lp2552
g5
(g6
g7
(lp2553
Vhe
p2554
atp2555
Rp2556
(dp2557
g17
VPRP
p2558
sbatp2559
Rp2560
(dp2561
g17
VNP
p2562
sbag5
(g6
g7
(lp2563
g5
(g6
g7
(lp2564
Vsits
p2565
atp2566
Rp2567
(dp2568
g17
VVBZ
p2569
sbag5
(g6
g7
(lp2570
g5
(g6
g7
(lp2571
Vopposite
p2572
atp2573
Rp2574
(dp2575
g17
VIN
p2576
sbag5
(g6
g7
(lp2577
g5
(g6
g7
(lp2578
VSam
p2579
atp2580
Rp2581
(dp2582
g17
VNNP
p2583
sbatp2584
Rp2585
(dp2586
g17
VNP
p2587
sbatp2588
Rp2589
(dp2590
g17
VPP
p2591
sbag5
(g6
g7
(lp2592
g5
(g6
g7
(lp2593
Vas
p2594
atp2595
Rp2596
(dp2597
g17
VIN
p2598
sbag5
(g6
g7
(lp2599
g5
(g6
g7
(lp2600
g5
(g6
g7
(lp2601
Vits
p2602
atp2603
Rp2604
(dp2605
g17
VPRP$
p2606
sbag5
(g6
g7
(lp2607
Vtruth
p2608
atp2609
Rp2610
(dp2611
g17
VNN
p2612
sbatp2613
Rp2614
(dp2615
g17
VNP
p2616
sbag5
(g6
g7
(lp2617
g5
(g6
g7
(lp2618
Vdepends
p2619
atp2620
Rp2621
(dp2622
g17
VVBZ
p2623
sbag5
(g6
g7
(lp2624
g5
(g6
g7
(lp2625
Von
p2626
atp2627
Rp2628
(dp2629
g17
VIN
p2630
sbag5
(g6
g7
(lp2631
g5
(g6
g7
(lp2632
g5
(g6
g7
(lp2633
g5
(g6
g7
(lp2634
Vthe
p2635
atp2636
Rp2637
(dp2638
g17
VDT
p2639
sbag5
(g6
g7
(lp2640
Vspeaker
p2641
atp2642
Rp2643
(dp2644
g17
VNN
p2645
sbag5
(g6
g7
(lp2646
Vu
p2647
atp2648
Rp2649
(dp2650
g17
VNN
p2651
sbag5
(g6
g7
(lp2652
V'
p2653
atp2654
Rp2655
(dp2656
g17
VPOS
p2657
sbatp2658
Rp2659
(dp2660
g17
VNP
p2661
sbag5
(g6
g7
(lp2662
V\u005c
p2663
atp2664
Rp2665
(dp2666
g17
VJJ
p2667
sbag5
(g6
g7
(lp2668
Vu2019
p2669
atp2670
Rp2671
(dp2672
g17
VNNS
p2673
sbag5
(g6
g7
(lp2674
g2653
atp2675
Rp2676
(dp2677
g17
VPOS
p2678
sbatp2679
Rp2680
(dp2681
g17
VNP
p2682
sbag5
(g6
g7
(lp2683
Vs
p2684
atp2685
Rp2686
(dp2687
g17
VNNP
p2688
sbag5
(g6
g7
(lp2689
Vposition
p2690
atp2691
Rp2692
(dp2693
g17
VNN
p2694
sbatp2695
Rp2696
(dp2697
g17
VNP
p2698
sbatp2699
Rp2700
(dp2701
g17
VPP
p2702
sbatp2703
Rp2704
(dp2705
g17
VVP
p2706
sbatp2707
Rp2708
(dp2709
g17
g156
sbatp2710
Rp2711
(dp2712
g17
VSBAR
p2713
sbatp2714
Rp2715
(dp2716
g17
VVP
p2717
sbatp2718
Rp2719
(dp2720
g17
g156
sbatp2721
Rp2722
(dp2723
g17
VSBAR
p2724
sbatp2725
Rp2726
(dp2727
g17
VVP
p2728
sbatp2729
Rp2730
(dp2731
g17
g156
sbatp2732
Rp2733
(dp2734
g17
VROOT
p2735
sbasg172
(icmyPackage
CorE
p2736
(dp2737
g175
(lp2738
(I0
I19
tp2739
a(I0
I31
tp2740
asg179
g2708
sbsg180
(icmyPackage
CorE
p2741
(dp2742
g175
(lp2743
(I0
I0
tp2744
a(I0
I17
tp2745
asg179
g5
(g6
g7
(lp2746
g2432
ag2437
ag2517
ag2524
ag2541
ag2548
ag2560
ag2567
ag2589
atp2747
Rp2748
(dp2749
g17
g190
sbsbsg191
(icmyPackage
pattern
p2750
(dp2751
g194
I26
sg195
I1
sg196
(lp2752
(lp2753
S'as'
p2754
aasg201
(lp2755
I3
aI1
aI1
asg203
(lp2756
S'You do not need to worry about the operation, as the software is very easy to use.'
p2757
asg206
I80
sg207
(lp2758
(lp2759
S'&R@Complete@'
p2760
aS'(,)'
p2761
aS'(-such/-same/-seem/-regard/-regards/-regarded/-view/-views/-viewed/-denote/-denoted/-denotes)'
p2762
aa(lp2763
S'(-if/-follow/-follows/-&adv)'
p2764
aS'&C@Complete@'
p2765
aasbsg214
(lp2766
(isxpPackage
sxpSent
p2767
(dp2768
g218
(lp2769
I7
asg220
VFor example, the utterance he sits across the table is more subjective than he sits opposite Sam as its truth depends on the speaker u'\u005cu2019' s position
p2770
sg222
I3
sg206
I30
sg223
I8
sbasba(icmyPackage
CELink
p2771
(dp2772
g3
(lp2773
g5
(g6
g7
(lp2774
g5
(g6
g7
(lp2775
g5
(g6
g7
(lp2776
g5
(g6
g7
(lp2777
VLanguage
p2778
atp2779
Rp2780
(dp2781
g17
VNNP
p2782
sbatp2783
Rp2784
(dp2785
g17
VNP
p2786
sbag5
(g6
g7
(lp2787
g5
(g6
g7
(lp2788
Vmay
p2789
atp2790
Rp2791
(dp2792
g17
VMD
p2793
sbag5
(g6
g7
(lp2794
g5
(g6
g7
(lp2795
Valso
p2796
atp2797
Rp2798
(dp2799
g17
VRB
p2800
sbatp2801
Rp2802
(dp2803
g17
VADVP
p2804
sbag5
(g6
g7
(lp2805
g5
(g6
g7
(lp2806
Vbe
p2807
atp2808
Rp2809
(dp2810
g17
VVB
p2811
sbag5
(g6
g7
(lp2812
g5
(g6
g7
(lp2813
Vsubjective
p2814
atp2815
Rp2816
(dp2817
g17
VJJ
p2818
sbatp2819
Rp2820
(dp2821
g17
VADJP
p2822
sbag5
(g6
g7
(lp2823
g5
(g6
g7
(lp2824
Vbecause
p2825
atp2826
Rp2827
(dp2828
g17
VIN
p2829
sbag5
(g6
g7
(lp2830
g5
(g6
g7
(lp2831
g5
(g6
g7
(lp2832
Vit
p2833
atp2834
Rp2835
(dp2836
g17
VPRP
p2837
sbatp2838
Rp2839
(dp2840
g17
VNP
p2841
sbag5
(g6
g7
(lp2842
g5
(g6
g7
(lp2843
Vconveys
p2844
atp2845
Rp2846
(dp2847
g17
VVBZ
p2848
sbag5
(g6
g7
(lp2849
g5
(g6
g7
(lp2850
Vevaluations
p2851
atp2852
Rp2853
(dp2854
g17
VNNS
p2855
sbag5
(g6
g7
(lp2856
Vor
p2857
atp2858
Rp2859
(dp2860
g17
VCC
p2861
sbag5
(g6
g7
(lp2862
Vopinions
p2863
atp2864
Rp2865
(dp2866
g17
VNNS
p2867
sbatp2868
Rp2869
(dp2870
g17
VNP
p2871
sbag5
(g6
g7
(lp2872
g5
(g6
g7
(lp2873
g5
(g6
g7
(lp2874
V-LSB-
p2875
atp2876
Rp2877
(dp2878
g17
VVBG
p2879
sbag5
(g6
g7
(lp2880
g5
(g6
g7
(lp2881
V19
p2882
atp2883
Rp2884
(dp2885
g17
VCD
p2886
sbag5
(g6
g7
(lp2887
V-RSB-
p2888
atp2889
Rp2890
(dp2891
g17
VNNS
p2892
sbatp2893
Rp2894
(dp2895
g17
VNP
p2896
sbatp2897
Rp2898
(dp2899
g17
VVP
p2900
sbatp2901
Rp2902
(dp2903
g17
g156
sbatp2904
Rp2905
(dp2906
g17
VVP
p2907
sbatp2908
Rp2909
(dp2910
g17
g156
sbatp2911
Rp2912
(dp2913
g17
VSBAR
p2914
sbatp2915
Rp2916
(dp2917
g17
VVP
p2918
sbatp2919
Rp2920
(dp2921
g17
VVP
p2922
sbatp2923
Rp2924
(dp2925
g17
g156
sbatp2926
Rp2927
(dp2928
g17
VROOT
p2929
sbasg172
(icmyPackage
CorE
p2930
(dp2931
g175
(lp2932
(I0
I6
tp2933
a(I0
I13
tp2934
asg179
g2909
sbsg180
(icmyPackage
CorE
p2935
(dp2936
g175
(lp2937
(I0
I0
tp2938
a(I0
I4
tp2939
asg179
g5
(g6
g7
(lp2940
g2784
ag2791
ag2802
ag2809
ag2820
atp2941
Rp2942
(dp2943
g17
g190
sbsbsg191
(icmyPackage
pattern
p2944
(dp2945
g194
I407
sg195
I1
sg196
(lp2946
(lp2947
S'because'
p2948
aasg201
(lp2949
I3
aI1
aI1
asg203
(lp2950
S'It ends up in burnout and less production, because we inevitably run out of energy.'
p2951
asg206
I76
sg207
(lp2952
(lp2953
S'&R'
p2954
aS'(,)'
p2955
aS'(&ADV)'
p2956
aa(lp2957
S'&C'
p2958
aasbsg214
(lp2959
(isxpPackage
sxpSent
p2960
(dp2961
g218
(lp2962
I8
asg220
VLanguage may also be subjective because it conveys evaluations or opinions [ 19 ]
p2963
sg222
I3
sg206
I31
sg223
I8
sbasba(icmyPackage
CELink
p2964
(dp2965
g3
(lp2966
g5
(g6
g7
(lp2967
g5
(g6
g7
(lp2968
g5
(g6
g7
(lp2969
g5
(g6
g7
(lp2970
V1985
p2971
atp2972
Rp2973
(dp2974
g17
VVB
p2975
sbag5
(g6
g7
(lp2976
V-RRB-
p2977
atp2978
Rp2979
(dp2980
g17
V-RRB-
p2981
sbag5
(g6
g7
(lp2982
g5
(g6
g7
(lp2983
g5
(g6
g7
(lp2984
Vtheorizes
p2985
atp2986
Rp2987
(dp2988
g17
VNNS
p2989
sbatp2990
Rp2991
(dp2992
g17
VNP
p2993
sbag5
(g6
g7
(lp2994
g5
(g6
g7
(lp2995
Vthat
p2996
atp2997
Rp2998
(dp2999
g17
VIN
p3000
sbag5
(g6
g7
(lp3001
g5
(g6
g7
(lp3002
g5
(g6
g7
(lp3003
Vsubjective
p3004
atp3005
Rp3006
(dp3007
g17
VJJ
p3008
sbag5
(g6
g7
(lp3009
Vadjectives
p3010
atp3011
Rp3012
(dp3013
g17
VNNS
p3014
sbatp3015
Rp3016
(dp3017
g17
VNP
p3018
sbag5
(g6
g7
(lp3019
g5
(g6
g7
(lp3020
Vtend
p3021
atp3022
Rp3023
(dp3024
g17
VVBP
p3025
sbag5
(g6
g7
(lp3026
g5
(g6
g7
(lp3027
g5
(g6
g7
(lp3028
Vto
p3029
atp3030
Rp3031
(dp3032
g17
VTO
p3033
sbag5
(g6
g7
(lp3034
g5
(g6
g7
(lp3035
Vdevelop
p3036
atp3037
Rp3038
(dp3039
g17
VVB
p3040
sbag5
(g6
g7
(lp3041
g5
(g6
g7
(lp3042
Vderived
p3043
atp3044
Rp3045
(dp3046
g17
VVBN
p3047
sbatp3048
Rp3049
(dp3050
g17
VVP
p3051
sbatp3052
Rp3053
(dp3054
g17
VVP
p3055
sbatp3056
Rp3057
(dp3058
g17
VVP
p3059
sbatp3060
Rp3061
(dp3062
g17
g156
sbatp3063
Rp3064
(dp3065
g17
VVP
p3066
sbatp3067
Rp3068
(dp3069
g17
g156
sbatp3070
Rp3071
(dp3072
g17
VSBAR
p3073
sbatp3074
Rp3075
(dp3076
g17
VNP
p3077
sbatp3078
Rp3079
(dp3080
g17
VVP
p3081
sbag5
(g6
g7
(lp3082
g5
(g6
g7
(lp3083
g5
(g6
g7
(lp3084
Vadverbial
p3085
atp3086
Rp3087
(dp3088
g17
VJJ
p3089
sbag5
(g6
g7
(lp3090
Vforms
p3091
atp3092
Rp3093
(dp3094
g17
VNNS
p3095
sbatp3096
Rp3097
(dp3098
g17
VNP
p3099
sbag5
(g6
g7
(lp3100
g241
atp3101
Rp3102
(dp3103
g17
g241
sbag5
(g6
g7
(lp3104
g5
(g6
g7
(lp3105
Vwhereas
p3106
atp3107
Rp3108
(dp3109
g17
VIN
p3110
sbag5
(g6
g7
(lp3111
g5
(g6
g7
(lp3112
g5
(g6
g7
(lp3113
Vmore
p3114
atp3115
Rp3116
(dp3117
g17
VJJR
p3118
sbag5
(g6
g7
(lp3119
Vobjective
p3120
atp3121
Rp3122
(dp3123
g17
VNN
p3124
sbag5
(g6
g7
(lp3125
Vadjectives
p3126
atp3127
Rp3128
(dp3129
g17
VNNS
p3130
sbatp3131
Rp3132
(dp3133
g17
VNP
p3134
sbag5
(g6
g7
(lp3135
g5
(g6
g7
(lp3136
Vdo
p3137
atp3138
Rp3139
(dp3140
g17
VVBP
p3141
sbag5
(g6
g7
(lp3142
Vnot
p3143
atp3144
Rp3145
(dp3146
g17
VRB
p3147
sbatp3148
Rp3149
(dp3150
g17
VVP
p3151
sbatp3152
Rp3153
(dp3154
g17
g156
sbatp3155
Rp3156
(dp3157
g17
VSBAR
p3158
sbatp3159
Rp3160
(dp3161
g17
VNP
p3162
sbatp3163
Rp3164
(dp3165
g17
VSINV
p3166
sbatp3167
Rp3168
(dp3169
g17
VROOT
p3170
sbag5
(g6
g7
(lp3171
g5
(g6
g7
(lp3172
g5
(g6
g7
(lp3173
g5
(g6
g7
(lp3174
VWe
p3175
atp3176
Rp3177
(dp3178
g17
VPRP
p3179
sbatp3180
Rp3181
(dp3182
g17
VNP
p3183
sbag5
(g6
g7
(lp3184
g5
(g6
g7
(lp3185
g5
(g6
g7
(lp3186
Vthus
p3187
atp3188
Rp3189
(dp3190
g17
VRB
p3191
sbatp3192
Rp3193
(dp3194
g17
VADVP
p3195
sbag5
(g6
g7
(lp3196
g5
(g6
g7
(lp3197
g5
(g6
g7
(lp3198
Vdefine
p3199
atp3200
Rp3201
(dp3202
g17
VVB
p3203
sbag5
(g6
g7
(lp3204
g5
(g6
g7
(lp3205
Vadverbiability
p3206
atp3207
Rp3208
(dp3209
g17
VRB
p3210
sbatp3211
Rp3212
(dp3213
g17
VADVP
p3214
sbag5
(g6
g7
(lp3215
g5
(g6
g7
(lp3216
Vas
p3217
atp3218
Rp3219
(dp3220
g17
VIN
p3221
sbag5
(g6
g7
(lp3222
g5
(g6
g7
(lp3223
g5
(g6
g7
(lp3224
Vthe
p3225
atp3226
Rp3227
(dp3228
g17
VDT
p3229
sbag5
(g6
g7
(lp3230
Vfrequency
p3231
atp3232
Rp3233
(dp3234
g17
VNN
p3235
sbatp3236
Rp3237
(dp3238
g17
VNP
p3239
sbag5
(g6
g7
(lp3240
g5
(g6
g7
(lp3241
Vof
p3242
atp3243
Rp3244
(dp3245
g17
VIN
p3246
sbag5
(g6
g7
(lp3247
g5
(g6
g7
(lp3248
g5
(g6
g7
(lp3249
g5
(g6
g7
(lp3250
Vderived
p3251
atp3252
Rp3253
(dp3254
g17
VRB
p3255
sbag5
(g6
g7
(lp3256
Vadverbial
p3257
atp3258
Rp3259
(dp3260
g17
VJJ
p3261
sbatp3262
Rp3263
(dp3264
g17
VADJP
p3265
sbag5
(g6
g7
(lp3266
Vforms
p3267
atp3268
Rp3269
(dp3270
g17
VNNS
p3271
sbatp3272
Rp3273
(dp3274
g17
VNP
p3275
sbag5
(g6
g7
(lp3276
g5
(g6
g7
(lp3277
Vrelative
p3278
atp3279
Rp3280
(dp3281
g17
VJJ
p3282
sbag5
(g6
g7
(lp3283
g5
(g6
g7
(lp3284
Vto
p3285
atp3286
Rp3287
(dp3288
g17
VTO
p3289
sbag5
(g6
g7
(lp3290
g5
(g6
g7
(lp3291
g5
(g6
g7
(lp3292
Vthe
p3293
atp3294
Rp3295
(dp3296
g17
VDT
p3297
sbag5
(g6
g7
(lp3298
Vfrequency
p3299
atp3300
Rp3301
(dp3302
g17
VNN
p3303
sbatp3304
Rp3305
(dp3306
g17
VNP
p3307
sbag5
(g6
g7
(lp3308
g5
(g6
g7
(lp3309
Vof
p3310
atp3311
Rp3312
(dp3313
g17
VIN
p3314
sbag5
(g6
g7
(lp3315
g5
(g6
g7
(lp3316
Vtheir
p3317
atp3318
Rp3319
(dp3320
g17
VPRP$
p3321
sbag5
(g6
g7
(lp3322
Vbase
p3323
atp3324
Rp3325
(dp3326
g17
VNN
p3327
sbag5
(g6
g7
(lp3328
Vform
p3329
atp3330
Rp3331
(dp3332
g17
VNN
p3333
sbatp3334
Rp3335
(dp3336
g17
VNP
p3337
sbatp3338
Rp3339
(dp3340
g17
VPP
p3341
sbatp3342
Rp3343
(dp3344
g17
VNP
p3345
sbatp3346
Rp3347
(dp3348
g17
VPP
p3349
sbatp3350
Rp3351
(dp3352
g17
VADJP
p3353
sbag5
(g6
g7
(lp3354
g241
atp3355
Rp3356
(dp3357
g17
g241
sbag5
(g6
g7
(lp3358
g5
(g6
g7
(lp3359
Ve.g
p3360
atp3361
Rp3362
(dp3363
g17
VVBN
p3364
sbatp3365
Rp3366
(dp3367
g17
VVP
p3368
sbatp3369
Rp3370
(dp3371
g17
VNP
p3372
sbatp3373
Rp3374
(dp3375
g17
VPP
p3376
sbatp3377
Rp3378
(dp3379
g17
VNP
p3380
sbatp3381
Rp3382
(dp3383
g17
VPP
p3384
sbatp3385
Rp3386
(dp3387
g17
VVP
p3388
sbatp3389
Rp3390
(dp3391
g17
g156
sbatp3392
Rp3393
(dp3394
g17
VVP
p3395
sbatp3396
Rp3397
(dp3398
g17
g156
sbatp3399
Rp3400
(dp3401
g17
VROOT
p3402
sbasg172
(icmyPackage
CorE
p3403
(dp3404
g175
(lp3405
(I0
I5
tp3406
a(I1
I0
tp3407
asg179
g5
(g6
g7
(lp3408
g3012
ag3064
ag3160
ag3181
atp3409
Rp3410
(dp3411
g17
g190
sbsbsg180
(icmyPackage
CorE
p3412
(dp3413
g175
(lp3414
(I1
I2
tp3415
a(I1
I20
tp3416
asg179
g3390
sbsg191
g876
sg214
(lp3417
(isxpPackage
sxpSent
p3418
(dp3419
g218
(lp3420
I9
asg220
V1985 ) theorizes that subjective adjectives tend to develop derived adverbial forms, whereas more objective adjectives do not
p3421
sg222
I3
sg206
I40
sg223
I10
sba(isxpPackage
sxpSent
p3422
(dp3423
g218
(lp3424
I9
asg220
VWe thus define adverbiability as the frequency of derived adverbial forms relative to the frequency of their base form, e.g
p3425
sg222
I3
sg206
I41
sg223
I10
sbasba(icmyPackage
CELink
p3426
(dp3427
g3
(lp3428
g5
(g6
g7
(lp3429
g5
(g6
g7
(lp3430
g5
(g6
g7
(lp3431
g5
(g6
g7
(lp3432
VFollowing
p3433
atp3434
Rp3435
(dp3436
g17
VVBG
p3437
sbag5
(g6
g7
(lp3438
g5
(g6
g7
(lp3439
VWiebe
p3440
atp3441
Rp3442
(dp3443
g17
VNNP
p3444
sbatp3445
Rp3446
(dp3447
g17
VNP
p3448
sbatp3449
Rp3450
(dp3451
g17
VPP
p3452
sbag5
(g6
g7
(lp3453
g241
atp3454
Rp3455
(dp3456
g17
g241
sbag5
(g6
g7
(lp3457
g5
(g6
g7
(lp3458
Vwe
p3459
atp3460
Rp3461
(dp3462
g17
VPRP
p3463
sbatp3464
Rp3465
(dp3466
g17
VNP
p3467
sbag5
(g6
g7
(lp3468
g5
(g6
g7
(lp3469
Vnote
p3470
atp3471
Rp3472
(dp3473
g17
VVBP
p3474
sbag5
(g6
g7
(lp3475
g5
(g6
g7
(lp3476
Vthat
p3477
atp3478
Rp3479
(dp3480
g17
VIN
p3481
sbag5
(g6
g7
(lp3482
g5
(g6
g7
(lp3483
g5
(g6
g7
(lp3484
g5
(g6
g7
(lp3485
Vthe
p3486
atp3487
Rp3488
(dp3489
g17
VDT
p3490
sbag5
(g6
g7
(lp3491
Vexistence
p3492
atp3493
Rp3494
(dp3495
g17
VNN
p3496
sbatp3497
Rp3498
(dp3499
g17
VNP
p3500
sbag5
(g6
g7
(lp3501
g5
(g6
g7
(lp3502
Vof
p3503
atp3504
Rp3505
(dp3506
g17
VIN
p3507
sbag5
(g6
g7
(lp3508
g5
(g6
g7
(lp3509
g5
(g6
g7
(lp3510
Vcomparative
p3511
atp3512
Rp3513
(dp3514
g17
VJJ
p3515
sbag5
(g6
g7
(lp3516
Vforms
p3517
atp3518
Rp3519
(dp3520
g17
VNNS
p3521
sbatp3522
Rp3523
(dp3524
g17
VNP
p3525
sbag5
(g6
g7
(lp3526
g5
(g6
g7
(lp3527
Vfor
p3528
atp3529
Rp3530
(dp3531
g17
VIN
p3532
sbag5
(g6
g7
(lp3533
g5
(g6
g7
(lp3534
Van
p3535
atp3536
Rp3537
(dp3538
g17
VDT
p3539
sbag5
(g6
g7
(lp3540
Vadjective
p3541
atp3542
Rp3543
(dp3544
g17
VNN
p3545
sbatp3546
Rp3547
(dp3548
g17
VNP
p3549
sbatp3550
Rp3551
(dp3552
g17
VPP
p3553
sbatp3554
Rp3555
(dp3556
g17
VNP
p3557
sbatp3558
Rp3559
(dp3560
g17
VPP
p3561
sbatp3562
Rp3563
(dp3564
g17
VNP
p3565
sbag5
(g6
g7
(lp3566
g5
(g6
g7
(lp3567
Vare
p3568
atp3569
Rp3570
(dp3571
g17
VVBP
p3572
sbag5
(g6
g7
(lp3573
g5
(g6
g7
(lp3574
Vindicative
p3575
atp3576
Rp3577
(dp3578
g17
VJJ
p3579
sbag5
(g6
g7
(lp3580
g5
(g6
g7
(lp3581
Vof
p3582
atp3583
Rp3584
(dp3585
g17
VIN
p3586
sbag5
(g6
g7
(lp3587
g5
(g6
g7
(lp3588
Vgradability
p3589
atp3590
Rp3591
(dp3592
g17
VNN
p3593
sbatp3594
Rp3595
(dp3596
g17
VNP
p3597
sbatp3598
Rp3599
(dp3600
g17
VPP
p3601
sbatp3602
Rp3603
(dp3604
g17
VADJP
p3605
sbatp3606
Rp3607
(dp3608
g17
VVP
p3609
sbatp3610
Rp3611
(dp3612
g17
g156
sbatp3613
Rp3614
(dp3615
g17
VSBAR
p3616
sbatp3617
Rp3618
(dp3619
g17
VVP
p3620
sbatp3621
Rp3622
(dp3623
g17
g156
sbatp3624
Rp3625
(dp3626
g17
VROOT
p3627
sbag5
(g6
g7
(lp3628
g5
(g6
g7
(lp3629
g5
(g6
g7
(lp3630
g5
(g6
g7
(lp3631
VWe
p3632
atp3633
Rp3634
(dp3635
g17
VPRP
p3636
sbatp3637
Rp3638
(dp3639
g17
VNP
p3640
sbag5
(g6
g7
(lp3641
g5
(g6
g7
(lp3642
g5
(g6
g7
(lp3643
Vthus
p3644
atp3645
Rp3646
(dp3647
g17
VRB
p3648
sbatp3649
Rp3650
(dp3651
g17
VADVP
p3652
sbag5
(g6
g7
(lp3653
g5
(g6
g7
(lp3654
g5
(g6
g7
(lp3655
Vdefine
p3656
atp3657
Rp3658
(dp3659
g17
VVB
p3660
sbag5
(g6
g7
(lp3661
g5
(g6
g7
(lp3662
g5
(g6
g7
(lp3663
Vcomparability
p3664
atp3665
Rp3666
(dp3667
g17
VNN
p3668
sbatp3669
Rp3670
(dp3671
g17
VNP
p3672
sbag5
(g6
g7
(lp3673
g5
(g6
g7
(lp3674
Vas
p3675
atp3676
Rp3677
(dp3678
g17
VIN
p3679
sbag5
(g6
g7
(lp3680
g5
(g6
g7
(lp3681
g5
(g6
g7
(lp3682
Vthe
p3683
atp3684
Rp3685
(dp3686
g17
VDT
p3687
sbag5
(g6
g7
(lp3688
Vfrequency
p3689
atp3690
Rp3691
(dp3692
g17
VNN
p3693
sbatp3694
Rp3695
(dp3696
g17
VNP
p3697
sbag5
(g6
g7
(lp3698
g5
(g6
g7
(lp3699
Vof
p3700
atp3701
Rp3702
(dp3703
g17
VIN
p3704
sbag5
(g6
g7
(lp3705
g5
(g6
g7
(lp3706
Vcomparative
p3707
atp3708
Rp3709
(dp3710
g17
VJJ
p3711
sbag5
(g6
g7
(lp3712
Vor
p3713
atp3714
Rp3715
(dp3716
g17
VCC
p3717
sbag5
(g6
g7
(lp3718
Vsuperlative
p3719
atp3720
Rp3721
(dp3722
g17
VJJ
p3723
sbag5
(g6
g7
(lp3724
Vforms
p3725
atp3726
Rp3727
(dp3728
g17
VNNS
p3729
sbatp3730
Rp3731
(dp3732
g17
VNP
p3733
sbatp3734
Rp3735
(dp3736
g17
VPP
p3737
sbatp3738
Rp3739
(dp3740
g17
VNP
p3741
sbatp3742
Rp3743
(dp3744
g17
VPP
p3745
sbatp3746
Rp3747
(dp3748
g17
VNP
p3749
sbag5
(g6
g7
(lp3750
g5
(g6
g7
(lp3751
Vrelative
p3752
atp3753
Rp3754
(dp3755
g17
VJJ
p3756
sbag5
(g6
g7
(lp3757
g5
(g6
g7
(lp3758
Vto
p3759
atp3760
Rp3761
(dp3762
g17
VTO
p3763
sbag5
(g6
g7
(lp3764
g5
(g6
g7
(lp3765
g5
(g6
g7
(lp3766
Vthe
p3767
atp3768
Rp3769
(dp3770
g17
VDT
p3771
sbag5
(g6
g7
(lp3772
Vfrequency
p3773
atp3774
Rp3775
(dp3776
g17
VNN
p3777
sbatp3778
Rp3779
(dp3780
g17
VNP
p3781
sbag5
(g6
g7
(lp3782
g5
(g6
g7
(lp3783
Vof
p3784
atp3785
Rp3786
(dp3787
g17
VIN
p3788
sbag5
(g6
g7
(lp3789
g5
(g6
g7
(lp3790
Vthe
p3791
atp3792
Rp3793
(dp3794
g17
VDT
p3795
sbag5
(g6
g7
(lp3796
Vbase
p3797
atp3798
Rp3799
(dp3800
g17
VNN
p3801
sbag5
(g6
g7
(lp3802
Vform
p3803
atp3804
Rp3805
(dp3806
g17
VNN
p3807
sbatp3808
Rp3809
(dp3810
g17
VNP
p3811
sbatp3812
Rp3813
(dp3814
g17
VPP
p3815
sbatp3816
Rp3817
(dp3818
g17
VNP
p3819
sbatp3820
Rp3821
(dp3822
g17
VPP
p3823
sbatp3824
Rp3825
(dp3826
g17
VADVP
p3827
sbag5
(g6
g7
(lp3828
g241
atp3829
Rp3830
(dp3831
g17
g241
sbag5
(g6
g7
(lp3832
Ve.g
p3833
atp3834
Rp3835
(dp3836
g17
VVB
p3837
sbatp3838
Rp3839
(dp3840
g17
VVP
p3841
sbatp3842
Rp3843
(dp3844
g17
g156
sbatp3845
Rp3846
(dp3847
g17
VVP
p3848
sbatp3849
Rp3850
(dp3851
g17
g156
sbatp3852
Rp3853
(dp3854
g17
VROOT
p3855
sbasg172
(icmyPackage
CorE
p3856
(dp3857
g175
(lp3858
(I0
I1
tp3859
a(I1
I0
tp3860
asg179
g5
(g6
g7
(lp3861
g3446
ag3455
ag3465
ag3618
ag3638
atp3862
Rp3863
(dp3864
g17
g190
sbsbsg180
(icmyPackage
CorE
p3865
(dp3866
g175
(lp3867
(I1
I2
tp3868
a(I1
I21
tp3869
asg179
g3843
sbsg191
g876
sg214
(lp3870
(isxpPackage
sxpSent
p3871
(dp3872
g218
(lp3873
I10
asg220
VFollowing Wiebe, we note that the existence of comparative forms for an adjective are indicative of gradability
p3874
sg222
I3
sg206
I44
sg223
I11
sba(isxpPackage
sxpSent
p3875
(dp3876
g218
(lp3877
I10
asg220
VWe thus define comparability as the frequency of comparative or superlative forms relative to the frequency of the base form, e.g
p3878
sg222
I3
sg206
I45
sg223
I11
sbasba(icmyPackage
CELink
p3879
(dp3880
g3
(lp3881
g5
(g6
g7
(lp3882
g5
(g6
g7
(lp3883
g5
(g6
g7
(lp3884
g5
(g6
g7
(lp3885
g5
(g6
g7
(lp3886
VAdamson
p3887
atp3888
Rp3889
(dp3890
g17
VNNP
p3891
sbatp3892
Rp3893
(dp3894
g17
VNP
p3895
sbag5
(g6
g7
(lp3896
g5
(g6
g7
(lp3897
V-LRB-
p3898
atp3899
Rp3900
(dp3901
g17
V-LRB-
p3902
sbag5
(g6
g7
(lp3903
g5
(g6
g7
(lp3904
V2000
p3905
atp3906
Rp3907
(dp3908
g17
VCD
p3909
sbatp3910
Rp3911
(dp3912
g17
VNP
p3913
sbag5
(g6
g7
(lp3914
V-RRB-
p3915
atp3916
Rp3917
(dp3918
g17
V-RRB-
p3919
sbatp3920
Rp3921
(dp3922
g17
VPRN
p3923
sbatp3924
Rp3925
(dp3926
g17
VNP
p3927
sbag5
(g6
g7
(lp3928
g5
(g6
g7
(lp3929
Vproposes
p3930
atp3931
Rp3932
(dp3933
g17
VVBZ
p3934
sbag5
(g6
g7
(lp3935
g5
(g6
g7
(lp3936
Vthat
p3937
atp3938
Rp3939
(dp3940
g17
VIN
p3941
sbag5
(g6
g7
(lp3942
g5
(g6
g7
(lp3943
g5
(g6
g7
(lp3944
g5
(g6
g7
(lp3945
Vmore
p3946
atp3947
Rp3948
(dp3949
g17
VRBR
p3950
sbag5
(g6
g7
(lp3951
Vsubjective
p3952
atp3953
Rp3954
(dp3955
g17
VJJ
p3956
sbatp3957
Rp3958
(dp3959
g17
VADJP
p3960
sbag5
(g6
g7
(lp3961
Vadjectives
p3962
atp3963
Rp3964
(dp3965
g17
VNNS
p3966
sbatp3967
Rp3968
(dp3969
g17
VNP
p3970
sbag5
(g6
g7
(lp3971
g5
(g6
g7
(lp3972
Vtypically
p3973
atp3974
Rp3975
(dp3976
g17
VRB
p3977
sbatp3978
Rp3979
(dp3980
g17
VADVP
p3981
sbag5
(g6
g7
(lp3982
g5
(g6
g7
(lp3983
Voccur
p3984
atp3985
Rp3986
(dp3987
g17
VVBP
p3988
sbag5
(g6
g7
(lp3989
g5
(g6
g7
(lp3990
Vfurthest
p3991
atp3992
Rp3993
(dp3994
g17
VNN
p3995
sbatp3996
Rp3997
(dp3998
g17
VNP
p3999
sbag5
(g6
g7
(lp4000
g5
(g6
g7
(lp4001
Vfrom
p4002
atp4003
Rp4004
(dp4005
g17
VIN
p4006
sbag5
(g6
g7
(lp4007
g5
(g6
g7
(lp4008
g5
(g6
g7
(lp4009
Vthe
p4010
atp4011
Rp4012
(dp4013
g17
VDT
p4014
sbag5
(g6
g7
(lp4015
Vnoun
p4016
atp4017
Rp4018
(dp4019
g17
VNN
p4020
sbatp4021
Rp4022
(dp4023
g17
VNP
p4024
sbag5
(g6
g7
(lp4025
g5
(g6
g7
(lp4026
Vin
p4027
atp4028
Rp4029
(dp4030
g17
VIN
p4031
sbag5
(g6
g7
(lp4032
g5
(g6
g7
(lp4033
g5
(g6
g7
(lp4034
Vmultiple-modifier
p4035
atp4036
Rp4037
(dp4038
g17
VJJ
p4039
sbag5
(g6
g7
(lp4040
Vstrings
p4041
atp4042
Rp4043
(dp4044
g17
VNNS
p4045
sbatp4046
Rp4047
(dp4048
g17
VNP
p4049
sbag5
(g6
g7
(lp4050
g5
(g6
g7
(lp4051
Vsuch
p4052
atp4053
Rp4054
(dp4055
g17
VJJ
p4056
sbag5
(g6
g7
(lp4057
Vas
p4058
atp4059
Rp4060
(dp4061
g17
VIN
p4062
sbag5
(g6
g7
(lp4063
g5
(g6
g7
(lp4064
V-LRB-
p4065
atp4066
Rp4067
(dp4068
g17
V-LRB-
p4069
sbag5
(g6
g7
(lp4070
Vhot
p4071
atp4072
Rp4073
(dp4074
g17
VJJ
p4075
sbag5
(g6
g7
(lp4076
Vcrossed
p4077
atp4078
Rp4079
(dp4080
g17
VJJ
p4081
sbag5
(g6
g7
(lp4082
Vbuns
p4083
atp4084
Rp4085
(dp4086
g17
VNNP
p4087
sbatp4088
Rp4089
(dp4090
g17
VNP
p4091
sbatp4092
Rp4093
(dp4094
g17
VPP
p4095
sbatp4096
Rp4097
(dp4098
g17
VNP
p4099
sbatp4100
Rp4101
(dp4102
g17
VPP
p4103
sbatp4104
Rp4105
(dp4106
g17
VNP
p4107
sbatp4108
Rp4109
(dp4110
g17
VPP
p4111
sbatp4112
Rp4113
(dp4114
g17
VVP
p4115
sbatp4116
Rp4117
(dp4118
g17
g156
sbatp4119
Rp4120
(dp4121
g17
VSBAR
p4122
sbatp4123
Rp4124
(dp4125
g17
VVP
p4126
sbatp4127
Rp4128
(dp4129
g17
g156
sbatp4130
Rp4131
(dp4132
g17
VROOT
p4133
sbag5
(g6
g7
(lp4134
g5
(g6
g7
(lp4135
g5
(g6
g7
(lp4136
g5
(g6
g7
(lp4137
VWe
p4138
atp4139
Rp4140
(dp4141
g17
VPRP
p4142
sbatp4143
Rp4144
(dp4145
g17
VNP
p4146
sbag5
(g6
g7
(lp4147
g5
(g6
g7
(lp4148
g5
(g6
g7
(lp4149
Vconsequently
p4150
atp4151
Rp4152
(dp4153
g17
VRB
p4154
sbatp4155
Rp4156
(dp4157
g17
VADVP
p4158
sbag5
(g6
g7
(lp4159
Vextract
p4160
atp4161
Rp4162
(dp4163
g17
VVB
p4164
sbag5
(g6
g7
(lp4165
g5
(g6
g7
(lp4166
g5
(g6
g7
(lp4167
Vthe
p4168
atp4169
Rp4170
(dp4171
g17
VDT
p4172
sbag5
(g6
g7
(lp4173
VLeftTendency
p4174
atp4175
Rp4176
(dp4177
g17
VNN
p4178
sbatp4179
Rp4180
(dp4181
g17
VNP
p4182
sbag5
(g6
g7
(lp4183
g5
(g6
g7
(lp4184
Vof
p4185
atp4186
Rp4187
(dp4188
g17
VIN
p4189
sbag5
(g6
g7
(lp4190
g5
(g6
g7
(lp4191
Vour
p4192
atp4193
Rp4194
(dp4195
g17
VPRP$
p4196
sbag5
(g6
g7
(lp4197
Vadjectives
p4198
atp4199
Rp4200
(dp4201
g17
VNNS
p4202
sbatp4203
Rp4204
(dp4205
g17
VNP
p4206
sbatp4207
Rp4208
(dp4209
g17
VPP
p4210
sbag5
(g6
g7
(lp4211
g241
atp4212
Rp4213
(dp4214
g17
g241
sbag5
(g6
g7
(lp4215
g5
(g6
g7
(lp4216
Vdefined
p4217
atp4218
Rp4219
(dp4220
g17
VVBN
p4221
sbag5
(g6
g7
(lp4222
g5
(g6
g7
(lp4223
Vas
p4224
atp4225
Rp4226
(dp4227
g17
VIN
p4228
sbag5
(g6
g7
(lp4229
g5
(g6
g7
(lp4230
g5
(g6
g7
(lp4231
Vthe
p4232
atp4233
Rp4234
(dp4235
g17
VDT
p4236
sbag5
(g6
g7
(lp4237
Vfrequency
p4238
atp4239
Rp4240
(dp4241
g17
VNN
p4242
sbatp4243
Rp4244
(dp4245
g17
VNP
p4246
sbag5
(g6
g7
(lp4247
g5
(g6
g7
(lp4248
Vof
p4249
atp4250
Rp4251
(dp4252
g17
VIN
p4253
sbag5
(g6
g7
(lp4254
g5
(g6
g7
(lp4255
Voccurrence
p4256
atp4257
Rp4258
(dp4259
g17
VNN
p4260
sbatp4261
Rp4262
(dp4263
g17
VNP
p4264
sbatp4265
Rp4266
(dp4267
g17
VPP
p4268
sbatp4269
Rp4270
(dp4271
g17
VNP
p4272
sbatp4273
Rp4274
(dp4275
g17
VPP
p4276
sbag5
(g6
g7
(lp4277
g5
(g6
g7
(lp4278
Vas
p4279
atp4280
Rp4281
(dp4282
g17
VIN
p4283
sbag5
(g6
g7
(lp4284
g5
(g6
g7
(lp4285
g5
(g6
g7
(lp4286
Vthe
p4287
atp4288
Rp4289
(dp4290
g17
VDT
p4291
sbag5
(g6
g7
(lp4292
Vleftmost
p4293
atp4294
Rp4295
(dp4296
g17
VNN
p4297
sbatp4298
Rp4299
(dp4300
g17
VNP
p4301
sbag5
(g6
g7
(lp4302
g5
(g6
g7
(lp4303
Vof
p4304
atp4305
Rp4306
(dp4307
g17
VIN
p4308
sbag5
(g6
g7
(lp4309
g5
(g6
g7
(lp4310
Vtwo
p4311
atp4312
Rp4313
(dp4314
g17
VCD
p4315
sbag5
(g6
g7
(lp4316
Vadjectives
p4317
atp4318
Rp4319
(dp4320
g17
VNNS
p4321
sbatp4322
Rp4323
(dp4324
g17
VNP
p4325
sbatp4326
Rp4327
(dp4328
g17
VPP
p4329
sbatp4330
Rp4331
(dp4332
g17
VNP
p4333
sbatp4334
Rp4335
(dp4336
g17
VPP
p4337
sbag5
(g6
g7
(lp4338
g5
(g6
g7
(lp4339
Vas
p4340
atp4341
Rp4342
(dp4343
g17
VIN
p4344
sbag5
(g6
g7
(lp4345
g5
(g6
g7
(lp4346
g5
(g6
g7
(lp4347
g763
atp4348
Rp4349
(dp4350
g17
VDT
p4351
sbag5
(g6
g7
(lp4352
Vproportion
p4353
atp4354
Rp4355
(dp4356
g17
VNN
p4357
sbatp4358
Rp4359
(dp4360
g17
VNP
p4361
sbag5
(g6
g7
(lp4362
g5
(g6
g7
(lp4363
Vof
p4364
atp4365
Rp4366
(dp4367
g17
VIN
p4368
sbag5
(g6
g7
(lp4369
g5
(g6
g7
(lp4370
g5
(g6
g7
(lp4371
Vthe
p4372
atp4373
Rp4374
(dp4375
g17
VDT
p4376
sbag5
(g6
g7
(lp4377
Voverall
p4378
atp4379
Rp4380
(dp4381
g17
VJJ
p4382
sbag5
(g6
g7
(lp4383
Vfrequency
p4384
atp4385
Rp4386
(dp4387
g17
VNN
p4388
sbatp4389
Rp4390
(dp4391
g17
VNP
p4392
sbag5
(g6
g7
(lp4393
g5
(g6
g7
(lp4394
Vof
p4395
atp4396
Rp4397
(dp4398
g17
VIN
p4399
sbag5
(g6
g7
(lp4400
g5
(g6
g7
(lp4401
g5
(g6
g7
(lp4402
Voccurrence
p4403
atp4404
Rp4405
(dp4406
g17
VNN
p4407
sbatp4408
Rp4409
(dp4410
g17
VNP
p4411
sbag5
(g6
g7
(lp4412
g5
(g6
g7
(lp4413
Vin
p4414
atp4415
Rp4416
(dp4417
g17
VIN
p4418
sbag5
(g6
g7
(lp4419
g5
(g6
g7
(lp4420
Vmultiple-modifier
p4421
atp4422
Rp4423
(dp4424
g17
VJJ
p4425
sbag5
(g6
g7
(lp4426
Vstrings
p4427
atp4428
Rp4429
(dp4430
g17
VNNS
p4431
sbatp4432
Rp4433
(dp4434
g17
VNP
p4435
sbatp4436
Rp4437
(dp4438
g17
VPP
p4439
sbatp4440
Rp4441
(dp4442
g17
VNP
p4443
sbatp4444
Rp4445
(dp4446
g17
VPP
p4447
sbatp4448
Rp4449
(dp4450
g17
VNP
p4451
sbatp4452
Rp4453
(dp4454
g17
VPP
p4455
sbatp4456
Rp4457
(dp4458
g17
VNP
p4459
sbatp4460
Rp4461
(dp4462
g17
VPP
p4463
sbatp4464
Rp4465
(dp4466
g17
VVP
p4467
sbatp4468
Rp4469
(dp4470
g17
VNP
p4471
sbatp4472
Rp4473
(dp4474
g17
VVP
p4475
sbatp4476
Rp4477
(dp4478
g17
VFRAG
p4479
sbatp4480
Rp4481
(dp4482
g17
VROOT
p4483
sbasg172
(icmyPackage
CorE
p4484
(dp4485
g175
(lp4486
(I0
I1
tp4487
a(I1
I0
tp4488
asg179
g5
(g6
g7
(lp4489
g3921
ag4124
ag4144
atp4490
Rp4491
(dp4492
g17
g190
sbsbsg180
(icmyPackage
CorE
p4493
(dp4494
g175
(lp4495
(I1
I2
tp4496
a(I1
I32
tp4497
asg179
g5
(g6
g7
(lp4498
g4162
ag4469
atp4499
Rp4500
(dp4501
g17
g190
sbsbsg191
(icmyPackage
pattern
p4502
(dp4503
g194
I9
sg195
I1
sg196
(lp4504
(lp4505
S'consequently'
p4506
aasg201
(lp4507
I1
aI1
aI1
asg203
(lp4508
S'Her mother was seriously ill. Consequently, she left school.'
p4509
asg206
I3
sg207
(lp4510
(lp4511
S'&C'
p4512
aS'(,/;/./--)'
p4513
aa(lp4514
S'(,)'
p4515
aS'&R'
p4516
aasbsg214
(lp4517
(isxpPackage
sxpSent
p4518
(dp4519
g218
(lp4520
I11
asg220
VAdamson ( 2000 ) proposes that more subjective adjectives typically occur furthest from the noun in multiple-modifier strings such as ( hot crossed buns
p4521
sg222
I3
sg206
I47
sg223
I12
sba(isxpPackage
sxpSent
p4522
(dp4523
g218
(lp4524
I11
asg220
VWe consequently extract the LeftTendency of our adjectives, defined as the frequency of occurrence as the leftmost of two adjectives as a proportion of the overall frequency of occurrence in multiple-modifier strings
p4525
sg222
I3
sg206
I48
sg223
I12
sbasba(icmyPackage
CELink
p4526
(dp4527
g3
(lp4528
g5
(g6
g7
(lp4529
g5
(g6
g7
(lp4530
g5
(g6
g7
(lp4531
g5
(g6
g7
(lp4532
g5
(g6
g7
(lp4533
VAnother
p4534
atp4535
Rp4536
(dp4537
g17
VDT
p4538
sbag5
(g6
g7
(lp4539
Vcharacteristic
p4540
atp4541
Rp4542
(dp4543
g17
VNN
p4544
sbatp4545
Rp4546
(dp4547
g17
VNP
p4548
sbag5
(g6
g7
(lp4549
g5
(g6
g7
(lp4550
Vof
p4551
atp4552
Rp4553
(dp4554
g17
VIN
p4555
sbag5
(g6
g7
(lp4556
g5
(g6
g7
(lp4557
g5
(g6
g7
(lp4558
Vgradable
p4559
atp4560
Rp4561
(dp4562
g17
VJJ
p4563
sbag5
(g6
g7
(lp4564
Vadjectives
p4565
atp4566
Rp4567
(dp4568
g17
VNNS
p4569
sbatp4570
Rp4571
(dp4572
g17
VNP
p4573
sbag5
(g6
g7
(lp4574
g5
(g6
g7
(lp4575
Vnoted
p4576
atp4577
Rp4578
(dp4579
g17
VVBN
p4580
sbag5
(g6
g7
(lp4581
g5
(g6
g7
(lp4582
Vby
p4583
atp4584
Rp4585
(dp4586
g17
VIN
p4587
sbag5
(g6
g7
(lp4588
g5
(g6
g7
(lp4589
g5
(g6
g7
(lp4590
VWiebe
p4591
atp4592
Rp4593
(dp4594
g17
VNNP
p4595
sbatp4596
Rp4597
(dp4598
g17
VNP
p4599
sbag5
(g6
g7
(lp4600
g5
(g6
g7
(lp4601
V-LRB-
p4602
atp4603
Rp4604
(dp4605
g17
V-LRB-
p4606
sbag5
(g6
g7
(lp4607
g5
(g6
g7
(lp4608
V2000
p4609
atp4610
Rp4611
(dp4612
g17
VCD
p4613
sbatp4614
Rp4615
(dp4616
g17
VNP
p4617
sbag5
(g6
g7
(lp4618
V-RRB-
p4619
atp4620
Rp4621
(dp4622
g17
V-RRB-
p4623
sbatp4624
Rp4625
(dp4626
g17
VPRN
p4627
sbatp4628
Rp4629
(dp4630
g17
VNP
p4631
sbatp4632
Rp4633
(dp4634
g17
VPP
p4635
sbatp4636
Rp4637
(dp4638
g17
VVP
p4639
sbatp4640
Rp4641
(dp4642
g17
VNP
p4643
sbatp4644
Rp4645
(dp4646
g17
VPP
p4647
sbatp4648
Rp4649
(dp4650
g17
VNP
p4651
sbag5
(g6
g7
(lp4652
g5
(g6
g7
(lp4653
Vis
p4654
atp4655
Rp4656
(dp4657
g17
VVBZ
p4658
sbag5
(g6
g7
(lp4659
g5
(g6
g7
(lp4660
Vthat
p4661
atp4662
Rp4663
(dp4664
g17
VIN
p4665
sbag5
(g6
g7
(lp4666
g5
(g6
g7
(lp4667
g5
(g6
g7
(lp4668
Vthey
p4669
atp4670
Rp4671
(dp4672
g17
VPRP
p4673
sbatp4674
Rp4675
(dp4676
g17
VNP
p4677
sbag5
(g6
g7
(lp4678
g5
(g6
g7
(lp4679
Vadmit
p4680
atp4681
Rp4682
(dp4683
g17
VVBP
p4684
sbag5
(g6
g7
(lp4685
g5
(g6
g7
(lp4686
g5
(g6
g7
(lp4687
Vdegree
p4688
atp4689
Rp4690
(dp4691
g17
VNN
p4692
sbag5
(g6
g7
(lp4693
Vmodifiers
p4694
atp4695
Rp4696
(dp4697
g17
VNNS
p4698
sbatp4699
Rp4700
(dp4701
g17
VNP
p4702
sbag5
(g6
g7
(lp4703
g5
(g6
g7
(lp4704
g5
(g6
g7
(lp4705
V-LRB-
p4706
atp4707
Rp4708
(dp4709
g17
V-LRB-
p4710
sbag5
(g6
g7
(lp4711
g5
(g6
g7
(lp4712
Vvery/quite
p4713
atp4714
Rp4715
(dp4716
g17
VNN
p4717
sbatp4718
Rp4719
(dp4720
g17
VNP
p4721
sbag5
(g6
g7
(lp4722
g5
(g6
g7
(lp4723
Vdelicious
p4724
atp4725
Rp4726
(dp4727
g17
VVBZ
p4728
sbatp4729
Rp4730
(dp4731
g17
VVP
p4732
sbatp4733
Rp4734
(dp4735
g17
g156
sbatp4736
Rp4737
(dp4738
g17
VSBAR
p4739
sbatp4740
Rp4741
(dp4742
g17
VNP
p4743
sbatp4744
Rp4745
(dp4746
g17
VVP
p4747
sbatp4748
Rp4749
(dp4750
g17
g156
sbatp4751
Rp4752
(dp4753
g17
VSBAR
p4754
sbatp4755
Rp4756
(dp4757
g17
VVP
p4758
sbatp4759
Rp4760
(dp4761
g17
g156
sbatp4762
Rp4763
(dp4764
g17
VROOT
p4765
sbag5
(g6
g7
(lp4766
g5
(g6
g7
(lp4767
g5
(g6
g7
(lp4768
g5
(g6
g7
(lp4769
VWe
p4770
atp4771
Rp4772
(dp4773
g17
VPRP
p4774
sbatp4775
Rp4776
(dp4777
g17
VNP
p4778
sbag5
(g6
g7
(lp4779
g5
(g6
g7
(lp4780
g5
(g6
g7
(lp4781
Vtherefore
p4782
atp4783
Rp4784
(dp4785
g17
VRB
p4786
sbatp4787
Rp4788
(dp4789
g17
VADVP
p4790
sbag5
(g6
g7
(lp4791
Vextract
p4792
atp4793
Rp4794
(dp4795
g17
VVB
p4796
sbag5
(g6
g7
(lp4797
g5
(g6
g7
(lp4798
g5
(g6
g7
(lp4799
Vthe
p4800
atp4801
Rp4802
(dp4803
g17
VDT
p4804
sbag5
(g6
g7
(lp4805
Vrelative
p4806
atp4807
Rp4808
(dp4809
g17
VJJ
p4810
sbag5
(g6
g7
(lp4811
Vfrequency
p4812
atp4813
Rp4814
(dp4815
g17
VNN
p4816
sbatp4817
Rp4818
(dp4819
g17
VNP
p4820
sbag5
(g6
g7
(lp4821
g5
(g6
g7
(lp4822
Vof
p4823
atp4824
Rp4825
(dp4826
g17
VIN
p4827
sbag5
(g6
g7
(lp4828
g5
(g6
g7
(lp4829
g5
(g6
g7
(lp4830
Voccurrence
p4831
atp4832
Rp4833
(dp4834
g17
VNN
p4835
sbatp4836
Rp4837
(dp4838
g17
VNP
p4839
sbag5
(g6
g7
(lp4840
g5
(g6
g7
(lp4841
Vwith
p4842
atp4843
Rp4844
(dp4845
g17
VIN
p4846
sbag5
(g6
g7
(lp4847
g5
(g6
g7
(lp4848
Vone
p4849
atp4850
Rp4851
(dp4852
g17
VCD
p4853
sbatp4854
Rp4855
(dp4856
g17
VNP
p4857
sbatp4858
Rp4859
(dp4860
g17
VPP
p4861
sbatp4862
Rp4863
(dp4864
g17
VNP
p4865
sbatp4866
Rp4867
(dp4868
g17
VPP
p4869
sbag5
(g6
g7
(lp4870
g5
(g6
g7
(lp4871
Vof
p4872
atp4873
Rp4874
(dp4875
g17
VIN
p4876
sbag5
(g6
g7
(lp4877
g5
(g6
g7
(lp4878
g5
(g6
g7
(lp4879
g763
atp4880
Rp4881
(dp4882
g17
VDT
p4883
sbag5
(g6
g7
(lp4884
Vhand-coded
p4885
atp4886
Rp4887
(dp4888
g17
VJJ
p4889
sbag5
(g6
g7
(lp4890
Vlist
p4891
atp4892
Rp4893
(dp4894
g17
VNN
p4895
sbatp4896
Rp4897
(dp4898
g17
VNP
p4899
sbag5
(g6
g7
(lp4900
g5
(g6
g7
(lp4901
Vof
p4902
atp4903
Rp4904
(dp4905
g17
VIN
p4906
sbag5
(g6
g7
(lp4907
g5
(g6
g7
(lp4908
VEnglish
p4909
atp4910
Rp4911
(dp4912
g17
VJJ
p4913
sbag5
(g6
g7
(lp4914
Vdegree
p4915
atp4916
Rp4917
(dp4918
g17
VNN
p4919
sbag5
(g6
g7
(lp4920
Vmodifiers
p4921
atp4922
Rp4923
(dp4924
g17
VNNS
p4925
sbatp4926
Rp4927
(dp4928
g17
VNP
p4929
sbatp4930
Rp4931
(dp4932
g17
VPP
p4933
sbatp4934
Rp4935
(dp4936
g17
VNP
p4937
sbatp4938
Rp4939
(dp4940
g17
VPP
p4941
sbatp4942
Rp4943
(dp4944
g17
VNP
p4945
sbatp4946
Rp4947
(dp4948
g17
VVP
p4949
sbatp4950
Rp4951
(dp4952
g17
VFRAG
p4953
sbatp4954
Rp4955
(dp4956
g17
VROOT
p4957
sbasg172
(icmyPackage
CorE
p4958
(dp4959
g175
(lp4960
(I0
I1
tp4961
a(I1
I0
tp4962
asg179
g5
(g6
g7
(lp4963
g4542
ag4645
ag4756
ag4776
atp4964
Rp4965
(dp4966
g17
g190
sbsbsg180
(icmyPackage
CorE
p4967
(dp4968
g175
(lp4969
(I1
I2
tp4970
a(I1
I17
tp4971
asg179
g5
(g6
g7
(lp4972
g4794
ag4943
atp4973
Rp4974
(dp4975
g17
g190
sbsbsg191
(icmyPackage
pattern
p4976
(dp4977
g194
I62
sg195
I1
sg196
(lp4978
(lp4979
S'therefore'
p4980
aasg201
(lp4981
I1
aI1
aI1
asg203
(lp4982
S'He never lies; therefore, everyone likes to make friends with him.'
p4983
asg206
I1
sg207
(lp4984
(lp4985
S'&C'
p4986
aS'(,/;/./--)'
p4987
aS'(&AND)'
p4988
aa(lp4989
S'(,)'
p4990
aS'&R'
p4991
aasbsg214
(lp4992
(isxpPackage
sxpSent
p4993
(dp4994
g218
(lp4995
I12
asg220
VAnother characteristic of gradable adjectives noted by Wiebe ( 2000 ) is that they admit degree modifiers ( very/quite delicious
p4996
sg222
I3
sg206
I50
sg223
I13
sba(isxpPackage
sxpSent
p4997
(dp4998
g218
(lp4999
I12
asg220
VWe therefore extract the relative frequency of occurrence with one of a hand-coded list of English degree modifiers
p5000
sg222
I3
sg206
I51
sg223
I13
sbasba(icmyPackage
CELink
p5001
(dp5002
g3
(lp5003
g5
(g6
g7
(lp5004
g5
(g6
g7
(lp5005
g5
(g6
g7
(lp5006
g5
(g6
g7
(lp5007
g5
(g6
g7
(lp5008
VBolinger
p5009
atp5010
Rp5011
(dp5012
g17
VNNP
p5013
sbatp5014
Rp5015
(dp5016
g17
VNP
p5017
sbag5
(g6
g7
(lp5018
g5
(g6
g7
(lp5019
V-LRB-
p5020
atp5021
Rp5022
(dp5023
g17
V-LRB-
p5024
sbag5
(g6
g7
(lp5025
g5
(g6
g7
(lp5026
V1967
p5027
atp5028
Rp5029
(dp5030
g17
VCD
p5031
sbatp5032
Rp5033
(dp5034
g17
VNP
p5035
sbag5
(g6
g7
(lp5036
V-RRB-
p5037
atp5038
Rp5039
(dp5040
g17
V-RRB-
p5041
sbatp5042
Rp5043
(dp5044
g17
VPRN
p5045
sbatp5046
Rp5047
(dp5048
g17
VNP
p5049
sbag5
(g6
g7
(lp5050
g5
(g6
g7
(lp5051
Vproposed
p5052
atp5053
Rp5054
(dp5055
g17
VVBD
p5056
sbag5
(g6
g7
(lp5057
g5
(g6
g7
(lp5058
Vthat
p5059
atp5060
Rp5061
(dp5062
g17
VIN
p5063
sbag5
(g6
g7
(lp5064
g5
(g6
g7
(lp5065
g5
(g6
g7
(lp5066
Vsubjective
p5067
atp5068
Rp5069
(dp5070
g17
VJJ
p5071
sbag5
(g6
g7
(lp5072
Vadjectives
p5073
atp5074
Rp5075
(dp5076
g17
VNNS
p5077
sbatp5078
Rp5079
(dp5080
g17
VNP
p5081
sbag5
(g6
g7
(lp5082
g5
(g6
g7
(lp5083
Voccur
p5084
atp5085
Rp5086
(dp5087
g17
VVBP
p5088
sbag5
(g6
g7
(lp5089
g5
(g6
g7
(lp5090
g5
(g6
g7
(lp5091
Vin
p5092
atp5093
Rp5094
(dp5095
g17
VIN
p5096
sbag5
(g6
g7
(lp5097
g5
(g6
g7
(lp5098
g5
(g6
g7
(lp5099
Vpredicative
p5100
atp5101
Rp5102
(dp5103
g17
VJJ
p5104
sbag5
(g6
g7
(lp5105
Vconstructions
p5106
atp5107
Rp5108
(dp5109
g17
VNNS
p5110
sbatp5111
Rp5112
(dp5113
g17
VNP
p5114
sbag5
(g6
g7
(lp5115
g5
(g6
g7
(lp5116
V-LRB-
p5117
atp5118
Rp5119
(dp5120
g17
V-LRB-
p5121
sbag5
(g6
g7
(lp5122
g5
(g6
g7
(lp5123
g5
(g6
g7
(lp5124
Vthe
p5125
atp5126
Rp5127
(dp5128
g17
VDT
p5129
sbag5
(g6
g7
(lp5130
Vcake
p5131
atp5132
Rp5133
(dp5134
g17
VNN
p5135
sbatp5136
Rp5137
(dp5138
g17
VNP
p5139
sbag5
(g6
g7
(lp5140
g5
(g6
g7
(lp5141
Vis
p5142
atp5143
Rp5144
(dp5145
g17
VVBZ
p5146
sbag5
(g6
g7
(lp5147
g5
(g6
g7
(lp5148
Vsweet
p5149
atp5150
Rp5151
(dp5152
g17
VJJ
p5153
sbatp5154
Rp5155
(dp5156
g17
VADJP
p5157
sbatp5158
Rp5159
(dp5160
g17
VVP
p5161
sbatp5162
Rp5163
(dp5164
g17
g156
sbag5
(g6
g7
(lp5165
V-RRB-
p5166
atp5167
Rp5168
(dp5169
g17
V-RRB-
p5170
sbatp5171
Rp5172
(dp5173
g17
VPRN
p5174
sbatp5175
Rp5176
(dp5177
g17
VNP
p5178
sbatp5179
Rp5180
(dp5181
g17
VPP
p5182
sbag5
(g6
g7
(lp5183
g241
atp5184
Rp5185
(dp5186
g17
g241
sbag5
(g6
g7
(lp5187
g5
(g6
g7
(lp5188
Vrather
p5189
atp5190
Rp5191
(dp5192
g17
VRB
p5193
sbag5
(g6
g7
(lp5194
Vthan
p5195
atp5196
Rp5197
(dp5198
g17
VIN
p5199
sbatp5200
Rp5201
(dp5202
g17
VCONJP
p5203
sbag5
(g6
g7
(lp5204
g5
(g6
g7
(lp5205
g5
(g6
g7
(lp5206
g5
(g6
g7
(lp5207
g5
(g6
g7
(lp5208
Vattributive
p5209
atp5210
Rp5211
(dp5212
g17
VJJ
p5213
sbag5
(g6
g7
(lp5214
Vconstructions
p5215
atp5216
Rp5217
(dp5218
g17
VNNS
p5219
sbatp5220
Rp5221
(dp5222
g17
VNP
p5223
sbag5
(g6
g7
(lp5224
g5
(g6
g7
(lp5225
V-LRB-
p5226
atp5227
Rp5228
(dp5229
g17
V-LRB-
p5230
sbag5
(g6
g7
(lp5231
g5
(g6
g7
(lp5232
Vthe
p5233
atp5234
Rp5235
(dp5236
g17
VDT
p5237
sbag5
(g6
g7
(lp5238
VGerman
p5239
atp5240
Rp5241
(dp5242
g17
VJJ
p5243
sbag5
(g6
g7
(lp5244
Vcapital
p5245
atp5246
Rp5247
(dp5248
g17
VNN
p5249
sbatp5250
Rp5251
(dp5252
g17
VNP
p5253
sbag5
(g6
g7
(lp5254
V-RRB-
p5255
atp5256
Rp5257
(dp5258
g17
V-RRB-
p5259
sbatp5260
Rp5261
(dp5262
g17
VPRN
p5263
sbatp5264
Rp5265
(dp5266
g17
VNP
p5267
sbag5
(g6
g7
(lp5268
Vmore
p5269
atp5270
Rp5271
(dp5272
g17
VJJR
p5273
sbatp5274
Rp5275
(dp5276
g17
VADVP
p5277
sbag5
(g6
g7
(lp5278
g5
(g6
g7
(lp5279
Vfrequently
p5280
atp5281
Rp5282
(dp5283
g17
VRB
p5284
sbatp5285
Rp5286
(dp5287
g17
VADVP
p5288
sbag5
(g6
g7
(lp5289
Vthan
p5290
atp5291
Rp5292
(dp5293
g17
VIN
p5294
sbag5
(g6
g7
(lp5295
g5
(g6
g7
(lp5296
Vobjective
p5297
atp5298
Rp5299
(dp5300
g17
VJJ
p5301
sbag5
(g6
g7
(lp5302
Vadjectives
p5303
atp5304
Rp5305
(dp5306
g17
VNNS
p5307
sbatp5308
Rp5309
(dp5310
g17
VNP
p5311
sbatp5312
Rp5313
(dp5314
g17
VPP
p5315
sbatp5316
Rp5317
(dp5318
g17
VPP
p5319
sbatp5320
Rp5321
(dp5322
g17
VVP
p5323
sbatp5324
Rp5325
(dp5326
g17
g156
sbatp5327
Rp5328
(dp5329
g17
VSBAR
p5330
sbatp5331
Rp5332
(dp5333
g17
VVP
p5334
sbatp5335
Rp5336
(dp5337
g17
g156
sbatp5338
Rp5339
(dp5340
g17
VROOT
p5341
sbag5
(g6
g7
(lp5342
g5
(g6
g7
(lp5343
g5
(g6
g7
(lp5344
g5
(g6
g7
(lp5345
VWe
p5346
atp5347
Rp5348
(dp5349
g17
VPRP
p5350
sbatp5351
Rp5352
(dp5353
g17
VNP
p5354
sbag5
(g6
g7
(lp5355
g5
(g6
g7
(lp5356
g5
(g6
g7
(lp5357
Vtherefore
p5358
atp5359
Rp5360
(dp5361
g17
VRB
p5362
sbatp5363
Rp5364
(dp5365
g17
VADVP
p5366
sbag5
(g6
g7
(lp5367
Vextract
p5368
atp5369
Rp5370
(dp5371
g17
VVB
p5372
sbag5
(g6
g7
(lp5373
g5
(g6
g7
(lp5374
g5
(g6
g7
(lp5375
Vthe
p5376
atp5377
Rp5378
(dp5379
g17
VDT
p5380
sbag5
(g6
g7
(lp5381
Vrelative
p5382
atp5383
Rp5384
(dp5385
g17
VJJ
p5386
sbag5
(g6
g7
(lp5387
Vfrequency
p5388
atp5389
Rp5390
(dp5391
g17
VNN
p5392
sbatp5393
Rp5394
(dp5395
g17
VNP
p5396
sbag5
(g6
g7
(lp5397
g5
(g6
g7
(lp5398
Vof
p5399
atp5400
Rp5401
(dp5402
g17
VIN
p5403
sbag5
(g6
g7
(lp5404
g5
(g6
g7
(lp5405
g5
(g6
g7
(lp5406
Voccurrence
p5407
atp5408
Rp5409
(dp5410
g17
VNN
p5411
sbatp5412
Rp5413
(dp5414
g17
VNP
p5415
sbag5
(g6
g7
(lp5416
g5
(g6
g7
(lp5417
Vin
p5418
atp5419
Rp5420
(dp5421
g17
VIN
p5422
sbag5
(g6
g7
(lp5423
g5
(g6
g7
(lp5424
Vsuch
p5425
atp5426
Rp5427
(dp5428
g17
VJJ
p5429
sbag5
(g6
g7
(lp5430
Vconstructions
p5431
atp5432
Rp5433
(dp5434
g17
VNNS
p5435
sbatp5436
Rp5437
(dp5438
g17
VNP
p5439
sbatp5440
Rp5441
(dp5442
g17
VPP
p5443
sbatp5444
Rp5445
(dp5446
g17
VNP
p5447
sbatp5448
Rp5449
(dp5450
g17
VPP
p5451
sbatp5452
Rp5453
(dp5454
g17
VNP
p5455
sbatp5456
Rp5457
(dp5458
g17
VVP
p5459
sbatp5460
Rp5461
(dp5462
g17
VFRAG
p5463
sbatp5464
Rp5465
(dp5466
g17
VROOT
p5467
sbasg172
(icmyPackage
CorE
p5468
(dp5469
g175
(lp5470
(I0
I1
tp5471
a(I1
I0
tp5472
asg179
g5
(g6
g7
(lp5473
g5043
ag5332
ag5352
atp5474
Rp5475
(dp5476
g17
g190
sbsbsg180
(icmyPackage
CorE
p5477
(dp5478
g175
(lp5479
(I1
I2
tp5480
a(I1
I10
tp5481
asg179
g5
(g6
g7
(lp5482
g5370
ag5453
atp5483
Rp5484
(dp5485
g17
g190
sbsbsg191
g4976
sg214
(lp5486
(isxpPackage
sxpSent
p5487
(dp5488
g218
(lp5489
I13
asg220
VBolinger ( 1967 ) proposed that subjective adjectives occur in predicative constructions ( the cake is sweet ), rather than attributive constructions ( the German capital ) more frequently than objective adjectives
p5490
sg222
I3
sg206
I53
sg223
I14
sba(isxpPackage
sxpSent
p5491
(dp5492
g218
(lp5493
I13
asg220
VWe therefore extract the relative frequency of occurrence in such constructions
p5494
sg222
I3
sg206
I54
sg223
I14
sbasba(icmyPackage
CELink
p5495
(dp5496
g3
(lp5497
g5
(g6
g7
(lp5498
g5
(g6
g7
(lp5499
g5
(g6
g7
(lp5500
g5
(g6
g7
(lp5501
VMany
p5502
atp5503
Rp5504
(dp5505
g17
VJJ
p5506
sbag5
(g6
g7
(lp5507
Vadjectives
p5508
atp5509
Rp5510
(dp5511
g17
VNNS
p5512
sbatp5513
Rp5514
(dp5515
g17
VNP
p5516
sbag5
(g6
g7
(lp5517
g5
(g6
g7
(lp5518
g5
(g6
g7
(lp5519
Valso
p5520
atp5521
Rp5522
(dp5523
g17
VRB
p5524
sbatp5525
Rp5526
(dp5527
g17
VADVP
p5528
sbag5
(g6
g7
(lp5529
Vfunction
p5530
atp5531
Rp5532
(dp5533
g17
VVBP
p5534
sbag5
(g6
g7
(lp5535
g5
(g6
g7
(lp5536
Vas
p5537
atp5538
Rp5539
(dp5540
g17
VIN
p5541
sbag5
(g6
g7
(lp5542
g5
(g6
g7
(lp5543
g5
(g6
g7
(lp5544
Vnouns
p5545
atp5546
Rp5547
(dp5548
g17
VCD
p5549
sbag5
(g6
g7
(lp5550
V-LRB-
p5551
atp5552
Rp5553
(dp5554
g17
V-LRB-
p5555
sbag5
(g6
g7
(lp5556
Vsweet
p5557
atp5558
Rp5559
(dp5560
g17
VJJ
p5561
sbag5
(g6
g7
(lp5562
Vcake
p5563
atp5564
Rp5565
(dp5566
g17
VNN
p5567
sbag5
(g6
g7
(lp5568
Vvs
p5569
atp5570
Rp5571
(dp5572
g17
VNN
p5573
sbag5
(g6
g7
(lp5574
Vboiled
p5575
atp5576
Rp5577
(dp5578
g17
VNN
p5579
sbatp5580
Rp5581
(dp5582
g17
VNP
p5583
sbag5
(g6
g7
(lp5584
g5
(g6
g7
(lp5585
Vsweet
p5586
atp5587
Rp5588
(dp5589
g17
VJJ
p5590
sbatp5591
Rp5592
(dp5593
g17
VADJP
p5594
sbatp5595
Rp5596
(dp5597
g17
VNP
p5598
sbatp5599
Rp5600
(dp5601
g17
VPP
p5602
sbatp5603
Rp5604
(dp5605
g17
VVP
p5606
sbatp5607
Rp5608
(dp5609
g17
g156
sbatp5610
Rp5611
(dp5612
g17
VROOT
p5613
sbag5
(g6
g7
(lp5614
g5
(g6
g7
(lp5615
g5
(g6
g7
(lp5616
g5
(g6
g7
(lp5617
g5
(g6
g7
(lp5618
VUnlike
p5619
atp5620
Rp5621
(dp5622
g17
VIN
p5623
sbag5
(g6
g7
(lp5624
g5
(g6
g7
(lp5625
Vnouns
p5626
atp5627
Rp5628
(dp5629
g17
VNNS
p5630
sbatp5631
Rp5632
(dp5633
g17
VNP
p5634
sbatp5635
Rp5636
(dp5637
g17
VPP
p5638
sbag5
(g6
g7
(lp5639
g241
atp5640
Rp5641
(dp5642
g17
g241
sbag5
(g6
g7
(lp5643
g5
(g6
g7
(lp5644
Vmany
p5645
atp5646
Rp5647
(dp5648
g17
VJJ
p5649
sbag5
(g6
g7
(lp5650
Vadjectives
p5651
atp5652
Rp5653
(dp5654
g17
VNNS
p5655
sbatp5656
Rp5657
(dp5658
g17
VNP
p5659
sbag5
(g6
g7
(lp5660
g5
(g6
g7
(lp5661
Vare
p5662
atp5663
Rp5664
(dp5665
g17
VVBP
p5666
sbag5
(g6
g7
(lp5667
g5
(g6
g7
(lp5668
Vinherently
p5669
atp5670
Rp5671
(dp5672
g17
VRB
p5673
sbag5
(g6
g7
(lp5674
Vsubjective
p5675
atp5676
Rp5677
(dp5678
g17
VJJ
p5679
sbatp5680
Rp5681
(dp5682
g17
VADJP
p5683
sbatp5684
Rp5685
(dp5686
g17
VVP
p5687
sbatp5688
Rp5689
(dp5690
g17
g156
sbag5
(g6
g7
(lp5691
g241
atp5692
Rp5693
(dp5694
g17
g241
sbag5
(g6
g7
(lp5695
Vand
p5696
atp5697
Rp5698
(dp5699
g17
VCC
p5700
sbag5
(g6
g7
(lp5701
g5
(g6
g7
(lp5702
g5
(g6
g7
(lp5703
g5
(g6
g7
(lp5704
Vthe
p5705
atp5706
Rp5707
(dp5708
g17
VDT
p5709
sbag5
(g6
g7
(lp5710
Vnumber
p5711
atp5712
Rp5713
(dp5714
g17
VNN
p5715
sbatp5716
Rp5717
(dp5718
g17
VNP
p5719
sbag5
(g6
g7
(lp5720
g5
(g6
g7
(lp5721
Vof
p5722
atp5723
Rp5724
(dp5725
g17
VIN
p5726
sbag5
(g6
g7
(lp5727
g5
(g6
g7
(lp5728
g5
(g6
g7
(lp5729
Vadjectives
p5730
atp5731
Rp5732
(dp5733
g17
VNNS
p5734
sbatp5735
Rp5736
(dp5737
g17
VNP
p5738
sbag5
(g6
g7
(lp5739
g5
(g6
g7
(lp5740
Vin
p5741
atp5742
Rp5743
(dp5744
g17
VIN
p5745
sbag5
(g6
g7
(lp5746
g5
(g6
g7
(lp5747
Vtexts
p5748
atp5749
Rp5750
(dp5751
g17
VNNS
p5752
sbatp5753
Rp5754
(dp5755
g17
VNP
p5756
sbatp5757
Rp5758
(dp5759
g17
VPP
p5760
sbatp5761
Rp5762
(dp5763
g17
VNP
p5764
sbatp5765
Rp5766
(dp5767
g17
VPP
p5768
sbatp5769
Rp5770
(dp5771
g17
VNP
p5772
sbag5
(g6
g7
(lp5773
g5
(g6
g7
(lp5774
Vcorrelates
p5775
atp5776
Rp5777
(dp5778
g17
VVBZ
p5779
sbag5
(g6
g7
(lp5780
g5
(g6
g7
(lp5781
Vwith
p5782
atp5783
Rp5784
(dp5785
g17
VIN
p5786
sbag5
(g6
g7
(lp5787
g5
(g6
g7
(lp5788
g5
(g6
g7
(lp5789
Vhuman
p5790
atp5791
Rp5792
(dp5793
g17
VJJ
p5794
sbag5
(g6
g7
(lp5795
Vjudgements
p5796
atp5797
Rp5798
(dp5799
g17
VNNS
p5800
sbatp5801
Rp5802
(dp5803
g17
VNP
p5804
sbag5
(g6
g7
(lp5805
g5
(g6
g7
(lp5806
Vof
p5807
atp5808
Rp5809
(dp5810
g17
VIN
p5811
sbag5
(g6
g7
(lp5812
g5
(g6
g7
(lp5813
Vtheir
p5814
atp5815
Rp5816
(dp5817
g17
VPRP$
p5818
sbag5
(g6
g7
(lp5819
Vsubjectivity
p5820
atp5821
Rp5822
(dp5823
g17
VJJ
p5824
sbag5
(g6
g7
(lp5825
g5
(g6
g7
(lp5826
V-LSB-
p5827
atp5828
Rp5829
(dp5830
g17
VCD
p5831
sbag5
(g6
g7
(lp5832
V12
p5833
atp5834
Rp5835
(dp5836
g17
VCD
p5837
sbatp5838
Rp5839
(dp5840
g17
VQP
p5841
sbag5
(g6
g7
(lp5842
V-RSB-
p5843
atp5844
Rp5845
(dp5846
g17
VNNS
p5847
sbatp5848
Rp5849
(dp5850
g17
VNP
p5851
sbatp5852
Rp5853
(dp5854
g17
VPP
p5855
sbatp5856
Rp5857
(dp5858
g17
VNP
p5859
sbatp5860
Rp5861
(dp5862
g17
VPP
p5863
sbatp5864
Rp5865
(dp5866
g17
VVP
p5867
sbatp5868
Rp5869
(dp5870
g17
g156
sbatp5871
Rp5872
(dp5873
g17
g156
sbatp5874
Rp5875
(dp5876
g17
VROOT
p5877
sbasg172
(icmyPackage
CorE
p5878
(dp5879
g175
(lp5880
(I0
I5
tp5881
a(I1
I23
tp5882
asg179
g5
(g6
g7
(lp5883
g5596
ag5689
ag5693
ag5698
ag5770
ag5777
ag5784
ag5802
ag5809
ag5816
ag5822
ag5829
atp5884
Rp5885
(dp5886
g17
g190
sbsbsg180
(icmyPackage
CorE
p5887
(dp5888
g175
(lp5889
(I0
I0
tp5890
a(I0
I3
tp5891
asg179
g5
(g6
g7
(lp5892
g5514
ag5526
ag5532
atp5893
Rp5894
(dp5895
g17
g190
sbsbsg191
g2750
sg214
(lp5896
(isxpPackage
sxpSent
p5897
(dp5898
g218
(lp5899
I14
asg220
VMany adjectives also function as nouns ( sweet cake vs boiled sweet
p5900
sg222
I3
sg206
I56
sg223
I15
sba(isxpPackage
sxpSent
p5901
(dp5902
g218
(lp5903
I14
aI15
asg220
VUnlike nouns, many adjectives are inherently subjective, and the number of adjectives in texts correlates with human judgements of their subjectivity [ 12 ]
p5904
sg222
I3
sg206
I57
sg223
I15
sbasba(icmyPackage
CELink
p5905
(dp5906
g3
(lp5907
g5875
ag5
(g6
g7
(lp5908
g5
(g6
g7
(lp5909
g5
(g6
g7
(lp5910
g5
(g6
g7
(lp5911
VWe
p5912
atp5913
Rp5914
(dp5915
g17
VPRP
p5916
sbatp5917
Rp5918
(dp5919
g17
VNP
p5920
sbag5
(g6
g7
(lp5921
g5
(g6
g7
(lp5922
g5
(g6
g7
(lp5923
Vtherefore
p5924
atp5925
Rp5926
(dp5927
g17
VRB
p5928
sbatp5929
Rp5930
(dp5931
g17
VADVP
p5932
sbag5
(g6
g7
(lp5933
g5
(g6
g7
(lp5934
g5
(g6
g7
(lp5935
Vextract
p5936
atp5937
Rp5938
(dp5939
g17
VVB
p5940
sbag5
(g6
g7
(lp5941
g5
(g6
g7
(lp5942
g5
(g6
g7
(lp5943
g5
(g6
g7
(lp5944
Vthe
p5945
atp5946
Rp5947
(dp5948
g17
VDT
p5949
sbag5
(g6
g7
(lp5950
Vfrequency
p5951
atp5952
Rp5953
(dp5954
g17
VNN
p5955
sbatp5956
Rp5957
(dp5958
g17
VNP
p5959
sbag5
(g6
g7
(lp5960
g5
(g6
g7
(lp5961
g5
(g6
g7
(lp5962
Vwith
p5963
atp5964
Rp5965
(dp5966
g17
VIN
p5967
sbag5
(g6
g7
(lp5968
g5
(g6
g7
(lp5969
Vwhich
p5970
atp5971
Rp5972
(dp5973
g17
VWDT
p5974
sbatp5975
Rp5976
(dp5977
g17
VWHNP
p5978
sbatp5979
Rp5980
(dp5981
g17
VWHPP
p5982
sbag5
(g6
g7
(lp5983
g5
(g6
g7
(lp5984
g5
(g6
g7
(lp5985
Vconcepts
p5986
atp5987
Rp5988
(dp5989
g17
VNNS
p5990
sbatp5991
Rp5992
(dp5993
g17
VNP
p5994
sbag5
(g6
g7
(lp5995
g5
(g6
g7
(lp5996
Vare
p5997
atp5998
Rp5999
(dp6000
g17
VVBP
p6001
sbag5
(g6
g7
(lp6002
g5
(g6
g7
(lp6003
Vtagged
p6004
atp6005
Rp6006
(dp6007
g17
VVBN
p6008
sbag5
(g6
g7
(lp6009
g5
(g6
g7
(lp6010
Vas
p6011
atp6012
Rp6013
(dp6014
g17
VIN
p6015
sbag5
(g6
g7
(lp6016
g5
(g6
g7
(lp6017
Vadjectives
p6018
atp6019
Rp6020
(dp6021
g17
VNNS
p6022
sbatp6023
Rp6024
(dp6025
g17
VNP
p6026
sbatp6027
Rp6028
(dp6029
g17
VPP
p6030
sbag5
(g6
g7
(lp6031
g5
(g6
g7
(lp6032
Vrelative
p6033
atp6034
Rp6035
(dp6036
g17
VJJ
p6037
sbag5
(g6
g7
(lp6038
g5
(g6
g7
(lp6039
Vto
p6040
atp6041
Rp6042
(dp6043
g17
VTO
p6044
sbag5
(g6
g7
(lp6045
g5
(g6
g7
(lp6046
Vas
p6047
atp6048
Rp6049
(dp6050
g17
VIN
p6051
sbag5
(g6
g7
(lp6052
g5
(g6
g7
(lp6053
g5
(g6
g7
(lp6054
Vnouns
p6055
atp6056
Rp6057
(dp6058
g17
VNNS
p6059
sbatp6060
Rp6061
(dp6062
g17
VNP
p6063
sbag5
(g6
g7
(lp6064
g241
atp6065
Rp6066
(dp6067
g17
g241
sbag5
(g6
g7
(lp6068
g5
(g6
g7
(lp6069
Von
p6070
atp6071
Rp6072
(dp6073
g17
VIN
p6074
sbag5
(g6
g7
(lp6075
g5
(g6
g7
(lp6076
g5
(g6
g7
(lp6077
Vthe
p6078
atp6079
Rp6080
(dp6081
g17
VDT
p6082
sbag5
(g6
g7
(lp6083
Vassumption
p6084
atp6085
Rp6086
(dp6087
g17
VNN
p6088
sbatp6089
Rp6090
(dp6091
g17
VNP
p6092
sbag5
(g6
g7
(lp6093
g5
(g6
g7
(lp6094
g5
(g6
g7
(lp6095
g5
(g6
g7
(lp6096
Vthat
p6097
atp6098
Rp6099
(dp6100
g17
VDT
p6101
sbag5
(g6
g7
(lp6102
g2647
atp6103
Rp6104
(dp6105
g17
VNN
p6106
sbag5
(g6
g7
(lp6107
g2653
atp6108
Rp6109
(dp6110
g17
VPOS
p6111
sbatp6112
Rp6113
(dp6114
g17
VNP
p6115
sbag5
(g6
g7
(lp6116
V\u005c
p6117
atp6118
Rp6119
(dp6120
g17
VJJ
p6121
sbag5
(g6
g7
(lp6122
Vu2018
p6123
atp6124
Rp6125
(dp6126
g17
VNNS
p6127
sbag5
(g6
g7
(lp6128
g2653
atp6129
Rp6130
(dp6131
g17
VPOS
p6132
sbatp6133
Rp6134
(dp6135
g17
VNP
p6136
sbag5
(g6
g7
(lp6137
Vpure
p6138
atp6139
Rp6140
(dp6141
g17
VJJ
p6142
sbag5
(g6
g7
(lp6143
g2647
atp6144
Rp6145
(dp6146
g17
VNN
p6147
sbatp6148
Rp6149
(dp6150
g17
VNP
p6151
sbatp6152
Rp6153
(dp6154
g17
VNP
p6155
sbatp6156
Rp6157
(dp6158
g17
VPP
p6159
sbag5
(g6
g7
(lp6160
g2653
atp6161
Rp6162
(dp6163
g17
V''
p6164
sbag5
(g6
g7
(lp6165
g5
(g6
g7
(lp6166
g5
(g6
g7
(lp6167
V\u005c
p6168
atp6169
Rp6170
(dp6171
g17
VNNP
p6172
sbag5
(g6
g7
(lp6173
Vu2019
p6174
atp6175
Rp6176
(dp6177
g17
VNNP
p6178
sbag5
(g6
g7
(lp6179
g2653
atp6180
Rp6181
(dp6182
g17
VPOS
p6183
sbatp6184
Rp6185
(dp6186
g17
VNP
p6187
sbag5
(g6
g7
(lp6188
Vadjectives
p6189
atp6190
Rp6191
(dp6192
g17
VNNS
p6193
sbatp6194
Rp6195
(dp6196
g17
VNP
p6197
sbag5
(g6
g7
(lp6198
g5
(g6
g7
(lp6199
Vare
p6200
atp6201
Rp6202
(dp6203
g17
VVBP
p6204
sbag5
(g6
g7
(lp6205
g5
(g6
g7
(lp6206
Von
p6207
atp6208
Rp6209
(dp6210
g17
VIN
p6211
sbag5
(g6
g7
(lp6212
g5
(g6
g7
(lp6213
Vaverage
p6214
atp6215
Rp6216
(dp6217
g17
VNN
p6218
sbatp6219
Rp6220
(dp6221
g17
VNP
p6222
sbatp6223
Rp6224
(dp6225
g17
VPP
p6226
sbatp6227
Rp6228
(dp6229
g17
VVP
p6230
sbatp6231
Rp6232
(dp6233
g17
g156
sbatp6234
Rp6235
(dp6236
g17
VSBAR
p6237
sbatp6238
Rp6239
(dp6240
g17
VPP
p6241
sbatp6242
Rp6243
(dp6244
g17
VADVP
p6245
sbatp6246
Rp6247
(dp6248
g17
VVP
p6249
sbatp6250
Rp6251
(dp6252
g17
VVP
p6253
sbatp6254
Rp6255
(dp6256
g17
g156
sbatp6257
Rp6258
(dp6259
g17
VSBAR
p6260
sbatp6261
Rp6262
(dp6263
g17
VNP
p6264
sbag5
(g6
g7
(lp6265
g5
(g6
g7
(lp6266
Vmore
p6267
atp6268
Rp6269
(dp6270
g17
VRBR
p6271
sbag5
(g6
g7
(lp6272
Vsubjective
p6273
atp6274
Rp6275
(dp6276
g17
VJJ
p6277
sbag5
(g6
g7
(lp6278
g5
(g6
g7
(lp6279
Vthan
p6280
atp6281
Rp6282
(dp6283
g17
VIN
p6284
sbag5
(g6
g7
(lp6285
g5
(g6
g7
(lp6286
Vnominal-style
p6287
atp6288
Rp6289
(dp6290
g17
VJJ
p6291
sbag5
(g6
g7
(lp6292
Vadjectives
p6293
atp6294
Rp6295
(dp6296
g17
VNNS
p6297
sbatp6298
Rp6299
(dp6300
g17
VNP
p6301
sbatp6302
Rp6303
(dp6304
g17
VPP
p6305
sbatp6306
Rp6307
(dp6308
g17
VADJP
p6309
sbatp6310
Rp6311
(dp6312
g17
g156
sbatp6313
Rp6314
(dp6315
g17
VVP
p6316
sbatp6317
Rp6318
(dp6319
g17
g156
sbatp6320
Rp6321
(dp6322
g17
VVP
p6323
sbatp6324
Rp6325
(dp6326
g17
g156
sbatp6327
Rp6328
(dp6329
g17
VROOT
p6330
sbasg172
(icmyPackage
CorE
p6331
(dp6332
g175
(lp6333
(I0
I1
tp6334
a(I1
I0
tp6335
asg179
g5
(g6
g7
(lp6336
g5632
ag5641
ag5657
ag5685
ag5693
ag5698
ag5869
ag5918
atp6337
Rp6338
(dp6339
g17
g190
sbsbsg180
(icmyPackage
CorE
p6340
(dp6341
g175
(lp6342
(I1
I2
tp6343
a(I1
I40
tp6344
asg179
g6318
sbsg191
g4976
sg214
(lp6345
g5901
a(isxpPackage
sxpSent
p6346
(dp6347
g218
(lp6348
I15
asg220
VWe therefore extract the frequency with which concepts are tagged as adjectives relative to as nouns, on the assumption that u'\u005cu2018' pure u'\u005cu2019' adjectives are on average more subjective than nominal-style adjectives
p6349
sg222
I3
sg206
I58
sg223
I15
sbasba(icmyPackage
CELink
p6350
(dp6351
g3
(lp6352
g5
(g6
g7
(lp6353
g5
(g6
g7
(lp6354
g5
(g6
g7
(lp6355
g5
(g6
g7
(lp6356
VSince
p6357
atp6358
Rp6359
(dp6360
g17
VIN
p6361
sbag5
(g6
g7
(lp6362
g5
(g6
g7
(lp6363
g5
(g6
g7
(lp6364
Veach
p6365
atp6366
Rp6367
(dp6368
g17
VDT
p6369
sbatp6370
Rp6371
(dp6372
g17
VNP
p6373
sbag5
(g6
g7
(lp6374
g5
(g6
g7
(lp6375
Vof
p6376
atp6377
Rp6378
(dp6379
g17
VIN
p6380
sbag5
(g6
g7
(lp6381
g5
(g6
g7
(lp6382
Vthe
p6383
atp6384
Rp6385
(dp6386
g17
VDT
p6387
sbag5
(g6
g7
(lp6388
Vsix
p6389
atp6390
Rp6391
(dp6392
g17
VCD
p6393
sbag5
(g6
g7
(lp6394
Vfeatures
p6395
atp6396
Rp6397
(dp6398
g17
VNNS
p6399
sbatp6400
Rp6401
(dp6402
g17
VNP
p6403
sbatp6404
Rp6405
(dp6406
g17
VPP
p6407
sbatp6408
Rp6409
(dp6410
g17
VNP
p6411
sbatp6412
Rp6413
(dp6414
g17
VPP
p6415
sbag5
(g6
g7
(lp6416
g5
(g6
g7
(lp6417
Vtakes
p6418
atp6419
Rp6420
(dp6421
g17
VVBZ
p6422
sbag5
(g6
g7
(lp6423
g5
(g6
g7
(lp6424
g5
(g6
g7
(lp6425
g5
(g6
g7
(lp6426
Vvalues
p6427
atp6428
Rp6429
(dp6430
g17
VNNS
p6431
sbatp6432
Rp6433
(dp6434
g17
VNP
p6435
sbag5
(g6
g7
(lp6436
g5
(g6
g7
(lp6437
Von
p6438
atp6439
Rp6440
(dp6441
g17
VIN
p6442
sbag5
(g6
g7
(lp6443
g5
(g6
g7
(lp6444
V-LSB-
p6445
atp6446
Rp6447
(dp6448
g17
VNNP
p6449
sbag5
(g6
g7
(lp6450
V0
p6451
atp6452
Rp6453
(dp6454
g17
VCD
p6455
sbag5
(g6
g7
(lp6456
g241
atp6457
Rp6458
(dp6459
g17
g241
sbag5
(g6
g7
(lp6460
g1845
atp6461
Rp6462
(dp6463
g17
VCD
p6464
sbatp6465
Rp6466
(dp6467
g17
VNP
p6468
sbatp6469
Rp6470
(dp6471
g17
VPP
p6472
sbatp6473
Rp6474
(dp6475
g17
VNP
p6476
sbag5
(g6
g7
(lp6477
g5
(g6
g7
(lp6478
V-RSB-
p6479
atp6480
Rp6481
(dp6482
g17
VVB
p6483
sbag5
(g6
g7
(lp6484
g241
atp6485
Rp6486
(dp6487
g17
g241
sbag5
(g6
g7
(lp6488
g5
(g6
g7
(lp6489
g5
(g6
g7
(lp6490
Vwe
p6491
atp6492
Rp6493
(dp6494
g17
VPRP
p6495
sbatp6496
Rp6497
(dp6498
g17
VNP
p6499
sbag5
(g6
g7
(lp6500
g5
(g6
g7
(lp6501
Vdefine
p6502
atp6503
Rp6504
(dp6505
g17
VVB
p6506
sbag5
(g6
g7
(lp6507
g5
(g6
g7
(lp6508
g5
(g6
g7
(lp6509
g5
(g6
g7
(lp6510
Vthe
p6511
atp6512
Rp6513
(dp6514
g17
VDT
p6515
sbag5
(g6
g7
(lp6516
Voverall
p6517
atp6518
Rp6519
(dp6520
g17
VJJ
p6521
sbag5
(g6
g7
(lp6522
Vsubjectivity
p6523
atp6524
Rp6525
(dp6526
g17
VNN
p6527
sbatp6528
Rp6529
(dp6530
g17
VNP
p6531
sbag5
(g6
g7
(lp6532
g5
(g6
g7
(lp6533
Vof
p6534
atp6535
Rp6536
(dp6537
g17
VIN
p6538
sbag5
(g6
g7
(lp6539
g5
(g6
g7
(lp6540
Van
p6541
atp6542
Rp6543
(dp6544
g17
VDT
p6545
sbag5
(g6
g7
(lp6546
Vadjective
p6547
atp6548
Rp6549
(dp6550
g17
VNN
p6551
sbatp6552
Rp6553
(dp6554
g17
VNP
p6555
sbatp6556
Rp6557
(dp6558
g17
VPP
p6559
sbag5
(g6
g7
(lp6560
g5
(g6
g7
(lp6561
g763
atp6562
Rp6563
(dp6564
g17
VSYM
p6565
sbatp6566
Rp6567
(dp6568
g17
VX
p6569
sbatp6570
Rp6571
(dp6572
g17
VNP
p6573
sbag5
(g6
g7
(lp6574
g5
(g6
g7
(lp6575
Vwith
p6576
atp6577
Rp6578
(dp6579
g17
VIN
p6580
sbag5
(g6
g7
(lp6581
g5
(g6
g7
(lp6582
Vfeature
p6583
atp6584
Rp6585
(dp6586
g17
VNN
p6587
sbag5
(g6
g7
(lp6588
Vvector
p6589
atp6590
Rp6591
(dp6592
g17
VNN
p6593
sbag5
(g6
g7
(lp6594
g2647
atp6595
Rp6596
(dp6597
g17
VNN
p6598
sbatp6599
Rp6600
(dp6601
g17
VNP
p6602
sbatp6603
Rp6604
(dp6605
g17
VPP
p6606
sbag5
(g6
g7
(lp6607
g2653
atp6608
Rp6609
(dp6610
g17
V''
p6611
sbag5
(g6
g7
(lp6612
g5
(g6
g7
(lp6613
g5
(g6
g7
(lp6614
g5
(g6
g7
(lp6615
g5
(g6
g7
(lp6616
V\u005c
p6617
atp6618
Rp6619
(dp6620
g17
VNNP
p6621
sbag5
(g6
g7
(lp6622
Vud835
p6623
atp6624
Rp6625
(dp6626
g17
VNNP
p6627
sbag5
(g6
g7
(lp6628
g2653
atp6629
Rp6630
(dp6631
g17
VPOS
p6632
sbatp6633
Rp6634
(dp6635
g17
VNP
p6636
sbag5
(g6
g7
(lp6637
g2647
atp6638
Rp6639
(dp6640
g17
VNN
p6641
sbag5
(g6
g7
(lp6642
g2653
atp6643
Rp6644
(dp6645
g17
VPOS
p6646
sbatp6647
Rp6648
(dp6649
g17
VNP
p6650
sbag5
(g6
g7
(lp6651
V\u005c
p6652
atp6653
Rp6654
(dp6655
g17
VNNP
p6656
sbag5
(g6
g7
(lp6657
Vudc2c
p6658
atp6659
Rp6660
(dp6661
g17
VNNP
p6662
sbag5
(g6
g7
(lp6663
g2653
atp6664
Rp6665
(dp6666
g17
V''
p6667
sbatp6668
Rp6669
(dp6670
g17
VNP
p6671
sbag5
(g6
g7
(lp6672
g5
(g6
g7
(lp6673
g5
(g6
g7
(lp6674
g5
(g6
g7
(lp6675
g763
atp6676
Rp6677
(dp6678
g17
VDT
p6679
sbag5
(g6
g7
(lp6680
V=
p6681
atp6682
Rp6683
(dp6684
g17
VNNP
p6685
sbag5
(g6
g7
(lp6686
V-LSB-
p6687
atp6688
Rp6689
(dp6690
g17
VNNP
p6691
sbatp6692
Rp6693
(dp6694
g17
VNP
p6695
sbag5
(g6
g7
(lp6696
g5
(g6
g7
(lp6697
g2684
atp6698
Rp6699
(dp6700
g17
VVBZ
p6701
sbag5
(g6
g7
(lp6702
g5
(g6
g7
(lp6703
g1845
atp6704
Rp6705
(dp6706
g17
VCD
p6707
sbatp6708
Rp6709
(dp6710
g17
VNP
p6711
sbatp6712
Rp6713
(dp6714
g17
VVP
p6715
sbatp6716
Rp6717
(dp6718
g17
g156
sbatp6719
Rp6720
(dp6721
g17
VSBAR
p6722
sbatp6723
Rp6724
(dp6725
g17
VNP
p6726
sbatp6727
Rp6728
(dp6729
g17
VNP
p6730
sbatp6731
Rp6732
(dp6733
g17
VVP
p6734
sbatp6735
Rp6736
(dp6737
g17
g156
sbatp6738
Rp6739
(dp6740
g17
VVP
p6741
sbatp6742
Rp6743
(dp6744
g17
g156
sbatp6745
Rp6746
(dp6747
g17
VVP
p6748
sbag5
(g6
g7
(lp6749
g5
(g6
g7
(lp6750
g5
(g6
g7
(lp6751
g5
(g6
g7
(lp6752
g763
atp6753
Rp6754
(dp6755
g17
VDT
p6756
sbag5
(g6
g7
(lp6757
g2647
atp6758
Rp6759
(dp6760
g17
VNN
p6761
sbag5
(g6
g7
(lp6762
g2653
atp6763
Rp6764
(dp6765
g17
VPOS
p6766
sbatp6767
Rp6768
(dp6769
g17
VNP
p6770
sbag5
(g6
g7
(lp6771
V\u005c
p6772
atp6773
Rp6774
(dp6775
g17
VJJ
p6776
sbag5
(g6
g7
(lp6777
g5
(g6
g7
(lp6778
Vu2062
p6779
atp6780
Rp6781
(dp6782
g17
VNNP
p6783
sbag5
(g6
g7
(lp6784
g2653
atp6785
Rp6786
(dp6787
g17
VPOS
p6788
sbatp6789
Rp6790
(dp6791
g17
VNP
p6792
sbag5
(g6
g7
(lp6793
g2647
atp6794
Rp6795
(dp6796
g17
VNN
p6797
sbag5
(g6
g7
(lp6798
g2653
atp6799
Rp6800
(dp6801
g17
V''
p6802
sbatp6803
Rp6804
(dp6805
g17
VNP
p6806
sbag5
(g6
g7
(lp6807
g5
(g6
g7
(lp6808
V\u005c
p6809
atp6810
Rp6811
(dp6812
g17
VVBG
p6813
sbag5
(g6
g7
(lp6814
g5
(g6
g7
(lp6815
g5
(g6
g7
(lp6816
g5
(g6
g7
(lp6817
g5
(g6
g7
(lp6818
Vu2026
p6819
atp6820
Rp6821
(dp6822
g17
VNNP
p6823
sbag5
(g6
g7
(lp6824
g2653
atp6825
Rp6826
(dp6827
g17
VPOS
p6828
sbatp6829
Rp6830
(dp6831
g17
VNP
p6832
sbag5
(g6
g7
(lp6833
g2647
atp6834
Rp6835
(dp6836
g17
VNN
p6837
sbag5
(g6
g7
(lp6838
g2653
atp6839
Rp6840
(dp6841
g17
VPOS
p6842
sbatp6843
Rp6844
(dp6845
g17
VNP
p6846
sbag5
(g6
g7
(lp6847
V\u005c
p6848
atp6849
Rp6850
(dp6851
g17
VNNP
p6852
sbag5
(g6
g7
(lp6853
Vu2062
p6854
atp6855
Rp6856
(dp6857
g17
VNNP
p6858
sbag5
(g6
g7
(lp6859
g2653
atp6860
Rp6861
(dp6862
g17
V''
p6863
sbatp6864
Rp6865
(dp6866
g17
VNP
p6867
sbag5
(g6
g7
(lp6868
g5
(g6
g7
(lp6869
g5
(g6
g7
(lp6870
g5
(g6
g7
(lp6871
g2684
atp6872
Rp6873
(dp6874
g17
VVBZ
p6875
sbag5
(g6
g7
(lp6876
g5
(g6
g7
(lp6877
V6
p6878
atp6879
Rp6880
(dp6881
g17
VCD
p6882
sbatp6883
Rp6884
(dp6885
g17
VNP
p6886
sbag5
(g6
g7
(lp6887
g5
(g6
g7
(lp6888
g5
(g6
g7
(lp6889
g763
atp6890
Rp6891
(dp6892
g17
VDT
p6893
sbag5
(g6
g7
(lp6894
V-RSB-
p6895
atp6896
Rp6897
(dp6898
g17
VNN
p6899
sbatp6900
Rp6901
(dp6902
g17
VNP
p6903
sbag5
(g6
g7
(lp6904
Vas
p6905
atp6906
Rp6907
(dp6908
g17
VRB
p6909
sbatp6910
Rp6911
(dp6912
g17
VADVP
p6913
sbatp6914
Rp6915
(dp6916
g17
VVP
p6917
sbatp6918
Rp6919
(dp6920
g17
g156
sbatp6921
Rp6922
(dp6923
g17
VSBAR
p6924
sbatp6925
Rp6926
(dp6927
g17
VNP
p6928
sbatp6929
Rp6930
(dp6931
g17
VVP
p6932
sbatp6933
Rp6934
(dp6935
g17
VNP
p6936
sbatp6937
Rp6938
(dp6939
g17
VSINV
p6940
sbatp6941
Rp6942
(dp6943
g17
VROOT
p6944
sbasg172
(icmyPackage
CorE
p6945
(dp6946
g175
(lp6947
(I0
I1
tp6948
a(I0
I10
tp6949
asg179
g5
(g6
g7
(lp6950
g6409
ag6420
ag6433
ag6440
ag6447
ag6453
atp6951
Rp6952
(dp6953
g17
g190
sbsbsg180
(icmyPackage
CorE
p6954
(dp6955
g175
(lp6956
(I0
I12
tp6957
a(I0
I62
tp6958
asg179
g5
(g6
g7
(lp6959
g6462
ag6739
ag6934
atp6960
Rp6961
(dp6962
g17
g190
sbsbsg191
(icmyPackage
pattern
p6963
(dp6964
g194
I15
sg195
I0
sg196
(lp6965
(lp6966
S'since'
p6967
aa(lp6968
S','
p6969
aasg201
(lp6970
I3
aI1
aI1
asg203
(lp6971
S'But, since the herpes virus does not always show its symptoms, prevention is not fool proof.'
p6972
asg206
I78
sg207
(lp6973
(lp6974
a(lp6975
S'&C@NCTime@'
p6976
aa(lp6977
S'&R@NCTime@'
p6978
aasbsg214
(lp6979
(isxpPackage
sxpSent
p6980
(dp6981
g218
(lp6982
I16
asg220
VSince each of the six features takes values on [ 0 , 1 ] , we define the overall subjectivity of an adjective a with feature vector u'\u005cud835' u'\u005cudc2c' a = [ s 1 a u'\u005cu2062' u'\u005cu2026' u'\u005cu2062' s 6 a ] as
p6983
sg222
I7
sg206
I69
sg223
I18
sbasba(icmyPackage
CELink
p6984
(dp6985
g3
(lp6986
g5
(g6
g7
(lp6987
g5
(g6
g7
(lp6988
g5
(g6
g7
(lp6989
g5
(g6
g7
(lp6990
g5
(g6
g7
(lp6991
VTo
p6992
atp6993
Rp6994
(dp6995
g17
VTO
p6996
sbag5
(g6
g7
(lp6997
g5
(g6
g7
(lp6998
Vverify
p6999
atp7000
Rp7001
(dp7002
g17
VVB
p7003
sbag5
(g6
g7
(lp7004
g5
(g6
g7
(lp7005
g5
(g6
g7
(lp7006
Vthe
p7007
atp7008
Rp7009
(dp7010
g17
VDT
p7011
sbag5
(g6
g7
(lp7012
Vquality
p7013
atp7014
Rp7015
(dp7016
g17
VNN
p7017
sbatp7018
Rp7019
(dp7020
g17
VNP
p7021
sbag5
(g6
g7
(lp7022
g5
(g6
g7
(lp7023
Vof
p7024
atp7025
Rp7026
(dp7027
g17
VIN
p7028
sbag5
(g6
g7
(lp7029
g5
(g6
g7
(lp7030
Vour
p7031
atp7032
Rp7033
(dp7034
g17
VPRP$
p7035
sbag5
(g6
g7
(lp7036
Vsubjectivity
p7037
atp7038
Rp7039
(dp7040
g17
VJJ
p7041
sbag5
(g6
g7
(lp7042
Vfeatures
p7043
atp7044
Rp7045
(dp7046
g17
VNNS
p7047
sbatp7048
Rp7049
(dp7050
g17
VNP
p7051
sbatp7052
Rp7053
(dp7054
g17
VPP
p7055
sbatp7056
Rp7057
(dp7058
g17
VNP
p7059
sbatp7060
Rp7061
(dp7062
g17
VVP
p7063
sbatp7064
Rp7065
(dp7066
g17
VVP
p7067
sbatp7068
Rp7069
(dp7070
g17
g156
sbag5
(g6
g7
(lp7071
g241
atp7072
Rp7073
(dp7074
g17
g241
sbag5
(g6
g7
(lp7075
g5
(g6
g7
(lp7076
Vwe
p7077
atp7078
Rp7079
(dp7080
g17
VPRP
p7081
sbatp7082
Rp7083
(dp7084
g17
VNP
p7085
sbag5
(g6
g7
(lp7086
g5
(g6
g7
(lp7087
Vmeasured
p7088
atp7089
Rp7090
(dp7091
g17
VVBD
p7092
sbag5
(g6
g7
(lp7093
g5
(g6
g7
(lp7094
Vtheir
p7095
atp7096
Rp7097
(dp7098
g17
VPRP$
p7099
sbag5
(g6
g7
(lp7100
Vperformance
p7101
atp7102
Rp7103
(dp7104
g17
VNN
p7105
sbatp7106
Rp7107
(dp7108
g17
VNP
p7109
sbag5
(g6
g7
(lp7110
g5
(g6
g7
(lp7111
Vas
p7112
atp7113
Rp7114
(dp7115
g17
VIN
p7116
sbag5
(g6
g7
(lp7117
g5
(g6
g7
(lp7118
g5
(g6
g7
(lp7119
Vpredictors
p7120
atp7121
Rp7122
(dp7123
g17
VNNS
p7124
sbatp7125
Rp7126
(dp7127
g17
VNP
p7128
sbag5
(g6
g7
(lp7129
g5
(g6
g7
(lp7130
Vin
p7131
atp7132
Rp7133
(dp7134
g17
VIN
p7135
sbag5
(g6
g7
(lp7136
g5
(g6
g7
(lp7137
g763
atp7138
Rp7139
(dp7140
g17
VDT
p7141
sbag5
(g6
g7
(lp7142
Vlogistic
p7143
atp7144
Rp7145
(dp7146
g17
VJJ
p7147
sbag5
(g6
g7
(lp7148
Vregression
p7149
atp7150
Rp7151
(dp7152
g17
VNN
p7153
sbatp7154
Rp7155
(dp7156
g17
VNP
p7157
sbatp7158
Rp7159
(dp7160
g17
VPP
p7161
sbatp7162
Rp7163
(dp7164
g17
VNP
p7165
sbatp7166
Rp7167
(dp7168
g17
VPP
p7169
sbag5
(g6
g7
(lp7170
g5
(g6
g7
(lp7171
g5
(g6
g7
(lp7172
Vclassifying
p7173
atp7174
Rp7175
(dp7176
g17
VVBG
p7177
sbag5
(g6
g7
(lp7178
g5
(g6
g7
(lp7179
g5
(g6
g7
(lp7180
Vthe
p7181
atp7182
Rp7183
(dp7184
g17
VDT
p7185
sbag5
(g6
g7
(lp7186
V3,250
p7187
atp7188
Rp7189
(dp7190
g17
VCD
p7191
sbag5
(g6
g7
(lp7192
Vadjectives
p7193
atp7194
Rp7195
(dp7196
g17
VNNS
p7197
sbatp7198
Rp7199
(dp7200
g17
VNP
p7201
sbag5
(g6
g7
(lp7202
g5
(g6
g7
(lp7203
Vlabelled
p7204
atp7205
Rp7206
(dp7207
g17
VVBN
p7208
sbag5
(g6
g7
(lp7209
g5
(g6
g7
(lp7210
g5
(g6
g7
(lp7211
Vas
p7212
atp7213
Rp7214
(dp7215
g17
VRB
p7216
sbag5
(g6
g7
(lp7217
Vsubjective
p7218
atp7219
Rp7220
(dp7221
g17
VJJ
p7222
sbatp7223
Rp7224
(dp7225
g17
VADJP
p7226
sbag5
(g6
g7
(lp7227
Vor
p7228
atp7229
Rp7230
(dp7231
g17
VCC
p7232
sbag5
(g6
g7
(lp7233
Vnot
p7234
atp7235
Rp7236
(dp7237
g17
VRB
p7238
sbag5
(g6
g7
(lp7239
g5
(g6
g7
(lp7240
Vin
p7241
atp7242
Rp7243
(dp7244
g17
VIN
p7245
sbag5
(g6
g7
(lp7246
g5
(g6
g7
(lp7247
Vthe
p7248
atp7249
Rp7250
(dp7251
g17
VDT
p7252
sbag5
(g6
g7
(lp7253
VWilson
p7254
atp7255
Rp7256
(dp7257
g17
VNNP
p7258
sbag5
(g6
g7
(lp7259
Vet
p7260
atp7261
Rp7262
(dp7263
g17
VNNP
p7264
sbag5
(g6
g7
(lp7265
Val
p7266
atp7267
Rp7268
(dp7269
g17
VNNP
p7270
sbatp7271
Rp7272
(dp7273
g17
VNP
p7274
sbatp7275
Rp7276
(dp7277
g17
VPP
p7278
sbatp7279
Rp7280
(dp7281
g17
VUCP
p7282
sbatp7283
Rp7284
(dp7285
g17
VVP
p7286
sbatp7287
Rp7288
(dp7289
g17
VNP
p7290
sbatp7291
Rp7292
(dp7293
g17
VVP
p7294
sbatp7295
Rp7296
(dp7297
g17
g156
sbatp7298
Rp7299
(dp7300
g17
VVP
p7301
sbatp7302
Rp7303
(dp7304
g17
g156
sbatp7305
Rp7306
(dp7307
g17
VROOT
p7308
sbasg172
(icmyPackage
CorE
p7309
(dp7310
g175
(lp7311
(I0
I14
tp7312
a(I0
I25
tp7313
asg179
g5
(g6
g7
(lp7314
g7163
ag7175
ag7199
ag7206
ag7224
atp7315
Rp7316
(dp7317
g17
g190
sbsbsg180
(icmyPackage
CorE
p7318
(dp7319
g175
(lp7320
(I0
I0
tp7321
a(I0
I12
tp7322
asg179
g5
(g6
g7
(lp7323
g7069
ag7073
ag7083
ag7090
ag7107
atp7324
Rp7325
(dp7326
g17
g190
sbsbsg191
g2750
sg214
(lp7327
(isxpPackage
sxpSent
p7328
(dp7329
g218
(lp7330
I17
asg220
VTo verify the quality of our subjectivity features, we measured their performance as predictors in a logistic regression classifying the 3,250 adjectives labelled as subjective or not in the Wilson et al
p7331
sg222
I7
sg206
I70
sg223
I19
sbasba(icmyPackage
CELink
p7332
(dp7333
g3
(lp7334
g5
(g6
g7
(lp7335
g5
(g6
g7
(lp7336
g5
(g6
g7
(lp7337
g5
(g6
g7
(lp7338
g5
(g6
g7
(lp7339
g5
(g6
g7
(lp7340
V4
p7341
atp7342
Rp7343
(dp7344
g17
VCD
p7345
sbag5
(g6
g7
(lp7346
g7341
atp7347
Rp7348
(dp7349
g17
VCD
p7350
sbatp7351
Rp7352
(dp7353
g17
VQP
p7354
sbag5
(g6
g7
(lp7355
VAvailable
p7356
atp7357
Rp7358
(dp7359
g17
VNN
p7360
sbatp7361
Rp7362
(dp7363
g17
VNP
p7364
sbag5
(g6
g7
(lp7365
g5
(g6
g7
(lp7366
Vat
p7367
atp7368
Rp7369
(dp7370
g17
VIN
p7371
sbag5
(g6
g7
(lp7372
g5
(g6
g7
(lp7373
g5
(g6
g7
(lp7374
Vhttp://mpqa.cs.pitt.edu/
p7375
atp7376
Rp7377
(dp7378
g17
VVBG
p7379
sbag5
(g6
g7
(lp7380
g5
(g6
g7
(lp7381
g5
(g6
g7
(lp7382
VThe
p7383
atp7384
Rp7385
(dp7386
g17
VDT
p7387
sbag5
(g6
g7
(lp7388
Vcombination
p7389
atp7390
Rp7391
(dp7392
g17
VNN
p7393
sbatp7394
Rp7395
(dp7396
g17
VNP
p7397
sbag5
(g6
g7
(lp7398
g5
(g6
g7
(lp7399
Vof
p7400
atp7401
Rp7402
(dp7403
g17
VIN
p7404
sbag5
(g6
g7
(lp7405
g5
(g6
g7
(lp7406
Vall
p7407
atp7408
Rp7409
(dp7410
g17
VDT
p7411
sbag5
(g6
g7
(lp7412
Vfeatures
p7413
atp7414
Rp7415
(dp7416
g17
VNNS
p7417
sbatp7418
Rp7419
(dp7420
g17
VNP
p7421
sbatp7422
Rp7423
(dp7424
g17
VPP
p7425
sbatp7426
Rp7427
(dp7428
g17
VNP
p7429
sbatp7430
Rp7431
(dp7432
g17
VVP
p7433
sbatp7434
Rp7435
(dp7436
g17
g156
sbatp7437
Rp7438
(dp7439
g17
VPP
p7440
sbatp7441
Rp7442
(dp7443
g17
VNP
p7444
sbag5
(g6
g7
(lp7445
g5
(g6
g7
(lp7446
Vproduced
p7447
atp7448
Rp7449
(dp7450
g17
VVBD
p7451
sbag5
(g6
g7
(lp7452
g5
(g6
g7
(lp7453
g5
(g6
g7
(lp7454
Van
p7455
atp7456
Rp7457
(dp7458
g17
VDT
p7459
sbag5
(g6
g7
(lp7460
Voverall
p7461
atp7462
Rp7463
(dp7464
g17
VJJ
p7465
sbag5
(g6
g7
(lp7466
Vclassifiction
p7467
atp7468
Rp7469
(dp7470
g17
VNN
p7471
sbag5
(g6
g7
(lp7472
Vaccuracy
p7473
atp7474
Rp7475
(dp7476
g17
VNN
p7477
sbatp7478
Rp7479
(dp7480
g17
VNP
p7481
sbag5
(g6
g7
(lp7482
g5
(g6
g7
(lp7483
Vof
p7484
atp7485
Rp7486
(dp7487
g17
VIN
p7488
sbag5
(g6
g7
(lp7489
g5
(g6
g7
(lp7490
V79
p7491
atp7492
Rp7493
(dp7494
g17
VCD
p7495
sbag5
(g6
g7
(lp7496
V%
p7497
atp7498
Rp7499
(dp7500
g17
VNN
p7501
sbatp7502
Rp7503
(dp7504
g17
VNP
p7505
sbatp7506
Rp7507
(dp7508
g17
VPP
p7509
sbatp7510
Rp7511
(dp7512
g17
VNP
p7513
sbatp7514
Rp7515
(dp7516
g17
VVP
p7517
sbatp7518
Rp7519
(dp7520
g17
g156
sbatp7521
Rp7522
(dp7523
g17
VROOT
p7524
sbag5
(g6
g7
(lp7525
g5
(g6
g7
(lp7526
g5
(g6
g7
(lp7527
g5
(g6
g7
(lp7528
g5
(g6
g7
(lp7529
VThe
p7530
atp7531
Rp7532
(dp7533
g17
VDT
p7534
sbag5
(g6
g7
(lp7535
Vperformance
p7536
atp7537
Rp7538
(dp7539
g17
VNN
p7540
sbatp7541
Rp7542
(dp7543
g17
VNP
p7544
sbag5
(g6
g7
(lp7545
g5
(g6
g7
(lp7546
Vof
p7547
atp7548
Rp7549
(dp7550
g17
VIN
p7551
sbag5
(g6
g7
(lp7552
g5
(g6
g7
(lp7553
g5
(g6
g7
(lp7554
Vindividual
p7555
atp7556
Rp7557
(dp7558
g17
VJJ
p7559
sbag5
(g6
g7
(lp7560
Vfeatures
p7561
atp7562
Rp7563
(dp7564
g17
VNNS
p7565
sbatp7566
Rp7567
(dp7568
g17
VNP
p7569
sbag5
(g6
g7
(lp7570
g5
(g6
g7
(lp7571
Vas
p7572
atp7573
Rp7574
(dp7575
g17
VIN
p7576
sbag5
(g6
g7
(lp7577
g5
(g6
g7
(lp7578
g5
(g6
g7
(lp7579
Vpredictors
p7580
atp7581
Rp7582
(dp7583
g17
VNNS
p7584
sbatp7585
Rp7586
(dp7587
g17
VNP
p7588
sbag5
(g6
g7
(lp7589
g5
(g6
g7
(lp7590
Vin
p7591
atp7592
Rp7593
(dp7594
g17
VIN
p7595
sbag5
(g6
g7
(lp7596
g5
(g6
g7
(lp7597
Visolation
p7598
atp7599
Rp7600
(dp7601
g17
VNN
p7602
sbatp7603
Rp7604
(dp7605
g17
VNP
p7606
sbatp7607
Rp7608
(dp7609
g17
VPP
p7610
sbatp7611
Rp7612
(dp7613
g17
VNP
p7614
sbatp7615
Rp7616
(dp7617
g17
VPP
p7618
sbatp7619
Rp7620
(dp7621
g17
VNP
p7622
sbatp7623
Rp7624
(dp7625
g17
VPP
p7626
sbatp7627
Rp7628
(dp7629
g17
VNP
p7630
sbag5
(g6
g7
(lp7631
g5
(g6
g7
(lp7632
Vis
p7633
atp7634
Rp7635
(dp7636
g17
VVBZ
p7637
sbag5
(g6
g7
(lp7638
g5
(g6
g7
(lp7639
Vshown
p7640
atp7641
Rp7642
(dp7643
g17
VVBN
p7644
sbag5
(g6
g7
(lp7645
g5
(g6
g7
(lp7646
Vin
p7647
atp7648
Rp7649
(dp7650
g17
VIN
p7651
sbag5
(g6
g7
(lp7652
g5
(g6
g7
(lp7653
VFigure
p7654
atp7655
Rp7656
(dp7657
g17
VNN
p7658
sbag5
(g6
g7
(lp7659
g1845
atp7660
Rp7661
(dp7662
g17
VCD
p7663
sbag5
(g6
g7
(lp7664
V-LRB-
p7665
atp7666
Rp7667
(dp7668
g17
VNN
p7669
sbag5
(g6
g7
(lp7670
Vtop
p7671
atp7672
Rp7673
(dp7674
g17
VNN
p7675
sbatp7676
Rp7677
(dp7678
g17
VNP
p7679
sbatp7680
Rp7681
(dp7682
g17
VPP
p7683
sbatp7684
Rp7685
(dp7686
g17
VVP
p7687
sbatp7688
Rp7689
(dp7690
g17
VVP
p7691
sbatp7692
Rp7693
(dp7694
g17
g156
sbatp7695
Rp7696
(dp7697
g17
VROOT
p7698
sbasg172
(icmyPackage
CorE
p7699
(dp7700
g175
(lp7701
(I1
I6
tp7702
a(I1
I15
tp7703
asg179
g5
(g6
g7
(lp7704
g7612
ag7689
atp7705
Rp7706
(dp7707
g17
g190
sbsbsg180
(icmyPackage
CorE
p7708
(dp7709
g175
(lp7710
(I0
I1
tp7711
a(I1
I4
tp7712
asg179
g5
(g6
g7
(lp7713
g7348
ag7358
ag7438
ag7515
ag7542
ag7549
ag7567
atp7714
Rp7715
(dp7716
g17
g190
sbsbsg191
g2750
sg214
(lp7717
(isxpPackage
sxpSent
p7718
(dp7719
g218
(lp7720
I18
asg220
V4 4 Available at http://mpqa.cs.pitt.edu/ The combination of all features produced an overall classifiction accuracy of 79%
p7721
sg222
I7
sg206
I72
sg223
I19
sba(isxpPackage
sxpSent
p7722
(dp7723
g218
(lp7724
I18
asg220
VThe performance of individual features as predictors in isolation is shown in Figure 1 (top
p7725
sg222
I7
sg206
I73
sg223
I19
sbasba(icmyPackage
CELink
p7726
(dp7727
g3
(lp7728
g5
(g6
g7
(lp7729
g5
(g6
g7
(lp7730
g5
(g6
g7
(lp7731
g5
(g6
g7
(lp7732
VFor
p7733
atp7734
Rp7735
(dp7736
g17
VIN
p7737
sbag5
(g6
g7
(lp7738
g5
(g6
g7
(lp7739
Veach
p7740
atp7741
Rp7742
(dp7743
g17
VDT
p7744
sbag5
(g6
g7
(lp7745
Vnoun
p7746
atp7747
Rp7748
(dp7749
g17
VNN
p7750
sbag5
(g6
g7
(lp7751
Vn
p7752
atp7753
Rp7754
(dp7755
g17
VNN
p7756
sbatp7757
Rp7758
(dp7759
g17
VNP
p7760
sbatp7761
Rp7762
(dp7763
g17
VPP
p7764
sbag5
(g6
g7
(lp7765
g5
(g6
g7
(lp7766
Vwe
p7767
atp7768
Rp7769
(dp7770
g17
VPRP
p7771
sbatp7772
Rp7773
(dp7774
g17
VNP
p7775
sbag5
(g6
g7
(lp7776
g5
(g6
g7
(lp7777
Vdefined
p7778
atp7779
Rp7780
(dp7781
g17
VVBD
p7782
sbag5
(g6
g7
(lp7783
g5
(g6
g7
(lp7784
Vits
p7785
atp7786
Rp7787
(dp7788
g17
VPRP$
p7789
sbag5
(g6
g7
(lp7790
Vsubjectivity
p7791
atp7792
Rp7793
(dp7794
g17
VJJ
p7795
sbag5
(g6
g7
(lp7796
Vprofile
p7797
atp7798
Rp7799
(dp7800
g17
VNN
p7801
sbatp7802
Rp7803
(dp7804
g17
VNP
p7805
sbag5
(g6
g7
(lp7806
g5
(g6
g7
(lp7807
Vas
p7808
atp7809
Rp7810
(dp7811
g17
VIN
p7812
sbag5
(g6
g7
(lp7813
g5
(g6
g7
(lp7814
g5
(g6
g7
(lp7815
Vthe
p7816
atp7817
Rp7818
(dp7819
g17
VDT
p7820
sbag5
(g6
g7
(lp7821
Vmean
p7822
atp7823
Rp7824
(dp7825
g17
VNN
p7826
sbatp7827
Rp7828
(dp7829
g17
VNP
p7830
sbag5
(g6
g7
(lp7831
g5
(g6
g7
(lp7832
Vof
p7833
atp7834
Rp7835
(dp7836
g17
VIN
p7837
sbag5
(g6
g7
(lp7838
g5
(g6
g7
(lp7839
g5
(g6
g7
(lp7840
Vthe
p7841
atp7842
Rp7843
(dp7844
g17
VDT
p7845
sbag5
(g6
g7
(lp7846
Vsubjectivity
p7847
atp7848
Rp7849
(dp7850
g17
VJJ
p7851
sbag5
(g6
g7
(lp7852
Vvectors
p7853
atp7854
Rp7855
(dp7856
g17
VNNS
p7857
sbatp7858
Rp7859
(dp7860
g17
VNP
p7861
sbag5
(g6
g7
(lp7862
g5
(g6
g7
(lp7863
Vof
p7864
atp7865
Rp7866
(dp7867
g17
VIN
p7868
sbag5
(g6
g7
(lp7869
g5
(g6
g7
(lp7870
Vits
p7871
atp7872
Rp7873
(dp7874
g17
VPRP$
p7875
sbag5
(g6
g7
(lp7876
Vmodifying
p7877
atp7878
Rp7879
(dp7880
g17
VVBG
p7881
sbag5
(g6
g7
(lp7882
Vadjectives
p7883
atp7884
Rp7885
(dp7886
g17
VNNS
p7887
sbatp7888
Rp7889
(dp7890
g17
VNP
p7891
sbatp7892
Rp7893
(dp7894
g17
VPP
p7895
sbatp7896
Rp7897
(dp7898
g17
VNP
p7899
sbatp7900
Rp7901
(dp7902
g17
VPP
p7903
sbatp7904
Rp7905
(dp7906
g17
VNP
p7907
sbatp7908
Rp7909
(dp7910
g17
VPP
p7911
sbatp7912
Rp7913
(dp7914
g17
VVP
p7915
sbatp7916
Rp7917
(dp7918
g17
g156
sbatp7919
Rp7920
(dp7921
g17
VROOT
p7922
sbag5
(g6
g7
(lp7923
g5
(g6
g7
(lp7924
g5
(g6
g7
(lp7925
g5
(g6
g7
(lp7926
Vwhere
p7927
atp7928
Rp7929
(dp7930
g17
VWRB
p7931
sbatp7932
Rp7933
(dp7934
g17
VWHADVP
p7935
sbag5
(g6
g7
(lp7936
g5
(g6
g7
(lp7937
g5
(g6
g7
(lp7938
g5
(g6
g7
(lp7939
Vthe
p7940
atp7941
Rp7942
(dp7943
g17
VDT
p7944
sbag5
(g6
g7
(lp7945
Vbag
p7946
atp7947
Rp7948
(dp7949
g17
VNN
p7950
sbatp7951
Rp7952
(dp7953
g17
VNP
p7954
sbag5
(g6
g7
(lp7955
g5
(g6
g7
(lp7956
g591
atp7957
Rp7958
(dp7959
g17
VDT
p7960
sbag5
(g6
g7
(lp7961
g7752
atp7962
Rp7963
(dp7964
g17
VNN
p7965
sbatp7966
Rp7967
(dp7968
g17
VNP
p7969
sbatp7970
Rp7971
(dp7972
g17
VNP
p7973
sbag5
(g6
g7
(lp7974
g5
(g6
g7
(lp7975
Vcontains
p7976
atp7977
Rp7978
(dp7979
g17
VVBZ
p7980
sbag5
(g6
g7
(lp7981
g5
(g6
g7
(lp7982
g5
(g6
g7
(lp7983
Van
p7984
atp7985
Rp7986
(dp7987
g17
VDT
p7988
sbag5
(g6
g7
(lp7989
Vadjective
p7990
atp7991
Rp7992
(dp7993
g17
VJJ
p7994
sbag5
(g6
g7
(lp7995
g763
atp7996
Rp7997
(dp7998
g17
VDT
p7999
sbatp8000
Rp8001
(dp8002
g17
VNP
p8003
sbag5
(g6
g7
(lp8004
g5
(g6
g7
(lp8005
Vfor
p8006
atp8007
Rp8008
(dp8009
g17
VIN
p8010
sbag5
(g6
g7
(lp8011
g5
(g6
g7
(lp8012
g5
(g6
g7
(lp8013
Veach
p8014
atp8015
Rp8016
(dp8017
g17
VDT
p8018
sbag5
(g6
g7
(lp8019
Voccurrence
p8020
atp8021
Rp8022
(dp8023
g17
VNN
p8024
sbatp8025
Rp8026
(dp8027
g17
VNP
p8028
sbag5
(g6
g7
(lp8029
g5
(g6
g7
(lp8030
Vof
p8031
atp8032
Rp8033
(dp8034
g17
VIN
p8035
sbag5
(g6
g7
(lp8036
g5
(g6
g7
(lp8037
g5
(g6
g7
(lp8038
g5
(g6
g7
(lp8039
Vthe
p8040
atp8041
Rp8042
(dp8043
g17
VDT
p8044
sbag5
(g6
g7
(lp8045
Vpair
p8046
atp8047
Rp8048
(dp8049
g17
VNN
p8050
sbatp8051
Rp8052
(dp8053
g17
VNP
p8054
sbag5
(g6
g7
(lp8055
g5
(g6
g7
(lp8056
V-LRB-
p8057
atp8058
Rp8059
(dp8060
g17
V-LRB-
p8061
sbag5
(g6
g7
(lp8062
g5
(g6
g7
(lp8063
g5
(g6
g7
(lp8064
g763
atp8065
Rp8066
(dp8067
g17
VSYM
p8068
sbatp8069
Rp8070
(dp8071
g17
VNP
p8072
sbag5
(g6
g7
(lp8073
g241
atp8074
Rp8075
(dp8076
g17
g241
sbag5
(g6
g7
(lp8077
g5
(g6
g7
(lp8078
g7752
atp8079
Rp8080
(dp8081
g17
VNN
p8082
sbatp8083
Rp8084
(dp8085
g17
VNP
p8086
sbatp8087
Rp8088
(dp8089
g17
VNP
p8090
sbag5
(g6
g7
(lp8091
V-RRB-
p8092
atp8093
Rp8094
(dp8095
g17
V-RRB-
p8096
sbatp8097
Rp8098
(dp8099
g17
VPRN
p8100
sbatp8101
Rp8102
(dp8103
g17
VNP
p8104
sbag5
(g6
g7
(lp8105
g5
(g6
g7
(lp8106
Vin
p8107
atp8108
Rp8109
(dp8110
g17
VIN
p8111
sbag5
(g6
g7
(lp8112
g5
(g6
g7
(lp8113
Vthe
p8114
atp8115
Rp8116
(dp8117
g17
VDT
p8118
sbag5
(g6
g7
(lp8119
VBNC
p8120
atp8121
Rp8122
(dp8123
g17
VNNP
p8124
sbatp8125
Rp8126
(dp8127
g17
VNP
p8128
sbatp8129
Rp8130
(dp8131
g17
VPP
p8132
sbatp8133
Rp8134
(dp8135
g17
VNP
p8136
sbatp8137
Rp8138
(dp8139
g17
VPP
p8140
sbatp8141
Rp8142
(dp8143
g17
VNP
p8144
sbatp8145
Rp8146
(dp8147
g17
VPP
p8148
sbatp8149
Rp8150
(dp8151
g17
VNP
p8152
sbatp8153
Rp8154
(dp8155
g17
VVP
p8156
sbatp8157
Rp8158
(dp8159
g17
g156
sbatp8160
Rp8161
(dp8162
g17
VSBAR
p8163
sbatp8164
Rp8165
(dp8166
g17
VROOT
p8167
sbasg172
(icmyPackage
CorE
p8168
(dp8169
g175
(lp8170
(I0
I10
tp8171
a(I1
I21
tp8172
asg179
g5
(g6
g7
(lp8173
g7905
ag7933
ag7971
ag7978
ag8001
ag8008
ag8026
ag8033
ag8102
ag8109
ag8116
atp8174
Rp8175
(dp8176
g17
g190
sbsbsg180
(icmyPackage
CorE
p8177
(dp8178
g175
(lp8179
(I0
I0
tp8180
a(I0
I8
tp8181
asg179
g5
(g6
g7
(lp8182
g7762
ag7773
ag7780
ag7803
atp8183
Rp8184
(dp8185
g17
g190
sbsbsg191
g2750
sg214
(lp8186
(isxpPackage
sxpSent
p8187
(dp8188
g218
(lp8189
I19
asg220
VFor each noun n we defined its subjectivity profile as the mean of the subjectivity vectors of its modifying adjectives
p8190
sg222
I7
sg206
I75
sg223
I20
sba(isxpPackage
sxpSent
p8191
(dp8192
g218
(lp8193
I19
aI20
asg220
Vwhere the bag A n contains an adjective a for each occurrence of the pair ( a , n ) in the BNC
p8194
sg222
I7
sg206
I76
sg223
I21
sbasba(icmyPackage
CELink
p8195
(dp8196
g3
(lp8197
g8165
ag5
(g6
g7
(lp8198
g5
(g6
g7
(lp8199
g5
(g6
g7
(lp8200
g5
(g6
g7
(lp8201
VAs
p8202
atp8203
Rp8204
(dp8205
g17
VIN
p8206
sbag5
(g6
g7
(lp8207
g5
(g6
g7
(lp8208
Vhypothesized
p8209
atp8210
Rp8211
(dp8212
g17
VNNP
p8213
sbatp8214
Rp8215
(dp8216
g17
VNP
p8217
sbatp8218
Rp8219
(dp8220
g17
VPP
p8221
sbag5
(g6
g7
(lp8222
g241
atp8223
Rp8224
(dp8225
g17
g241
sbag5
(g6
g7
(lp8226
g5
(g6
g7
(lp8227
g5
(g6
g7
(lp8228
g5
(g6
g7
(lp8229
g5
(g6
g7
(lp8230
VC
p8231
atp8232
Rp8233
(dp8234
g17
VNNP
p8235
sbag5
(g6
g7
(lp8236
g2647
atp8237
Rp8238
(dp8239
g17
VNNP
p8240
sbag5
(g6
g7
(lp8241
g2653
atp8242
Rp8243
(dp8244
g17
VPOS
p8245
sbatp8246
Rp8247
(dp8248
g17
VNP
p8249
sbag5
(g6
g7
(lp8250
V\u005c
p8251
atp8252
Rp8253
(dp8254
g17
VJJ
p8255
sbag5
(g6
g7
(lp8256
Vu2062
p8257
atp8258
Rp8259
(dp8260
g17
VNNS
p8261
sbag5
(g6
g7
(lp8262
g2653
atp8263
Rp8264
(dp8265
g17
VPOS
p8266
sbatp8267
Rp8268
(dp8269
g17
VNP
p8270
sbag5
(g6
g7
(lp8271
VO
p8272
atp8273
Rp8274
(dp8275
g17
VNNP
p8276
sbag5
(g6
g7
(lp8277
g2647
atp8278
Rp8279
(dp8280
g17
VNNP
p8281
sbag5
(g6
g7
(lp8282
g2653
atp8283
Rp8284
(dp8285
g17
V''
p8286
sbatp8287
Rp8288
(dp8289
g17
VNP
p8290
sbag5
(g6
g7
(lp8291
g5
(g6
g7
(lp8292
V\u005c
p8293
atp8294
Rp8295
(dp8296
g17
VVBG
p8297
sbag5
(g6
g7
(lp8298
g5
(g6
g7
(lp8299
g5
(g6
g7
(lp8300
Vu2062
p8301
atp8302
Rp8303
(dp8304
g17
VNNP
p8305
sbag5
(g6
g7
(lp8306
g2653
atp8307
Rp8308
(dp8309
g17
VPOS
p8310
sbatp8311
Rp8312
(dp8313
g17
VNP
p8314
sbag5
(g6
g7
(lp8315
VN
p8316
atp8317
Rp8318
(dp8319
g17
VNNP
p8320
sbag5
(g6
g7
(lp8321
g2647
atp8322
Rp8323
(dp8324
g17
VNNP
p8325
sbag5
(g6
g7
(lp8326
g2653
atp8327
Rp8328
(dp8329
g17
V''
p8330
sbatp8331
Rp8332
(dp8333
g17
VNP
p8334
sbag5
(g6
g7
(lp8335
g5
(g6
g7
(lp8336
g5
(g6
g7
(lp8337
V\u005c
p8338
atp8339
Rp8340
(dp8341
g17
VVBG
p8342
sbag5
(g6
g7
(lp8343
g5
(g6
g7
(lp8344
g5
(g6
g7
(lp8345
g5
(g6
g7
(lp8346
g5
(g6
g7
(lp8347
Vu2062
p8348
atp8349
Rp8350
(dp8351
g17
VNNP
p8352
sbag5
(g6
g7
(lp8353
g2653
atp8354
Rp8355
(dp8356
g17
VPOS
p8357
sbatp8358
Rp8359
(dp8360
g17
VNP
p8361
sbag5
(g6
g7
(lp8362
g8231
atp8363
Rp8364
(dp8365
g17
VNNP
p8366
sbag5
(g6
g7
(lp8367
g2647
atp8368
Rp8369
(dp8370
g17
VNNP
p8371
sbag5
(g6
g7
(lp8372
g2653
atp8373
Rp8374
(dp8375
g17
VPOS
p8376
sbatp8377
Rp8378
(dp8379
g17
VNP
p8380
sbag5
(g6
g7
(lp8381
V\u005c
p8382
atp8383
Rp8384
(dp8385
g17
VNNP
p8386
sbag5
(g6
g7
(lp8387
Vu2062
p8388
atp8389
Rp8390
(dp8391
g17
VNNP
p8392
sbag5
(g6
g7
(lp8393
g2653
atp8394
Rp8395
(dp8396
g17
V''
p8397
sbatp8398
Rp8399
(dp8400
g17
VNP
p8401
sbag5
(g6
g7
(lp8402
g5
(g6
g7
(lp8403
V-LRB-
p8404
atp8405
Rp8406
(dp8407
g17
V-LRB-
p8408
sbag5
(g6
g7
(lp8409
g5
(g6
g7
(lp8410
g7752
atp8411
Rp8412
(dp8413
g17
VNN
p8414
sbatp8415
Rp8416
(dp8417
g17
VNP
p8418
sbag5
(g6
g7
(lp8419
V-RRB-
p8420
atp8421
Rp8422
(dp8423
g17
V-RRB-
p8424
sbatp8425
Rp8426
(dp8427
g17
VPRN
p8428
sbatp8429
Rp8430
(dp8431
g17
VNP
p8432
sbatp8433
Rp8434
(dp8435
g17
VVP
p8436
sbatp8437
Rp8438
(dp8439
g17
g156
sbatp8440
Rp8441
(dp8442
g17
VVP
p8443
sbatp8444
Rp8445
(dp8446
g17
VNP
p8447
sbag5
(g6
g7
(lp8448
g5
(g6
g7
(lp8449
Vwas
p8450
atp8451
Rp8452
(dp8453
g17
VVBD
p8454
sbag5
(g6
g7
(lp8455
g5
(g6
g7
(lp8456
g5
(g6
g7
(lp8457
g763
atp8458
Rp8459
(dp8460
g17
VDT
p8461
sbag5
(g6
g7
(lp8462
Vsignificant
p8463
atp8464
Rp8465
(dp8466
g17
VJJ
p8467
sbag5
(g6
g7
(lp8468
Vpredictor
p8469
atp8470
Rp8471
(dp8472
g17
VNN
p8473
sbatp8474
Rp8475
(dp8476
g17
VNP
p8477
sbag5
(g6
g7
(lp8478
g5
(g6
g7
(lp8479
Vof
p8480
atp8481
Rp8482
(dp8483
g17
VIN
p8484
sbag5
(g6
g7
(lp8485
g5
(g6
g7
(lp8486
g5
(g6
g7
(lp8487
Vthe
p8488
atp8489
Rp8490
(dp8491
g17
VDT
p8492
sbag5
(g6
g7
(lp8493
Vmagnitude
p8494
atp8495
Rp8496
(dp8497
g17
VNN
p8498
sbatp8499
Rp8500
(dp8501
g17
VNP
p8502
sbag5
(g6
g7
(lp8503
g5
(g6
g7
(lp8504
Vof
p8505
atp8506
Rp8507
(dp8508
g17
VIN
p8509
sbag5
(g6
g7
(lp8510
g5
(g6
g7
(lp8511
g5
(g6
g7
(lp8512
Vthe
p8513
atp8514
Rp8515
(dp8516
g17
VDT
p8517
sbag5
(g6
g7
(lp8518
Vsubjectivity
p8519
atp8520
Rp8521
(dp8522
g17
VJJ
p8523
sbag5
(g6
g7
(lp8524
Vprofile
p8525
atp8526
Rp8527
(dp8528
g17
VNN
p8529
sbag5
(g6
g7
(lp8530
V-LRB-
p8531
atp8532
Rp8533
(dp8534
g17
V-LRB-
p8535
sbag5
(g6
g7
(lp8536
VPearson
p8537
atp8538
Rp8539
(dp8540
g17
VNNP
p8541
sbag5
(g6
g7
(lp8542
Vr
p8543
atp8544
Rp8545
(dp8546
g17
VNN
p8547
sbag5
(g6
g7
(lp8548
g6681
atp8549
Rp8550
(dp8551
g17
VCD
p8552
sbatp8553
Rp8554
(dp8555
g17
VNP
p8556
sbag5
(g6
g7
(lp8557
V-
p8558
atp8559
Rp8560
(dp8561
g17
V:
p8562
sbag5
(g6
g7
(lp8563
g5
(g6
g7
(lp8564
g5
(g6
g7
(lp8565
V0.421
p8566
atp8567
Rp8568
(dp8569
g17
VCD
p8570
sbatp8571
Rp8572
(dp8573
g17
VNP
p8574
sbag5
(g6
g7
(lp8575
g241
atp8576
Rp8577
(dp8578
g17
g241
sbag5
(g6
g7
(lp8579
g5
(g6
g7
(lp8580
Vp
p8581
atp8582
Rp8583
(dp8584
g17
VNN
p8585
sbag5
(g6
g7
(lp8586
V0.01
p8587
atp8588
Rp8589
(dp8590
g17
VCD
p8591
sbatp8592
Rp8593
(dp8594
g17
VNP
p8595
sbatp8596
Rp8597
(dp8598
g17
VNP
p8599
sbatp8600
Rp8601
(dp8602
g17
VNP
p8603
sbatp8604
Rp8605
(dp8606
g17
VPP
p8607
sbatp8608
Rp8609
(dp8610
g17
VNP
p8611
sbatp8612
Rp8613
(dp8614
g17
VPP
p8615
sbatp8616
Rp8617
(dp8618
g17
VNP
p8619
sbatp8620
Rp8621
(dp8622
g17
VVP
p8623
sbatp8624
Rp8625
(dp8626
g17
g156
sbatp8627
Rp8628
(dp8629
g17
VROOT
p8630
sbasg172
(icmyPackage
CorE
p8631
(dp8632
g175
(lp8633
(I1
I1
tp8634
a(I1
I47
tp8635
asg179
g5
(g6
g7
(lp8636
g8215
ag8224
ag8445
ag8452
ag8475
ag8482
ag8500
ag8507
ag8554
ag8560
ag8572
ag8577
atp8637
Rp8638
(dp8639
g17
g190
sbsbsg180
(icmyPackage
CorE
p8640
(dp8641
g175
(lp8642
(I0
I2
tp8643
a(I0
I22
tp8644
asg179
g5
(g6
g7
(lp8645
g7948
ag7967
ag8154
atp8646
Rp8647
(dp8648
g17
g190
sbsbsg191
g2750
sg214
(lp8649
g8191
a(isxpPackage
sxpSent
p8650
(dp8651
g218
(lp8652
I20
asg220
VAs hypothesized, C u'\u005cu2062' O u'\u005cu2062' N u'\u005cu2062' C u'\u005cu2062' ( n ) was a significant predictor of the magnitude of the subjectivity profile (Pearson r = - 0.421 , p 0.01
p8653
sg222
I7
sg206
I77
sg223
I21
sbasba(icmyPackage
CELink
p8654
(dp8655
g3
(lp8656
g5
(g6
g7
(lp8657
g5
(g6
g7
(lp8658
g5
(g6
g7
(lp8659
g5
(g6
g7
(lp8660
VIn
p8661
atp8662
Rp8663
(dp8664
g17
VIN
p8665
sbag5
(g6
g7
(lp8666
g5
(g6
g7
(lp8667
Vthe
p8668
atp8669
Rp8670
(dp8671
g17
VDT
p8672
sbag5
(g6
g7
(lp8673
VCONC-ExpCONC
p8674
atp8675
Rp8676
(dp8677
g17
VNNP
p8678
sbag5
(g6
g7
(lp8679
Vspace
p8680
atp8681
Rp8682
(dp8683
g17
VNN
p8684
sbatp8685
Rp8686
(dp8687
g17
VNP
p8688
sbatp8689
Rp8690
(dp8691
g17
VPP
p8692
sbag5
(g6
g7
(lp8693
g241
atp8694
Rp8695
(dp8696
g17
g241
sbag5
(g6
g7
(lp8697
g5
(g6
g7
(lp8698
Von
p8699
atp8700
Rp8701
(dp8702
g17
VIN
p8703
sbag5
(g6
g7
(lp8704
g5
(g6
g7
(lp8705
Vthe
p8706
atp8707
Rp8708
(dp8709
g17
VDT
p8710
sbag5
(g6
g7
(lp8711
Vdiagonal
p8712
atp8713
Rp8714
(dp8715
g17
VNN
p8716
sbatp8717
Rp8718
(dp8719
g17
VNP
p8720
sbatp8721
Rp8722
(dp8723
g17
VPP
p8724
sbag5
(g6
g7
(lp8725
g241
atp8726
Rp8727
(dp8728
g17
g241
sbag5
(g6
g7
(lp8729
g5
(g6
g7
(lp8730
g5
(g6
g7
(lp8731
Vwhere
p8732
atp8733
Rp8734
(dp8735
g17
VWRB
p8736
sbatp8737
Rp8738
(dp8739
g17
VWHADVP
p8740
sbag5
(g6
g7
(lp8741
g5
(g6
g7
(lp8742
g5
(g6
g7
(lp8743
Vnoun-concreteness
p8744
atp8745
Rp8746
(dp8747
g17
VNNS
p8748
sbatp8749
Rp8750
(dp8751
g17
VNP
p8752
sbag5
(g6
g7
(lp8753
g5
(g6
g7
(lp8754
Vis
p8755
atp8756
Rp8757
(dp8758
g17
VVBZ
p8759
sbag5
(g6
g7
(lp8760
g5
(g6
g7
(lp8761
g2647
atp8762
Rp8763
(dp8764
g17
VVBN
p8765
sbag5
(g6
g7
(lp8766
g2653
atp8767
Rp8768
(dp8769
g17
V''
p8770
sbag5
(g6
g7
(lp8771
g5
(g6
g7
(lp8772
V\u005c
p8773
atp8774
Rp8775
(dp8776
g17
VJJ
p8777
sbag5
(g6
g7
(lp8778
Vu2018
p8779
atp8780
Rp8781
(dp8782
g17
VNNS
p8783
sbatp8784
Rp8785
(dp8786
g17
VNP
p8787
sbag5
(g6
g7
(lp8788
g2653
atp8789
Rp8790
(dp8791
g17
V''
p8792
sbag5
(g6
g7
(lp8793
g5
(g6
g7
(lp8794
Vas
p8795
atp8796
Rp8797
(dp8798
g17
VIN
p8799
sbag5
(g6
g7
(lp8800
g5
(g6
g7
(lp8801
g5
(g6
g7
(lp8802
Vexpected
p8803
atp8804
Rp8805
(dp8806
g17
VJJ
p8807
sbag5
(g6
g7
(lp8808
g2647
atp8809
Rp8810
(dp8811
g17
VNN
p8812
sbag5
(g6
g7
(lp8813
g2653
atp8814
Rp8815
(dp8816
g17
VPOS
p8817
sbatp8818
Rp8819
(dp8820
g17
VNP
p8821
sbag5
(g6
g7
(lp8822
V\u005c
p8823
atp8824
Rp8825
(dp8826
g17
VJJ
p8827
sbag5
(g6
g7
(lp8828
Vu2019
p8829
atp8830
Rp8831
(dp8832
g17
VNNS
p8833
sbatp8834
Rp8835
(dp8836
g17
VNP
p8837
sbatp8838
Rp8839
(dp8840
g17
VPP
p8841
sbag5
(g6
g7
(lp8842
g2653
atp8843
Rp8844
(dp8845
g17
V''
p8846
sbatp8847
Rp8848
(dp8849
g17
VVP
p8850
sbatp8851
Rp8852
(dp8853
g17
VVP
p8854
sbatp8855
Rp8856
(dp8857
g17
g156
sbatp8858
Rp8859
(dp8860
g17
VSBAR
p8861
sbag5
(g6
g7
(lp8862
g241
atp8863
Rp8864
(dp8865
g17
g241
sbag5
(g6
g7
(lp8866
g5
(g6
g7
(lp8867
Vpairings
p8868
atp8869
Rp8870
(dp8871
g17
VNNS
p8872
sbatp8873
Rp8874
(dp8875
g17
VNP
p8876
sbag5
(g6
g7
(lp8877
g5
(g6
g7
(lp8878
Vappear
p8879
atp8880
Rp8881
(dp8882
g17
VVBP
p8883
sbag5
(g6
g7
(lp8884
g5
(g6
g7
(lp8885
g5
(g6
g7
(lp8886
Vto
p8887
atp8888
Rp8889
(dp8890
g17
VTO
p8891
sbag5
(g6
g7
(lp8892
g5
(g6
g7
(lp8893
Vcombine
p8894
atp8895
Rp8896
(dp8897
g17
VVB
p8898
sbag5
(g6
g7
(lp8899
g5
(g6
g7
(lp8900
Vliterally
p8901
atp8902
Rp8903
(dp8904
g17
VRB
p8905
sbatp8906
Rp8907
(dp8908
g17
VADVP
p8909
sbatp8910
Rp8911
(dp8912
g17
VVP
p8913
sbatp8914
Rp8915
(dp8916
g17
VVP
p8917
sbatp8918
Rp8919
(dp8920
g17
g156
sbatp8921
Rp8922
(dp8923
g17
VVP
p8924
sbatp8925
Rp8926
(dp8927
g17
g156
sbatp8928
Rp8929
(dp8930
g17
VROOT
p8931
sbasg172
(icmyPackage
CorE
p8932
(dp8933
g175
(lp8934
(I0
I18
tp8935
a(I0
I29
tp8936
asg179
g5
(g6
g7
(lp8937
g8835
ag8844
ag8864
ag8874
ag8922
atp8938
Rp8939
(dp8940
g17
g190
sbsbsg180
(icmyPackage
CorE
p8941
(dp8942
g175
(lp8943
(I0
I10
tp8944
a(I0
I16
tp8945
asg179
g5
(g6
g7
(lp8946
g8750
ag8757
ag8763
ag8768
ag8785
ag8790
atp8947
Rp8948
(dp8949
g17
g190
sbsbsg191
g2750
sg214
(lp8950
(isxpPackage
sxpSent
p8951
(dp8952
g218
(lp8953
I21
asg220
VIn the CONC-ExpCONC space, on the diagonal, where noun-concreteness is u'\u005cu2018' as expected u'\u005cu2019' , pairings appear to combine literally
p8954
sg222
I7
sg206
I86
sg223
I25
sbasba(icmyPackage
CELink
p8955
(dp8956
g3
(lp8957
g5
(g6
g7
(lp8958
g5
(g6
g7
(lp8959
g5
(g6
g7
(lp8960
g5
(g6
g7
(lp8961
g5
(g6
g7
(lp8962
VWe
p8963
atp8964
Rp8965
(dp8966
g17
VPRP
p8967
sbatp8968
Rp8969
(dp8970
g17
VNP
p8971
sbag5
(g6
g7
(lp8972
g5
(g6
g7
(lp8973
Vevaluate
p8974
atp8975
Rp8976
(dp8977
g17
VVB
p8978
sbag5
(g6
g7
(lp8979
g5
(g6
g7
(lp8980
g5
(g6
g7
(lp8981
g5
(g6
g7
(lp8982
Vthe
p8983
atp8984
Rp8985
(dp8986
g17
VDT
p8987
sbag5
(g6
g7
(lp8988
Vpotential
p8989
atp8990
Rp8991
(dp8992
g17
VNN
p8993
sbatp8994
Rp8995
(dp8996
g17
VNP
p8997
sbag5
(g6
g7
(lp8998
g5
(g6
g7
(lp8999
Vof
p9000
atp9001
Rp9002
(dp9003
g17
VIN
p9004
sbag5
(g6
g7
(lp9005
g5
(g6
g7
(lp9006
Vour
p9007
atp9008
Rp9009
(dp9010
g17
VPRP$
p9011
sbag5
(g6
g7
(lp9012
Vadjective
p9013
atp9014
Rp9015
(dp9016
g17
VNN
p9017
sbag5
(g6
g7
(lp9018
Vsubjectivity
p9019
atp9020
Rp9021
(dp9022
g17
VNN
p9023
sbag5
(g6
g7
(lp9024
Vfeatures
p9025
atp9026
Rp9027
(dp9028
g17
VNNS
p9029
sbatp9030
Rp9031
(dp9032
g17
VNP
p9033
sbatp9034
Rp9035
(dp9036
g17
VPP
p9037
sbatp9038
Rp9039
(dp9040
g17
VNP
p9041
sbag5
(g6
g7
(lp9042
g241
atp9043
Rp9044
(dp9045
g17
g241
sbag5
(g6
g7
(lp9046
g5
(g6
g7
(lp9047
Vtogether
p9048
atp9049
Rp9050
(dp9051
g17
VRB
p9052
sbatp9053
Rp9054
(dp9055
g17
VADVP
p9056
sbatp9057
Rp9058
(dp9059
g17
VNP
p9060
sbag5
(g6
g7
(lp9061
g5
(g6
g7
(lp9062
Vwith
p9063
atp9064
Rp9065
(dp9066
g17
VIN
p9067
sbag5
(g6
g7
(lp9068
g5
(g6
g7
(lp9069
Vnoun
p9070
atp9071
Rp9072
(dp9073
g17
VNN
p9074
sbag5
(g6
g7
(lp9075
Vconcreteness
p9076
atp9077
Rp9078
(dp9079
g17
VNNS
p9080
sbatp9081
Rp9082
(dp9083
g17
VNP
p9084
sbatp9085
Rp9086
(dp9087
g17
VPP
p9088
sbag5
(g6
g7
(lp9089
g241
atp9090
Rp9091
(dp9092
g17
g241
sbag5
(g6
g7
(lp9093
g5
(g6
g7
(lp9094
g5
(g6
g7
(lp9095
Vto
p9096
atp9097
Rp9098
(dp9099
g17
VTO
p9100
sbag5
(g6
g7
(lp9101
g5
(g6
g7
(lp9102
Vpredict
p9103
atp9104
Rp9105
(dp9106
g17
VVB
p9107
sbag5
(g6
g7
(lp9108
g5
(g6
g7
(lp9109
Vadjective-noun
p9110
atp9111
Rp9112
(dp9113
g17
VJJ
p9114
sbag5
(g6
g7
(lp9115
Vsemantics
p9116
atp9117
Rp9118
(dp9119
g17
VNNS
p9120
sbatp9121
Rp9122
(dp9123
g17
VNP
p9124
sbatp9125
Rp9126
(dp9127
g17
VVP
p9128
sbatp9129
Rp9130
(dp9131
g17
VVP
p9132
sbatp9133
Rp9134
(dp9135
g17
g156
sbag5
(g6
g7
(lp9136
g241
atp9137
Rp9138
(dp9139
g17
g241
sbag5
(g6
g7
(lp9140
g5
(g6
g7
(lp9141
Vbased
p9142
atp9143
Rp9144
(dp9145
g17
VVBN
p9146
sbag5
(g6
g7
(lp9147
g5
(g6
g7
(lp9148
Von
p9149
atp9150
Rp9151
(dp9152
g17
VIN
p9153
sbag5
(g6
g7
(lp9154
g5
(g6
g7
(lp9155
Vtwo
p9156
atp9157
Rp9158
(dp9159
g17
VCD
p9160
sbag5
(g6
g7
(lp9161
Vexisting
p9162
atp9163
Rp9164
(dp9165
g17
VVBG
p9166
sbag5
(g6
g7
(lp9167
Vclassification
p9168
atp9169
Rp9170
(dp9171
g17
VNN
p9172
sbag5
(g6
g7
(lp9173
Vtasks
p9174
atp9175
Rp9176
(dp9177
g17
VNNS
p9178
sbatp9179
Rp9180
(dp9181
g17
VNP
p9182
sbatp9183
Rp9184
(dp9185
g17
VPP
p9186
sbatp9187
Rp9188
(dp9189
g17
VPP
p9190
sbatp9191
Rp9192
(dp9193
g17
VVP
p9194
sbatp9195
Rp9196
(dp9197
g17
g156
sbatp9198
Rp9199
(dp9200
g17
VNP
p9201
sbatp9202
Rp9203
(dp9204
g17
VROOT
p9205
sbasg172
(icmyPackage
CorE
p9206
(dp9207
g175
(lp9208
(I0
I22
tp9209
a(I0
I25
tp9210
asg179
g9180
sbsg180
(icmyPackage
CorE
p9211
(dp9212
g175
(lp9213
(I0
I0
tp9214
a(I0
I18
tp9215
asg179
g5
(g6
g7
(lp9216
g8969
ag8976
ag9058
ag9086
ag9091
ag9134
atp9217
Rp9218
(dp9219
g17
g190
sbsbsg191
(icmyPackage
pattern
p9220
(dp9221
g194
I0
sg195
I0
sg196
(lp9222
(lp9223
S'based'
p9224
aS'on'
p9225
aasg201
(lp9226
I2
aI1
aI1
asg203
(lp9227
S'He said he planned to announce details of legislation on Sunday based on a Republican plan that would provide a short-term solution'
p9228
asg206
I48
sg207
(lp9229
(lp9230
S'&R'
p9231
aS'(,)'
p9232
aS'(&ADV)'
p9233
aa(lp9234
S'&V-ing/&NP@C@'
p9235
aS'(&Clause@C@)'
p9236
aasbsg214
(lp9237
(isxpPackage
sxpSent
p9238
(dp9239
g218
(lp9240
I22
asg220
VWe evaluate the potential of our adjective subjectivity features, together with noun concreteness, to predict adjective-noun semantics, based on two existing classification tasks
p9241
sg222
I8
sg206
I93
sg223
I27
sbasba(icmyPackage
CELink
p9242
(dp9243
g3
(lp9244
g5
(g6
g7
(lp9245
g5
(g6
g7
(lp9246
g5
(g6
g7
(lp9247
g5
(g6
g7
(lp9248
g5
(g6
g7
(lp9249
V2011
p9250
atp9251
Rp9252
(dp9253
g17
VVB
p9254
sbag5
(g6
g7
(lp9255
V-RRB-
p9256
atp9257
Rp9258
(dp9259
g17
V-RRB-
p9260
sbag5
(g6
g7
(lp9261
g5
(g6
g7
(lp9262
Vdeveloped
p9263
atp9264
Rp9265
(dp9266
g17
VVBN
p9267
sbag5
(g6
g7
(lp9268
g5
(g6
g7
(lp9269
g5
(g6
g7
(lp9270
g5
(g6
g7
(lp9271
g763
atp9272
Rp9273
(dp9274
g17
VDT
p9275
sbag5
(g6
g7
(lp9276
Vlist
p9277
atp9278
Rp9279
(dp9280
g17
VNN
p9281
sbatp9282
Rp9283
(dp9284
g17
VNP
p9285
sbag5
(g6
g7
(lp9286
g5
(g6
g7
(lp9287
Vof
p9288
atp9289
Rp9290
(dp9291
g17
VIN
p9292
sbag5
(g6
g7
(lp9293
g5
(g6
g7
(lp9294
V100
p9295
atp9296
Rp9297
(dp9298
g17
VCD
p9299
sbag5
(g6
g7
(lp9300
Vcommon
p9301
atp9302
Rp9303
(dp9304
g17
VJJ
p9305
sbag5
(g6
g7
(lp9306
Vadjective-noun
p9307
atp9308
Rp9309
(dp9310
g17
VJJ
p9311
sbag5
(g6
g7
(lp9312
Vpairs
p9313
atp9314
Rp9315
(dp9316
g17
VNNS
p9317
sbatp9318
Rp9319
(dp9320
g17
VNP
p9321
sbatp9322
Rp9323
(dp9324
g17
VPP
p9325
sbatp9326
Rp9327
(dp9328
g17
VNP
p9329
sbag5
(g6
g7
(lp9330
g5
(g6
g7
(lp9331
Vclassified
p9332
atp9333
Rp9334
(dp9335
g17
VVBN
p9336
sbag5
(g6
g7
(lp9337
g5
(g6
g7
(lp9338
Vas
p9339
atp9340
Rp9341
(dp9342
g17
VIN
p9343
sbag5
(g6
g7
(lp9344
g5
(g6
g7
(lp9345
Veither
p9346
atp9347
Rp9348
(dp9349
g17
VDT
p9350
sbag5
(g6
g7
(lp9351
Vdenotative
p9352
atp9353
Rp9354
(dp9355
g17
VNN
p9356
sbatp9357
Rp9358
(dp9359
g17
VNP
p9360
sbatp9361
Rp9362
(dp9363
g17
VPP
p9364
sbatp9365
Rp9366
(dp9367
g17
VVP
p9368
sbag5
(g6
g7
(lp9369
g5
(g6
g7
(lp9370
V-LRB-
p9371
atp9372
Rp9373
(dp9374
g17
V-LRB-
p9375
sbag5
(g6
g7
(lp9376
g5
(g6
g7
(lp9377
Vused
p9378
atp9379
Rp9380
(dp9381
g17
VVBN
p9382
sbag5
(g6
g7
(lp9383
g5
(g6
g7
(lp9384
Vliterally
p9385
atp9386
Rp9387
(dp9388
g17
VRB
p9389
sbatp9390
Rp9391
(dp9392
g17
VADVP
p9393
sbatp9394
Rp9395
(dp9396
g17
VVP
p9397
sbag5
(g6
g7
(lp9398
V-RRB-
p9399
atp9400
Rp9401
(dp9402
g17
V-RRB-
p9403
sbatp9404
Rp9405
(dp9406
g17
VPRN
p9407
sbatp9408
Rp9409
(dp9410
g17
VNP
p9411
sbatp9412
Rp9413
(dp9414
g17
VVP
p9415
sbatp9416
Rp9417
(dp9418
g17
VVP
p9419
sbag5
(g6
g7
(lp9420
Vor
p9421
atp9422
Rp9423
(dp9424
g17
VCC
p9425
sbag5
(g6
g7
(lp9426
g5
(g6
g7
(lp9427
Vconnotative
p9428
atp9429
Rp9430
(dp9431
g17
VVB
p9432
sbag5
(g6
g7
(lp9433
V-LRB-
p9434
atp9435
Rp9436
(dp9437
g17
V-LRB-
p9438
sbag5
(g6
g7
(lp9439
g5
(g6
g7
(lp9440
Vnon-literal
p9441
atp9442
Rp9443
(dp9444
g17
VNN
p9445
sbatp9446
Rp9447
(dp9448
g17
VNP
p9449
sbag5
(g6
g7
(lp9450
V-RRB-
p9451
atp9452
Rp9453
(dp9454
g17
V-RRB-
p9455
sbag5
(g6
g7
(lp9456
g5
(g6
g7
(lp9457
Vby
p9458
atp9459
Rp9460
(dp9461
g17
VIN
p9462
sbag5
(g6
g7
(lp9463
g5
(g6
g7
(lp9464
Vfive
p9465
atp9466
Rp9467
(dp9468
g17
VCD
p9469
sbag5
(g6
g7
(lp9470
Vannotators
p9471
atp9472
Rp9473
(dp9474
g17
VNNS
p9475
sbatp9476
Rp9477
(dp9478
g17
VNP
p9479
sbatp9480
Rp9481
(dp9482
g17
VPP
p9483
sbatp9484
Rp9485
(dp9486
g17
VVP
p9487
sbatp9488
Rp9489
(dp9490
g17
VVP
p9491
sbatp9492
Rp9493
(dp9494
g17
g156
sbatp9495
Rp9496
(dp9497
g17
VROOT
p9498
sbag5
(g6
g7
(lp9499
g5
(g6
g7
(lp9500
g5
(g6
g7
(lp9501
g5
(g6
g7
(lp9502
g5
(g6
g7
(lp9503
VUsing
p9504
atp9505
Rp9506
(dp9507
g17
VVBG
p9508
sbag5
(g6
g7
(lp9509
g5
(g6
g7
(lp9510
Van
p9511
atp9512
Rp9513
(dp9514
g17
VDT
p9515
sbag5
(g6
g7
(lp9516
g5
(g6
g7
(lp9517
Videntical
p9518
atp9519
Rp9520
(dp9521
g17
VJJ
p9522
sbag5
(g6
g7
(lp9523
Vsupervised
p9524
atp9525
Rp9526
(dp9527
g17
VJJ
p9528
sbatp9529
Rp9530
(dp9531
g17
VADJP
p9532
sbag5
(g6
g7
(lp9533
Vlearning
p9534
atp9535
Rp9536
(dp9537
g17
VNN
p9538
sbag5
(g6
g7
(lp9539
Vprocedure
p9540
atp9541
Rp9542
(dp9543
g17
VNN
p9544
sbatp9545
Rp9546
(dp9547
g17
VNP
p9548
sbag5
(g6
g7
(lp9549
g5
(g6
g7
(lp9550
g5
(g6
g7
(lp9551
Vto
p9552
atp9553
Rp9554
(dp9555
g17
VTO
p9556
sbag5
(g6
g7
(lp9557
g5
(g6
g7
(lp9558
VTurney
p9559
atp9560
Rp9561
(dp9562
g17
VNNP
p9563
sbag5
(g6
g7
(lp9564
Vet
p9565
atp9566
Rp9567
(dp9568
g17
VNNP
p9569
sbag5
(g6
g7
(lp9570
Val
p9571
atp9572
Rp9573
(dp9574
g17
VNNP
p9575
sbag5
(g6
g7
(lp9576
Vlogistic
p9577
atp9578
Rp9579
(dp9580
g17
VJJ
p9581
sbag5
(g6
g7
(lp9582
Vregression
p9583
atp9584
Rp9585
(dp9586
g17
VNN
p9587
sbatp9588
Rp9589
(dp9590
g17
VNP
p9591
sbatp9592
Rp9593
(dp9594
g17
VPP
p9595
sbag5
(g6
g7
(lp9596
g5
(g6
g7
(lp9597
Vwith
p9598
atp9599
Rp9600
(dp9601
g17
VIN
p9602
sbag5
(g6
g7
(lp9603
g5
(g6
g7
(lp9604
V10-fold
p9605
atp9606
Rp9607
(dp9608
g17
VJJ
p9609
sbag5
(g6
g7
(lp9610
Vcross-validation
p9611
atp9612
Rp9613
(dp9614
g17
VNN
p9615
sbatp9616
Rp9617
(dp9618
g17
VNP
p9619
sbatp9620
Rp9621
(dp9622
g17
VPP
p9623
sbatp9624
Rp9625
(dp9626
g17
VPP
p9627
sbag5
(g6
g7
(lp9628
V-RRB-
p9629
atp9630
Rp9631
(dp9632
g17
V-RRB-
p9633
sbatp9634
Rp9635
(dp9636
g17
VVP
p9637
sbatp9638
Rp9639
(dp9640
g17
g156
sbag5
(g6
g7
(lp9641
g241
atp9642
Rp9643
(dp9644
g17
g241
sbag5
(g6
g7
(lp9645
g5
(g6
g7
(lp9646
Vwe
p9647
atp9648
Rp9649
(dp9650
g17
VPRP
p9651
sbatp9652
Rp9653
(dp9654
g17
VNP
p9655
sbag5
(g6
g7
(lp9656
g5
(g6
g7
(lp9657
Vtest
p9658
atp9659
Rp9660
(dp9661
g17
VVBP
p9662
sbag5
(g6
g7
(lp9663
g5
(g6
g7
(lp9664
Vwhether
p9665
atp9666
Rp9667
(dp9668
g17
VIN
p9669
sbag5
(g6
g7
(lp9670
g5
(g6
g7
(lp9671
g5
(g6
g7
(lp9672
g5
(g6
g7
(lp9673
Vour
p9674
atp9675
Rp9676
(dp9677
g17
VPRP$
p9678
sbag5
(g6
g7
(lp9679
Vlexical
p9680
atp9681
Rp9682
(dp9683
g17
VJJ
p9684
sbag5
(g6
g7
(lp9685
Vrepresentations
p9686
atp9687
Rp9688
(dp9689
g17
VNNS
p9690
sbatp9691
Rp9692
(dp9693
g17
VNP
p9694
sbag5
(g6
g7
(lp9695
g5
(g6
g7
(lp9696
Vbased
p9697
atp9698
Rp9699
(dp9700
g17
VVBN
p9701
sbag5
(g6
g7
(lp9702
g5
(g6
g7
(lp9703
Von
p9704
atp9705
Rp9706
(dp9707
g17
VIN
p9708
sbag5
(g6
g7
(lp9709
g5
(g6
g7
(lp9710
Vsubjectivity
p9711
atp9712
Rp9713
(dp9714
g17
VNN
p9715
sbag5
(g6
g7
(lp9716
Vand
p9717
atp9718
Rp9719
(dp9720
g17
VCC
p9721
sbag5
(g6
g7
(lp9722
Vconcreteness
p9723
atp9724
Rp9725
(dp9726
g17
VNNS
p9727
sbatp9728
Rp9729
(dp9730
g17
VNP
p9731
sbatp9732
Rp9733
(dp9734
g17
VPP
p9735
sbatp9736
Rp9737
(dp9738
g17
VPP
p9739
sbatp9740
Rp9741
(dp9742
g17
VNP
p9743
sbag5
(g6
g7
(lp9744
g5
(g6
g7
(lp9745
Vconvey
p9746
atp9747
Rp9748
(dp9749
g17
VVB
p9750
sbag5
(g6
g7
(lp9751
g5
(g6
g7
(lp9752
Vsufficient
p9753
atp9754
Rp9755
(dp9756
g17
VJJ
p9757
sbag5
(g6
g7
(lp9758
Vinformation
p9759
atp9760
Rp9761
(dp9762
g17
VNN
p9763
sbag5
(g6
g7
(lp9764
g5
(g6
g7
(lp9765
g5
(g6
g7
(lp9766
Vto
p9767
atp9768
Rp9769
(dp9770
g17
VTO
p9771
sbag5
(g6
g7
(lp9772
g5
(g6
g7
(lp9773
Vperform
p9774
atp9775
Rp9776
(dp9777
g17
VVB
p9778
sbag5
(g6
g7
(lp9779
g5
(g6
g7
(lp9780
Vthe
p9781
atp9782
Rp9783
(dp9784
g17
VDT
p9785
sbag5
(g6
g7
(lp9786
Vsame
p9787
atp9788
Rp9789
(dp9790
g17
VJJ
p9791
sbag5
(g6
g7
(lp9792
Vclassification
p9793
atp9794
Rp9795
(dp9796
g17
VNN
p9797
sbatp9798
Rp9799
(dp9800
g17
VNP
p9801
sbatp9802
Rp9803
(dp9804
g17
VVP
p9805
sbatp9806
Rp9807
(dp9808
g17
VVP
p9809
sbatp9810
Rp9811
(dp9812
g17
g156
sbatp9813
Rp9814
(dp9815
g17
VNP
p9816
sbatp9817
Rp9818
(dp9819
g17
VVP
p9820
sbatp9821
Rp9822
(dp9823
g17
g156
sbatp9824
Rp9825
(dp9826
g17
VSBAR
p9827
sbatp9828
Rp9829
(dp9830
g17
VVP
p9831
sbatp9832
Rp9833
(dp9834
g17
g156
sbatp9835
Rp9836
(dp9837
g17
VROOT
p9838
sbasg172
(icmyPackage
CorE
p9839
(dp9840
g175
(lp9841
(I0
I12
tp9842
a(I1
I29
tp9843
asg179
g5
(g6
g7
(lp9844
g9358
ag9405
ag9423
ag9485
ag9639
ag9643
ag9653
ag9660
ag9667
ag9741
ag9748
ag9755
atp9845
Rp9846
(dp9847
g17
g190
sbsbsg180
(icmyPackage
CorE
p9848
(dp9849
g175
(lp9850
(I0
I1
tp9851
a(I0
I10
tp9852
asg179
g5
(g6
g7
(lp9853
g9258
ag9265
ag9327
ag9334
atp9854
Rp9855
(dp9856
g17
g190
sbsbsg191
g2750
sg214
(lp9857
(isxpPackage
sxpSent
p9858
(dp9859
g218
(lp9860
I23
asg220
V2011 ) developed a list of 100 common adjective-noun pairs classified as either denotative (used literally) or connotative (non-literal) by five annotators
p9861
sg222
I9
sg206
I95
sg223
I28
sba(isxpPackage
sxpSent
p9862
(dp9863
g218
(lp9864
I23
aI24
aI25
asg220
VUsing an identical supervised learning procedure to Turney et al logistic regression with 10-fold cross-validation), we test whether our lexical representations based on subjectivity and concreteness convey sufficient information to perform the same classification
p9865
sg222
I9
sg206
I96
sg223
I28
sbasba(icmyPackage
CELink
p9866
(dp9867
g3
(lp9868
g9836
asg172
(icmyPackage
CorE
p9869
(dp9870
g175
(lp9871
(I0
I0
tp9872
a(I0
I15
tp9873
asg179
g9639
sbsg180
(icmyPackage
CorE
p9874
(dp9875
g175
(lp9876
(I0
I17
tp9877
a(I0
I35
tp9878
asg179
g5
(g6
g7
(lp9879
g9653
ag9829
atp9880
Rp9881
(dp9882
g17
g190
sbsbsg191
(icmyPackage
pattern
p9883
(dp9884
g194
I30
sg195
I0
sg196
(lp9885
sg201
(lp9886
I3
aI2
aI1
asg203
(lp9887
S'Being over here we tend to be a bit isolated.'
p9888
aS'Not being sure of the word, he turned it up in the dictionary.'
p9889
asg206
I81
sg207
(lp9890
(lp9891
S'&V-ing@C@'
p9892
aS'(,)'
p9893
aS'&R@Complete@'
p9894
aasbsg214
(lp9895
g9862
asba(icmyPackage
CELink
p9896
(dp9897
g3
(lp9898
g9881
asg172
(icmyPackage
CorE
p9899
(dp9900
g175
(lp9901
(I0
I8
tp9902
a(I0
I18
tp9903
asg179
g5
(g6
g7
(lp9904
g9729
ag9818
atp9905
Rp9906
(dp9907
g17
g190
sbsbsg180
(icmyPackage
CorE
p9908
(dp9909
g175
(lp9910
(I0
I0
tp9911
a(I0
I5
tp9912
asg179
g5
(g6
g7
(lp9913
g9653
ag9660
ag9667
ag9692
atp9914
Rp9915
(dp9916
g17
g190
sbsbsg191
g9220
sg214
(lp9917
g9862
asba(icmyPackage
CELink
p9918
(dp9919
g3
(lp9920
g5
(g6
g7
(lp9921
g5
(g6
g7
(lp9922
g5
(g6
g7
(lp9923
g5
(g6
g7
(lp9924
VBecause
p9925
atp9926
Rp9927
(dp9928
g17
VIN
p9929
sbag5
(g6
g7
(lp9930
g5
(g6
g7
(lp9931
g5
(g6
g7
(lp9932
g763
atp9933
Rp9934
(dp9935
g17
VDT
p9936
sbag5
(g6
g7
(lp9937
Vred
p9938
atp9939
Rp9940
(dp9941
g17
VJJ
p9942
sbag5
(g6
g7
(lp9943
Vcar
p9944
atp9945
Rp9946
(dp9947
g17
VNN
p9948
sbatp9949
Rp9950
(dp9951
g17
VNP
p9952
sbag5
(g6
g7
(lp9953
g5
(g6
g7
(lp9954
Vis
p9955
atp9956
Rp9957
(dp9958
g17
VVBZ
p9959
sbag5
(g6
g7
(lp9960
g5
(g6
g7
(lp9961
Vboth
p9962
atp9963
Rp9964
(dp9965
g17
VPDT
p9966
sbag5
(g6
g7
(lp9967
g5
(g6
g7
(lp9968
g763
atp9969
Rp9970
(dp9971
g17
VDT
p9972
sbag5
(g6
g7
(lp9973
Vcar
p9974
atp9975
Rp9976
(dp9977
g17
VNN
p9978
sbatp9979
Rp9980
(dp9981
g17
VNP
p9982
sbag5
(g6
g7
(lp9983
Vand
p9984
atp9985
Rp9986
(dp9987
g17
VCC
p9988
sbag5
(g6
g7
(lp9989
g5
(g6
g7
(lp9990
Vred
p9991
atp9992
Rp9993
(dp9994
g17
VNN
p9995
sbatp9996
Rp9997
(dp9998
g17
VNP
p9999
sbatp10000
Rp10001
(dp10002
g17
VNP
p10003
sbatp10004
Rp10005
(dp10006
g17
VVP
p10007
sbatp10008
Rp10009
(dp10010
g17
g156
sbatp10011
Rp10012
(dp10013
g17
VSBAR
p10014
sbag5
(g6
g7
(lp10015
g241
atp10016
Rp10017
(dp10018
g17
g241
sbag5
(g6
g7
(lp10019
g5
(g6
g7
(lp10020
Vthe
p10021
atp10022
Rp10023
(dp10024
g17
VDT
p10025
sbag5
(g6
g7
(lp10026
Vpair
p10027
atp10028
Rp10029
(dp10030
g17
VNN
p10031
sbatp10032
Rp10033
(dp10034
g17
VNP
p10035
sbag5
(g6
g7
(lp10036
g5
(g6
g7
(lp10037
Vis
p10038
atp10039
Rp10040
(dp10041
g17
VVBZ
p10042
sbag5
(g6
g7
(lp10043
g5
(g6
g7
(lp10044
Vclassed
p10045
atp10046
Rp10047
(dp10048
g17
VVBN
p10049
sbag5
(g6
g7
(lp10050
g5
(g6
g7
(lp10051
Vas
p10052
atp10053
Rp10054
(dp10055
g17
VIN
p10056
sbag5
(g6
g7
(lp10057
g5
(g6
g7
(lp10058
Vintersective
p10059
atp10060
Rp10061
(dp10062
g17
VNN
p10063
sbatp10064
Rp10065
(dp10066
g17
VNP
p10067
sbatp10068
Rp10069
(dp10070
g17
VPP
p10071
sbag5
(g6
g7
(lp10072
g241
atp10073
Rp10074
(dp10075
g17
g241
sbag5
(g6
g7
(lp10076
g5
(g6
g7
(lp10077
Vwhereas
p10078
atp10079
Rp10080
(dp10081
g17
VIN
p10082
sbag5
(g6
g7
(lp10083
g5
(g6
g7
(lp10084
g5
(g6
g7
(lp10085
g5
(g6
g7
(lp10086
Vdark
p10087
atp10088
Rp10089
(dp10090
g17
VJJ
p10091
sbag5
(g6
g7
(lp10092
Vhumour
p10093
atp10094
Rp10095
(dp10096
g17
VNN
p10097
sbatp10098
Rp10099
(dp10100
g17
VNP
p10101
sbag5
(g6
g7
(lp10102
g241
atp10103
Rp10104
(dp10105
g17
g241
sbag5
(g6
g7
(lp10106
g5
(g6
g7
(lp10107
g5
(g6
g7
(lp10108
Vwhich
p10109
atp10110
Rp10111
(dp10112
g17
VWDT
p10113
sbatp10114
Rp10115
(dp10116
g17
VWHNP
p10117
sbag5
(g6
g7
(lp10118
g5
(g6
g7
(lp10119
g5
(g6
g7
(lp10120
Vis
p10121
atp10122
Rp10123
(dp10124
g17
VVBZ
p10125
sbag5
(g6
g7
(lp10126
g5
(g6
g7
(lp10127
Vnot
p10128
atp10129
Rp10130
(dp10131
g17
VRB
p10132
sbag5
(g6
g7
(lp10133
Vliterally
p10134
atp10135
Rp10136
(dp10137
g17
VRB
p10138
sbatp10139
Rp10140
(dp10141
g17
VADVP
p10142
sbag5
(g6
g7
(lp10143
g5
(g6
g7
(lp10144
Vdark
p10145
atp10146
Rp10147
(dp10148
g17
VJJ
p10149
sbatp10150
Rp10151
(dp10152
g17
VADJP
p10153
sbatp10154
Rp10155
(dp10156
g17
VVP
p10157
sbatp10158
Rp10159
(dp10160
g17
g156
sbatp10161
Rp10162
(dp10163
g17
VSBAR
p10164
sbag5
(g6
g7
(lp10165
g241
atp10166
Rp10167
(dp10168
g17
g241
sbatp10169
Rp10170
(dp10171
g17
VNP
p10172
sbag5
(g6
g7
(lp10173
g5
(g6
g7
(lp10174
Vis
p10175
atp10176
Rp10177
(dp10178
g17
VVBZ
p10179
sbag5
(g6
g7
(lp10180
g5
(g6
g7
(lp10181
Vclassed
p10182
atp10183
Rp10184
(dp10185
g17
VVBN
p10186
sbag5
(g6
g7
(lp10187
g5
(g6
g7
(lp10188
Vas
p10189
atp10190
Rp10191
(dp10192
g17
VIN
p10193
sbag5
(g6
g7
(lp10194
g5
(g6
g7
(lp10195
Vsubsective
p10196
atp10197
Rp10198
(dp10199
g17
VNN
p10200
sbatp10201
Rp10202
(dp10203
g17
VNP
p10204
sbatp10205
Rp10206
(dp10207
g17
VPP
p10208
sbatp10209
Rp10210
(dp10211
g17
VVP
p10212
sbatp10213
Rp10214
(dp10215
g17
VVP
p10216
sbatp10217
Rp10218
(dp10219
g17
g156
sbatp10220
Rp10221
(dp10222
g17
VSBAR
p10223
sbatp10224
Rp10225
(dp10226
g17
VVP
p10227
sbatp10228
Rp10229
(dp10230
g17
VVP
p10231
sbatp10232
Rp10233
(dp10234
g17
g156
sbatp10235
Rp10236
(dp10237
g17
VROOT
p10238
sbasg172
(icmyPackage
CorE
p10239
(dp10240
g175
(lp10241
(I0
I1
tp10242
a(I0
I9
tp10243
asg179
g10009
sbsg180
(icmyPackage
CorE
p10244
(dp10245
g175
(lp10246
(I0
I11
tp10247
a(I0
I31
tp10248
asg179
g5
(g6
g7
(lp10249
g10033
ag10229
atp10250
Rp10251
(dp10252
g17
g190
sbsbsg191
(icmyPackage
pattern
p10253
(dp10254
g194
I18
sg195
I0
sg196
(lp10255
(lp10256
S'because'
p10257
aa(lp10258
g6969
aasg201
(lp10259
I3
aI1
aI1
asg203
(lp10260
S'Because he was absent for two weeks, the other students in his class are ahead of him.'
p10261
asg206
I75
sg207
(lp10262
(lp10263
a(lp10264
S'&C'
p10265
aa(lp10266
S'&R'
p10267
aasbsg214
(lp10268
(isxpPackage
sxpSent
p10269
(dp10270
g218
(lp10271
I26
asg220
VBecause a red car is both a car and red, the pair is classed as intersective , whereas dark humour , which is not literally dark, is classed as subsective
p10272
sg222
I10
sg206
I99
sg223
I29
sbasba(icmyPackage
CELink
p10273
(dp10274
g3
(lp10275
g5
(g6
g7
(lp10276
g5
(g6
g7
(lp10277
g5
(g6
g7
(lp10278
g5
(g6
g7
(lp10279
g5
(g6
g7
(lp10280
V2011
p10281
atp10282
Rp10283
(dp10284
g17
VVB
p10285
sbag5
(g6
g7
(lp10286
V-RRB-
p10287
atp10288
Rp10289
(dp10290
g17
V-RRB-
p10291
sbag5
(g6
g7
(lp10292
g5
(g6
g7
(lp10293
Vis
p10294
atp10295
Rp10296
(dp10297
g17
VVBZ
p10298
sbag5
(g6
g7
(lp10299
g5
(g6
g7
(lp10300
Vperhaps
p10301
atp10302
Rp10303
(dp10304
g17
VNNP
p10305
sbatp10306
Rp10307
(dp10308
g17
VNP
p10309
sbatp10310
Rp10311
(dp10312
g17
VNP
p10313
sbatp10314
Rp10315
(dp10316
g17
VVP
p10317
sbag5
(g6
g7
(lp10318
g5
(g6
g7
(lp10319
g5
(g6
g7
(lp10320
g5
(g6
g7
(lp10321
g5
(g6
g7
(lp10322
Vto
p10323
atp10324
Rp10325
(dp10326
g17
VTO
p10327
sbag5
(g6
g7
(lp10328
g5
(g6
g7
(lp10329
Vbe
p10330
atp10331
Rp10332
(dp10333
g17
VVB
p10334
sbag5
(g6
g7
(lp10335
g5
(g6
g7
(lp10336
Vexpected
p10337
atp10338
Rp10339
(dp10340
g17
VVBN
p10341
sbatp10342
Rp10343
(dp10344
g17
VVP
p10345
sbatp10346
Rp10347
(dp10348
g17
VVP
p10349
sbatp10350
Rp10351
(dp10352
g17
VVP
p10353
sbatp10354
Rp10355
(dp10356
g17
g156
sbatp10357
Rp10358
(dp10359
g17
VSBAR
p10360
sbag5
(g6
g7
(lp10361
g241
atp10362
Rp10363
(dp10364
g17
g241
sbag5
(g6
g7
(lp10365
g5
(g6
g7
(lp10366
Vsince
p10367
atp10368
Rp10369
(dp10370
g17
VIN
p10371
sbag5
(g6
g7
(lp10372
g5
(g6
g7
(lp10373
g5
(g6
g7
(lp10374
Vour
p10375
atp10376
Rp10377
(dp10378
g17
VPRP$
p10379
sbag5
(g6
g7
(lp10380
Vmodel
p10381
atp10382
Rp10383
(dp10384
g17
VNN
p10385
sbatp10386
Rp10387
(dp10388
g17
VNP
p10389
sbag5
(g6
g7
(lp10390
g5
(g6
g7
(lp10391
Vexploits
p10392
atp10393
Rp10394
(dp10395
g17
VVBZ
p10396
sbag5
(g6
g7
(lp10397
g5
(g6
g7
(lp10398
g5
(g6
g7
(lp10399
Vthe
p10400
atp10401
Rp10402
(dp10403
g17
VDT
p10404
sbag5
(g6
g7
(lp10405
Vwide
p10406
atp10407
Rp10408
(dp10409
g17
VJJ
p10410
sbag5
(g6
g7
(lp10411
Vscope
p10412
atp10413
Rp10414
(dp10415
g17
VNN
p10416
sbatp10417
Rp10418
(dp10419
g17
VNP
p10420
sbag5
(g6
g7
(lp10421
g5
(g6
g7
(lp10422
Vof
p10423
atp10424
Rp10425
(dp10426
g17
VIN
p10427
sbag5
(g6
g7
(lp10428
g5
(g6
g7
(lp10429
Vthe
p10430
atp10431
Rp10432
(dp10433
g17
VDT
p10434
sbag5
(g6
g7
(lp10435
Vnew
p10436
atp10437
Rp10438
(dp10439
g17
VJJ
p10440
sbatp10441
Rp10442
(dp10443
g17
VNP
p10444
sbatp10445
Rp10446
(dp10447
g17
VPP
p10448
sbatp10449
Rp10450
(dp10451
g17
VNP
p10452
sbatp10453
Rp10454
(dp10455
g17
VVP
p10456
sbatp10457
Rp10458
(dp10459
g17
g156
sbatp10460
Rp10461
(dp10462
g17
VSBAR
p10463
sbatp10464
Rp10465
(dp10466
g17
VSBAR
p10467
sbatp10468
Rp10469
(dp10470
g17
VVP
p10471
sbag5
(g6
g7
(lp10472
g5
(g6
g7
(lp10473
VBrysbaert
p10474
atp10475
Rp10476
(dp10477
g17
VNNP
p10478
sbag5
(g6
g7
(lp10479
Vet
p10480
atp10481
Rp10482
(dp10483
g17
VFW
p10484
sbag5
(g6
g7
(lp10485
Val
p10486
atp10487
Rp10488
(dp10489
g17
VNNP
p10490
sbatp10491
Rp10492
(dp10493
g17
VNP
p10494
sbatp10495
Rp10496
(dp10497
g17
VSINV
p10498
sbatp10499
Rp10500
(dp10501
g17
VROOT
p10502
sbasg172
(icmyPackage
CorE
p10503
(dp10504
g175
(lp10505
(I0
I9
tp10506
a(I0
I17
tp10507
asg179
g10458
sbsg180
(icmyPackage
CorE
p10508
(dp10509
g175
(lp10510
(I0
I0
tp10511
a(I0
I6
tp10512
asg179
g5
(g6
g7
(lp10513
g10315
ag10358
atp10514
Rp10515
(dp10516
g17
g190
sbsbsg191
(icmyPackage
pattern
p10517
(dp10518
g194
I23
sg195
I1
sg196
(lp10519
(lp10520
S'since'
p10521
aasg201
(lp10522
I3
aI1
aI1
asg203
(lp10523
S'This is one of the simplest cases since the surface is so thin.'
p10524
aS'He could not answer the question, since he had not made up his mind.'
p10525
aS'That manager has been a basket case here since his wife left him.'
p10526
asg206
I79
sg207
(lp10527
(lp10528
S'&R@NCTime@'
p10529
aS'(,)'
p10530
aa(lp10531
S'&C@NCTime@'
p10532
aasbsg214
(lp10533
(isxpPackage
sxpSent
p10534
(dp10535
g218
(lp10536
I27
asg220
V2011 ) is perhaps to be expected, since our model exploits the wide scope of the new Brysbaert et al
p10537
sg222
I11
sg206
I108
sg223
I31
sbasba(icmyPackage
CELink
p10538
(dp10539
g3
(lp10540
g5
(g6
g7
(lp10541
g5
(g6
g7
(lp10542
g5
(g6
g7
(lp10543
g5
(g6
g7
(lp10544
VThe
p10545
atp10546
Rp10547
(dp10548
g17
VDT
p10549
sbag5
(g6
g7
(lp10550
Vmodification-type
p10551
atp10552
Rp10553
(dp10554
g17
VJJ
p10555
sbag5
(g6
g7
(lp10556
Vtask
p10557
atp10558
Rp10559
(dp10560
g17
VNN
p10561
sbatp10562
Rp10563
(dp10564
g17
VNP
p10565
sbag5
(g6
g7
(lp10566
g5
(g6
g7
(lp10567
Vhas
p10568
atp10569
Rp10570
(dp10571
g17
VVBZ
p10572
sbag5
(g6
g7
(lp10573
g5
(g6
g7
(lp10574
g5
(g6
g7
(lp10575
Vno
p10576
atp10577
Rp10578
(dp10579
g17
VDT
p10580
sbag5
(g6
g7
(lp10581
Vperformance
p10582
atp10583
Rp10584
(dp10585
g17
VNN
p10586
sbag5
(g6
g7
(lp10587
Vbenchmark
p10588
atp10589
Rp10590
(dp10591
g17
VNN
p10592
sbatp10593
Rp10594
(dp10595
g17
VNP
p10596
sbag5
(g6
g7
(lp10597
g5
(g6
g7
(lp10598
Vsince
p10599
atp10600
Rp10601
(dp10602
g17
VIN
p10603
sbag5
(g6
g7
(lp10604
g5
(g6
g7
(lp10605
VBoleda
p10606
atp10607
Rp10608
(dp10609
g17
VNNP
p10610
sbag5
(g6
g7
(lp10611
Vet
p10612
atp10613
Rp10614
(dp10615
g17
VCC
p10616
sbag5
(g6
g7
(lp10617
Val
p10618
atp10619
Rp10620
(dp10621
g17
VNNP
p10622
sbatp10623
Rp10624
(dp10625
g17
VNP
p10626
sbatp10627
Rp10628
(dp10629
g17
VPP
p10630
sbatp10631
Rp10632
(dp10633
g17
VNP
p10634
sbatp10635
Rp10636
(dp10637
g17
VVP
p10638
sbatp10639
Rp10640
(dp10641
g17
g156
sbatp10642
Rp10643
(dp10644
g17
VROOT
p10645
sbag5
(g6
g7
(lp10646
g5
(g6
g7
(lp10647
g5
(g6
g7
(lp10648
V2012
p10649
atp10650
Rp10651
(dp10652
g17
VVB
p10653
sbag5
(g6
g7
(lp10654
V-RRB-
p10655
atp10656
Rp10657
(dp10658
g17
V-RRB-
p10659
sbag5
(g6
g7
(lp10660
g5
(g6
g7
(lp10661
g5
(g6
g7
(lp10662
g5
(g6
g7
(lp10663
Vdo
p10664
atp10665
Rp10666
(dp10667
g17
VVB
p10668
sbatp10669
Rp10670
(dp10671
g17
VVP
p10672
sbag5
(g6
g7
(lp10673
g5
(g6
g7
(lp10674
Vnot
p10675
atp10676
Rp10677
(dp10678
g17
VRB
p10679
sbag5
(g6
g7
(lp10680
g5
(g6
g7
(lp10681
Vuse
p10682
atp10683
Rp10684
(dp10685
g17
VNN
p10686
sbatp10687
Rp10688
(dp10689
g17
VNP
p10690
sbatp10691
Rp10692
(dp10693
g17
VPP
p10694
sbatp10695
Rp10696
(dp10697
g17
VNP
p10698
sbag5
(g6
g7
(lp10699
g5
(g6
g7
(lp10700
g5
(g6
g7
(lp10701
Vtheir
p10702
atp10703
Rp10704
(dp10705
g17
VPRP$
p10706
sbag5
(g6
g7
(lp10707
Vdata
p10708
atp10709
Rp10710
(dp10711
g17
VNNS
p10712
sbatp10713
Rp10714
(dp10715
g17
VNP
p10716
sbag5
(g6
g7
(lp10717
g5
(g6
g7
(lp10718
Vfor
p10719
atp10720
Rp10721
(dp10722
g17
VIN
p10723
sbag5
(g6
g7
(lp10724
g5
(g6
g7
(lp10725
Vclassification
p10726
atp10727
Rp10728
(dp10729
g17
VNN
p10730
sbatp10731
Rp10732
(dp10733
g17
VNP
p10734
sbatp10735
Rp10736
(dp10737
g17
VPP
p10738
sbatp10739
Rp10740
(dp10741
g17
VNP
p10742
sbatp10743
Rp10744
(dp10745
g17
VNP
p10746
sbatp10747
Rp10748
(dp10749
g17
VVP
p10750
sbatp10751
Rp10752
(dp10753
g17
VROOT
p10754
sbasg172
(icmyPackage
CorE
p10755
(dp10756
g175
(lp10757
(I0
I8
tp10758
a(I1
I8
tp10759
asg179
g5
(g6
g7
(lp10760
g10624
ag10752
atp10761
Rp10762
(dp10763
g17
g190
sbsbsg180
(icmyPackage
CorE
p10764
(dp10765
g175
(lp10766
(I0
I0
tp10767
a(I0
I6
tp10768
asg179
g5
(g6
g7
(lp10769
g10563
ag10570
ag10594
atp10770
Rp10771
(dp10772
g17
g190
sbsbsg191
g10517
sg214
(lp10773
(isxpPackage
sxpSent
p10774
(dp10775
g218
(lp10776
I28
asg220
VThe modification-type task has no performance benchmark since Boleda et al
p10777
sg222
I11
sg206
I111
sg223
I32
sba(isxpPackage
sxpSent
p10778
(dp10779
g218
(lp10780
I28
asg220
V2012 ) do not use their data for classification
p10781
sg222
I11
sg206
I112
sg223
I32
sbasba(icmyPackage
CELink
p10782
(dp10783
g3
(lp10784
g5
(g6
g7
(lp10785
g5
(g6
g7
(lp10786
g5
(g6
g7
(lp10787
g5
(g6
g7
(lp10788
VIn
p10789
atp10790
Rp10791
(dp10792
g17
VIN
p10793
sbag5
(g6
g7
(lp10794
g5
(g6
g7
(lp10795
Vaddition
p10796
atp10797
Rp10798
(dp10799
g17
VNN
p10800
sbatp10801
Rp10802
(dp10803
g17
VNP
p10804
sbatp10805
Rp10806
(dp10807
g17
VPP
p10808
sbag5
(g6
g7
(lp10809
g241
atp10810
Rp10811
(dp10812
g17
g241
sbag5
(g6
g7
(lp10813
g5
(g6
g7
(lp10814
Vwe
p10815
atp10816
Rp10817
(dp10818
g17
VPRP
p10819
sbatp10820
Rp10821
(dp10822
g17
VNP
p10823
sbag5
(g6
g7
(lp10824
g5
(g6
g7
(lp10825
Vshowed
p10826
atp10827
Rp10828
(dp10829
g17
VVBD
p10830
sbag5
(g6
g7
(lp10831
g5
(g6
g7
(lp10832
Vthat
p10833
atp10834
Rp10835
(dp10836
g17
VIN
p10837
sbag5
(g6
g7
(lp10838
g5
(g6
g7
(lp10839
g5
(g6
g7
(lp10840
Vboth
p10841
atp10842
Rp10843
(dp10844
g17
VDT
p10845
sbatp10846
Rp10847
(dp10848
g17
VNP
p10849
sbag5
(g6
g7
(lp10850
g5
(g6
g7
(lp10851
g5
(g6
g7
(lp10852
Vconcreteness
p10853
atp10854
Rp10855
(dp10856
g17
VVBZ
p10857
sbatp10858
Rp10859
(dp10860
g17
VVP
p10861
sbag5
(g6
g7
(lp10862
Vand
p10863
atp10864
Rp10865
(dp10866
g17
VCC
p10867
sbag5
(g6
g7
(lp10868
g5
(g6
g7
(lp10869
Vsubjectivity
p10870
atp10871
Rp10872
(dp10873
g17
VRB
p10874
sbatp10875
Rp10876
(dp10877
g17
VADVP
p10878
sbag5
(g6
g7
(lp10879
g5
(g6
g7
(lp10880
Vimprove
p10881
atp10882
Rp10883
(dp10884
g17
VVB
p10885
sbag5
(g6
g7
(lp10886
g5
(g6
g7
(lp10887
g5
(g6
g7
(lp10888
Vthe
p10889
atp10890
Rp10891
(dp10892
g17
VDT
p10893
sbag5
(g6
g7
(lp10894
Vautomatic
p10895
atp10896
Rp10897
(dp10898
g17
VJJ
p10899
sbag5
(g6
g7
(lp10900
Vclassification
p10901
atp10902
Rp10903
(dp10904
g17
VNN
p10905
sbatp10906
Rp10907
(dp10908
g17
VNP
p10909
sbag5
(g6
g7
(lp10910
g5
(g6
g7
(lp10911
Vof
p10912
atp10913
Rp10914
(dp10915
g17
VIN
p10916
sbag5
(g6
g7
(lp10917
g5
(g6
g7
(lp10918
Vadjective-noun
p10919
atp10920
Rp10921
(dp10922
g17
VJJ
p10923
sbag5
(g6
g7
(lp10924
Vpairs
p10925
atp10926
Rp10927
(dp10928
g17
VNNS
p10929
sbatp10930
Rp10931
(dp10932
g17
VNP
p10933
sbatp10934
Rp10935
(dp10936
g17
VPP
p10937
sbatp10938
Rp10939
(dp10940
g17
VNP
p10941
sbag5
(g6
g7
(lp10942
g5
(g6
g7
(lp10943
Vaccording
p10944
atp10945
Rp10946
(dp10947
g17
VVBG
p10948
sbag5
(g6
g7
(lp10949
g5
(g6
g7
(lp10950
Vto
p10951
atp10952
Rp10953
(dp10954
g17
VTO
p10955
sbag5
(g6
g7
(lp10956
g5
(g6
g7
(lp10957
g5
(g6
g7
(lp10958
Vcompositionality
p10959
atp10960
Rp10961
(dp10962
g17
VNN
p10963
sbatp10964
Rp10965
(dp10966
g17
VNP
p10967
sbag5
(g6
g7
(lp10968
Vor
p10969
atp10970
Rp10971
(dp10972
g17
VCC
p10973
sbag5
(g6
g7
(lp10974
g5
(g6
g7
(lp10975
g5
(g6
g7
(lp10976
Vmodification
p10977
atp10978
Rp10979
(dp10980
g17
VNN
p10981
sbag5
(g6
g7
(lp10982
Vtype
p10983
atp10984
Rp10985
(dp10986
g17
VNN
p10987
sbatp10988
Rp10989
(dp10990
g17
VNP
p10991
sbag5
(g6
g7
(lp10992
V-LRB-
p10993
atp10994
Rp10995
(dp10996
g17
V-LRB-
p10997
sbag5
(g6
g7
(lp10998
g5
(g6
g7
(lp10999
g5
(g6
g7
(lp11000
VSection
p11001
atp11002
Rp11003
(dp11004
g17
VNN
p11005
sbatp11006
Rp11007
(dp11008
g17
VNP
p11009
sbag5
(g6
g7
(lp11010
g5
(g6
g7
(lp11011
g7341
atp11012
Rp11013
(dp11014
g17
VCD
p11015
sbatp11016
Rp11017
(dp11018
g17
VNP
p11019
sbatp11020
Rp11021
(dp11022
g17
VNP
p11023
sbatp11024
Rp11025
(dp11026
g17
VNP
p11027
sbatp11028
Rp11029
(dp11030
g17
VNP
p11031
sbatp11032
Rp11033
(dp11034
g17
VPP
p11035
sbatp11036
Rp11037
(dp11038
g17
VPP
p11039
sbatp11040
Rp11041
(dp11042
g17
VVP
p11043
sbatp11044
Rp11045
(dp11046
g17
VVP
p11047
sbatp11048
Rp11049
(dp11050
g17
g156
sbatp11051
Rp11052
(dp11053
g17
VSBAR
p11054
sbatp11055
Rp11056
(dp11057
g17
VVP
p11058
sbatp11059
Rp11060
(dp11061
g17
g156
sbatp11062
Rp11063
(dp11064
g17
VROOT
p11065
sbasg172
(icmyPackage
CorE
p11066
(dp11067
g175
(lp11068
(I0
I19
tp11069
a(I0
I25
tp11070
asg179
g11029
sbsg180
(icmyPackage
CorE
p11071
(dp11072
g175
(lp11073
(I0
I0
tp11074
a(I0
I16
tp11075
asg179
g5
(g6
g7
(lp11076
g10806
ag10811
ag10821
ag10828
ag10835
ag10847
ag10859
ag10865
ag10876
ag10883
ag10939
atp11077
Rp11078
(dp11079
g17
g190
sbsbsg191
g192
sg214
(lp11080
(isxpPackage
sxpSent
p11081
(dp11082
g218
(lp11083
I29
asg220
VIn addition, we showed that both concreteness and subjectivity improve the automatic classification of adjective-noun pairs according to compositionality or modification type (Section 4
p11084
sg222
I12
sg206
I118
sg223
I33
sbasba(icmyPackage
CELink
p11085
(dp11086
g3
(lp11087
g5
(g6
g7
(lp11088
g5
(g6
g7
(lp11089
g5
(g6
g7
(lp11090
g5
(g6
g7
(lp11091
VWe
p11092
atp11093
Rp11094
(dp11095
g17
VPRP
p11096
sbatp11097
Rp11098
(dp11099
g17
VNP
p11100
sbag5
(g6
g7
(lp11101
g5
(g6
g7
(lp11102
Vhypothesize
p11103
atp11104
Rp11105
(dp11106
g17
VVBP
p11107
sbag5
(g6
g7
(lp11108
g5
(g6
g7
(lp11109
Vthat
p11110
atp11111
Rp11112
(dp11113
g17
VIN
p11114
sbag5
(g6
g7
(lp11115
g5
(g6
g7
(lp11116
g5
(g6
g7
(lp11117
Vconcreteness
p11118
atp11119
Rp11120
(dp11121
g17
VNNS
p11122
sbag5
(g6
g7
(lp11123
Vand
p11124
atp11125
Rp11126
(dp11127
g17
VCC
p11128
sbag5
(g6
g7
(lp11129
Vsubjectivity
p11130
atp11131
Rp11132
(dp11133
g17
VNN
p11134
sbatp11135
Rp11136
(dp11137
g17
VNP
p11138
sbag5
(g6
g7
(lp11139
g5
(g6
g7
(lp11140
Vare
p11141
atp11142
Rp11143
(dp11144
g17
VVBP
p11145
sbag5
(g6
g7
(lp11146
g5
(g6
g7
(lp11147
Vfundamental
p11148
atp11149
Rp11150
(dp11151
g17
VJJ
p11152
sbag5
(g6
g7
(lp11153
g5
(g6
g7
(lp11154
Vto
p11155
atp11156
Rp11157
(dp11158
g17
VTO
p11159
sbag5
(g6
g7
(lp11160
g5
(g6
g7
(lp11161
Vhuman
p11162
atp11163
Rp11164
(dp11165
g17
VJJ
p11166
sbag5
(g6
g7
(lp11167
Vlanguage
p11168
atp11169
Rp11170
(dp11171
g17
VNN
p11172
sbag5
(g6
g7
(lp11173
Vprocessing
p11174
atp11175
Rp11176
(dp11177
g17
VNN
p11178
sbatp11179
Rp11180
(dp11181
g17
VNP
p11182
sbatp11183
Rp11184
(dp11185
g17
VPP
p11186
sbatp11187
Rp11188
(dp11189
g17
VADJP
p11190
sbag5
(g6
g7
(lp11191
g5
(g6
g7
(lp11192
Vbecause
p11193
atp11194
Rp11195
(dp11196
g17
VIN
p11197
sbag5
(g6
g7
(lp11198
g5
(g6
g7
(lp11199
g5
(g6
g7
(lp11200
Vlanguage
p11201
atp11202
Rp11203
(dp11204
g17
VNN
p11205
sbatp11206
Rp11207
(dp11208
g17
VNP
p11209
sbag5
(g6
g7
(lp11210
g5
(g6
g7
(lp11211
Vis
p11212
atp11213
Rp11214
(dp11215
g17
VVBZ
p11216
sbag5
(g6
g7
(lp11217
g5
(g6
g7
(lp11218
Vprecisely
p11219
atp11220
Rp11221
(dp11222
g17
VRB
p11223
sbatp11224
Rp11225
(dp11226
g17
VADVP
p11227
sbag5
(g6
g7
(lp11228
g5
(g6
g7
(lp11229
g5
(g6
g7
(lp11230
Vthe
p11231
atp11232
Rp11233
(dp11234
g17
VDT
p11235
sbag5
(g6
g7
(lp11236
Vconveyance
p11237
atp11238
Rp11239
(dp11240
g17
VNN
p11241
sbatp11242
Rp11243
(dp11244
g17
VNP
p11245
sbag5
(g6
g7
(lp11246
g5
(g6
g7
(lp11247
Vof
p11248
atp11249
Rp11250
(dp11251
g17
VIN
p11252
sbag5
(g6
g7
(lp11253
g5
(g6
g7
(lp11254
g5
(g6
g7
(lp11255
Vinformation
p11256
atp11257
Rp11258
(dp11259
g17
VNN
p11260
sbatp11261
Rp11262
(dp11263
g17
VNP
p11264
sbag5
(g6
g7
(lp11265
g5
(g6
g7
(lp11266
Vabout
p11267
atp11268
Rp11269
(dp11270
g17
VIN
p11271
sbag5
(g6
g7
(lp11272
g5
(g6
g7
(lp11273
g5
(g6
g7
(lp11274
Vthe
p11275
atp11276
Rp11277
(dp11278
g17
VDT
p11279
sbag5
(g6
g7
(lp11280
Vworld
p11281
atp11282
Rp11283
(dp11284
g17
VNN
p11285
sbatp11286
Rp11287
(dp11288
g17
VNP
p11289
sbag5
(g6
g7
(lp11290
g5
(g6
g7
(lp11291
Vfrom
p11292
atp11293
Rp11294
(dp11295
g17
VIN
p11296
sbag5
(g6
g7
(lp11297
g5
(g6
g7
(lp11298
g5
(g6
g7
(lp11299
Vone
p11300
atp11301
Rp11302
(dp11303
g17
VCD
p11304
sbag5
(g6
g7
(lp11305
Vparty
p11306
atp11307
Rp11308
(dp11309
g17
VNN
p11310
sbatp11311
Rp11312
(dp11313
g17
VNP
p11314
sbag5
(g6
g7
(lp11315
g5
(g6
g7
(lp11316
Vto
p11317
atp11318
Rp11319
(dp11320
g17
VTO
p11321
sbag5
(g6
g7
(lp11322
g5
(g6
g7
(lp11323
Vanother
p11324
atp11325
Rp11326
(dp11327
g17
VDT
p11328
sbatp11329
Rp11330
(dp11331
g17
VNP
p11332
sbatp11333
Rp11334
(dp11335
g17
VPP
p11336
sbatp11337
Rp11338
(dp11339
g17
VNP
p11340
sbatp11341
Rp11342
(dp11343
g17
VPP
p11344
sbatp11345
Rp11346
(dp11347
g17
VNP
p11348
sbatp11349
Rp11350
(dp11351
g17
VPP
p11352
sbatp11353
Rp11354
(dp11355
g17
VNP
p11356
sbatp11357
Rp11358
(dp11359
g17
VPP
p11360
sbatp11361
Rp11362
(dp11363
g17
VNP
p11364
sbatp11365
Rp11366
(dp11367
g17
VVP
p11368
sbatp11369
Rp11370
(dp11371
g17
g156
sbatp11372
Rp11373
(dp11374
g17
VSBAR
p11375
sbatp11376
Rp11377
(dp11378
g17
VVP
p11379
sbatp11380
Rp11381
(dp11382
g17
g156
sbatp11383
Rp11384
(dp11385
g17
VSBAR
p11386
sbatp11387
Rp11388
(dp11389
g17
VVP
p11390
sbatp11391
Rp11392
(dp11393
g17
g156
sbatp11394
Rp11395
(dp11396
g17
VROOT
p11397
sbasg172
(icmyPackage
CorE
p11398
(dp11399
g175
(lp11400
(I0
I13
tp11401
a(I0
I27
tp11402
asg179
g11370
sbsg180
(icmyPackage
CorE
p11403
(dp11404
g175
(lp11405
(I0
I0
tp11406
a(I0
I11
tp11407
asg179
g5
(g6
g7
(lp11408
g11098
ag11105
ag11112
ag11136
ag11143
ag11188
atp11409
Rp11410
(dp11411
g17
g190
sbsbsg191
g2944
sg214
(lp11412
(isxpPackage
sxpSent
p11413
(dp11414
g218
(lp11415
I30
asg220
VWe hypothesize that concreteness and subjectivity are fundamental to human language processing because language is precisely the conveyance of information about the world from one party to another
p11416
sg222
I12
sg206
I121
sg223
I34
sbasba(icmyPackage
CELink
p11417
(dp11418
g3
(lp11419
g5
(g6
g7
(lp11420
g5
(g6
g7
(lp11421
g5
(g6
g7
(lp11422
g5
(g6
g7
(lp11423
VAs
p11424
atp11425
Rp11426
(dp11427
g17
VIN
p11428
sbag5
(g6
g7
(lp11429
g5
(g6
g7
(lp11430
g5
(g6
g7
(lp11431
Vthe
p11432
atp11433
Rp11434
(dp11435
g17
VDT
p11436
sbag5
(g6
g7
(lp11437
Vresults
p11438
atp11439
Rp11440
(dp11441
g17
VNNS
p11442
sbatp11443
Rp11444
(dp11445
g17
VNP
p11446
sbag5
(g6
g7
(lp11447
g5
(g6
g7
(lp11448
Vsuggest
p11449
atp11450
Rp11451
(dp11452
g17
VVBP
p11453
sbatp11454
Rp11455
(dp11456
g17
VVP
p11457
sbatp11458
Rp11459
(dp11460
g17
g156
sbatp11461
Rp11462
(dp11463
g17
VSBAR
p11464
sbag5
(g6
g7
(lp11465
g241
atp11466
Rp11467
(dp11468
g17
g241
sbag5
(g6
g7
(lp11469
g5
(g6
g7
(lp11470
Vthey
p11471
atp11472
Rp11473
(dp11474
g17
VPRP
p11475
sbatp11476
Rp11477
(dp11478
g17
VNP
p11479
sbag5
(g6
g7
(lp11480
g5
(g6
g7
(lp11481
Vmay
p11482
atp11483
Rp11484
(dp11485
g17
VMD
p11486
sbag5
(g6
g7
(lp11487
g5
(g6
g7
(lp11488
Vbe
p11489
atp11490
Rp11491
(dp11492
g17
VVB
p11493
sbag5
(g6
g7
(lp11494
g5
(g6
g7
(lp11495
Vparticularly
p11496
atp11497
Rp11498
(dp11499
g17
VRB
p11500
sbag5
(g6
g7
(lp11501
Vimportant
p11502
atp11503
Rp11504
(dp11505
g17
VJJ
p11506
sbag5
(g6
g7
(lp11507
g5
(g6
g7
(lp11508
Vfor
p11509
atp11510
Rp11511
(dp11512
g17
VIN
p11513
sbag5
(g6
g7
(lp11514
g5
(g6
g7
(lp11515
g5
(g6
g7
(lp11516
g5
(g6
g7
(lp11517
Vcapturing
p11518
atp11519
Rp11520
(dp11521
g17
VVBG
p11522
sbag5
(g6
g7
(lp11523
g5
(g6
g7
(lp11524
g5
(g6
g7
(lp11525
Vthe
p11526
atp11527
Rp11528
(dp11529
g17
VDT
p11530
sbag5
(g6
g7
(lp11531
Vintricacies
p11532
atp11533
Rp11534
(dp11535
g17
VNNS
p11536
sbatp11537
Rp11538
(dp11539
g17
VNP
p11540
sbag5
(g6
g7
(lp11541
g5
(g6
g7
(lp11542
Vof
p11543
atp11544
Rp11545
(dp11546
g17
VIN
p11547
sbag5
(g6
g7
(lp11548
g5
(g6
g7
(lp11549
Vsemantic
p11550
atp11551
Rp11552
(dp11553
g17
VJJ
p11554
sbag5
(g6
g7
(lp11555
Vcomposition
p11556
atp11557
Rp11558
(dp11559
g17
VNN
p11560
sbatp11561
Rp11562
(dp11563
g17
VNP
p11564
sbatp11565
Rp11566
(dp11567
g17
VPP
p11568
sbatp11569
Rp11570
(dp11571
g17
VNP
p11572
sbatp11573
Rp11574
(dp11575
g17
VVP
p11576
sbag5
(g6
g7
(lp11577
Vand
p11578
atp11579
Rp11580
(dp11581
g17
VCC
p11582
sbag5
(g6
g7
(lp11583
g5
(g6
g7
(lp11584
Vthus
p11585
atp11586
Rp11587
(dp11588
g17
VRB
p11589
sbatp11590
Rp11591
(dp11592
g17
VADVP
p11593
sbag5
(g6
g7
(lp11594
g5
(g6
g7
(lp11595
Vextending
p11596
atp11597
Rp11598
(dp11599
g17
VVBG
p11600
sbag5
(g6
g7
(lp11601
g5
(g6
g7
(lp11602
Vrepresentations
p11603
atp11604
Rp11605
(dp11606
g17
VNNS
p11607
sbatp11608
Rp11609
(dp11610
g17
VNP
p11611
sbag5
(g6
g7
(lp11612
g5
(g6
g7
(lp11613
Vbeyond
p11614
atp11615
Rp11616
(dp11617
g17
VIN
p11618
sbag5
(g6
g7
(lp11619
g5
(g6
g7
(lp11620
Vthe
p11621
atp11622
Rp11623
(dp11624
g17
VDT
p11625
sbag5
(g6
g7
(lp11626
Vlexeme
p11627
atp11628
Rp11629
(dp11630
g17
VNN
p11631
sbatp11632
Rp11633
(dp11634
g17
VNP
p11635
sbatp11636
Rp11637
(dp11638
g17
VPP
p11639
sbatp11640
Rp11641
(dp11642
g17
VVP
p11643
sbatp11644
Rp11645
(dp11646
g17
VVP
p11647
sbatp11648
Rp11649
(dp11650
g17
g156
sbatp11651
Rp11652
(dp11653
g17
VPP
p11654
sbatp11655
Rp11656
(dp11657
g17
VADJP
p11658
sbatp11659
Rp11660
(dp11661
g17
VVP
p11662
sbatp11663
Rp11664
(dp11665
g17
VVP
p11666
sbatp11667
Rp11668
(dp11669
g17
g156
sbatp11670
Rp11671
(dp11672
g17
VROOT
p11673
sbag5
(g6
g7
(lp11674
g5
(g6
g7
(lp11675
g5
(g6
g7
(lp11676
g5
(g6
g7
(lp11677
VOf
p11678
atp11679
Rp11680
(dp11681
g17
VIN
p11682
sbag5
(g6
g7
(lp11683
g5
(g6
g7
(lp11684
Vcourse
p11685
atp11686
Rp11687
(dp11688
g17
VNN
p11689
sbatp11690
Rp11691
(dp11692
g17
VNP
p11693
sbatp11694
Rp11695
(dp11696
g17
VPP
p11697
sbag5
(g6
g7
(lp11698
g241
atp11699
Rp11700
(dp11701
g17
g241
sbag5
(g6
g7
(lp11702
g5
(g6
g7
(lp11703
Vtwo
p11704
atp11705
Rp11706
(dp11707
g17
VCD
p11708
sbag5
(g6
g7
(lp11709
Vdimensions
p11710
atp11711
Rp11712
(dp11713
g17
VNNS
p11714
sbatp11715
Rp11716
(dp11717
g17
VNP
p11718
sbag5
(g6
g7
(lp11719
g5
(g6
g7
(lp11720
Valone
p11721
atp11722
Rp11723
(dp11724
g17
VRB
p11725
sbatp11726
Rp11727
(dp11728
g17
VADVP
p11729
sbag5
(g6
g7
(lp11730
g5
(g6
g7
(lp11731
Vare
p11732
atp11733
Rp11734
(dp11735
g17
VVBP
p11736
sbag5
(g6
g7
(lp11737
Vnot
p11738
atp11739
Rp11740
(dp11741
g17
VRB
p11742
sbag5
(g6
g7
(lp11743
g5
(g6
g7
(lp11744
Vsufficient
p11745
atp11746
Rp11747
(dp11748
g17
VJJ
p11749
sbag5
(g6
g7
(lp11750
g5
(g6
g7
(lp11751
g5
(g6
g7
(lp11752
Vto
p11753
atp11754
Rp11755
(dp11756
g17
VTO
p11757
sbag5
(g6
g7
(lp11758
g5
(g6
g7
(lp11759
Vreflect
p11760
atp11761
Rp11762
(dp11763
g17
VVB
p11764
sbag5
(g6
g7
(lp11765
g5
(g6
g7
(lp11766
g5
(g6
g7
(lp11767
Vall
p11768
atp11769
Rp11770
(dp11771
g17
VDT
p11772
sbatp11773
Rp11774
(dp11775
g17
VNP
p11776
sbag5
(g6
g7
(lp11777
g5
(g6
g7
(lp11778
Vof
p11779
atp11780
Rp11781
(dp11782
g17
VIN
p11783
sbag5
(g6
g7
(lp11784
g5
(g6
g7
(lp11785
g5
(g6
g7
(lp11786
Vthe
p11787
atp11788
Rp11789
(dp11790
g17
VDT
p11791
sbag5
(g6
g7
(lp11792
Vsubtleties
p11793
atp11794
Rp11795
(dp11796
g17
VNNS
p11797
sbatp11798
Rp11799
(dp11800
g17
VNP
p11801
sbag5
(g6
g7
(lp11802
g5
(g6
g7
(lp11803
Vof
p11804
atp11805
Rp11806
(dp11807
g17
VIN
p11808
sbag5
(g6
g7
(lp11809
g5
(g6
g7
(lp11810
Vadjective
p11811
atp11812
Rp11813
(dp11814
g17
VNN
p11815
sbag5
(g6
g7
(lp11816
Vand
p11817
atp11818
Rp11819
(dp11820
g17
VCC
p11821
sbag5
(g6
g7
(lp11822
Vnoun
p11823
atp11824
Rp11825
(dp11826
g17
VNN
p11827
sbag5
(g6
g7
(lp11828
Vsemantics
p11829
atp11830
Rp11831
(dp11832
g17
VNNS
p11833
sbatp11834
Rp11835
(dp11836
g17
VNP
p11837
sbatp11838
Rp11839
(dp11840
g17
VPP
p11841
sbatp11842
Rp11843
(dp11844
g17
VNP
p11845
sbatp11846
Rp11847
(dp11848
g17
VPP
p11849
sbatp11850
Rp11851
(dp11852
g17
VNP
p11853
sbatp11854
Rp11855
(dp11856
g17
VVP
p11857
sbatp11858
Rp11859
(dp11860
g17
VVP
p11861
sbatp11862
Rp11863
(dp11864
g17
g156
sbatp11865
Rp11866
(dp11867
g17
VADJP
p11868
sbatp11869
Rp11870
(dp11871
g17
VVP
p11872
sbatp11873
Rp11874
(dp11875
g17
g156
sbatp11876
Rp11877
(dp11878
g17
VROOT
p11879
sbasg172
(icmyPackage
CorE
p11880
(dp11881
g175
(lp11882
(I0
I0
tp11883
a(I0
I16
tp11884
asg179
g5
(g6
g7
(lp11885
g11462
ag11467
ag11477
ag11484
ag11491
ag11498
ag11504
ag11511
ag11574
atp11886
Rp11887
(dp11888
g17
g190
sbsbsg180
(icmyPackage
CorE
p11889
(dp11890
g175
(lp11891
(I0
I19
tp11892
a(I1
I19
tp11893
asg179
g5
(g6
g7
(lp11894
g11641
ag11877
atp11895
Rp11896
(dp11897
g17
g190
sbsbsg191
g876
sg214
(lp11898
(isxpPackage
sxpSent
p11899
(dp11900
g218
(lp11901
I31
asg220
VAs the results suggest, they may be particularly important for capturing the intricacies of semantic composition and thus extending representations beyond the lexeme
p11902
sg222
I12
sg206
I124
sg223
I34
sba(isxpPackage
sxpSent
p11903
(dp11904
g218
(lp11905
I31
asg220
VOf course, two dimensions alone are not sufficient to reflect all of the subtleties of adjective and noun semantics
p11906
sg222
I12
sg206
I125
sg223
I35
sbasba(icmyPackage
CELink
p11907
(dp11908
g3
(lp11909
g5
(g6
g7
(lp11910
g5
(g6
g7
(lp11911
g5
(g6
g7
(lp11912
g5
(g6
g7
(lp11913
VFor
p11914
atp11915
Rp11916
(dp11917
g17
VIN
p11918
sbag5
(g6
g7
(lp11919
g5
(g6
g7
(lp11920
Vinstance
p11921
atp11922
Rp11923
(dp11924
g17
VNN
p11925
sbatp11926
Rp11927
(dp11928
g17
VNP
p11929
sbatp11930
Rp11931
(dp11932
g17
VPP
p11933
sbag5
(g6
g7
(lp11934
g241
atp11935
Rp11936
(dp11937
g17
g241
sbag5
(g6
g7
(lp11938
g5
(g6
g7
(lp11939
Vour
p11940
atp11941
Rp11942
(dp11943
g17
VPRP$
p11944
sbag5
(g6
g7
(lp11945
Vmodel
p11946
atp11947
Rp11948
(dp11949
g17
VNN
p11950
sbatp11951
Rp11952
(dp11953
g17
VNP
p11954
sbag5
(g6
g7
(lp11955
g5
(g6
g7
(lp11956
Vclassifies
p11957
atp11958
Rp11959
(dp11960
g17
VVBZ
p11961
sbag5
(g6
g7
(lp11962
g5
(g6
g7
(lp11963
g5
(g6
g7
(lp11964
g5
(g6
g7
(lp11965
Vwhite
p11966
atp11967
Rp11968
(dp11969
g17
VJJ
p11970
sbag5
(g6
g7
(lp11971
Vspirit
p11972
atp11973
Rp11974
(dp11975
g17
VNN
p11976
sbatp11977
Rp11978
(dp11979
g17
VNP
p11980
sbag5
(g6
g7
(lp11981
g241
atp11982
Rp11983
(dp11984
g17
g241
sbag5
(g6
g7
(lp11985
g5
(g6
g7
(lp11986
g763
atp11987
Rp11988
(dp11989
g17
VDT
p11990
sbag5
(g6
g7
(lp11991
Vtransparent
p11992
atp11993
Rp11994
(dp11995
g17
VJJ
p11996
sbag5
(g6
g7
(lp11997
Vcleaning
p11998
atp11999
Rp12000
(dp12001
g17
VNN
p12002
sbag5
(g6
g7
(lp12003
Vproduct
p12004
atp12005
Rp12006
(dp12007
g17
VNN
p12008
sbatp12009
Rp12010
(dp12011
g17
VNP
p12012
sbag5
(g6
g7
(lp12013
g241
atp12014
Rp12015
(dp12016
g17
g241
sbatp12017
Rp12018
(dp12019
g17
VNP
p12020
sbag5
(g6
g7
(lp12021
g5
(g6
g7
(lp12022
Vas
p12023
atp12024
Rp12025
(dp12026
g17
VIN
p12027
sbag5
(g6
g7
(lp12028
g5
(g6
g7
(lp12029
Vnon-literal
p12030
atp12031
Rp12032
(dp12033
g17
VNN
p12034
sbatp12035
Rp12036
(dp12037
g17
VNP
p12038
sbatp12039
Rp12040
(dp12041
g17
VPP
p12042
sbatp12043
Rp12044
(dp12045
g17
VNP
p12046
sbag5
(g6
g7
(lp12047
g241
atp12048
Rp12049
(dp12050
g17
g241
sbag5
(g6
g7
(lp12051
g5
(g6
g7
(lp12052
Vsince
p12053
atp12054
Rp12055
(dp12056
g17
VIN
p12057
sbag5
(g6
g7
(lp12058
g5
(g6
g7
(lp12059
g5
(g6
g7
(lp12060
Vthe
p12061
atp12062
Rp12063
(dp12064
g17
VDT
p12065
sbag5
(g6
g7
(lp12066
Vlexical
p12067
atp12068
Rp12069
(dp12070
g17
VJJ
p12071
sbag5
(g6
g7
(lp12072
Vconcreteness
p12073
atp12074
Rp12075
(dp12076
g17
VNNS
p12077
sbag5
(g6
g7
(lp12078
Vscore
p12079
atp12080
Rp12081
(dp12082
g17
VNN
p12083
sbatp12084
Rp12085
(dp12086
g17
VNP
p12087
sbag5
(g6
g7
(lp12088
g5
(g6
g7
(lp12089
Vdoes
p12090
atp12091
Rp12092
(dp12093
g17
VVBZ
p12094
sbag5
(g6
g7
(lp12095
Vnot
p12096
atp12097
Rp12098
(dp12099
g17
VRB
p12100
sbag5
(g6
g7
(lp12101
g5
(g6
g7
(lp12102
Vallow
p12103
atp12104
Rp12105
(dp12106
g17
VVB
p12107
sbag5
(g6
g7
(lp12108
g5
(g6
g7
(lp12109
Vfor
p12110
atp12111
Rp12112
(dp12113
g17
VIN
p12114
sbag5
(g6
g7
(lp12115
g5
(g6
g7
(lp12116
Vstrong
p12117
atp12118
Rp12119
(dp12120
g17
VJJ
p12121
sbag5
(g6
g7
(lp12122
Vnoun
p12123
atp12124
Rp12125
(dp12126
g17
VNN
p12127
sbag5
(g6
g7
(lp12128
Vpolysemy
p12129
atp12130
Rp12131
(dp12132
g17
VNN
p12133
sbatp12134
Rp12135
(dp12136
g17
VNP
p12137
sbatp12138
Rp12139
(dp12140
g17
VPP
p12141
sbatp12142
Rp12143
(dp12144
g17
VVP
p12145
sbatp12146
Rp12147
(dp12148
g17
VVP
p12149
sbatp12150
Rp12151
(dp12152
g17
g156
sbatp12153
Rp12154
(dp12155
g17
VSBAR
p12156
sbatp12157
Rp12158
(dp12159
g17
VVP
p12160
sbatp12161
Rp12162
(dp12163
g17
g156
sbatp12164
Rp12165
(dp12166
g17
VROOT
p12167
sbasg172
(icmyPackage
CorE
p12168
(dp12169
g175
(lp12170
(I0
I18
tp12171
a(I0
I28
tp12172
asg179
g12151
sbsg180
(icmyPackage
CorE
p12173
(dp12174
g175
(lp12175
(I0
I0
tp12176
a(I0
I15
tp12177
asg179
g5
(g6
g7
(lp12178
g11931
ag11936
ag11952
ag11959
ag12044
atp12179
Rp12180
(dp12181
g17
g190
sbsbsg191
g10517
sg214
(lp12182
(isxpPackage
sxpSent
p12183
(dp12184
g218
(lp12185
I32
asg220
VFor instance, our model classifies white spirit , a transparent cleaning product, as non-literal, since the lexical concreteness score does not allow for strong noun polysemy
p12186
sg222
I12
sg206
I126
sg223
I35
sbasba(icmyPackage
CELink
p12187
(dp12188
g3
(lp12189
g5
(g6
g7
(lp12190
g5
(g6
g7
(lp12191
g5
(g6
g7
(lp12192
g5
(g6
g7
(lp12193
VWe
p12194
atp12195
Rp12196
(dp12197
g17
VPRP
p12198
sbatp12199
Rp12200
(dp12201
g17
VNP
p12202
sbag5
(g6
g7
(lp12203
g5
(g6
g7
(lp12204
Vaim
p12205
atp12206
Rp12207
(dp12208
g17
VVBP
p12209
sbag5
(g6
g7
(lp12210
g5
(g6
g7
(lp12211
g5
(g6
g7
(lp12212
g5
(g6
g7
(lp12213
g5
(g6
g7
(lp12214
Vto
p12215
atp12216
Rp12217
(dp12218
g17
VTO
p12219
sbag5
(g6
g7
(lp12220
g5
(g6
g7
(lp12221
Vaddress
p12222
atp12223
Rp12224
(dp12225
g17
VVB
p12226
sbag5
(g6
g7
(lp12227
g5
(g6
g7
(lp12228
g5
(g6
g7
(lp12229
Vthese
p12230
atp12231
Rp12232
(dp12233
g17
VDT
p12234
sbag5
(g6
g7
(lp12235
Vlimitations
p12236
atp12237
Rp12238
(dp12239
g17
VNNS
p12240
sbatp12241
Rp12242
(dp12243
g17
VNP
p12244
sbag5
(g6
g7
(lp12245
g5
(g6
g7
(lp12246
Vin
p12247
atp12248
Rp12249
(dp12250
g17
VIN
p12251
sbag5
(g6
g7
(lp12252
g5
(g6
g7
(lp12253
Vfuture
p12254
atp12255
Rp12256
(dp12257
g17
VJJ
p12258
sbag5
(g6
g7
(lp12259
Vwork
p12260
atp12261
Rp12262
(dp12263
g17
VNN
p12264
sbatp12265
Rp12266
(dp12267
g17
VNP
p12268
sbatp12269
Rp12270
(dp12271
g17
VPP
p12272
sbatp12273
Rp12274
(dp12275
g17
VNP
p12276
sbag5
(g6
g7
(lp12277
g5
(g6
g7
(lp12278
Vby
p12279
atp12280
Rp12281
(dp12282
g17
VIN
p12283
sbag5
(g6
g7
(lp12284
g5
(g6
g7
(lp12285
g5
(g6
g7
(lp12286
Vintegrating
p12287
atp12288
Rp12289
(dp12290
g17
VVBG
p12291
sbag5
(g6
g7
(lp12292
g5
(g6
g7
(lp12293
Vsubjectivity
p12294
atp12295
Rp12296
(dp12297
g17
VNN
p12298
sbag5
(g6
g7
(lp12299
Vand
p12300
atp12301
Rp12302
(dp12303
g17
VCC
p12304
sbag5
(g6
g7
(lp12305
Vconcreteness
p12306
atp12307
Rp12308
(dp12309
g17
VNNS
p12310
sbatp12311
Rp12312
(dp12313
g17
VNP
p12314
sbag5
(g6
g7
(lp12315
g5
(g6
g7
(lp12316
Vwith
p12317
atp12318
Rp12319
(dp12320
g17
VIN
p12321
sbag5
(g6
g7
(lp12322
g5
(g6
g7
(lp12323
g5
(g6
g7
(lp12324
Vconventially
p12325
atp12326
Rp12327
(dp12328
g17
VRB
p12329
sbag5
(g6
g7
(lp12330
Vacquired
p12331
atp12332
Rp12333
(dp12334
g17
VVBN
p12335
sbatp12336
Rp12337
(dp12338
g17
VADJP
p12339
sbag5
(g6
g7
(lp12340
Vsemantic
p12341
atp12342
Rp12343
(dp12344
g17
VJJ
p12345
sbag5
(g6
g7
(lp12346
Vrepresentations
p12347
atp12348
Rp12349
(dp12350
g17
VNNS
p12351
sbatp12352
Rp12353
(dp12354
g17
VNP
p12355
sbatp12356
Rp12357
(dp12358
g17
VPP
p12359
sbatp12360
Rp12361
(dp12362
g17
VVP
p12363
sbatp12364
Rp12365
(dp12366
g17
g156
sbatp12367
Rp12368
(dp12369
g17
VPP
p12370
sbatp12371
Rp12372
(dp12373
g17
VVP
p12374
sbatp12375
Rp12376
(dp12377
g17
VVP
p12378
sbatp12379
Rp12380
(dp12381
g17
g156
sbag5
(g6
g7
(lp12382
g241
atp12383
Rp12384
(dp12385
g17
g241
sbag5
(g6
g7
(lp12386
Vand
p12387
atp12388
Rp12389
(dp12390
g17
VCC
p12391
sbag5
(g6
g7
(lp12392
g241
atp12393
Rp12394
(dp12395
g17
g241
sbag5
(g6
g7
(lp12396
g5
(g6
g7
(lp12397
Vultimately
p12398
atp12399
Rp12400
(dp12401
g17
VRB
p12402
sbatp12403
Rp12404
(dp12405
g17
VADVP
p12406
sbag5
(g6
g7
(lp12407
g241
atp12408
Rp12409
(dp12410
g17
g241
sbag5
(g6
g7
(lp12411
g5
(g6
g7
(lp12412
g5
(g6
g7
(lp12413
g5
(g6
g7
(lp12414
Vmodels
p12415
atp12416
Rp12417
(dp12418
g17
VNNS
p12419
sbatp12420
Rp12421
(dp12422
g17
VNP
p12423
sbag5
(g6
g7
(lp12424
g5
(g6
g7
(lp12425
g5
(g6
g7
(lp12426
Vthat
p12427
atp12428
Rp12429
(dp12430
g17
VWDT
p12431
sbatp12432
Rp12433
(dp12434
g17
VWHNP
p12435
sbag5
(g6
g7
(lp12436
g5
(g6
g7
(lp12437
g5
(g6
g7
(lp12438
Vintegrate
p12439
atp12440
Rp12441
(dp12442
g17
VVB
p12443
sbag5
(g6
g7
(lp12444
g5
(g6
g7
(lp12445
Vinput
p12446
atp12447
Rp12448
(dp12449
g17
VNN
p12450
sbag5
(g6
g7
(lp12451
Vcorresponding
p12452
atp12453
Rp12454
(dp12455
g17
VJJ
p12456
sbatp12457
Rp12458
(dp12459
g17
VNP
p12460
sbag5
(g6
g7
(lp12461
g5
(g6
g7
(lp12462
Vto
p12463
atp12464
Rp12465
(dp12466
g17
VTO
p12467
sbag5
(g6
g7
(lp12468
g5
(g6
g7
(lp12469
Vthe
p12470
atp12471
Rp12472
(dp12473
g17
VDT
p12474
sbag5
(g6
g7
(lp12475
Vperceptual
p12476
atp12477
Rp12478
(dp12479
g17
VJJ
p12480
sbag5
(g6
g7
(lp12481
Vmodalities
p12482
atp12483
Rp12484
(dp12485
g17
VNNS
p12486
sbatp12487
Rp12488
(dp12489
g17
VNP
p12490
sbatp12491
Rp12492
(dp12493
g17
VPP
p12494
sbatp12495
Rp12496
(dp12497
g17
VVP
p12498
sbatp12499
Rp12500
(dp12501
g17
g156
sbatp12502
Rp12503
(dp12504
g17
VSBAR
p12505
sbatp12506
Rp12507
(dp12508
g17
VNP
p12509
sbatp12510
Rp12511
(dp12512
g17
g156
sbatp12513
Rp12514
(dp12515
g17
g156
sbatp12516
Rp12517
(dp12518
g17
VSBAR
p12519
sbatp12520
Rp12521
(dp12522
g17
VVP
p12523
sbatp12524
Rp12525
(dp12526
g17
g156
sbatp12527
Rp12528
(dp12529
g17
VROOT
p12530
sbasg172
(icmyPackage
CorE
p12531
(dp12532
g175
(lp12533
(I0
I10
tp12534
a(I0
I18
tp12535
asg179
g12365
sbsg180
(icmyPackage
CorE
p12536
(dp12537
g175
(lp12538
(I0
I19
tp12539
a(I0
I31
tp12540
asg179
g5
(g6
g7
(lp12541
g12384
ag12389
ag12394
ag12404
ag12409
ag12421
ag12433
ag12441
ag12458
ag12465
ag12472
ag12478
atp12542
Rp12543
(dp12544
g17
g190
sbsbsg191
(icmyPackage
pattern
p12545
(dp12546
g194
I0
sg195
I0
sg196
(lp12547
(lp12548
(lp12549
S'by'
p12550
aS'through'
p12551
aaasg201
(lp12552
I2
aI1
aI1
asg203
(lp12553
S'By extracting comments and comparisons of the cited articles and then organizing them according to the time of publication discovers and displays how the area has developed as a research literature.'
p12554
asg206
I67
sg207
(lp12555
(lp12556
a(lp12557
S'&V-ing@C@'
p12558
aS'&R'
p12559
aasbsg214
(lp12560
(isxpPackage
sxpSent
p12561
(dp12562
g218
(lp12563
I33
asg220
VWe aim to address these limitations in future work by integrating subjectivity and concreteness with conventially acquired semantic representations, and, ultimately, models that integrate input corresponding to the perceptual modalities
p12564
sg222
I12
sg206
I128
sg223
I36
sbasba.