(lp0
(icmyPackage
CELink
p1
(dp2
S'PTreelst'
p3
(lp4
ccopy_reg
_reconstructor
p5
(cnltk.tree
Tree
p6
c__builtin__
list
p7
(lp8
g5
(g6
g7
(lp9
g5
(g6
g7
(lp10
g5
(g6
g7
(lp11
VWith
p12
atp13
Rp14
(dp15
S'_label'
p16
VIN
p17
sbag5
(g6
g7
(lp18
g5
(g6
g7
(lp19
g5
(g6
g7
(lp20
Vthe
p21
atp22
Rp23
(dp24
g16
VDT
p25
sbag5
(g6
g7
(lp26
Vrise
p27
atp28
Rp29
(dp30
g16
VNN
p31
sbatp32
Rp33
(dp34
g16
VNP
p35
sbag5
(g6
g7
(lp36
g5
(g6
g7
(lp37
Vof
p38
atp39
Rp40
(dp41
g16
VIN
p42
sbag5
(g6
g7
(lp43
g5
(g6
g7
(lp44
Vsocial
p45
atp46
Rp47
(dp48
g16
VJJ
p49
sbag5
(g6
g7
(lp50
Vmedia
p51
atp52
Rp53
(dp54
g16
VNNS
p55
sbatp56
Rp57
(dp58
g16
VNP
p59
sbatp60
Rp61
(dp62
g16
VPP
p63
sbatp64
Rp65
(dp66
g16
VNP
p67
sbatp68
Rp69
(dp70
g16
VPP
p71
sbag5
(g6
g7
(lp72
V,
p73
atp74
Rp75
(dp76
g16
g73
sbag5
(g6
g7
(lp77
g5
(g6
g7
(lp78
Vresearchers
p79
atp80
Rp81
(dp82
g16
VNNS
p83
sbatp84
Rp85
(dp86
g16
VNP
p87
sbag5
(g6
g7
(lp88
g5
(g6
g7
(lp89
Vhave
p90
atp91
Rp92
(dp93
g16
VVBP
p94
sbag5
(g6
g7
(lp95
g5
(g6
g7
(lp96
Vsought
p97
atp98
Rp99
(dp100
g16
VVBN
p101
sbag5
(g6
g7
(lp102
g5
(g6
g7
(lp103
g5
(g6
g7
(lp104
Vto
p105
atp106
Rp107
(dp108
g16
VTO
p109
sbag5
(g6
g7
(lp110
g5
(g6
g7
(lp111
Vinduce
p112
atp113
Rp114
(dp115
g16
VVB
p116
sbag5
(g6
g7
(lp117
g5
(g6
g7
(lp118
Vmodels
p119
atp120
Rp121
(dp122
g16
VNNS
p123
sbatp124
Rp125
(dp126
g16
VNP
p127
sbag5
(g6
g7
(lp128
g5
(g6
g7
(lp129
Vfor
p130
atp131
Rp132
(dp133
g16
VIN
p134
sbag5
(g6
g7
(lp135
g5
(g6
g7
(lp136
g5
(g6
g7
(lp137
Vpredicting
p138
atp139
Rp140
(dp141
g16
VVBG
p142
sbag5
(g6
g7
(lp143
g5
(g6
g7
(lp144
g5
(g6
g7
(lp145
Vlatent
p146
atp147
Rp148
(dp149
g16
VJJ
p150
sbatp151
Rp152
(dp153
g16
VADJP
p154
sbag5
(g6
g7
(lp155
g5
(g6
g7
(lp156
g5
(g6
g7
(lp157
Vauthor
p158
atp159
Rp160
(dp161
g16
VNN
p162
sbag5
(g6
g7
(lp163
Vattributes
p164
atp165
Rp166
(dp167
g16
VNNS
p168
sbatp169
Rp170
(dp171
g16
VNP
p172
sbag5
(g6
g7
(lp173
g5
(g6
g7
(lp174
Vsuch
p175
atp176
Rp177
(dp178
g16
VJJ
p179
sbag5
(g6
g7
(lp180
Vas
p181
atp182
Rp183
(dp184
g16
VIN
p185
sbag5
(g6
g7
(lp186
g5
(g6
g7
(lp187
g5
(g6
g7
(lp188
Vgender
p189
atp190
Rp191
(dp192
g16
VNN
p193
sbatp194
Rp195
(dp196
g16
VNP
p197
sbag5
(g6
g7
(lp198
g73
atp199
Rp200
(dp201
g16
g73
sbag5
(g6
g7
(lp202
g5
(g6
g7
(lp203
Vage
p204
atp205
Rp206
(dp207
g16
VNN
p208
sbatp209
Rp210
(dp211
g16
VNP
p212
sbag5
(g6
g7
(lp213
g73
atp214
Rp215
(dp216
g16
g73
sbag5
(g6
g7
(lp217
Vand
p218
atp219
Rp220
(dp221
g16
VCC
p222
sbag5
(g6
g7
(lp223
g5
(g6
g7
(lp224
Vpolitical
p225
atp226
Rp227
(dp228
g16
VJJ
p229
sbatp230
Rp231
(dp232
g16
VNP
p233
sbatp234
Rp235
(dp236
g16
VNP
p237
sbatp238
Rp239
(dp240
g16
VPP
p241
sbatp242
Rp243
(dp244
g16
VNP
p245
sbatp246
Rp247
(dp248
g16
VS
p249
sbag5
(g6
g7
(lp250
g5
(g6
g7
(lp251
g5
(g6
g7
(lp252
Vpreferences
p253
atp254
Rp255
(dp256
g16
VNNP
p257
sbag5
(g6
g7
(lp258
V-LSB-
p259
atp260
Rp261
(dp262
g16
VNNP
p263
sbag5
(g6
g7
(lp264
V9
p265
atp266
Rp267
(dp268
g16
VCD
p269
sbag5
(g6
g7
(lp270
g73
atp271
Rp272
(dp273
g16
g73
sbag5
(g6
g7
(lp274
V19
p275
atp276
Rp277
(dp278
g16
VCD
p279
sbag5
(g6
g7
(lp280
g73
atp281
Rp282
(dp283
g16
g73
sbag5
(g6
g7
(lp284
V4
p285
atp286
Rp287
(dp288
g16
VCD
p289
sbag5
(g6
g7
(lp290
g73
atp291
Rp292
(dp293
g16
g73
sbag5
(g6
g7
(lp294
V22
p295
atp296
Rp297
(dp298
g16
VCD
p299
sbag5
(g6
g7
(lp300
g73
atp301
Rp302
(dp303
g16
g73
sbag5
(g6
g7
(lp304
V24
p305
atp306
Rp307
(dp308
g16
VCD
p309
sbatp310
Rp311
(dp312
g16
VNP
p313
sbag5
(g6
g7
(lp314
g5
(g6
g7
(lp315
V-RSB-
p316
atp317
Rp318
(dp319
g16
VRB
p320
sbatp321
Rp322
(dp323
g16
VADVP
p324
sbatp325
Rp326
(dp327
g16
VNP
p328
sbatp329
Rp330
(dp331
g16
VVP
p332
sbatp333
Rp334
(dp335
g16
g249
sbatp336
Rp337
(dp338
g16
VPP
p339
sbatp340
Rp341
(dp342
g16
VVP
p343
sbatp344
Rp345
(dp346
g16
VVP
p347
sbatp348
Rp349
(dp350
g16
g249
sbatp351
Rp352
(dp353
g16
VVP
p354
sbatp355
Rp356
(dp357
g16
VVP
p358
sbatp359
Rp360
(dp361
g16
g249
sbatp362
Rp363
(dp364
g16
VROOT
p365
sbasS'cause'
p366
(icmyPackage
CorE
p367
(dp368
S'span'
p369
(lp370
(I0
I14
tp371
a(I0
I37
tp372
asS'PTree'
p373
g334
sbsS'effect'
p374
(icmyPackage
CorE
p375
(dp376
g369
(lp377
(I0
I0
tp378
a(I0
I12
tp379
asg373
g5
(g6
g7
(lp380
g69
ag75
ag85
ag92
ag99
ag107
ag114
ag125
atp381
Rp382
(dp383
g16
S'ROOT'
p384
sbsbsS'pt'
p385
(icmyPackage
pattern
p386
(dp387
S'pfreq'
p388
I25
sS'moresent'
p389
I0
sS'main_token'
p390
(lp391
(lp392
S'for'
p393
aasS'ptype'
p394
(lp395
I2
aI1
aI1
asS'cases'
p396
(lp397
S'She was angry with him for being late.'
p398
asS'id'
p399
I44
sS'constraints'
p400
(lp401
(lp402
S'&R'
p403
aa(lp404
S'&V-ing@C@'
p405
aasbsS'sInfo'
p406
(lp407
(isxpPackage
sxpSent
p408
(dp409
S'sysCEidlst'
p410
(lp411
I0
asS'sentence_text'
p412
VWith the rise of social media, researchers have sought to induce models for predicting latent author attributes such as gender, age, and political preferences [ 9 , 19 , 4 , 22 , 24 ]
p413
sS'id_sec'
p414
I2
sg399
I4
sS'id_para'
p415
I1
sbasba(icmyPackage
CELink
p416
(dp417
g3
(lp418
g5
(g6
g7
(lp419
g5
(g6
g7
(lp420
g5
(g6
g7
(lp421
g5
(g6
g7
(lp422
VPredicting
p423
atp424
Rp425
(dp426
g16
VVBG
p427
sbag5
(g6
g7
(lp428
g5
(g6
g7
(lp429
g5
(g6
g7
(lp430
Vsocial
p431
atp432
Rp433
(dp434
g16
VJJ
p435
sbag5
(g6
g7
(lp436
Vroles
p437
atp438
Rp439
(dp440
g16
VNNS
p441
sbatp442
Rp443
(dp444
g16
VNP
p445
sbag5
(g6
g7
(lp446
g5
(g6
g7
(lp447
Vsuch
p448
atp449
Rp450
(dp451
g16
VJJ
p452
sbag5
(g6
g7
(lp453
Vas
p454
atp455
Rp456
(dp457
g16
VIN
p458
sbag5
(g6
g7
(lp459
g5
(g6
g7
(lp460
Vdoctor
p461
atp462
Rp463
(dp464
g16
VNN
p465
sbatp466
Rp467
(dp468
g16
VNP
p469
sbatp470
Rp471
(dp472
g16
VPP
p473
sbatp474
Rp475
(dp476
g16
VNP
p477
sbatp478
Rp479
(dp480
g16
VVP
p481
sbag5
(g6
g7
(lp482
g5
(g6
g7
(lp483
g5
(g6
g7
(lp484
g73
atp485
Rp486
(dp487
g16
g73
sbag5
(g6
g7
(lp488
g5
(g6
g7
(lp489
Vteacher
p490
atp491
Rp492
(dp493
g16
VNN
p494
sbag5
(g6
g7
(lp495
g73
atp496
Rp497
(dp498
g16
g73
sbag5
(g6
g7
(lp499
Vvegetarian
p500
atp501
Rp502
(dp503
g16
VNN
p504
sbag5
(g6
g7
(lp505
g73
atp506
Rp507
(dp508
g16
g73
sbag5
(g6
g7
(lp509
Vchristian
p510
atp511
Rp512
(dp513
g16
VNN
p514
sbatp515
Rp516
(dp517
g16
VNP
p518
sbag5
(g6
g7
(lp519
g73
atp520
Rp521
(dp522
g16
g73
sbatp523
Rp524
(dp525
g16
VPRN
p526
sbag5
(g6
g7
(lp527
Vmay
p528
atp529
Rp530
(dp531
g16
VMD
p532
sbag5
(g6
g7
(lp533
g5
(g6
g7
(lp534
Vopen
p535
atp536
Rp537
(dp538
g16
VVB
p539
sbag5
(g6
g7
(lp540
g5
(g6
g7
(lp541
Vthe
p542
atp543
Rp544
(dp545
g16
VDT
p546
sbag5
(g6
g7
(lp547
Vdoor
p548
atp549
Rp550
(dp551
g16
VNN
p552
sbatp553
Rp554
(dp555
g16
VNP
p556
sbag5
(g6
g7
(lp557
g5
(g6
g7
(lp558
Vto
p559
atp560
Rp561
(dp562
g16
VTO
p563
sbag5
(g6
g7
(lp564
g5
(g6
g7
(lp565
g5
(g6
g7
(lp566
Vlarge-scale
p567
atp568
Rp569
(dp570
g16
VJJ
p571
sbag5
(g6
g7
(lp572
Vpassive
p573
atp574
Rp575
(dp576
g16
VJJ
p577
sbag5
(g6
g7
(lp578
Vsurveys
p579
atp580
Rp581
(dp582
g16
VNNS
p583
sbatp584
Rp585
(dp586
g16
VNP
p587
sbag5
(g6
g7
(lp588
g5
(g6
g7
(lp589
Vof
p590
atp591
Rp592
(dp593
g16
VIN
p594
sbag5
(g6
g7
(lp595
g5
(g6
g7
(lp596
Vpublic
p597
atp598
Rp599
(dp600
g16
VJJ
p601
sbag5
(g6
g7
(lp602
Vdiscourse
p603
atp604
Rp605
(dp606
g16
VNN
p607
sbatp608
Rp609
(dp610
g16
VNP
p611
sbatp612
Rp613
(dp614
g16
VPP
p615
sbatp616
Rp617
(dp618
g16
VNP
p619
sbatp620
Rp621
(dp622
g16
VPP
p623
sbatp624
Rp625
(dp626
g16
VVP
p627
sbatp628
Rp629
(dp630
g16
VVP
p631
sbag5
(g6
g7
(lp632
g5
(g6
g7
(lp633
Vthat
p634
atp635
Rp636
(dp637
g16
VDT
p638
sbag5
(g6
g7
(lp639
Vdwarf
p640
atp641
Rp642
(dp643
g16
VNN
p644
sbag5
(g6
g7
(lp645
g5
(g6
g7
(lp646
g5
(g6
g7
(lp647
Vwhat
p648
atp649
Rp650
(dp651
g16
VWP
p652
sbatp653
Rp654
(dp655
g16
VWHNP
p656
sbag5
(g6
g7
(lp657
g5
(g6
g7
(lp658
g5
(g6
g7
(lp659
Vhas
p660
atp661
Rp662
(dp663
g16
VVBZ
p664
sbag5
(g6
g7
(lp665
g5
(g6
g7
(lp666
Vbeen
p667
atp668
Rp669
(dp670
g16
VVBN
p671
sbag5
(g6
g7
(lp672
g5
(g6
g7
(lp673
Vpreviously
p674
atp675
Rp676
(dp677
g16
VRB
p678
sbag5
(g6
g7
(lp679
Vavailable
p680
atp681
Rp682
(dp683
g16
VJJ
p684
sbag5
(g6
g7
(lp685
g5
(g6
g7
(lp686
Vto
p687
atp688
Rp689
(dp690
g16
VTO
p691
sbag5
(g6
g7
(lp692
g5
(g6
g7
(lp693
Vsocial
p694
atp695
Rp696
(dp697
g16
VJJ
p698
sbag5
(g6
g7
(lp699
Vscientists
p700
atp701
Rp702
(dp703
g16
VNNS
p704
sbatp705
Rp706
(dp707
g16
VNP
p708
sbatp709
Rp710
(dp711
g16
VPP
p712
sbatp713
Rp714
(dp715
g16
VADJP
p716
sbatp717
Rp718
(dp719
g16
VVP
p720
sbatp721
Rp722
(dp723
g16
VVP
p724
sbatp725
Rp726
(dp727
g16
g249
sbatp728
Rp729
(dp730
g16
VSBAR
p731
sbatp732
Rp733
(dp734
g16
VNP
p735
sbatp736
Rp737
(dp738
g16
VSINV
p739
sbatp740
Rp741
(dp742
g16
VROOT
p743
sbasg366
(icmyPackage
CorE
p744
(dp745
g369
(lp746
(I0
I0
tp747
a(I0
I5
tp748
asg373
g479
sbsg374
(icmyPackage
CorE
p749
(dp750
g369
(lp751
(I0
I7
tp752
a(I0
I33
tp753
asg373
g5
(g6
g7
(lp754
g516
ag521
ag530
ag625
ag733
atp755
Rp756
(dp757
g16
g384
sbsbsg385
(icmyPackage
pattern
p758
(dp759
g388
I30
sg389
I0
sg390
(lp760
sg394
(lp761
I3
aI2
aI1
asg396
(lp762
S'Being over here we tend to be a bit isolated.'
p763
aS'Not being sure of the word, he turned it up in the dictionary.'
p764
asg399
I81
sg400
(lp765
(lp766
S'&V-ing@C@'
p767
aS'(,)'
p768
aS'&R@Complete@'
p769
aasbsg406
(lp770
(isxpPackage
sxpSent
p771
(dp772
g410
(lp773
I1
asg412
VPredicting social roles such as doctor , teacher , vegetarian , christian , may open the door to large-scale passive surveys of public discourse that dwarf what has been previously available to social scientists
p774
sg414
I2
sg399
I10
sg415
I2
sbasba(icmyPackage
CELink
p775
(dp776
g3
(lp777
g5
(g6
g7
(lp778
g5
(g6
g7
(lp779
g5
(g6
g7
(lp780
g5
(g6
g7
(lp781
VFor
p782
atp783
Rp784
(dp785
g16
VIN
p786
sbag5
(g6
g7
(lp787
g5
(g6
g7
(lp788
Vexample
p789
atp790
Rp791
(dp792
g16
VNN
p793
sbatp794
Rp795
(dp796
g16
VNP
p797
sbatp798
Rp799
(dp800
g16
VPP
p801
sbag5
(g6
g7
(lp802
g73
atp803
Rp804
(dp805
g16
g73
sbag5
(g6
g7
(lp806
g5
(g6
g7
(lp807
g5
(g6
g7
(lp808
Vwork
p809
atp810
Rp811
(dp812
g16
VNN
p813
sbatp814
Rp815
(dp816
g16
VNP
p817
sbag5
(g6
g7
(lp818
g5
(g6
g7
(lp819
Von
p820
atp821
Rp822
(dp823
g16
VIN
p824
sbag5
(g6
g7
(lp825
g5
(g6
g7
(lp826
g5
(g6
g7
(lp827
Vtracking
p828
atp829
Rp830
(dp831
g16
VVBG
p832
sbag5
(g6
g7
(lp833
g5
(g6
g7
(lp834
g5
(g6
g7
(lp835
Vthe
p836
atp837
Rp838
(dp839
g16
VDT
p840
sbag5
(g6
g7
(lp841
Vspread
p842
atp843
Rp844
(dp845
g16
VNN
p846
sbatp847
Rp848
(dp849
g16
VNP
p850
sbag5
(g6
g7
(lp851
g5
(g6
g7
(lp852
Vof
p853
atp854
Rp855
(dp856
g16
VIN
p857
sbag5
(g6
g7
(lp858
g5
(g6
g7
(lp859
Vflu
p860
atp861
Rp862
(dp863
g16
VNN
p864
sbag5
(g6
g7
(lp865
Vinfections
p866
atp867
Rp868
(dp869
g16
VNNS
p870
sbatp871
Rp872
(dp873
g16
VNP
p874
sbatp875
Rp876
(dp877
g16
VPP
p878
sbatp879
Rp880
(dp881
g16
VNP
p882
sbag5
(g6
g7
(lp883
g5
(g6
g7
(lp884
Vacross
p885
atp886
Rp887
(dp888
g16
VIN
p889
sbag5
(g6
g7
(lp890
g5
(g6
g7
(lp891
VTwitter
p892
atp893
Rp894
(dp895
g16
VNNP
p896
sbag5
(g6
g7
(lp897
V-LSB-
p898
atp899
Rp900
(dp901
g16
VNNP
p902
sbag5
(g6
g7
(lp903
V12
p904
atp905
Rp906
(dp907
g16
VCD
p908
sbag5
(g6
g7
(lp909
V-RSB-
p910
atp911
Rp912
(dp913
g16
VNNS
p914
sbatp915
Rp916
(dp917
g16
VNP
p918
sbatp919
Rp920
(dp921
g16
VPP
p922
sbatp923
Rp924
(dp925
g16
VVP
p926
sbatp927
Rp928
(dp929
g16
g249
sbatp930
Rp931
(dp932
g16
VPP
p933
sbatp934
Rp935
(dp936
g16
VNP
p937
sbag5
(g6
g7
(lp938
g5
(g6
g7
(lp939
Vmight
p940
atp941
Rp942
(dp943
g16
VMD
p944
sbag5
(g6
g7
(lp945
g5
(g6
g7
(lp946
Vbe
p947
atp948
Rp949
(dp950
g16
VVB
p951
sbag5
(g6
g7
(lp952
g5
(g6
g7
(lp953
Venhanced
p954
atp955
Rp956
(dp957
g16
VVBN
p958
sbag5
(g6
g7
(lp959
g5
(g6
g7
(lp960
Vwith
p961
atp962
Rp963
(dp964
g16
VIN
p965
sbag5
(g6
g7
(lp966
g5
(g6
g7
(lp967
g5
(g6
g7
(lp968
Va
p969
atp970
Rp971
(dp972
g16
VDT
p973
sbag5
(g6
g7
(lp974
Vfactor
p975
atp976
Rp977
(dp978
g16
VNN
p979
sbatp980
Rp981
(dp982
g16
VNP
p983
sbag5
(g6
g7
(lp984
g5
(g6
g7
(lp985
Vbased
p986
atp987
Rp988
(dp989
g16
VVBN
p990
sbag5
(g6
g7
(lp991
g5
(g6
g7
(lp992
Von
p993
atp994
Rp995
(dp996
g16
VIN
p997
sbag5
(g6
g7
(lp998
g5
(g6
g7
(lp999
g5
(g6
g7
(lp1000
Vaggregate
p1001
atp1002
Rp1003
(dp1004
g16
VJJ
p1005
sbag5
(g6
g7
(lp1006
Vpredictions
p1007
atp1008
Rp1009
(dp1010
g16
VNNS
p1011
sbatp1012
Rp1013
(dp1014
g16
VNP
p1015
sbag5
(g6
g7
(lp1016
g5
(g6
g7
(lp1017
Vof
p1018
atp1019
Rp1020
(dp1021
g16
VIN
p1022
sbag5
(g6
g7
(lp1023
g5
(g6
g7
(lp1024
Vauthor
p1025
atp1026
Rp1027
(dp1028
g16
VNN
p1029
sbag5
(g6
g7
(lp1030
Voccupation
p1031
atp1032
Rp1033
(dp1034
g16
VNN
p1035
sbatp1036
Rp1037
(dp1038
g16
VNP
p1039
sbatp1040
Rp1041
(dp1042
g16
VPP
p1043
sbatp1044
Rp1045
(dp1046
g16
VNP
p1047
sbatp1048
Rp1049
(dp1050
g16
VPP
p1051
sbatp1052
Rp1053
(dp1054
g16
VVP
p1055
sbatp1056
Rp1057
(dp1058
g16
VNP
p1059
sbatp1060
Rp1061
(dp1062
g16
VPP
p1063
sbatp1064
Rp1065
(dp1066
g16
VVP
p1067
sbatp1068
Rp1069
(dp1070
g16
VVP
p1071
sbatp1072
Rp1073
(dp1074
g16
VVP
p1075
sbatp1076
Rp1077
(dp1078
g16
g249
sbatp1079
Rp1080
(dp1081
g16
VROOT
p1082
sbasg366
(icmyPackage
CorE
p1083
(dp1084
g369
(lp1085
(I0
I24
tp1086
a(I0
I28
tp1087
asg373
g1045
sbsg374
(icmyPackage
CorE
p1088
(dp1089
g369
(lp1090
(I0
I0
tp1091
a(I0
I21
tp1092
asg373
g5
(g6
g7
(lp1093
g799
ag804
ag935
ag942
ag949
ag956
ag963
ag981
atp1094
Rp1095
(dp1096
g16
g384
sbsbsg385
(icmyPackage
pattern
p1097
(dp1098
g388
I0
sg389
I0
sg390
(lp1099
(lp1100
S'based'
p1101
aS'on'
p1102
aasg394
(lp1103
I2
aI1
aI1
asg396
(lp1104
S'He said he planned to announce details of legislation on Sunday based on a Republican plan that would provide a short-term solution'
p1105
asg399
I48
sg400
(lp1106
(lp1107
S'&R'
p1108
aS'(,)'
p1109
aS'(&ADV)'
p1110
aa(lp1111
S'&V-ing/&NP@C@'
p1112
aS'(&Clause@C@)'
p1113
aasbsg406
(lp1114
(isxpPackage
sxpSent
p1115
(dp1116
g410
(lp1117
I2
asg412
VFor example, work on tracking the spread of flu infections across Twitter [ 12 ] might be enhanced with a factor based on aggregate predictions of author occupation
p1118
sg414
I2
sg399
I11
sg415
I2
sbasba(icmyPackage
CELink
p1119
(dp1120
g3
(lp1121
g5
(g6
g7
(lp1122
g5
(g6
g7
(lp1123
g5
(g6
g7
(lp1124
g5
(g6
g7
(lp1125
VIn
p1126
atp1127
Rp1128
(dp1129
g16
VIN
p1130
sbag5
(g6
g7
(lp1131
g5
(g6
g7
(lp1132
Vthe
p1133
atp1134
Rp1135
(dp1136
g16
VDT
p1137
sbag5
(g6
g7
(lp1138
Vfirst
p1139
atp1140
Rp1141
(dp1142
g16
VJJ
p1143
sbag5
(g6
g7
(lp1144
Vstudy
p1145
atp1146
Rp1147
(dp1148
g16
VNN
p1149
sbatp1150
Rp1151
(dp1152
g16
VNP
p1153
sbatp1154
Rp1155
(dp1156
g16
VPP
p1157
sbag5
(g6
g7
(lp1158
g73
atp1159
Rp1160
(dp1161
g16
g73
sbag5
(g6
g7
(lp1162
g5
(g6
g7
(lp1163
Vwe
p1164
atp1165
Rp1166
(dp1167
g16
VPRP
p1168
sbatp1169
Rp1170
(dp1171
g16
VNP
p1172
sbag5
(g6
g7
(lp1173
g5
(g6
g7
(lp1174
Vseek
p1175
atp1176
Rp1177
(dp1178
g16
VVBP
p1179
sbag5
(g6
g7
(lp1180
g5
(g6
g7
(lp1181
g5
(g6
g7
(lp1182
Vto
p1183
atp1184
Rp1185
(dp1186
g16
VTO
p1187
sbag5
(g6
g7
(lp1188
g5
(g6
g7
(lp1189
g5
(g6
g7
(lp1190
Vdetermine
p1191
atp1192
Rp1193
(dp1194
g16
VVB
p1195
sbag5
(g6
g7
(lp1196
g5
(g6
g7
(lp1197
Vwhether
p1198
atp1199
Rp1200
(dp1201
g16
VIN
p1202
sbag5
(g6
g7
(lp1203
g5
(g6
g7
(lp1204
g5
(g6
g7
(lp1205
Vsuch
p1206
atp1207
Rp1208
(dp1209
g16
VPDT
p1210
sbag5
(g6
g7
(lp1211
g969
atp1212
Rp1213
(dp1214
g16
VDT
p1215
sbag5
(g6
g7
(lp1216
Vsignal
p1217
atp1218
Rp1219
(dp1220
g16
VNN
p1221
sbatp1222
Rp1223
(dp1224
g16
VNP
p1225
sbag5
(g6
g7
(lp1226
g5
(g6
g7
(lp1227
Vexists
p1228
atp1229
Rp1230
(dp1231
g16
VVBZ
p1232
sbag5
(g6
g7
(lp1233
g5
(g6
g7
(lp1234
Vin
p1235
atp1236
Rp1237
(dp1238
g16
VIN
p1239
sbag5
(g6
g7
(lp1240
g5
(g6
g7
(lp1241
g5
(g6
g7
(lp1242
Vself-identification
p1243
atp1244
Rp1245
(dp1246
g16
VNN
p1247
sbatp1248
Rp1249
(dp1250
g16
VNP
p1251
sbag5
(g6
g7
(lp1252
g5
(g6
g7
(lp1253
g5
(g6
g7
(lp1254
g5
(g6
g7
(lp1255
Vwe
p1256
atp1257
Rp1258
(dp1259
g16
VPRP
p1260
sbatp1261
Rp1262
(dp1263
g16
VNP
p1264
sbag5
(g6
g7
(lp1265
g5
(g6
g7
(lp1266
Vrely
p1267
atp1268
Rp1269
(dp1270
g16
VVBP
p1271
sbag5
(g6
g7
(lp1272
g5
(g6
g7
(lp1273
Von
p1274
atp1275
Rp1276
(dp1277
g16
VIN
p1278
sbag5
(g6
g7
(lp1279
g5
(g6
g7
(lp1280
g5
(g6
g7
(lp1281
Vvariants
p1282
atp1283
Rp1284
(dp1285
g16
VNNS
p1286
sbatp1287
Rp1288
(dp1289
g16
VNP
p1290
sbag5
(g6
g7
(lp1291
g5
(g6
g7
(lp1292
Vof
p1293
atp1294
Rp1295
(dp1296
g16
VIN
p1297
sbag5
(g6
g7
(lp1298
g5
(g6
g7
(lp1299
g969
atp1300
Rp1301
(dp1302
g16
VDT
p1303
sbag5
(g6
g7
(lp1304
Vsingle
p1305
atp1306
Rp1307
(dp1308
g16
VJJ
p1309
sbag5
(g6
g7
(lp1310
Vpattern
p1311
atp1312
Rp1313
(dp1314
g16
VNN
p1315
sbatp1316
Rp1317
(dp1318
g16
VNP
p1319
sbatp1320
Rp1321
(dp1322
g16
VPP
p1323
sbatp1324
Rp1325
(dp1326
g16
VNP
p1327
sbatp1328
Rp1329
(dp1330
g16
VPP
p1331
sbatp1332
Rp1333
(dp1334
g16
VVP
p1335
sbatp1336
Rp1337
(dp1338
g16
g249
sbatp1339
Rp1340
(dp1341
g16
VSBAR
p1342
sbatp1343
Rp1344
(dp1345
g16
VNP
p1346
sbatp1347
Rp1348
(dp1349
g16
VPP
p1350
sbatp1351
Rp1352
(dp1353
g16
VVP
p1354
sbatp1355
Rp1356
(dp1357
g16
g249
sbatp1358
Rp1359
(dp1360
g16
VSBAR
p1361
sbatp1362
Rp1363
(dp1364
g16
VVP
p1365
sbag5
(g6
g7
(lp1366
g73
atp1367
Rp1368
(dp1369
g16
g73
sbag5
(g6
g7
(lp1370
g5
(g6
g7
(lp1371
Vu
p1372
atp1373
Rp1374
(dp1375
g16
VVB
p1376
sbag5
(g6
g7
(lp1377
V'
p1378
atp1379
Rp1380
(dp1381
g16
V``
p1382
sbag5
(g6
g7
(lp1383
g5
(g6
g7
(lp1384
V\u005c
p1385
atp1386
Rp1387
(dp1388
g16
VRB
p1389
sbag5
(g6
g7
(lp1390
Vu201c
p1391
atp1392
Rp1393
(dp1394
g16
VJJ
p1395
sbag5
(g6
g7
(lp1396
g1378
atp1397
Rp1398
(dp1399
g16
V''
p1400
sbag5
(g6
g7
(lp1401
g5
(g6
g7
(lp1402
g5
(g6
g7
(lp1403
g5
(g6
g7
(lp1404
VI
p1405
atp1406
Rp1407
(dp1408
g16
VPRP
p1409
sbatp1410
Rp1411
(dp1412
g16
VNP
p1413
sbag5
(g6
g7
(lp1414
g5
(g6
g7
(lp1415
Vam
p1416
atp1417
Rp1418
(dp1419
g16
VVBP
p1420
sbag5
(g6
g7
(lp1421
g5
(g6
g7
(lp1422
g5
(g6
g7
(lp1423
g969
atp1424
Rp1425
(dp1426
g16
VDT
p1427
sbag5
(g6
g7
(lp1428
g1372
atp1429
Rp1430
(dp1431
g16
VNN
p1432
sbag5
(g6
g7
(lp1433
g1378
atp1434
Rp1435
(dp1436
g16
VPOS
p1437
sbatp1438
Rp1439
(dp1440
g16
VNP
p1441
sbag5
(g6
g7
(lp1442
V\u005c
p1443
atp1444
Rp1445
(dp1446
g16
VJJ
p1447
sbag5
(g6
g7
(lp1448
Vu201d
p1449
atp1450
Rp1451
(dp1452
g16
VNNS
p1453
sbatp1454
Rp1455
(dp1456
g16
VNP
p1457
sbatp1458
Rp1459
(dp1460
g16
VVP
p1461
sbatp1462
Rp1463
(dp1464
g16
g249
sbatp1465
Rp1466
(dp1467
g16
VSBAR
p1468
sbatp1469
Rp1470
(dp1471
g16
VADJP
p1472
sbag5
(g6
g7
(lp1473
g1378
atp1474
Rp1475
(dp1476
g16
V''
p1477
sbatp1478
Rp1479
(dp1480
g16
VVP
p1481
sbag5
(g6
g7
(lp1482
g73
atp1483
Rp1484
(dp1485
g16
g73
sbag5
(g6
g7
(lp1486
g5
(g6
g7
(lp1487
g5
(g6
g7
(lp1488
Vto
p1489
atp1490
Rp1491
(dp1492
g16
VTO
p1493
sbag5
(g6
g7
(lp1494
g5
(g6
g7
(lp1495
Vbootstrap
p1496
atp1497
Rp1498
(dp1499
g16
VVB
p1500
sbag5
(g6
g7
(lp1501
g5
(g6
g7
(lp1502
Vdata
p1503
atp1504
Rp1505
(dp1506
g16
VNNS
p1507
sbatp1508
Rp1509
(dp1510
g16
VNP
p1511
sbag5
(g6
g7
(lp1512
g5
(g6
g7
(lp1513
Vfor
p1514
atp1515
Rp1516
(dp1517
g16
VIN
p1518
sbag5
(g6
g7
(lp1519
g5
(g6
g7
(lp1520
g5
(g6
g7
(lp1521
Vtraining
p1522
atp1523
Rp1524
(dp1525
g16
VVBG
p1526
sbag5
(g6
g7
(lp1527
g5
(g6
g7
(lp1528
Vbalanced-class
p1529
atp1530
Rp1531
(dp1532
g16
VJJ
p1533
sbag5
(g6
g7
(lp1534
Vbinary
p1535
atp1536
Rp1537
(dp1538
g16
VNN
p1539
sbag5
(g6
g7
(lp1540
Vclassifiers
p1541
atp1542
Rp1543
(dp1544
g16
VNNS
p1545
sbatp1546
Rp1547
(dp1548
g16
VNP
p1549
sbag5
(g6
g7
(lp1550
g5
(g6
g7
(lp1551
g5
(g6
g7
(lp1552
Vusing
p1553
atp1554
Rp1555
(dp1556
g16
VVBG
p1557
sbag5
(g6
g7
(lp1558
g5
(g6
g7
(lp1559
g5
(g6
g7
(lp1560
Vunigrams
p1561
atp1562
Rp1563
(dp1564
g16
VNNS
p1565
sbatp1566
Rp1567
(dp1568
g16
VNP
p1569
sbag5
(g6
g7
(lp1570
g5
(g6
g7
(lp1571
Vobserved
p1572
atp1573
Rp1574
(dp1575
g16
VVBN
p1576
sbag5
(g6
g7
(lp1577
g5
(g6
g7
(lp1578
Vin
p1579
atp1580
Rp1581
(dp1582
g16
VIN
p1583
sbag5
(g6
g7
(lp1584
g5
(g6
g7
(lp1585
Vtweet
p1586
atp1587
Rp1588
(dp1589
g16
VJJ
p1590
sbag5
(g6
g7
(lp1591
Vcontent
p1592
atp1593
Rp1594
(dp1595
g16
VNN
p1596
sbatp1597
Rp1598
(dp1599
g16
VNP
p1600
sbatp1601
Rp1602
(dp1603
g16
VPP
p1604
sbatp1605
Rp1606
(dp1607
g16
VVP
p1608
sbatp1609
Rp1610
(dp1611
g16
VNP
p1612
sbatp1613
Rp1614
(dp1615
g16
VVP
p1616
sbatp1617
Rp1618
(dp1619
g16
g249
sbatp1620
Rp1621
(dp1622
g16
VVP
p1623
sbatp1624
Rp1625
(dp1626
g16
g249
sbatp1627
Rp1628
(dp1629
g16
VPP
p1630
sbatp1631
Rp1632
(dp1633
g16
VVP
p1634
sbatp1635
Rp1636
(dp1637
g16
VVP
p1638
sbatp1639
Rp1640
(dp1641
g16
g249
sbatp1642
Rp1643
(dp1644
g16
VVP
p1645
sbatp1646
Rp1647
(dp1648
g16
VVP
p1649
sbatp1650
Rp1651
(dp1652
g16
g249
sbatp1653
Rp1654
(dp1655
g16
VVP
p1656
sbatp1657
Rp1658
(dp1659
g16
g249
sbatp1660
Rp1661
(dp1662
g16
VROOT
p1663
sbasg366
(icmyPackage
CorE
p1664
(dp1665
g369
(lp1666
(I0
I43
tp1667
a(I0
I52
tp1668
asg373
g1625
sbsg374
(icmyPackage
CorE
p1669
(dp1670
g369
(lp1671
(I0
I0
tp1672
a(I0
I41
tp1673
asg373
g5
(g6
g7
(lp1674
g1155
ag1160
ag1170
ag1177
ag1185
ag1363
ag1368
ag1479
ag1484
ag1491
ag1498
ag1509
atp1675
Rp1676
(dp1677
g16
g384
sbsbsg385
g386
sg406
(lp1678
(isxpPackage
sxpSent
p1679
(dp1680
g410
(lp1681
I3
aI4
asg412
VIn the first study, we seek to determine whether such a signal exists in self-identification we rely on variants of a single pattern, u'\u005cu201c' I am a u'\u005cu201d' , to bootstrap data for training balanced-class binary classifiers using unigrams observed in tweet content
p1682
sg414
I2
sg399
I15
sg415
I4
sbasba(icmyPackage
CELink
p1683
(dp1684
g3
(lp1685
g1661
ag5
(g6
g7
(lp1686
g5
(g6
g7
(lp1687
g5
(g6
g7
(lp1688
VAs
p1689
atp1690
Rp1691
(dp1692
g16
VIN
p1693
sbag5
(g6
g7
(lp1694
g5
(g6
g7
(lp1695
g5
(g6
g7
(lp1696
Vcompared
p1697
atp1698
Rp1699
(dp1700
g16
VVBN
p1701
sbag5
(g6
g7
(lp1702
g5
(g6
g7
(lp1703
Vto
p1704
atp1705
Rp1706
(dp1707
g16
VTO
p1708
sbag5
(g6
g7
(lp1709
g5
(g6
g7
(lp1710
g5
(g6
g7
(lp1711
Vprior
p1712
atp1713
Rp1714
(dp1715
g16
VJJ
p1716
sbag5
(g6
g7
(lp1717
Vresearch
p1718
atp1719
Rp1720
(dp1721
g16
VNN
p1722
sbatp1723
Rp1724
(dp1725
g16
VNP
p1726
sbag5
(g6
g7
(lp1727
g5
(g6
g7
(lp1728
g5
(g6
g7
(lp1729
Vthat
p1730
atp1731
Rp1732
(dp1733
g16
VWDT
p1734
sbatp1735
Rp1736
(dp1737
g16
VWHNP
p1738
sbag5
(g6
g7
(lp1739
g5
(g6
g7
(lp1740
g5
(g6
g7
(lp1741
Vrequired
p1742
atp1743
Rp1744
(dp1745
g16
VVBN
p1746
sbag5
(g6
g7
(lp1747
g5
(g6
g7
(lp1748
Vactively
p1749
atp1750
Rp1751
(dp1752
g16
VRB
p1753
sbatp1754
Rp1755
(dp1756
g16
VADVP
p1757
sbag5
(g6
g7
(lp1758
g5
(g6
g7
(lp1759
Vpolling
p1760
atp1761
Rp1762
(dp1763
g16
VNN
p1764
sbag5
(g6
g7
(lp1765
Vusers
p1766
atp1767
Rp1768
(dp1769
g16
VNNS
p1770
sbatp1771
Rp1772
(dp1773
g16
VNP
p1774
sbag5
(g6
g7
(lp1775
g5
(g6
g7
(lp1776
Vfor
p1777
atp1778
Rp1779
(dp1780
g16
VIN
p1781
sbag5
(g6
g7
(lp1782
g5
(g6
g7
(lp1783
Vground
p1784
atp1785
Rp1786
(dp1787
g16
VNN
p1788
sbag5
(g6
g7
(lp1789
Vtruth
p1790
atp1791
Rp1792
(dp1793
g16
VNN
p1794
sbatp1795
Rp1796
(dp1797
g16
VNP
p1798
sbatp1799
Rp1800
(dp1801
g16
VPP
p1802
sbag5
(g6
g7
(lp1803
g5
(g6
g7
(lp1804
Vin
p1805
atp1806
Rp1807
(dp1808
g16
VIN
p1809
sbag5
(g6
g7
(lp1810
Vorder
p1811
atp1812
Rp1813
(dp1814
g16
VNN
p1815
sbag5
(g6
g7
(lp1816
g5
(g6
g7
(lp1817
g5
(g6
g7
(lp1818
Vto
p1819
atp1820
Rp1821
(dp1822
g16
VTO
p1823
sbag5
(g6
g7
(lp1824
g5
(g6
g7
(lp1825
Vconstruct
p1826
atp1827
Rp1828
(dp1829
g16
VVB
p1830
sbag5
(g6
g7
(lp1831
g5
(g6
g7
(lp1832
Vpredictive
p1833
atp1834
Rp1835
(dp1836
g16
VJJ
p1837
sbag5
(g6
g7
(lp1838
Vmodels
p1839
atp1840
Rp1841
(dp1842
g16
VNNS
p1843
sbatp1844
Rp1845
(dp1846
g16
VNP
p1847
sbag5
(g6
g7
(lp1848
g5
(g6
g7
(lp1849
Vfor
p1850
atp1851
Rp1852
(dp1853
g16
VIN
p1854
sbag5
(g6
g7
(lp1855
g5
(g6
g7
(lp1856
Vdemographic
p1857
atp1858
Rp1859
(dp1860
g16
VJJ
p1861
sbag5
(g6
g7
(lp1862
Vinformation
p1863
atp1864
Rp1865
(dp1866
g16
VNN
p1867
sbag5
(g6
g7
(lp1868
V-LSB-
p1869
atp1870
Rp1871
(dp1872
g16
VNNP
p1873
sbag5
(g6
g7
(lp1874
V11
p1875
atp1876
Rp1877
(dp1878
g16
VNNP
p1879
sbag5
(g6
g7
(lp1880
V-RSB-
p1881
atp1882
Rp1883
(dp1884
g16
VNNP
p1885
sbatp1886
Rp1887
(dp1888
g16
VNP
p1889
sbatp1890
Rp1891
(dp1892
g16
VPP
p1893
sbatp1894
Rp1895
(dp1896
g16
VVP
p1897
sbatp1898
Rp1899
(dp1900
g16
VVP
p1901
sbatp1902
Rp1903
(dp1904
g16
g249
sbatp1905
Rp1906
(dp1907
g16
VSBAR
p1908
sbatp1909
Rp1910
(dp1911
g16
VVP
p1912
sbatp1913
Rp1914
(dp1915
g16
g249
sbatp1916
Rp1917
(dp1918
g16
VSBAR
p1919
sbatp1920
Rp1921
(dp1922
g16
VNP
p1923
sbatp1924
Rp1925
(dp1926
g16
VPP
p1927
sbatp1928
Rp1929
(dp1930
g16
VPP
p1931
sbag5
(g6
g7
(lp1932
g73
atp1933
Rp1934
(dp1935
g16
g73
sbag5
(g6
g7
(lp1936
g5
(g6
g7
(lp1937
Vwe
p1938
atp1939
Rp1940
(dp1941
g16
VPRP
p1942
sbatp1943
Rp1944
(dp1945
g16
VNP
p1946
sbag5
(g6
g7
(lp1947
g5
(g6
g7
(lp1948
Vdemonstrate
p1949
atp1950
Rp1951
(dp1952
g16
VVBP
p1953
sbag5
(g6
g7
(lp1954
g5
(g6
g7
(lp1955
Vthat
p1956
atp1957
Rp1958
(dp1959
g16
VIN
p1960
sbag5
(g6
g7
(lp1961
g5
(g6
g7
(lp1962
g5
(g6
g7
(lp1963
Vsome
p1964
atp1965
Rp1966
(dp1967
g16
VDT
p1968
sbag5
(g6
g7
(lp1969
Vusers
p1970
atp1971
Rp1972
(dp1973
g16
VNNS
p1974
sbatp1975
Rp1976
(dp1977
g16
VNP
p1978
sbag5
(g6
g7
(lp1979
g5
(g6
g7
(lp1980
Vspecify
p1981
atp1982
Rp1983
(dp1984
g16
VVB
p1985
sbag5
(g6
g7
(lp1986
g5
(g6
g7
(lp1987
Vsuch
p1988
atp1989
Rp1990
(dp1991
g16
VJJ
p1992
sbag5
(g6
g7
(lp1993
Vproperties
p1994
atp1995
Rp1996
(dp1997
g16
VNNS
p1998
sbatp1999
Rp2000
(dp2001
g16
VNP
p2002
sbag5
(g6
g7
(lp2003
g5
(g6
g7
(lp2004
Vpublicly
p2005
atp2006
Rp2007
(dp2008
g16
VRB
p2009
sbatp2010
Rp2011
(dp2012
g16
VADVP
p2013
sbag5
(g6
g7
(lp2014
g5
(g6
g7
(lp2015
Vthrough
p2016
atp2017
Rp2018
(dp2019
g16
VIN
p2020
sbag5
(g6
g7
(lp2021
g5
(g6
g7
(lp2022
Vdirect
p2023
atp2024
Rp2025
(dp2026
g16
VJJ
p2027
sbag5
(g6
g7
(lp2028
Vnatural
p2029
atp2030
Rp2031
(dp2032
g16
VJJ
p2033
sbag5
(g6
g7
(lp2034
Vlanguage
p2035
atp2036
Rp2037
(dp2038
g16
VNN
p2039
sbatp2040
Rp2041
(dp2042
g16
VNP
p2043
sbatp2044
Rp2045
(dp2046
g16
VPP
p2047
sbatp2048
Rp2049
(dp2050
g16
VVP
p2051
sbatp2052
Rp2053
(dp2054
g16
g249
sbatp2055
Rp2056
(dp2057
g16
VSBAR
p2058
sbatp2059
Rp2060
(dp2061
g16
VVP
p2062
sbatp2063
Rp2064
(dp2065
g16
g249
sbatp2066
Rp2067
(dp2068
g16
VSBAR
p2069
sbatp2070
Rp2071
(dp2072
g16
VROOT
p2073
sbasg366
(icmyPackage
CorE
p2074
(dp2075
g369
(lp2076
(I1
I1
tp2077
a(I1
I38
tp2078
asg373
g2064
sbsg374
(icmyPackage
CorE
p2079
(dp2080
g369
(lp2081
(I0
I0
tp2082
a(I0
I52
tp2083
asg373
g1661
sbsg385
(icmyPackage
pattern
p2084
(dp2085
g388
I26
sg389
I1
sg390
(lp2086
(lp2087
S'as'
p2088
aasg394
(lp2089
I3
aI1
aI1
asg396
(lp2090
S'You do not need to worry about the operation, as the software is very easy to use.'
p2091
asg399
I80
sg400
(lp2092
(lp2093
S'&R@Complete@'
p2094
aS'(,)'
p2095
aS'(-such/-same/-seem/-regard/-regards/-regarded/-view/-views/-viewed/-denote/-denoted/-denotes)'
p2096
aa(lp2097
S'(-if/-follow/-follows/-&adv)'
p2098
aS'&C@Complete@'
p2099
aasbsg406
(lp2100
g1679
a(isxpPackage
sxpSent
p2101
(dp2102
g410
(lp2103
I4
asg412
VAs compared to prior research that required actively polling users for ground truth in order to construct predictive models for demographic information [ 11 ] , we demonstrate that some users specify such properties publicly through direct natural language
p2104
sg414
I2
sg399
I16
sg415
I4
sbasba(icmyPackage
CELink
p2105
(dp2106
g3
(lp2107
g5
(g6
g7
(lp2108
g5
(g6
g7
(lp2109
g5
(g6
g7
(lp2110
g5
(g6
g7
(lp2111
VIn
p2112
atp2113
Rp2114
(dp2115
g16
VIN
p2116
sbag5
(g6
g7
(lp2117
g5
(g6
g7
(lp2118
Vthe
p2119
atp2120
Rp2121
(dp2122
g16
VDT
p2123
sbag5
(g6
g7
(lp2124
Vsecond
p2125
atp2126
Rp2127
(dp2128
g16
VJJ
p2129
sbag5
(g6
g7
(lp2130
Vstudy
p2131
atp2132
Rp2133
(dp2134
g16
VNN
p2135
sbatp2136
Rp2137
(dp2138
g16
VNP
p2139
sbatp2140
Rp2141
(dp2142
g16
VPP
p2143
sbag5
(g6
g7
(lp2144
g5
(g6
g7
(lp2145
Vwe
p2146
atp2147
Rp2148
(dp2149
g16
VPRP
p2150
sbatp2151
Rp2152
(dp2153
g16
VNP
p2154
sbag5
(g6
g7
(lp2155
g5
(g6
g7
(lp2156
Vexploit
p2157
atp2158
Rp2159
(dp2160
g16
VVBP
p2161
sbag5
(g6
g7
(lp2162
g5
(g6
g7
(lp2163
g969
atp2164
Rp2165
(dp2166
g16
VDT
p2167
sbag5
(g6
g7
(lp2168
Vcomplementary
p2169
atp2170
Rp2171
(dp2172
g16
VJJ
p2173
sbag5
(g6
g7
(lp2174
Vsignal
p2175
atp2176
Rp2177
(dp2178
g16
VNN
p2179
sbatp2180
Rp2181
(dp2182
g16
VNP
p2183
sbag5
(g6
g7
(lp2184
g5
(g6
g7
(lp2185
Vbased
p2186
atp2187
Rp2188
(dp2189
g16
VVBN
p2190
sbag5
(g6
g7
(lp2191
g5
(g6
g7
(lp2192
Von
p2193
atp2194
Rp2195
(dp2196
g16
VIN
p2197
sbag5
(g6
g7
(lp2198
g5
(g6
g7
(lp2199
g5
(g6
g7
(lp2200
g5
(g6
g7
(lp2201
Vcharacteristic
p2202
atp2203
Rp2204
(dp2205
g16
VJJ
p2206
sbag5
(g6
g7
(lp2207
Vconceptual
p2208
atp2209
Rp2210
(dp2211
g16
VJJ
p2212
sbag5
(g6
g7
(lp2213
Vattributes
p2214
atp2215
Rp2216
(dp2217
g16
VNNS
p2218
sbatp2219
Rp2220
(dp2221
g16
VNP
p2222
sbag5
(g6
g7
(lp2223
g5
(g6
g7
(lp2224
Vof
p2225
atp2226
Rp2227
(dp2228
g16
VIN
p2229
sbag5
(g6
g7
(lp2230
g5
(g6
g7
(lp2231
g969
atp2232
Rp2233
(dp2234
g16
VDT
p2235
sbag5
(g6
g7
(lp2236
Vsocial
p2237
atp2238
Rp2239
(dp2240
g16
VJJ
p2241
sbag5
(g6
g7
(lp2242
Vrole
p2243
atp2244
Rp2245
(dp2246
g16
VNN
p2247
sbatp2248
Rp2249
(dp2250
g16
VNP
p2251
sbatp2252
Rp2253
(dp2254
g16
VPP
p2255
sbatp2256
Rp2257
(dp2258
g16
VNP
p2259
sbag5
(g6
g7
(lp2260
g73
atp2261
Rp2262
(dp2263
g16
g73
sbag5
(g6
g7
(lp2264
Vor
p2265
atp2266
Rp2267
(dp2268
g16
VCC
p2269
sbag5
(g6
g7
(lp2270
g5
(g6
g7
(lp2271
g5
(g6
g7
(lp2272
Vconcept
p2273
atp2274
Rp2275
(dp2276
g16
VNN
p2277
sbag5
(g6
g7
(lp2278
Vclass
p2279
atp2280
Rp2281
(dp2282
g16
VNN
p2283
sbatp2284
Rp2285
(dp2286
g16
VNP
p2287
sbag5
(g6
g7
(lp2288
g5
(g6
g7
(lp2289
g5
(g6
g7
(lp2290
V-LSB-
p2291
atp2292
Rp2293
(dp2294
g16
VNNP
p2295
sbag5
(g6
g7
(lp2296
V20
p2297
atp2298
Rp2299
(dp2300
g16
VCD
p2301
sbag5
(g6
g7
(lp2302
g73
atp2303
Rp2304
(dp2305
g16
g73
sbag5
(g6
g7
(lp2306
V1
p2307
atp2308
Rp2309
(dp2310
g16
VCD
p2311
sbatp2312
Rp2313
(dp2314
g16
VNP
p2315
sbag5
(g6
g7
(lp2316
g73
atp2317
Rp2318
(dp2319
g16
g73
sbag5
(g6
g7
(lp2320
g5
(g6
g7
(lp2321
V17
p2322
atp2323
Rp2324
(dp2325
g16
VCD
p2326
sbag5
(g6
g7
(lp2327
V-RSB-
p2328
atp2329
Rp2330
(dp2331
g16
VNNS
p2332
sbatp2333
Rp2334
(dp2335
g16
VNP
p2336
sbatp2337
Rp2338
(dp2339
g16
VNP
p2340
sbatp2341
Rp2342
(dp2343
g16
VNP
p2344
sbatp2345
Rp2346
(dp2347
g16
VNP
p2348
sbatp2349
Rp2350
(dp2351
g16
VPP
p2352
sbatp2353
Rp2354
(dp2355
g16
VPP
p2356
sbatp2357
Rp2358
(dp2359
g16
VVP
p2360
sbatp2361
Rp2362
(dp2363
g16
g249
sbatp2364
Rp2365
(dp2366
g16
VROOT
p2367
sbasg366
(icmyPackage
CorE
p2368
(dp2369
g369
(lp2370
(I0
I11
tp2371
a(I0
I28
tp2372
asg373
g2346
sbsg374
(icmyPackage
CorE
p2373
(dp2374
g369
(lp2375
(I0
I0
tp2376
a(I0
I8
tp2377
asg373
g5
(g6
g7
(lp2378
g2141
ag2152
ag2159
ag2181
atp2379
Rp2380
(dp2381
g16
g384
sbsbsg385
g1097
sg406
(lp2382
(isxpPackage
sxpSent
p2383
(dp2384
g410
(lp2385
I5
asg412
VIn the second study we exploit a complementary signal based on characteristic conceptual attributes of a social role, or concept class [ 20 , 1 , 17 ]
p2386
sg414
I2
sg399
I19
sg415
I6
sbasba(icmyPackage
CELink
p2387
(dp2388
g3
(lp2389
g5
(g6
g7
(lp2390
g5
(g6
g7
(lp2391
g5
(g6
g7
(lp2392
g5
(g6
g7
(lp2393
VWe
p2394
atp2395
Rp2396
(dp2397
g16
VPRP
p2398
sbatp2399
Rp2400
(dp2401
g16
VNP
p2402
sbag5
(g6
g7
(lp2403
g5
(g6
g7
(lp2404
Videntify
p2405
atp2406
Rp2407
(dp2408
g16
VVBP
p2409
sbag5
(g6
g7
(lp2410
g5
(g6
g7
(lp2411
g5
(g6
g7
(lp2412
Vtypical
p2413
atp2414
Rp2415
(dp2416
g16
VJJ
p2417
sbag5
(g6
g7
(lp2418
Vattributes
p2419
atp2420
Rp2421
(dp2422
g16
VNNS
p2423
sbatp2424
Rp2425
(dp2426
g16
VNP
p2427
sbag5
(g6
g7
(lp2428
g5
(g6
g7
(lp2429
Vof
p2430
atp2431
Rp2432
(dp2433
g16
VIN
p2434
sbag5
(g6
g7
(lp2435
g5
(g6
g7
(lp2436
g5
(g6
g7
(lp2437
g969
atp2438
Rp2439
(dp2440
g16
VDT
p2441
sbag5
(g6
g7
(lp2442
Vgiven
p2443
atp2444
Rp2445
(dp2446
g16
VVBN
p2447
sbag5
(g6
g7
(lp2448
Vsocial
p2449
atp2450
Rp2451
(dp2452
g16
VJJ
p2453
sbag5
(g6
g7
(lp2454
Vrole
p2455
atp2456
Rp2457
(dp2458
g16
VNN
p2459
sbatp2460
Rp2461
(dp2462
g16
VNP
p2463
sbag5
(g6
g7
(lp2464
g5
(g6
g7
(lp2465
Vby
p2466
atp2467
Rp2468
(dp2469
g16
VIN
p2470
sbag5
(g6
g7
(lp2471
g5
(g6
g7
(lp2472
g5
(g6
g7
(lp2473
Vcollecting
p2474
atp2475
Rp2476
(dp2477
g16
VVBG
p2478
sbag5
(g6
g7
(lp2479
g5
(g6
g7
(lp2480
g5
(g6
g7
(lp2481
Vterms
p2482
atp2483
Rp2484
(dp2485
g16
VNNS
p2486
sbatp2487
Rp2488
(dp2489
g16
VNP
p2490
sbag5
(g6
g7
(lp2491
g5
(g6
g7
(lp2492
Vin
p2493
atp2494
Rp2495
(dp2496
g16
VIN
p2497
sbag5
(g6
g7
(lp2498
g5
(g6
g7
(lp2499
Vthe
p2500
atp2501
Rp2502
(dp2503
g16
VDT
p2504
sbag5
(g6
g7
(lp2505
VGoogle
p2506
atp2507
Rp2508
(dp2509
g16
VNNP
p2510
sbag5
(g6
g7
(lp2511
Vn-gram
p2512
atp2513
Rp2514
(dp2515
g16
VJJ
p2516
sbag5
(g6
g7
(lp2517
Vcorpus
p2518
atp2519
Rp2520
(dp2521
g16
VNN
p2522
sbatp2523
Rp2524
(dp2525
g16
VNP
p2526
sbatp2527
Rp2528
(dp2529
g16
VPP
p2530
sbag5
(g6
g7
(lp2531
g5
(g6
g7
(lp2532
g5
(g6
g7
(lp2533
Vthat
p2534
atp2535
Rp2536
(dp2537
g16
VWDT
p2538
sbatp2539
Rp2540
(dp2541
g16
VWHNP
p2542
sbag5
(g6
g7
(lp2543
g5
(g6
g7
(lp2544
g5
(g6
g7
(lp2545
Voccur
p2546
atp2547
Rp2548
(dp2549
g16
VVBP
p2550
sbag5
(g6
g7
(lp2551
g5
(g6
g7
(lp2552
Vfrequently
p2553
atp2554
Rp2555
(dp2556
g16
VRB
p2557
sbatp2558
Rp2559
(dp2560
g16
VADVP
p2561
sbag5
(g6
g7
(lp2562
g5
(g6
g7
(lp2563
Vin
p2564
atp2565
Rp2566
(dp2567
g16
VIN
p2568
sbag5
(g6
g7
(lp2569
g5
(g6
g7
(lp2570
g5
(g6
g7
(lp2571
g969
atp2572
Rp2573
(dp2574
g16
VDT
p2575
sbag5
(g6
g7
(lp2576
Vpossessive
p2577
atp2578
Rp2579
(dp2580
g16
VJJ
p2581
sbag5
(g6
g7
(lp2582
Vconstruction
p2583
atp2584
Rp2585
(dp2586
g16
VNN
p2587
sbatp2588
Rp2589
(dp2590
g16
VNP
p2591
sbag5
(g6
g7
(lp2592
g5
(g6
g7
(lp2593
Vwith
p2594
atp2595
Rp2596
(dp2597
g16
VIN
p2598
sbag5
(g6
g7
(lp2599
g5
(g6
g7
(lp2600
Vthat
p2601
atp2602
Rp2603
(dp2604
g16
VDT
p2605
sbag5
(g6
g7
(lp2606
Vrole
p2607
atp2608
Rp2609
(dp2610
g16
VNN
p2611
sbatp2612
Rp2613
(dp2614
g16
VNP
p2615
sbatp2616
Rp2617
(dp2618
g16
VPP
p2619
sbatp2620
Rp2621
(dp2622
g16
VNP
p2623
sbatp2624
Rp2625
(dp2626
g16
VPP
p2627
sbatp2628
Rp2629
(dp2630
g16
VVP
p2631
sbatp2632
Rp2633
(dp2634
g16
g249
sbatp2635
Rp2636
(dp2637
g16
VSBAR
p2638
sbatp2639
Rp2640
(dp2641
g16
VNP
p2642
sbatp2643
Rp2644
(dp2645
g16
VVP
p2646
sbatp2647
Rp2648
(dp2649
g16
g249
sbatp2650
Rp2651
(dp2652
g16
VPP
p2653
sbatp2654
Rp2655
(dp2656
g16
VNP
p2657
sbatp2658
Rp2659
(dp2660
g16
VPP
p2661
sbatp2662
Rp2663
(dp2664
g16
VNP
p2665
sbatp2666
Rp2667
(dp2668
g16
VVP
p2669
sbatp2670
Rp2671
(dp2672
g16
g249
sbatp2673
Rp2674
(dp2675
g16
VROOT
p2676
sbasg366
(icmyPackage
CorE
p2677
(dp2678
g369
(lp2679
(I0
I10
tp2680
a(I0
I26
tp2681
asg373
g2648
sbsg374
(icmyPackage
CorE
p2682
(dp2683
g369
(lp2684
(I0
I0
tp2685
a(I0
I8
tp2686
asg373
g5
(g6
g7
(lp2687
g2400
ag2407
ag2425
ag2432
ag2461
atp2688
Rp2689
(dp2690
g16
g384
sbsbsg385
(icmyPackage
pattern
p2691
(dp2692
g388
I0
sg389
I0
sg390
(lp2693
(lp2694
(lp2695
S'by'
p2696
aS'through'
p2697
aaasg394
(lp2698
I2
aI1
aI1
asg396
(lp2699
S'The similar relation can be detected by analyzing the contents of nodes based on such approaches as the Latent Semantic Analysis (LSA) and the Vector Space Model (VSM)'
p2700
asg399
I68
sg400
(lp2701
(lp2702
S'&R@Complete@'
p2703
aa(lp2704
S'&V-ing@C@'
p2705
aasbsg406
(lp2706
(isxpPackage
sxpSent
p2707
(dp2708
g410
(lp2709
I6
asg412
VWe identify typical attributes of a given social role by collecting terms in the Google n-gram corpus that occur frequently in a possessive construction with that role
p2710
sg414
I2
sg399
I20
sg415
I6
sbasba(icmyPackage
CELink
p2711
(dp2712
g3
(lp2713
g5
(g6
g7
(lp2714
g5
(g6
g7
(lp2715
g5
(g6
g7
(lp2716
g5
(g6
g7
(lp2717
VAll
p2718
atp2719
Rp2720
(dp2721
g16
VDT
p2722
sbag5
(g6
g7
(lp2723
Vrole-representative
p2724
atp2725
Rp2726
(dp2727
g16
VJJ
p2728
sbag5
(g6
g7
(lp2729
Vusers
p2730
atp2731
Rp2732
(dp2733
g16
VNNS
p2734
sbatp2735
Rp2736
(dp2737
g16
VNP
p2738
sbag5
(g6
g7
(lp2739
g5
(g6
g7
(lp2740
Vwere
p2741
atp2742
Rp2743
(dp2744
g16
VVBD
p2745
sbag5
(g6
g7
(lp2746
g5
(g6
g7
(lp2747
Vdrawn
p2748
atp2749
Rp2750
(dp2751
g16
VVBN
p2752
sbag5
(g6
g7
(lp2753
g5
(g6
g7
(lp2754
Vfrom
p2755
atp2756
Rp2757
(dp2758
g16
VIN
p2759
sbag5
(g6
g7
(lp2760
g5
(g6
g7
(lp2761
g5
(g6
g7
(lp2762
Vthe
p2763
atp2764
Rp2765
(dp2766
g16
VDT
p2767
sbag5
(g6
g7
(lp2768
Vfree
p2769
atp2770
Rp2771
(dp2772
g16
VJJ
p2773
sbag5
(g6
g7
(lp2774
Vpublic
p2775
atp2776
Rp2777
(dp2778
g16
VJJ
p2779
sbag5
(g6
g7
(lp2780
g5
(g6
g7
(lp2781
g2307
atp2782
Rp2783
(dp2784
g16
VCD
p2785
sbag5
(g6
g7
(lp2786
V%
p2787
atp2788
Rp2789
(dp2790
g16
VNN
p2791
sbatp2792
Rp2793
(dp2794
g16
VADJP
p2795
sbag5
(g6
g7
(lp2796
Vsample
p2797
atp2798
Rp2799
(dp2800
g16
VNN
p2801
sbatp2802
Rp2803
(dp2804
g16
VNP
p2805
sbag5
(g6
g7
(lp2806
g5
(g6
g7
(lp2807
Vof
p2808
atp2809
Rp2810
(dp2811
g16
VIN
p2812
sbag5
(g6
g7
(lp2813
g5
(g6
g7
(lp2814
Vthe
p2815
atp2816
Rp2817
(dp2818
g16
VDT
p2819
sbag5
(g6
g7
(lp2820
VTwitter
p2821
atp2822
Rp2823
(dp2824
g16
VNNP
p2825
sbag5
(g6
g7
(lp2826
VFirehose
p2827
atp2828
Rp2829
(dp2830
g16
VNNP
p2831
sbatp2832
Rp2833
(dp2834
g16
VNP
p2835
sbatp2836
Rp2837
(dp2838
g16
VPP
p2839
sbatp2840
Rp2841
(dp2842
g16
VNP
p2843
sbatp2844
Rp2845
(dp2846
g16
VPP
p2847
sbag5
(g6
g7
(lp2848
g73
atp2849
Rp2850
(dp2851
g16
g73
sbag5
(g6
g7
(lp2852
g5
(g6
g7
(lp2853
Vover
p2854
atp2855
Rp2856
(dp2857
g16
VIN
p2858
sbag5
(g6
g7
(lp2859
g5
(g6
g7
(lp2860
Vthe
p2861
atp2862
Rp2863
(dp2864
g16
VDT
p2865
sbag5
(g6
g7
(lp2866
Vperiod
p2867
atp2868
Rp2869
(dp2870
g16
VNN
p2871
sbag5
(g6
g7
(lp2872
V2011-2013
p2873
atp2874
Rp2875
(dp2876
g16
VCD
p2877
sbatp2878
Rp2879
(dp2880
g16
VNP
p2881
sbatp2882
Rp2883
(dp2884
g16
VPP
p2885
sbag5
(g6
g7
(lp2886
g73
atp2887
Rp2888
(dp2889
g16
g73
sbag5
(g6
g7
(lp2890
g5
(g6
g7
(lp2891
Vfrom
p2892
atp2893
Rp2894
(dp2895
g16
VIN
p2896
sbag5
(g6
g7
(lp2897
g5
(g6
g7
(lp2898
g5
(g6
g7
(lp2899
Vthe
p2900
atp2901
Rp2902
(dp2903
g16
VDT
p2904
sbag5
(g6
g7
(lp2905
Vsubset
p2906
atp2907
Rp2908
(dp2909
g16
VNN
p2910
sbatp2911
Rp2912
(dp2913
g16
VNP
p2914
sbag5
(g6
g7
(lp2915
g5
(g6
g7
(lp2916
g5
(g6
g7
(lp2917
Vthat
p2918
atp2919
Rp2920
(dp2921
g16
VWDT
p2922
sbatp2923
Rp2924
(dp2925
g16
VWHNP
p2926
sbag5
(g6
g7
(lp2927
g5
(g6
g7
(lp2928
g5
(g6
g7
(lp2929
Vselected
p2930
atp2931
Rp2932
(dp2933
g16
VVBD
p2934
sbag5
(g6
g7
(lp2935
g5
(g6
g7
(lp2936
VEnglish
p2937
atp2938
Rp2939
(dp2940
g16
VNNP
p2941
sbatp2942
Rp2943
(dp2944
g16
VNP
p2945
sbag5
(g6
g7
(lp2946
g5
(g6
g7
(lp2947
Vas
p2948
atp2949
Rp2950
(dp2951
g16
VIN
p2952
sbag5
(g6
g7
(lp2953
g5
(g6
g7
(lp2954
Vtheir
p2955
atp2956
Rp2957
(dp2958
g16
VPRP$
p2959
sbag5
(g6
g7
(lp2960
Vnative
p2961
atp2962
Rp2963
(dp2964
g16
VJJ
p2965
sbag5
(g6
g7
(lp2966
Vlanguage
p2967
atp2968
Rp2969
(dp2970
g16
VNN
p2971
sbag5
(g6
g7
(lp2972
V-LRB-
p2973
atp2974
Rp2975
(dp2976
g16
V-LRB-
p2977
sbag5
(g6
g7
(lp2978
V85,387,204
p2979
atp2980
Rp2981
(dp2982
g16
VCD
p2983
sbag5
(g6
g7
(lp2984
Vunique
p2985
atp2986
Rp2987
(dp2988
g16
VNNP
p2989
sbag5
(g6
g7
(lp2990
Vusers
p2991
atp2992
Rp2993
(dp2994
g16
VNNS
p2995
sbatp2996
Rp2997
(dp2998
g16
VNP
p2999
sbatp3000
Rp3001
(dp3002
g16
VPP
p3003
sbatp3004
Rp3005
(dp3006
g16
VVP
p3007
sbatp3008
Rp3009
(dp3010
g16
g249
sbatp3011
Rp3012
(dp3013
g16
VSBAR
p3014
sbatp3015
Rp3016
(dp3017
g16
VNP
p3018
sbatp3019
Rp3020
(dp3021
g16
VPP
p3022
sbatp3023
Rp3024
(dp3025
g16
VVP
p3026
sbatp3027
Rp3028
(dp3029
g16
VVP
p3030
sbatp3031
Rp3032
(dp3033
g16
g249
sbatp3034
Rp3035
(dp3036
g16
VROOT
p3037
sbag5
(g6
g7
(lp3038
g5
(g6
g7
(lp3039
g5
(g6
g7
(lp3040
g5
(g6
g7
(lp3041
g5
(g6
g7
(lp3042
VTo
p3043
atp3044
Rp3045
(dp3046
g16
VTO
p3047
sbag5
(g6
g7
(lp3048
g5
(g6
g7
(lp3049
Videntify
p3050
atp3051
Rp3052
(dp3053
g16
VVB
p3054
sbag5
(g6
g7
(lp3055
g5
(g6
g7
(lp3056
g5
(g6
g7
(lp3057
Vusers
p3058
atp3059
Rp3060
(dp3061
g16
VNNS
p3062
sbatp3063
Rp3064
(dp3065
g16
VNP
p3066
sbag5
(g6
g7
(lp3067
g5
(g6
g7
(lp3068
Vof
p3069
atp3070
Rp3071
(dp3072
g16
VIN
p3073
sbag5
(g6
g7
(lp3074
g5
(g6
g7
(lp3075
g969
atp3076
Rp3077
(dp3078
g16
VDT
p3079
sbag5
(g6
g7
(lp3080
Vparticular
p3081
atp3082
Rp3083
(dp3084
g16
VJJ
p3085
sbag5
(g6
g7
(lp3086
Vrole
p3087
atp3088
Rp3089
(dp3090
g16
VNN
p3091
sbatp3092
Rp3093
(dp3094
g16
VNP
p3095
sbatp3096
Rp3097
(dp3098
g16
VPP
p3099
sbatp3100
Rp3101
(dp3102
g16
VNP
p3103
sbatp3104
Rp3105
(dp3106
g16
VVP
p3107
sbatp3108
Rp3109
(dp3110
g16
VVP
p3111
sbatp3112
Rp3113
(dp3114
g16
g249
sbag5
(g6
g7
(lp3115
g73
atp3116
Rp3117
(dp3118
g16
g73
sbag5
(g6
g7
(lp3119
g5
(g6
g7
(lp3120
Vwe
p3121
atp3122
Rp3123
(dp3124
g16
VPRP
p3125
sbatp3126
Rp3127
(dp3128
g16
VNP
p3129
sbag5
(g6
g7
(lp3130
g5
(g6
g7
(lp3131
Vperformed
p3132
atp3133
Rp3134
(dp3135
g16
VVBD
p3136
sbag5
(g6
g7
(lp3137
g5
(g6
g7
(lp3138
g5
(g6
g7
(lp3139
g969
atp3140
Rp3141
(dp3142
g16
VDT
p3143
sbag5
(g6
g7
(lp3144
Vcase-agnostic
p3145
atp3146
Rp3147
(dp3148
g16
VJJ
p3149
sbag5
(g6
g7
(lp3150
Vsearch
p3151
atp3152
Rp3153
(dp3154
g16
VNN
p3155
sbatp3156
Rp3157
(dp3158
g16
VNP
p3159
sbag5
(g6
g7
(lp3160
g5
(g6
g7
(lp3161
Vof
p3162
atp3163
Rp3164
(dp3165
g16
VIN
p3166
sbag5
(g6
g7
(lp3167
g5
(g6
g7
(lp3168
g5
(g6
g7
(lp3169
Vvariants
p3170
atp3171
Rp3172
(dp3173
g16
VNNS
p3174
sbatp3175
Rp3176
(dp3177
g16
VNP
p3178
sbag5
(g6
g7
(lp3179
g5
(g6
g7
(lp3180
Vof
p3181
atp3182
Rp3183
(dp3184
g16
VIN
p3185
sbag5
(g6
g7
(lp3186
g5
(g6
g7
(lp3187
g969
atp3188
Rp3189
(dp3190
g16
VDT
p3191
sbag5
(g6
g7
(lp3192
Vsingle
p3193
atp3194
Rp3195
(dp3196
g16
VJJ
p3197
sbag5
(g6
g7
(lp3198
Vpattern
p3199
atp3200
Rp3201
(dp3202
g16
VNN
p3203
sbatp3204
Rp3205
(dp3206
g16
VNP
p3207
sbatp3208
Rp3209
(dp3210
g16
VPP
p3211
sbatp3212
Rp3213
(dp3214
g16
VNP
p3215
sbatp3216
Rp3217
(dp3218
g16
VPP
p3219
sbatp3220
Rp3221
(dp3222
g16
VNP
p3223
sbatp3224
Rp3225
(dp3226
g16
VVP
p3227
sbatp3228
Rp3229
(dp3230
g16
g249
sbatp3231
Rp3232
(dp3233
g16
VROOT
p3234
sbasg366
(icmyPackage
CorE
p3235
(dp3236
g369
(lp3237
(I0
I29
tp3238
a(I1
I14
tp3239
asg373
g5
(g6
g7
(lp3240
g2997
ag3113
ag3117
ag3127
ag3134
ag3157
ag3164
ag3176
atp3241
Rp3242
(dp3243
g16
g384
sbsbsg374
(icmyPackage
CorE
p3244
(dp3245
g369
(lp3246
(I0
I0
tp3247
a(I0
I27
tp3248
asg373
g5
(g6
g7
(lp3249
g2736
ag2743
ag2750
ag2845
ag2850
ag2883
ag2888
ag2894
ag2912
ag2924
ag2932
ag2943
atp3250
Rp3251
(dp3252
g16
g384
sbsbsg385
g2084
sg406
(lp3253
(isxpPackage
sxpSent
p3254
(dp3255
g410
(lp3256
I7
asg412
VAll role-representative users were drawn from the free public 1% sample of the Twitter Firehose, over the period 2011-2013, from the subset that selected English as their native language (85,387,204 unique users
p3257
sg414
I5
sg399
I22
sg415
I7
sba(isxpPackage
sxpSent
p3258
(dp3259
g410
(lp3260
I7
asg412
VTo identify users of a particular role, we performed a case-agnostic search of variants of a single pattern
p3261
sg414
I5
sg399
I23
sg415
I7
sbasba(icmyPackage
CELink
p3262
(dp3263
g3
(lp3264
g5
(g6
g7
(lp3265
g5
(g6
g7
(lp3266
g5
(g6
g7
(lp3267
g5
(g6
g7
(lp3268
g5
(g6
g7
(lp3269
g1405
atp3270
Rp3271
(dp3272
g16
VPRP
p3273
sbatp3274
Rp3275
(dp3276
g16
VNP
p3277
sbag5
(g6
g7
(lp3278
g5
(g6
g7
(lp3279
Vam
p3280
atp3281
Rp3282
(dp3283
g16
VVBP
p3284
sbag5
(g6
g7
(lp3285
g5
(g6
g7
(lp3286
g969
atp3287
Rp3288
(dp3289
g16
VDT
p3290
sbag5
(g6
g7
(lp3291
g5
(g6
g7
(lp3292
V-LRB-
p3293
atp3294
Rp3295
(dp3296
g16
V-LRB-
p3297
sbag5
(g6
g7
(lp3298
g5
(g6
g7
(lp3299
Vn
p3300
atp3301
Rp3302
(dp3303
g16
VNN
p3304
sbatp3305
Rp3306
(dp3307
g16
VNP
p3308
sbag5
(g6
g7
(lp3309
V-RRB-
p3310
atp3311
Rp3312
(dp3313
g16
V-RRB-
p3314
sbatp3315
Rp3316
(dp3317
g16
VPRN
p3318
sbatp3319
Rp3320
(dp3321
g16
VNP
p3322
sbatp3323
Rp3324
(dp3325
g16
VVP
p3326
sbatp3327
Rp3328
(dp3329
g16
g249
sbag5
(g6
g7
(lp3330
g73
atp3331
Rp3332
(dp3333
g16
g73
sbag5
(g6
g7
(lp3334
Vand
p3335
atp3336
Rp3337
(dp3338
g16
VCC
p3339
sbag5
(g6
g7
(lp3340
g5
(g6
g7
(lp3341
g5
(g6
g7
(lp3342
g1405
atp3343
Rp3344
(dp3345
g16
VPRP
p3346
sbatp3347
Rp3348
(dp3349
g16
VNP
p3350
sbag5
(g6
g7
(lp3351
g5
(g6
g7
(lp3352
g1372
atp3353
Rp3354
(dp3355
g16
VVBP
p3356
sbag5
(g6
g7
(lp3357
g1378
atp3358
Rp3359
(dp3360
g16
V``
p3361
sbag5
(g6
g7
(lp3362
g5
(g6
g7
(lp3363
g5
(g6
g7
(lp3364
g5
(g6
g7
(lp3365
g5
(g6
g7
(lp3366
V\u005c
p3367
atp3368
Rp3369
(dp3370
g16
VNNP
p3371
sbag5
(g6
g7
(lp3372
Vu2019
p3373
atp3374
Rp3375
(dp3376
g16
VNNP
p3377
sbag5
(g6
g7
(lp3378
g1378
atp3379
Rp3380
(dp3381
g16
VPOS
p3382
sbatp3383
Rp3384
(dp3385
g16
VNP
p3386
sbag5
(g6
g7
(lp3387
Vm
p3388
atp3389
Rp3390
(dp3391
g16
VNN
p3392
sbatp3393
Rp3394
(dp3395
g16
VNP
p3396
sbag5
(g6
g7
(lp3397
g5
(g6
g7
(lp3398
g969
atp3399
Rp3400
(dp3401
g16
VDT
p3402
sbag5
(g6
g7
(lp3403
V-LRB-
p3404
atp3405
Rp3406
(dp3407
g16
V-LRB-
p3408
sbag5
(g6
g7
(lp3409
g3300
atp3410
Rp3411
(dp3412
g16
VNN
p3413
sbag5
(g6
g7
(lp3414
V-RRB-
p3415
atp3416
Rp3417
(dp3418
g16
V-RRB-
p3419
sbatp3420
Rp3421
(dp3422
g16
VNP
p3423
sbatp3424
Rp3425
(dp3426
g16
VNP
p3427
sbag5
(g6
g7
(lp3428
g73
atp3429
Rp3430
(dp3431
g16
g73
sbag5
(g6
g7
(lp3432
g5
(g6
g7
(lp3433
g5
(g6
g7
(lp3434
Vwhere
p3435
atp3436
Rp3437
(dp3438
g16
VWRB
p3439
sbatp3440
Rp3441
(dp3442
g16
VWHADVP
p3443
sbag5
(g6
g7
(lp3444
g5
(g6
g7
(lp3445
g5
(g6
g7
(lp3446
g5
(g6
g7
(lp3447
Vall
p3448
atp3449
Rp3450
(dp3451
g16
VDT
p3452
sbag5
(g6
g7
(lp3453
Vsingle
p3454
atp3455
Rp3456
(dp3457
g16
VJJ
p3458
sbag5
(g6
g7
(lp3459
Vtokens
p3460
atp3461
Rp3462
(dp3463
g16
VNNS
p3464
sbatp3465
Rp3466
(dp3467
g16
VNP
p3468
sbag5
(g6
g7
(lp3469
g5
(g6
g7
(lp3470
Vfilling
p3471
atp3472
Rp3473
(dp3474
g16
VVBG
p3475
sbag5
(g6
g7
(lp3476
g5
(g6
g7
(lp3477
Vthe
p3478
atp3479
Rp3480
(dp3481
g16
VDT
p3482
sbag5
(g6
g7
(lp3483
Vslot
p3484
atp3485
Rp3486
(dp3487
g16
VNN
p3488
sbatp3489
Rp3490
(dp3491
g16
VNP
p3492
sbatp3493
Rp3494
(dp3495
g16
VVP
p3496
sbatp3497
Rp3498
(dp3499
g16
VNP
p3500
sbag5
(g6
g7
(lp3501
g5
(g6
g7
(lp3502
Vwere
p3503
atp3504
Rp3505
(dp3506
g16
VVBD
p3507
sbag5
(g6
g7
(lp3508
g5
(g6
g7
(lp3509
Vtaken
p3510
atp3511
Rp3512
(dp3513
g16
VVBN
p3514
sbag5
(g6
g7
(lp3515
g5
(g6
g7
(lp3516
Vas
p3517
atp3518
Rp3519
(dp3520
g16
VIN
p3521
sbag5
(g6
g7
(lp3522
g5
(g6
g7
(lp3523
g5
(g6
g7
(lp3524
Vevidence
p3525
atp3526
Rp3527
(dp3528
g16
VNN
p3529
sbatp3530
Rp3531
(dp3532
g16
VNP
p3533
sbag5
(g6
g7
(lp3534
g5
(g6
g7
(lp3535
Vof
p3536
atp3537
Rp3538
(dp3539
g16
VIN
p3540
sbag5
(g6
g7
(lp3541
g5
(g6
g7
(lp3542
g5
(g6
g7
(lp3543
g5
(g6
g7
(lp3544
Vthe
p3545
atp3546
Rp3547
(dp3548
g16
VDT
p3549
sbag5
(g6
g7
(lp3550
Vauthor
p3551
atp3552
Rp3553
(dp3554
g16
VNN
p3555
sbag5
(g6
g7
(lp3556
Vself-reporting
p3557
atp3558
Rp3559
(dp3560
g16
VNN
p3561
sbatp3562
Rp3563
(dp3564
g16
VNP
p3565
sbag5
(g6
g7
(lp3566
g5
(g6
g7
(lp3567
Vfor
p3568
atp3569
Rp3570
(dp3571
g16
VIN
p3572
sbag5
(g6
g7
(lp3573
g5
(g6
g7
(lp3574
g5
(g6
g7
(lp3575
g5
(g6
g7
(lp3576
Vthe
p3577
atp3578
Rp3579
(dp3580
g16
VDT
p3581
sbag5
(g6
g7
(lp3582
Vgiven
p3583
atp3584
Rp3585
(dp3586
g16
VJJ
p3587
sbag5
(g6
g7
(lp3588
g1372
atp3589
Rp3590
(dp3591
g16
VNN
p3592
sbag5
(g6
g7
(lp3593
g1378
atp3594
Rp3595
(dp3596
g16
VPOS
p3597
sbatp3598
Rp3599
(dp3600
g16
VNP
p3601
sbag5
(g6
g7
(lp3602
V\u005c
p3603
atp3604
Rp3605
(dp3606
g16
VJJ
p3607
sbag5
(g6
g7
(lp3608
Vu201c
p3609
atp3610
Rp3611
(dp3612
g16
VNNS
p3613
sbag5
(g6
g7
(lp3614
g1378
atp3615
Rp3616
(dp3617
g16
VPOS
p3618
sbatp3619
Rp3620
(dp3621
g16
VNP
p3622
sbag5
(g6
g7
(lp3623
Vrole
p3624
atp3625
Rp3626
(dp3627
g16
VNN
p3628
sbag5
(g6
g7
(lp3629
g1372
atp3630
Rp3631
(dp3632
g16
VNN
p3633
sbatp3634
Rp3635
(dp3636
g16
VNP
p3637
sbatp3638
Rp3639
(dp3640
g16
VPP
p3641
sbag5
(g6
g7
(lp3642
g1378
atp3643
Rp3644
(dp3645
g16
VPOS
p3646
sbatp3647
Rp3648
(dp3649
g16
VNP
p3650
sbag5
(g6
g7
(lp3651
V\u005c
p3652
atp3653
Rp3654
(dp3655
g16
VNN
p3656
sbag5
(g6
g7
(lp3657
Vu201d
p3658
atp3659
Rp3660
(dp3661
g16
VNNS
p3662
sbatp3663
Rp3664
(dp3665
g16
VNP
p3666
sbatp3667
Rp3668
(dp3669
g16
VPP
p3670
sbatp3671
Rp3672
(dp3673
g16
VNP
p3674
sbatp3675
Rp3676
(dp3677
g16
VPP
p3678
sbatp3679
Rp3680
(dp3681
g16
VVP
p3682
sbatp3683
Rp3684
(dp3685
g16
VVP
p3686
sbatp3687
Rp3688
(dp3689
g16
g249
sbatp3690
Rp3691
(dp3692
g16
VSBAR
p3693
sbatp3694
Rp3695
(dp3696
g16
VNP
p3697
sbag5
(g6
g7
(lp3698
g1378
atp3699
Rp3700
(dp3701
g16
V''
p3702
sbatp3703
Rp3704
(dp3705
g16
VVP
p3706
sbatp3707
Rp3708
(dp3709
g16
g249
sbatp3710
Rp3711
(dp3712
g16
g249
sbatp3713
Rp3714
(dp3715
g16
VROOT
p3716
sbag5
(g6
g7
(lp3717
g5
(g6
g7
(lp3718
g5
(g6
g7
(lp3719
g5
(g6
g7
(lp3720
VExample
p3721
atp3722
Rp3723
(dp3724
g16
VJJ
p3725
sbag5
(g6
g7
(lp3726
Vtweets
p3727
atp3728
Rp3729
(dp3730
g16
VNNS
p3731
sbatp3732
Rp3733
(dp3734
g16
VNP
p3735
sbag5
(g6
g7
(lp3736
g5
(g6
g7
(lp3737
Vcan
p3738
atp3739
Rp3740
(dp3741
g16
VMD
p3742
sbag5
(g6
g7
(lp3743
g5
(g6
g7
(lp3744
Vbe
p3745
atp3746
Rp3747
(dp3748
g16
VVB
p3749
sbag5
(g6
g7
(lp3750
g5
(g6
g7
(lp3751
Vseen
p3752
atp3753
Rp3754
(dp3755
g16
VVBN
p3756
sbag5
(g6
g7
(lp3757
g5
(g6
g7
(lp3758
Vin
p3759
atp3760
Rp3761
(dp3762
g16
VIN
p3763
sbag5
(g6
g7
(lp3764
g5
(g6
g7
(lp3765
g5
(g6
g7
(lp3766
VTable
p3767
atp3768
Rp3769
(dp3770
g16
VNNP
p3771
sbag5
(g6
g7
(lp3772
g2307
atp3773
Rp3774
(dp3775
g16
VCD
p3776
sbag5
(g6
g7
(lp3777
g73
atp3778
Rp3779
(dp3780
g16
g73
sbag5
(g6
g7
(lp3781
Vexamples
p3782
atp3783
Rp3784
(dp3785
g16
VCD
p3786
sbatp3787
Rp3788
(dp3789
g16
VNP
p3790
sbag5
(g6
g7
(lp3791
g5
(g6
g7
(lp3792
Vof
p3793
atp3794
Rp3795
(dp3796
g16
VIN
p3797
sbag5
(g6
g7
(lp3798
g5
(g6
g7
(lp3799
g5
(g6
g7
(lp3800
Vfrequency
p3801
atp3802
Rp3803
(dp3804
g16
VNN
p3805
sbatp3806
Rp3807
(dp3808
g16
VNP
p3809
sbag5
(g6
g7
(lp3810
g5
(g6
g7
(lp3811
Vper
p3812
atp3813
Rp3814
(dp3815
g16
VIN
p3816
sbag5
(g6
g7
(lp3817
g5
(g6
g7
(lp3818
Vrole
p3819
atp3820
Rp3821
(dp3822
g16
VNN
p3823
sbatp3824
Rp3825
(dp3826
g16
VNP
p3827
sbatp3828
Rp3829
(dp3830
g16
VPP
p3831
sbatp3832
Rp3833
(dp3834
g16
VNP
p3835
sbatp3836
Rp3837
(dp3838
g16
VPP
p3839
sbatp3840
Rp3841
(dp3842
g16
VNP
p3843
sbatp3844
Rp3845
(dp3846
g16
VPP
p3847
sbag5
(g6
g7
(lp3848
g5
(g6
g7
(lp3849
Vin
p3850
atp3851
Rp3852
(dp3853
g16
VIN
p3854
sbag5
(g6
g7
(lp3855
g5
(g6
g7
(lp3856
VTable
p3857
atp3858
Rp3859
(dp3860
g16
VNNP
p3861
sbag5
(g6
g7
(lp3862
V2
p3863
atp3864
Rp3865
(dp3866
g16
VCD
p3867
sbatp3868
Rp3869
(dp3870
g16
VNP
p3871
sbatp3872
Rp3873
(dp3874
g16
VPP
p3875
sbatp3876
Rp3877
(dp3878
g16
VVP
p3879
sbatp3880
Rp3881
(dp3882
g16
VVP
p3883
sbatp3884
Rp3885
(dp3886
g16
VVP
p3887
sbatp3888
Rp3889
(dp3890
g16
g249
sbatp3891
Rp3892
(dp3893
g16
VROOT
p3894
sbasg366
(icmyPackage
CorE
p3895
(dp3896
g369
(lp3897
(I0
I30
tp3898
a(I1
I8
tp3899
asg373
g5
(g6
g7
(lp3900
g3672
ag3700
ag3733
ag3740
ag3747
ag3754
ag3761
ag3769
ag3774
ag3779
atp3901
Rp3902
(dp3903
g16
g384
sbsbsg374
(icmyPackage
CorE
p3904
(dp3905
g369
(lp3906
(I0
I0
tp3907
a(I0
I28
tp3908
asg373
g5
(g6
g7
(lp3909
g3328
ag3332
ag3337
ag3348
ag3354
ag3359
ag3425
ag3430
ag3441
ag3498
ag3505
ag3512
atp3910
Rp3911
(dp3912
g16
g384
sbsbsg385
g2084
sg406
(lp3913
(isxpPackage
sxpSent
p3914
(dp3915
g410
(lp3916
I8
asg412
VI am a(n) , and I u'\u005cu2019' m a(n) , where all single tokens filling the slot were taken as evidence of the author self-reporting for the given u'\u005cu201c' role u'\u005cu201d'
p3917
sg414
I5
sg399
I24
sg415
I7
sba(isxpPackage
sxpSent
p3918
(dp3919
g410
(lp3920
I8
asg412
VExample tweets can be seen in Table 1 , examples of frequency per role in Table 2
p3921
sg414
I5
sg399
I25
sg415
I7
sbasba(icmyPackage
CELink
p3922
(dp3923
g3
(lp3924
g5
(g6
g7
(lp3925
g5
(g6
g7
(lp3926
g5
(g6
g7
(lp3927
g5
(g6
g7
(lp3928
g5
(g6
g7
(lp3929
g5
(g6
g7
(lp3930
V3
p3931
atp3932
Rp3933
(dp3934
g16
VCD
p3935
sbag5
(g6
g7
(lp3936
g3931
atp3937
Rp3938
(dp3939
g16
VCD
p3940
sbatp3941
Rp3942
(dp3943
g16
VQP
p3944
sbatp3945
Rp3946
(dp3947
g16
VNP
p3948
sbag5
(g6
g7
(lp3949
g5
(g6
g7
(lp3950
g5
(g6
g7
(lp3951
g5
(g6
g7
(lp3952
VThis
p3953
atp3954
Rp3955
(dp3956
g16
VDT
p3957
sbatp3958
Rp3959
(dp3960
g16
VNP
p3961
sbag5
(g6
g7
(lp3962
g5
(g6
g7
(lp3963
Vremoves
p3964
atp3965
Rp3966
(dp3967
g16
VVBZ
p3968
sbag5
(g6
g7
(lp3969
g5
(g6
g7
(lp3970
g5
(g6
g7
(lp3971
Vusers
p3972
atp3973
Rp3974
(dp3975
g16
VNNS
p3976
sbatp3977
Rp3978
(dp3979
g16
VNP
p3980
sbag5
(g6
g7
(lp3981
g5
(g6
g7
(lp3982
g5
(g6
g7
(lp3983
Vthat
p3984
atp3985
Rp3986
(dp3987
g16
VWDT
p3988
sbatp3989
Rp3990
(dp3991
g16
VWHNP
p3992
sbag5
(g6
g7
(lp3993
g5
(g6
g7
(lp3994
g5
(g6
g7
(lp3995
Vselected
p3996
atp3997
Rp3998
(dp3999
g16
VVBD
p4000
sbag5
(g6
g7
(lp4001
g5
(g6
g7
(lp4002
g5
(g6
g7
(lp4003
VEnglish
p4004
atp4005
Rp4006
(dp4007
g16
VNNP
p4008
sbatp4009
Rp4010
(dp4011
g16
VNP
p4012
sbag5
(g6
g7
(lp4013
g5
(g6
g7
(lp4014
Vas
p4015
atp4016
Rp4017
(dp4018
g16
VIN
p4019
sbag5
(g6
g7
(lp4020
g5
(g6
g7
(lp4021
g5
(g6
g7
(lp4022
Vtheir
p4023
atp4024
Rp4025
(dp4026
g16
VPRP$
p4027
sbag5
(g6
g7
(lp4028
Vprimary
p4029
atp4030
Rp4031
(dp4032
g16
VJJ
p4033
sbag5
(g6
g7
(lp4034
Vlanguage
p4035
atp4036
Rp4037
(dp4038
g16
VNN
p4039
sbatp4040
Rp4041
(dp4042
g16
VNP
p4043
sbag5
(g6
g7
(lp4044
g73
atp4045
Rp4046
(dp4047
g16
g73
sbag5
(g6
g7
(lp4048
g5
(g6
g7
(lp4049
Vused
p4050
atp4051
Rp4052
(dp4053
g16
VVBN
p4054
sbag5
(g6
g7
(lp4055
g5
(g6
g7
(lp4056
g969
atp4057
Rp4058
(dp4059
g16
VDT
p4060
sbag5
(g6
g7
(lp4061
Vself-identification
p4062
atp4063
Rp4064
(dp4065
g16
VJJ
p4066
sbag5
(g6
g7
(lp4067
Vphrase
p4068
atp4069
Rp4070
(dp4071
g16
VNN
p4072
sbatp4073
Rp4074
(dp4075
g16
VNP
p4076
sbatp4077
Rp4078
(dp4079
g16
VVP
p4080
sbatp4081
Rp4082
(dp4083
g16
VNP
p4084
sbatp4085
Rp4086
(dp4087
g16
VPP
p4088
sbatp4089
Rp4090
(dp4091
g16
VNP
p4092
sbatp4093
Rp4094
(dp4095
g16
VVP
p4096
sbatp4097
Rp4098
(dp4099
g16
g249
sbatp4100
Rp4101
(dp4102
g16
VSBAR
p4103
sbatp4104
Rp4105
(dp4106
g16
VNP
p4107
sbatp4108
Rp4109
(dp4110
g16
VVP
p4111
sbatp4112
Rp4113
(dp4114
g16
g249
sbatp4115
Rp4116
(dp4117
g16
VSBAR
p4118
sbatp4119
Rp4120
(dp4121
g16
VNP
p4122
sbag5
(g6
g7
(lp4123
g73
atp4124
Rp4125
(dp4126
g16
g73
sbag5
(g6
g7
(lp4127
g5
(g6
g7
(lp4128
Ve.g.
p4129
atp4130
Rp4131
(dp4132
g16
VRB
p4133
sbatp4134
Rp4135
(dp4136
g16
VADVP
p4137
sbag5
(g6
g7
(lp4138
g73
atp4139
Rp4140
(dp4141
g16
g73
sbag5
(g6
g7
(lp4142
g5
(g6
g7
(lp4143
g1405
atp4144
Rp4145
(dp4146
g16
VPRP
p4147
sbatp4148
Rp4149
(dp4150
g16
VNP
p4151
sbag5
(g6
g7
(lp4152
g5
(g6
g7
(lp4153
g5
(g6
g7
(lp4154
Vam
p4155
atp4156
Rp4157
(dp4158
g16
VVBP
p4159
sbag5
(g6
g7
(lp4160
g5
(g6
g7
(lp4161
g969
atp4162
Rp4163
(dp4164
g16
VDT
p4165
sbag5
(g6
g7
(lp4166
Vbelieber
p4167
atp4168
Rp4169
(dp4170
g16
VNN
p4171
sbatp4172
Rp4173
(dp4174
g16
VNP
p4175
sbatp4176
Rp4177
(dp4178
g16
VVP
p4179
sbag5
(g6
g7
(lp4180
g73
atp4181
Rp4182
(dp4183
g16
g73
sbag5
(g6
g7
(lp4184
Vbut
p4185
atp4186
Rp4187
(dp4188
g16
VCC
p4189
sbag5
(g6
g7
(lp4190
g5
(g6
g7
(lp4191
g5
(g6
g7
(lp4192
Votherwise
p4193
atp4194
Rp4195
(dp4196
g16
VRB
p4197
sbatp4198
Rp4199
(dp4200
g16
VADVP
p4201
sbag5
(g6
g7
(lp4202
Vtended
p4203
atp4204
Rp4205
(dp4206
g16
VVBD
p4207
sbag5
(g6
g7
(lp4208
g5
(g6
g7
(lp4209
g5
(g6
g7
(lp4210
Vto
p4211
atp4212
Rp4213
(dp4214
g16
VTO
p4215
sbag5
(g6
g7
(lp4216
g5
(g6
g7
(lp4217
Vcommunicate
p4218
atp4219
Rp4220
(dp4221
g16
VVB
p4222
sbag5
(g6
g7
(lp4223
g5
(g6
g7
(lp4224
Vin
p4225
atp4226
Rp4227
(dp4228
g16
VIN
p4229
sbag5
(g6
g7
(lp4230
g5
(g6
g7
(lp4231
Vnon-English
p4232
atp4233
Rp4234
(dp4235
g16
VNN
p4236
sbatp4237
Rp4238
(dp4239
g16
VNP
p4240
sbatp4241
Rp4242
(dp4243
g16
VPP
p4244
sbatp4245
Rp4246
(dp4247
g16
VVP
p4248
sbatp4249
Rp4250
(dp4251
g16
VVP
p4252
sbatp4253
Rp4254
(dp4255
g16
g249
sbatp4256
Rp4257
(dp4258
g16
VVP
p4259
sbatp4260
Rp4261
(dp4262
g16
VVP
p4263
sbatp4264
Rp4265
(dp4266
g16
g249
sbatp4267
Rp4268
(dp4269
g16
VROOT
p4270
sbasg366
(icmyPackage
CorE
p4271
(dp4272
g369
(lp4273
(I0
I9
tp4274
a(I0
I31
tp4275
asg373
g5
(g6
g7
(lp4276
g4082
ag4125
ag4135
ag4140
ag4149
ag4261
atp4277
Rp4278
(dp4279
g16
g384
sbsbsg374
(icmyPackage
CorE
p4280
(dp4281
g369
(lp4282
(I0
I2
tp4283
a(I0
I7
tp4284
asg373
g5
(g6
g7
(lp4285
g3959
ag3966
ag3978
ag3990
ag3998
ag4010
atp4286
Rp4287
(dp4288
g16
g384
sbsbsg385
g2084
sg406
(lp4289
(isxpPackage
sxpSent
p4290
(dp4291
g410
(lp4292
I9
asg412
V3 3 This removes users that selected English as their primary language, used a self-identification phrase, e.g., I am a belieber , but otherwise tended to communicate in non-English
p4293
sg414
I5
sg399
I31
sg415
I8
sbasba(icmyPackage
CELink
p4294
(dp4295
g3
(lp4296
g5
(g6
g7
(lp4297
g5
(g6
g7
(lp4298
g5
(g6
g7
(lp4299
g5
(g6
g7
(lp4300
VThese
p4301
atp4302
Rp4303
(dp4304
g16
VDT
p4305
sbag5
(g6
g7
(lp4306
Vtweets
p4307
atp4308
Rp4309
(dp4310
g16
VNNS
p4311
sbatp4312
Rp4313
(dp4314
g16
VNP
p4315
sbag5
(g6
g7
(lp4316
g5
(g6
g7
(lp4317
Vserved
p4318
atp4319
Rp4320
(dp4321
g16
VVBD
p4322
sbag5
(g6
g7
(lp4323
g5
(g6
g7
(lp4324
Vas
p4325
atp4326
Rp4327
(dp4328
g16
VIN
p4329
sbag5
(g6
g7
(lp4330
g5
(g6
g7
(lp4331
Vrepresentative
p4332
atp4333
Rp4334
(dp4335
g16
VJJ
p4336
sbag5
(g6
g7
(lp4337
Vcontent
p4338
atp4339
Rp4340
(dp4341
g16
VNN
p4342
sbatp4343
Rp4344
(dp4345
g16
VNP
p4346
sbatp4347
Rp4348
(dp4349
g16
VPP
p4350
sbag5
(g6
g7
(lp4351
g5
(g6
g7
(lp4352
Vfor
p4353
atp4354
Rp4355
(dp4356
g16
VIN
p4357
sbag5
(g6
g7
(lp4358
g5
(g6
g7
(lp4359
Vthat
p4360
atp4361
Rp4362
(dp4363
g16
VDT
p4364
sbag5
(g6
g7
(lp4365
Vrole
p4366
atp4367
Rp4368
(dp4369
g16
VNN
p4370
sbatp4371
Rp4372
(dp4373
g16
VNP
p4374
sbatp4375
Rp4376
(dp4377
g16
VPP
p4378
sbag5
(g6
g7
(lp4379
g73
atp4380
Rp4381
(dp4382
g16
g73
sbag5
(g6
g7
(lp4383
g5
(g6
g7
(lp4384
Vwith
p4385
atp4386
Rp4387
(dp4388
g16
VIN
p4389
sbag5
(g6
g7
(lp4390
g5
(g6
g7
(lp4391
g5
(g6
g7
(lp4392
Vany
p4393
atp4394
Rp4395
(dp4396
g16
VDT
p4397
sbag5
(g6
g7
(lp4398
Vtweet
p4399
atp4400
Rp4401
(dp4402
g16
VNN
p4403
sbatp4404
Rp4405
(dp4406
g16
VNP
p4407
sbag5
(g6
g7
(lp4408
g5
(g6
g7
(lp4409
Vmatching
p4410
atp4411
Rp4412
(dp4413
g16
VVBG
p4414
sbag5
(g6
g7
(lp4415
g5
(g6
g7
(lp4416
g5
(g6
g7
(lp4417
Vthe
p4418
atp4419
Rp4420
(dp4421
g16
VDT
p4422
sbag5
(g6
g7
(lp4423
Vself-reporting
p4424
atp4425
Rp4426
(dp4427
g16
VJJ
p4428
sbag5
(g6
g7
(lp4429
Vpatterns
p4430
atp4431
Rp4432
(dp4433
g16
VNNS
p4434
sbatp4435
Rp4436
(dp4437
g16
VNP
p4438
sbag5
(g6
g7
(lp4439
g5
(g6
g7
(lp4440
Vfiltered
p4441
atp4442
Rp4443
(dp4444
g16
VVBN
p4445
sbatp4446
Rp4447
(dp4448
g16
VVP
p4449
sbatp4450
Rp4451
(dp4452
g16
VNP
p4453
sbatp4454
Rp4455
(dp4456
g16
VVP
p4457
sbatp4458
Rp4459
(dp4460
g16
VNP
p4461
sbatp4462
Rp4463
(dp4464
g16
VPP
p4465
sbatp4466
Rp4467
(dp4468
g16
VVP
p4469
sbatp4470
Rp4471
(dp4472
g16
g249
sbatp4473
Rp4474
(dp4475
g16
VROOT
p4476
sbag5
(g6
g7
(lp4477
g5
(g6
g7
(lp4478
g5
(g6
g7
(lp4479
g5
(g6
g7
(lp4480
g5
(g6
g7
(lp4481
VThree
p4482
atp4483
Rp4484
(dp4485
g16
VCD
p4486
sbag5
(g6
g7
(lp4487
Vsets
p4488
atp4489
Rp4490
(dp4491
g16
VNNS
p4492
sbatp4493
Rp4494
(dp4495
g16
VNP
p4496
sbag5
(g6
g7
(lp4497
g5
(g6
g7
(lp4498
Vof
p4499
atp4500
Rp4501
(dp4502
g16
VIN
p4503
sbag5
(g6
g7
(lp4504
g5
(g6
g7
(lp4505
Vbackground
p4506
atp4507
Rp4508
(dp4509
g16
VNN
p4510
sbag5
(g6
g7
(lp4511
Vpopulations
p4512
atp4513
Rp4514
(dp4515
g16
VNNS
p4516
sbatp4517
Rp4518
(dp4519
g16
VNP
p4520
sbatp4521
Rp4522
(dp4523
g16
VPP
p4524
sbatp4525
Rp4526
(dp4527
g16
VNP
p4528
sbag5
(g6
g7
(lp4529
g5
(g6
g7
(lp4530
Vwere
p4531
atp4532
Rp4533
(dp4534
g16
VVBD
p4535
sbag5
(g6
g7
(lp4536
g5
(g6
g7
(lp4537
Vextracted
p4538
atp4539
Rp4540
(dp4541
g16
VVBN
p4542
sbag5
(g6
g7
(lp4543
g5
(g6
g7
(lp4544
Vbased
p4545
atp4546
Rp4547
(dp4548
g16
VVBN
p4549
sbag5
(g6
g7
(lp4550
g5
(g6
g7
(lp4551
Von
p4552
atp4553
Rp4554
(dp4555
g16
VIN
p4556
sbag5
(g6
g7
(lp4557
g5
(g6
g7
(lp4558
g5
(g6
g7
(lp4559
g5
(g6
g7
(lp4560
Vrandomly
p4561
atp4562
Rp4563
(dp4564
g16
VRB
p4565
sbag5
(g6
g7
(lp4566
Vsampling
p4567
atp4568
Rp4569
(dp4570
g16
VJJ
p4571
sbatp4572
Rp4573
(dp4574
g16
VADJP
p4575
sbag5
(g6
g7
(lp4576
Vusers
p4577
atp4578
Rp4579
(dp4580
g16
VNNS
p4581
sbatp4582
Rp4583
(dp4584
g16
VNP
p4585
sbag5
(g6
g7
(lp4586
g5
(g6
g7
(lp4587
g5
(g6
g7
(lp4588
Vthat
p4589
atp4590
Rp4591
(dp4592
g16
VWDT
p4593
sbatp4594
Rp4595
(dp4596
g16
VWHNP
p4597
sbag5
(g6
g7
(lp4598
g5
(g6
g7
(lp4599
g5
(g6
g7
(lp4600
Vself-reported
p4601
atp4602
Rp4603
(dp4604
g16
VVBD
p4605
sbag5
(g6
g7
(lp4606
g5
(g6
g7
(lp4607
g5
(g6
g7
(lp4608
VEnglish
p4609
atp4610
Rp4611
(dp4612
g16
VNNP
p4613
sbag5
(g6
g7
(lp4614
V-LRB-
p4615
atp4616
Rp4617
(dp4618
g16
V-LRB-
p4619
sbag5
(g6
g7
(lp4620
Vpost-filtered
p4621
atp4622
Rp4623
(dp4624
g16
VNNP
p4625
sbatp4626
Rp4627
(dp4628
g16
VNP
p4629
sbag5
(g6
g7
(lp4630
g5
(g6
g7
(lp4631
Vvia
p4632
atp4633
Rp4634
(dp4635
g16
VIN
p4636
sbag5
(g6
g7
(lp4637
g5
(g6
g7
(lp4638
VLID
p4639
atp4640
Rp4641
(dp4642
g16
VNNP
p4643
sbatp4644
Rp4645
(dp4646
g16
VNP
p4647
sbatp4648
Rp4649
(dp4650
g16
VPP
p4651
sbatp4652
Rp4653
(dp4654
g16
VNP
p4655
sbatp4656
Rp4657
(dp4658
g16
VVP
p4659
sbatp4660
Rp4661
(dp4662
g16
g249
sbatp4663
Rp4664
(dp4665
g16
VSBAR
p4666
sbatp4667
Rp4668
(dp4669
g16
VNP
p4670
sbatp4671
Rp4672
(dp4673
g16
VPP
p4674
sbatp4675
Rp4676
(dp4677
g16
VPP
p4678
sbatp4679
Rp4680
(dp4681
g16
VVP
p4682
sbatp4683
Rp4684
(dp4685
g16
VVP
p4686
sbatp4687
Rp4688
(dp4689
g16
g249
sbatp4690
Rp4691
(dp4692
g16
VROOT
p4693
sbasg366
(icmyPackage
CorE
p4694
(dp4695
g369
(lp4696
(I0
I4
tp4697
a(I1
I17
tp4698
asg373
g5
(g6
g7
(lp4699
g4344
ag4376
ag4381
ag4463
ag4526
ag4533
ag4540
ag4547
ag4554
ag4583
ag4595
ag4603
ag4627
ag4634
atp4700
Rp4701
(dp4702
g16
g384
sbsbsg374
(icmyPackage
CorE
p4703
(dp4704
g369
(lp4705
(I0
I0
tp4706
a(I0
I2
tp4707
asg373
g5
(g6
g7
(lp4708
g4313
ag4320
atp4709
Rp4710
(dp4711
g16
g384
sbsbsg385
g2084
sg406
(lp4712
(isxpPackage
sxpSent
p4713
(dp4714
g410
(lp4715
I10
asg412
VThese tweets served as representative content for that role, with any tweet matching the self-reporting patterns filtered
p4716
sg414
I5
sg399
I34
sg415
I9
sba(isxpPackage
sxpSent
p4717
(dp4718
g410
(lp4719
I10
aI11
asg412
VThree sets of background populations were extracted based on randomly sampling users that self-reported English (post-filtered via LID
p4720
sg414
I5
sg399
I35
sg415
I9
sbasba(icmyPackage
CELink
p4721
(dp4722
g3
(lp4723
g4691
asg366
(icmyPackage
CorE
p4724
(dp4725
g369
(lp4726
(I0
I9
tp4727
a(I0
I18
tp4728
asg373
g4668
sbsg374
(icmyPackage
CorE
p4729
(dp4730
g369
(lp4731
(I0
I0
tp4732
a(I0
I6
tp4733
asg373
g5
(g6
g7
(lp4734
g4526
ag4533
ag4540
atp4735
Rp4736
(dp4737
g16
g384
sbsbsg385
g1097
sg406
(lp4738
g4717
asba(icmyPackage
CELink
p4739
(dp4740
g3
(lp4741
g5
(g6
g7
(lp4742
g5
(g6
g7
(lp4743
g5
(g6
g7
(lp4744
g5
(g6
g7
(lp4745
g5
(g6
g7
(lp4746
VAny
p4747
atp4748
Rp4749
(dp4750
g16
VDT
p4751
sbag5
(g6
g7
(lp4752
Vgiven
p4753
atp4754
Rp4755
(dp4756
g16
VVBN
p4757
sbag5
(g6
g7
(lp4758
Vuser
p4759
atp4760
Rp4761
(dp4762
g16
VNN
p4763
sbatp4764
Rp4765
(dp4766
g16
VNP
p4767
sbag5
(g6
g7
(lp4768
g5
(g6
g7
(lp4769
Vtaken
p4770
atp4771
Rp4772
(dp4773
g16
VVBN
p4774
sbag5
(g6
g7
(lp4775
g5
(g6
g7
(lp4776
g5
(g6
g7
(lp4777
Vto
p4778
atp4779
Rp4780
(dp4781
g16
VTO
p4782
sbag5
(g6
g7
(lp4783
g5
(g6
g7
(lp4784
Vbe
p4785
atp4786
Rp4787
(dp4788
g16
VVB
p4789
sbag5
(g6
g7
(lp4790
g5
(g6
g7
(lp4791
Vrepresentative
p4792
atp4793
Rp4794
(dp4795
g16
VJJ
p4796
sbatp4797
Rp4798
(dp4799
g16
VADJP
p4800
sbag5
(g6
g7
(lp4801
g5
(g6
g7
(lp4802
Vbased
p4803
atp4804
Rp4805
(dp4806
g16
VVBN
p4807
sbag5
(g6
g7
(lp4808
g5
(g6
g7
(lp4809
Von
p4810
atp4811
Rp4812
(dp4813
g16
VIN
p4814
sbag5
(g6
g7
(lp4815
g5
(g6
g7
(lp4816
g969
atp4817
Rp4818
(dp4819
g16
VDT
p4820
sbag5
(g6
g7
(lp4821
Vpreviously
p4822
atp4823
Rp4824
(dp4825
g16
VRB
p4826
sbatp4827
Rp4828
(dp4829
g16
VNP
p4830
sbatp4831
Rp4832
(dp4833
g16
VPP
p4834
sbatp4835
Rp4836
(dp4837
g16
VPP
p4838
sbatp4839
Rp4840
(dp4841
g16
VVP
p4842
sbatp4843
Rp4844
(dp4845
g16
VVP
p4846
sbatp4847
Rp4848
(dp4849
g16
g249
sbatp4850
Rp4851
(dp4852
g16
VVP
p4853
sbatp4854
Rp4855
(dp4856
g16
VNP
p4857
sbag5
(g6
g7
(lp4858
g5
(g6
g7
(lp4859
Vposted
p4860
atp4861
Rp4862
(dp4863
g16
VVBD
p4864
sbag5
(g6
g7
(lp4865
g5
(g6
g7
(lp4866
g5
(g6
g7
(lp4867
g5
(g6
g7
(lp4868
Vtweet
p4869
atp4870
Rp4871
(dp4872
g16
VNN
p4873
sbatp4874
Rp4875
(dp4876
g16
VNP
p4877
sbag5
(g6
g7
(lp4878
g5
(g6
g7
(lp4879
Vmay
p4880
atp4881
Rp4882
(dp4883
g16
VMD
p4884
sbag5
(g6
g7
(lp4885
g5
(g6
g7
(lp4886
Vno
p4887
atp4888
Rp4889
(dp4890
g16
VRB
p4891
sbag5
(g6
g7
(lp4892
Vlonger
p4893
atp4894
Rp4895
(dp4896
g16
VRB
p4897
sbatp4898
Rp4899
(dp4900
g16
VADVP
p4901
sbag5
(g6
g7
(lp4902
g5
(g6
g7
(lp4903
Vbe
p4904
atp4905
Rp4906
(dp4907
g16
VVB
p4908
sbag5
(g6
g7
(lp4909
g5
(g6
g7
(lp4910
Vavailable
p4911
atp4912
Rp4913
(dp4914
g16
VJJ
p4915
sbag5
(g6
g7
(lp4916
g5
(g6
g7
(lp4917
g5
(g6
g7
(lp4918
Vto
p4919
atp4920
Rp4921
(dp4922
g16
VTO
p4923
sbag5
(g6
g7
(lp4924
g5
(g6
g7
(lp4925
Vquery
p4926
atp4927
Rp4928
(dp4929
g16
VVB
p4930
sbag5
(g6
g7
(lp4931
g5
(g6
g7
(lp4932
Von
p4933
atp4934
Rp4935
(dp4936
g16
VRP
p4937
sbatp4938
Rp4939
(dp4940
g16
VPRT
p4941
sbatp4942
Rp4943
(dp4944
g16
VVP
p4945
sbatp4946
Rp4947
(dp4948
g16
VVP
p4949
sbatp4950
Rp4951
(dp4952
g16
g249
sbatp4953
Rp4954
(dp4955
g16
VADJP
p4956
sbatp4957
Rp4958
(dp4959
g16
VVP
p4960
sbatp4961
Rp4962
(dp4963
g16
VVP
p4964
sbatp4965
Rp4966
(dp4967
g16
g249
sbatp4968
Rp4969
(dp4970
g16
VSBAR
p4971
sbatp4972
Rp4973
(dp4974
g16
VVP
p4975
sbatp4976
Rp4977
(dp4978
g16
g249
sbatp4979
Rp4980
(dp4981
g16
VROOT
p4982
sbasg366
(icmyPackage
CorE
p4983
(dp4984
g369
(lp4985
(I0
I9
tp4986
a(I0
I20
tp4987
asg373
g5
(g6
g7
(lp4988
g4828
ag4973
atp4989
Rp4990
(dp4991
g16
g384
sbsbsg374
(icmyPackage
CorE
p4992
(dp4993
g369
(lp4994
(I0
I0
tp4995
a(I0
I6
tp4996
asg373
g5
(g6
g7
(lp4997
g4765
ag4772
ag4780
ag4787
ag4798
atp4998
Rp4999
(dp5000
g16
g384
sbsbsg385
g1097
sg406
(lp5001
(isxpPackage
sxpSent
p5002
(dp5003
g410
(lp5004
I12
aI13
asg412
VAny given user taken to be representative based on a previously posted tweet may no longer be available to query on
p5005
sg414
I5
sg399
I37
sg415
I10
sbasba(icmyPackage
CELink
p5006
(dp5007
g3
(lp5008
g4980
ag5
(g6
g7
(lp5009
g5
(g6
g7
(lp5010
g5
(g6
g7
(lp5011
g5
(g6
g7
(lp5012
VAs
p5013
atp5014
Rp5015
(dp5016
g16
VIN
p5017
sbag5
(g6
g7
(lp5018
g5
(g6
g7
(lp5019
g5
(g6
g7
(lp5020
g969
atp5021
Rp5022
(dp5023
g16
VDT
p5024
sbag5
(g6
g7
(lp5025
Vhint
p5026
atp5027
Rp5028
(dp5029
g16
VNN
p5030
sbatp5031
Rp5032
(dp5033
g16
VNP
p5034
sbag5
(g6
g7
(lp5035
g5
(g6
g7
(lp5036
Vof
p5037
atp5038
Rp5039
(dp5040
g16
VIN
p5041
sbag5
(g6
g7
(lp5042
g5
(g6
g7
(lp5043
g5
(g6
g7
(lp5044
Vthe
p5045
atp5046
Rp5047
(dp5048
g16
VDT
p5049
sbag5
(g6
g7
(lp5050
Vsort
p5051
atp5052
Rp5053
(dp5054
g16
VNN
p5055
sbatp5056
Rp5057
(dp5058
g16
VNP
p5059
sbag5
(g6
g7
(lp5060
g5
(g6
g7
(lp5061
Vof
p5062
atp5063
Rp5064
(dp5065
g16
VIN
p5066
sbag5
(g6
g7
(lp5067
g5
(g6
g7
(lp5068
Vuser
p5069
atp5070
Rp5071
(dp5072
g16
VNN
p5073
sbag5
(g6
g7
(lp5074
Vstudies
p5075
atp5076
Rp5077
(dp5078
g16
VNNS
p5079
sbatp5080
Rp5081
(dp5082
g16
VNP
p5083
sbatp5084
Rp5085
(dp5086
g16
VPP
p5087
sbatp5088
Rp5089
(dp5090
g16
VNP
p5091
sbatp5092
Rp5093
(dp5094
g16
VPP
p5095
sbatp5096
Rp5097
(dp5098
g16
VNP
p5099
sbatp5100
Rp5101
(dp5102
g16
VPP
p5103
sbag5
(g6
g7
(lp5104
g5
(g6
g7
(lp5105
Vone
p5106
atp5107
Rp5108
(dp5109
g16
VPRP
p5110
sbatp5111
Rp5112
(dp5113
g16
VNP
p5114
sbag5
(g6
g7
(lp5115
g5
(g6
g7
(lp5116
Vmight
p5117
atp5118
Rp5119
(dp5120
g16
VMD
p5121
sbag5
(g6
g7
(lp5122
g5
(g6
g7
(lp5123
Vexplore
p5124
atp5125
Rp5126
(dp5127
g16
VVB
p5128
sbag5
(g6
g7
(lp5129
g5
(g6
g7
(lp5130
g5
(g6
g7
(lp5131
g5
(g6
g7
(lp5132
Vgiven
p5133
atp5134
Rp5135
(dp5136
g16
VVBN
p5137
sbag5
(g6
g7
(lp5138
Vaccess
p5139
atp5140
Rp5141
(dp5142
g16
VNN
p5143
sbatp5144
Rp5145
(dp5146
g16
VNP
p5147
sbag5
(g6
g7
(lp5148
g5
(g6
g7
(lp5149
Vto
p5150
atp5151
Rp5152
(dp5153
g16
VTO
p5154
sbag5
(g6
g7
(lp5155
g5
(g6
g7
(lp5156
Vsocial
p5157
atp5158
Rp5159
(dp5160
g16
VJJ
p5161
sbag5
(g6
g7
(lp5162
Vrole
p5163
atp5164
Rp5165
(dp5166
g16
VNN
p5167
sbag5
(g6
g7
(lp5168
Vprediction
p5169
atp5170
Rp5171
(dp5172
g16
VNN
p5173
sbatp5174
Rp5175
(dp5176
g16
VNP
p5177
sbatp5178
Rp5179
(dp5180
g16
VPP
p5181
sbag5
(g6
g7
(lp5182
g5
(g6
g7
(lp5183
g73
atp5184
Rp5185
(dp5186
g16
g73
sbag5
(g6
g7
(lp5187
g5
(g6
g7
(lp5188
g5
(g6
g7
(lp5189
Vwe
p5190
atp5191
Rp5192
(dp5193
g16
VPRP
p5194
sbatp5195
Rp5196
(dp5197
g16
VNP
p5198
sbag5
(g6
g7
(lp5199
g5
(g6
g7
(lp5200
Vsee
p5201
atp5202
Rp5203
(dp5204
g16
VVBP
p5205
sbag5
(g6
g7
(lp5206
g5
(g6
g7
(lp5207
Vin
p5208
atp5209
Rp5210
(dp5211
g16
VIN
p5212
sbag5
(g6
g7
(lp5213
g5
(g6
g7
(lp5214
VFigure
p5215
atp5216
Rp5217
(dp5218
g16
VNNP
p5219
sbag5
(g6
g7
(lp5220
g2307
atp5221
Rp5222
(dp5223
g16
VCD
p5224
sbatp5225
Rp5226
(dp5227
g16
VNP
p5228
sbatp5229
Rp5230
(dp5231
g16
VPP
p5232
sbag5
(g6
g7
(lp5233
g5
(g6
g7
(lp5234
g5
(g6
g7
(lp5235
g5
(g6
g7
(lp5236
g969
atp5237
Rp5238
(dp5239
g16
VDT
p5240
sbag5
(g6
g7
(lp5241
Vcorrelation
p5242
atp5243
Rp5244
(dp5245
g16
VNN
p5246
sbatp5247
Rp5248
(dp5249
g16
VNP
p5250
sbag5
(g6
g7
(lp5251
g5
(g6
g7
(lp5252
Vbetween
p5253
atp5254
Rp5255
(dp5256
g16
VIN
p5257
sbag5
(g6
g7
(lp5258
g5
(g6
g7
(lp5259
Vself-reported
p5260
atp5261
Rp5262
(dp5263
g16
VJJ
p5264
sbag5
(g6
g7
(lp5265
Vrole
p5266
atp5267
Rp5268
(dp5269
g16
VNN
p5270
sbatp5271
Rp5272
(dp5273
g16
VNP
p5274
sbatp5275
Rp5276
(dp5277
g16
VPP
p5278
sbatp5279
Rp5280
(dp5281
g16
VNP
p5282
sbag5
(g6
g7
(lp5283
Vand
p5284
atp5285
Rp5286
(dp5287
g16
VCC
p5288
sbag5
(g6
g7
(lp5289
g5
(g6
g7
(lp5290
g5
(g6
g7
(lp5291
Vthe
p5292
atp5293
Rp5294
(dp5295
g16
VDT
p5296
sbag5
(g6
g7
(lp5297
Vchance
p5298
atp5299
Rp5300
(dp5301
g16
VNN
p5302
sbatp5303
Rp5304
(dp5305
g16
VNP
p5306
sbag5
(g6
g7
(lp5307
g5
(g6
g7
(lp5308
Vof
p5309
atp5310
Rp5311
(dp5312
g16
VIN
p5313
sbag5
(g6
g7
(lp5314
g5
(g6
g7
(lp5315
g5
(g6
g7
(lp5316
Van
p5317
atp5318
Rp5319
(dp5320
g16
VDT
p5321
sbag5
(g6
g7
(lp5322
Vaccount
p5323
atp5324
Rp5325
(dp5326
g16
VNN
p5327
sbatp5328
Rp5329
(dp5330
g16
VNP
p5331
sbag5
(g6
g7
(lp5332
g5
(g6
g7
(lp5333
Vstill
p5334
atp5335
Rp5336
(dp5337
g16
VRB
p5338
sbatp5339
Rp5340
(dp5341
g16
VADVP
p5342
sbag5
(g6
g7
(lp5343
g5
(g6
g7
(lp5344
Vbeing
p5345
atp5346
Rp5347
(dp5348
g16
VVBG
p5349
sbag5
(g6
g7
(lp5350
g5
(g6
g7
(lp5351
Vpublicly
p5352
atp5353
Rp5354
(dp5355
g16
VRB
p5356
sbag5
(g6
g7
(lp5357
Vvisible
p5358
atp5359
Rp5360
(dp5361
g16
VJJ
p5362
sbatp5363
Rp5364
(dp5365
g16
VADJP
p5366
sbatp5367
Rp5368
(dp5369
g16
VVP
p5370
sbatp5371
Rp5372
(dp5373
g16
g249
sbatp5374
Rp5375
(dp5376
g16
VPP
p5377
sbatp5378
Rp5379
(dp5380
g16
VNP
p5381
sbatp5382
Rp5383
(dp5384
g16
VNP
p5385
sbatp5386
Rp5387
(dp5388
g16
VVP
p5389
sbatp5390
Rp5391
(dp5392
g16
g249
sbag5
(g6
g7
(lp5393
g73
atp5394
Rp5395
(dp5396
g16
g73
sbatp5397
Rp5398
(dp5399
g16
VPRN
p5400
sbatp5401
Rp5402
(dp5403
g16
VNP
p5404
sbag5
(g6
g7
(lp5405
g5
(g6
g7
(lp5406
Vwith
p5407
atp5408
Rp5409
(dp5410
g16
VIN
p5411
sbag5
(g6
g7
(lp5412
g5
(g6
g7
(lp5413
g5
(g6
g7
(lp5414
Vroles
p5415
atp5416
Rp5417
(dp5418
g16
VNNS
p5419
sbatp5420
Rp5421
(dp5422
g16
VNP
p5423
sbag5
(g6
g7
(lp5424
g5
(g6
g7
(lp5425
Vsuch
p5426
atp5427
Rp5428
(dp5429
g16
VJJ
p5430
sbag5
(g6
g7
(lp5431
Vas
p5432
atp5433
Rp5434
(dp5435
g16
VIN
p5436
sbag5
(g6
g7
(lp5437
g5
(g6
g7
(lp5438
g5
(g6
g7
(lp5439
Vbelieber
p5440
atp5441
Rp5442
(dp5443
g16
VNN
p5444
sbag5
(g6
g7
(lp5445
Vand
p5446
atp5447
Rp5448
(dp5449
g16
VCC
p5450
sbag5
(g6
g7
(lp5451
Vdirectioner
p5452
atp5453
Rp5454
(dp5455
g16
VNN
p5456
sbatp5457
Rp5458
(dp5459
g16
VNP
p5460
sbag5
(g6
g7
(lp5461
g5
(g6
g7
(lp5462
Von
p5463
atp5464
Rp5465
(dp5466
g16
VIN
p5467
sbag5
(g6
g7
(lp5468
g5
(g6
g7
(lp5469
Vthe
p5470
atp5471
Rp5472
(dp5473
g16
VDT
p5474
sbag5
(g6
g7
(lp5475
Vone
p5476
atp5477
Rp5478
(dp5479
g16
VCD
p5480
sbag5
(g6
g7
(lp5481
Vhand
p5482
atp5483
Rp5484
(dp5485
g16
VNN
p5486
sbatp5487
Rp5488
(dp5489
g16
VNP
p5490
sbatp5491
Rp5492
(dp5493
g16
VPP
p5494
sbatp5495
Rp5496
(dp5497
g16
VNP
p5498
sbatp5499
Rp5500
(dp5501
g16
VPP
p5502
sbatp5503
Rp5504
(dp5505
g16
VNP
p5506
sbatp5507
Rp5508
(dp5509
g16
VPP
p5510
sbag5
(g6
g7
(lp5511
g73
atp5512
Rp5513
(dp5514
g16
g73
sbag5
(g6
g7
(lp5515
Vand
p5516
atp5517
Rp5518
(dp5519
g16
VCC
p5520
sbag5
(g6
g7
(lp5521
g5
(g6
g7
(lp5522
g5
(g6
g7
(lp5523
Vdoctor
p5524
atp5525
Rp5526
(dp5527
g16
VNN
p5528
sbag5
(g6
g7
(lp5529
Vand
p5530
atp5531
Rp5532
(dp5533
g16
VCC
p5534
sbag5
(g6
g7
(lp5535
Vteacher
p5536
atp5537
Rp5538
(dp5539
g16
VNN
p5540
sbatp5541
Rp5542
(dp5543
g16
VNP
p5544
sbag5
(g6
g7
(lp5545
g5
(g6
g7
(lp5546
Von
p5547
atp5548
Rp5549
(dp5550
g16
VIN
p5551
sbag5
(g6
g7
(lp5552
g5
(g6
g7
(lp5553
Vthe
p5554
atp5555
Rp5556
(dp5557
g16
VDT
p5558
sbag5
(g6
g7
(lp5559
Vother
p5560
atp5561
Rp5562
(dp5563
g16
VJJ
p5564
sbatp5565
Rp5566
(dp5567
g16
VNP
p5568
sbatp5569
Rp5570
(dp5571
g16
VPP
p5572
sbatp5573
Rp5574
(dp5575
g16
VNP
p5576
sbatp5577
Rp5578
(dp5579
g16
VNP
p5580
sbatp5581
Rp5582
(dp5583
g16
VVP
p5584
sbatp5585
Rp5586
(dp5587
g16
VVP
p5588
sbatp5589
Rp5590
(dp5591
g16
g249
sbatp5592
Rp5593
(dp5594
g16
VROOT
p5595
sbasg366
(icmyPackage
CorE
p5596
(dp5597
g369
(lp5598
(I1
I1
tp5599
a(I1
I58
tp5600
asg373
g5
(g6
g7
(lp5601
g5097
ag5112
ag5586
atp5602
Rp5603
(dp5604
g16
g384
sbsbsg374
(icmyPackage
CorE
p5605
(dp5606
g369
(lp5607
(I0
I0
tp5608
a(I0
I20
tp5609
asg373
g4980
sbsg385
g2084
sg406
(lp5610
g5002
a(isxpPackage
sxpSent
p5611
(dp5612
g410
(lp5613
I13
asg412
VAs a hint of the sort of user studies one might explore given access to social role prediction, we see in Figure 1 a correlation between self-reported role and the chance of an account still being publicly visible, with roles such as belieber and directioner on the one hand, and doctor and teacher on the other
p5614
sg414
I5
sg399
I38
sg415
I10
sbasba(icmyPackage
CELink
p5615
(dp5616
g3
(lp5617
g5
(g6
g7
(lp5618
g5
(g6
g7
(lp5619
g5
(g6
g7
(lp5620
g5
(g6
g7
(lp5621
VWhile
p5622
atp5623
Rp5624
(dp5625
g16
VIN
p5626
sbag5
(g6
g7
(lp5627
g5
(g6
g7
(lp5628
g5
(g6
g7
(lp5629
Vthese
p5630
atp5631
Rp5632
(dp5633
g16
VDT
p5634
sbag5
(g6
g7
(lp5635
Vsamples
p5636
atp5637
Rp5638
(dp5639
g16
VNNS
p5640
sbatp5641
Rp5642
(dp5643
g16
VNP
p5644
sbag5
(g6
g7
(lp5645
g5
(g6
g7
(lp5646
g5
(g6
g7
(lp5647
Vare
p5648
atp5649
Rp5650
(dp5651
g16
VVBP
p5652
sbag5
(g6
g7
(lp5653
g5
(g6
g7
(lp5654
Vsmall
p5655
atp5656
Rp5657
(dp5658
g16
VJJ
p5659
sbatp5660
Rp5661
(dp5662
g16
VADJP
p5663
sbatp5664
Rp5665
(dp5666
g16
VVP
p5667
sbag5
(g6
g7
(lp5668
g5
(g6
g7
(lp5669
V-LRB-
p5670
atp5671
Rp5672
(dp5673
g16
V-LRB-
p5674
sbag5
(g6
g7
(lp5675
Vand
p5676
atp5677
Rp5678
(dp5679
g16
VCC
p5680
sbag5
(g6
g7
(lp5681
g5
(g6
g7
(lp5682
g5
(g6
g7
(lp5683
Vthus
p5684
atp5685
Rp5686
(dp5687
g16
VRB
p5688
sbatp5689
Rp5690
(dp5691
g16
VADVP
p5692
sbag5
(g6
g7
(lp5693
Vestimates
p5694
atp5695
Rp5696
(dp5697
g16
VVBZ
p5698
sbag5
(g6
g7
(lp5699
g5
(g6
g7
(lp5700
Vof
p5701
atp5702
Rp5703
(dp5704
g16
VIN
p5705
sbag5
(g6
g7
(lp5706
g5
(g6
g7
(lp5707
g5
(g6
g7
(lp5708
Vquality
p5709
atp5710
Rp5711
(dp5712
g16
VNN
p5713
sbatp5714
Rp5715
(dp5716
g16
VNP
p5717
sbag5
(g6
g7
(lp5718
g5
(g6
g7
(lp5719
Vcome
p5720
atp5721
Rp5722
(dp5723
g16
VVBN
p5724
sbag5
(g6
g7
(lp5725
g5
(g6
g7
(lp5726
Vwith
p5727
atp5728
Rp5729
(dp5730
g16
VIN
p5731
sbag5
(g6
g7
(lp5732
g5
(g6
g7
(lp5733
Vwide
p5734
atp5735
Rp5736
(dp5737
g16
VJJ
p5738
sbag5
(g6
g7
(lp5739
Vvariance
p5740
atp5741
Rp5742
(dp5743
g16
VNN
p5744
sbatp5745
Rp5746
(dp5747
g16
VNP
p5748
sbatp5749
Rp5750
(dp5751
g16
VPP
p5752
sbatp5753
Rp5754
(dp5755
g16
VVP
p5756
sbatp5757
Rp5758
(dp5759
g16
VNP
p5760
sbatp5761
Rp5762
(dp5763
g16
VPP
p5764
sbatp5765
Rp5766
(dp5767
g16
VVP
p5768
sbag5
(g6
g7
(lp5769
V-RRB-
p5770
atp5771
Rp5772
(dp5773
g16
V-RRB-
p5774
sbatp5775
Rp5776
(dp5777
g16
VPRN
p5778
sbatp5779
Rp5780
(dp5781
g16
VVP
p5782
sbatp5783
Rp5784
(dp5785
g16
g249
sbatp5786
Rp5787
(dp5788
g16
VSBAR
p5789
sbag5
(g6
g7
(lp5790
g73
atp5791
Rp5792
(dp5793
g16
g73
sbag5
(g6
g7
(lp5794
g5
(g6
g7
(lp5795
Vit
p5796
atp5797
Rp5798
(dp5799
g16
VPRP
p5800
sbatp5801
Rp5802
(dp5803
g16
VNP
p5804
sbag5
(g6
g7
(lp5805
g5
(g6
g7
(lp5806
Vis
p5807
atp5808
Rp5809
(dp5810
g16
VVBZ
p5811
sbag5
(g6
g7
(lp5812
g5
(g6
g7
(lp5813
Vnoteworthy
p5814
atp5815
Rp5816
(dp5817
g16
VJJ
p5818
sbatp5819
Rp5820
(dp5821
g16
VADJP
p5822
sbag5
(g6
g7
(lp5823
g5
(g6
g7
(lp5824
Vthat
p5825
atp5826
Rp5827
(dp5828
g16
VIN
p5829
sbag5
(g6
g7
(lp5830
g5
(g6
g7
(lp5831
g5
(g6
g7
(lp5832
g5
(g6
g7
(lp5833
g969
atp5834
Rp5835
(dp5836
g16
VDT
p5837
sbag5
(g6
g7
(lp5838
Vnon-trivial
p5839
atp5840
Rp5841
(dp5842
g16
VJJ
p5843
sbag5
(g6
g7
(lp5844
Vnumber
p5845
atp5846
Rp5847
(dp5848
g16
VNN
p5849
sbatp5850
Rp5851
(dp5852
g16
VNP
p5853
sbag5
(g6
g7
(lp5854
g5
(g6
g7
(lp5855
Vfor
p5856
atp5857
Rp5858
(dp5859
g16
VIN
p5860
sbag5
(g6
g7
(lp5861
g5
(g6
g7
(lp5862
Veach
p5863
atp5864
Rp5865
(dp5866
g16
VDT
p5867
sbatp5868
Rp5869
(dp5870
g16
VNP
p5871
sbatp5872
Rp5873
(dp5874
g16
VPP
p5875
sbatp5876
Rp5877
(dp5878
g16
VNP
p5879
sbag5
(g6
g7
(lp5880
g5
(g6
g7
(lp5881
Vwere
p5882
atp5883
Rp5884
(dp5885
g16
VVBD
p5886
sbag5
(g6
g7
(lp5887
g5
(g6
g7
(lp5888
Vjudged
p5889
atp5890
Rp5891
(dp5892
g16
VVBN
p5893
sbag5
(g6
g7
(lp5894
g5
(g6
g7
(lp5895
Vas
p5896
atp5897
Rp5898
(dp5899
g16
VIN
p5900
sbag5
(g6
g7
(lp5901
g5
(g6
g7
(lp5902
g5
(g6
g7
(lp5903
Vactually
p5904
atp5905
Rp5906
(dp5907
g16
VRB
p5908
sbatp5909
Rp5910
(dp5911
g16
VADVP
p5912
sbag5
(g6
g7
(lp5913
g5
(g6
g7
(lp5914
Vself-identifying
p5915
atp5916
Rp5917
(dp5918
g16
VVBG
p5919
sbatp5920
Rp5921
(dp5922
g16
VVP
p5923
sbatp5924
Rp5925
(dp5926
g16
g249
sbatp5927
Rp5928
(dp5929
g16
VPP
p5930
sbatp5931
Rp5932
(dp5933
g16
VVP
p5934
sbatp5935
Rp5936
(dp5937
g16
VVP
p5938
sbatp5939
Rp5940
(dp5941
g16
g249
sbatp5942
Rp5943
(dp5944
g16
VSBAR
p5945
sbatp5946
Rp5947
(dp5948
g16
VVP
p5949
sbatp5950
Rp5951
(dp5952
g16
g249
sbatp5953
Rp5954
(dp5955
g16
VROOT
p5956
sbasg366
(icmyPackage
CorE
p5957
(dp5958
g369
(lp5959
(I0
I0
tp5960
a(I0
I5
tp5961
asg373
g5
(g6
g7
(lp5962
g5624
ag5642
ag5665
ag5672
atp5963
Rp5964
(dp5965
g16
g384
sbsbsg374
(icmyPackage
CorE
p5966
(dp5967
g369
(lp5968
(I0
I8
tp5969
a(I0
I30
tp5970
asg373
g5
(g6
g7
(lp5971
g5696
ag5762
ag5772
ag5792
ag5802
ag5947
atp5972
Rp5973
(dp5974
g16
g384
sbsbsg385
(icmyPackage
pattern
p5975
(dp5976
g388
I35
sg389
I1
sg390
(lp5977
(lp5978
S'thus'
p5979
aasg394
(lp5980
I1
aI1
aI1
asg396
(lp5981
S'Japan will be on the dark side of the Earth, and thus will lack the warming influence of the Sun.'
p5982
asg399
I2
sg400
(lp5983
(lp5984
S'&C'
p5985
aS'(,/;/./--)'
p5986
aS'(&AND)'
p5987
aa(lp5988
S'&R'
p5989
aasbsg406
(lp5990
(isxpPackage
sxpSent
p5991
(dp5992
g410
(lp5993
I14
asg412
VWhile these samples are small (and thus estimates of quality come with wide variance), it is noteworthy that a non-trivial number for each were judged as actually self-identifying
p5994
sg414
I5
sg399
I41
sg415
I11
sbasba(icmyPackage
CELink
p5995
(dp5996
g3
(lp5997
g5
(g6
g7
(lp5998
g5
(g6
g7
(lp5999
g5
(g6
g7
(lp6000
g5
(g6
g7
(lp6001
g5
(g6
g7
(lp6002
VBaseline
p6003
atp6004
Rp6005
(dp6006
g16
VJJ
p6007
sbag5
(g6
g7
(lp6008
Vaccuracy
p6009
atp6010
Rp6011
(dp6012
g16
VNN
p6013
sbatp6014
Rp6015
(dp6016
g16
VNP
p6017
sbag5
(g6
g7
(lp6018
g5
(g6
g7
(lp6019
Vin
p6020
atp6021
Rp6022
(dp6023
g16
VIN
p6024
sbag5
(g6
g7
(lp6025
g5
(g6
g7
(lp6026
Vthese
p6027
atp6028
Rp6029
(dp6030
g16
VDT
p6031
sbag5
(g6
g7
(lp6032
Vexperiments
p6033
atp6034
Rp6035
(dp6036
g16
VNNS
p6037
sbatp6038
Rp6039
(dp6040
g16
VNP
p6041
sbatp6042
Rp6043
(dp6044
g16
VPP
p6045
sbatp6046
Rp6047
(dp6048
g16
VNP
p6049
sbag5
(g6
g7
(lp6050
g5
(g6
g7
(lp6051
Vwas
p6052
atp6053
Rp6054
(dp6055
g16
VVBD
p6056
sbag5
(g6
g7
(lp6057
Vthus
p6058
atp6059
Rp6060
(dp6061
g16
VRB
p6062
sbag5
(g6
g7
(lp6063
g5
(g6
g7
(lp6064
g5
(g6
g7
(lp6065
g5
(g6
g7
(lp6066
V50
p6067
atp6068
Rp6069
(dp6070
g16
VCD
p6071
sbag5
(g6
g7
(lp6072
g1372
atp6073
Rp6074
(dp6075
g16
VNN
p6076
sbag5
(g6
g7
(lp6077
g1378
atp6078
Rp6079
(dp6080
g16
VPOS
p6081
sbatp6082
Rp6083
(dp6084
g16
VNP
p6085
sbag5
(g6
g7
(lp6086
V\u005c
p6087
atp6088
Rp6089
(dp6090
g16
V``
p6091
sbag5
(g6
g7
(lp6092
Vu2062
p6093
atp6094
Rp6095
(dp6096
g16
VNNS
p6097
sbatp6098
Rp6099
(dp6100
g16
VNP
p6101
sbag5
(g6
g7
(lp6102
g5
(g6
g7
(lp6103
g1378
atp6104
Rp6105
(dp6106
g16
VCD
p6107
sbag5
(g6
g7
(lp6108
g2787
atp6109
Rp6110
(dp6111
g16
VNN
p6112
sbatp6113
Rp6114
(dp6115
g16
VADJP
p6116
sbatp6117
Rp6118
(dp6119
g16
VNP
p6120
sbatp6121
Rp6122
(dp6123
g16
VVP
p6124
sbatp6125
Rp6126
(dp6127
g16
g249
sbatp6128
Rp6129
(dp6130
g16
VROOT
p6131
sbag5
(g6
g7
(lp6132
g5
(g6
g7
(lp6133
g5
(g6
g7
(lp6134
g5
(g6
g7
(lp6135
g5
(g6
g7
(lp6136
VEach
p6137
atp6138
Rp6139
(dp6140
g16
VDT
p6141
sbag5
(g6
g7
(lp6142
Vtraining
p6143
atp6144
Rp6145
(dp6146
g16
VNN
p6147
sbag5
(g6
g7
(lp6148
Vset
p6149
atp6150
Rp6151
(dp6152
g16
VNN
p6153
sbatp6154
Rp6155
(dp6156
g16
VNP
p6157
sbag5
(g6
g7
(lp6158
g5
(g6
g7
(lp6159
Vhad
p6160
atp6161
Rp6162
(dp6163
g16
VVBD
p6164
sbag5
(g6
g7
(lp6165
g5
(g6
g7
(lp6166
g5
(g6
g7
(lp6167
g969
atp6168
Rp6169
(dp6170
g16
VDT
p6171
sbag5
(g6
g7
(lp6172
Vtarget
p6173
atp6174
Rp6175
(dp6176
g16
VNN
p6177
sbatp6178
Rp6179
(dp6180
g16
VNP
p6181
sbag5
(g6
g7
(lp6182
g5
(g6
g7
(lp6183
Vof
p6184
atp6185
Rp6186
(dp6187
g16
VIN
p6188
sbag5
(g6
g7
(lp6189
g5
(g6
g7
(lp6190
g5
(g6
g7
(lp6191
V600
p6192
atp6193
Rp6194
(dp6195
g16
VCD
p6196
sbag5
(g6
g7
(lp6197
Vusers
p6198
atp6199
Rp6200
(dp6201
g16
VNNS
p6202
sbatp6203
Rp6204
(dp6205
g16
VNP
p6206
sbag5
(g6
g7
(lp6207
g5
(g6
g7
(lp6208
V-LRB-
p6209
atp6210
Rp6211
(dp6212
g16
V-LRB-
p6213
sbag5
(g6
g7
(lp6214
g5
(g6
g7
(lp6215
g5
(g6
g7
(lp6216
V300
p6217
atp6218
Rp6219
(dp6220
g16
VCD
p6221
sbag5
(g6
g7
(lp6222
Vbackground
p6223
atp6224
Rp6225
(dp6226
g16
VNN
p6227
sbatp6228
Rp6229
(dp6230
g16
VNP
p6231
sbag5
(g6
g7
(lp6232
g73
atp6233
Rp6234
(dp6235
g16
g73
sbag5
(g6
g7
(lp6236
g5
(g6
g7
(lp6237
V300
p6238
atp6239
Rp6240
(dp6241
g16
VCD
p6242
sbag5
(g6
g7
(lp6243
Vself-identified
p6244
atp6245
Rp6246
(dp6247
g16
VNN
p6248
sbatp6249
Rp6250
(dp6251
g16
VNP
p6252
sbatp6253
Rp6254
(dp6255
g16
VNP
p6256
sbag5
(g6
g7
(lp6257
V-RRB-
p6258
atp6259
Rp6260
(dp6261
g16
V-RRB-
p6262
sbatp6263
Rp6264
(dp6265
g16
VPRN
p6266
sbatp6267
Rp6268
(dp6269
g16
VNP
p6270
sbatp6271
Rp6272
(dp6273
g16
VPP
p6274
sbatp6275
Rp6276
(dp6277
g16
VNP
p6278
sbatp6279
Rp6280
(dp6281
g16
VVP
p6282
sbatp6283
Rp6284
(dp6285
g16
g249
sbag5
(g6
g7
(lp6286
V;
p6287
atp6288
Rp6289
(dp6290
g16
V:
p6291
sbag5
(g6
g7
(lp6292
g5
(g6
g7
(lp6293
g5
(g6
g7
(lp6294
Vfor
p6295
atp6296
Rp6297
(dp6298
g16
VIN
p6299
sbag5
(g6
g7
(lp6300
g5
(g6
g7
(lp6301
g5
(g6
g7
(lp6302
Vthose
p6303
atp6304
Rp6305
(dp6306
g16
VDT
p6307
sbag5
(g6
g7
(lp6308
Vroles
p6309
atp6310
Rp6311
(dp6312
g16
VNNS
p6313
sbatp6314
Rp6315
(dp6316
g16
VNP
p6317
sbag5
(g6
g7
(lp6318
g5
(g6
g7
(lp6319
Vwith
p6320
atp6321
Rp6322
(dp6323
g16
VIN
p6324
sbag5
(g6
g7
(lp6325
g5
(g6
g7
(lp6326
g5
(g6
g7
(lp6327
Vless
p6328
atp6329
Rp6330
(dp6331
g16
VJJR
p6332
sbag5
(g6
g7
(lp6333
Vthan
p6334
atp6335
Rp6336
(dp6337
g16
VIN
p6338
sbag5
(g6
g7
(lp6339
V300
p6340
atp6341
Rp6342
(dp6343
g16
VCD
p6344
sbatp6345
Rp6346
(dp6347
g16
VQP
p6348
sbag5
(g6
g7
(lp6349
Vusers
p6350
atp6351
Rp6352
(dp6353
g16
VNNS
p6354
sbag5
(g6
g7
(lp6355
Vself-identifying
p6356
atp6357
Rp6358
(dp6359
g16
VNN
p6360
sbatp6361
Rp6362
(dp6363
g16
VNP
p6364
sbatp6365
Rp6366
(dp6367
g16
VPP
p6368
sbatp6369
Rp6370
(dp6371
g16
VNP
p6372
sbatp6373
Rp6374
(dp6375
g16
VPP
p6376
sbag5
(g6
g7
(lp6377
g73
atp6378
Rp6379
(dp6380
g16
g73
sbag5
(g6
g7
(lp6381
g5
(g6
g7
(lp6382
Vall
p6383
atp6384
Rp6385
(dp6386
g16
VDT
p6387
sbag5
(g6
g7
(lp6388
Vusers
p6389
atp6390
Rp6391
(dp6392
g16
VNNS
p6393
sbatp6394
Rp6395
(dp6396
g16
VNP
p6397
sbag5
(g6
g7
(lp6398
g5
(g6
g7
(lp6399
Vwere
p6400
atp6401
Rp6402
(dp6403
g16
VVBD
p6404
sbag5
(g6
g7
(lp6405
g5
(g6
g7
(lp6406
Vused
p6407
atp6408
Rp6409
(dp6410
g16
VVBN
p6411
sbag5
(g6
g7
(lp6412
g73
atp6413
Rp6414
(dp6415
g16
g73
sbag5
(g6
g7
(lp6416
g5
(g6
g7
(lp6417
Vwith
p6418
atp6419
Rp6420
(dp6421
g16
VIN
p6422
sbag5
(g6
g7
(lp6423
g5
(g6
g7
(lp6424
Van
p6425
atp6426
Rp6427
(dp6428
g16
VDT
p6429
sbag5
(g6
g7
(lp6430
Vequal
p6431
atp6432
Rp6433
(dp6434
g16
VJJ
p6435
sbag5
(g6
g7
(lp6436
Vnumber
p6437
atp6438
Rp6439
(dp6440
g16
VNN
p6441
sbag5
(g6
g7
(lp6442
Vbackground
p6443
atp6444
Rp6445
(dp6446
g16
VNN
p6447
sbatp6448
Rp6449
(dp6450
g16
VNP
p6451
sbatp6452
Rp6453
(dp6454
g16
VPP
p6455
sbatp6456
Rp6457
(dp6458
g16
VVP
p6459
sbatp6460
Rp6461
(dp6462
g16
VVP
p6463
sbatp6464
Rp6465
(dp6466
g16
g249
sbatp6467
Rp6468
(dp6469
g16
g249
sbatp6470
Rp6471
(dp6472
g16
VROOT
p6473
sbasg366
(icmyPackage
CorE
p6474
(dp6475
g369
(lp6476
(I0
I0
tp6477
a(I0
I5
tp6478
asg373
g5
(g6
g7
(lp6479
g6047
ag6054
atp6480
Rp6481
(dp6482
g16
g384
sbsbsg374
(icmyPackage
CorE
p6483
(dp6484
g369
(lp6485
(I0
I7
tp6486
a(I1
I35
tp6487
asg373
g5
(g6
g7
(lp6488
g6118
ag6284
ag6289
ag6374
ag6379
ag6395
ag6402
ag6409
ag6414
ag6420
ag6427
ag6433
ag6439
atp6489
Rp6490
(dp6491
g16
g384
sbsbsg385
g5975
sg406
(lp6492
(isxpPackage
sxpSent
p6493
(dp6494
g410
(lp6495
I15
asg412
VBaseline accuracy in these experiments was thus 50 u'\u005cu2062' %
p6496
sg414
I5
sg399
I44
sg415
I12
sba(isxpPackage
sxpSent
p6497
(dp6498
g410
(lp6499
I15
asg412
VEach training set had a target of 600 users (300 background, 300 self-identified); for those roles with less than 300 users self-identifying, all users were used, with an equal number background
p6500
sg414
I5
sg399
I45
sg415
I13
sbasba(icmyPackage
CELink
p6501
(dp6502
g3
(lp6503
g5
(g6
g7
(lp6504
g5
(g6
g7
(lp6505
g5
(g6
g7
(lp6506
g5
(g6
g7
(lp6507
VThese
p6508
atp6509
Rp6510
(dp6511
g16
VDT
p6512
sbag5
(g6
g7
(lp6513
Vresults
p6514
atp6515
Rp6516
(dp6517
g16
VNNS
p6518
sbag5
(g6
g7
(lp6519
Vqualitatively
p6520
atp6521
Rp6522
(dp6523
g16
VNN
p6524
sbatp6525
Rp6526
(dp6527
g16
VNP
p6528
sbag5
(g6
g7
(lp6529
g5
(g6
g7
(lp6530
Vsuggest
p6531
atp6532
Rp6533
(dp6534
g16
VVBP
p6535
sbag5
(g6
g7
(lp6536
g5
(g6
g7
(lp6537
g5
(g6
g7
(lp6538
g5
(g6
g7
(lp6539
g5
(g6
g7
(lp6540
Vmany
p6541
atp6542
Rp6543
(dp6544
g16
VJJ
p6545
sbag5
(g6
g7
(lp6546
Vroles
p6547
atp6548
Rp6549
(dp6550
g16
VNNS
p6551
sbatp6552
Rp6553
(dp6554
g16
VNP
p6555
sbag5
(g6
g7
(lp6556
g5
(g6
g7
(lp6557
Vunder
p6558
atp6559
Rp6560
(dp6561
g16
VIN
p6562
sbag5
(g6
g7
(lp6563
g5
(g6
g7
(lp6564
Vconsideration
p6565
atp6566
Rp6567
(dp6568
g16
VNN
p6569
sbatp6570
Rp6571
(dp6572
g16
VNP
p6573
sbatp6574
Rp6575
(dp6576
g16
VPP
p6577
sbatp6578
Rp6579
(dp6580
g16
VNP
p6581
sbag5
(g6
g7
(lp6582
g5
(g6
g7
(lp6583
Vmay
p6584
atp6585
Rp6586
(dp6587
g16
VMD
p6588
sbag5
(g6
g7
(lp6589
g5
(g6
g7
(lp6590
Vbe
p6591
atp6592
Rp6593
(dp6594
g16
VVB
p6595
sbag5
(g6
g7
(lp6596
g5
(g6
g7
(lp6597
Vteased
p6598
atp6599
Rp6600
(dp6601
g16
VVBN
p6602
sbag5
(g6
g7
(lp6603
g5
(g6
g7
(lp6604
Vout
p6605
atp6606
Rp6607
(dp6608
g16
VRP
p6609
sbatp6610
Rp6611
(dp6612
g16
VPRT
p6613
sbag5
(g6
g7
(lp6614
g5
(g6
g7
(lp6615
Vfrom
p6616
atp6617
Rp6618
(dp6619
g16
VIN
p6620
sbag5
(g6
g7
(lp6621
g5
(g6
g7
(lp6622
g969
atp6623
Rp6624
(dp6625
g16
VDT
p6626
sbag5
(g6
g7
(lp6627
Vbackground
p6628
atp6629
Rp6630
(dp6631
g16
VNN
p6632
sbag5
(g6
g7
(lp6633
Vpopulation
p6634
atp6635
Rp6636
(dp6637
g16
VNN
p6638
sbatp6639
Rp6640
(dp6641
g16
VNP
p6642
sbatp6643
Rp6644
(dp6645
g16
VPP
p6646
sbag5
(g6
g7
(lp6647
g5
(g6
g7
(lp6648
Vby
p6649
atp6650
Rp6651
(dp6652
g16
VIN
p6653
sbag5
(g6
g7
(lp6654
g5
(g6
g7
(lp6655
g5
(g6
g7
(lp6656
Vfocussing
p6657
atp6658
Rp6659
(dp6660
g16
VVBG
p6661
sbag5
(g6
g7
(lp6662
g5
(g6
g7
(lp6663
Von
p6664
atp6665
Rp6666
(dp6667
g16
VIN
p6668
sbag5
(g6
g7
(lp6669
g5
(g6
g7
(lp6670
g5
(g6
g7
(lp6671
Vlanguage
p6672
atp6673
Rp6674
(dp6675
g16
VNN
p6676
sbatp6677
Rp6678
(dp6679
g16
VNP
p6680
sbag5
(g6
g7
(lp6681
g5
(g6
g7
(lp6682
g5
(g6
g7
(lp6683
Vthat
p6684
atp6685
Rp6686
(dp6687
g16
VWDT
p6688
sbatp6689
Rp6690
(dp6691
g16
VWHNP
p6692
sbag5
(g6
g7
(lp6693
g5
(g6
g7
(lp6694
g5
(g6
g7
(lp6695
Vfollows
p6696
atp6697
Rp6698
(dp6699
g16
VVBZ
p6700
sbag5
(g6
g7
(lp6701
g5
(g6
g7
(lp6702
Vexpected
p6703
atp6704
Rp6705
(dp6706
g16
VVBN
p6707
sbag5
(g6
g7
(lp6708
Vuse
p6709
atp6710
Rp6711
(dp6712
g16
VNN
p6713
sbag5
(g6
g7
(lp6714
Vpatterns
p6715
atp6716
Rp6717
(dp6718
g16
VNNS
p6719
sbatp6720
Rp6721
(dp6722
g16
VNP
p6723
sbatp6724
Rp6725
(dp6726
g16
VVP
p6727
sbatp6728
Rp6729
(dp6730
g16
g249
sbatp6731
Rp6732
(dp6733
g16
VSBAR
p6734
sbatp6735
Rp6736
(dp6737
g16
VNP
p6738
sbatp6739
Rp6740
(dp6741
g16
VPP
p6742
sbatp6743
Rp6744
(dp6745
g16
VVP
p6746
sbatp6747
Rp6748
(dp6749
g16
g249
sbatp6750
Rp6751
(dp6752
g16
VPP
p6753
sbatp6754
Rp6755
(dp6756
g16
VVP
p6757
sbatp6758
Rp6759
(dp6760
g16
VVP
p6761
sbatp6762
Rp6763
(dp6764
g16
VVP
p6765
sbatp6766
Rp6767
(dp6768
g16
g249
sbatp6769
Rp6770
(dp6771
g16
VSBAR
p6772
sbatp6773
Rp6774
(dp6775
g16
VVP
p6776
sbatp6777
Rp6778
(dp6779
g16
g249
sbatp6780
Rp6781
(dp6782
g16
VROOT
p6783
sbasg366
(icmyPackage
CorE
p6784
(dp6785
g369
(lp6786
(I0
I17
tp6787
a(I0
I24
tp6788
asg373
g6748
sbsg374
(icmyPackage
CorE
p6789
(dp6790
g369
(lp6791
(I0
I0
tp6792
a(I0
I15
tp6793
asg373
g5
(g6
g7
(lp6794
g6526
ag6533
ag6579
ag6586
ag6593
ag6600
ag6611
ag6644
atp6795
Rp6796
(dp6797
g16
g384
sbsbsg385
g2691
sg406
(lp6798
(isxpPackage
sxpSent
p6799
(dp6800
g410
(lp6801
I16
asg412
VThese results qualitatively suggest many roles under consideration may be teased out from a background population by focussing on language that follows expected use patterns
p6802
sg414
I5
sg399
I52
sg415
I14
sbasba(icmyPackage
CELink
p6803
(dp6804
g3
(lp6805
g5
(g6
g7
(lp6806
g5
(g6
g7
(lp6807
g5
(g6
g7
(lp6808
g5
(g6
g7
(lp6809
g5
(g6
g7
(lp6810
VBergsma
p6811
atp6812
Rp6813
(dp6814
g16
VNNP
p6815
sbag5
(g6
g7
(lp6816
Vand
p6817
atp6818
Rp6819
(dp6820
g16
VCC
p6821
sbag5
(g6
g7
(lp6822
VVan
p6823
atp6824
Rp6825
(dp6826
g16
VNNP
p6827
sbag5
(g6
g7
(lp6828
VDurme
p6829
atp6830
Rp6831
(dp6832
g16
VNNP
p6833
sbatp6834
Rp6835
(dp6836
g16
VNP
p6837
sbag5
(g6
g7
(lp6838
g5
(g6
g7
(lp6839
V-LRB-
p6840
atp6841
Rp6842
(dp6843
g16
V-LRB-
p6844
sbag5
(g6
g7
(lp6845
g5
(g6
g7
(lp6846
V2013
p6847
atp6848
Rp6849
(dp6850
g16
VCD
p6851
sbatp6852
Rp6853
(dp6854
g16
VNP
p6855
sbag5
(g6
g7
(lp6856
V-RRB-
p6857
atp6858
Rp6859
(dp6860
g16
V-RRB-
p6861
sbatp6862
Rp6863
(dp6864
g16
VPRN
p6865
sbatp6866
Rp6867
(dp6868
g16
VNP
p6869
sbag5
(g6
g7
(lp6870
g5
(g6
g7
(lp6871
Vshowed
p6872
atp6873
Rp6874
(dp6875
g16
VVBD
p6876
sbag5
(g6
g7
(lp6877
g5
(g6
g7
(lp6878
Vthat
p6879
atp6880
Rp6881
(dp6882
g16
VIN
p6883
sbag5
(g6
g7
(lp6884
g5
(g6
g7
(lp6885
g5
(g6
g7
(lp6886
g5
(g6
g7
(lp6887
Vthe
p6888
atp6889
Rp6890
(dp6891
g16
VDT
p6892
sbag5
(g6
g7
(lp6893
Vtask
p6894
atp6895
Rp6896
(dp6897
g16
VNN
p6898
sbatp6899
Rp6900
(dp6901
g16
VNP
p6902
sbag5
(g6
g7
(lp6903
g5
(g6
g7
(lp6904
Vof
p6905
atp6906
Rp6907
(dp6908
g16
VIN
p6909
sbag5
(g6
g7
(lp6910
g5
(g6
g7
(lp6911
g5
(g6
g7
(lp6912
Vmining
p6913
atp6914
Rp6915
(dp6916
g16
VNN
p6917
sbag5
(g6
g7
(lp6918
Vattributes
p6919
atp6920
Rp6921
(dp6922
g16
VNNS
p6923
sbatp6924
Rp6925
(dp6926
g16
VNP
p6927
sbag5
(g6
g7
(lp6928
g5
(g6
g7
(lp6929
Vfor
p6930
atp6931
Rp6932
(dp6933
g16
VIN
p6934
sbag5
(g6
g7
(lp6935
g5
(g6
g7
(lp6936
Vconceptual
p6937
atp6938
Rp6939
(dp6940
g16
VJJ
p6941
sbag5
(g6
g7
(lp6942
Vclasses
p6943
atp6944
Rp6945
(dp6946
g16
VNNS
p6947
sbatp6948
Rp6949
(dp6950
g16
VNP
p6951
sbatp6952
Rp6953
(dp6954
g16
VPP
p6955
sbatp6956
Rp6957
(dp6958
g16
VNP
p6959
sbatp6960
Rp6961
(dp6962
g16
VPP
p6963
sbatp6964
Rp6965
(dp6966
g16
VNP
p6967
sbag5
(g6
g7
(lp6968
g5
(g6
g7
(lp6969
Vcan
p6970
atp6971
Rp6972
(dp6973
g16
VMD
p6974
sbag5
(g6
g7
(lp6975
g5
(g6
g7
(lp6976
Vrelate
p6977
atp6978
Rp6979
(dp6980
g16
VVB
p6981
sbag5
(g6
g7
(lp6982
g5
(g6
g7
(lp6983
Vstraightforwardly
p6984
atp6985
Rp6986
(dp6987
g16
VRB
p6988
sbatp6989
Rp6990
(dp6991
g16
VADVP
p6992
sbag5
(g6
g7
(lp6993
g5
(g6
g7
(lp6994
Vto
p6995
atp6996
Rp6997
(dp6998
g16
VTO
p6999
sbag5
(g6
g7
(lp7000
g5
(g6
g7
(lp7001
Vauthor
p7002
atp7003
Rp7004
(dp7005
g16
VNN
p7006
sbag5
(g6
g7
(lp7007
Vattribute
p7008
atp7009
Rp7010
(dp7011
g16
VNN
p7012
sbag5
(g6
g7
(lp7013
Vprediction
p7014
atp7015
Rp7016
(dp7017
g16
VNN
p7018
sbatp7019
Rp7020
(dp7021
g16
VNP
p7022
sbatp7023
Rp7024
(dp7025
g16
VPP
p7026
sbatp7027
Rp7028
(dp7029
g16
VVP
p7030
sbatp7031
Rp7032
(dp7033
g16
VVP
p7034
sbatp7035
Rp7036
(dp7037
g16
g249
sbatp7038
Rp7039
(dp7040
g16
VSBAR
p7041
sbatp7042
Rp7043
(dp7044
g16
VVP
p7045
sbatp7046
Rp7047
(dp7048
g16
g249
sbatp7049
Rp7050
(dp7051
g16
VROOT
p7052
sbag5
(g6
g7
(lp7053
g5
(g6
g7
(lp7054
g5
(g6
g7
(lp7055
g5
(g6
g7
(lp7056
VIf
p7057
atp7058
Rp7059
(dp7060
g16
VIN
p7061
sbag5
(g6
g7
(lp7062
g5
(g6
g7
(lp7063
g5
(g6
g7
(lp7064
Vone
p7065
atp7066
Rp7067
(dp7068
g16
VPRP
p7069
sbatp7070
Rp7071
(dp7072
g16
VNP
p7073
sbag5
(g6
g7
(lp7074
g5
(g6
g7
(lp7075
Vviews
p7076
atp7077
Rp7078
(dp7079
g16
VVBZ
p7080
sbag5
(g6
g7
(lp7081
g5
(g6
g7
(lp7082
g969
atp7083
Rp7084
(dp7085
g16
VDT
p7086
sbag5
(g6
g7
(lp7087
Vrole
p7088
atp7089
Rp7090
(dp7091
g16
VNN
p7092
sbatp7093
Rp7094
(dp7095
g16
VNP
p7096
sbatp7097
Rp7098
(dp7099
g16
VVP
p7100
sbatp7101
Rp7102
(dp7103
g16
g249
sbatp7104
Rp7105
(dp7106
g16
VSBAR
p7107
sbag5
(g6
g7
(lp7108
g73
atp7109
Rp7110
(dp7111
g16
g73
sbag5
(g6
g7
(lp7112
g5
(g6
g7
(lp7113
Vin
p7114
atp7115
Rp7116
(dp7117
g16
VIN
p7118
sbag5
(g6
g7
(lp7119
g5
(g6
g7
(lp7120
Vtheir
p7121
atp7122
Rp7123
(dp7124
g16
VPRP$
p7125
sbag5
(g6
g7
(lp7126
Vcase
p7127
atp7128
Rp7129
(dp7130
g16
VNN
p7131
sbag5
(g6
g7
(lp7132
Vgender
p7133
atp7134
Rp7135
(dp7136
g16
VNN
p7137
sbatp7138
Rp7139
(dp7140
g16
VNP
p7141
sbatp7142
Rp7143
(dp7144
g16
VPP
p7145
sbag5
(g6
g7
(lp7146
g73
atp7147
Rp7148
(dp7149
g16
g73
sbag5
(g6
g7
(lp7150
g5
(g6
g7
(lp7151
Vas
p7152
atp7153
Rp7154
(dp7155
g16
VIN
p7156
sbag5
(g6
g7
(lp7157
g5
(g6
g7
(lp7158
g5
(g6
g7
(lp7159
g5
(g6
g7
(lp7160
g5
(g6
g7
(lp7161
Vtwo
p7162
atp7163
Rp7164
(dp7165
g16
VCD
p7166
sbag5
(g6
g7
(lp7167
Vconceptual
p7168
atp7169
Rp7170
(dp7171
g16
VJJ
p7172
sbag5
(g6
g7
(lp7173
Vclasses
p7174
atp7175
Rp7176
(dp7177
g16
VNNS
p7178
sbatp7179
Rp7180
(dp7181
g16
VNP
p7182
sbag5
(g6
g7
(lp7183
g73
atp7184
Rp7185
(dp7186
g16
g73
sbag5
(g6
g7
(lp7187
g5
(g6
g7
(lp7188
Vmale
p7189
atp7190
Rp7191
(dp7192
g16
VNN
p7193
sbag5
(g6
g7
(lp7194
Vand
p7195
atp7196
Rp7197
(dp7198
g16
VCC
p7199
sbag5
(g6
g7
(lp7200
Vfemale
p7201
atp7202
Rp7203
(dp7204
g16
VJJ
p7205
sbatp7206
Rp7207
(dp7208
g16
VADJP
p7209
sbatp7210
Rp7211
(dp7212
g16
VNP
p7213
sbag5
(g6
g7
(lp7214
g5
(g6
g7
(lp7215
g73
atp7216
Rp7217
(dp7218
g16
g73
sbag5
(g6
g7
(lp7219
g5
(g6
g7
(lp7220
Vthen
p7221
atp7222
Rp7223
(dp7224
g16
VRB
p7225
sbatp7226
Rp7227
(dp7228
g16
VADVP
p7229
sbag5
(g6
g7
(lp7230
g5
(g6
g7
(lp7231
g5
(g6
g7
(lp7232
g5
(g6
g7
(lp7233
g5
(g6
g7
(lp7234
Vexisting
p7235
atp7236
Rp7237
(dp7238
g16
VJJ
p7239
sbag5
(g6
g7
(lp7240
Vattribute
p7241
atp7242
Rp7243
(dp7244
g16
VNN
p7245
sbag5
(g6
g7
(lp7246
Vextraction
p7247
atp7248
Rp7249
(dp7250
g16
VNN
p7251
sbag5
(g6
g7
(lp7252
Vmethods
p7253
atp7254
Rp7255
(dp7256
g16
VNNS
p7257
sbatp7258
Rp7259
(dp7260
g16
VNP
p7261
sbag5
(g6
g7
(lp7262
g5
(g6
g7
(lp7263
Vfor
p7264
atp7265
Rp7266
(dp7267
g16
VIN
p7268
sbag5
(g6
g7
(lp7269
g5
(g6
g7
(lp7270
Vthird-person
p7271
atp7272
Rp7273
(dp7274
g16
VJJ
p7275
sbag5
(g6
g7
(lp7276
Vcontent
p7277
atp7278
Rp7279
(dp7280
g16
VNN
p7281
sbatp7282
Rp7283
(dp7284
g16
VNP
p7285
sbatp7286
Rp7287
(dp7288
g16
VPP
p7289
sbatp7290
Rp7291
(dp7292
g16
VNP
p7293
sbag5
(g6
g7
(lp7294
V-LRB-
p7295
atp7296
Rp7297
(dp7298
g16
V-LRB-
p7299
sbag5
(g6
g7
(lp7300
g5
(g6
g7
(lp7301
Ve.g.
p7302
atp7303
Rp7304
(dp7305
g16
VNNP
p7306
sbatp7307
Rp7308
(dp7309
g16
VNP
p7310
sbag5
(g6
g7
(lp7311
g73
atp7312
Rp7313
(dp7314
g16
g73
sbatp7315
Rp7316
(dp7317
g16
VNP
p7318
sbag5
(g6
g7
(lp7319
g73
atp7320
Rp7321
(dp7322
g16
g73
sbag5
(g6
g7
(lp7323
g5
(g6
g7
(lp7324
Vnews
p7325
atp7326
Rp7327
(dp7328
g16
VNN
p7329
sbag5
(g6
g7
(lp7330
Varticles
p7331
atp7332
Rp7333
(dp7334
g16
VNNS
p7335
sbatp7336
Rp7337
(dp7338
g16
VNP
p7339
sbatp7340
Rp7341
(dp7342
g16
VNP
p7343
sbag5
(g6
g7
(lp7344
V-RRB-
p7345
atp7346
Rp7347
(dp7348
g16
V-RRB-
p7349
sbatp7350
Rp7351
(dp7352
g16
VPRN
p7353
sbatp7354
Rp7355
(dp7356
g16
VNP
p7357
sbag5
(g6
g7
(lp7358
g5
(g6
g7
(lp7359
Vcan
p7360
atp7361
Rp7362
(dp7363
g16
VMD
p7364
sbag5
(g6
g7
(lp7365
g5
(g6
g7
(lp7366
Vbe
p7367
atp7368
Rp7369
(dp7370
g16
VVB
p7371
sbag5
(g6
g7
(lp7372
g5
(g6
g7
(lp7373
g5
(g6
g7
(lp7374
Vcheaply
p7375
atp7376
Rp7377
(dp7378
g16
VRB
p7379
sbatp7380
Rp7381
(dp7382
g16
VADVP
p7383
sbag5
(g6
g7
(lp7384
Vused
p7385
atp7386
Rp7387
(dp7388
g16
VVBN
p7389
sbag5
(g6
g7
(lp7390
g5
(g6
g7
(lp7391
g5
(g6
g7
(lp7392
Vto
p7393
atp7394
Rp7395
(dp7396
g16
VTO
p7397
sbag5
(g6
g7
(lp7398
g5
(g6
g7
(lp7399
Vcreate
p7400
atp7401
Rp7402
(dp7403
g16
VVB
p7404
sbag5
(g6
g7
(lp7405
g5
(g6
g7
(lp7406
g5
(g6
g7
(lp7407
g969
atp7408
Rp7409
(dp7410
g16
VDT
p7411
sbag5
(g6
g7
(lp7412
Vset
p7413
atp7414
Rp7415
(dp7416
g16
VNN
p7417
sbatp7418
Rp7419
(dp7420
g16
VNP
p7421
sbag5
(g6
g7
(lp7422
g5
(g6
g7
(lp7423
Vof
p7424
atp7425
Rp7426
(dp7427
g16
VIN
p7428
sbag5
(g6
g7
(lp7429
g5
(g6
g7
(lp7430
g5
(g6
g7
(lp7431
Vbootstrapping
p7432
atp7433
Rp7434
(dp7435
g16
VVBG
p7436
sbag5
(g6
g7
(lp7437
Vfeatures
p7438
atp7439
Rp7440
(dp7441
g16
VNNS
p7442
sbatp7443
Rp7444
(dp7445
g16
VNP
p7446
sbag5
(g6
g7
(lp7447
g5
(g6
g7
(lp7448
Vfor
p7449
atp7450
Rp7451
(dp7452
g16
VIN
p7453
sbag5
(g6
g7
(lp7454
g5
(g6
g7
(lp7455
g5
(g6
g7
(lp7456
g5
(g6
g7
(lp7457
Vbuilding
p7458
atp7459
Rp7460
(dp7461
g16
VNN
p7462
sbag5
(g6
g7
(lp7463
Vclassifiers
p7464
atp7465
Rp7466
(dp7467
g16
VNNS
p7468
sbatp7469
Rp7470
(dp7471
g16
VNP
p7472
sbag5
(g6
g7
(lp7473
g5
(g6
g7
(lp7474
Vover
p7475
atp7476
Rp7477
(dp7478
g16
VIN
p7479
sbag5
(g6
g7
(lp7480
g5
(g6
g7
(lp7481
Vfirst-person
p7482
atp7483
Rp7484
(dp7485
g16
VNN
p7486
sbag5
(g6
g7
(lp7487
Vcontent
p7488
atp7489
Rp7490
(dp7491
g16
VNN
p7492
sbatp7493
Rp7494
(dp7495
g16
VNP
p7496
sbatp7497
Rp7498
(dp7499
g16
VPP
p7500
sbatp7501
Rp7502
(dp7503
g16
VNP
p7504
sbag5
(g6
g7
(lp7505
V-LRB-
p7506
atp7507
Rp7508
(dp7509
g16
V-LRB-
p7510
sbag5
(g6
g7
(lp7511
g5
(g6
g7
(lp7512
Ve.g.
p7513
atp7514
Rp7515
(dp7516
g16
VNNP
p7517
sbatp7518
Rp7519
(dp7520
g16
VNP
p7521
sbag5
(g6
g7
(lp7522
g73
atp7523
Rp7524
(dp7525
g16
g73
sbatp7526
Rp7527
(dp7528
g16
VNP
p7529
sbatp7530
Rp7531
(dp7532
g16
VPP
p7533
sbatp7534
Rp7535
(dp7536
g16
VNP
p7537
sbatp7538
Rp7539
(dp7540
g16
VPP
p7541
sbatp7542
Rp7543
(dp7544
g16
VNP
p7545
sbatp7546
Rp7547
(dp7548
g16
VVP
p7549
sbatp7550
Rp7551
(dp7552
g16
VVP
p7553
sbatp7554
Rp7555
(dp7556
g16
g249
sbatp7557
Rp7558
(dp7559
g16
VVP
p7560
sbatp7561
Rp7562
(dp7563
g16
VVP
p7564
sbatp7565
Rp7566
(dp7567
g16
VVP
p7568
sbatp7569
Rp7570
(dp7571
g16
g249
sbatp7572
Rp7573
(dp7574
g16
VSBAR
p7575
sbag5
(g6
g7
(lp7576
g73
atp7577
Rp7578
(dp7579
g16
g73
sbag5
(g6
g7
(lp7580
g5
(g6
g7
(lp7581
Vtweets
p7582
atp7583
Rp7584
(dp7585
g16
VVBZ
p7586
sbatp7587
Rp7588
(dp7589
g16
VVP
p7590
sbatp7591
Rp7592
(dp7593
g16
g249
sbatp7594
Rp7595
(dp7596
g16
VROOT
p7597
sbasg366
(icmyPackage
CorE
p7598
(dp7599
g369
(lp7600
(I1
I12
tp7601
a(I1
I56
tp7602
asg373
g5
(g6
g7
(lp7603
g7570
ag7578
ag7588
atp7604
Rp7605
(dp7606
g16
g384
sbsbsg374
(icmyPackage
CorE
p7607
(dp7608
g369
(lp7609
(I0
I2
tp7610
a(I1
I9
tp7611
asg373
g5
(g6
g7
(lp7612
g6825
ag6831
ag6863
ag7043
ag7105
ag7110
ag7143
atp7613
Rp7614
(dp7615
g16
g384
sbsbsg385
g2084
sg406
(lp7616
(isxpPackage
sxpSent
p7617
(dp7618
g410
(lp7619
I17
asg412
VBergsma and Van Durme ( 2013 ) showed that the task of mining attributes for conceptual classes can relate straightforwardly to author attribute prediction
p7620
sg414
I7
sg399
I54
sg415
I15
sba(isxpPackage
sxpSent
p7621
(dp7622
g410
(lp7623
I17
asg412
VIf one views a role, in their case gender, as two conceptual classes, male and female , then existing attribute extraction methods for third-person content (e.g.,, news articles) can be cheaply used to create a set of bootstrapping features for building classifiers over first-person content (e.g.,, tweets
p7624
sg414
I7
sg399
I55
sg415
I15
sbasba(icmyPackage
CELink
p7625
(dp7626
g3
(lp7627
g5
(g6
g7
(lp7628
g5
(g6
g7
(lp7629
g5
(g6
g7
(lp7630
g5
(g6
g7
(lp7631
VFor
p7632
atp7633
Rp7634
(dp7635
g16
VIN
p7636
sbag5
(g6
g7
(lp7637
g5
(g6
g7
(lp7638
Vexample
p7639
atp7640
Rp7641
(dp7642
g16
VNN
p7643
sbatp7644
Rp7645
(dp7646
g16
VNP
p7647
sbatp7648
Rp7649
(dp7650
g16
VPP
p7651
sbag5
(g6
g7
(lp7652
g73
atp7653
Rp7654
(dp7655
g16
g73
sbag5
(g6
g7
(lp7656
g5
(g6
g7
(lp7657
Vif
p7658
atp7659
Rp7660
(dp7661
g16
VIN
p7662
sbag5
(g6
g7
(lp7663
g5
(g6
g7
(lp7664
g5
(g6
g7
(lp7665
Vwe
p7666
atp7667
Rp7668
(dp7669
g16
VPRP
p7670
sbatp7671
Rp7672
(dp7673
g16
VNP
p7674
sbag5
(g6
g7
(lp7675
g5
(g6
g7
(lp7676
Vlearn
p7677
atp7678
Rp7679
(dp7680
g16
VVBP
p7681
sbag5
(g6
g7
(lp7682
g5
(g6
g7
(lp7683
Vfrom
p7684
atp7685
Rp7686
(dp7687
g16
VIN
p7688
sbag5
(g6
g7
(lp7689
g5
(g6
g7
(lp7690
Vnews
p7691
atp7692
Rp7693
(dp7694
g16
VNN
p7695
sbag5
(g6
g7
(lp7696
Vcorpora
p7697
atp7698
Rp7699
(dp7700
g16
VNN
p7701
sbatp7702
Rp7703
(dp7704
g16
VNP
p7705
sbatp7706
Rp7707
(dp7708
g16
VPP
p7709
sbag5
(g6
g7
(lp7710
g5
(g6
g7
(lp7711
Vthat
p7712
atp7713
Rp7714
(dp7715
g16
VIN
p7716
sbag5
(g6
g7
(lp7717
g5
(g6
g7
(lp7718
g5
(g6
g7
(lp7719
g969
atp7720
Rp7721
(dp7722
g16
VDT
p7723
sbag5
(g6
g7
(lp7724
Vman
p7725
atp7726
Rp7727
(dp7728
g16
VNN
p7729
sbatp7730
Rp7731
(dp7732
g16
VNP
p7733
sbag5
(g6
g7
(lp7734
g5
(g6
g7
(lp7735
Vmay
p7736
atp7737
Rp7738
(dp7739
g16
VMD
p7740
sbag5
(g6
g7
(lp7741
g5
(g6
g7
(lp7742
Vhave
p7743
atp7744
Rp7745
(dp7746
g16
VVB
p7747
sbag5
(g6
g7
(lp7748
g5
(g6
g7
(lp7749
g969
atp7750
Rp7751
(dp7752
g16
VDT
p7753
sbag5
(g6
g7
(lp7754
Vwife
p7755
atp7756
Rp7757
(dp7758
g16
VNN
p7759
sbatp7760
Rp7761
(dp7762
g16
VNP
p7763
sbatp7764
Rp7765
(dp7766
g16
VVP
p7767
sbatp7768
Rp7769
(dp7770
g16
VVP
p7771
sbatp7772
Rp7773
(dp7774
g16
g249
sbatp7775
Rp7776
(dp7777
g16
VSBAR
p7778
sbatp7779
Rp7780
(dp7781
g16
VVP
p7782
sbatp7783
Rp7784
(dp7785
g16
g249
sbatp7786
Rp7787
(dp7788
g16
VSBAR
p7789
sbag5
(g6
g7
(lp7790
g73
atp7791
Rp7792
(dp7793
g16
g73
sbag5
(g6
g7
(lp7794
g5
(g6
g7
(lp7795
g5
(g6
g7
(lp7796
Vthen
p7797
atp7798
Rp7799
(dp7800
g16
VRB
p7801
sbag5
(g6
g7
(lp7802
g969
atp7803
Rp7804
(dp7805
g16
VDT
p7806
sbag5
(g6
g7
(lp7807
Vtweet
p7808
atp7809
Rp7810
(dp7811
g16
VNN
p7812
sbatp7813
Rp7814
(dp7815
g16
VNP
p7816
sbag5
(g6
g7
(lp7817
g5
(g6
g7
(lp7818
Vsaying
p7819
atp7820
Rp7821
(dp7822
g16
VVBG
p7823
sbag5
(g6
g7
(lp7824
g5
(g6
g7
(lp7825
g1372
atp7826
Rp7827
(dp7828
g16
VVBP
p7829
sbag5
(g6
g7
(lp7830
g1378
atp7831
Rp7832
(dp7833
g16
V``
p7834
sbag5
(g6
g7
(lp7835
g5
(g6
g7
(lp7836
g5
(g6
g7
(lp7837
V\u005c
p7838
atp7839
Rp7840
(dp7841
g16
VNNP
p7842
sbag5
(g6
g7
(lp7843
Vu2026
p7844
atp7845
Rp7846
(dp7847
g16
VNNP
p7848
sbag5
(g6
g7
(lp7849
g1378
atp7850
Rp7851
(dp7852
g16
VPOS
p7853
sbatp7854
Rp7855
(dp7856
g16
VNP
p7857
sbag5
(g6
g7
(lp7858
g5
(g6
g7
(lp7859
Vmy
p7860
atp7861
Rp7862
(dp7863
g16
VPRP$
p7864
sbag5
(g6
g7
(lp7865
Vwife
p7866
atp7867
Rp7868
(dp7869
g16
VNN
p7870
sbag5
(g6
g7
(lp7871
g1372
atp7872
Rp7873
(dp7874
g16
VNN
p7875
sbag5
(g6
g7
(lp7876
g1378
atp7877
Rp7878
(dp7879
g16
VPOS
p7880
sbatp7881
Rp7882
(dp7883
g16
VNP
p7884
sbag5
(g6
g7
(lp7885
V\u005c
p7886
atp7887
Rp7888
(dp7889
g16
VNN
p7890
sbag5
(g6
g7
(lp7891
Vu2026
p7892
atp7893
Rp7894
(dp7895
g16
VNNS
p7896
sbatp7897
Rp7898
(dp7899
g16
VNP
p7900
sbag5
(g6
g7
(lp7901
g1378
atp7902
Rp7903
(dp7904
g16
V''
p7905
sbatp7906
Rp7907
(dp7908
g16
VVP
p7909
sbatp7910
Rp7911
(dp7912
g16
VVP
p7913
sbatp7914
Rp7915
(dp7916
g16
VNP
p7917
sbag5
(g6
g7
(lp7918
g5
(g6
g7
(lp7919
Vcan
p7920
atp7921
Rp7922
(dp7923
g16
VMD
p7924
sbag5
(g6
g7
(lp7925
g5
(g6
g7
(lp7926
Vbe
p7927
atp7928
Rp7929
(dp7930
g16
VVB
p7931
sbag5
(g6
g7
(lp7932
g5
(g6
g7
(lp7933
Vtaken
p7934
atp7935
Rp7936
(dp7937
g16
VVBN
p7938
sbag5
(g6
g7
(lp7939
g5
(g6
g7
(lp7940
Vas
p7941
atp7942
Rp7943
(dp7944
g16
VIN
p7945
sbag5
(g6
g7
(lp7946
g5
(g6
g7
(lp7947
g5
(g6
g7
(lp7948
Vpotential
p7949
atp7950
Rp7951
(dp7952
g16
VJJ
p7953
sbag5
(g6
g7
(lp7954
Vevidence
p7955
atp7956
Rp7957
(dp7958
g16
VNN
p7959
sbatp7960
Rp7961
(dp7962
g16
VNP
p7963
sbag5
(g6
g7
(lp7964
g5
(g6
g7
(lp7965
Vof
p7966
atp7967
Rp7968
(dp7969
g16
VIN
p7970
sbag5
(g6
g7
(lp7971
g5
(g6
g7
(lp7972
Vmembership
p7973
atp7974
Rp7975
(dp7976
g16
VNN
p7977
sbatp7978
Rp7979
(dp7980
g16
VNP
p7981
sbatp7982
Rp7983
(dp7984
g16
VPP
p7985
sbatp7986
Rp7987
(dp7988
g16
VNP
p7989
sbatp7990
Rp7991
(dp7992
g16
VPP
p7993
sbag5
(g6
g7
(lp7994
g5
(g6
g7
(lp7995
Vin
p7996
atp7997
Rp7998
(dp7999
g16
VIN
p8000
sbag5
(g6
g7
(lp8001
g5
(g6
g7
(lp8002
Vthe
p8003
atp8004
Rp8005
(dp8006
g16
VDT
p8007
sbag5
(g6
g7
(lp8008
Vmale
p8009
atp8010
Rp8011
(dp8012
g16
VJJ
p8013
sbag5
(g6
g7
(lp8014
Vconceptual
p8015
atp8016
Rp8017
(dp8018
g16
VJJ
p8019
sbag5
(g6
g7
(lp8020
Vclass
p8021
atp8022
Rp8023
(dp8024
g16
VNN
p8025
sbatp8026
Rp8027
(dp8028
g16
VNP
p8029
sbatp8030
Rp8031
(dp8032
g16
VPP
p8033
sbatp8034
Rp8035
(dp8036
g16
VVP
p8037
sbatp8038
Rp8039
(dp8040
g16
VVP
p8041
sbatp8042
Rp8043
(dp8044
g16
VVP
p8045
sbatp8046
Rp8047
(dp8048
g16
g249
sbatp8049
Rp8050
(dp8051
g16
VROOT
p8052
sbag5
(g6
g7
(lp8053
g5
(g6
g7
(lp8054
g5
(g6
g7
(lp8055
g5
(g6
g7
(lp8056
VIn
p8057
atp8058
Rp8059
(dp8060
g16
VIN
p8061
sbag5
(g6
g7
(lp8062
g5
(g6
g7
(lp8063
Vour
p8064
atp8065
Rp8066
(dp8067
g16
VPRP$
p8068
sbag5
(g6
g7
(lp8069
Vsecond
p8070
atp8071
Rp8072
(dp8073
g16
VJJ
p8074
sbag5
(g6
g7
(lp8075
Vstudy
p8076
atp8077
Rp8078
(dp8079
g16
VNN
p8080
sbatp8081
Rp8082
(dp8083
g16
VNP
p8084
sbatp8085
Rp8086
(dp8087
g16
VPP
p8088
sbag5
(g6
g7
(lp8089
g73
atp8090
Rp8091
(dp8092
g16
g73
sbag5
(g6
g7
(lp8093
g5
(g6
g7
(lp8094
Vwe
p8095
atp8096
Rp8097
(dp8098
g16
VPRP
p8099
sbatp8100
Rp8101
(dp8102
g16
VNP
p8103
sbag5
(g6
g7
(lp8104
g5
(g6
g7
(lp8105
Vtest
p8106
atp8107
Rp8108
(dp8109
g16
VVBP
p8110
sbag5
(g6
g7
(lp8111
g5
(g6
g7
(lp8112
Vwhether
p8113
atp8114
Rp8115
(dp8116
g16
VIN
p8117
sbag5
(g6
g7
(lp8118
g5
(g6
g7
(lp8119
g5
(g6
g7
(lp8120
Vthis
p8121
atp8122
Rp8123
(dp8124
g16
VDT
p8125
sbag5
(g6
g7
(lp8126
Videa
p8127
atp8128
Rp8129
(dp8130
g16
VNN
p8131
sbatp8132
Rp8133
(dp8134
g16
VNP
p8135
sbag5
(g6
g7
(lp8136
g5
(g6
g7
(lp8137
Vextends
p8138
atp8139
Rp8140
(dp8141
g16
VVBZ
p8142
sbag5
(g6
g7
(lp8143
g5
(g6
g7
(lp8144
Vto
p8145
atp8146
Rp8147
(dp8148
g16
VTO
p8149
sbag5
(g6
g7
(lp8150
g5
(g6
g7
(lp8151
g5
(g6
g7
(lp8152
Vour
p8153
atp8154
Rp8155
(dp8156
g16
VPRP$
p8157
sbag5
(g6
g7
(lp8158
Vwider
p8159
atp8160
Rp8161
(dp8162
g16
VJJR
p8163
sbag5
(g6
g7
(lp8164
Vset
p8165
atp8166
Rp8167
(dp8168
g16
VNN
p8169
sbatp8170
Rp8171
(dp8172
g16
VNP
p8173
sbag5
(g6
g7
(lp8174
g5
(g6
g7
(lp8175
Vof
p8176
atp8177
Rp8178
(dp8179
g16
VIN
p8180
sbag5
(g6
g7
(lp8181
g5
(g6
g7
(lp8182
Vfine-grained
p8183
atp8184
Rp8185
(dp8186
g16
VJJ
p8187
sbag5
(g6
g7
(lp8188
Vroles
p8189
atp8190
Rp8191
(dp8192
g16
VNNS
p8193
sbatp8194
Rp8195
(dp8196
g16
VNP
p8197
sbatp8198
Rp8199
(dp8200
g16
VPP
p8201
sbatp8202
Rp8203
(dp8204
g16
VNP
p8205
sbatp8206
Rp8207
(dp8208
g16
VPP
p8209
sbatp8210
Rp8211
(dp8212
g16
VVP
p8213
sbatp8214
Rp8215
(dp8216
g16
g249
sbatp8217
Rp8218
(dp8219
g16
VSBAR
p8220
sbatp8221
Rp8222
(dp8223
g16
VVP
p8224
sbatp8225
Rp8226
(dp8227
g16
g249
sbatp8228
Rp8229
(dp8230
g16
VROOT
p8231
sbasg366
(icmyPackage
CorE
p8232
(dp8233
g369
(lp8234
(I0
I37
tp8235
a(I1
I16
tp8236
asg373
g5
(g6
g7
(lp8237
g7987
ag8031
ag8086
ag8091
ag8101
ag8108
ag8115
ag8133
ag8140
ag8147
ag8171
ag8178
ag8185
atp8238
Rp8239
(dp8240
g16
g384
sbsbsg374
(icmyPackage
CorE
p8241
(dp8242
g369
(lp8243
(I0
I0
tp8244
a(I0
I35
tp8245
asg373
g5
(g6
g7
(lp8246
g7649
ag7654
ag7787
ag7792
ag7915
ag7922
ag7929
ag7936
atp8247
Rp8248
(dp8249
g16
g384
sbsbsg385
g2084
sg406
(lp8250
(isxpPackage
sxpSent
p8251
(dp8252
g410
(lp8253
I18
asg412
VFor example, if we learn from news corpora that a man may have a wife , then a tweet saying u'\u005cu2026' my wife u'\u005cu2026' can be taken as potential evidence of membership in the male conceptual class
p8254
sg414
I7
sg399
I56
sg415
I15
sba(isxpPackage
sxpSent
p8255
(dp8256
g410
(lp8257
I18
asg412
VIn our second study, we test whether this idea extends to our wider set of fine-grained roles
p8258
sg414
I7
sg399
I57
sg415
I16
sbasba(icmyPackage
CELink
p8259
(dp8260
g3
(lp8261
g5
(g6
g7
(lp8262
g5
(g6
g7
(lp8263
g5
(g6
g7
(lp8264
g5
(g6
g7
(lp8265
VWe
p8266
atp8267
Rp8268
(dp8269
g16
VPRP
p8270
sbatp8271
Rp8272
(dp8273
g16
VNP
p8274
sbag5
(g6
g7
(lp8275
g5
(g6
g7
(lp8276
Vapproached
p8277
atp8278
Rp8279
(dp8280
g16
VVBD
p8281
sbag5
(g6
g7
(lp8282
g5
(g6
g7
(lp8283
Vthis
p8284
atp8285
Rp8286
(dp8287
g16
VDT
p8288
sbag5
(g6
g7
(lp8289
Vtask
p8290
atp8291
Rp8292
(dp8293
g16
VNN
p8294
sbatp8295
Rp8296
(dp8297
g16
VNP
p8298
sbag5
(g6
g7
(lp8299
g5
(g6
g7
(lp8300
Vby
p8301
atp8302
Rp8303
(dp8304
g16
VIN
p8305
sbag5
(g6
g7
(lp8306
g5
(g6
g7
(lp8307
g5
(g6
g7
(lp8308
g5
(g6
g7
(lp8309
Vselecting
p8310
atp8311
Rp8312
(dp8313
g16
VVBG
p8314
sbag5
(g6
g7
(lp8315
g5
(g6
g7
(lp8316
Vtarget
p8317
atp8318
Rp8319
(dp8320
g16
VNN
p8321
sbag5
(g6
g7
(lp8322
Vroles
p8323
atp8324
Rp8325
(dp8326
g16
VNNS
p8327
sbatp8328
Rp8329
(dp8330
g16
VNP
p8331
sbag5
(g6
g7
(lp8332
g5
(g6
g7
(lp8333
Vfrom
p8334
atp8335
Rp8336
(dp8337
g16
VIN
p8338
sbag5
(g6
g7
(lp8339
g5
(g6
g7
(lp8340
Vthe
p8341
atp8342
Rp8343
(dp8344
g16
VDT
p8345
sbag5
(g6
g7
(lp8346
Vfirst
p8347
atp8348
Rp8349
(dp8350
g16
VJJ
p8351
sbag5
(g6
g7
(lp8352
Vexperiment
p8353
atp8354
Rp8355
(dp8356
g16
VNN
p8357
sbatp8358
Rp8359
(dp8360
g16
VNP
p8361
sbatp8362
Rp8363
(dp8364
g16
VPP
p8365
sbatp8366
Rp8367
(dp8368
g16
VVP
p8369
sbag5
(g6
g7
(lp8370
Vand
p8371
atp8372
Rp8373
(dp8374
g16
VCC
p8375
sbag5
(g6
g7
(lp8376
g5
(g6
g7
(lp8377
Vranking
p8378
atp8379
Rp8380
(dp8381
g16
VVBG
p8382
sbag5
(g6
g7
(lp8383
g5
(g6
g7
(lp8384
Vcharacteristic
p8385
atp8386
Rp8387
(dp8388
g16
VJJ
p8389
sbag5
(g6
g7
(lp8390
Vattributes
p8391
atp8392
Rp8393
(dp8394
g16
VNNS
p8395
sbatp8396
Rp8397
(dp8398
g16
VNP
p8399
sbag5
(g6
g7
(lp8400
g5
(g6
g7
(lp8401
Vfor
p8402
atp8403
Rp8404
(dp8405
g16
VIN
p8406
sbag5
(g6
g7
(lp8407
g5
(g6
g7
(lp8408
g5
(g6
g7
(lp8409
Veach
p8410
atp8411
Rp8412
(dp8413
g16
VDT
p8414
sbatp8415
Rp8416
(dp8417
g16
VNP
p8418
sbag5
(g6
g7
(lp8419
g5
(g6
g7
(lp8420
Vusing
p8421
atp8422
Rp8423
(dp8424
g16
VVBG
p8425
sbag5
(g6
g7
(lp8426
g5
(g6
g7
(lp8427
g5
(g6
g7
(lp8428
Vpointwise
p8429
atp8430
Rp8431
(dp8432
g16
VJJ
p8433
sbag5
(g6
g7
(lp8434
Vmutual
p8435
atp8436
Rp8437
(dp8438
g16
VJJ
p8439
sbag5
(g6
g7
(lp8440
Vinformation
p8441
atp8442
Rp8443
(dp8444
g16
VNN
p8445
sbatp8446
Rp8447
(dp8448
g16
VNP
p8449
sbag5
(g6
g7
(lp8450
g5
(g6
g7
(lp8451
V-LRB-
p8452
atp8453
Rp8454
(dp8455
g16
V-LRB-
p8456
sbag5
(g6
g7
(lp8457
g5
(g6
g7
(lp8458
VPMI
p8459
atp8460
Rp8461
(dp8462
g16
VNNP
p8463
sbatp8464
Rp8465
(dp8466
g16
VNP
p8467
sbag5
(g6
g7
(lp8468
V-RRB-
p8469
atp8470
Rp8471
(dp8472
g16
V-RRB-
p8473
sbatp8474
Rp8475
(dp8476
g16
VPRN
p8477
sbatp8478
Rp8479
(dp8480
g16
VNP
p8481
sbatp8482
Rp8483
(dp8484
g16
VVP
p8485
sbatp8486
Rp8487
(dp8488
g16
g249
sbatp8489
Rp8490
(dp8491
g16
VPP
p8492
sbatp8493
Rp8494
(dp8495
g16
VVP
p8496
sbag5
(g6
g7
(lp8497
g5
(g6
g7
(lp8498
g5
(g6
g7
(lp8499
V-LSB-
p8500
atp8501
Rp8502
(dp8503
g16
VCD
p8504
sbag5
(g6
g7
(lp8505
V5
p8506
atp8507
Rp8508
(dp8509
g16
VCD
p8510
sbatp8511
Rp8512
(dp8513
g16
VQP
p8514
sbag5
(g6
g7
(lp8515
V-RSB-
p8516
atp8517
Rp8518
(dp8519
g16
VNNS
p8520
sbatp8521
Rp8522
(dp8523
g16
VNP
p8524
sbatp8525
Rp8526
(dp8527
g16
VVP
p8528
sbatp8529
Rp8530
(dp8531
g16
g249
sbatp8532
Rp8533
(dp8534
g16
VPP
p8535
sbatp8536
Rp8537
(dp8538
g16
VVP
p8539
sbatp8540
Rp8541
(dp8542
g16
g249
sbatp8543
Rp8544
(dp8545
g16
VROOT
p8546
sbasg366
(icmyPackage
CorE
p8547
(dp8548
g369
(lp8549
(I0
I5
tp8550
a(I0
I27
tp8551
asg373
g8530
sbsg374
(icmyPackage
CorE
p8552
(dp8553
g369
(lp8554
(I0
I0
tp8555
a(I0
I3
tp8556
asg373
g5
(g6
g7
(lp8557
g8272
ag8279
ag8296
atp8558
Rp8559
(dp8560
g16
g384
sbsbsg385
g2691
sg406
(lp8561
(isxpPackage
sxpSent
p8562
(dp8563
g410
(lp8564
I19
asg412
VWe approached this task by selecting target roles from the first experiment and ranking characteristic attributes for each using pointwise mutual information (PMI) [ 5 ]
p8565
sg414
I7
sg399
I59
sg415
I16
sbasba(icmyPackage
CELink
p8566
(dp8567
g3
(lp8568
g5
(g6
g7
(lp8569
g5
(g6
g7
(lp8570
g5
(g6
g7
(lp8571
g5
(g6
g7
(lp8572
VFirst
p8573
atp8574
Rp8575
(dp8576
g16
VRB
p8577
sbatp8578
Rp8579
(dp8580
g16
VADVP
p8581
sbag5
(g6
g7
(lp8582
g73
atp8583
Rp8584
(dp8585
g16
g73
sbag5
(g6
g7
(lp8586
g5
(g6
g7
(lp8587
Vwe
p8588
atp8589
Rp8590
(dp8591
g16
VPRP
p8592
sbatp8593
Rp8594
(dp8595
g16
VNP
p8596
sbag5
(g6
g7
(lp8597
g5
(g6
g7
(lp8598
Vcounted
p8599
atp8600
Rp8601
(dp8602
g16
VVBD
p8603
sbag5
(g6
g7
(lp8604
g5
(g6
g7
(lp8605
g5
(g6
g7
(lp8606
g5
(g6
g7
(lp8607
g5
(g6
g7
(lp8608
Vall
p8609
atp8610
Rp8611
(dp8612
g16
VDT
p8613
sbag5
(g6
g7
(lp8614
Vterms
p8615
atp8616
Rp8617
(dp8618
g16
VNNS
p8619
sbag5
(g6
g7
(lp8620
Vmatching
p8621
atp8622
Rp8623
(dp8624
g16
VNN
p8625
sbatp8626
Rp8627
(dp8628
g16
VNP
p8629
sbag5
(g6
g7
(lp8630
g5
(g6
g7
(lp8631
g969
atp8632
Rp8633
(dp8634
g16
VDT
p8635
sbag5
(g6
g7
(lp8636
Vtarget
p8637
atp8638
Rp8639
(dp8640
g16
VNN
p8641
sbatp8642
Rp8643
(dp8644
g16
VNP
p8645
sbatp8646
Rp8647
(dp8648
g16
VNP
p8649
sbag5
(g6
g7
(lp8650
g5
(g6
g7
(lp8651
g5
(g6
g7
(lp8652
Vsocial
p8653
atp8654
Rp8655
(dp8656
g16
VJJ
p8657
sbag5
(g6
g7
(lp8658
Vrole
p8659
atp8660
Rp8661
(dp8662
g16
VNN
p8663
sbag5
(g6
g7
(lp8664
g1372
atp8665
Rp8666
(dp8667
g16
VNN
p8668
sbag5
(g6
g7
(lp8669
g1378
atp8670
Rp8671
(dp8672
g16
VPOS
p8673
sbatp8674
Rp8675
(dp8676
g16
VNP
p8677
sbag5
(g6
g7
(lp8678
V\u005c
p8679
atp8680
Rp8681
(dp8682
g16
VJJ
p8683
sbag5
(g6
g7
(lp8684
Vu2019
p8685
atp8686
Rp8687
(dp8688
g16
VNNS
p8689
sbatp8690
Rp8691
(dp8692
g16
VNP
p8693
sbag5
(g6
g7
(lp8694
g1378
atp8695
Rp8696
(dp8697
g16
V''
p8698
sbag5
(g6
g7
(lp8699
g5
(g6
g7
(lp8700
Vs
p8701
atp8702
Rp8703
(dp8704
g16
VVBZ
p8705
sbag5
(g6
g7
(lp8706
g5
(g6
g7
(lp8707
g5
(g6
g7
(lp8708
Vpossessive
p8709
atp8710
Rp8711
(dp8712
g16
VJJ
p8713
sbag5
(g6
g7
(lp8714
Vpattern
p8715
atp8716
Rp8717
(dp8718
g16
VNN
p8719
sbatp8720
Rp8721
(dp8722
g16
VNP
p8723
sbag5
(g6
g7
(lp8724
g5
(g6
g7
(lp8725
V-LRB-
p8726
atp8727
Rp8728
(dp8729
g16
V-LRB-
p8730
sbag5
(g6
g7
(lp8731
g5
(g6
g7
(lp8732
g5
(g6
g7
(lp8733
Ve.g.
p8734
atp8735
Rp8736
(dp8737
g16
VNNP
p8738
sbag5
(g6
g7
(lp8739
g73
atp8740
Rp8741
(dp8742
g16
g73
sbatp8743
Rp8744
(dp8745
g16
VNP
p8746
sbag5
(g6
g7
(lp8747
g73
atp8748
Rp8749
(dp8750
g16
g73
sbag5
(g6
g7
(lp8751
g5
(g6
g7
(lp8752
Vdoctor
p8753
atp8754
Rp8755
(dp8756
g16
VNN
p8757
sbag5
(g6
g7
(lp8758
g1372
atp8759
Rp8760
(dp8761
g16
VNN
p8762
sbag5
(g6
g7
(lp8763
g1378
atp8764
Rp8765
(dp8766
g16
V''
p8767
sbag5
(g6
g7
(lp8768
V\u005c
p8769
atp8770
Rp8771
(dp8772
g16
VJJ
p8773
sbag5
(g6
g7
(lp8774
Vu2019
p8775
atp8776
Rp8777
(dp8778
g16
VNNS
p8779
sbatp8780
Rp8781
(dp8782
g16
VNP
p8783
sbag5
(g6
g7
(lp8784
g1378
atp8785
Rp8786
(dp8787
g16
V''
p8788
sbag5
(g6
g7
(lp8789
g5
(g6
g7
(lp8790
g8701
atp8791
Rp8792
(dp8793
g16
VVBZ
p8794
sbatp8795
Rp8796
(dp8797
g16
VVP
p8798
sbatp8799
Rp8800
(dp8801
g16
g249
sbag5
(g6
g7
(lp8802
V-RRB-
p8803
atp8804
Rp8805
(dp8806
g16
V-RRB-
p8807
sbatp8808
Rp8809
(dp8810
g16
VPRN
p8811
sbag5
(g6
g7
(lp8812
g5
(g6
g7
(lp8813
Vin
p8814
atp8815
Rp8816
(dp8817
g16
VIN
p8818
sbag5
(g6
g7
(lp8819
g5
(g6
g7
(lp8820
g5
(g6
g7
(lp8821
Vthe
p8822
atp8823
Rp8824
(dp8825
g16
VDT
p8826
sbag5
(g6
g7
(lp8827
Vweb-scale
p8828
atp8829
Rp8830
(dp8831
g16
VJJ
p8832
sbag5
(g6
g7
(lp8833
Vn-gram
p8834
atp8835
Rp8836
(dp8837
g16
VNN
p8838
sbag5
(g6
g7
(lp8839
Vcorpus
p8840
atp8841
Rp8842
(dp8843
g16
VNN
p8844
sbag5
(g6
g7
(lp8845
VGoogle
p8846
atp8847
Rp8848
(dp8849
g16
VNNP
p8850
sbag5
(g6
g7
(lp8851
VV2
p8852
atp8853
Rp8854
(dp8855
g16
VNNP
p8856
sbag5
(g6
g7
(lp8857
V-LSB-
p8858
atp8859
Rp8860
(dp8861
g16
VNNP
p8862
sbag5
(g6
g7
(lp8863
V13
p8864
atp8865
Rp8866
(dp8867
g16
VCD
p8868
sbag5
(g6
g7
(lp8869
V-RSB-
p8870
atp8871
Rp8872
(dp8873
g16
VNNS
p8874
sbag5
(g6
g7
(lp8875
g5
(g6
g7
(lp8876
g8506
atp8877
Rp8878
(dp8879
g16
VCD
p8880
sbag5
(g6
g7
(lp8881
g8506
atp8882
Rp8883
(dp8884
g16
VCD
p8885
sbatp8886
Rp8887
(dp8888
g16
VQP
p8889
sbatp8890
Rp8891
(dp8892
g16
VNP
p8893
sbag5
(g6
g7
(lp8894
g5
(g6
g7
(lp8895
g5
(g6
g7
(lp8896
g5
(g6
g7
(lp8897
VIn
p8898
atp8899
Rp8900
(dp8901
g16
VIN
p8902
sbag5
(g6
g7
(lp8903
g5
(g6
g7
(lp8904
Vthis
p8905
atp8906
Rp8907
(dp8908
g16
VDT
p8909
sbag5
(g6
g7
(lp8910
Vcorpus
p8911
atp8912
Rp8913
(dp8914
g16
VNN
p8915
sbatp8916
Rp8917
(dp8918
g16
VNP
p8919
sbatp8920
Rp8921
(dp8922
g16
VPP
p8923
sbag5
(g6
g7
(lp8924
g73
atp8925
Rp8926
(dp8927
g16
g73
sbag5
(g6
g7
(lp8928
g5
(g6
g7
(lp8929
g5
(g6
g7
(lp8930
Vfollower-type
p8931
atp8932
Rp8933
(dp8934
g16
VJJ
p8935
sbag5
(g6
g7
(lp8936
Vroles
p8937
atp8938
Rp8939
(dp8940
g16
VNNS
p8941
sbatp8942
Rp8943
(dp8944
g16
VNP
p8945
sbag5
(g6
g7
(lp8946
g5
(g6
g7
(lp8947
Vlike
p8948
atp8949
Rp8950
(dp8951
g16
VIN
p8952
sbag5
(g6
g7
(lp8953
g5
(g6
g7
(lp8954
Vbelieber
p8955
atp8956
Rp8957
(dp8958
g16
VNN
p8959
sbag5
(g6
g7
(lp8960
Vand
p8961
atp8962
Rp8963
(dp8964
g16
VCC
p8965
sbag5
(g6
g7
(lp8966
Vdirectioner
p8967
atp8968
Rp8969
(dp8970
g16
VNN
p8971
sbatp8972
Rp8973
(dp8974
g16
VNP
p8975
sbatp8976
Rp8977
(dp8978
g16
VPP
p8979
sbatp8980
Rp8981
(dp8982
g16
VNP
p8983
sbag5
(g6
g7
(lp8984
g5
(g6
g7
(lp8985
Vare
p8986
atp8987
Rp8988
(dp8989
g16
VVBP
p8990
sbag5
(g6
g7
(lp8991
Vnot
p8992
atp8993
Rp8994
(dp8995
g16
VRB
p8996
sbag5
(g6
g7
(lp8997
g5
(g6
g7
(lp8998
Vat
p8999
atp9000
Rp9001
(dp9002
g16
VIN
p9003
sbag5
(g6
g7
(lp9004
Vall
p9005
atp9006
Rp9007
(dp9008
g16
VDT
p9009
sbatp9010
Rp9011
(dp9012
g16
VADVP
p9013
sbag5
(g6
g7
(lp9014
g5
(g6
g7
(lp9015
Vprevalent
p9016
atp9017
Rp9018
(dp9019
g16
VJJ
p9020
sbatp9021
Rp9022
(dp9023
g16
VADJP
p9024
sbatp9025
Rp9026
(dp9027
g16
VVP
p9028
sbatp9029
Rp9030
(dp9031
g16
g249
sbatp9032
Rp9033
(dp9034
g16
VSBAR
p9035
sbatp9036
Rp9037
(dp9038
g16
VNP
p9039
sbatp9040
Rp9041
(dp9042
g16
VPP
p9043
sbatp9044
Rp9045
(dp9046
g16
VNP
p9047
sbatp9048
Rp9049
(dp9050
g16
VVP
p9051
sbatp9052
Rp9053
(dp9054
g16
g249
sbatp9055
Rp9056
(dp9057
g16
VSBAR
p9058
sbatp9059
Rp9060
(dp9061
g16
VVP
p9062
sbatp9063
Rp9064
(dp9065
g16
g249
sbatp9066
Rp9067
(dp9068
g16
VROOT
p9069
sbag5
(g6
g7
(lp9070
g5
(g6
g7
(lp9071
g5
(g6
g7
(lp9072
g5
(g6
g7
(lp9073
VWe
p9074
atp9075
Rp9076
(dp9077
g16
VPRP
p9078
sbatp9079
Rp9080
(dp9081
g16
VNP
p9082
sbag5
(g6
g7
(lp9083
g5
(g6
g7
(lp9084
g5
(g6
g7
(lp9085
Vtherefore
p9086
atp9087
Rp9088
(dp9089
g16
VRB
p9090
sbatp9091
Rp9092
(dp9093
g16
VADVP
p9094
sbag5
(g6
g7
(lp9095
Vfocused
p9096
atp9097
Rp9098
(dp9099
g16
VVBN
p9100
sbag5
(g6
g7
(lp9101
g5
(g6
g7
(lp9102
Von
p9103
atp9104
Rp9105
(dp9106
g16
VIN
p9107
sbag5
(g6
g7
(lp9108
g5
(g6
g7
(lp9109
g5
(g6
g7
(lp9110
g5
(g6
g7
(lp9111
g5
(g6
g7
(lp9112
Voccupational
p9113
atp9114
Rp9115
(dp9116
g16
VNN
p9117
sbatp9118
Rp9119
(dp9120
g16
VNP
p9121
sbag5
(g6
g7
(lp9122
Vand
p9123
atp9124
Rp9125
(dp9126
g16
VCC
p9127
sbag5
(g6
g7
(lp9128
g5
(g6
g7
(lp9129
Vhabitual
p9130
atp9131
Rp9132
(dp9133
g16
VJJ
p9134
sbag5
(g6
g7
(lp9135
Vroles
p9136
atp9137
Rp9138
(dp9139
g16
VNNS
p9140
sbatp9141
Rp9142
(dp9143
g16
VNP
p9144
sbatp9145
Rp9146
(dp9147
g16
VNP
p9148
sbag5
(g6
g7
(lp9149
V-LRB-
p9150
atp9151
Rp9152
(dp9153
g16
V-LRB-
p9154
sbag5
(g6
g7
(lp9155
g5
(g6
g7
(lp9156
Ve.g.
p9157
atp9158
Rp9159
(dp9160
g16
VNNP
p9161
sbatp9162
Rp9163
(dp9164
g16
VNP
p9165
sbag5
(g6
g7
(lp9166
g73
atp9167
Rp9168
(dp9169
g16
g73
sbatp9170
Rp9171
(dp9172
g16
VNP
p9173
sbag5
(g6
g7
(lp9174
g73
atp9175
Rp9176
(dp9177
g16
g73
sbag5
(g6
g7
(lp9178
g5
(g6
g7
(lp9179
g5
(g6
g7
(lp9180
Vdoctor
p9181
atp9182
Rp9183
(dp9184
g16
VNN
p9185
sbatp9186
Rp9187
(dp9188
g16
VNP
p9189
sbag5
(g6
g7
(lp9190
g73
atp9191
Rp9192
(dp9193
g16
g73
sbag5
(g6
g7
(lp9194
g5
(g6
g7
(lp9195
Vsmoker
p9196
atp9197
Rp9198
(dp9199
g16
VNN
p9200
sbatp9201
Rp9202
(dp9203
g16
VNP
p9204
sbatp9205
Rp9206
(dp9207
g16
VNP
p9208
sbatp9209
Rp9210
(dp9211
g16
VNP
p9212
sbatp9213
Rp9214
(dp9215
g16
VPP
p9216
sbatp9217
Rp9218
(dp9219
g16
VVP
p9220
sbatp9221
Rp9222
(dp9223
g16
g249
sbatp9224
Rp9225
(dp9226
g16
VROOT
p9227
sbasg366
(icmyPackage
CorE
p9228
(dp9229
g369
(lp9230
(I0
I1
tp9231
a(I1
I0
tp9232
asg373
g5
(g6
g7
(lp9233
g8584
ag8594
ag9060
ag9080
atp9234
Rp9235
(dp9236
g16
g384
sbsbsg374
(icmyPackage
CorE
p9237
(dp9238
g369
(lp9239
(I1
I2
tp9240
a(I1
I14
tp9241
asg373
g5
(g6
g7
(lp9242
g9098
ag9214
atp9243
Rp9244
(dp9245
g16
g384
sbsbsg385
(icmyPackage
pattern
p9246
(dp9247
g388
I62
sg389
I1
sg390
(lp9248
(lp9249
S'therefore'
p9250
aasg394
(lp9251
I1
aI1
aI1
asg396
(lp9252
S'He never lies; therefore, everyone likes to make friends with him.'
p9253
asg399
I1
sg400
(lp9254
(lp9255
S'&C'
p9256
aS'(,/;/./--)'
p9257
aS'(&AND)'
p9258
aa(lp9259
S'(,)'
p9260
aS'&R'
p9261
aasbsg406
(lp9262
(isxpPackage
sxpSent
p9263
(dp9264
g410
(lp9265
I20
asg412
VFirst, we counted all terms matching a target social role u'\u005cu2019' s possessive pattern (e.g.,, doctor u'\u005cu2019' s ) in the web-scale n-gram corpus Google V2 [ 13 ] 5 5 In this corpus, follower-type roles like belieber and directioner are not at all prevalent
p9266
sg414
I7
sg399
I60
sg415
I17
sba(isxpPackage
sxpSent
p9267
(dp9268
g410
(lp9269
I20
asg412
VWe therefore focused on occupational and habitual roles (e.g.,, doctor, smoker
p9270
sg414
I7
sg399
I61
sg415
I17
sbasba(icmyPackage
CELink
p9271
(dp9272
g3
(lp9273
g5
(g6
g7
(lp9274
g5
(g6
g7
(lp9275
g5
(g6
g7
(lp9276
g5
(g6
g7
(lp9277
VProbabilities
p9278
atp9279
Rp9280
(dp9281
g16
VNNS
p9282
sbatp9283
Rp9284
(dp9285
g16
VNP
p9286
sbag5
(g6
g7
(lp9287
g5
(g6
g7
(lp9288
Vwere
p9289
atp9290
Rp9291
(dp9292
g16
VVBD
p9293
sbag5
(g6
g7
(lp9294
g5
(g6
g7
(lp9295
Vestimated
p9296
atp9297
Rp9298
(dp9299
g16
VVBN
p9300
sbag5
(g6
g7
(lp9301
g5
(g6
g7
(lp9302
Vfrom
p9303
atp9304
Rp9305
(dp9306
g16
VIN
p9307
sbag5
(g6
g7
(lp9308
g5
(g6
g7
(lp9309
g5
(g6
g7
(lp9310
Vcounts
p9311
atp9312
Rp9313
(dp9314
g16
VNNS
p9315
sbatp9316
Rp9317
(dp9318
g16
VNP
p9319
sbag5
(g6
g7
(lp9320
g5
(g6
g7
(lp9321
Vof
p9322
atp9323
Rp9324
(dp9325
g16
VIN
p9326
sbag5
(g6
g7
(lp9327
g5
(g6
g7
(lp9328
Vthe
p9329
atp9330
Rp9331
(dp9332
g16
VDT
p9333
sbag5
(g6
g7
(lp9334
Vclass-attribute
p9335
atp9336
Rp9337
(dp9338
g16
VJJ
p9339
sbag5
(g6
g7
(lp9340
Vpairs
p9341
atp9342
Rp9343
(dp9344
g16
VNNS
p9345
sbatp9346
Rp9347
(dp9348
g16
VNP
p9349
sbatp9350
Rp9351
(dp9352
g16
VPP
p9353
sbag5
(g6
g7
(lp9354
g5
(g6
g7
(lp9355
Valong
p9356
atp9357
Rp9358
(dp9359
g16
VIN
p9360
sbag5
(g6
g7
(lp9361
g5
(g6
g7
(lp9362
Vwith
p9363
atp9364
Rp9365
(dp9366
g16
VIN
p9367
sbag5
(g6
g7
(lp9368
g5
(g6
g7
(lp9369
g5
(g6
g7
(lp9370
Vcounts
p9371
atp9372
Rp9373
(dp9374
g16
VNNS
p9375
sbatp9376
Rp9377
(dp9378
g16
VNP
p9379
sbag5
(g6
g7
(lp9380
g5
(g6
g7
(lp9381
Vmatching
p9382
atp9383
Rp9384
(dp9385
g16
VVBG
p9386
sbag5
(g6
g7
(lp9387
g5
(g6
g7
(lp9388
g5
(g6
g7
(lp9389
Vthe
p9390
atp9391
Rp9392
(dp9393
g16
VDT
p9394
sbag5
(g6
g7
(lp9395
Vgeneric
p9396
atp9397
Rp9398
(dp9399
g16
VJJ
p9400
sbag5
(g6
g7
(lp9401
Vpossessive
p9402
atp9403
Rp9404
(dp9405
g16
VJJ
p9406
sbag5
(g6
g7
(lp9407
Vpatterns
p9408
atp9409
Rp9410
(dp9411
g16
VNNS
p9412
sbatp9413
Rp9414
(dp9415
g16
VNP
p9416
sbag5
(g6
g7
(lp9417
g5
(g6
g7
(lp9418
Vhis
p9419
atp9420
Rp9421
(dp9422
g16
VPRP$
p9423
sbag5
(g6
g7
(lp9424
Vand
p9425
atp9426
Rp9427
(dp9428
g16
VCC
p9429
sbag5
(g6
g7
(lp9430
Vher
p9431
atp9432
Rp9433
(dp9434
g16
VPRP$
p9435
sbatp9436
Rp9437
(dp9438
g16
VADJP
p9439
sbag5
(g6
g7
(lp9440
g5
(g6
g7
(lp9441
g5
(g6
g7
(lp9442
Vwhich
p9443
atp9444
Rp9445
(dp9446
g16
VWDT
p9447
sbatp9448
Rp9449
(dp9450
g16
VWHNP
p9451
sbag5
(g6
g7
(lp9452
g5
(g6
g7
(lp9453
g5
(g6
g7
(lp9454
Vserve
p9455
atp9456
Rp9457
(dp9458
g16
VVBP
p9459
sbag5
(g6
g7
(lp9460
g5
(g6
g7
(lp9461
Vas
p9462
atp9463
Rp9464
(dp9465
g16
VIN
p9466
sbag5
(g6
g7
(lp9467
g5
(g6
g7
(lp9468
Vgeneral
p9469
atp9470
Rp9471
(dp9472
g16
VJJ
p9473
sbag5
(g6
g7
(lp9474
Vbackground
p9475
atp9476
Rp9477
(dp9478
g16
VNN
p9479
sbag5
(g6
g7
(lp9480
Vcategories
p9481
atp9482
Rp9483
(dp9484
g16
VNNS
p9485
sbatp9486
Rp9487
(dp9488
g16
VNP
p9489
sbatp9490
Rp9491
(dp9492
g16
VPP
p9493
sbatp9494
Rp9495
(dp9496
g16
VVP
p9497
sbatp9498
Rp9499
(dp9500
g16
g249
sbatp9501
Rp9502
(dp9503
g16
VSBAR
p9504
sbatp9505
Rp9506
(dp9507
g16
VNP
p9508
sbatp9509
Rp9510
(dp9511
g16
VVP
p9512
sbatp9513
Rp9514
(dp9515
g16
VNP
p9516
sbatp9517
Rp9518
(dp9519
g16
VPP
p9520
sbatp9521
Rp9522
(dp9523
g16
VADVP
p9524
sbatp9525
Rp9526
(dp9527
g16
VNP
p9528
sbatp9529
Rp9530
(dp9531
g16
VPP
p9532
sbatp9533
Rp9534
(dp9535
g16
VVP
p9536
sbatp9537
Rp9538
(dp9539
g16
VVP
p9540
sbatp9541
Rp9542
(dp9543
g16
g249
sbatp9544
Rp9545
(dp9546
g16
VROOT
p9547
sbag5
(g6
g7
(lp9548
g5
(g6
g7
(lp9549
g5
(g6
g7
(lp9550
g5
(g6
g7
(lp9551
VFollowing
p9552
atp9553
Rp9554
(dp9555
g16
VVBG
p9556
sbag5
(g6
g7
(lp9557
g5
(g6
g7
(lp9558
g5
(g6
g7
(lp9559
Vsuggestions
p9560
atp9561
Rp9562
(dp9563
g16
VNNS
p9564
sbatp9565
Rp9566
(dp9567
g16
VNP
p9568
sbag5
(g6
g7
(lp9569
g5
(g6
g7
(lp9570
Vby
p9571
atp9572
Rp9573
(dp9574
g16
VIN
p9575
sbag5
(g6
g7
(lp9576
g5
(g6
g7
(lp9577
VBergsma
p9578
atp9579
Rp9580
(dp9581
g16
VNNP
p9582
sbag5
(g6
g7
(lp9583
Vand
p9584
atp9585
Rp9586
(dp9587
g16
VCC
p9588
sbag5
(g6
g7
(lp9589
VVan
p9590
atp9591
Rp9592
(dp9593
g16
VNNP
p9594
sbag5
(g6
g7
(lp9595
VDurme
p9596
atp9597
Rp9598
(dp9599
g16
VNNP
p9600
sbatp9601
Rp9602
(dp9603
g16
VNP
p9604
sbatp9605
Rp9606
(dp9607
g16
VPP
p9608
sbatp9609
Rp9610
(dp9611
g16
VNP
p9612
sbatp9613
Rp9614
(dp9615
g16
VPP
p9616
sbag5
(g6
g7
(lp9617
g73
atp9618
Rp9619
(dp9620
g16
g73
sbag5
(g6
g7
(lp9621
g5
(g6
g7
(lp9622
Vwe
p9623
atp9624
Rp9625
(dp9626
g16
VPRP
p9627
sbatp9628
Rp9629
(dp9630
g16
VNP
p9631
sbag5
(g6
g7
(lp9632
g5
(g6
g7
(lp9633
Vmanually
p9634
atp9635
Rp9636
(dp9637
g16
VRB
p9638
sbatp9639
Rp9640
(dp9641
g16
VADVP
p9642
sbag5
(g6
g7
(lp9643
g5
(g6
g7
(lp9644
Vfiltered
p9645
atp9646
Rp9647
(dp9648
g16
VVBD
p9649
sbag5
(g6
g7
(lp9650
g5
(g6
g7
(lp9651
Vthe
p9652
atp9653
Rp9654
(dp9655
g16
VDT
p9656
sbag5
(g6
g7
(lp9657
Vranked
p9658
atp9659
Rp9660
(dp9661
g16
VJJ
p9662
sbag5
(g6
g7
(lp9663
Vlist
p9664
atp9665
Rp9666
(dp9667
g16
VNN
p9668
sbatp9669
Rp9670
(dp9671
g16
VNP
p9672
sbatp9673
Rp9674
(dp9675
g16
VVP
p9676
sbatp9677
Rp9678
(dp9679
g16
g249
sbatp9680
Rp9681
(dp9682
g16
VROOT
p9683
sbasg366
(icmyPackage
CorE
p9684
(dp9685
g369
(lp9686
(I0
I23
tp9687
a(I1
I12
tp9688
asg373
g5
(g6
g7
(lp9689
g9487
ag9614
ag9619
ag9629
ag9640
ag9647
ag9654
ag9660
atp9690
Rp9691
(dp9692
g16
g384
sbsbsg374
(icmyPackage
CorE
p9693
(dp9694
g369
(lp9695
(I0
I0
tp9696
a(I0
I21
tp9697
asg373
g5
(g6
g7
(lp9698
g9284
ag9291
ag9298
ag9305
ag9317
ag9351
ag9358
ag9365
ag9377
ag9384
ag9414
ag9437
ag9449
ag9457
atp9699
Rp9700
(dp9701
g16
g384
sbsbsg385
g2084
sg406
(lp9702
(isxpPackage
sxpSent
p9703
(dp9704
g410
(lp9705
I21
asg412
VProbabilities were estimated from counts of the class-attribute pairs along with counts matching the generic possessive patterns his and her which serve as general background categories
p9706
sg414
I7
sg399
I63
sg415
I17
sba(isxpPackage
sxpSent
p9707
(dp9708
g410
(lp9709
I21
asg412
VFollowing suggestions by Bergsma and Van Durme, we manually filtered the ranked list
p9710
sg414
I7
sg399
I64
sg415
I17
sbasba(icmyPackage
CELink
p9711
(dp9712
g3
(lp9713
g5
(g6
g7
(lp9714
g5
(g6
g7
(lp9715
g5
(g6
g7
(lp9716
g5
(g6
g7
(lp9717
g5
(g6
g7
(lp9718
VUsing
p9719
atp9720
Rp9721
(dp9722
g16
VVBG
p9723
sbag5
(g6
g7
(lp9724
g5
(g6
g7
(lp9725
g5
(g6
g7
(lp9726
Vthis
p9727
atp9728
Rp9729
(dp9730
g16
VDT
p9731
sbag5
(g6
g7
(lp9732
Vsmaller
p9733
atp9734
Rp9735
(dp9736
g16
VJJR
p9737
sbag5
(g6
g7
(lp9738
Vhigh-precision
p9739
atp9740
Rp9741
(dp9742
g16
VNN
p9743
sbag5
(g6
g7
(lp9744
Vset
p9745
atp9746
Rp9747
(dp9748
g16
VNN
p9749
sbatp9750
Rp9751
(dp9752
g16
VNP
p9753
sbag5
(g6
g7
(lp9754
g5
(g6
g7
(lp9755
Vof
p9756
atp9757
Rp9758
(dp9759
g16
VIN
p9760
sbag5
(g6
g7
(lp9761
g5
(g6
g7
(lp9762
Vattribute
p9763
atp9764
Rp9765
(dp9766
g16
VNN
p9767
sbag5
(g6
g7
(lp9768
Vterms
p9769
atp9770
Rp9771
(dp9772
g16
VNNS
p9773
sbatp9774
Rp9775
(dp9776
g16
VNP
p9777
sbatp9778
Rp9779
(dp9780
g16
VPP
p9781
sbatp9782
Rp9783
(dp9784
g16
VNP
p9785
sbatp9786
Rp9787
(dp9788
g16
VVP
p9789
sbatp9790
Rp9791
(dp9792
g16
g249
sbag5
(g6
g7
(lp9793
g73
atp9794
Rp9795
(dp9796
g16
g73
sbag5
(g6
g7
(lp9797
g5
(g6
g7
(lp9798
Vwe
p9799
atp9800
Rp9801
(dp9802
g16
VPRP
p9803
sbatp9804
Rp9805
(dp9806
g16
VNP
p9807
sbag5
(g6
g7
(lp9808
g5
(g6
g7
(lp9809
Vcollected
p9810
atp9811
Rp9812
(dp9813
g16
VVBD
p9814
sbag5
(g6
g7
(lp9815
g5
(g6
g7
(lp9816
Vtweets
p9817
atp9818
Rp9819
(dp9820
g16
VNNS
p9821
sbatp9822
Rp9823
(dp9824
g16
VNP
p9825
sbag5
(g6
g7
(lp9826
g5
(g6
g7
(lp9827
Vfrom
p9828
atp9829
Rp9830
(dp9831
g16
VIN
p9832
sbag5
(g6
g7
(lp9833
g5
(g6
g7
(lp9834
Vthe
p9835
atp9836
Rp9837
(dp9838
g16
VDT
p9839
sbag5
(g6
g7
(lp9840
VTwitter
p9841
atp9842
Rp9843
(dp9844
g16
VNNP
p9845
sbag5
(g6
g7
(lp9846
VFirehose
p9847
atp9848
Rp9849
(dp9850
g16
VNNP
p9851
sbatp9852
Rp9853
(dp9854
g16
VNP
p9855
sbatp9856
Rp9857
(dp9858
g16
VPP
p9859
sbag5
(g6
g7
(lp9860
g5
(g6
g7
(lp9861
Vover
p9862
atp9863
Rp9864
(dp9865
g16
VIN
p9866
sbag5
(g6
g7
(lp9867
g5
(g6
g7
(lp9868
Vthe
p9869
atp9870
Rp9871
(dp9872
g16
VDT
p9873
sbag5
(g6
g7
(lp9874
Vperiod
p9875
atp9876
Rp9877
(dp9878
g16
VNN
p9879
sbag5
(g6
g7
(lp9880
V2011-2013
p9881
atp9882
Rp9883
(dp9884
g16
VCD
p9885
sbatp9886
Rp9887
(dp9888
g16
VNP
p9889
sbatp9890
Rp9891
(dp9892
g16
VPP
p9893
sbatp9894
Rp9895
(dp9896
g16
VVP
p9897
sbatp9898
Rp9899
(dp9900
g16
g249
sbatp9901
Rp9902
(dp9903
g16
VROOT
p9904
sbasg366
(icmyPackage
CorE
p9905
(dp9906
g369
(lp9907
(I0
I0
tp9908
a(I0
I7
tp9909
asg373
g9791
sbsg374
(icmyPackage
CorE
p9910
(dp9911
g369
(lp9912
(I0
I9
tp9913
a(I0
I19
tp9914
asg373
g5
(g6
g7
(lp9915
g9805
ag9895
atp9916
Rp9917
(dp9918
g16
g384
sbsbsg385
g758
sg406
(lp9919
(isxpPackage
sxpSent
p9920
(dp9921
g410
(lp9922
I22
asg412
VUsing this smaller high-precision set of attribute terms, we collected tweets from the Twitter Firehose over the period 2011-2013
p9923
sg414
I7
sg399
I73
sg415
I18
sbasba(icmyPackage
CELink
p9924
(dp9925
g3
(lp9926
g5
(g6
g7
(lp9927
g5
(g6
g7
(lp9928
g5
(g6
g7
(lp9929
g5
(g6
g7
(lp9930
VAttribute
p9931
atp9932
Rp9933
(dp9934
g16
VJJ
p9935
sbag5
(g6
g7
(lp9936
Vterms
p9937
atp9938
Rp9939
(dp9940
g16
VNNS
p9941
sbatp9942
Rp9943
(dp9944
g16
VNP
p9945
sbag5
(g6
g7
(lp9946
g5
(g6
g7
(lp9947
Vare
p9948
atp9949
Rp9950
(dp9951
g16
VVBP
p9952
sbag5
(g6
g7
(lp9953
g5
(g6
g7
(lp9954
Vless
p9955
atp9956
Rp9957
(dp9958
g16
VRBR
p9959
sbag5
(g6
g7
(lp9960
Vindicative
p9961
atp9962
Rp9963
(dp9964
g16
VJJ
p9965
sbatp9966
Rp9967
(dp9968
g16
VADJP
p9969
sbag5
(g6
g7
(lp9970
g5
(g6
g7
(lp9971
Voverall
p9972
atp9973
Rp9974
(dp9975
g16
VJJ
p9976
sbag5
(g6
g7
(lp9977
g5
(g6
g7
(lp9978
Vthan
p9979
atp9980
Rp9981
(dp9982
g16
VIN
p9983
sbag5
(g6
g7
(lp9984
g5
(g6
g7
(lp9985
Vself-ID
p9986
atp9987
Rp9988
(dp9989
g16
VJJ
p9990
sbag5
(g6
g7
(lp9991
g73
atp9992
Rp9993
(dp9994
g16
g73
sbag5
(g6
g7
(lp9995
Ve.g.
p9996
atp9997
Rp9998
(dp9999
g16
VNNP
p10000
sbag5
(g6
g7
(lp10001
g73
atp10002
Rp10003
(dp10004
g16
g73
sbatp10005
Rp10006
(dp10007
g16
VNP
p10008
sbatp10009
Rp10010
(dp10011
g16
VPP
p10012
sbatp10013
Rp10014
(dp10015
g16
VADVP
p10016
sbag5
(g6
g7
(lp10017
g73
atp10018
Rp10019
(dp10020
g16
g73
sbag5
(g6
g7
(lp10021
g5
(g6
g7
(lp10022
g5
(g6
g7
(lp10023
g5
(g6
g7
(lp10024
Vthe
p10025
atp10026
Rp10027
(dp10028
g16
VDT
p10029
sbag5
(g6
g7
(lp10030
Vphrase
p10031
atp10032
Rp10033
(dp10034
g16
VNN
p10035
sbag5
(g6
g7
(lp10036
g1405
atp10037
Rp10038
(dp10039
g16
VNN
p10040
sbag5
(g6
g7
(lp10041
g1372
atp10042
Rp10043
(dp10044
g16
VNN
p10045
sbag5
(g6
g7
(lp10046
g1378
atp10047
Rp10048
(dp10049
g16
VPOS
p10050
sbatp10051
Rp10052
(dp10053
g16
VNP
p10054
sbag5
(g6
g7
(lp10055
V\u005c
p10056
atp10057
Rp10058
(dp10059
g16
VJJ
p10060
sbag5
(g6
g7
(lp10061
Vu2019
p10062
atp10063
Rp10064
(dp10065
g16
VJJ
p10066
sbag5
(g6
g7
(lp10067
g1378
atp10068
Rp10069
(dp10070
g16
V''
p10071
sbag5
(g6
g7
(lp10072
g3388
atp10073
Rp10074
(dp10075
g16
VNN
p10076
sbatp10077
Rp10078
(dp10079
g16
VNP
p10080
sbag5
(g6
g7
(lp10081
g5
(g6
g7
(lp10082
g5
(g6
g7
(lp10083
g5
(g6
g7
(lp10084
g969
atp10085
Rp10086
(dp10087
g16
VDT
p10088
sbag5
(g6
g7
(lp10089
Vbarber
p10090
atp10091
Rp10092
(dp10093
g16
VNN
p10094
sbatp10095
Rp10096
(dp10097
g16
VNP
p10098
sbag5
(g6
g7
(lp10099
g5
(g6
g7
(lp10100
Vis
p10101
atp10102
Rp10103
(dp10104
g16
VVBZ
p10105
sbag5
(g6
g7
(lp10106
g5
(g6
g7
(lp10107
g5
(g6
g7
(lp10108
g969
atp10109
Rp10110
(dp10111
g16
VDT
p10112
sbag5
(g6
g7
(lp10113
Vclearer
p10114
atp10115
Rp10116
(dp10117
g16
VJJR
p10118
sbag5
(g6
g7
(lp10119
Vsignal
p10120
atp10121
Rp10122
(dp10123
g16
VNN
p10124
sbatp10125
Rp10126
(dp10127
g16
VNP
p10128
sbag5
(g6
g7
(lp10129
g5
(g6
g7
(lp10130
Vthan
p10131
atp10132
Rp10133
(dp10134
g16
VIN
p10135
sbag5
(g6
g7
(lp10136
g5
(g6
g7
(lp10137
Vmy
p10138
atp10139
Rp10140
(dp10141
g16
VPRP$
p10142
sbag5
(g6
g7
(lp10143
Vscissors
p10144
atp10145
Rp10146
(dp10147
g16
VNNS
p10148
sbatp10149
Rp10150
(dp10151
g16
VNP
p10152
sbatp10153
Rp10154
(dp10155
g16
VPP
p10156
sbatp10157
Rp10158
(dp10159
g16
VNP
p10160
sbatp10161
Rp10162
(dp10163
g16
VVP
p10164
sbatp10165
Rp10166
(dp10167
g16
g249
sbatp10168
Rp10169
(dp10170
g16
VSBAR
p10171
sbatp10172
Rp10173
(dp10174
g16
VNP
p10175
sbatp10176
Rp10177
(dp10178
g16
VVP
p10179
sbatp10180
Rp10181
(dp10182
g16
g249
sbatp10183
Rp10184
(dp10185
g16
VROOT
p10186
sbag5
(g6
g7
(lp10187
g5
(g6
g7
(lp10188
g5
(g6
g7
(lp10189
g5
(g6
g7
(lp10190
VWe
p10191
atp10192
Rp10193
(dp10194
g16
VPRP
p10195
sbatp10196
Rp10197
(dp10198
g16
VNP
p10199
sbag5
(g6
g7
(lp10200
g5
(g6
g7
(lp10201
g5
(g6
g7
(lp10202
Vtherefore
p10203
atp10204
Rp10205
(dp10206
g16
VRB
p10207
sbatp10208
Rp10209
(dp10210
g16
VADVP
p10211
sbag5
(g6
g7
(lp10212
Vinclude
p10213
atp10214
Rp10215
(dp10216
g16
VVBP
p10217
sbag5
(g6
g7
(lp10218
g5
(g6
g7
(lp10219
g969
atp10220
Rp10221
(dp10222
g16
VDT
p10223
sbag5
(g6
g7
(lp10224
Vrole
p10225
atp10226
Rp10227
(dp10228
g16
VNN
p10229
sbag5
(g6
g7
(lp10230
Vverification
p10231
atp10232
Rp10233
(dp10234
g16
VNN
p10235
sbag5
(g6
g7
(lp10236
Vstep
p10237
atp10238
Rp10239
(dp10240
g16
VNN
p10241
sbatp10242
Rp10243
(dp10244
g16
VNP
p10245
sbag5
(g6
g7
(lp10246
g5
(g6
g7
(lp10247
Vin
p10248
atp10249
Rp10250
(dp10251
g16
VIN
p10252
sbag5
(g6
g7
(lp10253
g5
(g6
g7
(lp10254
g5
(g6
g7
(lp10255
Vcurating
p10256
atp10257
Rp10258
(dp10259
g16
VVBG
p10260
sbag5
(g6
g7
(lp10261
g5
(g6
g7
(lp10262
g5
(g6
g7
(lp10263
g969
atp10264
Rp10265
(dp10266
g16
VDT
p10267
sbag5
(g6
g7
(lp10268
Vcollection
p10269
atp10270
Rp10271
(dp10272
g16
VNN
p10273
sbatp10274
Rp10275
(dp10276
g16
VNP
p10277
sbag5
(g6
g7
(lp10278
g5
(g6
g7
(lp10279
Vof
p10280
atp10281
Rp10282
(dp10283
g16
VIN
p10284
sbag5
(g6
g7
(lp10285
g5
(g6
g7
(lp10286
g5
(g6
g7
(lp10287
g5
(g6
g7
(lp10288
Vpositively
p10289
atp10290
Rp10291
(dp10292
g16
VRB
p10293
sbatp10294
Rp10295
(dp10296
g16
VADVP
p10297
sbag5
(g6
g7
(lp10298
Videntified
p10299
atp10300
Rp10301
(dp10302
g16
VVBN
p10303
sbatp10304
Rp10305
(dp10306
g16
VADJP
p10307
sbag5
(g6
g7
(lp10308
Vusers
p10309
atp10310
Rp10311
(dp10312
g16
VNNS
p10313
sbatp10314
Rp10315
(dp10316
g16
VNP
p10317
sbatp10318
Rp10319
(dp10320
g16
VPP
p10321
sbatp10322
Rp10323
(dp10324
g16
VNP
p10325
sbatp10326
Rp10327
(dp10328
g16
VVP
p10329
sbatp10330
Rp10331
(dp10332
g16
g249
sbatp10333
Rp10334
(dp10335
g16
VPP
p10336
sbatp10337
Rp10338
(dp10339
g16
VVP
p10340
sbatp10341
Rp10342
(dp10343
g16
g249
sbatp10344
Rp10345
(dp10346
g16
VROOT
p10347
sbasg366
(icmyPackage
CorE
p10348
(dp10349
g369
(lp10350
(I0
I1
tp10351
a(I1
I0
tp10352
asg373
g5
(g6
g7
(lp10353
g9939
ag10177
ag10197
atp10354
Rp10355
(dp10356
g16
g384
sbsbsg374
(icmyPackage
CorE
p10357
(dp10358
g369
(lp10359
(I1
I2
tp10360
a(I1
I14
tp10361
asg373
g5
(g6
g7
(lp10362
g10215
ag10243
ag10334
atp10363
Rp10364
(dp10365
g16
g384
sbsbsg385
g9246
sg406
(lp10366
(isxpPackage
sxpSent
p10367
(dp10368
g410
(lp10369
I23
asg412
VAttribute terms are less indicative overall than self-ID, e.g.,, the phrase I u'\u005cu2019' m a barber is a clearer signal than my scissors
p10370
sg414
I8
sg399
I74
sg415
I19
sba(isxpPackage
sxpSent
p10371
(dp10372
g410
(lp10373
I23
asg412
VWe therefore include a role verification step in curating a collection of positively identified users
p10374
sg414
I8
sg399
I75
sg415
I19
sbasba(icmyPackage
CELink
p10375
(dp10376
g3
(lp10377
g5
(g6
g7
(lp10378
g5
(g6
g7
(lp10379
g5
(g6
g7
(lp10380
VBased
p10381
atp10382
Rp10383
(dp10384
g16
VVBN
p10385
sbag5
(g6
g7
(lp10386
g5
(g6
g7
(lp10387
Von
p10388
atp10389
Rp10390
(dp10391
g16
VIN
p10392
sbag5
(g6
g7
(lp10393
g5
(g6
g7
(lp10394
Vthis
p10395
atp10396
Rp10397
(dp10398
g16
VDT
p10399
sbag5
(g6
g7
(lp10400
Vtweet
p10401
atp10402
Rp10403
(dp10404
g16
VNN
p10405
sbatp10406
Rp10407
(dp10408
g16
VNP
p10409
sbatp10410
Rp10411
(dp10412
g16
VPP
p10413
sbag5
(g6
g7
(lp10414
g73
atp10415
Rp10416
(dp10417
g16
g73
sbag5
(g6
g7
(lp10418
g5
(g6
g7
(lp10419
Vwould
p10420
atp10421
Rp10422
(dp10423
g16
VMD
p10424
sbag5
(g6
g7
(lp10425
g5
(g6
g7
(lp10426
g5
(g6
g7
(lp10427
Vyou
p10428
atp10429
Rp10430
(dp10431
g16
VPRP
p10432
sbatp10433
Rp10434
(dp10435
g16
VNP
p10436
sbag5
(g6
g7
(lp10437
g5
(g6
g7
(lp10438
Vthink
p10439
atp10440
Rp10441
(dp10442
g16
VVBP
p10443
sbag5
(g6
g7
(lp10444
g5
(g6
g7
(lp10445
g5
(g6
g7
(lp10446
g5
(g6
g7
(lp10447
Vthis
p10448
atp10449
Rp10450
(dp10451
g16
VDT
p10452
sbag5
(g6
g7
(lp10453
Vperson
p10454
atp10455
Rp10456
(dp10457
g16
VNN
p10458
sbatp10459
Rp10460
(dp10461
g16
VNP
p10462
sbag5
(g6
g7
(lp10463
g5
(g6
g7
(lp10464
Vis
p10465
atp10466
Rp10467
(dp10468
g16
VVBZ
p10469
sbag5
(g6
g7
(lp10470
g5
(g6
g7
(lp10471
g5
(g6
g7
(lp10472
g969
atp10473
Rp10474
(dp10475
g16
VDT
p10476
sbag5
(g6
g7
(lp10477
VBarber/Hairdresser
p10478
atp10479
Rp10480
(dp10481
g16
VNN
p10482
sbatp10483
Rp10484
(dp10485
g16
VNP
p10486
sbag5
(g6
g7
(lp10487
Valong
p10488
atp10489
Rp10490
(dp10491
g16
VIN
p10492
sbatp10493
Rp10494
(dp10495
g16
VADVP
p10496
sbag5
(g6
g7
(lp10497
g5
(g6
g7
(lp10498
Vwith
p10499
atp10500
Rp10501
(dp10502
g16
VIN
p10503
sbag5
(g6
g7
(lp10504
g5
(g6
g7
(lp10505
Vfour
p10506
atp10507
Rp10508
(dp10509
g16
VCD
p10510
sbag5
(g6
g7
(lp10511
Vresponse
p10512
atp10513
Rp10514
(dp10515
g16
VNN
p10516
sbag5
(g6
g7
(lp10517
Voptions
p10518
atp10519
Rp10520
(dp10521
g16
VNNS
p10522
sbatp10523
Rp10524
(dp10525
g16
VNP
p10526
sbatp10527
Rp10528
(dp10529
g16
VPP
p10530
sbatp10531
Rp10532
(dp10533
g16
VVP
p10534
sbatp10535
Rp10536
(dp10537
g16
g249
sbatp10538
Rp10539
(dp10540
g16
VSBAR
p10541
sbatp10542
Rp10543
(dp10544
g16
VVP
p10545
sbatp10546
Rp10547
(dp10548
g16
g249
sbatp10549
Rp10550
(dp10551
g16
VSBAR
p10552
sbatp10553
Rp10554
(dp10555
g16
VVP
p10556
sbatp10557
Rp10558
(dp10559
g16
VROOT
p10560
sbasg366
(icmyPackage
CorE
p10561
(dp10562
g369
(lp10563
(I0
I2
tp10564
a(I0
I3
tp10565
asg373
g10407
sbsg374
(icmyPackage
CorE
p10566
(dp10567
g369
(lp10568
(I0
I5
tp10569
a(I0
I17
tp10570
asg373
g10550
sbsg385
(icmyPackage
pattern
p10571
(dp10572
g388
I0
sg389
I0
sg390
(lp10573
(lp10574
S'based'
p10575
aS'on'
p10576
aa(lp10577
S','
p10578
aasg394
(lp10579
I2
aI1
aI1
asg396
(lp10580
S"He said that, based on his own experience, more students have been going back in recent years as their home countries' economies heat up."
p10581
asg399
I47
sg400
(lp10582
(lp10583
a(lp10584
S'&V-ing/&NP@C@'
p10585
aS'(&Clause@C@)'
p10586
aa(lp10587
S'&R'
p10588
aasbsg406
(lp10589
(isxpPackage
sxpSent
p10590
(dp10591
g410
(lp10592
I24
asg412
VBased on this tweet, would you think this person is a Barber/Hairdresser along with four response options
p10593
sg414
I8
sg399
I78
sg415
I19
sbasba(icmyPackage
CELink
p10594
(dp10595
g3
(lp10596
g5
(g6
g7
(lp10597
g5
(g6
g7
(lp10598
g5
(g6
g7
(lp10599
g5
(g6
g7
(lp10600
VWe
p10601
atp10602
Rp10603
(dp10604
g16
VPRP
p10605
sbatp10606
Rp10607
(dp10608
g16
VNP
p10609
sbag5
(g6
g7
(lp10610
g5
(g6
g7
(lp10611
Vfound
p10612
atp10613
Rp10614
(dp10615
g16
VVBD
p10616
sbag5
(g6
g7
(lp10617
g5
(g6
g7
(lp10618
Vthat
p10619
atp10620
Rp10621
(dp10622
g16
VIN
p10623
sbag5
(g6
g7
(lp10624
g5
(g6
g7
(lp10625
g5
(g6
g7
(lp10626
g5
(g6
g7
(lp10627
Vmaking
p10628
atp10629
Rp10630
(dp10631
g16
VVBG
p10632
sbag5
(g6
g7
(lp10633
g5
(g6
g7
(lp10634
Vconceptual
p10635
atp10636
Rp10637
(dp10638
g16
VJJ
p10639
sbag5
(g6
g7
(lp10640
Vclass
p10641
atp10642
Rp10643
(dp10644
g16
VNN
p10645
sbag5
(g6
g7
(lp10646
Vassignments
p10647
atp10648
Rp10649
(dp10650
g16
VNNS
p10651
sbatp10652
Rp10653
(dp10654
g16
VNP
p10655
sbag5
(g6
g7
(lp10656
g5
(g6
g7
(lp10657
Vbased
p10658
atp10659
Rp10660
(dp10661
g16
VVBN
p10662
sbag5
(g6
g7
(lp10663
g5
(g6
g7
(lp10664
Von
p10665
atp10666
Rp10667
(dp10668
g16
VIN
p10669
sbag5
(g6
g7
(lp10670
g5
(g6
g7
(lp10671
g969
atp10672
Rp10673
(dp10674
g16
VDT
p10675
sbag5
(g6
g7
(lp10676
Vsingle
p10677
atp10678
Rp10679
(dp10680
g16
VJJ
p10681
sbag5
(g6
g7
(lp10682
Vtweet
p10683
atp10684
Rp10685
(dp10686
g16
VNN
p10687
sbatp10688
Rp10689
(dp10690
g16
VNP
p10691
sbatp10692
Rp10693
(dp10694
g16
VPP
p10695
sbatp10696
Rp10697
(dp10698
g16
VPP
p10699
sbatp10700
Rp10701
(dp10702
g16
VVP
p10703
sbatp10704
Rp10705
(dp10706
g16
g249
sbag5
(g6
g7
(lp10707
g5
(g6
g7
(lp10708
Vwas
p10709
atp10710
Rp10711
(dp10712
g16
VVBD
p10713
sbag5
(g6
g7
(lp10714
g5
(g6
g7
(lp10715
Voften
p10716
atp10717
Rp10718
(dp10719
g16
VRB
p10720
sbatp10721
Rp10722
(dp10723
g16
VADVP
p10724
sbag5
(g6
g7
(lp10725
g5
(g6
g7
(lp10726
g969
atp10727
Rp10728
(dp10729
g16
VDT
p10730
sbag5
(g6
g7
(lp10731
Vsubtle
p10732
atp10733
Rp10734
(dp10735
g16
VJJ
p10736
sbag5
(g6
g7
(lp10737
Vtask
p10738
atp10739
Rp10740
(dp10741
g16
VNN
p10742
sbatp10743
Rp10744
(dp10745
g16
VNP
p10746
sbatp10747
Rp10748
(dp10749
g16
VVP
p10750
sbatp10751
Rp10752
(dp10753
g16
g249
sbatp10754
Rp10755
(dp10756
g16
VSBAR
p10757
sbatp10758
Rp10759
(dp10760
g16
VVP
p10761
sbatp10762
Rp10763
(dp10764
g16
g249
sbatp10765
Rp10766
(dp10767
g16
VROOT
p10768
sbasg366
(icmyPackage
CorE
p10769
(dp10770
g369
(lp10771
(I0
I9
tp10772
a(I0
I16
tp10773
asg373
g5
(g6
g7
(lp10774
g10689
ag10748
atp10775
Rp10776
(dp10777
g16
g384
sbsbsg374
(icmyPackage
CorE
p10778
(dp10779
g369
(lp10780
(I0
I0
tp10781
a(I0
I6
tp10782
asg373
g5
(g6
g7
(lp10783
g10607
ag10614
ag10621
ag10630
ag10653
atp10784
Rp10785
(dp10786
g16
g384
sbsbsg385
g1097
sg406
(lp10787
(isxpPackage
sxpSent
p10788
(dp10789
g410
(lp10790
I25
asg412
VWe found that making conceptual class assignments based on a single tweet was often a subtle task
p10791
sg414
I8
sg399
I83
sg415
I20
sbasba(icmyPackage
CELink
p10792
(dp10793
g3
(lp10794
g5
(g6
g7
(lp10795
g5
(g6
g7
(lp10796
g5
(g6
g7
(lp10797
g5
(g6
g7
(lp10798
g5
(g6
g7
(lp10799
VAttribute
p10800
atp10801
Rp10802
(dp10803
g16
VJJ
p10804
sbag5
(g6
g7
(lp10805
Vterms
p10806
atp10807
Rp10808
(dp10809
g16
VNNS
p10810
sbatp10811
Rp10812
(dp10813
g16
VNP
p10814
sbag5
(g6
g7
(lp10815
g5
(g6
g7
(lp10816
Vshown
p10817
atp10818
Rp10819
(dp10820
g16
VVBN
p10821
sbag5
(g6
g7
(lp10822
g5
(g6
g7
(lp10823
Vin
p10824
atp10825
Rp10826
(dp10827
g16
VIN
p10828
sbag5
(g6
g7
(lp10829
g5
(g6
g7
(lp10830
Vred
p10831
atp10832
Rp10833
(dp10834
g16
VNN
p10835
sbatp10836
Rp10837
(dp10838
g16
VNP
p10839
sbatp10840
Rp10841
(dp10842
g16
VPP
p10843
sbatp10844
Rp10845
(dp10846
g16
VVP
p10847
sbatp10848
Rp10849
(dp10850
g16
VNP
p10851
sbag5
(g6
g7
(lp10852
g5
(g6
g7
(lp10853
Vwere
p10854
atp10855
Rp10856
(dp10857
g16
VVBD
p10858
sbag5
(g6
g7
(lp10859
g5
(g6
g7
(lp10860
Vmanually
p10861
atp10862
Rp10863
(dp10864
g16
VRB
p10865
sbatp10866
Rp10867
(dp10868
g16
VADVP
p10869
sbag5
(g6
g7
(lp10870
g5
(g6
g7
(lp10871
Vdiscarded
p10872
atp10873
Rp10874
(dp10875
g16
VVBN
p10876
sbag5
(g6
g7
(lp10877
g5
(g6
g7
(lp10878
Vas
p10879
atp10880
Rp10881
(dp10882
g16
VIN
p10883
sbag5
(g6
g7
(lp10884
g5
(g6
g7
(lp10885
g5
(g6
g7
(lp10886
Vbeing
p10887
atp10888
Rp10889
(dp10890
g16
VVBG
p10891
sbag5
(g6
g7
(lp10892
g5
(g6
g7
(lp10893
g5
(g6
g7
(lp10894
g5
(g6
g7
(lp10895
Vinaccurate
p10896
atp10897
Rp10898
(dp10899
g16
VJJ
p10900
sbatp10901
Rp10902
(dp10903
g16
VADJP
p10904
sbag5
(g6
g7
(lp10905
g5
(g6
g7
(lp10906
V-LRB-
p10907
atp10908
Rp10909
(dp10910
g16
V-LRB-
p10911
sbag5
(g6
g7
(lp10912
g5
(g6
g7
(lp10913
Vlow
p10914
atp10915
Rp10916
(dp10917
g16
VJJ
p10918
sbag5
(g6
g7
(lp10919
g5
(g6
g7
(lp10920
Von
p10921
atp10922
Rp10923
(dp10924
g16
VIN
p10925
sbag5
(g6
g7
(lp10926
g5
(g6
g7
(lp10927
Vthe
p10928
atp10929
Rp10930
(dp10931
g16
VDT
p10932
sbag5
(g6
g7
(lp10933
Vy-axis
p10934
atp10935
Rp10936
(dp10937
g16
VNNS
p10938
sbatp10939
Rp10940
(dp10941
g16
VNP
p10942
sbatp10943
Rp10944
(dp10945
g16
VPP
p10946
sbatp10947
Rp10948
(dp10949
g16
VADJP
p10950
sbag5
(g6
g7
(lp10951
V-RRB-
p10952
atp10953
Rp10954
(dp10955
g16
V-RRB-
p10956
sbatp10957
Rp10958
(dp10959
g16
VPRN
p10960
sbatp10961
Rp10962
(dp10963
g16
VADJP
p10964
sbag5
(g6
g7
(lp10965
Vor
p10966
atp10967
Rp10968
(dp10969
g16
VCC
p10970
sbag5
(g6
g7
(lp10971
g5
(g6
g7
(lp10972
Vnon-prevalent
p10973
atp10974
Rp10975
(dp10976
g16
VJJ
p10977
sbag5
(g6
g7
(lp10978
g5
(g6
g7
(lp10979
g5
(g6
g7
(lp10980
V-LRB-
p10981
atp10982
Rp10983
(dp10984
g16
V-LRB-
p10985
sbag5
(g6
g7
(lp10986
g5
(g6
g7
(lp10987
Vsmall
p10988
atp10989
Rp10990
(dp10991
g16
VJJ
p10992
sbatp10993
Rp10994
(dp10995
g16
VNP
p10996
sbag5
(g6
g7
(lp10997
g5
(g6
g7
(lp10998
Vshape
p10999
atp11000
Rp11001
(dp11002
g16
VVBP
p11003
sbatp11004
Rp11005
(dp11006
g16
VVP
p11007
sbatp11008
Rp11009
(dp11010
g16
g249
sbatp11011
Rp11012
(dp11013
g16
VSBAR
p11014
sbatp11015
Rp11016
(dp11017
g16
VADJP
p11018
sbatp11019
Rp11020
(dp11021
g16
VADJP
p11022
sbatp11023
Rp11024
(dp11025
g16
VVP
p11026
sbatp11027
Rp11028
(dp11029
g16
g249
sbatp11030
Rp11031
(dp11032
g16
VPP
p11033
sbatp11034
Rp11035
(dp11036
g16
VVP
p11037
sbatp11038
Rp11039
(dp11040
g16
VVP
p11041
sbatp11042
Rp11043
(dp11044
g16
g249
sbatp11045
Rp11046
(dp11047
g16
VROOT
p11048
sbag5
(g6
g7
(lp11049
g5
(g6
g7
(lp11050
g5
(g6
g7
(lp11051
g5
(g6
g7
(lp11052
VFrom
p11053
atp11054
Rp11055
(dp11056
g16
VIN
p11057
sbag5
(g6
g7
(lp11058
g5
(g6
g7
(lp11059
Vthe
p11060
atp11061
Rp11062
(dp11063
g16
VDT
p11064
sbag5
(g6
g7
(lp11065
Vremaining
p11066
atp11067
Rp11068
(dp11069
g16
VVBG
p11070
sbag5
(g6
g7
(lp11071
Vattribute
p11072
atp11073
Rp11074
(dp11075
g16
VNN
p11076
sbag5
(g6
g7
(lp11077
Vterms
p11078
atp11079
Rp11080
(dp11081
g16
VNNS
p11082
sbatp11083
Rp11084
(dp11085
g16
VNP
p11086
sbatp11087
Rp11088
(dp11089
g16
VPP
p11090
sbag5
(g6
g7
(lp11091
g73
atp11092
Rp11093
(dp11094
g16
g73
sbag5
(g6
g7
(lp11095
g5
(g6
g7
(lp11096
Vwe
p11097
atp11098
Rp11099
(dp11100
g16
VPRP
p11101
sbatp11102
Rp11103
(dp11104
g16
VNP
p11105
sbag5
(g6
g7
(lp11106
g5
(g6
g7
(lp11107
Videntified
p11108
atp11109
Rp11110
(dp11111
g16
VVBD
p11112
sbag5
(g6
g7
(lp11113
g5
(g6
g7
(lp11114
Vusers
p11115
atp11116
Rp11117
(dp11118
g16
VNNS
p11119
sbatp11120
Rp11121
(dp11122
g16
VNP
p11123
sbag5
(g6
g7
(lp11124
g5
(g6
g7
(lp11125
Vwith
p11126
atp11127
Rp11128
(dp11129
g16
VIN
p11130
sbag5
(g6
g7
(lp11131
g5
(g6
g7
(lp11132
g5
(g6
g7
(lp11133
Vtweets
p11134
atp11135
Rp11136
(dp11137
g16
VNNS
p11138
sbag5
(g6
g7
(lp11139
Vscoring
p11140
atp11141
Rp11142
(dp11143
g16
VVBG
p11144
sbag5
(g6
g7
(lp11145
V4.0
p11146
atp11147
Rp11148
(dp11149
g16
VNNS
p11150
sbatp11151
Rp11152
(dp11153
g16
VNP
p11154
sbag5
(g6
g7
(lp11155
Vor
p11156
atp11157
Rp11158
(dp11159
g16
VCC
p11160
sbag5
(g6
g7
(lp11161
g5
(g6
g7
(lp11162
g5
(g6
g7
(lp11163
g5
(g6
g7
(lp11164
Vbetter
p11165
atp11166
Rp11167
(dp11168
g16
VJJR
p11169
sbag5
(g6
g7
(lp11170
Vas
p11171
atp11172
Rp11173
(dp11174
g16
VIN
p11175
sbag5
(g6
g7
(lp11176
Vpositive
p11177
atp11178
Rp11179
(dp11180
g16
VJJ
p11181
sbatp11182
Rp11183
(dp11184
g16
VADJP
p11185
sbag5
(g6
g7
(lp11186
Vexamples
p11187
atp11188
Rp11189
(dp11190
g16
VNNS
p11191
sbatp11192
Rp11193
(dp11194
g16
VNP
p11195
sbag5
(g6
g7
(lp11196
g5
(g6
g7
(lp11197
Vof
p11198
atp11199
Rp11200
(dp11201
g16
VIN
p11202
sbag5
(g6
g7
(lp11203
g5
(g6
g7
(lp11204
Vthe
p11205
atp11206
Rp11207
(dp11208
g16
VDT
p11209
sbag5
(g6
g7
(lp11210
Vassociated
p11211
atp11212
Rp11213
(dp11214
g16
VVBN
p11215
sbag5
(g6
g7
(lp11216
Vroles
p11217
atp11218
Rp11219
(dp11220
g16
VNNS
p11221
sbatp11222
Rp11223
(dp11224
g16
VNP
p11225
sbatp11226
Rp11227
(dp11228
g16
VPP
p11229
sbatp11230
Rp11231
(dp11232
g16
VNP
p11233
sbatp11234
Rp11235
(dp11236
g16
VNP
p11237
sbatp11238
Rp11239
(dp11240
g16
VPP
p11241
sbatp11242
Rp11243
(dp11244
g16
VVP
p11245
sbatp11246
Rp11247
(dp11248
g16
g249
sbatp11249
Rp11250
(dp11251
g16
VROOT
p11252
sbasg366
(icmyPackage
CorE
p11253
(dp11254
g369
(lp11255
(I0
I9
tp11256
a(I1
I21
tp11257
asg373
g5
(g6
g7
(lp11258
g11028
ag11250
atp11259
Rp11260
(dp11261
g16
g384
sbsbsg374
(icmyPackage
CorE
p11262
(dp11263
g369
(lp11264
(I0
I0
tp11265
a(I0
I7
tp11266
asg373
g5
(g6
g7
(lp11267
g10849
ag10856
ag10867
ag10874
atp11268
Rp11269
(dp11270
g16
g384
sbsbsg385
g2084
sg406
(lp11271
(isxpPackage
sxpSent
p11272
(dp11273
g410
(lp11274
I26
asg412
VAttribute terms shown in red were manually discarded as being inaccurate (low on the y-axis) or non-prevalent (small shape
p11275
sg414
I8
sg399
I85
sg415
I20
sba(isxpPackage
sxpSent
p11276
(dp11277
g410
(lp11278
I26
aI27
asg412
VFrom the remaining attribute terms, we identified users with tweets scoring 4.0 or better as positive examples of the associated roles
p11279
sg414
I8
sg399
I86
sg415
I21
sbasba(icmyPackage
CELink
p11280
(dp11281
g3
(lp11282
g11250
ag5
(g6
g7
(lp11283
g5
(g6
g7
(lp11284
g5
(g6
g7
(lp11285
g5
(g6
g7
(lp11286
g5
(g6
g7
(lp11287
VTweets
p11288
atp11289
Rp11290
(dp11291
g16
VNNS
p11292
sbatp11293
Rp11294
(dp11295
g16
VNP
p11296
sbag5
(g6
g7
(lp11297
g5
(g6
g7
(lp11298
Vfrom
p11299
atp11300
Rp11301
(dp11302
g16
VIN
p11303
sbag5
(g6
g7
(lp11304
g5
(g6
g7
(lp11305
Vthose
p11306
atp11307
Rp11308
(dp11309
g16
VDT
p11310
sbag5
(g6
g7
(lp11311
Vusers
p11312
atp11313
Rp11314
(dp11315
g16
VNNS
p11316
sbatp11317
Rp11318
(dp11319
g16
VNP
p11320
sbatp11321
Rp11322
(dp11323
g16
VPP
p11324
sbatp11325
Rp11326
(dp11327
g16
VNP
p11328
sbag5
(g6
g7
(lp11329
g5
(g6
g7
(lp11330
Vwere
p11331
atp11332
Rp11333
(dp11334
g16
VVBD
p11335
sbag5
(g6
g7
(lp11336
g5
(g6
g7
(lp11337
Vscraped
p11338
atp11339
Rp11340
(dp11341
g16
VVBN
p11342
sbag5
(g6
g7
(lp11343
g5
(g6
g7
(lp11344
Vvia
p11345
atp11346
Rp11347
(dp11348
g16
VIN
p11349
sbag5
(g6
g7
(lp11350
g5
(g6
g7
(lp11351
Vthe
p11352
atp11353
Rp11354
(dp11355
g16
VDT
p11356
sbag5
(g6
g7
(lp11357
VTwitter
p11358
atp11359
Rp11360
(dp11361
g16
VNNP
p11362
sbag5
(g6
g7
(lp11363
VAPI
p11364
atp11365
Rp11366
(dp11367
g16
VNNP
p11368
sbatp11369
Rp11370
(dp11371
g16
VNP
p11372
sbatp11373
Rp11374
(dp11375
g16
VPP
p11376
sbag5
(g6
g7
(lp11377
g5
(g6
g7
(lp11378
g5
(g6
g7
(lp11379
Vto
p11380
atp11381
Rp11382
(dp11383
g16
VTO
p11384
sbag5
(g6
g7
(lp11385
g5
(g6
g7
(lp11386
Vconstruct
p11387
atp11388
Rp11389
(dp11390
g16
VVB
p11391
sbag5
(g6
g7
(lp11392
g5
(g6
g7
(lp11393
Vcorpora
p11394
atp11395
Rp11396
(dp11397
g16
VNN
p11398
sbatp11399
Rp11400
(dp11401
g16
VNP
p11402
sbag5
(g6
g7
(lp11403
g5
(g6
g7
(lp11404
Vfor
p11405
atp11406
Rp11407
(dp11408
g16
VIN
p11409
sbag5
(g6
g7
(lp11410
g5
(g6
g7
(lp11411
Veach
p11412
atp11413
Rp11414
(dp11415
g16
VDT
p11416
sbag5
(g6
g7
(lp11417
Vrole
p11418
atp11419
Rp11420
(dp11421
g16
VNN
p11422
sbatp11423
Rp11424
(dp11425
g16
VNP
p11426
sbatp11427
Rp11428
(dp11429
g16
VPP
p11430
sbatp11431
Rp11432
(dp11433
g16
VVP
p11434
sbatp11435
Rp11436
(dp11437
g16
VVP
p11438
sbatp11439
Rp11440
(dp11441
g16
g249
sbatp11442
Rp11443
(dp11444
g16
VVP
p11445
sbatp11446
Rp11447
(dp11448
g16
VVP
p11449
sbatp11450
Rp11451
(dp11452
g16
g249
sbatp11453
Rp11454
(dp11455
g16
VROOT
p11456
sbasg366
(icmyPackage
CorE
p11457
(dp11458
g369
(lp11459
(I0
I16
tp11460
a(I1
I14
tp11461
asg373
g5
(g6
g7
(lp11462
g11179
ag11189
ag11227
ag11326
ag11333
ag11340
ag11374
ag11382
ag11389
ag11400
ag11407
ag11414
atp11463
Rp11464
(dp11465
g16
g384
sbsbsg374
(icmyPackage
CorE
p11466
(dp11467
g369
(lp11468
(I0
I0
tp11469
a(I0
I14
tp11470
asg373
g5
(g6
g7
(lp11471
g11088
ag11093
ag11103
ag11110
ag11121
ag11128
ag11152
ag11158
ag11167
atp11472
Rp11473
(dp11474
g16
g384
sbsbsg385
g2084
sg406
(lp11475
g11276
a(isxpPackage
sxpSent
p11476
(dp11477
g410
(lp11478
I27
asg412
VTweets from those users were scraped via the Twitter API to construct corpora for each role
p11479
sg414
I8
sg399
I87
sg415
I21
sbasba(icmyPackage
CELink
p11480
(dp11481
g3
(lp11482
g5
(g6
g7
(lp11483
g5
(g6
g7
(lp11484
g5
(g6
g7
(lp11485
VFor
p11486
atp11487
Rp11488
(dp11489
g16
VIN
p11490
sbag5
(g6
g7
(lp11491
g5
(g6
g7
(lp11492
g5
(g6
g7
(lp11493
Vexample
p11494
atp11495
Rp11496
(dp11497
g16
VNN
p11498
sbatp11499
Rp11500
(dp11501
g16
VNP
p11502
sbag5
(g6
g7
(lp11503
g73
atp11504
Rp11505
(dp11506
g16
g73
sbag5
(g6
g7
(lp11507
g5
(g6
g7
(lp11508
Vif
p11509
atp11510
Rp11511
(dp11512
g16
VIN
p11513
sbag5
(g6
g7
(lp11514
g5
(g6
g7
(lp11515
g5
(g6
g7
(lp11516
Vone
p11517
atp11518
Rp11519
(dp11520
g16
VPRP
p11521
sbatp11522
Rp11523
(dp11524
g16
VNP
p11525
sbag5
(g6
g7
(lp11526
g5
(g6
g7
(lp11527
Vsends
p11528
atp11529
Rp11530
(dp11531
g16
VVBZ
p11532
sbag5
(g6
g7
(lp11533
g5
(g6
g7
(lp11534
g5
(g6
g7
(lp11535
g5
(g6
g7
(lp11536
g5
(g6
g7
(lp11537
g969
atp11538
Rp11539
(dp11540
g16
VDT
p11541
sbag5
(g6
g7
(lp11542
Vtweet
p11543
atp11544
Rp11545
(dp11546
g16
VNN
p11547
sbatp11548
Rp11549
(dp11550
g16
VNP
p11551
sbag5
(g6
g7
(lp11552
g5
(g6
g7
(lp11553
Vsaying
p11554
atp11555
Rp11556
(dp11557
g16
VVBG
p11558
sbag5
(g6
g7
(lp11559
g5
(g6
g7
(lp11560
Vmy
p11561
atp11562
Rp11563
(dp11564
g16
VPRP$
p11565
sbag5
(g6
g7
(lp11566
Vcoach
p11567
atp11568
Rp11569
(dp11570
g16
VNN
p11571
sbatp11572
Rp11573
(dp11574
g16
VNP
p11575
sbag5
(g6
g7
(lp11576
g73
atp11577
Rp11578
(dp11579
g16
g73
sbag5
(g6
g7
(lp11580
g5
(g6
g7
(lp11581
Vthen
p11582
atp11583
Rp11584
(dp11585
g16
VRB
p11586
sbatp11587
Rp11588
(dp11589
g16
VADVP
p11590
sbag5
(g6
g7
(lp11591
g5
(g6
g7
(lp11592
g5
(g6
g7
(lp11593
Vhow
p11594
atp11595
Rp11596
(dp11597
g16
VWRB
p11598
sbatp11599
Rp11600
(dp11601
g16
VWHADVP
p11602
sbag5
(g6
g7
(lp11603
g5
(g6
g7
(lp11604
Vlikely
p11605
atp11606
Rp11607
(dp11608
g16
VJJ
p11609
sbatp11610
Rp11611
(dp11612
g16
VADJP
p11613
sbatp11614
Rp11615
(dp11616
g16
VFRAG
p11617
sbatp11618
Rp11619
(dp11620
g16
VVP
p11621
sbatp11622
Rp11623
(dp11624
g16
VNP
p11625
sbag5
(g6
g7
(lp11626
g5
(g6
g7
(lp11627
Vis
p11628
atp11629
Rp11630
(dp11631
g16
VVBZ
p11632
sbag5
(g6
g7
(lp11633
g5
(g6
g7
(lp11634
Vit
p11635
atp11636
Rp11637
(dp11638
g16
VPRP
p11639
sbatp11640
Rp11641
(dp11642
g16
VNP
p11643
sbag5
(g6
g7
(lp11644
g5
(g6
g7
(lp11645
Vthat
p11646
atp11647
Rp11648
(dp11649
g16
VIN
p11650
sbag5
(g6
g7
(lp11651
g5
(g6
g7
(lp11652
g5
(g6
g7
(lp11653
Vauthor
p11654
atp11655
Rp11656
(dp11657
g16
VNN
p11658
sbatp11659
Rp11660
(dp11661
g16
VNP
p11662
sbag5
(g6
g7
(lp11663
g5
(g6
g7
(lp11664
Vis
p11665
atp11666
Rp11667
(dp11668
g16
VVBZ
p11669
sbag5
(g6
g7
(lp11670
g5
(g6
g7
(lp11671
Van
p11672
atp11673
Rp11674
(dp11675
g16
VDT
p11676
sbag5
(g6
g7
(lp11677
Vathlete
p11678
atp11679
Rp11680
(dp11681
g16
VNN
p11682
sbatp11683
Rp11684
(dp11685
g16
VNP
p11686
sbatp11687
Rp11688
(dp11689
g16
VVP
p11690
sbatp11691
Rp11692
(dp11693
g16
g249
sbatp11694
Rp11695
(dp11696
g16
VSBAR
p11697
sbatp11698
Rp11699
(dp11700
g16
VVP
p11701
sbatp11702
Rp11703
(dp11704
g16
g249
sbatp11705
Rp11706
(dp11707
g16
VSBAR
p11708
sbatp11709
Rp11710
(dp11711
g16
VVP
p11712
sbatp11713
Rp11714
(dp11715
g16
g249
sbatp11716
Rp11717
(dp11718
g16
VSBAR
p11719
sbatp11720
Rp11721
(dp11722
g16
VNP
p11723
sbatp11724
Rp11725
(dp11726
g16
VPP
p11727
sbatp11728
Rp11729
(dp11730
g16
VROOT
p11731
sbasg366
(icmyPackage
CorE
p11732
(dp11733
g369
(lp11734
(I0
I4
tp11735
a(I0
I10
tp11736
asg373
g5
(g6
g7
(lp11737
g11523
ag11530
ag11549
ag11556
ag11573
atp11738
Rp11739
(dp11740
g16
g384
sbsbsg374
(icmyPackage
CorE
p11741
(dp11742
g369
(lp11743
(I0
I13
tp11744
a(I0
I21
tp11745
asg373
g5
(g6
g7
(lp11746
g11615
ag11699
atp11747
Rp11748
(dp11749
g16
g384
sbsbsg385
(icmyPackage
pattern
p11750
(dp11751
g388
I0
sg389
I0
sg390
(lp11752
(lp11753
S'if'
p11754
aa(lp11755
S'then'
p11756
aasg394
(lp11757
I1
aI1
aI1
asg396
(lp11758
S'If representation A cites a set of representations B, and A is cited by a set of representations C, then both B and C constitute the extension of A.'
p11759
asg399
I16
sg400
(lp11760
(lp11761
a(lp11762
S'&C'
p11763
aS'(,)'
p11764
aa(lp11765
S'&R'
p11766
aasbsg406
(lp11767
(isxpPackage
sxpSent
p11768
(dp11769
g410
(lp11770
I28
asg412
VFor example, if one sends a tweet saying my coach , then how likely is it that author is an athlete
p11771
sg414
I8
sg399
I93
sg415
I23
sbasba(icmyPackage
CELink
p11772
(dp11773
g3
(lp11774
g5
(g6
g7
(lp11775
g5
(g6
g7
(lp11776
g5
(g6
g7
(lp11777
g5
(g6
g7
(lp11778
g5
(g6
g7
(lp11779
VUsing
p11780
atp11781
Rp11782
(dp11783
g16
VVBG
p11784
sbag5
(g6
g7
(lp11785
g5
(g6
g7
(lp11786
Vthe
p11787
atp11788
Rp11789
(dp11790
g16
VDT
p11791
sbag5
(g6
g7
(lp11792
Vsame
p11793
atp11794
Rp11795
(dp11796
g16
VJJ
p11797
sbag5
(g6
g7
(lp11798
Vcollection
p11799
atp11800
Rp11801
(dp11802
g16
VNN
p11803
sbatp11804
Rp11805
(dp11806
g16
VNP
p11807
sbag5
(g6
g7
(lp11808
g5
(g6
g7
(lp11809
Vas
p11810
atp11811
Rp11812
(dp11813
g16
VIN
p11814
sbag5
(g6
g7
(lp11815
g5
(g6
g7
(lp11816
Vthe
p11817
atp11818
Rp11819
(dp11820
g16
VDT
p11821
sbag5
(g6
g7
(lp11822
Vprevious
p11823
atp11824
Rp11825
(dp11826
g16
VJJ
p11827
sbag5
(g6
g7
(lp11828
Vexperiment
p11829
atp11830
Rp11831
(dp11832
g16
VNN
p11833
sbatp11834
Rp11835
(dp11836
g16
VNP
p11837
sbatp11838
Rp11839
(dp11840
g16
VPP
p11841
sbatp11842
Rp11843
(dp11844
g16
VVP
p11845
sbatp11846
Rp11847
(dp11848
g16
g249
sbag5
(g6
g7
(lp11849
g73
atp11850
Rp11851
(dp11852
g16
g73
sbag5
(g6
g7
(lp11853
g5
(g6
g7
(lp11854
Vwe
p11855
atp11856
Rp11857
(dp11858
g16
VPRP
p11859
sbatp11860
Rp11861
(dp11862
g16
VNP
p11863
sbag5
(g6
g7
(lp11864
g5
(g6
g7
(lp11865
Vtrained
p11866
atp11867
Rp11868
(dp11869
g16
VVBZ
p11870
sbag5
(g6
g7
(lp11871
g5
(g6
g7
(lp11872
g5
(g6
g7
(lp11873
Vclassifiers
p11874
atp11875
Rp11876
(dp11877
g16
VNNS
p11878
sbatp11879
Rp11880
(dp11881
g16
VNP
p11882
sbag5
(g6
g7
(lp11883
g5
(g6
g7
(lp11884
Vconditioned
p11885
atp11886
Rp11887
(dp11888
g16
VVBN
p11889
sbag5
(g6
g7
(lp11890
g5
(g6
g7
(lp11891
Von
p11892
atp11893
Rp11894
(dp11895
g16
VIN
p11896
sbag5
(g6
g7
(lp11897
g5
(g6
g7
(lp11898
g969
atp11899
Rp11900
(dp11901
g16
VDT
p11902
sbag5
(g6
g7
(lp11903
Vgiven
p11904
atp11905
Rp11906
(dp11907
g16
VVBN
p11908
sbag5
(g6
g7
(lp11909
Vattribute
p11910
atp11911
Rp11912
(dp11913
g16
VNN
p11914
sbag5
(g6
g7
(lp11915
Vterm
p11916
atp11917
Rp11918
(dp11919
g16
VNN
p11920
sbatp11921
Rp11922
(dp11923
g16
VNP
p11924
sbatp11925
Rp11926
(dp11927
g16
VPP
p11928
sbatp11929
Rp11930
(dp11931
g16
VVP
p11932
sbatp11933
Rp11934
(dp11935
g16
VNP
p11936
sbatp11937
Rp11938
(dp11939
g16
VVP
p11940
sbatp11941
Rp11942
(dp11943
g16
g249
sbatp11944
Rp11945
(dp11946
g16
VROOT
p11947
sbasg366
(icmyPackage
CorE
p11948
(dp11949
g369
(lp11950
(I0
I0
tp11951
a(I0
I7
tp11952
asg373
g11847
sbsg374
(icmyPackage
CorE
p11953
(dp11954
g369
(lp11955
(I0
I9
tp11956
a(I0
I17
tp11957
asg373
g5
(g6
g7
(lp11958
g11861
ag11938
atp11959
Rp11960
(dp11961
g16
g384
sbsbsg385
g758
sg406
(lp11962
(isxpPackage
sxpSent
p11963
(dp11964
g410
(lp11965
I29
asg412
VUsing the same collection as the previous experiment, we trained classifiers conditioned on a given attribute term
p11966
sg414
I8
sg399
I94
sg415
I24
sbasba(icmyPackage
CELink
p11967
(dp11968
g3
(lp11969
g5
(g6
g7
(lp11970
g5
(g6
g7
(lp11971
g5
(g6
g7
(lp11972
g5
(g6
g7
(lp11973
VOur
p11974
atp11975
Rp11976
(dp11977
g16
VPRP$
p11978
sbag5
(g6
g7
(lp11979
Vresults
p11980
atp11981
Rp11982
(dp11983
g16
VNNS
p11984
sbatp11985
Rp11986
(dp11987
g16
VNP
p11988
sbag5
(g6
g7
(lp11989
g5
(g6
g7
(lp11990
Vare
p11991
atp11992
Rp11993
(dp11994
g16
VVBP
p11995
sbag5
(g6
g7
(lp11996
g5
(g6
g7
(lp11997
Vbased
p11998
atp11999
Rp12000
(dp12001
g16
VVBN
p12002
sbag5
(g6
g7
(lp12003
g5
(g6
g7
(lp12004
Von
p12005
atp12006
Rp12007
(dp12008
g16
VIN
p12009
sbag5
(g6
g7
(lp12010
g5
(g6
g7
(lp12011
g5
(g6
g7
(lp12012
Vsimple
p12013
atp12014
Rp12015
(dp12016
g16
VJJ
p12017
sbag5
(g6
g7
(lp12018
g73
atp12019
Rp12020
(dp12021
g16
g73
sbag5
(g6
g7
(lp12022
Vintuitive
p12023
atp12024
Rp12025
(dp12026
g16
VJJ
p12027
sbatp12028
Rp12029
(dp12030
g16
VADJP
p12031
sbag5
(g6
g7
(lp12032
Vsearch
p12033
atp12034
Rp12035
(dp12036
g16
VNN
p12037
sbag5
(g6
g7
(lp12038
Vpatterns
p12039
atp12040
Rp12041
(dp12042
g16
VNNS
p12043
sbatp12044
Rp12045
(dp12046
g16
VNP
p12047
sbatp12048
Rp12049
(dp12050
g16
VPP
p12051
sbag5
(g6
g7
(lp12052
g5
(g6
g7
(lp12053
Vwith
p12054
atp12055
Rp12056
(dp12057
g16
VIN
p12058
sbag5
(g6
g7
(lp12059
g5
(g6
g7
(lp12060
g5
(g6
g7
(lp12061
Vminimal
p12062
atp12063
Rp12064
(dp12065
g16
VJJ
p12066
sbag5
(g6
g7
(lp12067
Vadditional
p12068
atp12069
Rp12070
(dp12071
g16
VJJ
p12072
sbag5
(g6
g7
(lp12073
Vfiltering
p12074
atp12075
Rp12076
(dp12077
g16
VNNS
p12078
sbatp12079
Rp12080
(dp12081
g16
VNP
p12082
sbag5
(g6
g7
(lp12083
g5
(g6
g7
(lp12084
g5
(g6
g7
(lp12085
g5
(g6
g7
(lp12086
Vthis
p12087
atp12088
Rp12089
(dp12090
g16
VDT
p12091
sbatp12092
Rp12093
(dp12094
g16
VNP
p12095
sbag5
(g6
g7
(lp12096
g5
(g6
g7
(lp12097
g5
(g6
g7
(lp12098
Vestablishes
p12099
atp12100
Rp12101
(dp12102
g16
VVBZ
p12103
sbag5
(g6
g7
(lp12104
g5
(g6
g7
(lp12105
g5
(g6
g7
(lp12106
Vthe
p12107
atp12108
Rp12109
(dp12110
g16
VDT
p12111
sbag5
(g6
g7
(lp12112
Vfeasibility
p12113
atp12114
Rp12115
(dp12116
g16
VNN
p12117
sbatp12118
Rp12119
(dp12120
g16
VNP
p12121
sbag5
(g6
g7
(lp12122
g5
(g6
g7
(lp12123
Vof
p12124
atp12125
Rp12126
(dp12127
g16
VIN
p12128
sbag5
(g6
g7
(lp12129
g5
(g6
g7
(lp12130
Vthe
p12131
atp12132
Rp12133
(dp12134
g16
VDT
p12135
sbag5
(g6
g7
(lp12136
Vtask
p12137
atp12138
Rp12139
(dp12140
g16
VNN
p12141
sbatp12142
Rp12143
(dp12144
g16
VNP
p12145
sbatp12146
Rp12147
(dp12148
g16
VPP
p12149
sbatp12150
Rp12151
(dp12152
g16
VNP
p12153
sbatp12154
Rp12155
(dp12156
g16
VVP
p12157
sbag5
(g6
g7
(lp12158
g73
atp12159
Rp12160
(dp12161
g16
g73
sbag5
(g6
g7
(lp12162
Vbut
p12163
atp12164
Rp12165
(dp12166
g16
VCC
p12167
sbag5
(g6
g7
(lp12168
g5
(g6
g7
(lp12169
Vleaves
p12170
atp12171
Rp12172
(dp12173
g16
VVBZ
p12174
sbag5
(g6
g7
(lp12175
g5
(g6
g7
(lp12176
Vwide
p12177
atp12178
Rp12179
(dp12180
g16
VJJ
p12181
sbag5
(g6
g7
(lp12182
Vroom
p12183
atp12184
Rp12185
(dp12186
g16
VNN
p12187
sbatp12188
Rp12189
(dp12190
g16
VNP
p12191
sbag5
(g6
g7
(lp12192
g5
(g6
g7
(lp12193
Vfor
p12194
atp12195
Rp12196
(dp12197
g16
VIN
p12198
sbag5
(g6
g7
(lp12199
g5
(g6
g7
(lp12200
Vfuture
p12201
atp12202
Rp12203
(dp12204
g16
VJJ
p12205
sbag5
(g6
g7
(lp12206
Vwork
p12207
atp12208
Rp12209
(dp12210
g16
VNN
p12211
sbatp12212
Rp12213
(dp12214
g16
VNP
p12215
sbatp12216
Rp12217
(dp12218
g16
VPP
p12219
sbatp12220
Rp12221
(dp12222
g16
VVP
p12223
sbatp12224
Rp12225
(dp12226
g16
VVP
p12227
sbatp12228
Rp12229
(dp12230
g16
g249
sbatp12231
Rp12232
(dp12233
g16
VSBAR
p12234
sbatp12235
Rp12236
(dp12237
g16
VNP
p12238
sbatp12239
Rp12240
(dp12241
g16
VPP
p12242
sbag5
(g6
g7
(lp12243
g73
atp12244
Rp12245
(dp12246
g16
g73
sbag5
(g6
g7
(lp12247
g5
(g6
g7
(lp12248
Vboth
p12249
atp12250
Rp12251
(dp12252
g16
VDT
p12253
sbag5
(g6
g7
(lp12254
Vin
p12255
atp12256
Rp12257
(dp12258
g16
VIN
p12259
sbag5
(g6
g7
(lp12260
g5
(g6
g7
(lp12261
g5
(g6
g7
(lp12262
g5
(g6
g7
(lp12263
Vthe
p12264
atp12265
Rp12266
(dp12267
g16
VDT
p12268
sbag5
(g6
g7
(lp12269
Vsophistication
p12270
atp12271
Rp12272
(dp12273
g16
VNN
p12274
sbatp12275
Rp12276
(dp12277
g16
VNP
p12278
sbag5
(g6
g7
(lp12279
g5
(g6
g7
(lp12280
Vin
p12281
atp12282
Rp12283
(dp12284
g16
VIN
p12285
sbag5
(g6
g7
(lp12286
g5
(g6
g7
(lp12287
Vmethodology
p12288
atp12289
Rp12290
(dp12291
g16
VNN
p12292
sbatp12293
Rp12294
(dp12295
g16
VNP
p12296
sbatp12297
Rp12298
(dp12299
g16
VPP
p12300
sbatp12301
Rp12302
(dp12303
g16
VNP
p12304
sbag5
(g6
g7
(lp12305
g5
(g6
g7
(lp12306
Vas
p12307
atp12308
Rp12309
(dp12310
g16
VRB
p12311
sbag5
(g6
g7
(lp12312
Vwell
p12313
atp12314
Rp12315
(dp12316
g16
VRB
p12317
sbag5
(g6
g7
(lp12318
Vas
p12319
atp12320
Rp12321
(dp12322
g16
VIN
p12323
sbatp12324
Rp12325
(dp12326
g16
VCONJP
p12327
sbag5
(g6
g7
(lp12328
g5
(g6
g7
(lp12329
g5
(g6
g7
(lp12330
Vthe
p12331
atp12332
Rp12333
(dp12334
g16
VDT
p12335
sbag5
(g6
g7
(lp12336
Vdiversity
p12337
atp12338
Rp12339
(dp12340
g16
VNN
p12341
sbatp12342
Rp12343
(dp12344
g16
VNP
p12345
sbag5
(g6
g7
(lp12346
g5
(g6
g7
(lp12347
Vof
p12348
atp12349
Rp12350
(dp12351
g16
VIN
p12352
sbag5
(g6
g7
(lp12353
g5
(g6
g7
(lp12354
Vroles
p12355
atp12356
Rp12357
(dp12358
g16
VNNS
p12359
sbag5
(g6
g7
(lp12360
g5
(g6
g7
(lp12361
g5
(g6
g7
(lp12362
Vto
p12363
atp12364
Rp12365
(dp12366
g16
VTO
p12367
sbag5
(g6
g7
(lp12368
g5
(g6
g7
(lp12369
Vbe
p12370
atp12371
Rp12372
(dp12373
g16
VVB
p12374
sbag5
(g6
g7
(lp12375
g5
(g6
g7
(lp12376
Vtargeted
p12377
atp12378
Rp12379
(dp12380
g16
VVBN
p12381
sbatp12382
Rp12383
(dp12384
g16
VVP
p12385
sbatp12386
Rp12387
(dp12388
g16
VVP
p12389
sbatp12390
Rp12391
(dp12392
g16
VVP
p12393
sbatp12394
Rp12395
(dp12396
g16
g249
sbatp12397
Rp12398
(dp12399
g16
VNP
p12400
sbatp12401
Rp12402
(dp12403
g16
VPP
p12404
sbatp12405
Rp12406
(dp12407
g16
VNP
p12408
sbatp12409
Rp12410
(dp12411
g16
VNP
p12412
sbatp12413
Rp12414
(dp12415
g16
VPP
p12416
sbatp12417
Rp12418
(dp12419
g16
VVP
p12420
sbatp12421
Rp12422
(dp12423
g16
VVP
p12424
sbatp12425
Rp12426
(dp12427
g16
g249
sbatp12428
Rp12429
(dp12430
g16
VROOT
p12431
sbasg366
(icmyPackage
CorE
p12432
(dp12433
g369
(lp12434
(I0
I5
tp12435
a(I0
I44
tp12436
asg373
g5
(g6
g7
(lp12437
g12045
ag12240
ag12245
ag12251
ag12257
ag12302
ag12325
ag12343
ag12350
ag12357
ag12365
ag12372
atp12438
Rp12439
(dp12440
g16
g384
sbsbsg374
(icmyPackage
CorE
p12441
(dp12442
g369
(lp12443
(I0
I0
tp12444
a(I0
I1
tp12445
asg373
g11986
sbsg385
(icmyPackage
pattern
p12446
(dp12447
g388
I0
sg389
I0
sg390
(lp12448
(lp12449
S'based'
p12450
aS'on'
p12451
aasg394
(lp12452
I4
aI1
aI3
asg396
(lp12453
S'The time of the subsequent synchronization intervals is based on the time that this command is initiated.'
p12454
asg399
I115
sg400
(lp12455
(lp12456
S'&V-ing/&NP@R@'
p12457
aS'(&Clause@R@)'
p12458
aS'&BE'
p12459
aS'(&ADV)'
p12460
aa(lp12461
S'&NP@C@'
p12462
aS'(&Clause@C@)'
p12463
aasbsg406
(lp12464
(isxpPackage
sxpSent
p12465
(dp12466
g410
(lp12467
I30
asg412
VOur results are based on simple, intuitive search patterns with minimal additional filtering this establishes the feasibility of the task, but leaves wide room for future work, both in the sophistication in methodology as well as the diversity of roles to be targeted
p12468
sg414
I10
sg399
I98
sg415
I25
sbasba(icmyPackage
CELink
p12469
(dp12470
g3
(lp12471
g5
(g6
g7
(lp12472
g5
(g6
g7
(lp12473
g5
(g6
g7
(lp12474
g5
(g6
g7
(lp12475
VThis
p12476
atp12477
Rp12478
(dp12479
g16
VDT
p12480
sbag5
(g6
g7
(lp12481
Vmaterial
p12482
atp12483
Rp12484
(dp12485
g16
VNN
p12486
sbatp12487
Rp12488
(dp12489
g16
VNP
p12490
sbag5
(g6
g7
(lp12491
g5
(g6
g7
(lp12492
Vis
p12493
atp12494
Rp12495
(dp12496
g16
VVBZ
p12497
sbag5
(g6
g7
(lp12498
g5
(g6
g7
(lp12499
Vpartially
p12500
atp12501
Rp12502
(dp12503
g16
VRB
p12504
sbatp12505
Rp12506
(dp12507
g16
VADVP
p12508
sbag5
(g6
g7
(lp12509
g5
(g6
g7
(lp12510
Vbased
p12511
atp12512
Rp12513
(dp12514
g16
VVBN
p12515
sbag5
(g6
g7
(lp12516
g5
(g6
g7
(lp12517
Von
p12518
atp12519
Rp12520
(dp12521
g16
VIN
p12522
sbag5
(g6
g7
(lp12523
g5
(g6
g7
(lp12524
g5
(g6
g7
(lp12525
Vresearch
p12526
atp12527
Rp12528
(dp12529
g16
VNN
p12530
sbatp12531
Rp12532
(dp12533
g16
VNP
p12534
sbag5
(g6
g7
(lp12535
g5
(g6
g7
(lp12536
Vsponsored
p12537
atp12538
Rp12539
(dp12540
g16
VVBN
p12541
sbag5
(g6
g7
(lp12542
g5
(g6
g7
(lp12543
Vby
p12544
atp12545
Rp12546
(dp12547
g16
VIN
p12548
sbag5
(g6
g7
(lp12549
g5
(g6
g7
(lp12550
Vthe
p12551
atp12552
Rp12553
(dp12554
g16
VDT
p12555
sbag5
(g6
g7
(lp12556
VNSF
p12557
atp12558
Rp12559
(dp12560
g16
VNNP
p12561
sbatp12562
Rp12563
(dp12564
g16
VNP
p12565
sbatp12566
Rp12567
(dp12568
g16
VPP
p12569
sbag5
(g6
g7
(lp12570
g5
(g6
g7
(lp12571
g5
(g6
g7
(lp12572
Vunder
p12573
atp12574
Rp12575
(dp12576
g16
VIN
p12577
sbag5
(g6
g7
(lp12578
g5
(g6
g7
(lp12579
g5
(g6
g7
(lp12580
Vgrants
p12581
atp12582
Rp12583
(dp12584
g16
VNNS
p12585
sbatp12586
Rp12587
(dp12588
g16
VNP
p12589
sbag5
(g6
g7
(lp12590
g5
(g6
g7
(lp12591
VDGE-123285
p12592
atp12593
Rp12594
(dp12595
g16
VJJ
p12596
sbag5
(g6
g7
(lp12597
Vand
p12598
atp12599
Rp12600
(dp12601
g16
VCC
p12602
sbag5
(g6
g7
(lp12603
VIIS-1249516
p12604
atp12605
Rp12606
(dp12607
g16
VJJ
p12608
sbatp12609
Rp12610
(dp12611
g16
VADJP
p12612
sbatp12613
Rp12614
(dp12615
g16
VNP
p12616
sbatp12617
Rp12618
(dp12619
g16
VPP
p12620
sbag5
(g6
g7
(lp12621
Vand
p12622
atp12623
Rp12624
(dp12625
g16
VCC
p12626
sbag5
(g6
g7
(lp12627
g5
(g6
g7
(lp12628
Vby
p12629
atp12630
Rp12631
(dp12632
g16
VIN
p12633
sbag5
(g6
g7
(lp12634
g5
(g6
g7
(lp12635
g5
(g6
g7
(lp12636
VDARPA
p12637
atp12638
Rp12639
(dp12640
g16
VNNP
p12641
sbatp12642
Rp12643
(dp12644
g16
VNP
p12645
sbag5
(g6
g7
(lp12646
g5
(g6
g7
(lp12647
Vunder
p12648
atp12649
Rp12650
(dp12651
g16
VIN
p12652
sbag5
(g6
g7
(lp12653
g5
(g6
g7
(lp12654
Vagreement
p12655
atp12656
Rp12657
(dp12658
g16
VNN
p12659
sbag5
(g6
g7
(lp12660
Vnumber
p12661
atp12662
Rp12663
(dp12664
g16
VNN
p12665
sbag5
(g6
g7
(lp12666
VFA8750-13-2-0017
p12667
atp12668
Rp12669
(dp12670
g16
VNN
p12671
sbatp12672
Rp12673
(dp12674
g16
VNP
p12675
sbatp12676
Rp12677
(dp12678
g16
VPP
p12679
sbatp12680
Rp12681
(dp12682
g16
VNP
p12683
sbatp12684
Rp12685
(dp12686
g16
VPP
p12687
sbag5
(g6
g7
(lp12688
g5
(g6
g7
(lp12689
V-LRB-
p12690
atp12691
Rp12692
(dp12693
g16
V-LRB-
p12694
sbag5
(g6
g7
(lp12695
Vthe
p12696
atp12697
Rp12698
(dp12699
g16
VDT
p12700
sbag5
(g6
g7
(lp12701
VDEFT
p12702
atp12703
Rp12704
(dp12705
g16
VNNP
p12706
sbag5
(g6
g7
(lp12707
Vprogram
p12708
atp12709
Rp12710
(dp12711
g16
VNN
p12712
sbatp12713
Rp12714
(dp12715
g16
VNP
p12716
sbatp12717
Rp12718
(dp12719
g16
VPP
p12720
sbatp12721
Rp12722
(dp12723
g16
VVP
p12724
sbatp12725
Rp12726
(dp12727
g16
VNP
p12728
sbatp12729
Rp12730
(dp12731
g16
VPP
p12732
sbatp12733
Rp12734
(dp12735
g16
VVP
p12736
sbatp12737
Rp12738
(dp12739
g16
VVP
p12740
sbatp12741
Rp12742
(dp12743
g16
g249
sbatp12744
Rp12745
(dp12746
g16
VROOT
p12747
sbasg366
(icmyPackage
CorE
p12748
(dp12749
g369
(lp12750
(I0
I6
tp12751
a(I0
I26
tp12752
asg373
g12726
sbsg374
(icmyPackage
CorE
p12753
(dp12754
g369
(lp12755
(I0
I0
tp12756
a(I0
I3
tp12757
asg373
g5
(g6
g7
(lp12758
g12488
ag12495
ag12506
atp12759
Rp12760
(dp12761
g16
g384
sbsbsg385
g1097
sg406
(lp12762
(isxpPackage
sxpSent
p12763
(dp12764
g410
(lp12765
I31
asg412
VThis material is partially based on research sponsored by the NSF under grants DGE-123285 and IIS-1249516 and by DARPA under agreement number FA8750-13-2-0017 (the DEFT program
p12766
sg414
I10
sg399
I101
sg415
I26
sbasba.