(lp0
(icmyPackage
CELink
p1
(dp2
S'PTreelst'
p3
(lp4
ccopy_reg
_reconstructor
p5
(cnltk.tree
Tree
p6
c__builtin__
list
p7
(lp8
g5
(g6
g7
(lp9
g5
(g6
g7
(lp10
g5
(g6
g7
(lp11
VIn
p12
atp13
Rp14
(dp15
S'_label'
p16
VIN
p17
sbag5
(g6
g7
(lp18
g5
(g6
g7
(lp19
Vall
p20
atp21
Rp22
(dp23
g16
VPDT
p24
sbag5
(g6
g7
(lp25
Vthese
p26
atp27
Rp28
(dp29
g16
VDT
p30
sbag5
(g6
g7
(lp31
Vcases
p32
atp33
Rp34
(dp35
g16
VNNS
p36
sbatp37
Rp38
(dp39
g16
VNP
p40
sbatp41
Rp42
(dp43
g16
VPP
p44
sbag5
(g6
g7
(lp45
V,
p46
atp47
Rp48
(dp49
g16
g46
sbag5
(g6
g7
(lp50
g5
(g6
g7
(lp51
Vthe
p52
atp53
Rp54
(dp55
g16
VDT
p56
sbag5
(g6
g7
(lp57
Vmisspelled
p58
atp59
Rp60
(dp61
g16
VJJ
p62
sbag5
(g6
g7
(lp63
Vword
p64
atp65
Rp66
(dp67
g16
VNN
p68
sbatp69
Rp70
(dp71
g16
VNP
p72
sbag5
(g6
g7
(lp73
g5
(g6
g7
(lp74
Vcontains
p75
atp76
Rp77
(dp78
g16
VVBZ
p79
sbag5
(g6
g7
(lp80
g5
(g6
g7
(lp81
g5
(g6
g7
(lp82
g5
(g6
g7
(lp83
g5
(g6
g7
(lp84
Vmany
p85
atp86
Rp87
(dp88
g16
VJJ
p89
sbag5
(g6
g7
(lp90
Verrors
p91
atp92
Rp93
(dp94
g16
VNNS
p95
sbatp96
Rp97
(dp98
g16
VNP
p99
sbag5
(g6
g7
(lp100
Vand
p101
atp102
Rp103
(dp104
g16
VCC
p105
sbag5
(g6
g7
(lp106
g5
(g6
g7
(lp107
Vthe
p108
atp109
Rp110
(dp111
g16
VDT
p112
sbag5
(g6
g7
(lp113
Vcorresponding
p114
atp115
Rp116
(dp117
g16
VJJ
p118
sbag5
(g6
g7
(lp119
Verror
p120
atp121
Rp122
(dp123
g16
VNN
p124
sbag5
(g6
g7
(lp125
Vmodel
p126
atp127
Rp128
(dp129
g16
VNN
p130
sbag5
(g6
g7
(lp131
Vpenalty
p132
atp133
Rp134
(dp135
g16
VNN
p136
sbatp137
Rp138
(dp139
g16
VNP
p140
sbatp141
Rp142
(dp143
g16
VNP
p144
sbag5
(g6
g7
(lp145
g5
(g6
g7
(lp146
Vcan
p147
atp148
Rp149
(dp150
g16
VMD
p151
sbag5
(g6
g7
(lp152
Vnot
p153
atp154
Rp155
(dp156
g16
VRB
p157
sbag5
(g6
g7
(lp158
g5
(g6
g7
(lp159
Vbe
p160
atp161
Rp162
(dp163
g16
VVB
p164
sbag5
(g6
g7
(lp165
g5
(g6
g7
(lp166
Vcompensated
p167
atp168
Rp169
(dp170
g16
VVBN
p171
sbag5
(g6
g7
(lp172
g5
(g6
g7
(lp173
Vby
p174
atp175
Rp176
(dp177
g16
VIN
p178
sbag5
(g6
g7
(lp179
g5
(g6
g7
(lp180
g5
(g6
g7
(lp181
Vthe
p182
atp183
Rp184
(dp185
g16
VDT
p186
sbag5
(g6
g7
(lp187
VLM
p188
atp189
Rp190
(dp191
g16
VNNP
p192
sbag5
(g6
g7
(lp193
Vweight
p194
atp195
Rp196
(dp197
g16
VNN
p198
sbatp199
Rp200
(dp201
g16
VNP
p202
sbag5
(g6
g7
(lp203
g5
(g6
g7
(lp204
Vof
p205
atp206
Rp207
(dp208
g16
VIN
p209
sbag5
(g6
g7
(lp210
g5
(g6
g7
(lp211
Vits
p212
atp213
Rp214
(dp215
g16
VPRP$
p216
sbag5
(g6
g7
(lp217
Vproper
p218
atp219
Rp220
(dp221
g16
VJJ
p222
sbag5
(g6
g7
(lp223
Vform
p224
atp225
Rp226
(dp227
g16
VNN
p228
sbatp229
Rp230
(dp231
g16
VNP
p232
sbatp233
Rp234
(dp235
g16
VPP
p236
sbatp237
Rp238
(dp239
g16
VNP
p240
sbatp241
Rp242
(dp243
g16
VPP
p244
sbatp245
Rp246
(dp247
g16
VVP
p248
sbatp249
Rp250
(dp251
g16
VVP
p252
sbatp253
Rp254
(dp255
g16
VVP
p256
sbatp257
Rp258
(dp259
g16
VS
p260
sbatp261
Rp262
(dp263
g16
VSBAR
p264
sbatp265
Rp266
(dp267
g16
VVP
p268
sbatp269
Rp270
(dp271
g16
g260
sbatp272
Rp273
(dp274
g16
VROOT
p275
sbag5
(g6
g7
(lp276
g5
(g6
g7
(lp277
g5
(g6
g7
(lp278
g5
(g6
g7
(lp279
VAs
p280
atp281
Rp282
(dp283
g16
VIN
p284
sbag5
(g6
g7
(lp285
g5
(g6
g7
(lp286
Va
p287
atp288
Rp289
(dp290
g16
VDT
p291
sbag5
(g6
g7
(lp292
Vresult
p293
atp294
Rp295
(dp296
g16
VNN
p297
sbatp298
Rp299
(dp300
g16
VNP
p301
sbatp302
Rp303
(dp304
g16
VPP
p305
sbag5
(g6
g7
(lp306
g46
atp307
Rp308
(dp309
g16
g46
sbag5
(g6
g7
(lp310
g5
(g6
g7
(lp311
g5
(g6
g7
(lp312
Veither
p313
atp314
Rp315
(dp316
g16
VRB
p317
sbag5
(g6
g7
(lp318
g5
(g6
g7
(lp319
Vthe
p320
atp321
Rp322
(dp323
g16
VDT
p324
sbag5
(g6
g7
(lp325
Vmisspelled
p326
atp327
Rp328
(dp329
g16
VJJ
p330
sbag5
(g6
g7
(lp331
Vword
p332
atp333
Rp334
(dp335
g16
VNN
p336
sbatp337
Rp338
(dp339
g16
VNP
p340
sbag5
(g6
g7
(lp341
g5
(g6
g7
(lp342
Vitself
p343
atp344
Rp345
(dp346
g16
VPRP
p347
sbatp348
Rp349
(dp350
g16
VADVP
p351
sbatp352
Rp353
(dp354
g16
VNP
p355
sbag5
(g6
g7
(lp356
g46
atp357
Rp358
(dp359
g16
g46
sbag5
(g6
g7
(lp360
Vor
p361
atp362
Rp363
(dp364
g16
VCC
p365
sbag5
(g6
g7
(lp366
g5
(g6
g7
(lp367
Vthe
p368
atp369
Rp370
(dp371
g16
VDT
p372
sbag5
(g6
g7
(lp373
g5
(g6
g7
(lp374
g5
(g6
g7
(lp375
Vother
p376
atp377
Rp378
(dp379
g16
VJJ
p380
sbatp381
Rp382
(dp383
g16
VADJP
p384
sbag5
(g6
g7
(lp385
g5
(g6
g7
(lp386
V-LRB-
p387
atp388
Rp389
(dp390
g16
V-LRB-
p391
sbag5
(g6
g7
(lp392
g5
(g6
g7
(lp393
g5
(g6
g7
(lp394
Vless
p395
atp396
Rp397
(dp398
g16
VRBR
p399
sbag5
(g6
g7
(lp400
Vcomplicated
p401
atp402
Rp403
(dp404
g16
VJJ
p405
sbatp406
Rp407
(dp408
g16
VADJP
p409
sbag5
(g6
g7
(lp410
g46
atp411
Rp412
(dp413
g16
g46
sbag5
(g6
g7
(lp414
g5
(g6
g7
(lp415
g5
(g6
g7
(lp416
Vmore
p417
atp418
Rp419
(dp420
g16
VJJR
p421
sbatp422
Rp423
(dp424
g16
VNP
p425
sbag5
(g6
g7
(lp426
g5
(g6
g7
(lp427
Vfrequent
p428
atp429
Rp430
(dp431
g16
VJJ
p432
sbatp433
Rp434
(dp435
g16
VADJP
p436
sbatp437
Rp438
(dp439
g16
VNP
p440
sbatp441
Rp442
(dp443
g16
VFRAG
p444
sbag5
(g6
g7
(lp445
V-RRB-
p446
atp447
Rp448
(dp449
g16
V-RRB-
p450
sbatp451
Rp452
(dp453
g16
VPRN
p454
sbatp455
Rp456
(dp457
g16
VADJP
p458
sbag5
(g6
g7
(lp459
Vmisspelling
p460
atp461
Rp462
(dp463
g16
VNN
p464
sbatp465
Rp466
(dp467
g16
VNP
p468
sbag5
(g6
g7
(lp469
g5
(g6
g7
(lp470
Vof
p471
atp472
Rp473
(dp474
g16
VIN
p475
sbag5
(g6
g7
(lp476
g5
(g6
g7
(lp477
Vthe
p478
atp479
Rp480
(dp481
g16
VDT
p482
sbag5
(g6
g7
(lp483
Vsame
p484
atp485
Rp486
(dp487
g16
VJJ
p488
sbag5
(g6
g7
(lp489
Vword
p490
atp491
Rp492
(dp493
g16
VNN
p494
sbatp495
Rp496
(dp497
g16
VNP
p498
sbatp499
Rp500
(dp501
g16
VPP
p502
sbatp503
Rp504
(dp505
g16
VNP
p506
sbag5
(g6
g7
(lp507
g5
(g6
g7
(lp508
Vwins
p509
atp510
Rp511
(dp512
g16
VVBZ
p513
sbag5
(g6
g7
(lp514
g5
(g6
g7
(lp515
Vthe
p516
atp517
Rp518
(dp519
g16
VDT
p520
sbag5
(g6
g7
(lp521
Vlikelihood
p522
atp523
Rp524
(dp525
g16
VNN
p526
sbag5
(g6
g7
(lp527
Vrace
p528
atp529
Rp530
(dp531
g16
VNN
p532
sbatp533
Rp534
(dp535
g16
VNP
p536
sbatp537
Rp538
(dp539
g16
VVP
p540
sbatp541
Rp542
(dp543
g16
g260
sbatp544
Rp545
(dp546
g16
VROOT
p547
sbasS'cause'
p548
(icmyPackage
CorE
p549
(dp550
S'span'
p551
(lp552
(I0
I0
tp553
a(I0
I28
tp554
asS'PTree'
p555
g273
sbsS'effect'
p556
(icmyPackage
CorE
p557
(dp558
g551
(lp559
(I1
I4
tp560
a(I1
I28
tp561
asg555
g5
(g6
g7
(lp562
g504
ag538
atp563
Rp564
(dp565
g16
S'ROOT'
p566
sbsbsS'pt'
p567
(icmyPackage
pattern
p568
(dp569
S'pfreq'
p570
I3
sS'moresent'
p571
I1
sS'main_token'
p572
(lp573
(lp574
S'as'
p575
aS'a'
p576
aa(lp577
S'result'
p578
aasS'ptype'
p579
(lp580
I1
aI1
aI1
asS'cases'
p581
(lp582
S'All singers kept together. As a result,their performance was successful.'
p583
asS'id'
p584
I5
sS'constraints'
p585
(lp586
(lp587
S'&C'
p588
aS'(,/;/./--)'
p589
aS'(&AND)'
p590
aa(lp591
S'(&ADJ)'
p592
aa(lp593
S'(,)'
p594
aS'&R'
p595
aasbsS'sInfo'
p596
(lp597
(isxpPackage
sxpSent
p598
(dp599
S'sysCEidlst'
p600
(lp601
I0
asS'sentence_text'
p602
VIn all these cases, the misspelled word contains many errors and the corresponding error model penalty cannot be compensated by the LM weight of its proper form
p603
sS'id_sec'
p604
I2
sg584
I8
sS'id_para'
p605
I2
sba(isxpPackage
sxpSent
p606
(dp607
g600
(lp608
I0
asg602
VAs a result, either the misspelled word itself, or the other (less complicated, more frequent) misspelling of the same word wins the likelihood race
p609
sg604
I2
sg584
I9
sg605
I2
sbasba(icmyPackage
CELink
p610
(dp611
g3
(lp612
g5
(g6
g7
(lp613
g5
(g6
g7
(lp614
g5
(g6
g7
(lp615
g5
(g6
g7
(lp616
VFor
p617
atp618
Rp619
(dp620
g16
VIN
p621
sbag5
(g6
g7
(lp622
g5
(g6
g7
(lp623
Vthis
p624
atp625
Rp626
(dp627
g16
VDT
p628
sbag5
(g6
g7
(lp629
Vpurpose
p630
atp631
Rp632
(dp633
g16
VNN
p634
sbatp635
Rp636
(dp637
g16
VNP
p638
sbatp639
Rp640
(dp641
g16
VPP
p642
sbag5
(g6
g7
(lp643
g5
(g6
g7
(lp644
Vwe
p645
atp646
Rp647
(dp648
g16
VPRP
p649
sbatp650
Rp651
(dp652
g16
VNP
p653
sbag5
(g6
g7
(lp654
g5
(g6
g7
(lp655
Vused
p656
atp657
Rp658
(dp659
g16
VVBD
p660
sbag5
(g6
g7
(lp661
g5
(g6
g7
(lp662
g287
atp663
Rp664
(dp665
g16
VDT
p666
sbag5
(g6
g7
(lp667
Vmethod
p668
atp669
Rp670
(dp671
g16
VNN
p672
sbatp673
Rp674
(dp675
g16
VNP
p676
sbag5
(g6
g7
(lp677
g5
(g6
g7
(lp678
Vbased
p679
atp680
Rp681
(dp682
g16
VVBN
p683
sbag5
(g6
g7
(lp684
g5
(g6
g7
(lp685
Von
p686
atp687
Rp688
(dp689
g16
VIN
p690
sbag5
(g6
g7
(lp691
g5
(g6
g7
(lp692
Vthe
p693
atp694
Rp695
(dp696
g16
VDT
p697
sbag5
(g6
g7
(lp698
Vsimulated
p699
atp700
Rp701
(dp702
g16
VJJ
p703
sbag5
(g6
g7
(lp704
Vannealing
p705
atp706
Rp707
(dp708
g16
VNN
p709
sbag5
(g6
g7
(lp710
Valgorithm
p711
atp712
Rp713
(dp714
g16
VNN
p715
sbatp716
Rp717
(dp718
g16
VNP
p719
sbatp720
Rp721
(dp722
g16
VPP
p723
sbatp724
Rp725
(dp726
g16
VPP
p727
sbatp728
Rp729
(dp730
g16
VVP
p731
sbatp732
Rp733
(dp734
g16
g260
sbatp735
Rp736
(dp737
g16
VROOT
p738
sbasg548
(icmyPackage
CorE
p739
(dp740
g551
(lp741
(I0
I9
tp742
a(I0
I12
tp743
asg555
g717
sbsg556
(icmyPackage
CorE
p744
(dp745
g551
(lp746
(I0
I0
tp747
a(I0
I6
tp748
asg555
g5
(g6
g7
(lp749
g640
ag651
ag658
ag674
atp750
Rp751
(dp752
g16
g566
sbsbsg567
(icmyPackage
pattern
p753
(dp754
g570
I0
sg571
I0
sg572
(lp755
(lp756
S'based'
p757
aS'on'
p758
aasg579
(lp759
I2
aI1
aI1
asg581
(lp760
S'He said he planned to announce details of legislation on Sunday based on a Republican plan that would provide a short-term solution'
p761
asg584
I48
sg585
(lp762
(lp763
S'&R'
p764
aS'(,)'
p765
aS'(&ADV)'
p766
aa(lp767
S'&V-ing/&NP@C@'
p768
aS'(&Clause@C@)'
p769
aasbsg596
(lp770
(isxpPackage
sxpSent
p771
(dp772
g600
(lp773
I1
asg602
VFor this purpose we used a method based on the simulated annealing algorithm
p774
sg604
I2
sg584
I13
sg605
I3
sbasba(icmyPackage
CELink
p775
(dp776
g3
(lp777
g5
(g6
g7
(lp778
g5
(g6
g7
(lp779
g5
(g6
g7
(lp780
g5
(g6
g7
(lp781
VThese
p782
atp783
Rp784
(dp785
g16
VDT
p786
sbag5
(g6
g7
(lp787
Vtechniques
p788
atp789
Rp790
(dp791
g16
VNNS
p792
sbatp793
Rp794
(dp795
g16
VNP
p796
sbag5
(g6
g7
(lp797
g5
(g6
g7
(lp798
Vcan
p799
atp800
Rp801
(dp802
g16
VMD
p803
sbag5
(g6
g7
(lp804
g5
(g6
g7
(lp805
Vbe
p806
atp807
Rp808
(dp809
g16
VVB
p810
sbag5
(g6
g7
(lp811
g5
(g6
g7
(lp812
Vcombined
p813
atp814
Rp815
(dp816
g16
VVBN
p817
sbag5
(g6
g7
(lp818
g5
(g6
g7
(lp819
Vwith
p820
atp821
Rp822
(dp823
g16
VIN
p824
sbag5
(g6
g7
(lp825
g5
(g6
g7
(lp826
Vthe
p827
atp828
Rp829
(dp830
g16
VDT
p831
sbag5
(g6
g7
(lp832
Vproposed
p833
atp834
Rp835
(dp836
g16
VJJ
p837
sbag5
(g6
g7
(lp838
Vmethod
p839
atp840
Rp841
(dp842
g16
VNN
p843
sbatp844
Rp845
(dp846
g16
VNP
p847
sbatp848
Rp849
(dp850
g16
VPP
p851
sbag5
(g6
g7
(lp852
g5
(g6
g7
(lp853
Vby
p854
atp855
Rp856
(dp857
g16
VIN
p858
sbag5
(g6
g7
(lp859
g5
(g6
g7
(lp860
g5
(g6
g7
(lp861
Vreplacing
p862
atp863
Rp864
(dp865
g16
VVBG
p866
sbag5
(g6
g7
(lp867
g5
(g6
g7
(lp868
g5
(g6
g7
(lp869
Vposterior
p870
atp871
Rp872
(dp873
g16
VNN
p874
sbag5
(g6
g7
(lp875
Vprobability
p876
atp877
Rp878
(dp879
g16
VNN
p880
sbatp881
Rp882
(dp883
g16
VNP
p884
sbag5
(g6
g7
(lp885
g5
(g6
g7
(lp886
Vof
p887
atp888
Rp889
(dp890
g16
VIN
p891
sbag5
(g6
g7
(lp892
g5
(g6
g7
(lp893
Vsingle
p894
atp895
Rp896
(dp897
g16
VJJ
p898
sbag5
(g6
g7
(lp899
Vcorrection
p900
atp901
Rp902
(dp903
g16
VNN
p904
sbatp905
Rp906
(dp907
g16
VNP
p908
sbatp909
Rp910
(dp911
g16
VPP
p912
sbatp913
Rp914
(dp915
g16
VNP
p916
sbag5
(g6
g7
(lp917
g5
(g6
g7
(lp918
Vin
p919
atp920
Rp921
(dp922
g16
VIN
p923
sbag5
(g6
g7
(lp924
g5
(g6
g7
(lp925
Vour
p926
atp927
Rp928
(dp929
g16
VPRP$
p930
sbag5
(g6
g7
(lp931
Vmethod
p932
atp933
Rp934
(dp935
g16
VNN
p936
sbatp937
Rp938
(dp939
g16
VNP
p940
sbatp941
Rp942
(dp943
g16
VPP
p944
sbag5
(g6
g7
(lp945
g5
(g6
g7
(lp946
Vwith
p947
atp948
Rp949
(dp950
g16
VIN
p951
sbag5
(g6
g7
(lp952
g5
(g6
g7
(lp953
g5
(g6
g7
(lp954
Van
p955
atp956
Rp957
(dp958
g16
VDT
p959
sbag5
(g6
g7
(lp960
Vestimate
p961
atp962
Rp963
(dp964
g16
VNN
p965
sbatp966
Rp967
(dp968
g16
VNP
p969
sbag5
(g6
g7
(lp970
g5
(g6
g7
(lp971
Vobtained
p972
atp973
Rp974
(dp975
g16
VVBN
p976
sbag5
(g6
g7
(lp977
g5
(g6
g7
(lp978
Vvia
p979
atp980
Rp981
(dp982
g16
VIN
p983
sbag5
(g6
g7
(lp984
g5
(g6
g7
(lp985
Vdiscriminative
p986
atp987
Rp988
(dp989
g16
VJJ
p990
sbag5
(g6
g7
(lp991
Vtraining
p992
atp993
Rp994
(dp995
g16
VNN
p996
sbag5
(g6
g7
(lp997
Vmethod
p998
atp999
Rp1000
(dp1001
g16
VNN
p1002
sbatp1003
Rp1004
(dp1005
g16
VNP
p1006
sbatp1007
Rp1008
(dp1009
g16
VPP
p1010
sbatp1011
Rp1012
(dp1013
g16
VVP
p1014
sbatp1015
Rp1016
(dp1017
g16
VNP
p1018
sbatp1019
Rp1020
(dp1021
g16
VPP
p1022
sbatp1023
Rp1024
(dp1025
g16
VVP
p1026
sbatp1027
Rp1028
(dp1029
g16
g260
sbatp1030
Rp1031
(dp1032
g16
VPP
p1033
sbatp1034
Rp1035
(dp1036
g16
VVP
p1037
sbatp1038
Rp1039
(dp1040
g16
VVP
p1041
sbatp1042
Rp1043
(dp1044
g16
VVP
p1045
sbatp1046
Rp1047
(dp1048
g16
g260
sbatp1049
Rp1050
(dp1051
g16
VROOT
p1052
sbasg548
(icmyPackage
CorE
p1053
(dp1054
g551
(lp1055
(I0
I10
tp1056
a(I0
I26
tp1057
asg555
g1028
sbsg556
(icmyPackage
CorE
p1058
(dp1059
g551
(lp1060
(I0
I0
tp1061
a(I0
I8
tp1062
asg555
g5
(g6
g7
(lp1063
g794
ag801
ag808
ag815
ag849
atp1064
Rp1065
(dp1066
g16
g566
sbsbsg567
(icmyPackage
pattern
p1067
(dp1068
g570
I0
sg571
I0
sg572
(lp1069
(lp1070
(lp1071
S'by'
p1072
aS'through'
p1073
aaasg579
(lp1074
I2
aI1
aI1
asg581
(lp1075
S'The similar relation can be detected by analyzing the contents of nodes based on such approaches as the Latent Semantic Analysis (LSA) and the Vector Space Model (VSM)'
p1076
asg584
I68
sg585
(lp1077
(lp1078
S'&R@Complete@'
p1079
aa(lp1080
S'&V-ing@C@'
p1081
aasbsg596
(lp1082
(isxpPackage
sxpSent
p1083
(dp1084
g600
(lp1085
I2
asg602
VThese techniques can be combined with the proposed method by replacing posterior probability of single correction in our method with an estimate obtained via discriminative training method
p1086
sg604
I2
sg584
I17
sg605
I4
sbasba(icmyPackage
CELink
p1087
(dp1088
g3
(lp1089
g5
(g6
g7
(lp1090
g5
(g6
g7
(lp1091
g5
(g6
g7
(lp1092
g5
(g6
g7
(lp1093
VIn
p1094
atp1095
Rp1096
(dp1097
g16
VIN
p1098
sbag5
(g6
g7
(lp1099
g5
(g6
g7
(lp1100
Vour
p1101
atp1102
Rp1103
(dp1104
g16
VPRP$
p1105
sbag5
(g6
g7
(lp1106
Vwork
p1107
atp1108
Rp1109
(dp1110
g16
VNN
p1111
sbatp1112
Rp1113
(dp1114
g16
VNP
p1115
sbatp1116
Rp1117
(dp1118
g16
VPP
p1119
sbag5
(g6
g7
(lp1120
g46
atp1121
Rp1122
(dp1123
g16
g46
sbag5
(g6
g7
(lp1124
g5
(g6
g7
(lp1125
Vwe
p1126
atp1127
Rp1128
(dp1129
g16
VPRP
p1130
sbatp1131
Rp1132
(dp1133
g16
VNP
p1134
sbag5
(g6
g7
(lp1135
g5
(g6
g7
(lp1136
Vfocus
p1137
atp1138
Rp1139
(dp1140
g16
VVBP
p1141
sbag5
(g6
g7
(lp1142
g5
(g6
g7
(lp1143
Von
p1144
atp1145
Rp1146
(dp1147
g16
VIN
p1148
sbag5
(g6
g7
(lp1149
g5
(g6
g7
(lp1150
g5
(g6
g7
(lp1151
Visolated
p1152
atp1153
Rp1154
(dp1155
g16
VVBN
p1156
sbag5
(g6
g7
(lp1157
Vword-error
p1158
atp1159
Rp1160
(dp1161
g16
VJJ
p1162
sbag5
(g6
g7
(lp1163
Vcorrection
p1164
atp1165
Rp1166
(dp1167
g16
VNN
p1168
sbag5
(g6
g7
(lp1169
V-LSB-
p1170
atp1171
Rp1172
(dp1173
g16
VNN
p1174
sbatp1175
Rp1176
(dp1177
g16
VNP
p1178
sbag5
(g6
g7
(lp1179
g5
(g6
g7
(lp1180
g5
(g6
g7
(lp1181
V7
p1182
atp1183
Rp1184
(dp1185
g16
VCD
p1186
sbag5
(g6
g7
(lp1187
V-RSB-
p1188
atp1189
Rp1190
(dp1191
g16
VNNS
p1192
sbatp1193
Rp1194
(dp1195
g16
VNP
p1196
sbag5
(g6
g7
(lp1197
g46
atp1198
Rp1199
(dp1200
g16
g46
sbag5
(g6
g7
(lp1201
g5
(g6
g7
(lp1202
g5
(g6
g7
(lp1203
Vwhich
p1204
atp1205
Rp1206
(dp1207
g16
VWDT
p1208
sbatp1209
Rp1210
(dp1211
g16
VWHNP
p1212
sbag5
(g6
g7
(lp1213
g5
(g6
g7
(lp1214
g46
atp1215
Rp1216
(dp1217
g16
g46
sbag5
(g6
g7
(lp1218
g5
(g6
g7
(lp1219
Vin
p1220
atp1221
Rp1222
(dp1223
g16
VIN
p1224
sbag5
(g6
g7
(lp1225
g5
(g6
g7
(lp1226
g287
atp1227
Rp1228
(dp1229
g16
VDT
p1230
sbag5
(g6
g7
(lp1231
Vsense
p1232
atp1233
Rp1234
(dp1235
g16
VNN
p1236
sbatp1237
Rp1238
(dp1239
g16
VNP
p1240
sbatp1241
Rp1242
(dp1243
g16
VPP
p1244
sbag5
(g6
g7
(lp1245
g46
atp1246
Rp1247
(dp1248
g16
g46
sbag5
(g6
g7
(lp1249
g5
(g6
g7
(lp1250
Vis
p1251
atp1252
Rp1253
(dp1254
g16
VVBZ
p1255
sbag5
(g6
g7
(lp1256
g5
(g6
g7
(lp1257
g287
atp1258
Rp1259
(dp1260
g16
VDT
p1261
sbag5
(g6
g7
(lp1262
g5
(g6
g7
(lp1263
Vharder
p1264
atp1265
Rp1266
(dp1267
g16
VRB
p1268
sbatp1269
Rp1270
(dp1271
g16
VADJP
p1272
sbag5
(g6
g7
(lp1273
Vtask
p1274
atp1275
Rp1276
(dp1277
g16
VNN
p1278
sbatp1279
Rp1280
(dp1281
g16
VNP
p1282
sbag5
(g6
g7
(lp1283
g46
atp1284
Rp1285
(dp1286
g16
g46
sbag5
(g6
g7
(lp1287
g5
(g6
g7
(lp1288
Vthan
p1289
atp1290
Rp1291
(dp1292
g16
VIN
p1293
sbag5
(g6
g7
(lp1294
g5
(g6
g7
(lp1295
Vmulti-word
p1296
atp1297
Rp1298
(dp1299
g16
VJJ
p1300
sbag5
(g6
g7
(lp1301
Vcorrection
p1302
atp1303
Rp1304
(dp1305
g16
VNN
p1306
sbatp1307
Rp1308
(dp1309
g16
VNP
p1310
sbatp1311
Rp1312
(dp1313
g16
VPP
p1314
sbag5
(g6
g7
(lp1315
g46
atp1316
Rp1317
(dp1318
g16
g46
sbag5
(g6
g7
(lp1319
g5
(g6
g7
(lp1320
Vbecause
p1321
atp1322
Rp1323
(dp1324
g16
VIN
p1325
sbag5
(g6
g7
(lp1326
g5
(g6
g7
(lp1327
g5
(g6
g7
(lp1328
Vthere
p1329
atp1330
Rp1331
(dp1332
g16
VEX
p1333
sbatp1334
Rp1335
(dp1336
g16
VNP
p1337
sbag5
(g6
g7
(lp1338
g5
(g6
g7
(lp1339
Vis
p1340
atp1341
Rp1342
(dp1343
g16
VVBZ
p1344
sbag5
(g6
g7
(lp1345
g5
(g6
g7
(lp1346
g5
(g6
g7
(lp1347
Vno
p1348
atp1349
Rp1350
(dp1351
g16
VDT
p1352
sbag5
(g6
g7
(lp1353
Vcontext
p1354
atp1355
Rp1356
(dp1357
g16
VNN
p1358
sbatp1359
Rp1360
(dp1361
g16
VNP
p1362
sbag5
(g6
g7
(lp1363
g5
(g6
g7
(lp1364
Vavailable
p1365
atp1366
Rp1367
(dp1368
g16
VJJ
p1369
sbag5
(g6
g7
(lp1370
g5
(g6
g7
(lp1371
Vfor
p1372
atp1373
Rp1374
(dp1375
g16
VIN
p1376
sbag5
(g6
g7
(lp1377
g5
(g6
g7
(lp1378
Vmisspelled
p1379
atp1380
Rp1381
(dp1382
g16
VJJ
p1383
sbag5
(g6
g7
(lp1384
Vwords
p1385
atp1386
Rp1387
(dp1388
g16
VNNS
p1389
sbatp1390
Rp1391
(dp1392
g16
VNP
p1393
sbatp1394
Rp1395
(dp1396
g16
VPP
p1397
sbatp1398
Rp1399
(dp1400
g16
VADJP
p1401
sbatp1402
Rp1403
(dp1404
g16
VNP
p1405
sbatp1406
Rp1407
(dp1408
g16
VVP
p1409
sbatp1410
Rp1411
(dp1412
g16
g260
sbatp1413
Rp1414
(dp1415
g16
VSBAR
p1416
sbatp1417
Rp1418
(dp1419
g16
VVP
p1420
sbatp1421
Rp1422
(dp1423
g16
g260
sbatp1424
Rp1425
(dp1426
g16
VSBAR
p1427
sbatp1428
Rp1429
(dp1430
g16
VNP
p1431
sbatp1432
Rp1433
(dp1434
g16
VNP
p1435
sbatp1436
Rp1437
(dp1438
g16
VPP
p1439
sbatp1440
Rp1441
(dp1442
g16
VVP
p1443
sbatp1444
Rp1445
(dp1446
g16
g260
sbatp1447
Rp1448
(dp1449
g16
VROOT
p1450
sbasg548
(icmyPackage
CorE
p1451
(dp1452
g551
(lp1453
(I0
I30
tp1454
a(I0
I37
tp1455
asg555
g1411
sbsg556
(icmyPackage
CorE
p1456
(dp1457
g551
(lp1458
(I0
I0
tp1459
a(I0
I27
tp1460
asg555
g5
(g6
g7
(lp1461
g1117
ag1122
ag1132
ag1139
ag1146
ag1176
ag1194
ag1199
ag1210
ag1216
ag1242
ag1247
ag1253
ag1280
ag1285
ag1312
atp1462
Rp1463
(dp1464
g16
g566
sbsbsg567
(icmyPackage
pattern
p1465
(dp1466
g570
I407
sg571
I1
sg572
(lp1467
(lp1468
S'because'
p1469
aasg579
(lp1470
I3
aI1
aI1
asg581
(lp1471
S'It ends up in burnout and less production, because we inevitably run out of energy.'
p1472
asg584
I76
sg585
(lp1473
(lp1474
S'&R'
p1475
aS'(,)'
p1476
aS'(&ADV)'
p1477
aa(lp1478
S'&C'
p1479
aasbsg596
(lp1480
(isxpPackage
sxpSent
p1481
(dp1482
g600
(lp1483
I3
asg602
VIn our work, we focus on isolated word-error correction [ 7 ] , which, in a sense, is a harder task, than multi-word correction, because there is no context available for misspelled words
p1484
sg604
I2
sg584
I18
sg605
I5
sbasba(icmyPackage
CELink
p1485
(dp1486
g3
(lp1487
g5
(g6
g7
(lp1488
g5
(g6
g7
(lp1489
g5
(g6
g7
(lp1490
g5
(g6
g7
(lp1491
VIf
p1492
atp1493
Rp1494
(dp1495
g16
VIN
p1496
sbag5
(g6
g7
(lp1497
g5
(g6
g7
(lp1498
g5
(g6
g7
(lp1499
Vhypotheses
p1500
atp1501
Rp1502
(dp1503
g16
VNNS
p1504
sbatp1505
Rp1506
(dp1507
g16
VNP
p1508
sbag5
(g6
g7
(lp1509
g5
(g6
g7
(lp1510
Vconstitute
p1511
atp1512
Rp1513
(dp1514
g16
VVBP
p1515
sbag5
(g6
g7
(lp1516
g5
(g6
g7
(lp1517
g5
(g6
g7
(lp1518
g287
atp1519
Rp1520
(dp1521
g16
VDT
p1522
sbag5
(g6
g7
(lp1523
Vmajor
p1524
atp1525
Rp1526
(dp1527
g16
VJJ
p1528
sbag5
(g6
g7
(lp1529
Vpart
p1530
atp1531
Rp1532
(dp1533
g16
VNN
p1534
sbatp1535
Rp1536
(dp1537
g16
VNP
p1538
sbag5
(g6
g7
(lp1539
g5
(g6
g7
(lp1540
Vof
p1541
atp1542
Rp1543
(dp1544
g16
VIN
p1545
sbag5
(g6
g7
(lp1546
g5
(g6
g7
(lp1547
Vthe
p1548
atp1549
Rp1550
(dp1551
g16
VDT
p1552
sbag5
(g6
g7
(lp1553
Vposterior
p1554
atp1555
Rp1556
(dp1557
g16
VNN
p1558
sbag5
(g6
g7
(lp1559
Vprobability
p1560
atp1561
Rp1562
(dp1563
g16
VNN
p1564
sbag5
(g6
g7
(lp1565
Vmass
p1566
atp1567
Rp1568
(dp1569
g16
VNN
p1570
sbatp1571
Rp1572
(dp1573
g16
VNP
p1574
sbatp1575
Rp1576
(dp1577
g16
VPP
p1578
sbatp1579
Rp1580
(dp1581
g16
VNP
p1582
sbatp1583
Rp1584
(dp1585
g16
VVP
p1586
sbatp1587
Rp1588
(dp1589
g16
g260
sbatp1590
Rp1591
(dp1592
g16
VSBAR
p1593
sbag5
(g6
g7
(lp1594
g46
atp1595
Rp1596
(dp1597
g16
g46
sbag5
(g6
g7
(lp1598
g5
(g6
g7
(lp1599
Vit
p1600
atp1601
Rp1602
(dp1603
g16
VPRP
p1604
sbatp1605
Rp1606
(dp1607
g16
VNP
p1608
sbag5
(g6
g7
(lp1609
g5
(g6
g7
(lp1610
Vis
p1611
atp1612
Rp1613
(dp1614
g16
VVBZ
p1615
sbag5
(g6
g7
(lp1616
g5
(g6
g7
(lp1617
Vhighly
p1618
atp1619
Rp1620
(dp1621
g16
VRB
p1622
sbag5
(g6
g7
(lp1623
Vunlikely
p1624
atp1625
Rp1626
(dp1627
g16
VJJ
p1628
sbatp1629
Rp1630
(dp1631
g16
VADJP
p1632
sbag5
(g6
g7
(lp1633
g5
(g6
g7
(lp1634
Vthat
p1635
atp1636
Rp1637
(dp1638
g16
VIN
p1639
sbag5
(g6
g7
(lp1640
g5
(g6
g7
(lp1641
g5
(g6
g7
(lp1642
Vthe
p1643
atp1644
Rp1645
(dp1646
g16
VDT
p1647
sbag5
(g6
g7
(lp1648
Vintended
p1649
atp1650
Rp1651
(dp1652
g16
VVBN
p1653
sbag5
(g6
g7
(lp1654
Vword
p1655
atp1656
Rp1657
(dp1658
g16
VNN
p1659
sbatp1660
Rp1661
(dp1662
g16
VNP
p1663
sbag5
(g6
g7
(lp1664
g5
(g6
g7
(lp1665
Vis
p1666
atp1667
Rp1668
(dp1669
g16
VVBZ
p1670
sbag5
(g6
g7
(lp1671
Vnot
p1672
atp1673
Rp1674
(dp1675
g16
VRB
p1676
sbag5
(g6
g7
(lp1677
g5
(g6
g7
(lp1678
Vamong
p1679
atp1680
Rp1681
(dp1682
g16
VIN
p1683
sbag5
(g6
g7
(lp1684
g5
(g6
g7
(lp1685
Vthem
p1686
atp1687
Rp1688
(dp1689
g16
VPRP
p1690
sbatp1691
Rp1692
(dp1693
g16
VNP
p1694
sbatp1695
Rp1696
(dp1697
g16
VPP
p1698
sbatp1699
Rp1700
(dp1701
g16
VVP
p1702
sbatp1703
Rp1704
(dp1705
g16
g260
sbatp1706
Rp1707
(dp1708
g16
VSBAR
p1709
sbatp1710
Rp1711
(dp1712
g16
VVP
p1713
sbatp1714
Rp1715
(dp1716
g16
g260
sbatp1717
Rp1718
(dp1719
g16
VROOT
p1720
sbasg548
(icmyPackage
CorE
p1721
(dp1722
g551
(lp1723
(I0
I1
tp1724
a(I0
I10
tp1725
asg555
g1588
sbsg556
(icmyPackage
CorE
p1726
(dp1727
g551
(lp1728
(I0
I12
tp1729
a(I0
I23
tp1730
asg555
g5
(g6
g7
(lp1731
g1606
ag1711
atp1732
Rp1733
(dp1734
g16
g566
sbsbsg567
(icmyPackage
pattern
p1735
(dp1736
g570
I0
sg571
I0
sg572
(lp1737
(lp1738
(lp1739
S'if'
p1740
aS'once'
p1741
aaa(lp1742
S','
p1743
aasg579
(lp1744
I1
aI1
aI1
asg581
(lp1745
S'If some light and mobile detection devices can be invented in the future, many new applications can be imagined, for example, people can get some services while thinking.'
p1746
asg584
I15
sg585
(lp1747
(lp1748
a(lp1749
S'&C@Complete@'
p1750
aa(lp1751
S'&R@Complete@'
p1752
aasbsg596
(lp1753
(isxpPackage
sxpSent
p1754
(dp1755
g600
(lp1756
I4
asg602
VIf hypotheses constitute a major part of the posterior probability mass, it is highly unlikely that the intended word is not among them
p1757
sg604
I4
sg584
I26
sg605
I10
sbasba(icmyPackage
CELink
p1758
(dp1759
g3
(lp1760
g5
(g6
g7
(lp1761
g5
(g6
g7
(lp1762
g5
(g6
g7
(lp1763
g5
(g6
g7
(lp1764
VHypotheses
p1765
atp1766
Rp1767
(dp1768
g16
VJJ
p1769
sbag5
(g6
g7
(lp1770
Vgenerator
p1771
atp1772
Rp1773
(dp1774
g16
VNN
p1775
sbatp1776
Rp1777
(dp1778
g16
VNP
p1779
sbag5
(g6
g7
(lp1780
g5
(g6
g7
(lp1781
g5
(g6
g7
(lp1782
Vis
p1783
atp1784
Rp1785
(dp1786
g16
VVBZ
p1787
sbag5
(g6
g7
(lp1788
g5
(g6
g7
(lp1789
Vbased
p1790
atp1791
Rp1792
(dp1793
g16
VVBN
p1794
sbag5
(g6
g7
(lp1795
g5
(g6
g7
(lp1796
Von
p1797
atp1798
Rp1799
(dp1800
g16
VIN
p1801
sbag5
(g6
g7
(lp1802
g5
(g6
g7
(lp1803
VA
p1804
atp1805
Rp1806
(dp1807
g16
VDT
p1808
sbag5
(g6
g7
(lp1809
g5
(g6
g7
(lp1810
V*
p1811
atp1812
Rp1813
(dp1814
g16
VSYM
p1815
sbatp1816
Rp1817
(dp1818
g16
VX
p1819
sbag5
(g6
g7
(lp1820
Vbeam
p1821
atp1822
Rp1823
(dp1824
g16
VJJS
p1825
sbag5
(g6
g7
(lp1826
Vsearch
p1827
atp1828
Rp1829
(dp1830
g16
VNN
p1831
sbatp1832
Rp1833
(dp1834
g16
VNP
p1835
sbatp1836
Rp1837
(dp1838
g16
VPP
p1839
sbag5
(g6
g7
(lp1840
g5
(g6
g7
(lp1841
Vin
p1842
atp1843
Rp1844
(dp1845
g16
VIN
p1846
sbag5
(g6
g7
(lp1847
g5
(g6
g7
(lp1848
g5
(g6
g7
(lp1849
g287
atp1850
Rp1851
(dp1852
g16
VDT
p1853
sbag5
(g6
g7
(lp1854
Vtrie
p1855
atp1856
Rp1857
(dp1858
g16
VNN
p1859
sbatp1860
Rp1861
(dp1862
g16
VNP
p1863
sbag5
(g6
g7
(lp1864
g5
(g6
g7
(lp1865
Vof
p1866
atp1867
Rp1868
(dp1869
g16
VIN
p1870
sbag5
(g6
g7
(lp1871
g5
(g6
g7
(lp1872
Vwords
p1873
atp1874
Rp1875
(dp1876
g16
VNNS
p1877
sbatp1878
Rp1879
(dp1880
g16
VNP
p1881
sbatp1882
Rp1883
(dp1884
g16
VPP
p1885
sbatp1886
Rp1887
(dp1888
g16
VNP
p1889
sbatp1890
Rp1891
(dp1892
g16
VPP
p1893
sbatp1894
Rp1895
(dp1896
g16
VVP
p1897
sbatp1898
Rp1899
(dp1900
g16
VVP
p1901
sbag5
(g6
g7
(lp1902
g46
atp1903
Rp1904
(dp1905
g16
g46
sbag5
(g6
g7
(lp1906
Vand
p1907
atp1908
Rp1909
(dp1910
g16
VCC
p1911
sbag5
(g6
g7
(lp1912
g5
(g6
g7
(lp1913
Vyields
p1914
atp1915
Rp1916
(dp1917
g16
VVBZ
p1918
sbag5
(g6
g7
(lp1919
g5
(g6
g7
(lp1920
g5
(g6
g7
(lp1921
g5
(g6
g7
(lp1922
VK
p1923
atp1924
Rp1925
(dp1926
g16
VNNP
p1927
sbatp1928
Rp1929
(dp1930
g16
VNP
p1931
sbag5
(g6
g7
(lp1932
g5
(g6
g7
(lp1933
Vhypotheses
p1934
atp1935
Rp1936
(dp1937
g16
VVBZ
p1938
sbag5
(g6
g7
(lp1939
g5
(g6
g7
(lp1940
g5
(g6
g7
(lp1941
Vh
p1942
atp1943
Rp1944
(dp1945
g16
VNN
p1946
sbag5
(g6
g7
(lp1947
Vk
p1948
atp1949
Rp1950
(dp1951
g16
VNN
p1952
sbatp1953
Rp1954
(dp1955
g16
VNP
p1956
sbag5
(g6
g7
(lp1957
g46
atp1958
Rp1959
(dp1960
g16
g46
sbag5
(g6
g7
(lp1961
g5
(g6
g7
(lp1962
g5
(g6
g7
(lp1963
Vfor
p1964
atp1965
Rp1966
(dp1967
g16
VIN
p1968
sbag5
(g6
g7
(lp1969
g5
(g6
g7
(lp1970
Vwhich
p1971
atp1972
Rp1973
(dp1974
g16
VWDT
p1975
sbatp1976
Rp1977
(dp1978
g16
VWHNP
p1979
sbatp1980
Rp1981
(dp1982
g16
VWHPP
p1983
sbag5
(g6
g7
(lp1984
g5
(g6
g7
(lp1985
g5
(g6
g7
(lp1986
g5
(g6
g7
(lp1987
g5
(g6
g7
(lp1988
Vthe
p1989
atp1990
Rp1991
(dp1992
g16
VDT
p1993
sbag5
(g6
g7
(lp1994
Vnoisy
p1995
atp1996
Rp1997
(dp1998
g16
VJJ
p1999
sbag5
(g6
g7
(lp2000
Vchannel
p2001
atp2002
Rp2003
(dp2004
g16
VNN
p2005
sbag5
(g6
g7
(lp2006
Vscores
p2007
atp2008
Rp2009
(dp2010
g16
VNNS
p2011
sbag5
(g6
g7
(lp2012
VP
p2013
atp2014
Rp2015
(dp2016
g16
VNN
p2017
sbag5
(g6
g7
(lp2018
Vdist
p2019
atp2020
Rp2021
(dp2022
g16
VNN
p2023
sbatp2024
Rp2025
(dp2026
g16
VNP
p2027
sbag5
(g6
g7
(lp2028
g5
(g6
g7
(lp2029
V-LRB-
p2030
atp2031
Rp2032
(dp2033
g16
V-LRB-
p2034
sbag5
(g6
g7
(lp2035
g5
(g6
g7
(lp2036
g5
(g6
g7
(lp2037
g1942
atp2038
Rp2039
(dp2040
g16
VNN
p2041
sbag5
(g6
g7
(lp2042
g1948
atp2043
Rp2044
(dp2045
g16
VNN
p2046
sbatp2047
Rp2048
(dp2049
g16
VNP
p2050
sbag5
(g6
g7
(lp2051
g5
(g6
g7
(lp2052
g5
(g6
g7
(lp2053
g5
(g6
g7
(lp2054
Vu
p2055
atp2056
Rp2057
(dp2058
g16
VNNP
p2059
sbag5
(g6
g7
(lp2060
V'
p2061
atp2062
Rp2063
(dp2064
g16
VPOS
p2065
sbatp2066
Rp2067
(dp2068
g16
VNP
p2069
sbag5
(g6
g7
(lp2070
V\u005c
p2071
atp2072
Rp2073
(dp2074
g16
VJJ
p2075
sbag5
(g6
g7
(lp2076
Vu2192
p2077
atp2078
Rp2079
(dp2080
g16
VJJ
p2081
sbag5
(g6
g7
(lp2082
g2061
atp2083
Rp2084
(dp2085
g16
V''
p2086
sbag5
(g6
g7
(lp2087
Vq
p2088
atp2089
Rp2090
(dp2091
g16
VNN
p2092
sbatp2093
Rp2094
(dp2095
g16
VNP
p2096
sbag5
(g6
g7
(lp2097
g5
(g6
g7
(lp2098
V1
p2099
atp2100
Rp2101
(dp2102
g16
VCD
p2103
sbatp2104
Rp2105
(dp2106
g16
VNP
p2107
sbatp2108
Rp2109
(dp2110
g16
VNP
p2111
sbatp2112
Rp2113
(dp2114
g16
VNP
p2115
sbag5
(g6
g7
(lp2116
V-RRB-
p2117
atp2118
Rp2119
(dp2120
g16
V-RRB-
p2121
sbatp2122
Rp2123
(dp2124
g16
VPRN
p2125
sbag5
(g6
g7
(lp2126
g5
(g6
g7
(lp2127
g2013
atp2128
Rp2129
(dp2130
g16
VNNP
p2131
sbag5
(g6
g7
(lp2132
VLM
p2133
atp2134
Rp2135
(dp2136
g16
VNNP
p2137
sbatp2138
Rp2139
(dp2140
g16
VNP
p2141
sbatp2142
Rp2143
(dp2144
g16
VNP
p2145
sbag5
(g6
g7
(lp2146
g5
(g6
g7
(lp2147
V-LRB-
p2148
atp2149
Rp2150
(dp2151
g16
V-LRB-
p2152
sbag5
(g6
g7
(lp2153
g5
(g6
g7
(lp2154
g1942
atp2155
Rp2156
(dp2157
g16
VNN
p2158
sbag5
(g6
g7
(lp2159
g1948
atp2160
Rp2161
(dp2162
g16
VNN
p2163
sbatp2164
Rp2165
(dp2166
g16
VNP
p2167
sbag5
(g6
g7
(lp2168
V-RRB-
p2169
atp2170
Rp2171
(dp2172
g16
V-RRB-
p2173
sbatp2174
Rp2175
(dp2176
g16
VPRN
p2177
sbatp2178
Rp2179
(dp2180
g16
VNP
p2181
sbag5
(g6
g7
(lp2182
g5
(g6
g7
(lp2183
Vare
p2184
atp2185
Rp2186
(dp2187
g16
VVBP
p2188
sbag5
(g6
g7
(lp2189
g5
(g6
g7
(lp2190
Vhighest
p2191
atp2192
Rp2193
(dp2194
g16
VRBS
p2195
sbag5
(g6
g7
(lp2196
Vpossible
p2197
atp2198
Rp2199
(dp2200
g16
VJJ
p2201
sbatp2202
Rp2203
(dp2204
g16
VADJP
p2205
sbatp2206
Rp2207
(dp2208
g16
VVP
p2209
sbatp2210
Rp2211
(dp2212
g16
g260
sbatp2213
Rp2214
(dp2215
g16
VSBAR
p2216
sbatp2217
Rp2218
(dp2219
g16
VNP
p2220
sbatp2221
Rp2222
(dp2223
g16
VVP
p2224
sbatp2225
Rp2226
(dp2227
g16
g260
sbatp2228
Rp2229
(dp2230
g16
VSBAR
p2231
sbatp2232
Rp2233
(dp2234
g16
VVP
p2235
sbatp2236
Rp2237
(dp2238
g16
VVP
p2239
sbatp2240
Rp2241
(dp2242
g16
g260
sbatp2243
Rp2244
(dp2245
g16
VROOT
p2246
sbasg548
(icmyPackage
CorE
p2247
(dp2248
g551
(lp2249
(I0
I5
tp2250
a(I0
I13
tp2251
asg555
g5
(g6
g7
(lp2252
g1833
ag1891
atp2253
Rp2254
(dp2255
g16
g566
sbsbsg556
(icmyPackage
CorE
p2256
(dp2257
g551
(lp2258
(I0
I15
tp2259
a(I0
I49
tp2260
asg555
g5
(g6
g7
(lp2261
g1909
ag2233
atp2262
Rp2263
(dp2264
g16
g566
sbsbsg567
(icmyPackage
pattern
p2265
(dp2266
g570
I0
sg571
I0
sg572
(lp2267
(lp2268
S'based'
p2269
aS'on'
p2270
aa(lp2271
g1743
aasg579
(lp2272
I2
aI1
aI1
asg581
(lp2273
S"He said that, based on his own experience, more students have been going back in recent years as their home countries' economies heat up."
p2274
asg584
I47
sg585
(lp2275
(lp2276
a(lp2277
S'&V-ing/&NP@C@'
p2278
aS'(&Clause@C@)'
p2279
aa(lp2280
S'&R'
p2281
aasbsg596
(lp2282
(isxpPackage
sxpSent
p2283
(dp2284
g600
(lp2285
I5
asg602
VHypotheses generator is based on A* beam search in a trie of words, and yields K hypotheses h k , for which the noisy channel scores P dist ( h k u'\u005cu2192' q 1 ) P LM ( h k ) are highest possible
p2286
sg604
I5
sg584
I29
sg605
I13
sbasba(icmyPackage
CELink
p2287
(dp2288
g3
(lp2289
g5
(g6
g7
(lp2290
g5
(g6
g7
(lp2291
g5
(g6
g7
(lp2292
VWhile
p2293
atp2294
Rp2295
(dp2296
g16
VIN
p2297
sbag5
(g6
g7
(lp2298
g5
(g6
g7
(lp2299
g5
(g6
g7
(lp2300
g5
(g6
g7
(lp2301
Vchoosing
p2302
atp2303
Rp2304
(dp2305
g16
VVBG
p2306
sbag5
(g6
g7
(lp2307
g5
(g6
g7
(lp2308
g5
(g6
g7
(lp2309
g5
(g6
g7
(lp2310
Varg
p2311
atp2312
Rp2313
(dp2314
g16
VJJ
p2315
sbag5
(g6
g7
(lp2316
g2055
atp2317
Rp2318
(dp2319
g16
VNN
p2320
sbag5
(g6
g7
(lp2321
g2061
atp2322
Rp2323
(dp2324
g16
VPOS
p2325
sbatp2326
Rp2327
(dp2328
g16
VNP
p2329
sbag5
(g6
g7
(lp2330
V\u005c
p2331
atp2332
Rp2333
(dp2334
g16
VJJ
p2335
sbag5
(g6
g7
(lp2336
Vu2062
p2337
atp2338
Rp2339
(dp2340
g16
VJJ
p2341
sbag5
(g6
g7
(lp2342
g2061
atp2343
Rp2344
(dp2345
g16
V''
p2346
sbag5
(g6
g7
(lp2347
Vmax
p2348
atp2349
Rp2350
(dp2351
g16
VNN
p2352
sbatp2353
Rp2354
(dp2355
g16
VNP
p2356
sbag5
(g6
g7
(lp2357
g5
(g6
g7
(lp2358
Vof
p2359
atp2360
Rp2361
(dp2362
g16
VIN
p2363
sbag5
(g6
g7
(lp2364
g5
(g6
g7
(lp2365
Vthe
p2366
atp2367
Rp2368
(dp2369
g16
VDT
p2370
sbag5
(g6
g7
(lp2371
Vposterior
p2372
atp2373
Rp2374
(dp2375
g16
VNN
p2376
sbag5
(g6
g7
(lp2377
Vprobability
p2378
atp2379
Rp2380
(dp2381
g16
VNN
p2382
sbatp2383
Rp2384
(dp2385
g16
VNP
p2386
sbatp2387
Rp2388
(dp2389
g16
VPP
p2390
sbatp2391
Rp2392
(dp2393
g16
VNP
p2394
sbatp2395
Rp2396
(dp2397
g16
VVP
p2398
sbatp2399
Rp2400
(dp2401
g16
g260
sbag5
(g6
g7
(lp2402
g5
(g6
g7
(lp2403
Vis
p2404
atp2405
Rp2406
(dp2407
g16
VVBZ
p2408
sbag5
(g6
g7
(lp2409
g5
(g6
g7
(lp2410
g5
(g6
g7
(lp2411
Van
p2412
atp2413
Rp2414
(dp2415
g16
VDT
p2416
sbag5
(g6
g7
(lp2417
Voptimal
p2418
atp2419
Rp2420
(dp2421
g16
VJJ
p2422
sbag5
(g6
g7
(lp2423
Vdecision
p2424
atp2425
Rp2426
(dp2427
g16
VNN
p2428
sbag5
(g6
g7
(lp2429
Vrule
p2430
atp2431
Rp2432
(dp2433
g16
VNN
p2434
sbatp2435
Rp2436
(dp2437
g16
VNP
p2438
sbag5
(g6
g7
(lp2439
g5
(g6
g7
(lp2440
Vin
p2441
atp2442
Rp2443
(dp2444
g16
VIN
p2445
sbag5
(g6
g7
(lp2446
g5
(g6
g7
(lp2447
Vtheory
p2448
atp2449
Rp2450
(dp2451
g16
VNN
p2452
sbatp2453
Rp2454
(dp2455
g16
VNP
p2456
sbatp2457
Rp2458
(dp2459
g16
VPP
p2460
sbag5
(g6
g7
(lp2461
g46
atp2462
Rp2463
(dp2464
g16
g46
sbag5
(g6
g7
(lp2465
g5
(g6
g7
(lp2466
Vin
p2467
atp2468
Rp2469
(dp2470
g16
VIN
p2471
sbag5
(g6
g7
(lp2472
g5
(g6
g7
(lp2473
g5
(g6
g7
(lp2474
Vpractice
p2475
atp2476
Rp2477
(dp2478
g16
VNN
p2479
sbatp2480
Rp2481
(dp2482
g16
VNP
p2483
sbag5
(g6
g7
(lp2484
g5
(g6
g7
(lp2485
g5
(g6
g7
(lp2486
g5
(g6
g7
(lp2487
Vit
p2488
atp2489
Rp2490
(dp2491
g16
VPRP
p2492
sbatp2493
Rp2494
(dp2495
g16
VNP
p2496
sbag5
(g6
g7
(lp2497
g5
(g6
g7
(lp2498
Vmight
p2499
atp2500
Rp2501
(dp2502
g16
VMD
p2503
sbag5
(g6
g7
(lp2504
Vnot
p2505
atp2506
Rp2507
(dp2508
g16
VRB
p2509
sbag5
(g6
g7
(lp2510
g5
(g6
g7
(lp2511
Vbe
p2512
atp2513
Rp2514
(dp2515
g16
VVB
p2516
sbag5
(g6
g7
(lp2517
g5
(g6
g7
(lp2518
g5
(g6
g7
(lp2519
Voptimal
p2520
atp2521
Rp2522
(dp2523
g16
VJJ
p2524
sbatp2525
Rp2526
(dp2527
g16
VADJP
p2528
sbag5
(g6
g7
(lp2529
g46
atp2530
Rp2531
(dp2532
g16
g46
sbag5
(g6
g7
(lp2533
g5
(g6
g7
(lp2534
Vdue
p2535
atp2536
Rp2537
(dp2538
g16
VJJ
p2539
sbag5
(g6
g7
(lp2540
g5
(g6
g7
(lp2541
Vto
p2542
atp2543
Rp2544
(dp2545
g16
VTO
p2546
sbag5
(g6
g7
(lp2547
g5
(g6
g7
(lp2548
g5
(g6
g7
(lp2549
Vlimitations
p2550
atp2551
Rp2552
(dp2553
g16
VNNS
p2554
sbatp2555
Rp2556
(dp2557
g16
VNP
p2558
sbag5
(g6
g7
(lp2559
g5
(g6
g7
(lp2560
Vof
p2561
atp2562
Rp2563
(dp2564
g16
VIN
p2565
sbag5
(g6
g7
(lp2566
g5
(g6
g7
(lp2567
Vthe
p2568
atp2569
Rp2570
(dp2571
g16
VDT
p2572
sbag5
(g6
g7
(lp2573
Vlanguage
p2574
atp2575
Rp2576
(dp2577
g16
VNN
p2578
sbag5
(g6
g7
(lp2579
Vand
p2580
atp2581
Rp2582
(dp2583
g16
VCC
p2584
sbag5
(g6
g7
(lp2585
Verror
p2586
atp2587
Rp2588
(dp2589
g16
VNN
p2590
sbag5
(g6
g7
(lp2591
Vmodeling
p2592
atp2593
Rp2594
(dp2595
g16
VNN
p2596
sbatp2597
Rp2598
(dp2599
g16
VNP
p2600
sbatp2601
Rp2602
(dp2603
g16
VPP
p2604
sbatp2605
Rp2606
(dp2607
g16
VNP
p2608
sbatp2609
Rp2610
(dp2611
g16
VPP
p2612
sbatp2613
Rp2614
(dp2615
g16
VADJP
p2616
sbatp2617
Rp2618
(dp2619
g16
VADJP
p2620
sbatp2621
Rp2622
(dp2623
g16
VVP
p2624
sbatp2625
Rp2626
(dp2627
g16
VVP
p2628
sbatp2629
Rp2630
(dp2631
g16
g260
sbatp2632
Rp2633
(dp2634
g16
VSBAR
p2635
sbatp2636
Rp2637
(dp2638
g16
VNP
p2639
sbatp2640
Rp2641
(dp2642
g16
VPP
p2643
sbatp2644
Rp2645
(dp2646
g16
VNP
p2647
sbatp2648
Rp2649
(dp2650
g16
VVP
p2651
sbatp2652
Rp2653
(dp2654
g16
g260
sbatp2655
Rp2656
(dp2657
g16
VSBAR
p2658
sbatp2659
Rp2660
(dp2661
g16
VROOT
p2662
sbasg548
(icmyPackage
CorE
p2663
(dp2664
g551
(lp2665
(I0
I31
tp2666
a(I0
I37
tp2667
asg555
g2606
sbsg556
(icmyPackage
CorE
p2668
(dp2669
g551
(lp2670
(I0
I0
tp2671
a(I0
I28
tp2672
asg555
g5
(g6
g7
(lp2673
g2295
ag2400
ag2406
ag2436
ag2458
ag2463
ag2469
ag2481
ag2494
ag2501
ag2507
ag2514
ag2526
ag2531
atp2674
Rp2675
(dp2676
g16
g566
sbsbsg567
(icmyPackage
pattern
p2677
(dp2678
g570
I0
sg571
I0
sg572
(lp2679
(lp2680
S'due'
p2681
aS'to'
p2682
aasg579
(lp2683
I2
aI1
aI1
asg581
(lp2684
S'Data stored on hard disks is at higher risk due to the mechanical nature of the device.'
p2685
asg584
I72
sg585
(lp2686
(lp2687
S'&R'
p2688
aa(lp2689
S'&NP@C@'
p2690
aasbsg596
(lp2691
(isxpPackage
sxpSent
p2692
(dp2693
g600
(lp2694
I6
asg602
VWhile choosing arg u'\u005cu2062' max of the posterior probability is an optimal decision rule in theory, in practice it might not be optimal, due to limitations of the language and error modeling
p2695
sg604
I6
sg584
I31
sg605
I14
sbasba(icmyPackage
CELink
p2696
(dp2697
g3
(lp2698
g5
(g6
g7
(lp2699
g5
(g6
g7
(lp2700
g5
(g6
g7
(lp2701
g5
(g6
g7
(lp2702
VFor
p2703
atp2704
Rp2705
(dp2706
g16
VIN
p2707
sbag5
(g6
g7
(lp2708
g5
(g6
g7
(lp2709
Vexample
p2710
atp2711
Rp2712
(dp2713
g16
VNN
p2714
sbatp2715
Rp2716
(dp2717
g16
VNP
p2718
sbatp2719
Rp2720
(dp2721
g16
VPP
p2722
sbag5
(g6
g7
(lp2723
g46
atp2724
Rp2725
(dp2726
g16
g46
sbag5
(g6
g7
(lp2727
g5
(g6
g7
(lp2728
Vvobemzin
p2729
atp2730
Rp2731
(dp2732
g16
VNN
p2733
sbatp2734
Rp2735
(dp2736
g16
VNP
p2737
sbag5
(g6
g7
(lp2738
g5
(g6
g7
(lp2739
Vis
p2740
atp2741
Rp2742
(dp2743
g16
VVBZ
p2744
sbag5
(g6
g7
(lp2745
g5
(g6
g7
(lp2746
Vcorrected
p2747
atp2748
Rp2749
(dp2750
g16
VVBN
p2751
sbag5
(g6
g7
(lp2752
g5
(g6
g7
(lp2753
Vto
p2754
atp2755
Rp2756
(dp2757
g16
VTO
p2758
sbag5
(g6
g7
(lp2759
g5
(g6
g7
(lp2760
g5
(g6
g7
(lp2761
Vmore
p2762
atp2763
Rp2764
(dp2765
g16
VRBR
p2766
sbag5
(g6
g7
(lp2767
Vfrequent
p2768
atp2769
Rp2770
(dp2771
g16
VJJ
p2772
sbatp2773
Rp2774
(dp2775
g16
VADJP
p2776
sbag5
(g6
g7
(lp2777
Vmisspelling
p2778
atp2779
Rp2780
(dp2781
g16
VNN
p2782
sbag5
(g6
g7
(lp2783
Vvobenzin
p2784
atp2785
Rp2786
(dp2787
g16
VNN
p2788
sbatp2789
Rp2790
(dp2791
g16
VNP
p2792
sbatp2793
Rp2794
(dp2795
g16
VPP
p2796
sbag5
(g6
g7
(lp2797
g5
(g6
g7
(lp2798
V-LRB-
p2799
atp2800
Rp2801
(dp2802
g16
V-LRB-
p2803
sbag5
(g6
g7
(lp2804
g5
(g6
g7
(lp2805
Vinstead
p2806
atp2807
Rp2808
(dp2809
g16
VRB
p2810
sbag5
(g6
g7
(lp2811
Vof
p2812
atp2813
Rp2814
(dp2815
g16
VIN
p2816
sbag5
(g6
g7
(lp2817
g5
(g6
g7
(lp2818
Vcorrect
p2819
atp2820
Rp2821
(dp2822
g16
VVB
p2823
sbag5
(g6
g7
(lp2824
g5
(g6
g7
(lp2825
Vform
p2826
atp2827
Rp2828
(dp2829
g16
VNN
p2830
sbag5
(g6
g7
(lp2831
Vwobenzym
p2832
atp2833
Rp2834
(dp2835
g16
VNN
p2836
sbatp2837
Rp2838
(dp2839
g16
VNP
p2840
sbatp2841
Rp2842
(dp2843
g16
VVP
p2844
sbatp2845
Rp2846
(dp2847
g16
VPP
p2848
sbag5
(g6
g7
(lp2849
V-RRB-
p2850
atp2851
Rp2852
(dp2853
g16
V-RRB-
p2854
sbatp2855
Rp2856
(dp2857
g16
VPRN
p2858
sbag5
(g6
g7
(lp2859
g5
(g6
g7
(lp2860
Vby
p2861
atp2862
Rp2863
(dp2864
g16
VIN
p2865
sbag5
(g6
g7
(lp2866
g5
(g6
g7
(lp2867
g5
(g6
g7
(lp2868
Vthe
p2869
atp2870
Rp2871
(dp2872
g16
VDT
p2873
sbag5
(g6
g7
(lp2874
Vnoisy
p2875
atp2876
Rp2877
(dp2878
g16
VJJ
p2879
sbag5
(g6
g7
(lp2880
Vchannel
p2881
atp2882
Rp2883
(dp2884
g16
VNN
p2885
sbatp2886
Rp2887
(dp2888
g16
VNP
p2889
sbag5
(g6
g7
(lp2890
g46
atp2891
Rp2892
(dp2893
g16
g46
sbag5
(g6
g7
(lp2894
g5
(g6
g7
(lp2895
Vbecause
p2896
atp2897
Rp2898
(dp2899
g16
VIN
p2900
sbag5
(g6
g7
(lp2901
g5
(g6
g7
(lp2902
g5
(g6
g7
(lp2903
g5
(g6
g7
(lp2904
g2013
atp2905
Rp2906
(dp2907
g16
VNNP
p2908
sbag5
(g6
g7
(lp2909
Vdist
p2910
atp2911
Rp2912
(dp2913
g16
VNNP
p2914
sbatp2915
Rp2916
(dp2917
g16
VNP
p2918
sbag5
(g6
g7
(lp2919
g5
(g6
g7
(lp2920
V-LRB-
p2921
atp2922
Rp2923
(dp2924
g16
V-LRB-
p2925
sbag5
(g6
g7
(lp2926
g5
(g6
g7
(lp2927
g5
(g6
g7
(lp2928
Vv
p2929
atp2930
Rp2931
(dp2932
g16
VNN
p2933
sbag5
(g6
g7
(lp2934
Vo
p2935
atp2936
Rp2937
(dp2938
g16
VNN
p2939
sbag5
(g6
g7
(lp2940
Vb
p2941
atp2942
Rp2943
(dp2944
g16
VNNP
p2945
sbag5
(g6
g7
(lp2946
Ve
p2947
atp2948
Rp2949
(dp2950
g16
VNNP
p2951
sbatp2952
Rp2953
(dp2954
g16
VNP
p2955
sbag5
(g6
g7
(lp2956
g5
(g6
g7
(lp2957
Vm
p2958
atp2959
Rp2960
(dp2961
g16
VVBP
p2962
sbag5
(g6
g7
(lp2963
g5
(g6
g7
(lp2964
g5
(g6
g7
(lp2965
g5
(g6
g7
(lp2966
Vz
p2967
atp2968
Rp2969
(dp2970
g16
VFW
p2971
sbag5
(g6
g7
(lp2972
Vi
p2973
atp2974
Rp2975
(dp2976
g16
VFW
p2977
sbag5
(g6
g7
(lp2978
Vn
p2979
atp2980
Rp2981
(dp2982
g16
VNN
p2983
sbatp2984
Rp2985
(dp2986
g16
VNP
p2987
sbag5
(g6
g7
(lp2988
g5
(g6
g7
(lp2989
g5
(g6
g7
(lp2990
g5
(g6
g7
(lp2991
g2055
atp2992
Rp2993
(dp2994
g16
VNNP
p2995
sbag5
(g6
g7
(lp2996
g2061
atp2997
Rp2998
(dp2999
g16
VPOS
p3000
sbatp3001
Rp3002
(dp3003
g16
VNP
p3004
sbag5
(g6
g7
(lp3005
V\u005c
p3006
atp3007
Rp3008
(dp3009
g16
VJJ
p3010
sbag5
(g6
g7
(lp3011
Vu2192
p3012
atp3013
Rp3014
(dp3015
g16
VNNS
p3016
sbag5
(g6
g7
(lp3017
g2061
atp3018
Rp3019
(dp3020
g16
VPOS
p3021
sbatp3022
Rp3023
(dp3024
g16
VNP
p3025
sbag5
(g6
g7
(lp3026
Vw
p3027
atp3028
Rp3029
(dp3030
g16
VNN
p3031
sbag5
(g6
g7
(lp3032
g2935
atp3033
Rp3034
(dp3035
g16
VNN
p3036
sbatp3037
Rp3038
(dp3039
g16
VNP
p3040
sbatp3041
Rp3042
(dp3043
g16
VNP
p3044
sbag5
(g6
g7
(lp3045
g5
(g6
g7
(lp3046
g2941
atp3047
Rp3048
(dp3049
g16
VSYM
p3050
sbatp3051
Rp3052
(dp3053
g16
g1819
sbatp3054
Rp3055
(dp3056
g16
VNP
p3057
sbag5
(g6
g7
(lp3058
g5
(g6
g7
(lp3059
g5
(g6
g7
(lp3060
g2947
atp3061
Rp3062
(dp3063
g16
VSYM
p3064
sbatp3065
Rp3066
(dp3067
g16
g1819
sbag5
(g6
g7
(lp3068
g5
(g6
g7
(lp3069
g2979
atp3070
Rp3071
(dp3072
g16
VNN
p3073
sbag5
(g6
g7
(lp3074
g2967
atp3075
Rp3076
(dp3077
g16
VNN
p3078
sbag5
(g6
g7
(lp3079
Vy
p3080
atp3081
Rp3082
(dp3083
g16
VNN
p3084
sbag5
(g6
g7
(lp3085
g2958
atp3086
Rp3087
(dp3088
g16
VNN
p3089
sbatp3090
Rp3091
(dp3092
g16
VNP
p3093
sbatp3094
Rp3095
(dp3096
g16
VFRAG
p3097
sbatp3098
Rp3099
(dp3100
g16
VVP
p3101
sbatp3102
Rp3103
(dp3104
g16
g260
sbag5
(g6
g7
(lp3105
V-RRB-
p3106
atp3107
Rp3108
(dp3109
g16
V-RRB-
p3110
sbatp3111
Rp3112
(dp3113
g16
VPRN
p3114
sbatp3115
Rp3116
(dp3117
g16
VNP
p3118
sbag5
(g6
g7
(lp3119
g5
(g6
g7
(lp3120
Vis
p3121
atp3122
Rp3123
(dp3124
g16
VVBZ
p3125
sbag5
(g6
g7
(lp3126
g5
(g6
g7
(lp3127
Vtoo
p3128
atp3129
Rp3130
(dp3131
g16
VRB
p3132
sbag5
(g6
g7
(lp3133
Vlow
p3134
atp3135
Rp3136
(dp3137
g16
VJJ
p3138
sbatp3139
Rp3140
(dp3141
g16
VADVP
p3142
sbag5
(g6
g7
(lp3143
g5
(g6
g7
(lp3144
V-LRB-
p3145
atp3146
Rp3147
(dp3148
g16
V-LRB-
p3149
sbag5
(g6
g7
(lp3150
Vsee
p3151
atp3152
Rp3153
(dp3154
g16
VVB
p3155
sbag5
(g6
g7
(lp3156
g5
(g6
g7
(lp3157
VTable
p3158
atp3159
Rp3160
(dp3161
g16
VRB
p3162
sbatp3163
Rp3164
(dp3165
g16
VADVP
p3166
sbag5
(g6
g7
(lp3167
g5
(g6
g7
(lp3168
g2099
atp3169
Rp3170
(dp3171
g16
VCD
p3172
sbatp3173
Rp3174
(dp3175
g16
VNP
p3176
sbatp3177
Rp3178
(dp3179
g16
VVP
p3180
sbatp3181
Rp3182
(dp3183
g16
VVP
p3184
sbatp3185
Rp3186
(dp3187
g16
g260
sbatp3188
Rp3189
(dp3190
g16
VSBAR
p3191
sbatp3192
Rp3193
(dp3194
g16
VNP
p3195
sbatp3196
Rp3197
(dp3198
g16
VPP
p3199
sbatp3200
Rp3201
(dp3202
g16
VVP
p3203
sbatp3204
Rp3205
(dp3206
g16
VVP
p3207
sbatp3208
Rp3209
(dp3210
g16
g260
sbatp3211
Rp3212
(dp3213
g16
VROOT
p3214
sbasg548
(icmyPackage
CorE
p3215
(dp3216
g551
(lp3217
(I0
I24
tp3218
a(I0
I55
tp3219
asg555
g3186
sbsg556
(icmyPackage
CorE
p3220
(dp3221
g551
(lp3222
(I0
I0
tp3223
a(I0
I21
tp3224
asg555
g5
(g6
g7
(lp3225
g2720
ag2725
ag2735
ag2742
ag2749
ag2794
ag2856
ag2863
ag2887
atp3226
Rp3227
(dp3228
g16
g566
sbsbsg567
g1465
sg596
(lp3229
(isxpPackage
sxpSent
p3230
(dp3231
g600
(lp3232
I7
asg602
VFor example, vobemzin is corrected to more frequent misspelling vobenzin (instead of correct form wobenzym ) by the noisy channel, because P dist ( v o b e m z i n u'\u005cu2192' w o b e n z y m ) is too low (see Table 1
p3233
sg604
I6
sg584
I32
sg605
I14
sbasba(icmyPackage
CELink
p3234
(dp3235
g3
(lp3236
g5
(g6
g7
(lp3237
g5
(g6
g7
(lp3238
g5
(g6
g7
(lp3239
g5
(g6
g7
(lp3240
VIt
p3241
atp3242
Rp3243
(dp3244
g16
VPRP
p3245
sbatp3246
Rp3247
(dp3248
g16
VNP
p3249
sbag5
(g6
g7
(lp3250
g5
(g6
g7
(lp3251
Vis
p3252
atp3253
Rp3254
(dp3255
g16
VVBZ
p3256
sbag5
(g6
g7
(lp3257
g5
(g6
g7
(lp3258
Vmotivated
p3259
atp3260
Rp3261
(dp3262
g16
VVBN
p3263
sbag5
(g6
g7
(lp3264
g5
(g6
g7
(lp3265
Vby
p3266
atp3267
Rp3268
(dp3269
g16
VIN
p3270
sbag5
(g6
g7
(lp3271
g5
(g6
g7
(lp3272
Vthe
p3273
atp3274
Rp3275
(dp3276
g16
VDT
p3277
sbag5
(g6
g7
(lp3278
Vassumption
p3279
atp3280
Rp3281
(dp3282
g16
VNN
p3283
sbatp3284
Rp3285
(dp3286
g16
VNP
p3287
sbatp3288
Rp3289
(dp3290
g16
VPP
p3291
sbag5
(g6
g7
(lp3292
g46
atp3293
Rp3294
(dp3295
g16
g46
sbag5
(g6
g7
(lp3296
g5
(g6
g7
(lp3297
Vthat
p3298
atp3299
Rp3300
(dp3301
g16
VIN
p3302
sbag5
(g6
g7
(lp3303
g5
(g6
g7
(lp3304
g5
(g6
g7
(lp3305
Vwe
p3306
atp3307
Rp3308
(dp3309
g16
VPRP
p3310
sbatp3311
Rp3312
(dp3313
g16
VNP
p3314
sbag5
(g6
g7
(lp3315
g5
(g6
g7
(lp3316
Vare
p3317
atp3318
Rp3319
(dp3320
g16
VVBP
p3321
sbag5
(g6
g7
(lp3322
g5
(g6
g7
(lp3323
Vmore
p3324
atp3325
Rp3326
(dp3327
g16
VRBR
p3328
sbag5
(g6
g7
(lp3329
Vlikely
p3330
atp3331
Rp3332
(dp3333
g16
VJJ
p3334
sbag5
(g6
g7
(lp3335
g5
(g6
g7
(lp3336
g5
(g6
g7
(lp3337
Vto
p3338
atp3339
Rp3340
(dp3341
g16
VTO
p3342
sbag5
(g6
g7
(lp3343
g5
(g6
g7
(lp3344
g5
(g6
g7
(lp3345
Vsuccessfully
p3346
atp3347
Rp3348
(dp3349
g16
VRB
p3350
sbatp3351
Rp3352
(dp3353
g16
VADVP
p3354
sbag5
(g6
g7
(lp3355
Vcorrect
p3356
atp3357
Rp3358
(dp3359
g16
VVB
p3360
sbag5
(g6
g7
(lp3361
g5
(g6
g7
(lp3362
Vthe
p3363
atp3364
Rp3365
(dp3366
g16
VDT
p3367
sbag5
(g6
g7
(lp3368
Vquery
p3369
atp3370
Rp3371
(dp3372
g16
VNN
p3373
sbatp3374
Rp3375
(dp3376
g16
VNP
p3377
sbag5
(g6
g7
(lp3378
g5
(g6
g7
(lp3379
Vif
p3380
atp3381
Rp3382
(dp3383
g16
VIN
p3384
sbag5
(g6
g7
(lp3385
g5
(g6
g7
(lp3386
g5
(g6
g7
(lp3387
Vwe
p3388
atp3389
Rp3390
(dp3391
g16
VPRP
p3392
sbatp3393
Rp3394
(dp3395
g16
VNP
p3396
sbag5
(g6
g7
(lp3397
g5
(g6
g7
(lp3398
Vtake
p3399
atp3400
Rp3401
(dp3402
g16
VVBP
p3403
sbag5
(g6
g7
(lp3404
g5
(g6
g7
(lp3405
g5
(g6
g7
(lp3406
Vseveral
p3407
atp3408
Rp3409
(dp3410
g16
VJJ
p3411
sbag5
(g6
g7
(lp3412
Vshort
p3413
atp3414
Rp3415
(dp3416
g16
VJJ
p3417
sbag5
(g6
g7
(lp3418
Vsteps
p3419
atp3420
Rp3421
(dp3422
g16
VNNS
p3423
sbatp3424
Rp3425
(dp3426
g16
VNP
p3427
sbag5
(g6
g7
(lp3428
g5
(g6
g7
(lp3429
Vinstead
p3430
atp3431
Rp3432
(dp3433
g16
VRB
p3434
sbag5
(g6
g7
(lp3435
Vof
p3436
atp3437
Rp3438
(dp3439
g16
VIN
p3440
sbag5
(g6
g7
(lp3441
g5
(g6
g7
(lp3442
Vone
p3443
atp3444
Rp3445
(dp3446
g16
VCD
p3447
sbag5
(g6
g7
(lp3448
Vbig
p3449
atp3450
Rp3451
(dp3452
g16
VJJ
p3453
sbag5
(g6
g7
(lp3454
Vstep
p3455
atp3456
Rp3457
(dp3458
g16
VNN
p3459
sbag5
(g6
g7
(lp3460
V-LSB-
p3461
atp3462
Rp3463
(dp3464
g16
VNNS
p3465
sbatp3466
Rp3467
(dp3468
g16
VNP
p3469
sbatp3470
Rp3471
(dp3472
g16
VPP
p3473
sbatp3474
Rp3475
(dp3476
g16
VNP
p3477
sbag5
(g6
g7
(lp3478
g5
(g6
g7
(lp3479
V3
p3480
atp3481
Rp3482
(dp3483
g16
VCD
p3484
sbag5
(g6
g7
(lp3485
V-RSB-
p3486
atp3487
Rp3488
(dp3489
g16
VNNS
p3490
sbatp3491
Rp3492
(dp3493
g16
VNP
p3494
sbatp3495
Rp3496
(dp3497
g16
VVP
p3498
sbatp3499
Rp3500
(dp3501
g16
g260
sbatp3502
Rp3503
(dp3504
g16
VSBAR
p3505
sbatp3506
Rp3507
(dp3508
g16
VVP
p3509
sbatp3510
Rp3511
(dp3512
g16
VVP
p3513
sbatp3514
Rp3515
(dp3516
g16
g260
sbatp3517
Rp3518
(dp3519
g16
VADJP
p3520
sbatp3521
Rp3522
(dp3523
g16
VVP
p3524
sbatp3525
Rp3526
(dp3527
g16
g260
sbatp3528
Rp3529
(dp3530
g16
VSBAR
p3531
sbatp3532
Rp3533
(dp3534
g16
VVP
p3535
sbatp3536
Rp3537
(dp3538
g16
VVP
p3539
sbatp3540
Rp3541
(dp3542
g16
g260
sbatp3543
Rp3544
(dp3545
g16
VROOT
p3546
sbasg548
(icmyPackage
CorE
p3547
(dp3548
g551
(lp3549
(I0
I18
tp3550
a(I0
I30
tp3551
asg555
g3500
sbsg556
(icmyPackage
CorE
p3552
(dp3553
g551
(lp3554
(I0
I0
tp3555
a(I0
I16
tp3556
asg555
g5
(g6
g7
(lp3557
g3247
ag3254
ag3261
ag3289
ag3294
ag3300
ag3312
ag3319
ag3326
ag3332
ag3340
ag3352
ag3358
ag3375
atp3558
Rp3559
(dp3560
g16
g566
sbsbsg567
(icmyPackage
pattern
p3561
(dp3562
g570
I0
sg571
I0
sg572
(lp3563
(lp3564
S'if'
p3565
aasg579
(lp3566
I1
aI1
aI1
asg581
(lp3567
S'An effective knowledge flow network enables a research team to be very powerful in generating new knowledge if every node can innovate and output new knowledge to appropriate members.'
p3568
asg584
I14
sg585
(lp3569
(lp3570
S'&R@Complete@'
p3571
aa(lp3572
S'&C@Complete@'
p3573
aasbsg596
(lp3574
(isxpPackage
sxpSent
p3575
(dp3576
g600
(lp3577
I8
asg602
VIt is motivated by the assumption, that we are more likely to successfully correct the query if we take several short steps instead of one big step [ 3 ]
p3578
sg604
I7
sg584
I35
sg605
I16
sbasba(icmyPackage
CELink
p3579
(dp3580
g3
(lp3581
g5
(g6
g7
(lp3582
g5
(g6
g7
(lp3583
g5
(g6
g7
(lp3584
g5
(g6
g7
(lp3585
VIterative
p3586
atp3587
Rp3588
(dp3589
g16
VJJ
p3590
sbag5
(g6
g7
(lp3591
Vcorrection
p3592
atp3593
Rp3594
(dp3595
g16
VNN
p3596
sbatp3597
Rp3598
(dp3599
g16
VNP
p3600
sbag5
(g6
g7
(lp3601
g5
(g6
g7
(lp3602
Vis
p3603
atp3604
Rp3605
(dp3606
g16
VVBZ
p3607
sbag5
(g6
g7
(lp3608
g5
(g6
g7
(lp3609
g5
(g6
g7
(lp3610
Vhill
p3611
atp3612
Rp3613
(dp3614
g16
VNN
p3615
sbatp3616
Rp3617
(dp3618
g16
VNP
p3619
sbag5
(g6
g7
(lp3620
g5
(g6
g7
(lp3621
g5
(g6
g7
(lp3622
g5
(g6
g7
(lp3623
Vclimbing
p3624
atp3625
Rp3626
(dp3627
g16
VVBG
p3628
sbag5
(g6
g7
(lp3629
g5
(g6
g7
(lp3630
Vin
p3631
atp3632
Rp3633
(dp3634
g16
VIN
p3635
sbag5
(g6
g7
(lp3636
g5
(g6
g7
(lp3637
g5
(g6
g7
(lp3638
Vthe
p3639
atp3640
Rp3641
(dp3642
g16
VDT
p3643
sbag5
(g6
g7
(lp3644
Vspace
p3645
atp3646
Rp3647
(dp3648
g16
VNN
p3649
sbatp3650
Rp3651
(dp3652
g16
VNP
p3653
sbag5
(g6
g7
(lp3654
g5
(g6
g7
(lp3655
Vof
p3656
atp3657
Rp3658
(dp3659
g16
VIN
p3660
sbag5
(g6
g7
(lp3661
g5
(g6
g7
(lp3662
Vpossible
p3663
atp3664
Rp3665
(dp3666
g16
VJJ
p3667
sbag5
(g6
g7
(lp3668
Vcorrections
p3669
atp3670
Rp3671
(dp3672
g16
VNNS
p3673
sbatp3674
Rp3675
(dp3676
g16
VNP
p3677
sbatp3678
Rp3679
(dp3680
g16
VPP
p3681
sbatp3682
Rp3683
(dp3684
g16
VNP
p3685
sbatp3686
Rp3687
(dp3688
g16
VPP
p3689
sbag5
(g6
g7
(lp3690
g5
(g6
g7
(lp3691
Von
p3692
atp3693
Rp3694
(dp3695
g16
VIN
p3696
sbag5
(g6
g7
(lp3697
g5
(g6
g7
(lp3698
g5
(g6
g7
(lp3699
Veach
p3700
atp3701
Rp3702
(dp3703
g16
VDT
p3704
sbag5
(g6
g7
(lp3705
Viteration
p3706
atp3707
Rp3708
(dp3709
g16
VNN
p3710
sbatp3711
Rp3712
(dp3713
g16
VNP
p3714
sbag5
(g6
g7
(lp3715
g5
(g6
g7
(lp3716
g5
(g6
g7
(lp3717
g5
(g6
g7
(lp3718
Vwe
p3719
atp3720
Rp3721
(dp3722
g16
VPRP
p3723
sbatp3724
Rp3725
(dp3726
g16
VNP
p3727
sbag5
(g6
g7
(lp3728
g5
(g6
g7
(lp3729
Vmake
p3730
atp3731
Rp3732
(dp3733
g16
VVBP
p3734
sbag5
(g6
g7
(lp3735
g5
(g6
g7
(lp3736
g287
atp3737
Rp3738
(dp3739
g16
VDT
p3740
sbag5
(g6
g7
(lp3741
Vtransition
p3742
atp3743
Rp3744
(dp3745
g16
VNN
p3746
sbatp3747
Rp3748
(dp3749
g16
VNP
p3750
sbag5
(g6
g7
(lp3751
g5
(g6
g7
(lp3752
Vto
p3753
atp3754
Rp3755
(dp3756
g16
VTO
p3757
sbag5
(g6
g7
(lp3758
g5
(g6
g7
(lp3759
g5
(g6
g7
(lp3760
Vthe
p3761
atp3762
Rp3763
(dp3764
g16
VDT
p3765
sbag5
(g6
g7
(lp3766
Vbest
p3767
atp3768
Rp3769
(dp3770
g16
VJJS
p3771
sbag5
(g6
g7
(lp3772
Vpoint
p3773
atp3774
Rp3775
(dp3776
g16
VNN
p3777
sbatp3778
Rp3779
(dp3780
g16
VNP
p3781
sbag5
(g6
g7
(lp3782
g5
(g6
g7
(lp3783
Vin
p3784
atp3785
Rp3786
(dp3787
g16
VIN
p3788
sbag5
(g6
g7
(lp3789
g5
(g6
g7
(lp3790
Vthe
p3791
atp3792
Rp3793
(dp3794
g16
VDT
p3795
sbag5
(g6
g7
(lp3796
Vneighbourhood
p3797
atp3798
Rp3799
(dp3800
g16
VNN
p3801
sbatp3802
Rp3803
(dp3804
g16
VNP
p3805
sbatp3806
Rp3807
(dp3808
g16
VPP
p3809
sbatp3810
Rp3811
(dp3812
g16
VNP
p3813
sbatp3814
Rp3815
(dp3816
g16
VPP
p3817
sbatp3818
Rp3819
(dp3820
g16
VVP
p3821
sbatp3822
Rp3823
(dp3824
g16
g260
sbatp3825
Rp3826
(dp3827
g16
VSBAR
p3828
sbatp3829
Rp3830
(dp3831
g16
VNP
p3832
sbatp3833
Rp3834
(dp3835
g16
VPP
p3836
sbatp3837
Rp3838
(dp3839
g16
VVP
p3840
sbatp3841
Rp3842
(dp3843
g16
g260
sbag5
(g6
g7
(lp3844
g46
atp3845
Rp3846
(dp3847
g16
g46
sbag5
(g6
g7
(lp3848
Vi.e.
p3849
atp3850
Rp3851
(dp3852
g16
VFW
p3853
sbag5
(g6
g7
(lp3854
g46
atp3855
Rp3856
(dp3857
g16
g46
sbag5
(g6
g7
(lp3858
g5
(g6
g7
(lp3859
g5
(g6
g7
(lp3860
Vto
p3861
atp3862
Rp3863
(dp3864
g16
VTO
p3865
sbag5
(g6
g7
(lp3866
g5
(g6
g7
(lp3867
g5
(g6
g7
(lp3868
Vcorrection
p3869
atp3870
Rp3871
(dp3872
g16
VNN
p3873
sbatp3874
Rp3875
(dp3876
g16
VNP
p3877
sbag5
(g6
g7
(lp3878
g46
atp3879
Rp3880
(dp3881
g16
g46
sbag5
(g6
g7
(lp3882
g5
(g6
g7
(lp3883
g5
(g6
g7
(lp3884
Vthat
p3885
atp3886
Rp3887
(dp3888
g16
VWDT
p3889
sbatp3890
Rp3891
(dp3892
g16
VWHNP
p3893
sbag5
(g6
g7
(lp3894
g5
(g6
g7
(lp3895
g5
(g6
g7
(lp3896
Vhas
p3897
atp3898
Rp3899
(dp3900
g16
VVBZ
p3901
sbag5
(g6
g7
(lp3902
g5
(g6
g7
(lp3903
g5
(g6
g7
(lp3904
Vmaximal
p3905
atp3906
Rp3907
(dp3908
g16
VJJ
p3909
sbag5
(g6
g7
(lp3910
Vposterior
p3911
atp3912
Rp3913
(dp3914
g16
VNN
p3915
sbag5
(g6
g7
(lp3916
Vprobability
p3917
atp3918
Rp3919
(dp3920
g16
VNN
p3921
sbag5
(g6
g7
(lp3922
g2013
atp3923
Rp3924
(dp3925
g16
VNNP
p3926
sbatp3927
Rp3928
(dp3929
g16
VNP
p3930
sbag5
(g6
g7
(lp3931
g5
(g6
g7
(lp3932
g5
(g6
g7
(lp3933
V-LRB-
p3934
atp3935
Rp3936
(dp3937
g16
V-LRB-
p3938
sbag5
(g6
g7
(lp3939
g5
(g6
g7
(lp3940
Vc
p3941
atp3942
Rp3943
(dp3944
g16
VSYM
p3945
sbatp3946
Rp3947
(dp3948
g16
VNP
p3949
sbag5
(g6
g7
(lp3950
g5
(g6
g7
(lp3951
g2088
atp3952
Rp3953
(dp3954
g16
VVBP
p3955
sbatp3956
Rp3957
(dp3958
g16
VVP
p3959
sbatp3960
Rp3961
(dp3962
g16
g260
sbatp3963
Rp3964
(dp3965
g16
VSBAR
p3966
sbatp3967
Rp3968
(dp3969
g16
VNP
p3970
sbatp3971
Rp3972
(dp3973
g16
VVP
p3974
sbatp3975
Rp3976
(dp3977
g16
g260
sbatp3978
Rp3979
(dp3980
g16
VSBAR
p3981
sbatp3982
Rp3983
(dp3984
g16
VNP
p3985
sbatp3986
Rp3987
(dp3988
g16
VPP
p3989
sbatp3990
Rp3991
(dp3992
g16
g260
sbatp3993
Rp3994
(dp3995
g16
g260
sbatp3996
Rp3997
(dp3998
g16
VNP
p3999
sbatp4000
Rp4001
(dp4002
g16
VVP
p4003
sbatp4004
Rp4005
(dp4006
g16
g260
sbatp4007
Rp4008
(dp4009
g16
VROOT
p4010
sbag5
(g6
g7
(lp4011
g5
(g6
g7
(lp4012
g5
(g6
g7
(lp4013
g5
(g6
g7
(lp4014
VAs
p4015
atp4016
Rp4017
(dp4018
g16
VIN
p4019
sbag5
(g6
g7
(lp4020
g5
(g6
g7
(lp4021
Vany
p4022
atp4023
Rp4024
(dp4025
g16
VDT
p4026
sbag5
(g6
g7
(lp4027
Vlocal
p4028
atp4029
Rp4030
(dp4031
g16
VJJ
p4032
sbag5
(g6
g7
(lp4033
Vsearch
p4034
atp4035
Rp4036
(dp4037
g16
VNN
p4038
sbag5
(g6
g7
(lp4039
Vmethod
p4040
atp4041
Rp4042
(dp4043
g16
VNN
p4044
sbatp4045
Rp4046
(dp4047
g16
VNP
p4048
sbatp4049
Rp4050
(dp4051
g16
VPP
p4052
sbag5
(g6
g7
(lp4053
g46
atp4054
Rp4055
(dp4056
g16
g46
sbag5
(g6
g7
(lp4057
g5
(g6
g7
(lp4058
Viterative
p4059
atp4060
Rp4061
(dp4062
g16
VJJ
p4063
sbag5
(g6
g7
(lp4064
Vcorrection
p4065
atp4066
Rp4067
(dp4068
g16
VNN
p4069
sbatp4070
Rp4071
(dp4072
g16
VNP
p4073
sbag5
(g6
g7
(lp4074
g5
(g6
g7
(lp4075
Vis
p4076
atp4077
Rp4078
(dp4079
g16
VVBZ
p4080
sbag5
(g6
g7
(lp4081
g5
(g6
g7
(lp4082
Vprone
p4083
atp4084
Rp4085
(dp4086
g16
VJJ
p4087
sbatp4088
Rp4089
(dp4090
g16
VADJP
p4091
sbag5
(g6
g7
(lp4092
g5
(g6
g7
(lp4093
Vto
p4094
atp4095
Rp4096
(dp4097
g16
VTO
p4098
sbag5
(g6
g7
(lp4099
g5
(g6
g7
(lp4100
Vlocal
p4101
atp4102
Rp4103
(dp4104
g16
VJJ
p4105
sbag5
(g6
g7
(lp4106
Vminima
p4107
atp4108
Rp4109
(dp4110
g16
VNN
p4111
sbatp4112
Rp4113
(dp4114
g16
VNP
p4115
sbatp4116
Rp4117
(dp4118
g16
VPP
p4119
sbag5
(g6
g7
(lp4120
g46
atp4121
Rp4122
(dp4123
g16
g46
sbag5
(g6
g7
(lp4124
g5
(g6
g7
(lp4125
Vstopping
p4126
atp4127
Rp4128
(dp4129
g16
VVBG
p4130
sbag5
(g6
g7
(lp4131
g5
(g6
g7
(lp4132
Vbefore
p4133
atp4134
Rp4135
(dp4136
g16
VIN
p4137
sbag5
(g6
g7
(lp4138
g5
(g6
g7
(lp4139
g5
(g6
g7
(lp4140
Vreaching
p4141
atp4142
Rp4143
(dp4144
g16
VVBG
p4145
sbag5
(g6
g7
(lp4146
g5
(g6
g7
(lp4147
Vthe
p4148
atp4149
Rp4150
(dp4151
g16
VDT
p4152
sbag5
(g6
g7
(lp4153
Vcorrect
p4154
atp4155
Rp4156
(dp4157
g16
VJJ
p4158
sbag5
(g6
g7
(lp4159
Vword
p4160
atp4161
Rp4162
(dp4163
g16
VNN
p4164
sbatp4165
Rp4166
(dp4167
g16
VNP
p4168
sbatp4169
Rp4170
(dp4171
g16
VVP
p4172
sbatp4173
Rp4174
(dp4175
g16
g260
sbatp4176
Rp4177
(dp4178
g16
VPP
p4179
sbatp4180
Rp4181
(dp4182
g16
VVP
p4183
sbatp4184
Rp4185
(dp4186
g16
VVP
p4187
sbatp4188
Rp4189
(dp4190
g16
g260
sbatp4191
Rp4192
(dp4193
g16
VROOT
p4194
sbasg548
(icmyPackage
CorE
p4195
(dp4196
g551
(lp4197
(I1
I1
tp4198
a(I1
I19
tp4199
asg555
g5
(g6
g7
(lp4200
g4046
ag4055
ag4071
ag4185
atp4201
Rp4202
(dp4203
g16
g566
sbsbsg556
(icmyPackage
CorE
p4204
(dp4205
g551
(lp4206
(I0
I0
tp4207
a(I0
I39
tp4208
asg555
g4008
sbsg567
(icmyPackage
pattern
p4209
(dp4210
g570
I26
sg571
I1
sg572
(lp4211
(lp4212
S'as'
p4213
aasg579
(lp4214
I3
aI1
aI1
asg581
(lp4215
S'You do not need to worry about the operation, as the software is very easy to use.'
p4216
asg584
I80
sg585
(lp4217
(lp4218
S'&R@Complete@'
p4219
aS'(,)'
p4220
aS'(-such/-same/-seem/-regard/-regards/-regarded/-view/-views/-viewed/-denote/-denoted/-denotes)'
p4221
aa(lp4222
S'(-if/-follow/-follows/-&adv)'
p4223
aS'&C@Complete@'
p4224
aasbsg596
(lp4225
(isxpPackage
sxpSent
p4226
(dp4227
g600
(lp4228
I9
asg602
VIterative correction is hill climbing in the space of possible corrections on each iteration we make a transition to the best point in the neighbourhood, i.e., to correction, that has maximal posterior probability P ( c q
p4229
sg604
I7
sg584
I36
sg605
I17
sba(isxpPackage
sxpSent
p4230
(dp4231
g600
(lp4232
I9
asg602
VAs any local search method, iterative correction is prone to local minima, stopping before reaching the correct word
p4233
sg604
I7
sg584
I37
sg605
I17
sbasba(icmyPackage
CELink
p4234
(dp4235
g3
(lp4236
g5
(g6
g7
(lp4237
g5
(g6
g7
(lp4238
g5
(g6
g7
(lp4239
g5
(g6
g7
(lp4240
g5
(g6
g7
(lp4241
g1804
atp4242
Rp4243
(dp4244
g16
VDT
p4245
sbag5
(g6
g7
(lp4246
Vcommon
p4247
atp4248
Rp4249
(dp4250
g16
VJJ
p4251
sbag5
(g6
g7
(lp4252
Vmethod
p4253
atp4254
Rp4255
(dp4256
g16
VNN
p4257
sbatp4258
Rp4259
(dp4260
g16
VNP
p4261
sbag5
(g6
g7
(lp4262
g5
(g6
g7
(lp4263
Vof
p4264
atp4265
Rp4266
(dp4267
g16
VIN
p4268
sbag5
(g6
g7
(lp4269
g5
(g6
g7
(lp4270
g5
(g6
g7
(lp4271
Vavoiding
p4272
atp4273
Rp4274
(dp4275
g16
VVBG
p4276
sbag5
(g6
g7
(lp4277
g5
(g6
g7
(lp4278
Vlocal
p4279
atp4280
Rp4281
(dp4282
g16
VJJ
p4283
sbag5
(g6
g7
(lp4284
Vminima
p4285
atp4286
Rp4287
(dp4288
g16
VNN
p4289
sbatp4290
Rp4291
(dp4292
g16
VNP
p4293
sbag5
(g6
g7
(lp4294
g5
(g6
g7
(lp4295
Vin
p4296
atp4297
Rp4298
(dp4299
g16
VIN
p4300
sbag5
(g6
g7
(lp4301
g5
(g6
g7
(lp4302
Voptimization
p4303
atp4304
Rp4305
(dp4306
g16
VNN
p4307
sbatp4308
Rp4309
(dp4310
g16
VNP
p4311
sbatp4312
Rp4313
(dp4314
g16
VPP
p4315
sbatp4316
Rp4317
(dp4318
g16
VVP
p4319
sbatp4320
Rp4321
(dp4322
g16
g260
sbatp4323
Rp4324
(dp4325
g16
VPP
p4326
sbatp4327
Rp4328
(dp4329
g16
VNP
p4330
sbag5
(g6
g7
(lp4331
g5
(g6
g7
(lp4332
Vis
p4333
atp4334
Rp4335
(dp4336
g16
VVBZ
p4337
sbag5
(g6
g7
(lp4338
g5
(g6
g7
(lp4339
g5
(g6
g7
(lp4340
Vthe
p4341
atp4342
Rp4343
(dp4344
g16
VDT
p4345
sbag5
(g6
g7
(lp4346
Vsimulated
p4347
atp4348
Rp4349
(dp4350
g16
VJJ
p4351
sbag5
(g6
g7
(lp4352
Vannealing
p4353
atp4354
Rp4355
(dp4356
g16
VNN
p4357
sbag5
(g6
g7
(lp4358
Valgorithm
p4359
atp4360
Rp4361
(dp4362
g16
VNN
p4363
sbatp4364
Rp4365
(dp4366
g16
VNP
p4367
sbag5
(g6
g7
(lp4368
g46
atp4369
Rp4370
(dp4371
g16
g46
sbag5
(g6
g7
(lp4372
g5
(g6
g7
(lp4373
g5
(g6
g7
(lp4374
g5
(g6
g7
(lp4375
Vkey
p4376
atp4377
Rp4378
(dp4379
g16
VJJ
p4380
sbag5
(g6
g7
(lp4381
Videas
p4382
atp4383
Rp4384
(dp4385
g16
VNNS
p4386
sbatp4387
Rp4388
(dp4389
g16
VNP
p4390
sbag5
(g6
g7
(lp4391
g5
(g6
g7
(lp4392
Vfrom
p4393
atp4394
Rp4395
(dp4396
g16
VIN
p4397
sbag5
(g6
g7
(lp4398
g5
(g6
g7
(lp4399
Vwhich
p4400
atp4401
Rp4402
(dp4403
g16
VWDT
p4404
sbatp4405
Rp4406
(dp4407
g16
VWHNP
p4408
sbatp4409
Rp4410
(dp4411
g16
VWHPP
p4412
sbatp4413
Rp4414
(dp4415
g16
VWHNP
p4416
sbag5
(g6
g7
(lp4417
g5
(g6
g7
(lp4418
g5
(g6
g7
(lp4419
Vcan
p4420
atp4421
Rp4422
(dp4423
g16
VMD
p4424
sbag5
(g6
g7
(lp4425
g5
(g6
g7
(lp4426
Vbe
p4427
atp4428
Rp4429
(dp4430
g16
VVB
p4431
sbag5
(g6
g7
(lp4432
g5
(g6
g7
(lp4433
Vadapted
p4434
atp4435
Rp4436
(dp4437
g16
VVBN
p4438
sbag5
(g6
g7
(lp4439
g5
(g6
g7
(lp4440
Vfor
p4441
atp4442
Rp4443
(dp4444
g16
VIN
p4445
sbag5
(g6
g7
(lp4446
g5
(g6
g7
(lp4447
g5
(g6
g7
(lp4448
Vspelling
p4449
atp4450
Rp4451
(dp4452
g16
VVBG
p4453
sbag5
(g6
g7
(lp4454
g5
(g6
g7
(lp4455
Vcorrection
p4456
atp4457
Rp4458
(dp4459
g16
VNN
p4460
sbag5
(g6
g7
(lp4461
Vtask
p4462
atp4463
Rp4464
(dp4465
g16
VNN
p4466
sbatp4467
Rp4468
(dp4469
g16
VNP
p4470
sbatp4471
Rp4472
(dp4473
g16
VVP
p4474
sbatp4475
Rp4476
(dp4477
g16
g260
sbatp4478
Rp4479
(dp4480
g16
VPP
p4481
sbatp4482
Rp4483
(dp4484
g16
VVP
p4485
sbatp4486
Rp4487
(dp4488
g16
VVP
p4489
sbatp4490
Rp4491
(dp4492
g16
VVP
p4493
sbatp4494
Rp4495
(dp4496
g16
g260
sbatp4497
Rp4498
(dp4499
g16
VSBAR
p4500
sbatp4501
Rp4502
(dp4503
g16
VNP
p4504
sbatp4505
Rp4506
(dp4507
g16
VVP
p4508
sbatp4509
Rp4510
(dp4511
g16
g260
sbatp4512
Rp4513
(dp4514
g16
VROOT
p4515
sbasg548
(icmyPackage
CorE
p4516
(dp4517
g551
(lp4518
(I0
I23
tp4519
a(I0
I25
tp4520
asg555
g4476
sbsg556
(icmyPackage
CorE
p4521
(dp4522
g551
(lp4523
(I0
I0
tp4524
a(I0
I21
tp4525
asg555
g5
(g6
g7
(lp4526
g4328
ag4335
ag4365
ag4370
ag4414
ag4422
ag4429
ag4436
atp4527
Rp4528
(dp4529
g16
g566
sbsbsg567
(icmyPackage
pattern
p4530
(dp4531
g570
I25
sg571
I0
sg572
(lp4532
(lp4533
S'for'
p4534
aasg579
(lp4535
I2
aI1
aI1
asg581
(lp4536
S'She was angry with him for being late.'
p4537
asg584
I44
sg585
(lp4538
(lp4539
S'&R'
p4540
aa(lp4541
S'&V-ing@C@'
p4542
aasbsg596
(lp4543
(isxpPackage
sxpSent
p4544
(dp4545
g600
(lp4546
I10
asg602
VA common method of avoiding local minima in optimization is the simulated annealing algorithm, key ideas from which can be adapted for spelling correction task
p4547
sg604
I8
sg584
I38
sg605
I18
sbasba(icmyPackage
CELink
p4548
(dp4549
g3
(lp4550
g5
(g6
g7
(lp4551
g5
(g6
g7
(lp4552
g5
(g6
g7
(lp4553
g5
(g6
g7
(lp4554
VWith
p4555
atp4556
Rp4557
(dp4558
g16
VIN
p4559
sbag5
(g6
g7
(lp4560
g5
(g6
g7
(lp4561
g5
(g6
g7
(lp4562
Vthat
p4563
atp4564
Rp4565
(dp4566
g16
VDT
p4567
sbag5
(g6
g7
(lp4568
Vprobability
p4569
atp4570
Rp4571
(dp4572
g16
VNN
p4573
sbatp4574
Rp4575
(dp4576
g16
VNP
p4577
sbag5
(g6
g7
(lp4578
g5
(g6
g7
(lp4579
Vdefined
p4580
atp4581
Rp4582
(dp4583
g16
VVBN
p4584
sbatp4585
Rp4586
(dp4587
g16
VVP
p4588
sbatp4589
Rp4590
(dp4591
g16
VNP
p4592
sbatp4593
Rp4594
(dp4595
g16
VPP
p4596
sbag5
(g6
g7
(lp4597
g46
atp4598
Rp4599
(dp4600
g16
g46
sbag5
(g6
g7
(lp4601
g5
(g6
g7
(lp4602
Vour
p4603
atp4604
Rp4605
(dp4606
g16
VPRP$
p4607
sbag5
(g6
g7
(lp4608
Vcorrection
p4609
atp4610
Rp4611
(dp4612
g16
VNN
p4613
sbag5
(g6
g7
(lp4614
Valgorithm
p4615
atp4616
Rp4617
(dp4618
g16
VNN
p4619
sbatp4620
Rp4621
(dp4622
g16
VNP
p4623
sbag5
(g6
g7
(lp4624
g5
(g6
g7
(lp4625
Vis
p4626
atp4627
Rp4628
(dp4629
g16
VVBZ
p4630
sbag5
(g6
g7
(lp4631
g5
(g6
g7
(lp4632
g5
(g6
g7
(lp4633
Vthe
p4634
atp4635
Rp4636
(dp4637
g16
VDT
p4638
sbag5
(g6
g7
(lp4639
Vfollowing
p4640
atp4641
Rp4642
(dp4643
g16
VJJ
p4644
sbag5
(g6
g7
(lp4645
Vgiven
p4646
atp4647
Rp4648
(dp4649
g16
VVBN
p4650
sbag5
(g6
g7
(lp4651
Vquery
p4652
atp4653
Rp4654
(dp4655
g16
VNN
p4656
sbag5
(g6
g7
(lp4657
g2088
atp4658
Rp4659
(dp4660
g16
VNN
p4661
sbatp4662
Rp4663
(dp4664
g16
VNP
p4665
sbag5
(g6
g7
(lp4666
g46
atp4667
Rp4668
(dp4669
g16
g46
sbag5
(g6
g7
(lp4670
g5
(g6
g7
(lp4671
Vpick
p4672
atp4673
Rp4674
(dp4675
g16
VVBP
p4676
sbag5
(g6
g7
(lp4677
g5
(g6
g7
(lp4678
g5
(g6
g7
(lp4679
g3941
atp4680
Rp4681
(dp4682
g16
VSYM
p4683
sbatp4684
Rp4685
(dp4686
g16
VNP
p4687
sbag5
(g6
g7
(lp4688
g5
(g6
g7
(lp4689
V=
p4690
atp4691
Rp4692
(dp4693
g16
VSYM
p4694
sbag5
(g6
g7
(lp4695
g5
(g6
g7
(lp4696
Varg
p4697
atp4698
Rp4699
(dp4700
g16
VNN
p4701
sbag5
(g6
g7
(lp4702
Vmax
p4703
atp4704
Rp4705
(dp4706
g16
VNN
p4707
sbag5
(g6
g7
(lp4708
g3941
atp4709
Rp4710
(dp4711
g16
VNN
p4712
sbag5
(g6
g7
(lp4713
VE
p4714
atp4715
Rp4716
(dp4717
g16
VNNP
p4718
sbag5
(g6
g7
(lp4719
g2013
atp4720
Rp4721
(dp4722
g16
VNNP
p4723
sbatp4724
Rp4725
(dp4726
g16
VNP
p4727
sbatp4728
Rp4729
(dp4730
g16
VVP
p4731
sbatp4732
Rp4733
(dp4734
g16
g260
sbatp4735
Rp4736
(dp4737
g16
VVP
p4738
sbatp4739
Rp4740
(dp4741
g16
VNP
p4742
sbag5
(g6
g7
(lp4743
g5
(g6
g7
(lp4744
V-LRB-
p4745
atp4746
Rp4747
(dp4748
g16
V-LRB-
p4749
sbag5
(g6
g7
(lp4750
g5
(g6
g7
(lp4751
g5
(g6
g7
(lp4752
g3941
atp4753
Rp4754
(dp4755
g16
VSYM
p4756
sbatp4757
Rp4758
(dp4759
g16
g1819
sbag5
(g6
g7
(lp4760
g5
(g6
g7
(lp4761
g5
(g6
g7
(lp4762
g4714
atp4763
Rp4764
(dp4765
g16
VNNP
p4766
sbatp4767
Rp4768
(dp4769
g16
VNP
p4770
sbag5
(g6
g7
(lp4771
g5
(g6
g7
(lp4772
g2088
atp4773
Rp4774
(dp4775
g16
VVBP
p4776
sbatp4777
Rp4778
(dp4779
g16
VVP
p4780
sbatp4781
Rp4782
(dp4783
g16
g260
sbatp4784
Rp4785
(dp4786
g16
VSBAR
p4787
sbag5
(g6
g7
(lp4788
V-RRB-
p4789
atp4790
Rp4791
(dp4792
g16
V-RRB-
p4793
sbatp4794
Rp4795
(dp4796
g16
VPRN
p4797
sbag5
(g6
g7
(lp4798
g5
(g6
g7
(lp4799
Vas
p4800
atp4801
Rp4802
(dp4803
g16
VIN
p4804
sbag5
(g6
g7
(lp4805
g5
(g6
g7
(lp4806
g287
atp4807
Rp4808
(dp4809
g16
VDT
p4810
sbag5
(g6
g7
(lp4811
Vcorrection
p4812
atp4813
Rp4814
(dp4815
g16
VNN
p4816
sbatp4817
Rp4818
(dp4819
g16
VNP
p4820
sbatp4821
Rp4822
(dp4823
g16
VPP
p4824
sbatp4825
Rp4826
(dp4827
g16
VVP
p4828
sbatp4829
Rp4830
(dp4831
g16
g260
sbatp4832
Rp4833
(dp4834
g16
VROOT
p4835
sbag5
(g6
g7
(lp4836
g5
(g6
g7
(lp4837
g5
(g6
g7
(lp4838
g5
(g6
g7
(lp4839
g5
(g6
g7
(lp4840
VProbability
p4841
atp4842
Rp4843
(dp4844
g16
VNNP
p4845
sbatp4846
Rp4847
(dp4848
g16
VNP
p4849
sbag5
(g6
g7
(lp4850
g5
(g6
g7
(lp4851
g5
(g6
g7
(lp4852
g5
(g6
g7
(lp4853
Vof
p4854
atp4855
Rp4856
(dp4857
g16
VIN
p4858
sbag5
(g6
g7
(lp4859
g5
(g6
g7
(lp4860
g5
(g6
g7
(lp4861
Vgetting
p4862
atp4863
Rp4864
(dp4865
g16
VVBG
p4866
sbag5
(g6
g7
(lp4867
g5
(g6
g7
(lp4868
Vfrom
p4869
atp4870
Rp4871
(dp4872
g16
VIN
p4873
sbag5
(g6
g7
(lp4874
g5
(g6
g7
(lp4875
g5
(g6
g7
(lp4876
g3941
atp4877
Rp4878
(dp4879
g16
VSYM
p4880
sbatp4881
Rp4882
(dp4883
g16
VNP
p4884
sbag5
(g6
g7
(lp4885
g5
(g6
g7
(lp4886
V0
p4887
atp4888
Rp4889
(dp4890
g16
VVBN
p4891
sbag5
(g6
g7
(lp4892
g5
(g6
g7
(lp4893
g5
(g6
g7
(lp4894
g4690
atp4895
Rp4896
(dp4897
g16
VSYM
p4898
sbag5
(g6
g7
(lp4899
g5
(g6
g7
(lp4900
g2088
atp4901
Rp4902
(dp4903
g16
VNN
p4904
sbatp4905
Rp4906
(dp4907
g16
VNP
p4908
sbatp4909
Rp4910
(dp4911
g16
VVP
p4912
sbatp4913
Rp4914
(dp4915
g16
g260
sbag5
(g6
g7
(lp4916
g5
(g6
g7
(lp4917
Vto
p4918
atp4919
Rp4920
(dp4921
g16
VTO
p4922
sbag5
(g6
g7
(lp4923
g5
(g6
g7
(lp4924
Vsome
p4925
atp4926
Rp4927
(dp4928
g16
VDT
p4929
sbag5
(g6
g7
(lp4930
g5
(g6
g7
(lp4931
g3941
atp4932
Rp4933
(dp4934
g16
VSYM
p4935
sbatp4936
Rp4937
(dp4938
g16
g1819
sbag5
(g6
g7
(lp4939
g4714
atp4940
Rp4941
(dp4942
g16
VJJS
p4943
sbag5
(g6
g7
(lp4944
g4690
atp4945
Rp4946
(dp4947
g16
VNN
p4948
sbatp4949
Rp4950
(dp4951
g16
VNP
p4952
sbatp4953
Rp4954
(dp4955
g16
VPP
p4956
sbatp4957
Rp4958
(dp4959
g16
VVP
p4960
sbatp4961
Rp4962
(dp4963
g16
VNP
p4964
sbatp4965
Rp4966
(dp4967
g16
VPP
p4968
sbatp4969
Rp4970
(dp4971
g16
VVP
p4972
sbatp4973
Rp4974
(dp4975
g16
g260
sbatp4976
Rp4977
(dp4978
g16
VPP
p4979
sbag5
(g6
g7
(lp4980
g5
(g6
g7
(lp4981
g3941
atp4982
Rp4983
(dp4984
g16
VSYM
p4985
sbatp4986
Rp4987
(dp4988
g16
VNP
p4989
sbag5
(g6
g7
(lp4990
g5
(g6
g7
(lp4991
Vis
p4992
atp4993
Rp4994
(dp4995
g16
VVBZ
p4996
sbag5
(g6
g7
(lp4997
g5
(g6
g7
(lp4998
g5
(g6
g7
(lp4999
g287
atp5000
Rp5001
(dp5002
g16
VDT
p5003
sbag5
(g6
g7
(lp5004
Vsum
p5005
atp5006
Rp5007
(dp5008
g16
VNN
p5009
sbatp5010
Rp5011
(dp5012
g16
VNP
p5013
sbag5
(g6
g7
(lp5014
g46
atp5015
Rp5016
(dp5017
g16
g46
sbag5
(g6
g7
(lp5018
g5
(g6
g7
(lp5019
Vover
p5020
atp5021
Rp5022
(dp5023
g16
VIN
p5024
sbag5
(g6
g7
(lp5025
g5
(g6
g7
(lp5026
Vall
p5027
atp5028
Rp5029
(dp5030
g16
VDT
p5031
sbag5
(g6
g7
(lp5032
Vpossible
p5033
atp5034
Rp5035
(dp5036
g16
VJJ
p5037
sbag5
(g6
g7
(lp5038
Vpaths
p5039
atp5040
Rp5041
(dp5042
g16
VNNS
p5043
sbatp5044
Rp5045
(dp5046
g16
VNP
p5047
sbatp5048
Rp5049
(dp5050
g16
VPP
p5051
sbag5
(g6
g7
(lp5052
g46
atp5053
Rp5054
(dp5055
g16
g46
sbag5
(g6
g7
(lp5056
g5
(g6
g7
(lp5057
Vof
p5058
atp5059
Rp5060
(dp5061
g16
VIN
p5062
sbag5
(g6
g7
(lp5063
g5
(g6
g7
(lp5064
g5
(g6
g7
(lp5065
Vprobabilities
p5066
atp5067
Rp5068
(dp5069
g16
VNNS
p5070
sbatp5071
Rp5072
(dp5073
g16
VNP
p5074
sbag5
(g6
g7
(lp5075
g5
(g6
g7
(lp5076
Vof
p5077
atp5078
Rp5079
(dp5080
g16
VIN
p5081
sbag5
(g6
g7
(lp5082
g5
(g6
g7
(lp5083
g5
(g6
g7
(lp5084
Vgetting
p5085
atp5086
Rp5087
(dp5088
g16
VVBG
p5089
sbag5
(g6
g7
(lp5090
g5
(g6
g7
(lp5091
Vfrom
p5092
atp5093
Rp5094
(dp5095
g16
VIN
p5096
sbag5
(g6
g7
(lp5097
g5
(g6
g7
(lp5098
g2088
atp5099
Rp5100
(dp5101
g16
VNN
p5102
sbatp5103
Rp5104
(dp5105
g16
VNP
p5106
sbatp5107
Rp5108
(dp5109
g16
VPP
p5110
sbag5
(g6
g7
(lp5111
g5
(g6
g7
(lp5112
Vto
p5113
atp5114
Rp5115
(dp5116
g16
VTO
p5117
sbag5
(g6
g7
(lp5118
g5
(g6
g7
(lp5119
g5
(g6
g7
(lp5120
g3941
atp5121
Rp5122
(dp5123
g16
VSYM
p5124
sbatp5125
Rp5126
(dp5127
g16
VNP
p5128
sbag5
(g6
g7
(lp5129
g5
(g6
g7
(lp5130
Vvia
p5131
atp5132
Rp5133
(dp5134
g16
VIN
p5135
sbag5
(g6
g7
(lp5136
g5
(g6
g7
(lp5137
Vspecific
p5138
atp5139
Rp5140
(dp5141
g16
VJJ
p5142
sbag5
(g6
g7
(lp5143
Vpath
p5144
atp5145
Rp5146
(dp5147
g16
VNN
p5148
sbag5
(g6
g7
(lp5149
g2088
atp5150
Rp5151
(dp5152
g16
VNN
p5153
sbag5
(g6
g7
(lp5154
g4690
atp5155
Rp5156
(dp5157
g16
VNNS
p5158
sbatp5159
Rp5160
(dp5161
g16
VNP
p5162
sbatp5163
Rp5164
(dp5165
g16
VPP
p5166
sbatp5167
Rp5168
(dp5169
g16
VNP
p5170
sbatp5171
Rp5172
(dp5173
g16
VPP
p5174
sbatp5175
Rp5176
(dp5177
g16
VVP
p5178
sbatp5179
Rp5180
(dp5181
g16
g260
sbatp5182
Rp5183
(dp5184
g16
VPP
p5185
sbatp5186
Rp5187
(dp5188
g16
VNP
p5189
sbatp5190
Rp5191
(dp5192
g16
VPP
p5193
sbatp5194
Rp5195
(dp5196
g16
VNP
p5197
sbatp5198
Rp5199
(dp5200
g16
VVP
p5201
sbatp5202
Rp5203
(dp5204
g16
g260
sbatp5205
Rp5206
(dp5207
g16
VSBAR
p5208
sbatp5209
Rp5210
(dp5211
g16
VNP
p5212
sbag5
(g6
g7
(lp5213
g5
(g6
g7
(lp5214
g5
(g6
g7
(lp5215
g3941
atp5216
Rp5217
(dp5218
g16
VSYM
p5219
sbatp5220
Rp5221
(dp5222
g16
g1819
sbag5
(g6
g7
(lp5223
g5
(g6
g7
(lp5224
g5
(g6
g7
(lp5225
g5
(g6
g7
(lp5226
g4887
atp5227
Rp5228
(dp5229
g16
VCD
p5230
sbag5
(g6
g7
(lp5231
g2055
atp5232
Rp5233
(dp5234
g16
VNN
p5235
sbag5
(g6
g7
(lp5236
g2061
atp5237
Rp5238
(dp5239
g16
VPOS
p5240
sbatp5241
Rp5242
(dp5243
g16
VNP
p5244
sbag5
(g6
g7
(lp5245
g5
(g6
g7
(lp5246
g5
(g6
g7
(lp5247
V\u005c
p5248
atp5249
Rp5250
(dp5251
g16
VRB
p5252
sbag5
(g6
g7
(lp5253
Vu2192
p5254
atp5255
Rp5256
(dp5257
g16
VJJ
p5258
sbag5
(g6
g7
(lp5259
g2061
atp5260
Rp5261
(dp5262
g16
V''
p5263
sbatp5264
Rp5265
(dp5266
g16
VADJP
p5267
sbag5
(g6
g7
(lp5268
g5
(g6
g7
(lp5269
g5
(g6
g7
(lp5270
g3941
atp5271
Rp5272
(dp5273
g16
VSYM
p5274
sbatp5275
Rp5276
(dp5277
g16
g1819
sbag5
(g6
g7
(lp5278
g5
(g6
g7
(lp5279
g5
(g6
g7
(lp5280
g5
(g6
g7
(lp5281
g2099
atp5282
Rp5283
(dp5284
g16
VCD
p5285
sbag5
(g6
g7
(lp5286
g2055
atp5287
Rp5288
(dp5289
g16
VNN
p5290
sbag5
(g6
g7
(lp5291
g2061
atp5292
Rp5293
(dp5294
g16
VPOS
p5295
sbatp5296
Rp5297
(dp5298
g16
VNP
p5299
sbag5
(g6
g7
(lp5300
V\u005c
p5301
atp5302
Rp5303
(dp5304
g16
VJJ
p5305
sbag5
(g6
g7
(lp5306
Vu2192
p5307
atp5308
Rp5309
(dp5310
g16
VNNS
p5311
sbag5
(g6
g7
(lp5312
g2061
atp5313
Rp5314
(dp5315
g16
V''
p5316
sbag5
(g6
g7
(lp5317
g2055
atp5318
Rp5319
(dp5320
g16
VNN
p5321
sbatp5322
Rp5323
(dp5324
g16
VNP
p5325
sbag5
(g6
g7
(lp5326
g5
(g6
g7
(lp5327
g2061
atp5328
Rp5329
(dp5330
g16
V``
p5331
sbag5
(g6
g7
(lp5332
V\u005c
p5333
atp5334
Rp5335
(dp5336
g16
VVBZ
p5337
sbag5
(g6
g7
(lp5338
g5
(g6
g7
(lp5339
g5
(g6
g7
(lp5340
g5
(g6
g7
(lp5341
g5
(g6
g7
(lp5342
Vu2026
p5343
atp5344
Rp5345
(dp5346
g16
VNNP
p5347
sbag5
(g6
g7
(lp5348
g2061
atp5349
Rp5350
(dp5351
g16
VPOS
p5352
sbatp5353
Rp5354
(dp5355
g16
VNP
p5356
sbag5
(g6
g7
(lp5357
g2055
atp5358
Rp5359
(dp5360
g16
VNN
p5361
sbag5
(g6
g7
(lp5362
g2061
atp5363
Rp5364
(dp5365
g16
VPOS
p5366
sbatp5367
Rp5368
(dp5369
g16
VNP
p5370
sbag5
(g6
g7
(lp5371
V\u005c
p5372
atp5373
Rp5374
(dp5375
g16
VNNP
p5376
sbag5
(g6
g7
(lp5377
Vu2192
p5378
atp5379
Rp5380
(dp5381
g16
VNNP
p5382
sbag5
(g6
g7
(lp5383
g2061
atp5384
Rp5385
(dp5386
g16
V''
p5387
sbatp5388
Rp5389
(dp5390
g16
VNP
p5391
sbag5
(g6
g7
(lp5392
g5
(g6
g7
(lp5393
g3941
atp5394
Rp5395
(dp5396
g16
VSYM
p5397
sbatp5398
Rp5399
(dp5400
g16
g1819
sbatp5401
Rp5402
(dp5403
g16
VNP
p5404
sbatp5405
Rp5406
(dp5407
g16
VVP
p5408
sbatp5409
Rp5410
(dp5411
g16
g260
sbatp5412
Rp5413
(dp5414
g16
VSBAR
p5415
sbatp5416
Rp5417
(dp5418
g16
VADJP
p5419
sbag5
(g6
g7
(lp5420
g4714
atp5421
Rp5422
(dp5423
g16
VNN
p5424
sbatp5425
Rp5426
(dp5427
g16
VNP
p5428
sbag5
(g6
g7
(lp5429
V-
p5430
atp5431
Rp5432
(dp5433
g16
V:
p5434
sbag5
(g6
g7
(lp5435
g5
(g6
g7
(lp5436
g5
(g6
g7
(lp5437
g5
(g6
g7
(lp5438
g5
(g6
g7
(lp5439
g2099
atp5440
Rp5441
(dp5442
g16
VCD
p5443
sbag5
(g6
g7
(lp5444
g2055
atp5445
Rp5446
(dp5447
g16
VNN
p5448
sbag5
(g6
g7
(lp5449
g2061
atp5450
Rp5451
(dp5452
g16
VPOS
p5453
sbatp5454
Rp5455
(dp5456
g16
VNP
p5457
sbag5
(g6
g7
(lp5458
V\u005c
p5459
atp5460
Rp5461
(dp5462
g16
VJJ
p5463
sbag5
(g6
g7
(lp5464
Vu2192
p5465
atp5466
Rp5467
(dp5468
g16
VNNS
p5469
sbag5
(g6
g7
(lp5470
g2061
atp5471
Rp5472
(dp5473
g16
VPOS
p5474
sbatp5475
Rp5476
(dp5477
g16
VNP
p5478
sbag5
(g6
g7
(lp5479
g3941
atp5480
Rp5481
(dp5482
g16
VNNP
p5483
sbag5
(g6
g7
(lp5484
g4714
atp5485
Rp5486
(dp5487
g16
VNNP
p5488
sbag5
(g6
g7
(lp5489
g4690
atp5490
Rp5491
(dp5492
g16
VNNP
p5493
sbatp5494
Rp5495
(dp5496
g16
VNP
p5497
sbag5
(g6
g7
(lp5498
g5
(g6
g7
(lp5499
g3941
atp5500
Rp5501
(dp5502
g16
VSYM
p5503
sbatp5504
Rp5505
(dp5506
g16
VNP
p5507
sbatp5508
Rp5509
(dp5510
g16
VNP
p5511
sbatp5512
Rp5513
(dp5514
g16
VNP
p5515
sbatp5516
Rp5517
(dp5518
g16
g1819
sbatp5519
Rp5520
(dp5521
g16
VFRAG
p5522
sbatp5523
Rp5524
(dp5525
g16
VROOT
p5526
sbasg548
(icmyPackage
CorE
p5527
(dp5528
g551
(lp5529
(I0
I29
tp5530
a(I1
I34
tp5531
asg555
g5
(g6
g7
(lp5532
g4818
ag4847
ag4977
ag4987
ag4994
ag5011
ag5016
ag5049
ag5054
ag5060
ag5072
ag5079
ag5087
ag5108
ag5115
ag5126
ag5133
ag5140
ag5146
ag5151
atp5533
Rp5534
(dp5535
g16
g566
sbsbsg556
(icmyPackage
CorE
p5536
(dp5537
g551
(lp5538
(I0
I11
tp5539
a(I0
I27
tp5540
asg555
g5
(g6
g7
(lp5541
g4648
ag4654
ag4659
ag4668
ag4736
ag4795
atp5542
Rp5543
(dp5544
g16
g566
sbsbsg567
g4209
sg596
(lp5545
(isxpPackage
sxpSent
p5546
(dp5547
g600
(lp5548
I11
asg602
VWith that probability defined, our correction algorithm is the following given query q , pick c = arg max c E P ( c E q ) as a correction
p5549
sg604
I8
sg584
I44
sg605
I19
sba(isxpPackage
sxpSent
p5550
(dp5551
g600
(lp5552
I11
asg602
VProbability of getting from c 0 = q to some c E = c is a sum, over all possible paths, of probabilities of getting from q to c via specific path q = c 0 u'\u005cu2192' c 1 u'\u005cu2192' u'\u005cu2026' u'\u005cu2192' c E - 1 u'\u005cu2192' c E = c
p5553
sg604
I8
sg584
I45
sg605
I20
sbasba(icmyPackage
CELink
p5554
(dp5555
g3
(lp5556
g5
(g6
g7
(lp5557
g5
(g6
g7
(lp5558
g5
(g6
g7
(lp5559
g5
(g6
g7
(lp5560
Vwhere
p5561
atp5562
Rp5563
(dp5564
g16
VWRB
p5565
sbatp5566
Rp5567
(dp5568
g16
VWHADVP
p5569
sbag5
(g6
g7
(lp5570
g5
(g6
g7
(lp5571
g5
(g6
g7
(lp5572
g5
(g6
g7
(lp5573
VW
p5574
atp5575
Rp5576
(dp5577
g16
VNNP
p5578
sbatp5579
Rp5580
(dp5581
g16
VNP
p5582
sbag5
(g6
g7
(lp5583
g5
(g6
g7
(lp5584
Vis
p5585
atp5586
Rp5587
(dp5588
g16
VVBZ
p5589
sbag5
(g6
g7
(lp5590
g5
(g6
g7
(lp5591
g5
(g6
g7
(lp5592
Vthe
p5593
atp5594
Rp5595
(dp5596
g16
VDT
p5597
sbag5
(g6
g7
(lp5598
Vset
p5599
atp5600
Rp5601
(dp5602
g16
VNN
p5603
sbatp5604
Rp5605
(dp5606
g16
VNP
p5607
sbag5
(g6
g7
(lp5608
g5
(g6
g7
(lp5609
Vof
p5610
atp5611
Rp5612
(dp5613
g16
VIN
p5614
sbag5
(g6
g7
(lp5615
g5
(g6
g7
(lp5616
Vall
p5617
atp5618
Rp5619
(dp5620
g16
VDT
p5621
sbag5
(g6
g7
(lp5622
Vpossible
p5623
atp5624
Rp5625
(dp5626
g16
VJJ
p5627
sbag5
(g6
g7
(lp5628
Vwords
p5629
atp5630
Rp5631
(dp5632
g16
VNNS
p5633
sbatp5634
Rp5635
(dp5636
g16
VNP
p5637
sbatp5638
Rp5639
(dp5640
g16
VPP
p5641
sbatp5642
Rp5643
(dp5644
g16
VNP
p5645
sbatp5646
Rp5647
(dp5648
g16
VVP
p5649
sbatp5650
Rp5651
(dp5652
g16
g260
sbag5
(g6
g7
(lp5653
g46
atp5654
Rp5655
(dp5656
g16
g46
sbag5
(g6
g7
(lp5657
Vand
p5658
atp5659
Rp5660
(dp5661
g16
VCC
p5662
sbag5
(g6
g7
(lp5663
g5
(g6
g7
(lp5664
g5
(g6
g7
(lp5665
g2013
atp5666
Rp5667
(dp5668
g16
VNNP
p5669
sbatp5670
Rp5671
(dp5672
g16
VNP
p5673
sbag5
(g6
g7
(lp5674
g5
(g6
g7
(lp5675
Vobserve
p5676
atp5677
Rp5678
(dp5679
g16
VVBP
p5680
sbag5
(g6
g7
(lp5681
g5
(g6
g7
(lp5682
g5
(g6
g7
(lp5683
g5
(g6
g7
(lp5684
g5
(g6
g7
(lp5685
g5
(g6
g7
(lp5686
g2055
atp5687
Rp5688
(dp5689
g16
VNNP
p5690
sbag5
(g6
g7
(lp5691
g2061
atp5692
Rp5693
(dp5694
g16
VPOS
p5695
sbatp5696
Rp5697
(dp5698
g16
VNP
p5699
sbag5
(g6
g7
(lp5700
V\u005c
p5701
atp5702
Rp5703
(dp5704
g16
VNN
p5705
sbag5
(g6
g7
(lp5706
Vu2062
p5707
atp5708
Rp5709
(dp5710
g16
VNN
p5711
sbag5
(g6
g7
(lp5712
g2061
atp5713
Rp5714
(dp5715
g16
V''
p5716
sbatp5717
Rp5718
(dp5719
g16
VNP
p5720
sbag5
(g6
g7
(lp5721
g5
(g6
g7
(lp5722
V-LRB-
p5723
atp5724
Rp5725
(dp5726
g16
V-LRB-
p5727
sbag5
(g6
g7
(lp5728
g5
(g6
g7
(lp5729
g3027
atp5730
Rp5731
(dp5732
g16
VNN
p5733
sbatp5734
Rp5735
(dp5736
g16
VNP
p5737
sbag5
(g6
g7
(lp5738
V-RRB-
p5739
atp5740
Rp5741
(dp5742
g16
V-RRB-
p5743
sbatp5744
Rp5745
(dp5746
g16
VPRN
p5747
sbatp5748
Rp5749
(dp5750
g16
VNP
p5751
sbag5
(g6
g7
(lp5752
g5
(g6
g7
(lp5753
Vis
p5754
atp5755
Rp5756
(dp5757
g16
VVBZ
p5758
sbag5
(g6
g7
(lp5759
g5
(g6
g7
(lp5760
g5
(g6
g7
(lp5761
Vthe
p5762
atp5763
Rp5764
(dp5765
g16
VDT
p5766
sbag5
(g6
g7
(lp5767
Vprobability
p5768
atp5769
Rp5770
(dp5771
g16
VNN
p5772
sbatp5773
Rp5774
(dp5775
g16
VNP
p5776
sbag5
(g6
g7
(lp5777
g5
(g6
g7
(lp5778
Vof
p5779
atp5780
Rp5781
(dp5782
g16
VIN
p5783
sbag5
(g6
g7
(lp5784
g5
(g6
g7
(lp5785
g5
(g6
g7
(lp5786
Vobserving
p5787
atp5788
Rp5789
(dp5790
g16
VVBG
p5791
sbag5
(g6
g7
(lp5792
g5
(g6
g7
(lp5793
g3027
atp5794
Rp5795
(dp5796
g16
VNN
p5797
sbatp5798
Rp5799
(dp5800
g16
VNP
p5801
sbag5
(g6
g7
(lp5802
g5
(g6
g7
(lp5803
Vas
p5804
atp5805
Rp5806
(dp5807
g16
VIN
p5808
sbag5
(g6
g7
(lp5809
g5
(g6
g7
(lp5810
g5
(g6
g7
(lp5811
g287
atp5812
Rp5813
(dp5814
g16
VDT
p5815
sbag5
(g6
g7
(lp5816
Vquery
p5817
atp5818
Rp5819
(dp5820
g16
VNN
p5821
sbatp5822
Rp5823
(dp5824
g16
VNP
p5825
sbag5
(g6
g7
(lp5826
g5
(g6
g7
(lp5827
Vin
p5828
atp5829
Rp5830
(dp5831
g16
VIN
p5832
sbag5
(g6
g7
(lp5833
g5
(g6
g7
(lp5834
Vthe
p5835
atp5836
Rp5837
(dp5838
g16
VDT
p5839
sbag5
(g6
g7
(lp5840
Vnoisy-channel
p5841
atp5842
Rp5843
(dp5844
g16
VJJ
p5845
sbag5
(g6
g7
(lp5846
Vmodel
p5847
atp5848
Rp5849
(dp5850
g16
VNN
p5851
sbatp5852
Rp5853
(dp5854
g16
VNP
p5855
sbatp5856
Rp5857
(dp5858
g16
VPP
p5859
sbatp5860
Rp5861
(dp5862
g16
VNP
p5863
sbatp5864
Rp5865
(dp5866
g16
VPP
p5867
sbatp5868
Rp5869
(dp5870
g16
VVP
p5871
sbatp5872
Rp5873
(dp5874
g16
g260
sbatp5875
Rp5876
(dp5877
g16
VPP
p5878
sbatp5879
Rp5880
(dp5881
g16
VNP
p5882
sbatp5883
Rp5884
(dp5885
g16
VVP
p5886
sbatp5887
Rp5888
(dp5889
g16
g260
sbatp5890
Rp5891
(dp5892
g16
VSBAR
p5893
sbatp5894
Rp5895
(dp5896
g16
VVP
p5897
sbatp5898
Rp5899
(dp5900
g16
g260
sbatp5901
Rp5902
(dp5903
g16
g260
sbatp5904
Rp5905
(dp5906
g16
VSBARQ
p5907
sbatp5908
Rp5909
(dp5910
g16
VROOT
p5911
sbag5
(g6
g7
(lp5912
g5
(g6
g7
(lp5913
g5
(g6
g7
(lp5914
g5
(g6
g7
(lp5915
VExample
p5916
atp5917
Rp5918
(dp5919
g16
VVB
p5920
sbag5
(g6
g7
(lp5921
g5
(g6
g7
(lp5922
g5
(g6
g7
(lp5923
g5
(g6
g7
(lp5924
Vif
p5925
atp5926
Rp5927
(dp5928
g16
VIN
p5929
sbag5
(g6
g7
(lp5930
g5
(g6
g7
(lp5931
g5
(g6
g7
(lp5932
Vwe
p5933
atp5934
Rp5935
(dp5936
g16
VPRP
p5937
sbatp5938
Rp5939
(dp5940
g16
VNP
p5941
sbag5
(g6
g7
(lp5942
g5
(g6
g7
(lp5943
g5
(g6
g7
(lp5944
Vstart
p5945
atp5946
Rp5947
(dp5948
g16
VVB
p5949
sbag5
(g6
g7
(lp5950
g5
(g6
g7
(lp5951
g287
atp5952
Rp5953
(dp5954
g16
VDT
p5955
sbag5
(g6
g7
(lp5956
Vrandom
p5957
atp5958
Rp5959
(dp5960
g16
VJJ
p5961
sbag5
(g6
g7
(lp5962
Vwalk
p5963
atp5964
Rp5965
(dp5966
g16
VNN
p5967
sbatp5968
Rp5969
(dp5970
g16
VNP
p5971
sbag5
(g6
g7
(lp5972
g5
(g6
g7
(lp5973
Vfrom
p5974
atp5975
Rp5976
(dp5977
g16
VIN
p5978
sbag5
(g6
g7
(lp5979
g5
(g6
g7
(lp5980
Vvobemzin
p5981
atp5982
Rp5983
(dp5984
g16
VNN
p5985
sbatp5986
Rp5987
(dp5988
g16
VNP
p5989
sbatp5990
Rp5991
(dp5992
g16
VPP
p5993
sbatp5994
Rp5995
(dp5996
g16
VVP
p5997
sbag5
(g6
g7
(lp5998
Vand
p5999
atp6000
Rp6001
(dp6002
g16
VCC
p6003
sbag5
(g6
g7
(lp6004
g5
(g6
g7
(lp6005
Vmake
p6006
atp6007
Rp6008
(dp6009
g16
VVB
p6010
sbag5
(g6
g7
(lp6011
g5
(g6
g7
(lp6012
g3480
atp6013
Rp6014
(dp6015
g16
VCD
p6016
sbag5
(g6
g7
(lp6017
Vsteps
p6018
atp6019
Rp6020
(dp6021
g16
VNNS
p6022
sbatp6023
Rp6024
(dp6025
g16
VNP
p6026
sbatp6027
Rp6028
(dp6029
g16
VVP
p6030
sbatp6031
Rp6032
(dp6033
g16
VVP
p6034
sbatp6035
Rp6036
(dp6037
g16
g260
sbatp6038
Rp6039
(dp6040
g16
VSBAR
p6041
sbag5
(g6
g7
(lp6042
g46
atp6043
Rp6044
(dp6045
g16
g46
sbag5
(g6
g7
(lp6046
g5
(g6
g7
(lp6047
Vwe
p6048
atp6049
Rp6050
(dp6051
g16
VPRP
p6052
sbatp6053
Rp6054
(dp6055
g16
VNP
p6056
sbag5
(g6
g7
(lp6057
g5
(g6
g7
(lp6058
Vmost
p6059
atp6060
Rp6061
(dp6062
g16
VRBS
p6063
sbag5
(g6
g7
(lp6064
Vprobably
p6065
atp6066
Rp6067
(dp6068
g16
VRB
p6069
sbatp6070
Rp6071
(dp6072
g16
VADVP
p6073
sbag5
(g6
g7
(lp6074
g5
(g6
g7
(lp6075
Vwill
p6076
atp6077
Rp6078
(dp6079
g16
VMD
p6080
sbag5
(g6
g7
(lp6081
g5
(g6
g7
(lp6082
Vend
p6083
atp6084
Rp6085
(dp6086
g16
VVB
p6087
sbag5
(g6
g7
(lp6088
g5
(g6
g7
(lp6089
Vup
p6090
atp6091
Rp6092
(dp6093
g16
VRB
p6094
sbag5
(g6
g7
(lp6095
g5
(g6
g7
(lp6096
Vin
p6097
atp6098
Rp6099
(dp6100
g16
VIN
p6101
sbag5
(g6
g7
(lp6102
g5
(g6
g7
(lp6103
Vthe
p6104
atp6105
Rp6106
(dp6107
g16
VDT
p6108
sbag5
(g6
g7
(lp6109
Vcorrect
p6110
atp6111
Rp6112
(dp6113
g16
VJJ
p6114
sbag5
(g6
g7
(lp6115
Vform
p6116
atp6117
Rp6118
(dp6119
g16
VNN
p6120
sbag5
(g6
g7
(lp6121
Vwobenzym
p6122
atp6123
Rp6124
(dp6125
g16
VNN
p6126
sbatp6127
Rp6128
(dp6129
g16
VNP
p6130
sbatp6131
Rp6132
(dp6133
g16
VPP
p6134
sbatp6135
Rp6136
(dp6137
g16
VADVP
p6138
sbag5
(g6
g7
(lp6139
g5
(g6
g7
(lp6140
Vwith
p6141
atp6142
Rp6143
(dp6144
g16
VIN
p6145
sbag5
(g6
g7
(lp6146
g5
(g6
g7
(lp6147
g5
(g6
g7
(lp6148
g2013
atp6149
Rp6150
(dp6151
g16
VNNP
p6152
sbatp6153
Rp6154
(dp6155
g16
VNP
p6156
sbag5
(g6
g7
(lp6157
g5
(g6
g7
(lp6158
g4690
atp6159
Rp6160
(dp6161
g16
VSYM
p6162
sbag5
(g6
g7
(lp6163
g5
(g6
g7
(lp6164
V0.361
p6165
atp6166
Rp6167
(dp6168
g16
VCD
p6169
sbatp6170
Rp6171
(dp6172
g16
VNP
p6173
sbatp6174
Rp6175
(dp6176
g16
VVP
p6177
sbatp6178
Rp6179
(dp6180
g16
g260
sbatp6181
Rp6182
(dp6183
g16
VSBAR
p6184
sbatp6185
Rp6186
(dp6187
g16
VVP
p6188
sbatp6189
Rp6190
(dp6191
g16
VVP
p6192
sbatp6193
Rp6194
(dp6195
g16
g260
sbatp6196
Rp6197
(dp6198
g16
VSBAR
p6199
sbatp6200
Rp6201
(dp6202
g16
VVP
p6203
sbatp6204
Rp6205
(dp6206
g16
g260
sbatp6207
Rp6208
(dp6209
g16
VROOT
p6210
sbasg548
(icmyPackage
CorE
p6211
(dp6212
g551
(lp6213
(I0
I28
tp6214
a(I1
I28
tp6215
asg555
g5
(g6
g7
(lp6216
g5861
ag6208
atp6217
Rp6218
(dp6219
g16
g566
sbsbsg556
(icmyPackage
CorE
p6220
(dp6221
g551
(lp6222
(I0
I3
tp6223
a(I0
I26
tp6224
asg555
g5
(g6
g7
(lp6225
g5643
ag5655
ag5660
ag5671
ag5678
ag5749
ag5756
ag5774
ag5781
ag5789
ag5799
atp6226
Rp6227
(dp6228
g16
g566
sbsbsg567
g4209
sg596
(lp6229
(isxpPackage
sxpSent
p6230
(dp6231
g600
(lp6232
I12
asg602
Vwhere W is the set of all possible words, and P observe u'\u005cu2062' ( w ) is the probability of observing w as a query in the noisy-channel model
p6233
sg604
I8
sg584
I46
sg605
I21
sba(isxpPackage
sxpSent
p6234
(dp6235
g600
(lp6236
I12
aI13
asg602
VExample if we start a random walk from vobemzin and make 3 steps, we most probably will end up in the correct form wobenzym with P = 0.361
p6237
sg604
I8
sg584
I47
sg605
I22
sbasba(icmyPackage
CELink
p6238
(dp6239
g3
(lp6240
g6208
asg548
(icmyPackage
CorE
p6241
(dp6242
g551
(lp6243
(I0
I2
tp6244
a(I0
I12
tp6245
asg555
g6036
sbsg556
(icmyPackage
CorE
p6246
(dp6247
g551
(lp6248
(I0
I14
tp6249
a(I0
I28
tp6250
asg555
g5
(g6
g7
(lp6251
g6054
ag6071
ag6190
atp6252
Rp6253
(dp6254
g16
g566
sbsbsg567
g1735
sg596
(lp6255
g6234
asba(icmyPackage
CELink
p6256
(dp6257
g3
(lp6258
g5
(g6
g7
(lp6259
g5
(g6
g7
(lp6260
g5
(g6
g7
(lp6261
g5
(g6
g7
(lp6262
VAlso
p6263
atp6264
Rp6265
(dp6266
g16
VRB
p6267
sbatp6268
Rp6269
(dp6270
g16
VADVP
p6271
sbag5
(g6
g7
(lp6272
g5
(g6
g7
(lp6273
g5
(g6
g7
(lp6274
Vnote
p6275
atp6276
Rp6277
(dp6278
g16
VNN
p6279
sbatp6280
Rp6281
(dp6282
g16
VNP
p6283
sbag5
(g6
g7
(lp6284
g46
atp6285
Rp6286
(dp6287
g16
g46
sbag5
(g6
g7
(lp6288
g5
(g6
g7
(lp6289
g5
(g6
g7
(lp6290
Vthat
p6291
atp6292
Rp6293
(dp6294
g16
VIN
p6295
sbag5
(g6
g7
(lp6296
g5
(g6
g7
(lp6297
g5
(g6
g7
(lp6298
Vthe
p6299
atp6300
Rp6301
(dp6302
g16
VDT
p6303
sbag5
(g6
g7
(lp6304
Vmethod
p6305
atp6306
Rp6307
(dp6308
g16
VNN
p6309
sbatp6310
Rp6311
(dp6312
g16
VNP
p6313
sbag5
(g6
g7
(lp6314
g5
(g6
g7
(lp6315
Vworks
p6316
atp6317
Rp6318
(dp6319
g16
VVBZ
p6320
sbag5
(g6
g7
(lp6321
g5
(g6
g7
(lp6322
Vonly
p6323
atp6324
Rp6325
(dp6326
g16
VRB
p6327
sbag5
(g6
g7
(lp6328
Vbecause
p6329
atp6330
Rp6331
(dp6332
g16
VIN
p6333
sbag5
(g6
g7
(lp6334
g5
(g6
g7
(lp6335
g5
(g6
g7
(lp6336
g5
(g6
g7
(lp6337
Vmultiple
p6338
atp6339
Rp6340
(dp6341
g16
VJJ
p6342
sbag5
(g6
g7
(lp6343
Vmisspellings
p6344
atp6345
Rp6346
(dp6347
g16
VNNS
p6348
sbatp6349
Rp6350
(dp6351
g16
VNP
p6352
sbag5
(g6
g7
(lp6353
g5
(g6
g7
(lp6354
Vof
p6355
atp6356
Rp6357
(dp6358
g16
VIN
p6359
sbag5
(g6
g7
(lp6360
g5
(g6
g7
(lp6361
Vthe
p6362
atp6363
Rp6364
(dp6365
g16
VDT
p6366
sbag5
(g6
g7
(lp6367
Vsame
p6368
atp6369
Rp6370
(dp6371
g16
VJJ
p6372
sbag5
(g6
g7
(lp6373
Vword
p6374
atp6375
Rp6376
(dp6377
g16
VNN
p6378
sbatp6379
Rp6380
(dp6381
g16
VNP
p6382
sbatp6383
Rp6384
(dp6385
g16
VPP
p6386
sbatp6387
Rp6388
(dp6389
g16
VNP
p6390
sbag5
(g6
g7
(lp6391
g5
(g6
g7
(lp6392
Vare
p6393
atp6394
Rp6395
(dp6396
g16
VVBP
p6397
sbag5
(g6
g7
(lp6398
g5
(g6
g7
(lp6399
Vpresented
p6400
atp6401
Rp6402
(dp6403
g16
VVBN
p6404
sbag5
(g6
g7
(lp6405
g5
(g6
g7
(lp6406
Vin
p6407
atp6408
Rp6409
(dp6410
g16
VIN
p6411
sbag5
(g6
g7
(lp6412
g5
(g6
g7
(lp6413
Vour
p6414
atp6415
Rp6416
(dp6417
g16
VPRP$
p6418
sbag5
(g6
g7
(lp6419
Vmodel
p6420
atp6421
Rp6422
(dp6423
g16
VNN
p6424
sbatp6425
Rp6426
(dp6427
g16
VNP
p6428
sbatp6429
Rp6430
(dp6431
g16
VPP
p6432
sbatp6433
Rp6434
(dp6435
g16
VVP
p6436
sbatp6437
Rp6438
(dp6439
g16
VVP
p6440
sbatp6441
Rp6442
(dp6443
g16
g260
sbatp6444
Rp6445
(dp6446
g16
VSBAR
p6447
sbatp6448
Rp6449
(dp6450
g16
VVP
p6451
sbatp6452
Rp6453
(dp6454
g16
g260
sbatp6455
Rp6456
(dp6457
g16
VSBAR
p6458
sbag5
(g6
g7
(lp6459
V;
p6460
atp6461
Rp6462
(dp6463
g16
g5434
sbag5
(g6
g7
(lp6464
g5
(g6
g7
(lp6465
Vfor
p6466
atp6467
Rp6468
(dp6469
g16
VIN
p6470
sbag5
(g6
g7
(lp6471
g5
(g6
g7
(lp6472
g5
(g6
g7
(lp6473
Vrelated
p6474
atp6475
Rp6476
(dp6477
g16
VJJ
p6478
sbag5
(g6
g7
(lp6479
Vresearch
p6480
atp6481
Rp6482
(dp6483
g16
VNN
p6484
sbatp6485
Rp6486
(dp6487
g16
VNP
p6488
sbag5
(g6
g7
(lp6489
g5
(g6
g7
(lp6490
Vsee
p6491
atp6492
Rp6493
(dp6494
g16
VVBP
p6495
sbag5
(g6
g7
(lp6496
g5
(g6
g7
(lp6497
g5
(g6
g7
(lp6498
V-LSB-
p6499
atp6500
Rp6501
(dp6502
g16
VCD
p6503
sbag5
(g6
g7
(lp6504
V2
p6505
atp6506
Rp6507
(dp6508
g16
VCD
p6509
sbatp6510
Rp6511
(dp6512
g16
VQP
p6513
sbag5
(g6
g7
(lp6514
V-RSB-
p6515
atp6516
Rp6517
(dp6518
g16
VNNS
p6519
sbatp6520
Rp6521
(dp6522
g16
VNP
p6523
sbatp6524
Rp6525
(dp6526
g16
VVP
p6527
sbatp6528
Rp6529
(dp6530
g16
g260
sbatp6531
Rp6532
(dp6533
g16
VSBAR
p6534
sbatp6535
Rp6536
(dp6537
g16
VSBAR
p6538
sbatp6539
Rp6540
(dp6541
g16
VNP
p6542
sbatp6543
Rp6544
(dp6545
g16
VFRAG
p6546
sbatp6547
Rp6548
(dp6549
g16
VROOT
p6550
sbasg548
(icmyPackage
CorE
p6551
(dp6552
g551
(lp6553
(I0
I9
tp6554
a(I0
I27
tp6555
asg555
g5
(g6
g7
(lp6556
g6442
ag6462
ag6532
atp6557
Rp6558
(dp6559
g16
g566
sbsbsg556
(icmyPackage
CorE
p6560
(dp6561
g551
(lp6562
(I0
I0
tp6563
a(I0
I6
tp6564
asg555
g5
(g6
g7
(lp6565
g6269
ag6281
ag6286
ag6293
ag6311
ag6318
atp6566
Rp6567
(dp6568
g16
g566
sbsbsg567
g1465
sg596
(lp6569
(isxpPackage
sxpSent
p6570
(dp6571
g600
(lp6572
I14
asg602
VAlso note, that the method works only because multiple misspellings of the same word are presented in our model; for related research see [ 2 ]
p6573
sg604
I8
sg584
I50
sg605
I22
sbasba(icmyPackage
CELink
p6574
(dp6575
g3
(lp6576
g5
(g6
g7
(lp6577
g5
(g6
g7
(lp6578
g5
(g6
g7
(lp6579
g5
(g6
g7
(lp6580
g5
(g6
g7
(lp6581
VBasic
p6582
atp6583
Rp6584
(dp6585
g16
VNNP
p6586
sbag5
(g6
g7
(lp6587
Vbuilding
p6588
atp6589
Rp6590
(dp6591
g16
VNN
p6592
sbag5
(g6
g7
(lp6593
Vblock
p6594
atp6595
Rp6596
(dp6597
g16
VNN
p6598
sbatp6599
Rp6600
(dp6601
g16
VNP
p6602
sbag5
(g6
g7
(lp6603
g5
(g6
g7
(lp6604
Vof
p6605
atp6606
Rp6607
(dp6608
g16
VIN
p6609
sbag5
(g6
g7
(lp6610
g5
(g6
g7
(lp6611
Vevery
p6612
atp6613
Rp6614
(dp6615
g16
VDT
p6616
sbag5
(g6
g7
(lp6617
Vmentioned
p6618
atp6619
Rp6620
(dp6621
g16
VJJ
p6622
sbag5
(g6
g7
(lp6623
Valgorithm
p6624
atp6625
Rp6626
(dp6627
g16
VNN
p6628
sbatp6629
Rp6630
(dp6631
g16
VNP
p6632
sbatp6633
Rp6634
(dp6635
g16
VPP
p6636
sbatp6637
Rp6638
(dp6639
g16
VNP
p6640
sbag5
(g6
g7
(lp6641
g5
(g6
g7
(lp6642
Vis
p6643
atp6644
Rp6645
(dp6646
g16
VVBZ
p6647
sbag5
(g6
g7
(lp6648
g5
(g6
g7
(lp6649
Vone-step
p6650
atp6651
Rp6652
(dp6653
g16
VJJ
p6654
sbag5
(g6
g7
(lp6655
Vnoisy-channel
p6656
atp6657
Rp6658
(dp6659
g16
VJJ
p6660
sbag5
(g6
g7
(lp6661
Vcorrection
p6662
atp6663
Rp6664
(dp6665
g16
VNN
p6666
sbatp6667
Rp6668
(dp6669
g16
VNP
p6670
sbatp6671
Rp6672
(dp6673
g16
VVP
p6674
sbatp6675
Rp6676
(dp6677
g16
g260
sbatp6678
Rp6679
(dp6680
g16
VROOT
p6681
sbag5
(g6
g7
(lp6682
g5
(g6
g7
(lp6683
g5
(g6
g7
(lp6684
g5
(g6
g7
(lp6685
g5
(g6
g7
(lp6686
VEach
p6687
atp6688
Rp6689
(dp6690
g16
VDT
p6691
sbag5
(g6
g7
(lp6692
Vbasic
p6693
atp6694
Rp6695
(dp6696
g16
VJJ
p6697
sbag5
(g6
g7
(lp6698
Vcorrection
p6699
atp6700
Rp6701
(dp6702
g16
VNN
p6703
sbatp6704
Rp6705
(dp6706
g16
VNP
p6707
sbag5
(g6
g7
(lp6708
g5
(g6
g7
(lp6709
Vproceeds
p6710
atp6711
Rp6712
(dp6713
g16
VVBZ
p6714
sbag5
(g6
g7
(lp6715
g5
(g6
g7
(lp6716
Vas
p6717
atp6718
Rp6719
(dp6720
g16
VIN
p6721
sbag5
(g6
g7
(lp6722
g5
(g6
g7
(lp6723
g5
(g6
g7
(lp6724
Vdescribed
p6725
atp6726
Rp6727
(dp6728
g16
VVBN
p6729
sbag5
(g6
g7
(lp6730
g5
(g6
g7
(lp6731
Vin
p6732
atp6733
Rp6734
(dp6735
g16
VIN
p6736
sbag5
(g6
g7
(lp6737
g5
(g6
g7
(lp6738
VSection
p6739
atp6740
Rp6741
(dp6742
g16
VNNP
p6743
sbag5
(g6
g7
(lp6744
V2.1
p6745
atp6746
Rp6747
(dp6748
g16
VCD
p6749
sbatp6750
Rp6751
(dp6752
g16
VNP
p6753
sbatp6754
Rp6755
(dp6756
g16
VPP
p6757
sbag5
(g6
g7
(lp6758
g5
(g6
g7
(lp6759
g5
(g6
g7
(lp6760
g5
(g6
g7
(lp6761
g287
atp6762
Rp6763
(dp6764
g16
VDT
p6765
sbag5
(g6
g7
(lp6766
Vsmall
p6767
atp6768
Rp6769
(dp6770
g16
VJJ
p6771
sbag5
(g6
g7
(lp6772
Vnumber
p6773
atp6774
Rp6775
(dp6776
g16
VNN
p6777
sbatp6778
Rp6779
(dp6780
g16
VNP
p6781
sbag5
(g6
g7
(lp6782
g5
(g6
g7
(lp6783
Vof
p6784
atp6785
Rp6786
(dp6787
g16
VIN
p6788
sbag5
(g6
g7
(lp6789
g5
(g6
g7
(lp6790
Vhypotheses
p6791
atp6792
Rp6793
(dp6794
g16
VNN
p6795
sbag5
(g6
g7
(lp6796
g1942
atp6797
Rp6798
(dp6799
g16
VNN
p6800
sbag5
(g6
g7
(lp6801
g2099
atp6802
Rp6803
(dp6804
g16
VCD
p6805
sbatp6806
Rp6807
(dp6808
g16
VNP
p6809
sbatp6810
Rp6811
(dp6812
g16
VPP
p6813
sbatp6814
Rp6815
(dp6816
g16
VNP
p6817
sbag5
(g6
g7
(lp6818
g46
atp6819
Rp6820
(dp6821
g16
g46
sbag5
(g6
g7
(lp6822
g5
(g6
g7
(lp6823
g5
(g6
g7
(lp6824
g2055
atp6825
Rp6826
(dp6827
g16
VNNP
p6828
sbag5
(g6
g7
(lp6829
g2061
atp6830
Rp6831
(dp6832
g16
VPOS
p6833
sbatp6834
Rp6835
(dp6836
g16
VNP
p6837
sbag5
(g6
g7
(lp6838
V\u005c
p6839
atp6840
Rp6841
(dp6842
g16
VJJ
p6843
sbag5
(g6
g7
(lp6844
Vu2026
p6845
atp6846
Rp6847
(dp6848
g16
VNNS
p6849
sbatp6850
Rp6851
(dp6852
g16
VNP
p6853
sbag5
(g6
g7
(lp6854
g2061
atp6855
Rp6856
(dp6857
g16
V''
p6858
sbatp6859
Rp6860
(dp6861
g16
VNP
p6862
sbatp6863
Rp6864
(dp6865
g16
VVP
p6866
sbatp6867
Rp6868
(dp6869
g16
g260
sbatp6870
Rp6871
(dp6872
g16
VSBAR
p6873
sbatp6874
Rp6875
(dp6876
g16
VVP
p6877
sbatp6878
Rp6879
(dp6880
g16
g260
sbag5
(g6
g7
(lp6881
g46
atp6882
Rp6883
(dp6884
g16
g46
sbag5
(g6
g7
(lp6885
g5
(g6
g7
(lp6886
g5
(g6
g7
(lp6887
g1942
atp6888
Rp6889
(dp6890
g16
VNNP
p6891
sbag5
(g6
g7
(lp6892
g1923
atp6893
Rp6894
(dp6895
g16
VNNP
p6896
sbatp6897
Rp6898
(dp6899
g16
VNP
p6900
sbag5
(g6
g7
(lp6901
g5
(g6
g7
(lp6902
Vis
p6903
atp6904
Rp6905
(dp6906
g16
VVBZ
p6907
sbag5
(g6
g7
(lp6908
g5
(g6
g7
(lp6909
Vgenerated
p6910
atp6911
Rp6912
(dp6913
g16
VVBN
p6914
sbag5
(g6
g7
(lp6915
g5
(g6
g7
(lp6916
Vfor
p6917
atp6918
Rp6919
(dp6920
g16
VIN
p6921
sbag5
(g6
g7
(lp6922
g5
(g6
g7
(lp6923
Vthe
p6924
atp6925
Rp6926
(dp6927
g16
VDT
p6928
sbag5
(g6
g7
(lp6929
Vquery
p6930
atp6931
Rp6932
(dp6933
g16
VJJ
p6934
sbag5
(g6
g7
(lp6935
g2088
atp6936
Rp6937
(dp6938
g16
VNN
p6939
sbatp6940
Rp6941
(dp6942
g16
VNP
p6943
sbatp6944
Rp6945
(dp6946
g16
VPP
p6947
sbatp6948
Rp6949
(dp6950
g16
VVP
p6951
sbatp6952
Rp6953
(dp6954
g16
VVP
p6955
sbatp6956
Rp6957
(dp6958
g16
g260
sbag5
(g6
g7
(lp6959
g46
atp6960
Rp6961
(dp6962
g16
g46
sbag5
(g6
g7
(lp6963
g5
(g6
g7
(lp6964
g5
(g6
g7
(lp6965
Vhypotheses
p6966
atp6967
Rp6968
(dp6969
g16
VNNS
p6970
sbatp6971
Rp6972
(dp6973
g16
VNP
p6974
sbag5
(g6
g7
(lp6975
g5
(g6
g7
(lp6976
Vare
p6977
atp6978
Rp6979
(dp6980
g16
VVBP
p6981
sbag5
(g6
g7
(lp6982
g5
(g6
g7
(lp6983
Vscored
p6984
atp6985
Rp6986
(dp6987
g16
VVBN
p6988
sbatp6989
Rp6990
(dp6991
g16
VVP
p6992
sbatp6993
Rp6994
(dp6995
g16
VVP
p6996
sbatp6997
Rp6998
(dp6999
g16
g260
sbag5
(g6
g7
(lp7000
g46
atp7001
Rp7002
(dp7003
g16
g46
sbag5
(g6
g7
(lp7004
Vand
p7005
atp7006
Rp7007
(dp7008
g16
VCC
p7009
sbag5
(g6
g7
(lp7010
g5
(g6
g7
(lp7011
g5
(g6
g7
(lp7012
Vscores
p7013
atp7014
Rp7015
(dp7016
g16
VNNS
p7017
sbatp7018
Rp7019
(dp7020
g16
VNP
p7021
sbag5
(g6
g7
(lp7022
g5
(g6
g7
(lp7023
Vare
p7024
atp7025
Rp7026
(dp7027
g16
VVBP
p7028
sbag5
(g6
g7
(lp7029
g5
(g6
g7
(lp7030
Vrecomputed
p7031
atp7032
Rp7033
(dp7034
g16
VVBN
p7035
sbag5
(g6
g7
(lp7036
g5
(g6
g7
(lp7037
Vinto
p7038
atp7039
Rp7040
(dp7041
g16
VIN
p7042
sbag5
(g6
g7
(lp7043
g5
(g6
g7
(lp7044
g5
(g6
g7
(lp7045
Vnormalized
p7046
atp7047
Rp7048
(dp7049
g16
VJJ
p7050
sbag5
(g6
g7
(lp7051
Vposterior
p7052
atp7053
Rp7054
(dp7055
g16
VNN
p7056
sbag5
(g6
g7
(lp7057
Vprobabilities
p7058
atp7059
Rp7060
(dp7061
g16
VNNS
p7062
sbatp7063
Rp7064
(dp7065
g16
VNP
p7066
sbag5
(g6
g7
(lp7067
g5
(g6
g7
(lp7068
V-LRB-
p7069
atp7070
Rp7071
(dp7072
g16
V-LRB-
p7073
sbag5
(g6
g7
(lp7074
Vsee
p7075
atp7076
Rp7077
(dp7078
g16
VVB
p7079
sbag5
(g6
g7
(lp7080
g5
(g6
g7
(lp7081
VEquation
p7082
atp7083
Rp7084
(dp7085
g16
VRB
p7086
sbatp7087
Rp7088
(dp7089
g16
VADVP
p7090
sbag5
(g6
g7
(lp7091
g5
(g6
g7
(lp7092
V5
p7093
atp7094
Rp7095
(dp7096
g16
VCD
p7097
sbatp7098
Rp7099
(dp7100
g16
VNP
p7101
sbatp7102
Rp7103
(dp7104
g16
VVP
p7105
sbatp7106
Rp7107
(dp7108
g16
VNP
p7109
sbatp7110
Rp7111
(dp7112
g16
VPP
p7113
sbatp7114
Rp7115
(dp7116
g16
VVP
p7117
sbatp7118
Rp7119
(dp7120
g16
VVP
p7121
sbatp7122
Rp7123
(dp7124
g16
g260
sbatp7125
Rp7126
(dp7127
g16
g260
sbatp7128
Rp7129
(dp7130
g16
VROOT
p7131
sbasg548
(icmyPackage
CorE
p7132
(dp7133
g551
(lp7134
(I1
I5
tp7135
a(I1
I35
tp7136
asg555
g5
(g6
g7
(lp7137
g6868
ag6883
ag6957
ag6961
ag6998
ag7002
atp7138
Rp7139
(dp7140
g16
g566
sbsbsg556
(icmyPackage
CorE
p7141
(dp7142
g551
(lp7143
(I0
I0
tp7144
a(I1
I3
tp7145
asg555
g5
(g6
g7
(lp7146
g6679
ag6705
ag6712
atp7147
Rp7148
(dp7149
g16
g566
sbsbsg567
g4209
sg596
(lp7150
(isxpPackage
sxpSent
p7151
(dp7152
g600
(lp7153
I15
asg602
VBasic building block of every mentioned algorithm is one-step noisy-channel correction
p7154
sg604
I9
sg584
I53
sg605
I25
sba(isxpPackage
sxpSent
p7155
(dp7156
g600
(lp7157
I15
asg602
VEach basic correction proceeds as described in Section 2.1 a small number of hypotheses h 1 , u'\u005cu2026' , h K is generated for the query q , hypotheses are scored, and scores are recomputed into normalized posterior probabilities (see Equation 5
p7158
sg604
I9
sg584
I54
sg605
I25
sbasba(icmyPackage
CELink
p7159
(dp7160
g3
(lp7161
g5
(g6
g7
(lp7162
g5
(g6
g7
(lp7163
g5
(g6
g7
(lp7164
g5
(g6
g7
(lp7165
g5
(g6
g7
(lp7166
g1804
atp7167
Rp7168
(dp7169
g16
VDT
p7170
sbag5
(g6
g7
(lp7171
Vstandard
p7172
atp7173
Rp7174
(dp7175
g16
VJJ
p7176
sbag5
(g6
g7
(lp7177
Vlog-linear
p7178
atp7179
Rp7180
(dp7181
g16
VNN
p7182
sbatp7183
Rp7184
(dp7185
g16
VNP
p7186
sbag5
(g6
g7
(lp7187
g5
(g6
g7
(lp7188
Vweighing
p7189
atp7190
Rp7191
(dp7192
g16
VVBG
p7193
sbag5
(g6
g7
(lp7194
g5
(g6
g7
(lp7195
Vtrick
p7196
atp7197
Rp7198
(dp7199
g16
VNN
p7200
sbatp7201
Rp7202
(dp7203
g16
VNP
p7204
sbatp7205
Rp7206
(dp7207
g16
VVP
p7208
sbatp7209
Rp7210
(dp7211
g16
VNP
p7212
sbag5
(g6
g7
(lp7213
g5
(g6
g7
(lp7214
Vwas
p7215
atp7216
Rp7217
(dp7218
g16
VVBD
p7219
sbag5
(g6
g7
(lp7220
g5
(g6
g7
(lp7221
Vapplied
p7222
atp7223
Rp7224
(dp7225
g16
VVBN
p7226
sbag5
(g6
g7
(lp7227
g5
(g6
g7
(lp7228
g5
(g6
g7
(lp7229
Vto
p7230
atp7231
Rp7232
(dp7233
g16
VTO
p7234
sbag5
(g6
g7
(lp7235
g5
(g6
g7
(lp7236
g5
(g6
g7
(lp7237
Vnoisy-channel
p7238
atp7239
Rp7240
(dp7241
g16
VVB
p7242
sbag5
(g6
g7
(lp7243
g5
(g6
g7
(lp7244
Vmodel
p7245
atp7246
Rp7247
(dp7248
g16
VNN
p7249
sbag5
(g6
g7
(lp7250
Vcomponents
p7251
atp7252
Rp7253
(dp7254
g16
VNNS
p7255
sbatp7256
Rp7257
(dp7258
g16
VNP
p7259
sbatp7260
Rp7261
(dp7262
g16
VVP
p7263
sbag5
(g6
g7
(lp7264
g46
atp7265
Rp7266
(dp7267
g16
g46
sbag5
(g6
g7
(lp7268
g5
(g6
g7
(lp7269
Vsee
p7270
atp7271
Rp7272
(dp7273
g16
VVB
p7274
sbag5
(g6
g7
(lp7275
g5
(g6
g7
(lp7276
Ve.g.
p7277
atp7278
Rp7279
(dp7280
g16
VNNP
p7281
sbatp7282
Rp7283
(dp7284
g16
VNP
p7285
sbatp7286
Rp7287
(dp7288
g16
VVP
p7289
sbag5
(g6
g7
(lp7290
g46
atp7291
Rp7292
(dp7293
g16
g46
sbag5
(g6
g7
(lp7294
g5
(g6
g7
(lp7295
V-LSB-
p7296
atp7297
Rp7298
(dp7299
g16
VVB
p7300
sbag5
(g6
g7
(lp7301
g5
(g6
g7
(lp7302
g5
(g6
g7
(lp7303
V9
p7304
atp7305
Rp7306
(dp7307
g16
VCD
p7308
sbag5
(g6
g7
(lp7309
V-RSB-
p7310
atp7311
Rp7312
(dp7313
g16
VJJ
p7314
sbag5
(g6
g7
(lp7315
g2055
atp7316
Rp7317
(dp7318
g16
VNN
p7319
sbag5
(g6
g7
(lp7320
g2061
atp7321
Rp7322
(dp7323
g16
V''
p7324
sbag5
(g6
g7
(lp7325
V\u005c
p7326
atp7327
Rp7328
(dp7329
g16
VNN
p7330
sbag5
(g6
g7
(lp7331
Vu039b
p7332
atp7333
Rp7334
(dp7335
g16
VNNS
p7336
sbatp7337
Rp7338
(dp7339
g16
VNP
p7340
sbag5
(g6
g7
(lp7341
g2061
atp7342
Rp7343
(dp7344
g16
V''
p7345
sbag5
(g6
g7
(lp7346
g5
(g6
g7
(lp7347
g5
(g6
g7
(lp7348
g5
(g6
g7
(lp7349
Vis
p7350
atp7351
Rp7352
(dp7353
g16
VVBZ
p7354
sbag5
(g6
g7
(lp7355
g5
(g6
g7
(lp7356
g5
(g6
g7
(lp7357
Vthe
p7358
atp7359
Rp7360
(dp7361
g16
VDT
p7362
sbag5
(g6
g7
(lp7363
Vparameter
p7364
atp7365
Rp7366
(dp7367
g16
VNN
p7368
sbatp7369
Rp7370
(dp7371
g16
VNP
p7372
sbag5
(g6
g7
(lp7373
g5
(g6
g7
(lp7374
g5
(g6
g7
(lp7375
Vthat
p7376
atp7377
Rp7378
(dp7379
g16
VWDT
p7380
sbatp7381
Rp7382
(dp7383
g16
VWHNP
p7384
sbag5
(g6
g7
(lp7385
g5
(g6
g7
(lp7386
g5
(g6
g7
(lp7387
Vcontrols
p7388
atp7389
Rp7390
(dp7391
g16
VVBZ
p7392
sbag5
(g6
g7
(lp7393
g5
(g6
g7
(lp7394
g5
(g6
g7
(lp7395
Vthe
p7396
atp7397
Rp7398
(dp7399
g16
VDT
p7400
sbag5
(g6
g7
(lp7401
Vtrade-off
p7402
atp7403
Rp7404
(dp7405
g16
VNN
p7406
sbatp7407
Rp7408
(dp7409
g16
VNP
p7410
sbag5
(g6
g7
(lp7411
g5
(g6
g7
(lp7412
Vbetween
p7413
atp7414
Rp7415
(dp7416
g16
VIN
p7417
sbag5
(g6
g7
(lp7418
g5
(g6
g7
(lp7419
Vprecision
p7420
atp7421
Rp7422
(dp7423
g16
VNN
p7424
sbatp7425
Rp7426
(dp7427
g16
VNP
p7428
sbatp7429
Rp7430
(dp7431
g16
VPP
p7432
sbatp7433
Rp7434
(dp7435
g16
VNP
p7436
sbatp7437
Rp7438
(dp7439
g16
VVP
p7440
sbatp7441
Rp7442
(dp7443
g16
g260
sbatp7444
Rp7445
(dp7446
g16
VSBAR
p7447
sbatp7448
Rp7449
(dp7450
g16
VNP
p7451
sbatp7452
Rp7453
(dp7454
g16
VVP
p7455
sbatp7456
Rp7457
(dp7458
g16
g260
sbatp7459
Rp7460
(dp7461
g16
VSBAR
p7462
sbatp7463
Rp7464
(dp7465
g16
VNP
p7466
sbatp7467
Rp7468
(dp7469
g16
VVP
p7470
sbag5
(g6
g7
(lp7471
Vand
p7472
atp7473
Rp7474
(dp7475
g16
VCC
p7476
sbag5
(g6
g7
(lp7477
g5
(g6
g7
(lp7478
Vrecall
p7479
atp7480
Rp7481
(dp7482
g16
VVB
p7483
sbatp7484
Rp7485
(dp7486
g16
VVP
p7487
sbatp7488
Rp7489
(dp7490
g16
VVP
p7491
sbatp7492
Rp7493
(dp7494
g16
VVP
p7495
sbatp7496
Rp7497
(dp7498
g16
g260
sbag5
(g6
g7
(lp7499
g5
(g6
g7
(lp7500
V-LRB-
p7501
atp7502
Rp7503
(dp7504
g16
V-LRB-
p7505
sbag5
(g6
g7
(lp7506
g5
(g6
g7
(lp7507
g5
(g6
g7
(lp7508
Vsee
p7509
atp7510
Rp7511
(dp7512
g16
VVB
p7513
sbag5
(g6
g7
(lp7514
g5
(g6
g7
(lp7515
VSection
p7516
atp7517
Rp7518
(dp7519
g16
VNNP
p7520
sbag5
(g6
g7
(lp7521
V4.2
p7522
atp7523
Rp7524
(dp7525
g16
VCD
p7526
sbatp7527
Rp7528
(dp7529
g16
VNP
p7530
sbatp7531
Rp7532
(dp7533
g16
VVP
p7534
sbatp7535
Rp7536
(dp7537
g16
g260
sbag5
(g6
g7
(lp7538
V-RRB-
p7539
atp7540
Rp7541
(dp7542
g16
V-RRB-
p7543
sbatp7544
Rp7545
(dp7546
g16
VPRN
p7547
sbag5
(g6
g7
(lp7548
g5
(g6
g7
(lp7549
Vby
p7550
atp7551
Rp7552
(dp7553
g16
VIN
p7554
sbag5
(g6
g7
(lp7555
g5
(g6
g7
(lp7556
g5
(g6
g7
(lp7557
Vemphasizing
p7558
atp7559
Rp7560
(dp7561
g16
VVBG
p7562
sbag5
(g6
g7
(lp7563
g5
(g6
g7
(lp7564
g5
(g6
g7
(lp7565
Vthe
p7566
atp7567
Rp7568
(dp7569
g16
VDT
p7570
sbag5
(g6
g7
(lp7571
Vimportance
p7572
atp7573
Rp7574
(dp7575
g16
VNN
p7576
sbatp7577
Rp7578
(dp7579
g16
VNP
p7580
sbag5
(g6
g7
(lp7581
g5
(g6
g7
(lp7582
Vof
p7583
atp7584
Rp7585
(dp7586
g16
VIN
p7587
sbag5
(g6
g7
(lp7588
g5
(g6
g7
(lp7589
g5
(g6
g7
(lp7590
Veither
p7591
atp7592
Rp7593
(dp7594
g16
VRB
p7595
sbag5
(g6
g7
(lp7596
Vthe
p7597
atp7598
Rp7599
(dp7600
g16
VDT
p7601
sbag5
(g6
g7
(lp7602
Vhigh
p7603
atp7604
Rp7605
(dp7606
g16
VJJ
p7607
sbag5
(g6
g7
(lp7608
Vfrequency
p7609
atp7610
Rp7611
(dp7612
g16
VNN
p7613
sbatp7614
Rp7615
(dp7616
g16
VNP
p7617
sbag5
(g6
g7
(lp7618
g5
(g6
g7
(lp7619
Vof
p7620
atp7621
Rp7622
(dp7623
g16
VIN
p7624
sbag5
(g6
g7
(lp7625
g5
(g6
g7
(lp7626
g5
(g6
g7
(lp7627
Vthe
p7628
atp7629
Rp7630
(dp7631
g16
VDT
p7632
sbag5
(g6
g7
(lp7633
Vcorrection
p7634
atp7635
Rp7636
(dp7637
g16
VNN
p7638
sbatp7639
Rp7640
(dp7641
g16
VNP
p7642
sbag5
(g6
g7
(lp7643
Vor
p7644
atp7645
Rp7646
(dp7647
g16
VCC
p7648
sbag5
(g6
g7
(lp7649
g5
(g6
g7
(lp7650
Vits
p7651
atp7652
Rp7653
(dp7654
g16
VPRP$
p7655
sbag5
(g6
g7
(lp7656
Vproximity
p7657
atp7658
Rp7659
(dp7660
g16
VNN
p7661
sbatp7662
Rp7663
(dp7664
g16
VNP
p7665
sbatp7666
Rp7667
(dp7668
g16
VNP
p7669
sbatp7670
Rp7671
(dp7672
g16
VPP
p7673
sbatp7674
Rp7675
(dp7676
g16
VNP
p7677
sbatp7678
Rp7679
(dp7680
g16
VPP
p7681
sbatp7682
Rp7683
(dp7684
g16
VNP
p7685
sbag5
(g6
g7
(lp7686
g5
(g6
g7
(lp7687
Vto
p7688
atp7689
Rp7690
(dp7691
g16
VTO
p7692
sbag5
(g6
g7
(lp7693
g5
(g6
g7
(lp7694
Vthe
p7695
atp7696
Rp7697
(dp7698
g16
VDT
p7699
sbag5
(g6
g7
(lp7700
Vquery
p7701
atp7702
Rp7703
(dp7704
g16
VNN
p7705
sbatp7706
Rp7707
(dp7708
g16
VNP
p7709
sbatp7710
Rp7711
(dp7712
g16
VPP
p7713
sbatp7714
Rp7715
(dp7716
g16
VVP
p7717
sbatp7718
Rp7719
(dp7720
g16
g260
sbatp7721
Rp7722
(dp7723
g16
VPP
p7724
sbatp7725
Rp7726
(dp7727
g16
VVP
p7728
sbatp7729
Rp7730
(dp7731
g16
VVP
p7732
sbatp7733
Rp7734
(dp7735
g16
g260
sbatp7736
Rp7737
(dp7738
g16
VROOT
p7739
sbasg548
(icmyPackage
CorE
p7740
(dp7741
g551
(lp7742
(I0
I40
tp7743
a(I0
I56
tp7744
asg555
g7719
sbsg556
(icmyPackage
CorE
p7745
(dp7746
g551
(lp7747
(I0
I0
tp7748
a(I0
I38
tp7749
asg555
g5
(g6
g7
(lp7750
g7210
ag7217
ag7224
ag7497
ag7545
atp7751
Rp7752
(dp7753
g16
g566
sbsbsg567
g1067
sg596
(lp7754
(isxpPackage
sxpSent
p7755
(dp7756
g600
(lp7757
I16
asg602
VA standard log-linear weighing trick was applied to noisy-channel model components, see e.g., [ 9 ] u'\u005cu039b' is the parameter that controls the trade-off between precision and recall (see Section 4.2 ) by emphasizing the importance of either the high frequency of the correction or its proximity to the query
p7758
sg604
I9
sg584
I56
sg605
I26
sbasba(icmyPackage
CELink
p7759
(dp7760
g3
(lp7761
g5
(g6
g7
(lp7762
g5
(g6
g7
(lp7763
g5
(g6
g7
(lp7764
g5
(g6
g7
(lp7765
g5
(g6
g7
(lp7766
VTo
p7767
atp7768
Rp7769
(dp7770
g16
VTO
p7771
sbag5
(g6
g7
(lp7772
g5
(g6
g7
(lp7773
Vcompensate
p7774
atp7775
Rp7776
(dp7777
g16
VVB
p7778
sbag5
(g6
g7
(lp7779
g5
(g6
g7
(lp7780
Vfor
p7781
atp7782
Rp7783
(dp7784
g16
VIN
p7785
sbag5
(g6
g7
(lp7786
g5
(g6
g7
(lp7787
Vthat
p7788
atp7789
Rp7790
(dp7791
g16
VDT
p7792
sbatp7793
Rp7794
(dp7795
g16
VNP
p7796
sbatp7797
Rp7798
(dp7799
g16
VPP
p7800
sbatp7801
Rp7802
(dp7803
g16
VVP
p7804
sbatp7805
Rp7806
(dp7807
g16
VVP
p7808
sbatp7809
Rp7810
(dp7811
g16
g260
sbag5
(g6
g7
(lp7812
g46
atp7813
Rp7814
(dp7815
g16
g46
sbag5
(g6
g7
(lp7816
g5
(g6
g7
(lp7817
Vposteriors
p7818
atp7819
Rp7820
(dp7821
g16
VNNS
p7822
sbatp7823
Rp7824
(dp7825
g16
VNP
p7826
sbag5
(g6
g7
(lp7827
g5
(g6
g7
(lp7828
Vwere
p7829
atp7830
Rp7831
(dp7832
g16
VVBD
p7833
sbag5
(g6
g7
(lp7834
g5
(g6
g7
(lp7835
Vsmoothed
p7836
atp7837
Rp7838
(dp7839
g16
VVBN
p7840
sbag5
(g6
g7
(lp7841
g5
(g6
g7
(lp7842
Vby
p7843
atp7844
Rp7845
(dp7846
g16
VIN
p7847
sbag5
(g6
g7
(lp7848
g5
(g6
g7
(lp7849
g5
(g6
g7
(lp7850
g5
(g6
g7
(lp7851
Vraising
p7852
atp7853
Rp7854
(dp7855
g16
VVBG
p7856
sbag5
(g6
g7
(lp7857
g5
(g6
g7
(lp7858
g5
(g6
g7
(lp7859
Veach
p7860
atp7861
Rp7862
(dp7863
g16
VDT
p7864
sbag5
(g6
g7
(lp7865
Vprobability
p7866
atp7867
Rp7868
(dp7869
g16
VNN
p7870
sbatp7871
Rp7872
(dp7873
g16
VNP
p7874
sbag5
(g6
g7
(lp7875
g5
(g6
g7
(lp7876
Vto
p7877
atp7878
Rp7879
(dp7880
g16
VTO
p7881
sbag5
(g6
g7
(lp7882
g5
(g6
g7
(lp7883
g5
(g6
g7
(lp7884
Vsome
p7885
atp7886
Rp7887
(dp7888
g16
VDT
p7889
sbag5
(g6
g7
(lp7890
Vpower
p7891
atp7892
Rp7893
(dp7894
g16
VNN
p7895
sbag5
(g6
g7
(lp7896
g2055
atp7897
Rp7898
(dp7899
g16
VNN
p7900
sbag5
(g6
g7
(lp7901
g2061
atp7902
Rp7903
(dp7904
g16
VPOS
p7905
sbatp7906
Rp7907
(dp7908
g16
VNP
p7909
sbag5
(g6
g7
(lp7910
V\u005c
p7911
atp7912
Rp7913
(dp7914
g16
VJJ
p7915
sbag5
(g6
g7
(lp7916
Vu0393
p7917
atp7918
Rp7919
(dp7920
g16
VNNS
p7921
sbatp7922
Rp7923
(dp7924
g16
VNP
p7925
sbatp7926
Rp7927
(dp7928
g16
VPP
p7929
sbatp7930
Rp7931
(dp7932
g16
VNP
p7933
sbag5
(g6
g7
(lp7934
g2061
atp7935
Rp7936
(dp7937
g16
V''
p7938
sbag5
(g6
g7
(lp7939
g5
(g6
g7
(lp7940
g2099
atp7941
Rp7942
(dp7943
g16
VCD
p7944
sbatp7945
Rp7946
(dp7947
g16
VNP
p7948
sbatp7949
Rp7950
(dp7951
g16
VVP
p7952
sbag5
(g6
g7
(lp7953
Vand
p7954
atp7955
Rp7956
(dp7957
g16
VCC
p7958
sbag5
(g6
g7
(lp7959
g5
(g6
g7
(lp7960
Vre-normalizing
p7961
atp7962
Rp7963
(dp7964
g16
VVBG
p7965
sbag5
(g6
g7
(lp7966
g5
(g6
g7
(lp7967
Vthem
p7968
atp7969
Rp7970
(dp7971
g16
VPRP
p7972
sbatp7973
Rp7974
(dp7975
g16
VNP
p7976
sbag5
(g6
g7
(lp7977
g5
(g6
g7
(lp7978
Vafterward
p7979
atp7980
Rp7981
(dp7982
g16
VRB
p7983
sbatp7984
Rp7985
(dp7986
g16
VADVP
p7987
sbatp7988
Rp7989
(dp7990
g16
VVP
p7991
sbatp7992
Rp7993
(dp7994
g16
VVP
p7995
sbatp7996
Rp7997
(dp7998
g16
g260
sbatp7999
Rp8000
(dp8001
g16
VPP
p8002
sbatp8003
Rp8004
(dp8005
g16
VVP
p8006
sbatp8007
Rp8008
(dp8009
g16
VVP
p8010
sbatp8011
Rp8012
(dp8013
g16
g260
sbatp8014
Rp8015
(dp8016
g16
VROOT
p8017
sbasg548
(icmyPackage
CorE
p8018
(dp8019
g551
(lp8020
(I0
I9
tp8021
a(I0
I24
tp8022
asg555
g7997
sbsg556
(icmyPackage
CorE
p8023
(dp8024
g551
(lp8025
(I0
I0
tp8026
a(I0
I7
tp8027
asg555
g5
(g6
g7
(lp8028
g7810
ag7814
ag7824
ag7831
ag7838
atp8029
Rp8030
(dp8031
g16
g566
sbsbsg567
g1067
sg596
(lp8032
(isxpPackage
sxpSent
p8033
(dp8034
g600
(lp8035
I17
asg602
VTo compensate for that, posteriors were smoothed by raising each probability to some power u'\u005cu0393' 1 and re-normalizing them afterward
p8036
sg604
I9
sg584
I58
sg605
I27
sbasba(icmyPackage
CELink
p8037
(dp8038
g3
(lp8039
g5
(g6
g7
(lp8040
g5
(g6
g7
(lp8041
g5
(g6
g7
(lp8042
g5
(g6
g7
(lp8043
VFinally
p8044
atp8045
Rp8046
(dp8047
g16
VRB
p8048
sbatp8049
Rp8050
(dp8051
g16
VADVP
p8052
sbag5
(g6
g7
(lp8053
g46
atp8054
Rp8055
(dp8056
g16
g46
sbag5
(g6
g7
(lp8057
g5
(g6
g7
(lp8058
Vif
p8059
atp8060
Rp8061
(dp8062
g16
VIN
p8063
sbag5
(g6
g7
(lp8064
g5
(g6
g7
(lp8065
g5
(g6
g7
(lp8066
g5
(g6
g7
(lp8067
Vposterior
p8068
atp8069
Rp8070
(dp8071
g16
VNN
p8072
sbag5
(g6
g7
(lp8073
Vprobability
p8074
atp8075
Rp8076
(dp8077
g16
VNN
p8078
sbatp8079
Rp8080
(dp8081
g16
VNP
p8082
sbag5
(g6
g7
(lp8083
g5
(g6
g7
(lp8084
Vof
p8085
atp8086
Rp8087
(dp8088
g16
VIN
p8089
sbag5
(g6
g7
(lp8090
g5
(g6
g7
(lp8091
Vthe
p8092
atp8093
Rp8094
(dp8095
g16
VDT
p8096
sbag5
(g6
g7
(lp8097
Vbest
p8098
atp8099
Rp8100
(dp8101
g16
VJJS
p8102
sbag5
(g6
g7
(lp8103
Vhypothesis
p8104
atp8105
Rp8106
(dp8107
g16
VNNS
p8108
sbatp8109
Rp8110
(dp8111
g16
VNP
p8112
sbatp8113
Rp8114
(dp8115
g16
VPP
p8116
sbatp8117
Rp8118
(dp8119
g16
VNP
p8120
sbag5
(g6
g7
(lp8121
g5
(g6
g7
(lp8122
Vwas
p8123
atp8124
Rp8125
(dp8126
g16
VVBD
p8127
sbag5
(g6
g7
(lp8128
g5
(g6
g7
(lp8129
g5
(g6
g7
(lp8130
Vlower
p8131
atp8132
Rp8133
(dp8134
g16
VJJR
p8135
sbatp8136
Rp8137
(dp8138
g16
VADJP
p8139
sbag5
(g6
g7
(lp8140
g5
(g6
g7
(lp8141
Vthan
p8142
atp8143
Rp8144
(dp8145
g16
VIN
p8146
sbag5
(g6
g7
(lp8147
g5
(g6
g7
(lp8148
g5
(g6
g7
(lp8149
Vthreshold
p8150
atp8151
Rp8152
(dp8153
g16
VNN
p8154
sbatp8155
Rp8156
(dp8157
g16
VNP
p8158
sbag5
(g6
g7
(lp8159
g5
(g6
g7
(lp8160
g2055
atp8161
Rp8162
(dp8163
g16
VVBP
p8164
sbag5
(g6
g7
(lp8165
g2061
atp8166
Rp8167
(dp8168
g16
V''
p8169
sbag5
(g6
g7
(lp8170
g5
(g6
g7
(lp8171
V\u005c
p8172
atp8173
Rp8174
(dp8175
g16
VJJ
p8176
sbag5
(g6
g7
(lp8177
Vu0391
p8178
atp8179
Rp8180
(dp8181
g16
VNNS
p8182
sbatp8183
Rp8184
(dp8185
g16
VNP
p8186
sbag5
(g6
g7
(lp8187
g2061
atp8188
Rp8189
(dp8190
g16
V''
p8191
sbatp8192
Rp8193
(dp8194
g16
VVP
p8195
sbatp8196
Rp8197
(dp8198
g16
g260
sbatp8199
Rp8200
(dp8201
g16
VSBAR
p8202
sbatp8203
Rp8204
(dp8205
g16
VADJP
p8206
sbatp8207
Rp8208
(dp8209
g16
VVP
p8210
sbatp8211
Rp8212
(dp8213
g16
g260
sbatp8214
Rp8215
(dp8216
g16
VSBAR
p8217
sbag5
(g6
g7
(lp8218
g46
atp8219
Rp8220
(dp8221
g16
g46
sbag5
(g6
g7
(lp8222
g5
(g6
g7
(lp8223
Vthen
p8224
atp8225
Rp8226
(dp8227
g16
VRB
p8228
sbag5
(g6
g7
(lp8229
Vthe
p8230
atp8231
Rp8232
(dp8233
g16
VDT
p8234
sbag5
(g6
g7
(lp8235
Voriginal
p8236
atp8237
Rp8238
(dp8239
g16
VJJ
p8240
sbag5
(g6
g7
(lp8241
Vquery
p8242
atp8243
Rp8244
(dp8245
g16
VJJ
p8246
sbag5
(g6
g7
(lp8247
g2088
atp8248
Rp8249
(dp8250
g16
VNN
p8251
sbatp8252
Rp8253
(dp8254
g16
VNP
p8255
sbag5
(g6
g7
(lp8256
g5
(g6
g7
(lp8257
Vwas
p8258
atp8259
Rp8260
(dp8261
g16
VVBD
p8262
sbag5
(g6
g7
(lp8263
g5
(g6
g7
(lp8264
Vused
p8265
atp8266
Rp8267
(dp8268
g16
VVBN
p8269
sbag5
(g6
g7
(lp8270
g5
(g6
g7
(lp8271
Vas
p8272
atp8273
Rp8274
(dp8275
g16
VIN
p8276
sbag5
(g6
g7
(lp8277
g5
(g6
g7
(lp8278
Vthe
p8279
atp8280
Rp8281
(dp8282
g16
VDT
p8283
sbag5
(g6
g7
(lp8284
Vspell-checker
p8285
atp8286
Rp8287
(dp8288
g16
VJJ
p8289
sbag5
(g6
g7
(lp8290
Voutput
p8291
atp8292
Rp8293
(dp8294
g16
VNN
p8295
sbatp8296
Rp8297
(dp8298
g16
VNP
p8299
sbatp8300
Rp8301
(dp8302
g16
VPP
p8303
sbatp8304
Rp8305
(dp8306
g16
VVP
p8307
sbatp8308
Rp8309
(dp8310
g16
VVP
p8311
sbatp8312
Rp8313
(dp8314
g16
g260
sbatp8315
Rp8316
(dp8317
g16
VROOT
p8318
sbag5
(g6
g7
(lp8319
g5
(g6
g7
(lp8320
g5
(g6
g7
(lp8321
g5
(g6
g7
(lp8322
VPosterior
p8323
atp8324
Rp8325
(dp8326
g16
VNNP
p8327
sbatp8328
Rp8329
(dp8330
g16
VNP
p8331
sbag5
(g6
g7
(lp8332
g5
(g6
g7
(lp8333
Vis
p8334
atp8335
Rp8336
(dp8337
g16
VVBZ
p8338
sbag5
(g6
g7
(lp8339
g5
(g6
g7
(lp8340
Vdefined
p8341
atp8342
Rp8343
(dp8344
g16
VVBN
p8345
sbag5
(g6
g7
(lp8346
g5
(g6
g7
(lp8347
Vby
p8348
atp8349
Rp8350
(dp8351
g16
VIN
p8352
sbag5
(g6
g7
(lp8353
g5
(g6
g7
(lp8354
VEquation
p8355
atp8356
Rp8357
(dp8358
g16
VNNP
p8359
sbag5
(g6
g7
(lp8360
V6
p8361
atp8362
Rp8363
(dp8364
g16
VCD
p8365
sbatp8366
Rp8367
(dp8368
g16
VNP
p8369
sbatp8370
Rp8371
(dp8372
g16
VPP
p8373
sbag5
(g6
g7
(lp8374
g5
(g6
g7
(lp8375
g5
(g6
g7
(lp8376
Vfor
p8377
atp8378
Rp8379
(dp8380
g16
VIN
p8381
sbag5
(g6
g7
(lp8382
g5
(g6
g7
(lp8383
g5
(g6
g7
(lp8384
Vthe
p8385
atp8386
Rp8387
(dp8388
g16
VDT
p8389
sbag5
(g6
g7
(lp8390
Vbaseline
p8391
atp8392
Rp8393
(dp8394
g16
VNN
p8395
sbatp8396
Rp8397
(dp8398
g16
VNP
p8399
sbag5
(g6
g7
(lp8400
Vand
p8401
atp8402
Rp8403
(dp8404
g16
VCC
p8405
sbag5
(g6
g7
(lp8406
g5
(g6
g7
(lp8407
Vsimple
p8408
atp8409
Rp8410
(dp8411
g16
VJJ
p8412
sbag5
(g6
g7
(lp8413
Viterative
p8414
atp8415
Rp8416
(dp8417
g16
VNN
p8418
sbag5
(g6
g7
(lp8419
Vmethods
p8420
atp8421
Rp8422
(dp8423
g16
VNNS
p8424
sbatp8425
Rp8426
(dp8427
g16
VNP
p8428
sbatp8429
Rp8430
(dp8431
g16
VNP
p8432
sbatp8433
Rp8434
(dp8435
g16
VPP
p8436
sbag5
(g6
g7
(lp8437
Vand
p8438
atp8439
Rp8440
(dp8441
g16
VCC
p8442
sbag5
(g6
g7
(lp8443
g5
(g6
g7
(lp8444
Vby
p8445
atp8446
Rp8447
(dp8448
g16
VIN
p8449
sbag5
(g6
g7
(lp8450
g5
(g6
g7
(lp8451
g5
(g6
g7
(lp8452
VEquations
p8453
atp8454
Rp8455
(dp8456
g16
VNNP
p8457
sbag5
(g6
g7
(lp8458
g3480
atp8459
Rp8460
(dp8461
g16
VCD
p8462
sbag5
(g6
g7
(lp8463
Vand
p8464
atp8465
Rp8466
(dp8467
g16
VCC
p8468
sbag5
(g6
g7
(lp8469
g8361
atp8470
Rp8471
(dp8472
g16
VCD
p8473
sbatp8474
Rp8475
(dp8476
g16
VNP
p8477
sbag5
(g6
g7
(lp8478
g5
(g6
g7
(lp8479
Vfor
p8480
atp8481
Rp8482
(dp8483
g16
VIN
p8484
sbag5
(g6
g7
(lp8485
g5
(g6
g7
(lp8486
Vthe
p8487
atp8488
Rp8489
(dp8490
g16
VDT
p8491
sbag5
(g6
g7
(lp8492
Vproposed
p8493
atp8494
Rp8495
(dp8496
g16
VVBN
p8497
sbag5
(g6
g7
(lp8498
Vmethod
p8499
atp8500
Rp8501
(dp8502
g16
VNN
p8503
sbatp8504
Rp8505
(dp8506
g16
VNP
p8507
sbatp8508
Rp8509
(dp8510
g16
VPP
p8511
sbatp8512
Rp8513
(dp8514
g16
VNP
p8515
sbatp8516
Rp8517
(dp8518
g16
VPP
p8519
sbatp8520
Rp8521
(dp8522
g16
VPP
p8523
sbatp8524
Rp8525
(dp8526
g16
VVP
p8527
sbatp8528
Rp8529
(dp8530
g16
VVP
p8531
sbatp8532
Rp8533
(dp8534
g16
g260
sbatp8535
Rp8536
(dp8537
g16
VROOT
p8538
sbasg548
(icmyPackage
CorE
p8539
(dp8540
g551
(lp8541
(I0
I27
tp8542
a(I1
I21
tp8543
asg555
g5
(g6
g7
(lp8544
g8297
ag8329
ag8336
ag8343
ag8371
ag8434
ag8440
ag8447
ag8475
ag8482
ag8489
ag8495
atp8545
Rp8546
(dp8547
g16
g566
sbsbsg556
(icmyPackage
CorE
p8548
(dp8549
g551
(lp8550
(I0
I0
tp8551
a(I0
I25
tp8552
asg555
g5
(g6
g7
(lp8553
g8050
ag8055
ag8215
ag8220
ag8253
ag8260
ag8267
atp8554
Rp8555
(dp8556
g16
g566
sbsbsg567
g4209
sg596
(lp8557
(isxpPackage
sxpSent
p8558
(dp8559
g600
(lp8560
I18
asg602
VFinally, if posterior probability of the best hypothesis was lower than threshold u'\u005cu0391' , then the original query q was used as the spell-checker output
p8561
sg604
I9
sg584
I61
sg605
I29
sba(isxpPackage
sxpSent
p8562
(dp8563
g600
(lp8564
I18
asg602
VPosterior is defined by Equation 6 for the baseline and simple iterative methods and by Equations 3 and 6 for the proposed method
p8565
sg604
I9
sg584
I62
sg605
I29
sbasba(icmyPackage
CELink
p8566
(dp8567
g3
(lp8568
g5
(g6
g7
(lp8569
g5
(g6
g7
(lp8570
g5
(g6
g7
(lp8571
g5
(g6
g7
(lp8572
g5
(g6
g7
(lp8573
VThe
p8574
atp8575
Rp8576
(dp8577
g16
VDT
p8578
sbag5
(g6
g7
(lp8579
Vdifference
p8580
atp8581
Rp8582
(dp8583
g16
VNN
p8584
sbatp8585
Rp8586
(dp8587
g16
VNP
p8588
sbag5
(g6
g7
(lp8589
g5
(g6
g7
(lp8590
Vbetween
p8591
atp8592
Rp8593
(dp8594
g16
VIN
p8595
sbag5
(g6
g7
(lp8596
g5
(g6
g7
(lp8597
Vdatasets
p8598
atp8599
Rp8600
(dp8601
g16
VNNS
p8602
sbatp8603
Rp8604
(dp8605
g16
VNP
p8606
sbatp8607
Rp8608
(dp8609
g16
VPP
p8610
sbatp8611
Rp8612
(dp8613
g16
VNP
p8614
sbag5
(g6
g7
(lp8615
g5
(g6
g7
(lp8616
Vis
p8617
atp8618
Rp8619
(dp8620
g16
VVBZ
p8621
sbag5
(g6
g7
(lp8622
g5
(g6
g7
(lp8623
Vthat
p8624
atp8625
Rp8626
(dp8627
g16
VIN
p8628
sbag5
(g6
g7
(lp8629
g5
(g6
g7
(lp8630
g5
(g6
g7
(lp8631
g5
(g6
g7
(lp8632
Vone
p8633
atp8634
Rp8635
(dp8636
g16
VCD
p8637
sbatp8638
Rp8639
(dp8640
g16
VNP
p8641
sbag5
(g6
g7
(lp8642
g5
(g6
g7
(lp8643
Vof
p8644
atp8645
Rp8646
(dp8647
g16
VIN
p8648
sbag5
(g6
g7
(lp8649
g5
(g6
g7
(lp8650
Vthem
p8651
atp8652
Rp8653
(dp8654
g16
VPRP
p8655
sbatp8656
Rp8657
(dp8658
g16
VNP
p8659
sbatp8660
Rp8661
(dp8662
g16
VPP
p8663
sbatp8664
Rp8665
(dp8666
g16
VNP
p8667
sbag5
(g6
g7
(lp8668
g5
(g6
g7
(lp8669
Vcontained
p8670
atp8671
Rp8672
(dp8673
g16
VVBD
p8674
sbag5
(g6
g7
(lp8675
g5
(g6
g7
(lp8676
Vonly
p8677
atp8678
Rp8679
(dp8680
g16
VJJ
p8681
sbag5
(g6
g7
(lp8682
Vqueries
p8683
atp8684
Rp8685
(dp8686
g16
VNNS
p8687
sbatp8688
Rp8689
(dp8690
g16
VNP
p8691
sbag5
(g6
g7
(lp8692
g5
(g6
g7
(lp8693
Vwith
p8694
atp8695
Rp8696
(dp8697
g16
VIN
p8698
sbag5
(g6
g7
(lp8699
g5
(g6
g7
(lp8700
g5
(g6
g7
(lp8701
g5
(g6
g7
(lp8702
Vlow
p8703
atp8704
Rp8705
(dp8706
g16
VJJ
p8707
sbag5
(g6
g7
(lp8708
Vsearch
p8709
atp8710
Rp8711
(dp8712
g16
VNN
p8713
sbag5
(g6
g7
(lp8714
Vperformance
p8715
atp8716
Rp8717
(dp8718
g16
VNN
p8719
sbatp8720
Rp8721
(dp8722
g16
VNP
p8723
sbag5
(g6
g7
(lp8724
g5
(g6
g7
(lp8725
g5
(g6
g7
(lp8726
Vfor
p8727
atp8728
Rp8729
(dp8730
g16
VIN
p8731
sbag5
(g6
g7
(lp8732
g5
(g6
g7
(lp8733
Vwhich
p8734
atp8735
Rp8736
(dp8737
g16
VWDT
p8738
sbatp8739
Rp8740
(dp8741
g16
VWHNP
p8742
sbatp8743
Rp8744
(dp8745
g16
VWHPP
p8746
sbag5
(g6
g7
(lp8747
g5
(g6
g7
(lp8748
g5
(g6
g7
(lp8749
g5
(g6
g7
(lp8750
Vthe
p8751
atp8752
Rp8753
(dp8754
g16
VDT
p8755
sbag5
(g6
g7
(lp8756
Vnumber
p8757
atp8758
Rp8759
(dp8760
g16
VNN
p8761
sbatp8762
Rp8763
(dp8764
g16
VNP
p8765
sbag5
(g6
g7
(lp8766
g5
(g6
g7
(lp8767
Vof
p8768
atp8769
Rp8770
(dp8771
g16
VIN
p8772
sbag5
(g6
g7
(lp8773
g5
(g6
g7
(lp8774
g5
(g6
g7
(lp8775
Vdocuments
p8776
atp8777
Rp8778
(dp8779
g16
VNNS
p8780
sbatp8781
Rp8782
(dp8783
g16
VNP
p8784
sbag5
(g6
g7
(lp8785
g5
(g6
g7
(lp8786
Vretrieved
p8787
atp8788
Rp8789
(dp8790
g16
VVBN
p8791
sbag5
(g6
g7
(lp8792
g5
(g6
g7
(lp8793
Vby
p8794
atp8795
Rp8796
(dp8797
g16
VIN
p8798
sbag5
(g6
g7
(lp8799
g5
(g6
g7
(lp8800
Vthe
p8801
atp8802
Rp8803
(dp8804
g16
VDT
p8805
sbag5
(g6
g7
(lp8806
Vsearch
p8807
atp8808
Rp8809
(dp8810
g16
VNN
p8811
sbag5
(g6
g7
(lp8812
Vengine
p8813
atp8814
Rp8815
(dp8816
g16
VNN
p8817
sbatp8818
Rp8819
(dp8820
g16
VNP
p8821
sbatp8822
Rp8823
(dp8824
g16
VPP
p8825
sbatp8826
Rp8827
(dp8828
g16
VVP
p8829
sbatp8830
Rp8831
(dp8832
g16
VNP
p8833
sbatp8834
Rp8835
(dp8836
g16
VPP
p8837
sbatp8838
Rp8839
(dp8840
g16
VNP
p8841
sbag5
(g6
g7
(lp8842
g5
(g6
g7
(lp8843
Vwas
p8844
atp8845
Rp8846
(dp8847
g16
VVBD
p8848
sbag5
(g6
g7
(lp8849
g5
(g6
g7
(lp8850
Vless
p8851
atp8852
Rp8853
(dp8854
g16
VJJR
p8855
sbatp8856
Rp8857
(dp8858
g16
VADJP
p8859
sbag5
(g6
g7
(lp8860
g5
(g6
g7
(lp8861
Vthan
p8862
atp8863
Rp8864
(dp8865
g16
VIN
p8866
sbag5
(g6
g7
(lp8867
g5
(g6
g7
(lp8868
g5
(g6
g7
(lp8869
g287
atp8870
Rp8871
(dp8872
g16
VDT
p8873
sbag5
(g6
g7
(lp8874
Vfixed
p8875
atp8876
Rp8877
(dp8878
g16
VVBN
p8879
sbag5
(g6
g7
(lp8880
Vthreshold
p8881
atp8882
Rp8883
(dp8884
g16
VNN
p8885
sbatp8886
Rp8887
(dp8888
g16
VNP
p8889
sbag5
(g6
g7
(lp8890
g5
(g6
g7
(lp8891
V-LRB-
p8892
atp8893
Rp8894
(dp8895
g16
V-LRB-
p8896
sbag5
(g6
g7
(lp8897
g5
(g6
g7
(lp8898
g5
(g6
g7
(lp8899
Vwe
p8900
atp8901
Rp8902
(dp8903
g16
VPRP
p8904
sbatp8905
Rp8906
(dp8907
g16
VNP
p8908
sbag5
(g6
g7
(lp8909
g5
(g6
g7
(lp8910
Vwill
p8911
atp8912
Rp8913
(dp8914
g16
VMD
p8915
sbag5
(g6
g7
(lp8916
g5
(g6
g7
(lp8917
Vaddress
p8918
atp8919
Rp8920
(dp8921
g16
VVB
p8922
sbag5
(g6
g7
(lp8923
g5
(g6
g7
(lp8924
Vit
p8925
atp8926
Rp8927
(dp8928
g16
VPRP
p8929
sbatp8930
Rp8931
(dp8932
g16
VNP
p8933
sbag5
(g6
g7
(lp8934
g5
(g6
g7
(lp8935
Vas
p8936
atp8937
Rp8938
(dp8939
g16
VIN
p8940
sbag5
(g6
g7
(lp8941
g5
(g6
g7
(lp8942
g5
(g6
g7
(lp8943
g5
(g6
g7
(lp8944
Vthe
p8945
atp8946
Rp8947
(dp8948
g16
VDT
p8949
sbag5
(g6
g7
(lp8950
g2055
atp8951
Rp8952
(dp8953
g16
VNN
p8954
sbag5
(g6
g7
(lp8955
g2061
atp8956
Rp8957
(dp8958
g16
VPOS
p8959
sbatp8960
Rp8961
(dp8962
g16
VNP
p8963
sbag5
(g6
g7
(lp8964
V\u005c
p8965
atp8966
Rp8967
(dp8968
g16
VJJ
p8969
sbag5
(g6
g7
(lp8970
Vu201d
p8971
atp8972
Rp8973
(dp8974
g16
VNNS
p8975
sbag5
(g6
g7
(lp8976
g2061
atp8977
Rp8978
(dp8979
g16
VPOS
p8980
sbatp8981
Rp8982
(dp8983
g16
VNP
p8984
sbag5
(g6
g7
(lp8985
g5
(g6
g7
(lp8986
Vhard
p8987
atp8988
Rp8989
(dp8990
g16
VJJ
p8991
sbatp8992
Rp8993
(dp8994
g16
VADJP
p8995
sbag5
(g6
g7
(lp8996
g2055
atp8997
Rp8998
(dp8999
g16
VNNP
p9000
sbag5
(g6
g7
(lp9001
g2061
atp9002
Rp9003
(dp9004
g16
VPOS
p9005
sbag5
(g6
g7
(lp9006
V\u005c
p9007
atp9008
Rp9009
(dp9010
g16
VCD
p9011
sbag5
(g6
g7
(lp9012
g5
(g6
g7
(lp9013
Vu201d
p9014
atp9015
Rp9016
(dp9017
g16
VNNP
p9018
sbag5
(g6
g7
(lp9019
g2061
atp9020
Rp9021
(dp9022
g16
VPOS
p9023
sbatp9024
Rp9025
(dp9026
g16
VNP
p9027
sbag5
(g6
g7
(lp9028
Vdataset
p9029
atp9030
Rp9031
(dp9032
g16
VNN
p9033
sbatp9034
Rp9035
(dp9036
g16
VNP
p9037
sbatp9038
Rp9039
(dp9040
g16
VPP
p9041
sbatp9042
Rp9043
(dp9044
g16
VVP
p9045
sbatp9046
Rp9047
(dp9048
g16
VVP
p9049
sbatp9050
Rp9051
(dp9052
g16
g260
sbag5
(g6
g7
(lp9053
V-RRB-
p9054
atp9055
Rp9056
(dp9057
g16
V-RRB-
p9058
sbatp9059
Rp9060
(dp9061
g16
VPRN
p9062
sbatp9063
Rp9064
(dp9065
g16
VNP
p9066
sbatp9067
Rp9068
(dp9069
g16
VPP
p9070
sbag5
(g6
g7
(lp9071
g46
atp9072
Rp9073
(dp9074
g16
g46
sbag5
(g6
g7
(lp9075
g5
(g6
g7
(lp9076
Vwhile
p9077
atp9078
Rp9079
(dp9080
g16
VIN
p9081
sbag5
(g6
g7
(lp9082
g5
(g6
g7
(lp9083
g5
(g6
g7
(lp9084
Vthe
p9085
atp9086
Rp9087
(dp9088
g16
VDT
p9089
sbag5
(g6
g7
(lp9090
Vother
p9091
atp9092
Rp9093
(dp9094
g16
VJJ
p9095
sbag5
(g6
g7
(lp9096
Vdataset
p9097
atp9098
Rp9099
(dp9100
g16
VNN
p9101
sbatp9102
Rp9103
(dp9104
g16
VNP
p9105
sbag5
(g6
g7
(lp9106
g5
(g6
g7
(lp9107
Vhad
p9108
atp9109
Rp9110
(dp9111
g16
VVBD
p9112
sbag5
(g6
g7
(lp9113
g5
(g6
g7
(lp9114
g5
(g6
g7
(lp9115
Vno
p9116
atp9117
Rp9118
(dp9119
g16
VDT
p9120
sbag5
(g6
g7
(lp9121
Vsuch
p9122
atp9123
Rp9124
(dp9125
g16
VJJ
p9126
sbag5
(g6
g7
(lp9127
Vrestrictions
p9128
atp9129
Rp9130
(dp9131
g16
VNNS
p9132
sbatp9133
Rp9134
(dp9135
g16
VNP
p9136
sbag5
(g6
g7
(lp9137
g5
(g6
g7
(lp9138
g5
(g6
g7
(lp9139
V-LRB-
p9140
atp9141
Rp9142
(dp9143
g16
V-LRB-
p9144
sbag5
(g6
g7
(lp9145
g5
(g6
g7
(lp9146
Vwe
p9147
atp9148
Rp9149
(dp9150
g16
VPRP
p9151
sbatp9152
Rp9153
(dp9154
g16
VNP
p9155
sbag5
(g6
g7
(lp9156
g5
(g6
g7
(lp9157
Vwill
p9158
atp9159
Rp9160
(dp9161
g16
VMD
p9162
sbag5
(g6
g7
(lp9163
g5
(g6
g7
(lp9164
Vcall
p9165
atp9166
Rp9167
(dp9168
g16
VVB
p9169
sbag5
(g6
g7
(lp9170
g5
(g6
g7
(lp9171
Vit
p9172
atp9173
Rp9174
(dp9175
g16
VPRP
p9176
sbatp9177
Rp9178
(dp9179
g16
VNP
p9180
sbatp9181
Rp9182
(dp9183
g16
VVP
p9184
sbatp9185
Rp9186
(dp9187
g16
VVP
p9188
sbatp9189
Rp9190
(dp9191
g16
g260
sbatp9192
Rp9193
(dp9194
g16
VSBAR
p9195
sbatp9196
Rp9197
(dp9198
g16
VNP
p9199
sbatp9200
Rp9201
(dp9202
g16
VVP
p9203
sbatp9204
Rp9205
(dp9206
g16
g260
sbatp9207
Rp9208
(dp9209
g16
VSBAR
p9210
sbatp9211
Rp9212
(dp9213
g16
VVP
p9214
sbatp9215
Rp9216
(dp9217
g16
g260
sbatp9218
Rp9219
(dp9220
g16
VSBAR
p9221
sbatp9222
Rp9223
(dp9224
g16
VNP
p9225
sbag5
(g6
g7
(lp9226
g5
(g6
g7
(lp9227
g2055
atp9228
Rp9229
(dp9230
g16
VVBP
p9231
sbag5
(g6
g7
(lp9232
g2061
atp9233
Rp9234
(dp9235
g16
V``
p9236
sbag5
(g6
g7
(lp9237
g5
(g6
g7
(lp9238
g5
(g6
g7
(lp9239
V\u005c
p9240
atp9241
Rp9242
(dp9243
g16
VNNP
p9244
sbag5
(g6
g7
(lp9245
Vu201d
p9246
atp9247
Rp9248
(dp9249
g16
VNNP
p9250
sbag5
(g6
g7
(lp9251
g2061
atp9252
Rp9253
(dp9254
g16
VPOS
p9255
sbatp9256
Rp9257
(dp9258
g16
VNP
p9259
sbag5
(g6
g7
(lp9260
g5
(g6
g7
(lp9261
Vcommon
p9262
atp9263
Rp9264
(dp9265
g16
VJJ
p9266
sbag5
(g6
g7
(lp9267
g2055
atp9268
Rp9269
(dp9270
g16
VNN
p9271
sbag5
(g6
g7
(lp9272
g2061
atp9273
Rp9274
(dp9275
g16
VPOS
p9276
sbatp9277
Rp9278
(dp9279
g16
VNP
p9280
sbag5
(g6
g7
(lp9281
V\u005c
p9282
atp9283
Rp9284
(dp9285
g16
VNN
p9286
sbag5
(g6
g7
(lp9287
Vu201d
p9288
atp9289
Rp9290
(dp9291
g16
VNNS
p9292
sbatp9293
Rp9294
(dp9295
g16
VNP
p9296
sbag5
(g6
g7
(lp9297
g2061
atp9298
Rp9299
(dp9300
g16
V''
p9301
sbatp9302
Rp9303
(dp9304
g16
VVP
p9305
sbatp9306
Rp9307
(dp9308
g16
VNP
p9309
sbatp9310
Rp9311
(dp9312
g16
VPP
p9313
sbatp9314
Rp9315
(dp9316
g16
VVP
p9317
sbatp9318
Rp9319
(dp9320
g16
g260
sbatp9321
Rp9322
(dp9323
g16
VSBAR
p9324
sbatp9325
Rp9326
(dp9327
g16
VVP
p9328
sbatp9329
Rp9330
(dp9331
g16
g260
sbatp9332
Rp9333
(dp9334
g16
VROOT
p9335
sbasg548
(icmyPackage
CorE
p9336
(dp9337
g551
(lp9338
(I0
I39
tp9339
a(I0
I77
tp9340
asg555
g5
(g6
g7
(lp9341
g9035
ag9056
ag9073
ag9208
ag9303
atp9342
Rp9343
(dp9344
g16
g566
sbsbsg556
(icmyPackage
CorE
p9345
(dp9346
g551
(lp9347
(I0
I0
tp9348
a(I0
I37
tp9349
asg555
g5
(g6
g7
(lp9350
g8612
ag8619
ag8626
ag8665
ag8672
ag8689
ag8696
ag8721
ag8744
ag8839
ag8846
ag8857
ag8864
ag8887
ag8894
ag8906
ag8913
ag8920
ag8931
atp9351
Rp9352
(dp9353
g16
g566
sbsbsg567
g4209
sg596
(lp9354
(isxpPackage
sxpSent
p9355
(dp9356
g600
(lp9357
I19
asg602
VThe difference between datasets is that one of them contained only queries with low search performance for which the number of documents retrieved by the search engine was less than a fixed threshold (we will address it as the u'\u005cu201d' hard u'\u005cu201d' dataset), while the other dataset had no such restrictions (we will call it u'\u005cu201d' common u'\u005cu201d'
p9358
sg604
I11
sg584
I67
sg605
I30
sbasba(icmyPackage
CELink
p9359
(dp9360
g3
(lp9361
g5
(g6
g7
(lp9362
g5
(g6
g7
(lp9363
g5
(g6
g7
(lp9364
g5
(g6
g7
(lp9365
g5
(g6
g7
(lp9366
VSupposedly
p9367
atp9368
Rp9369
(dp9370
g16
VRB
p9371
sbatp9372
Rp9373
(dp9374
g16
VADVP
p9375
sbag5
(g6
g7
(lp9376
g46
atp9377
Rp9378
(dp9379
g16
g46
sbag5
(g6
g7
(lp9380
g5
(g6
g7
(lp9381
Vit
p9382
atp9383
Rp9384
(dp9385
g16
VPRP
p9386
sbatp9387
Rp9388
(dp9389
g16
VNP
p9390
sbag5
(g6
g7
(lp9391
g5
(g6
g7
(lp9392
Vis
p9393
atp9394
Rp9395
(dp9396
g16
VVBZ
p9397
sbag5
(g6
g7
(lp9398
g5
(g6
g7
(lp9399
Vbecause
p9400
atp9401
Rp9402
(dp9403
g16
VIN
p9404
sbag5
(g6
g7
(lp9405
g5
(g6
g7
(lp9406
g5
(g6
g7
(lp9407
Vthe
p9408
atp9409
Rp9410
(dp9411
g16
VDT
p9412
sbag5
(g6
g7
(lp9413
Viterative
p9414
atp9415
Rp9416
(dp9417
g16
VJJ
p9418
sbag5
(g6
g7
(lp9419
Vmethod
p9420
atp9421
Rp9422
(dp9423
g16
VNN
p9424
sbatp9425
Rp9426
(dp9427
g16
VNP
p9428
sbag5
(g6
g7
(lp9429
g5
(g6
g7
(lp9430
Vbenefits
p9431
atp9432
Rp9433
(dp9434
g16
VVBZ
p9435
sbag5
(g6
g7
(lp9436
g5
(g6
g7
(lp9437
Vprimarily
p9438
atp9439
Rp9440
(dp9441
g16
VRB
p9442
sbatp9443
Rp9444
(dp9445
g16
VADVP
p9446
sbag5
(g6
g7
(lp9447
g5
(g6
g7
(lp9448
Vfrom
p9449
atp9450
Rp9451
(dp9452
g16
VIN
p9453
sbag5
(g6
g7
(lp9454
g5
(g6
g7
(lp9455
g5
(g6
g7
(lp9456
g5
(g6
g7
(lp9457
Vthe
p9458
atp9459
Rp9460
(dp9461
g16
VDT
p9462
sbag5
(g6
g7
(lp9463
Vsequential
p9464
atp9465
Rp9466
(dp9467
g16
VJJ
p9468
sbag5
(g6
g7
(lp9469
Vapplication
p9470
atp9471
Rp9472
(dp9473
g16
VNN
p9474
sbatp9475
Rp9476
(dp9477
g16
VNP
p9478
sbag5
(g6
g7
(lp9479
g5
(g6
g7
(lp9480
Vof
p9481
atp9482
Rp9483
(dp9484
g16
VIN
p9485
sbag5
(g6
g7
(lp9486
g5
(g6
g7
(lp9487
Vsplit/join
p9488
atp9489
Rp9490
(dp9491
g16
VNN
p9492
sbag5
(g6
g7
(lp9493
Voperations
p9494
atp9495
Rp9496
(dp9497
g16
VNNS
p9498
sbatp9499
Rp9500
(dp9501
g16
VNP
p9502
sbatp9503
Rp9504
(dp9505
g16
VPP
p9506
sbatp9507
Rp9508
(dp9509
g16
VNP
p9510
sbag5
(g6
g7
(lp9511
g5
(g6
g7
(lp9512
Valtering
p9513
atp9514
Rp9515
(dp9516
g16
VVBG
p9517
sbag5
(g6
g7
(lp9518
g5
(g6
g7
(lp9519
Vquery
p9520
atp9521
Rp9522
(dp9523
g16
VJJ
p9524
sbag5
(g6
g7
(lp9525
Vdecomposition
p9526
atp9527
Rp9528
(dp9529
g16
VNN
p9530
sbatp9531
Rp9532
(dp9533
g16
VNP
p9534
sbag5
(g6
g7
(lp9535
g5
(g6
g7
(lp9536
Vinto
p9537
atp9538
Rp9539
(dp9540
g16
VIN
p9541
sbag5
(g6
g7
(lp9542
g5
(g6
g7
(lp9543
Vwords
p9544
atp9545
Rp9546
(dp9547
g16
VNNS
p9548
sbatp9549
Rp9550
(dp9551
g16
VNP
p9552
sbatp9553
Rp9554
(dp9555
g16
VPP
p9556
sbatp9557
Rp9558
(dp9559
g16
VVP
p9560
sbatp9561
Rp9562
(dp9563
g16
g260
sbatp9564
Rp9565
(dp9566
g16
VPP
p9567
sbatp9568
Rp9569
(dp9570
g16
VVP
p9571
sbatp9572
Rp9573
(dp9574
g16
g260
sbatp9575
Rp9576
(dp9577
g16
VSBAR
p9578
sbatp9579
Rp9580
(dp9581
g16
VVP
p9582
sbatp9583
Rp9584
(dp9585
g16
g260
sbag5
(g6
g7
(lp9586
g6460
atp9587
Rp9588
(dp9589
g16
g5434
sbag5
(g6
g7
(lp9590
g5
(g6
g7
(lp9591
g5
(g6
g7
(lp9592
Vsince
p9593
atp9594
Rp9595
(dp9596
g16
VIN
p9597
sbag5
(g6
g7
(lp9598
g5
(g6
g7
(lp9599
g5
(g6
g7
(lp9600
Vwe
p9601
atp9602
Rp9603
(dp9604
g16
VPRP
p9605
sbatp9606
Rp9607
(dp9608
g16
VNP
p9609
sbag5
(g6
g7
(lp9610
g5
(g6
g7
(lp9611
Vare
p9612
atp9613
Rp9614
(dp9615
g16
VVBP
p9616
sbag5
(g6
g7
(lp9617
g5
(g6
g7
(lp9618
Vconsidering
p9619
atp9620
Rp9621
(dp9622
g16
VVBG
p9623
sbag5
(g6
g7
(lp9624
g5
(g6
g7
(lp9625
Vonly
p9626
atp9627
Rp9628
(dp9629
g16
VRB
p9630
sbag5
(g6
g7
(lp9631
Vone-word
p9632
atp9633
Rp9634
(dp9635
g16
VJJ
p9636
sbag5
(g6
g7
(lp9637
Vqueries
p9638
atp9639
Rp9640
(dp9641
g16
VNNS
p9642
sbatp9643
Rp9644
(dp9645
g16
VNP
p9646
sbatp9647
Rp9648
(dp9649
g16
VVP
p9650
sbatp9651
Rp9652
(dp9653
g16
VVP
p9654
sbatp9655
Rp9656
(dp9657
g16
g260
sbatp9658
Rp9659
(dp9660
g16
VSBAR
p9661
sbag5
(g6
g7
(lp9662
g46
atp9663
Rp9664
(dp9665
g16
g46
sbag5
(g6
g7
(lp9666
g5
(g6
g7
(lp9667
Vsuch
p9668
atp9669
Rp9670
(dp9671
g16
VJJ
p9672
sbag5
(g6
g7
(lp9673
Vdecomposition
p9674
atp9675
Rp9676
(dp9677
g16
VNN
p9678
sbatp9679
Rp9680
(dp9681
g16
VNP
p9682
sbag5
(g6
g7
(lp9683
g5
(g6
g7
(lp9684
Vdoes
p9685
atp9686
Rp9687
(dp9688
g16
VVBZ
p9689
sbag5
(g6
g7
(lp9690
Vnot
p9691
atp9692
Rp9693
(dp9694
g16
VRB
p9695
sbag5
(g6
g7
(lp9696
g5
(g6
g7
(lp9697
Vmatter
p9698
atp9699
Rp9700
(dp9701
g16
VVB
p9702
sbatp9703
Rp9704
(dp9705
g16
VVP
p9706
sbatp9707
Rp9708
(dp9709
g16
VVP
p9710
sbatp9711
Rp9712
(dp9713
g16
g260
sbatp9714
Rp9715
(dp9716
g16
g260
sbatp9717
Rp9718
(dp9719
g16
VROOT
p9720
sbasg548
(icmyPackage
CorE
p9721
(dp9722
g551
(lp9723
(I0
I24
tp9724
a(I0
I29
tp9725
asg555
g9656
sbsg556
(icmyPackage
CorE
p9726
(dp9727
g551
(lp9728
(I0
I31
tp9729
a(I0
I35
tp9730
asg555
g5
(g6
g7
(lp9731
g9680
ag9708
atp9732
Rp9733
(dp9734
g16
g566
sbsbsg567
(icmyPackage
pattern
p9735
(dp9736
g570
I15
sg571
I0
sg572
(lp9737
(lp9738
S'since'
p9739
aa(lp9740
g1743
aasg579
(lp9741
I3
aI1
aI1
asg581
(lp9742
S'But, since the herpes virus does not always show its symptoms, prevention is not fool proof.'
p9743
asg584
I78
sg585
(lp9744
(lp9745
a(lp9746
S'&C@NCTime@'
p9747
aa(lp9748
S'&R@NCTime@'
p9749
aasbsg596
(lp9750
(isxpPackage
sxpSent
p9751
(dp9752
g600
(lp9753
I20
asg602
VSupposedly, it is because the iterative method benefits primarily from the sequential application of split/join operations altering query decomposition into words; since we are considering only one-word queries, such decomposition does not matter
p9754
sg604
I12
sg584
I82
sg605
I38
sbasba(icmyPackage
CELink
p9755
(dp9756
g3
(lp9757
g5
(g6
g7
(lp9758
g5
(g6
g7
(lp9759
g5
(g6
g7
(lp9760
g5
(g6
g7
(lp9761
VWe
p9762
atp9763
Rp9764
(dp9765
g16
VPRP
p9766
sbatp9767
Rp9768
(dp9769
g16
VNP
p9770
sbag5
(g6
g7
(lp9771
g5
(g6
g7
(lp9772
Vtested
p9773
atp9774
Rp9775
(dp9776
g16
VVBD
p9777
sbag5
(g6
g7
(lp9778
g5
(g6
g7
(lp9779
g5
(g6
g7
(lp9780
Vall
p9781
atp9782
Rp9783
(dp9784
g16
VDT
p9785
sbag5
(g6
g7
(lp9786
Vthree
p9787
atp9788
Rp9789
(dp9790
g16
VCD
p9791
sbag5
(g6
g7
(lp9792
Vmethods
p9793
atp9794
Rp9795
(dp9796
g16
VNNS
p9797
sbatp9798
Rp9799
(dp9800
g16
VNP
p9801
sbag5
(g6
g7
(lp9802
g5
(g6
g7
(lp9803
Von
p9804
atp9805
Rp9806
(dp9807
g16
VIN
p9808
sbag5
(g6
g7
(lp9809
g5
(g6
g7
(lp9810
g5
(g6
g7
(lp9811
g5
(g6
g7
(lp9812
g5
(g6
g7
(lp9813
Vthe
p9814
atp9815
Rp9816
(dp9817
g16
VDT
p9818
sbag5
(g6
g7
(lp9819
g2055
atp9820
Rp9821
(dp9822
g16
VNN
p9823
sbag5
(g6
g7
(lp9824
g2061
atp9825
Rp9826
(dp9827
g16
VPOS
p9828
sbatp9829
Rp9830
(dp9831
g16
VNP
p9832
sbag5
(g6
g7
(lp9833
V\u005c
p9834
atp9835
Rp9836
(dp9837
g16
VJJ
p9838
sbag5
(g6
g7
(lp9839
Vu201d
p9840
atp9841
Rp9842
(dp9843
g16
VNNS
p9844
sbag5
(g6
g7
(lp9845
g2061
atp9846
Rp9847
(dp9848
g16
VPOS
p9849
sbatp9850
Rp9851
(dp9852
g16
VNP
p9853
sbag5
(g6
g7
(lp9854
Vcommon
p9855
atp9856
Rp9857
(dp9858
g16
VJJ
p9859
sbag5
(g6
g7
(lp9860
g2055
atp9861
Rp9862
(dp9863
g16
VNN
p9864
sbatp9865
Rp9866
(dp9867
g16
VNP
p9868
sbag5
(g6
g7
(lp9869
g2061
atp9870
Rp9871
(dp9872
g16
V''
p9873
sbag5
(g6
g7
(lp9874
g5
(g6
g7
(lp9875
V\u005c
p9876
atp9877
Rp9878
(dp9879
g16
VVBG
p9880
sbag5
(g6
g7
(lp9881
g5
(g6
g7
(lp9882
g5
(g6
g7
(lp9883
Vu201d
p9884
atp9885
Rp9886
(dp9887
g16
VNNP
p9888
sbag5
(g6
g7
(lp9889
g2061
atp9890
Rp9891
(dp9892
g16
VPOS
p9893
sbatp9894
Rp9895
(dp9896
g16
VNP
p9897
sbag5
(g6
g7
(lp9898
Vdataset
p9899
atp9900
Rp9901
(dp9902
g16
VNN
p9903
sbatp9904
Rp9905
(dp9906
g16
VNP
p9907
sbag5
(g6
g7
(lp9908
g5
(g6
g7
(lp9909
g5
(g6
g7
(lp9910
Vas
p9911
atp9912
Rp9913
(dp9914
g16
VRB
p9915
sbag5
(g6
g7
(lp9916
Vwell
p9917
atp9918
Rp9919
(dp9920
g16
VRB
p9921
sbatp9922
Rp9923
(dp9924
g16
VADVP
p9925
sbag5
(g6
g7
(lp9926
g5
(g6
g7
(lp9927
Vto
p9928
atp9929
Rp9930
(dp9931
g16
VTO
p9932
sbag5
(g6
g7
(lp9933
g5
(g6
g7
(lp9934
Vevaluate
p9935
atp9936
Rp9937
(dp9938
g16
VVB
p9939
sbag5
(g6
g7
(lp9940
g5
(g6
g7
(lp9941
Vif
p9942
atp9943
Rp9944
(dp9945
g16
VIN
p9946
sbag5
(g6
g7
(lp9947
g5
(g6
g7
(lp9948
g5
(g6
g7
(lp9949
g5
(g6
g7
(lp9950
Vour
p9951
atp9952
Rp9953
(dp9954
g16
VPRP$
p9955
sbag5
(g6
g7
(lp9956
Vhandling
p9957
atp9958
Rp9959
(dp9960
g16
VNN
p9961
sbatp9962
Rp9963
(dp9964
g16
VNP
p9965
sbag5
(g6
g7
(lp9966
g5
(g6
g7
(lp9967
Vof
p9968
atp9969
Rp9970
(dp9971
g16
VIN
p9972
sbag5
(g6
g7
(lp9973
g5
(g6
g7
(lp9974
Vhard
p9975
atp9976
Rp9977
(dp9978
g16
VJJ
p9979
sbag5
(g6
g7
(lp9980
Vcases
p9981
atp9982
Rp9983
(dp9984
g16
VNNS
p9985
sbatp9986
Rp9987
(dp9988
g16
VNP
p9989
sbatp9990
Rp9991
(dp9992
g16
VPP
p9993
sbatp9994
Rp9995
(dp9996
g16
VNP
p9997
sbag5
(g6
g7
(lp9998
g5
(g6
g7
(lp9999
Vaffects
p10000
atp10001
Rp10002
(dp10003
g16
VVBZ
p10004
sbag5
(g6
g7
(lp10005
g5
(g6
g7
(lp10006
g5
(g6
g7
(lp10007
Vthe
p10008
atp10009
Rp10010
(dp10011
g16
VDT
p10012
sbag5
(g6
g7
(lp10013
Vperformance
p10014
atp10015
Rp10016
(dp10017
g16
VNN
p10018
sbatp10019
Rp10020
(dp10021
g16
VNP
p10022
sbag5
(g6
g7
(lp10023
g5
(g6
g7
(lp10024
Vof
p10025
atp10026
Rp10027
(dp10028
g16
VIN
p10029
sbag5
(g6
g7
(lp10030
g5
(g6
g7
(lp10031
Vour
p10032
atp10033
Rp10034
(dp10035
g16
VPRP$
p10036
sbag5
(g6
g7
(lp10037
Vapproach
p10038
atp10039
Rp10040
(dp10041
g16
VNN
p10042
sbatp10043
Rp10044
(dp10045
g16
VNP
p10046
sbatp10047
Rp10048
(dp10049
g16
VPP
p10050
sbatp10051
Rp10052
(dp10053
g16
VNP
p10054
sbag5
(g6
g7
(lp10055
g5
(g6
g7
(lp10056
Von
p10057
atp10058
Rp10059
(dp10060
g16
VIN
p10061
sbag5
(g6
g7
(lp10062
g5
(g6
g7
(lp10063
g5
(g6
g7
(lp10064
Vthe
p10065
atp10066
Rp10067
(dp10068
g16
VDT
p10069
sbag5
(g6
g7
(lp10070
Vcommon
p10071
atp10072
Rp10073
(dp10074
g16
VJJ
p10075
sbag5
(g6
g7
(lp10076
Vcases
p10077
atp10078
Rp10079
(dp10080
g16
VNNS
p10081
sbatp10082
Rp10083
(dp10084
g16
VNP
p10085
sbag5
(g6
g7
(lp10086
g5
(g6
g7
(lp10087
Vof
p10088
atp10089
Rp10090
(dp10091
g16
VIN
p10092
sbag5
(g6
g7
(lp10093
g5
(g6
g7
(lp10094
Vspelling
p10095
atp10096
Rp10097
(dp10098
g16
VNN
p10099
sbag5
(g6
g7
(lp10100
Verror
p10101
atp10102
Rp10103
(dp10104
g16
VNN
p10105
sbatp10106
Rp10107
(dp10108
g16
VNP
p10109
sbatp10110
Rp10111
(dp10112
g16
VPP
p10113
sbatp10114
Rp10115
(dp10116
g16
VNP
p10117
sbatp10118
Rp10119
(dp10120
g16
VPP
p10121
sbatp10122
Rp10123
(dp10124
g16
VVP
p10125
sbatp10126
Rp10127
(dp10128
g16
g260
sbatp10129
Rp10130
(dp10131
g16
VSBAR
p10132
sbatp10133
Rp10134
(dp10135
g16
VVP
p10136
sbatp10137
Rp10138
(dp10139
g16
VVP
p10140
sbatp10141
Rp10142
(dp10143
g16
g260
sbatp10144
Rp10145
(dp10146
g16
VVP
p10147
sbatp10148
Rp10149
(dp10150
g16
VNP
p10151
sbatp10152
Rp10153
(dp10154
g16
VPP
p10155
sbatp10156
Rp10157
(dp10158
g16
VNP
p10159
sbatp10160
Rp10161
(dp10162
g16
VVP
p10163
sbatp10164
Rp10165
(dp10166
g16
g260
sbatp10167
Rp10168
(dp10169
g16
VROOT
p10170
sbasg548
(icmyPackage
CorE
p10171
(dp10172
g551
(lp10173
(I0
I24
tp10174
a(I0
I41
tp10175
asg555
g10127
sbsg556
(icmyPackage
CorE
p10176
(dp10177
g551
(lp10178
(I0
I0
tp10179
a(I0
I22
tp10180
asg555
g5
(g6
g7
(lp10181
g9768
ag9775
ag9799
ag9806
ag9866
ag9871
ag9878
ag9905
ag9923
ag9930
ag9937
atp10182
Rp10183
(dp10184
g16
g566
sbsbsg567
g3561
sg596
(lp10185
(isxpPackage
sxpSent
p10186
(dp10187
g600
(lp10188
I21
asg602
VWe tested all three methods on the u'\u005cu201d' common u'\u005cu201d' dataset as well to evaluate if our handling of hard cases affects the performance of our approach on the common cases of spelling error
p10189
sg604
I12
sg584
I84
sg605
I39
sbasba(icmyPackage
CELink
p10190
(dp10191
g3
(lp10192
g5
(g6
g7
(lp10193
g5
(g6
g7
(lp10194
g5
(g6
g7
(lp10195
g5
(g6
g7
(lp10196
VHowever
p10197
atp10198
Rp10199
(dp10200
g16
VRB
p10201
sbatp10202
Rp10203
(dp10204
g16
VADVP
p10205
sbag5
(g6
g7
(lp10206
g46
atp10207
Rp10208
(dp10209
g16
g46
sbag5
(g6
g7
(lp10210
g5
(g6
g7
(lp10211
Vif
p10212
atp10213
Rp10214
(dp10215
g16
VIN
p10216
sbag5
(g6
g7
(lp10217
g5
(g6
g7
(lp10218
g5
(g6
g7
(lp10219
Vour
p10220
atp10221
Rp10222
(dp10223
g16
VPRP$
p10224
sbag5
(g6
g7
(lp10225
Vmethod
p10226
atp10227
Rp10228
(dp10229
g16
VNN
p10230
sbatp10231
Rp10232
(dp10233
g16
VNP
p10234
sbag5
(g6
g7
(lp10235
g5
(g6
g7
(lp10236
Vis
p10237
atp10238
Rp10239
(dp10240
g16
VVBZ
p10241
sbag5
(g6
g7
(lp10242
g5
(g6
g7
(lp10243
Vapplied
p10244
atp10245
Rp10246
(dp10247
g16
VVBN
p10248
sbag5
(g6
g7
(lp10249
g5
(g6
g7
(lp10250
Vto
p10251
atp10252
Rp10253
(dp10254
g16
VTO
p10255
sbag5
(g6
g7
(lp10256
g5
(g6
g7
(lp10257
g5
(g6
g7
(lp10258
g5
(g6
g7
(lp10259
g5
(g6
g7
(lp10260
Vshorter
p10261
atp10262
Rp10263
(dp10264
g16
VJJR
p10265
sbatp10266
Rp10267
(dp10268
g16
VADJP
p10269
sbag5
(g6
g7
(lp10270
Vand
p10271
atp10272
Rp10273
(dp10274
g16
VCC
p10275
sbag5
(g6
g7
(lp10276
g5
(g6
g7
(lp10277
Vmore
p10278
atp10279
Rp10280
(dp10281
g16
VRBR
p10282
sbag5
(g6
g7
(lp10283
Vfrequent
p10284
atp10285
Rp10286
(dp10287
g16
VJJ
p10288
sbatp10289
Rp10290
(dp10291
g16
VADJP
p10292
sbatp10293
Rp10294
(dp10295
g16
VADJP
p10296
sbag5
(g6
g7
(lp10297
Vqueries
p10298
atp10299
Rp10300
(dp10301
g16
VNNS
p10302
sbatp10303
Rp10304
(dp10305
g16
VNP
p10306
sbag5
(g6
g7
(lp10307
g5
(g6
g7
(lp10308
V-LRB-
p10309
atp10310
Rp10311
(dp10312
g16
V-LRB-
p10313
sbag5
(g6
g7
(lp10314
g5
(g6
g7
(lp10315
Vas
p10316
atp10317
Rp10318
(dp10319
g16
VRB
p10320
sbag5
(g6
g7
(lp10321
Vopposed
p10322
atp10323
Rp10324
(dp10325
g16
VJJ
p10326
sbag5
(g6
g7
(lp10327
g5
(g6
g7
(lp10328
Vto
p10329
atp10330
Rp10331
(dp10332
g16
VTO
p10333
sbag5
(g6
g7
(lp10334
g5
(g6
g7
(lp10335
g5
(g6
g7
(lp10336
g5
(g6
g7
(lp10337
g2055
atp10338
Rp10339
(dp10340
g16
VNNP
p10341
sbag5
(g6
g7
(lp10342
g2061
atp10343
Rp10344
(dp10345
g16
VPOS
p10346
sbatp10347
Rp10348
(dp10349
g16
VNP
p10350
sbag5
(g6
g7
(lp10351
V\u005c
p10352
atp10353
Rp10354
(dp10355
g16
VJJ
p10356
sbag5
(g6
g7
(lp10357
Vu201d
p10358
atp10359
Rp10360
(dp10361
g16
VNNS
p10362
sbag5
(g6
g7
(lp10363
g2061
atp10364
Rp10365
(dp10366
g16
VPOS
p10367
sbatp10368
Rp10369
(dp10370
g16
VNP
p10371
sbag5
(g6
g7
(lp10372
g5
(g6
g7
(lp10373
Vhard
p10374
atp10375
Rp10376
(dp10377
g16
VJJ
p10378
sbatp10379
Rp10380
(dp10381
g16
VADJP
p10382
sbag5
(g6
g7
(lp10383
g2055
atp10384
Rp10385
(dp10386
g16
VNNP
p10387
sbag5
(g6
g7
(lp10388
g2061
atp10389
Rp10390
(dp10391
g16
VPOS
p10392
sbag5
(g6
g7
(lp10393
V\u005c
p10394
atp10395
Rp10396
(dp10397
g16
VCD
p10398
sbag5
(g6
g7
(lp10399
g5
(g6
g7
(lp10400
Vu201d
p10401
atp10402
Rp10403
(dp10404
g16
VNNP
p10405
sbag5
(g6
g7
(lp10406
g2061
atp10407
Rp10408
(dp10409
g16
VPOS
p10410
sbatp10411
Rp10412
(dp10413
g16
VNP
p10414
sbag5
(g6
g7
(lp10415
Vdataset
p10416
atp10417
Rp10418
(dp10419
g16
VNN
p10420
sbatp10421
Rp10422
(dp10423
g16
VNP
p10424
sbatp10425
Rp10426
(dp10427
g16
VPP
p10428
sbatp10429
Rp10430
(dp10431
g16
VADJP
p10432
sbag5
(g6
g7
(lp10433
V-RRB-
p10434
atp10435
Rp10436
(dp10437
g16
V-RRB-
p10438
sbatp10439
Rp10440
(dp10441
g16
VPRN
p10442
sbatp10443
Rp10444
(dp10445
g16
VNP
p10446
sbatp10447
Rp10448
(dp10449
g16
VPP
p10450
sbatp10451
Rp10452
(dp10453
g16
VVP
p10454
sbatp10455
Rp10456
(dp10457
g16
VVP
p10458
sbatp10459
Rp10460
(dp10461
g16
g260
sbatp10462
Rp10463
(dp10464
g16
VSBAR
p10465
sbag5
(g6
g7
(lp10466
g46
atp10467
Rp10468
(dp10469
g16
g46
sbag5
(g6
g7
(lp10470
g5
(g6
g7
(lp10471
Vit
p10472
atp10473
Rp10474
(dp10475
g16
VPRP
p10476
sbatp10477
Rp10478
(dp10479
g16
VNP
p10480
sbag5
(g6
g7
(lp10481
g5
(g6
g7
(lp10482
Vtends
p10483
atp10484
Rp10485
(dp10486
g16
VVBZ
p10487
sbag5
(g6
g7
(lp10488
g5
(g6
g7
(lp10489
g5
(g6
g7
(lp10490
Vto
p10491
atp10492
Rp10493
(dp10494
g16
VTO
p10495
sbag5
(g6
g7
(lp10496
g5
(g6
g7
(lp10497
Vsuggest
p10498
atp10499
Rp10500
(dp10501
g16
VVB
p10502
sbag5
(g6
g7
(lp10503
g5
(g6
g7
(lp10504
Vfrequent
p10505
atp10506
Rp10507
(dp10508
g16
VJJ
p10509
sbag5
(g6
g7
(lp10510
Vwords
p10511
atp10512
Rp10513
(dp10514
g16
VNNS
p10515
sbatp10516
Rp10517
(dp10518
g16
VNP
p10519
sbag5
(g6
g7
(lp10520
g5
(g6
g7
(lp10521
Vas
p10522
atp10523
Rp10524
(dp10525
g16
VIN
p10526
sbag5
(g6
g7
(lp10527
g5
(g6
g7
(lp10528
g5
(g6
g7
(lp10529
Vfalse-positive
p10530
atp10531
Rp10532
(dp10533
g16
VJJ
p10534
sbag5
(g6
g7
(lp10535
Vcorrections
p10536
atp10537
Rp10538
(dp10539
g16
VNNS
p10540
sbatp10541
Rp10542
(dp10543
g16
VNP
p10544
sbag5
(g6
g7
(lp10545
g5
(g6
g7
(lp10546
V-LRB-
p10547
atp10548
Rp10549
(dp10550
g16
V-LRB-
p10551
sbag5
(g6
g7
(lp10552
g5
(g6
g7
(lp10553
Vfor
p10554
atp10555
Rp10556
(dp10557
g16
VIN
p10558
sbag5
(g6
g7
(lp10559
g5
(g6
g7
(lp10560
Vexample
p10561
atp10562
Rp10563
(dp10564
g16
VNN
p10565
sbatp10566
Rp10567
(dp10568
g16
VNP
p10569
sbatp10570
Rp10571
(dp10572
g16
VPP
p10573
sbag5
(g6
g7
(lp10574
g46
atp10575
Rp10576
(dp10577
g16
g46
sbag5
(g6
g7
(lp10578
g5
(g6
g7
(lp10579
g5
(g6
g7
(lp10580
Vgrid
p10581
atp10582
Rp10583
(dp10584
g16
VNN
p10585
sbatp10586
Rp10587
(dp10588
g16
VNP
p10589
sbag5
(g6
g7
(lp10590
g5
(g6
g7
(lp10591
g5
(g6
g7
(lp10592
g5
(g6
g7
(lp10593
Vis
p10594
atp10595
Rp10596
(dp10597
g16
VVBZ
p10598
sbag5
(g6
g7
(lp10599
g5
(g6
g7
(lp10600
Vcorrected
p10601
atp10602
Rp10603
(dp10604
g16
VVBN
p10605
sbag5
(g6
g7
(lp10606
g5
(g6
g7
(lp10607
Vto
p10608
atp10609
Rp10610
(dp10611
g16
VTO
p10612
sbag5
(g6
g7
(lp10613
g5
(g6
g7
(lp10614
g5
(g6
g7
(lp10615
g5
(g6
g7
(lp10616
g5
(g6
g7
(lp10617
Vcreed
p10618
atp10619
Rp10620
(dp10621
g16
VNNP
p10622
sbag5
(g6
g7
(lp10623
g2055
atp10624
Rp10625
(dp10626
g16
VNNP
p10627
sbag5
(g6
g7
(lp10628
g2061
atp10629
Rp10630
(dp10631
g16
VPOS
p10632
sbatp10633
Rp10634
(dp10635
g16
VNP
p10636
sbag5
(g6
g7
(lp10637
V\u005c
p10638
atp10639
Rp10640
(dp10641
g16
VJJ
p10642
sbag5
(g6
g7
(lp10643
Vu2013
p10644
atp10645
Rp10646
(dp10647
g16
VNNS
p10648
sbag5
(g6
g7
(lp10649
g2061
atp10650
Rp10651
(dp10652
g16
VPOS
p10653
sbatp10654
Rp10655
(dp10656
g16
VNP
p10657
sbag5
(g6
g7
(lp10658
VAssassin
p10659
atp10660
Rp10661
(dp10662
g16
VNNP
p10663
sbag5
(g6
g7
(lp10664
g2055
atp10665
Rp10666
(dp10667
g16
VNNP
p10668
sbag5
(g6
g7
(lp10669
g2061
atp10670
Rp10671
(dp10672
g16
V''
p10673
sbatp10674
Rp10675
(dp10676
g16
VNP
p10677
sbag5
(g6
g7
(lp10678
g5
(g6
g7
(lp10679
g5
(g6
g7
(lp10680
g5
(g6
g7
(lp10681
g5
(g6
g7
(lp10682
V\u005c
p10683
atp10684
Rp10685
(dp10686
g16
VNNP
p10687
sbag5
(g6
g7
(lp10688
Vu2019
p10689
atp10690
Rp10691
(dp10692
g16
VNNP
p10693
sbag5
(g6
g7
(lp10694
g2061
atp10695
Rp10696
(dp10697
g16
VPOS
p10698
sbatp10699
Rp10700
(dp10701
g16
VNP
p10702
sbag5
(g6
g7
(lp10703
Vs
p10704
atp10705
Rp10706
(dp10707
g16
VNNP
p10708
sbag5
(g6
g7
(lp10709
VCreed
p10710
atp10711
Rp10712
(dp10713
g16
VNNP
p10714
sbatp10715
Rp10716
(dp10717
g16
VNP
p10718
sbag5
(g6
g7
(lp10719
g5
(g6
g7
(lp10720
Vis
p10721
atp10722
Rp10723
(dp10724
g16
VVBZ
p10725
sbag5
(g6
g7
(lp10726
g5
(g6
g7
(lp10727
Vpopular
p10728
atp10729
Rp10730
(dp10731
g16
VJJ
p10732
sbag5
(g6
g7
(lp10733
Vvideo
p10734
atp10735
Rp10736
(dp10737
g16
VNN
p10738
sbag5
(g6
g7
(lp10739
Vgame
p10740
atp10741
Rp10742
(dp10743
g16
VNN
p10744
sbatp10745
Rp10746
(dp10747
g16
VNP
p10748
sbatp10749
Rp10750
(dp10751
g16
VVP
p10752
sbatp10753
Rp10754
(dp10755
g16
g260
sbatp10756
Rp10757
(dp10758
g16
VSBAR
p10759
sbatp10760
Rp10761
(dp10762
g16
VNP
p10763
sbatp10764
Rp10765
(dp10766
g16
VPP
p10767
sbatp10768
Rp10769
(dp10770
g16
VVP
p10771
sbatp10772
Rp10773
(dp10774
g16
VVP
p10775
sbatp10776
Rp10777
(dp10778
g16
g260
sbatp10779
Rp10780
(dp10781
g16
VSBAR
p10782
sbatp10783
Rp10784
(dp10785
g16
VNP
p10786
sbatp10787
Rp10788
(dp10789
g16
VPRN
p10790
sbatp10791
Rp10792
(dp10793
g16
VNP
p10794
sbatp10795
Rp10796
(dp10797
g16
VPP
p10798
sbatp10799
Rp10800
(dp10801
g16
VVP
p10802
sbatp10803
Rp10804
(dp10805
g16
VVP
p10806
sbatp10807
Rp10808
(dp10809
g16
g260
sbatp10810
Rp10811
(dp10812
g16
VVP
p10813
sbatp10814
Rp10815
(dp10816
g16
g260
sbatp10817
Rp10818
(dp10819
g16
VROOT
p10820
sbasg548
(icmyPackage
CorE
p10821
(dp10822
g551
(lp10823
(I0
I15
tp10824
a(I0
I65
tp10825
asg555
g5
(g6
g7
(lp10826
g10324
ag10426
ag10436
ag10468
ag10478
ag10811
atp10827
Rp10828
(dp10829
g16
g566
sbsbsg556
(icmyPackage
CorE
p10830
(dp10831
g551
(lp10832
(I0
I3
tp10833
a(I0
I13
tp10834
asg555
g5
(g6
g7
(lp10835
g10232
ag10239
ag10246
ag10253
ag10304
ag10311
atp10836
Rp10837
(dp10838
g16
g566
sbsbsg567
g4209
sg596
(lp10839
(isxpPackage
sxpSent
p10840
(dp10841
g600
(lp10842
I22
aI23
asg602
VHowever, if our method is applied to shorter and more frequent queries (as opposed to u'\u005cu201d' hard u'\u005cu201d' dataset), it tends to suggest frequent words as false-positive corrections (for example, grid is corrected to creed u'\u005cu2013' Assassin u'\u005cu2019' s Creed is popular video game
p10843
sg604
I12
sg584
I97
sg605
I44
sbasba(icmyPackage
CELink
p10844
(dp10845
g3
(lp10846
g10828
asg548
(icmyPackage
CorE
p10847
(dp10848
g551
(lp10849
(I0
I23
tp10850
a(I0
I49
tp10851
asg555
g5
(g6
g7
(lp10852
g10542
ag10549
ag10571
ag10576
ag10587
ag10596
ag10603
ag10610
ag10675
ag10716
ag10723
ag10730
ag10736
atp10853
Rp10854
(dp10855
g16
g566
sbsbsg556
(icmyPackage
CorE
p10856
(dp10857
g551
(lp10858
(I0
I0
tp10859
a(I0
I21
tp10860
asg555
g5
(g6
g7
(lp10861
g10324
ag10426
ag10436
ag10468
ag10478
ag10485
ag10493
ag10500
ag10517
atp10862
Rp10863
(dp10864
g16
g566
sbsbsg567
g4209
sg596
(lp10865
g10840
asba.