(lp0
(icmyPackage
CELink
p1
(dp2
S'PTreelst'
p3
(lp4
ccopy_reg
_reconstructor
p5
(cnltk.tree
Tree
p6
c__builtin__
list
p7
(lp8
g5
(g6
g7
(lp9
g5
(g6
g7
(lp10
g5
(g6
g7
(lp11
VWe
p12
atp13
Rp14
(dp15
S'_label'
p16
VPRP
p17
sbatp18
Rp19
(dp20
g16
VNP
p21
sbag5
(g6
g7
(lp22
g5
(g6
g7
(lp23
g5
(g6
g7
(lp24
Vthen
p25
atp26
Rp27
(dp28
g16
VRB
p29
sbatp30
Rp31
(dp32
g16
VADVP
p33
sbag5
(g6
g7
(lp34
Vdevelop
p35
atp36
Rp37
(dp38
g16
VVBP
p39
sbag5
(g6
g7
(lp40
g5
(g6
g7
(lp41
Va
p42
atp43
Rp44
(dp45
g16
VDT
p46
sbag5
(g6
g7
(lp47
Vsupervised
p48
atp49
Rp50
(dp51
g16
VJJ
p52
sbag5
(g6
g7
(lp53
VSRL
p54
atp55
Rp56
(dp57
g16
VNNP
p58
sbag5
(g6
g7
(lp59
Vmodel
p60
atp61
Rp62
(dp63
g16
VNN
p64
sbatp65
Rp66
(dp67
g16
VNP
p68
sbag5
(g6
g7
(lp69
g5
(g6
g7
(lp70
Vby
p71
atp72
Rp73
(dp74
g16
VIN
p75
sbag5
(g6
g7
(lp76
g5
(g6
g7
(lp77
g5
(g6
g7
(lp78
Vleveraging
p79
atp80
Rp81
(dp82
g16
VVBG
p83
sbag5
(g6
g7
(lp84
g5
(g6
g7
(lp85
g5
(g6
g7
(lp86
Vmorphological
p87
atp88
Rp89
(dp90
g16
VJJ
p91
sbag5
(g6
g7
(lp92
Vfeatures
p93
atp94
Rp95
(dp96
g16
VNNS
p97
sbatp98
Rp99
(dp100
g16
VNP
p101
sbag5
(g6
g7
(lp102
g5
(g6
g7
(lp103
Vof
p104
atp105
Rp106
(dp107
g16
VIN
p108
sbag5
(g6
g7
(lp109
g5
(g6
g7
(lp110
VKorean
p111
atp112
Rp113
(dp114
g16
VNNP
p115
sbatp116
Rp117
(dp118
g16
VNP
p119
sbatp120
Rp121
(dp122
g16
VPP
p123
sbag5
(g6
g7
(lp124
g5
(g6
g7
(lp125
g5
(g6
g7
(lp126
Vthat
p127
atp128
Rp129
(dp130
g16
VWDT
p131
sbatp132
Rp133
(dp134
g16
VWHNP
p135
sbag5
(g6
g7
(lp136
g5
(g6
g7
(lp137
g5
(g6
g7
(lp138
Vtend
p139
atp140
Rp141
(dp142
g16
VVBP
p143
sbag5
(g6
g7
(lp144
g5
(g6
g7
(lp145
g5
(g6
g7
(lp146
Vto
p147
atp148
Rp149
(dp150
g16
VTO
p151
sbag5
(g6
g7
(lp152
g5
(g6
g7
(lp153
Vcorrespond
p154
atp155
Rp156
(dp157
g16
VVB
p158
sbag5
(g6
g7
(lp159
g5
(g6
g7
(lp160
Vwith
p161
atp162
Rp163
(dp164
g16
VIN
p165
sbag5
(g6
g7
(lp166
g5
(g6
g7
(lp167
Vsemantic
p168
atp169
Rp170
(dp171
g16
VJJ
p172
sbag5
(g6
g7
(lp173
Vroles
p174
atp175
Rp176
(dp177
g16
VNNS
p178
sbatp179
Rp180
(dp181
g16
VNP
p182
sbatp183
Rp184
(dp185
g16
VPP
p186
sbatp187
Rp188
(dp189
g16
VVP
p190
sbatp191
Rp192
(dp193
g16
VVP
p194
sbatp195
Rp196
(dp197
g16
VS
p198
sbatp199
Rp200
(dp201
g16
VVP
p202
sbatp203
Rp204
(dp205
g16
g198
sbatp206
Rp207
(dp208
g16
VSBAR
p209
sbatp210
Rp211
(dp212
g16
VNP
p213
sbatp214
Rp215
(dp216
g16
VVP
p217
sbatp218
Rp219
(dp220
g16
g198
sbatp221
Rp222
(dp223
g16
VPP
p224
sbatp225
Rp226
(dp227
g16
VVP
p228
sbatp229
Rp230
(dp231
g16
g198
sbatp232
Rp233
(dp234
g16
VROOT
p235
sbasS'cause'
p236
(icmyPackage
CorE
p237
(dp238
S'span'
p239
(lp240
(I0
I8
tp241
a(I0
I19
tp242
asS'PTree'
p243
g219
sbsS'effect'
p244
(icmyPackage
CorE
p245
(dp246
g239
(lp247
(I0
I0
tp248
a(I0
I6
tp249
asg243
g5
(g6
g7
(lp250
g19
ag31
ag37
ag66
atp251
Rp252
(dp253
g16
S'ROOT'
p254
sbsbsS'pt'
p255
(icmyPackage
pattern
p256
(dp257
S'pfreq'
p258
I0
sS'moresent'
p259
I0
sS'main_token'
p260
(lp261
(lp262
(lp263
S'by'
p264
aS'through'
p265
aaasS'ptype'
p266
(lp267
I2
aI1
aI1
asS'cases'
p268
(lp269
S'The similar relation can be detected by analyzing the contents of nodes based on such approaches as the Latent Semantic Analysis (LSA) and the Vector Space Model (VSM)'
p270
asS'id'
p271
I68
sS'constraints'
p272
(lp273
(lp274
S'&R@Complete@'
p275
aa(lp276
S'&V-ing@C@'
p277
aasbsS'sInfo'
p278
(lp279
(isxpPackage
sxpSent
p280
(dp281
S'sysCEidlst'
p282
(lp283
I0
asS'sentence_text'
p284
VWe then develop a supervised SRL model by leveraging morphological features of Korean that tend to correspond with semantic roles
p285
sS'id_sec'
p286
I1
sg271
I2
sS'id_para'
p287
I0
sbasba(icmyPackage
CELink
p288
(dp289
g3
(lp290
g5
(g6
g7
(lp291
g5
(g6
g7
(lp292
g5
(g6
g7
(lp293
g5
(g6
g7
(lp294
VOur
p295
atp296
Rp297
(dp298
g16
VPRP$
p299
sbag5
(g6
g7
(lp300
Vmodel
p301
atp302
Rp303
(dp304
g16
VNN
p305
sbatp306
Rp307
(dp308
g16
VNP
p309
sbag5
(g6
g7
(lp310
g5
(g6
g7
(lp311
g5
(g6
g7
(lp312
Valso
p313
atp314
Rp315
(dp316
g16
VRB
p317
sbatp318
Rp319
(dp320
g16
VADVP
p321
sbag5
(g6
g7
(lp322
Vemploys
p323
atp324
Rp325
(dp326
g16
VVBZ
p327
sbag5
(g6
g7
(lp328
g5
(g6
g7
(lp329
g5
(g6
g7
(lp330
g42
atp331
Rp332
(dp333
g16
VDT
p334
sbag5
(g6
g7
(lp335
Vvariety
p336
atp337
Rp338
(dp339
g16
VNN
p340
sbatp341
Rp342
(dp343
g16
VNP
p344
sbag5
(g6
g7
(lp345
g5
(g6
g7
(lp346
Vof
p347
atp348
Rp349
(dp350
g16
VIN
p351
sbag5
(g6
g7
(lp352
g5
(g6
g7
(lp353
g5
(g6
g7
(lp354
Vlatent
p355
atp356
Rp357
(dp358
g16
VNN
p359
sbag5
(g6
g7
(lp360
Vmorpheme
p361
atp362
Rp363
(dp364
g16
VNN
p365
sbag5
(g6
g7
(lp366
Vrepresentations
p367
atp368
Rp369
(dp370
g16
VNNS
p371
sbatp372
Rp373
(dp374
g16
VNP
p375
sbag5
(g6
g7
(lp376
g5
(g6
g7
(lp377
Vinduced
p378
atp379
Rp380
(dp381
g16
VVBN
p382
sbag5
(g6
g7
(lp383
g5
(g6
g7
(lp384
Vfrom
p385
atp386
Rp387
(dp388
g16
VIN
p389
sbag5
(g6
g7
(lp390
g5
(g6
g7
(lp391
g5
(g6
g7
(lp392
g42
atp393
Rp394
(dp395
g16
VDT
p396
sbag5
(g6
g7
(lp397
Vlarger
p398
atp399
Rp400
(dp401
g16
VJJR
p402
sbag5
(g6
g7
(lp403
Vbody
p404
atp405
Rp406
(dp407
g16
VNN
p408
sbatp409
Rp410
(dp411
g16
VNP
p412
sbag5
(g6
g7
(lp413
g5
(g6
g7
(lp414
Vof
p415
atp416
Rp417
(dp418
g16
VIN
p419
sbag5
(g6
g7
(lp420
g5
(g6
g7
(lp421
Vunannotated
p422
atp423
Rp424
(dp425
g16
VJJ
p426
sbag5
(g6
g7
(lp427
VKorean
p428
atp429
Rp430
(dp431
g16
VJJ
p432
sbag5
(g6
g7
(lp433
Vtext
p434
atp435
Rp436
(dp437
g16
VNN
p438
sbatp439
Rp440
(dp441
g16
VNP
p442
sbatp443
Rp444
(dp445
g16
VPP
p446
sbatp447
Rp448
(dp449
g16
VNP
p450
sbatp451
Rp452
(dp453
g16
VPP
p454
sbatp455
Rp456
(dp457
g16
VVP
p458
sbatp459
Rp460
(dp461
g16
VNP
p462
sbatp463
Rp464
(dp465
g16
VPP
p466
sbatp467
Rp468
(dp469
g16
VNP
p470
sbatp471
Rp472
(dp473
g16
VVP
p474
sbatp475
Rp476
(dp477
g16
g198
sbatp478
Rp479
(dp480
g16
VROOT
p481
sbag5
(g6
g7
(lp482
g5
(g6
g7
(lp483
g5
(g6
g7
(lp484
g5
(g6
g7
(lp485
VThese
p486
atp487
Rp488
(dp489
g16
VDT
p490
sbag5
(g6
g7
(lp491
Velements
p492
atp493
Rp494
(dp495
g16
VNNS
p496
sbatp497
Rp498
(dp499
g16
VNP
p500
sbag5
(g6
g7
(lp501
g5
(g6
g7
(lp502
Vlead
p503
atp504
Rp505
(dp506
g16
VVBP
p507
sbag5
(g6
g7
(lp508
g5
(g6
g7
(lp509
Vto
p510
atp511
Rp512
(dp513
g16
VTO
p514
sbag5
(g6
g7
(lp515
g5
(g6
g7
(lp516
g5
(g6
g7
(lp517
Vstate-of-the-art
p518
atp519
Rp520
(dp521
g16
VJJ
p522
sbag5
(g6
g7
(lp523
Vperformance
p524
atp525
Rp526
(dp527
g16
VNN
p528
sbatp529
Rp530
(dp531
g16
VNP
p532
sbag5
(g6
g7
(lp533
g5
(g6
g7
(lp534
Vof
p535
atp536
Rp537
(dp538
g16
VIN
p539
sbag5
(g6
g7
(lp540
g5
(g6
g7
(lp541
g5
(g6
g7
(lp542
V81.07
p543
atp544
Rp545
(dp546
g16
VCD
p547
sbag5
(g6
g7
(lp548
V%
p549
atp550
Rp551
(dp552
g16
VNN
p553
sbatp554
Rp555
(dp556
g16
VNP
p557
sbag5
(g6
g7
(lp558
g5
(g6
g7
(lp559
Vlabeled
p560
atp561
Rp562
(dp563
g16
VVBN
p564
sbag5
(g6
g7
(lp565
g5
(g6
g7
(lp566
g5
(g6
g7
(lp567
VF1
p568
atp569
Rp570
(dp571
g16
VNNP
p572
sbatp573
Rp574
(dp575
g16
VNP
p576
sbatp577
Rp578
(dp579
g16
g198
sbag5
(g6
g7
(lp580
V,
p581
atp582
Rp583
(dp584
g16
g581
sbag5
(g6
g7
(lp585
g5
(g6
g7
(lp586
g5
(g6
g7
(lp587
Vrepresenting
p588
atp589
Rp590
(dp591
g16
VVBG
p592
sbag5
(g6
g7
(lp593
g5
(g6
g7
(lp594
g5
(g6
g7
(lp595
g5
(g6
g7
(lp596
Vthe
p597
atp598
Rp599
(dp600
g16
VDT
p601
sbag5
(g6
g7
(lp602
Vbest
p603
atp604
Rp605
(dp606
g16
VJJS
p607
sbag5
(g6
g7
(lp608
VSRL
p609
atp610
Rp611
(dp612
g16
VNNP
p613
sbag5
(g6
g7
(lp614
Vperformance
p615
atp616
Rp617
(dp618
g16
VNN
p619
sbatp620
Rp621
(dp622
g16
VNP
p623
sbag5
(g6
g7
(lp624
g5
(g6
g7
(lp625
Vreported
p626
atp627
Rp628
(dp629
g16
VVBD
p630
sbag5
(g6
g7
(lp631
g5
(g6
g7
(lp632
Vto
p633
atp634
Rp635
(dp636
g16
VTO
p637
sbag5
(g6
g7
(lp638
g5
(g6
g7
(lp639
Vdate
p640
atp641
Rp642
(dp643
g16
VNN
p644
sbatp645
Rp646
(dp647
g16
VNP
p648
sbatp649
Rp650
(dp651
g16
VPP
p652
sbag5
(g6
g7
(lp653
g5
(g6
g7
(lp654
Vfor
p655
atp656
Rp657
(dp658
g16
VIN
p659
sbag5
(g6
g7
(lp660
g5
(g6
g7
(lp661
Van
p662
atp663
Rp664
(dp665
g16
VDT
p666
sbag5
(g6
g7
(lp667
Vagglutinative
p668
atp669
Rp670
(dp671
g16
VJJ
p672
sbag5
(g6
g7
(lp673
Vlanguage
p674
atp675
Rp676
(dp677
g16
VNN
p678
sbatp679
Rp680
(dp681
g16
VNP
p682
sbatp683
Rp684
(dp685
g16
VPP
p686
sbatp687
Rp688
(dp689
g16
VVP
p690
sbatp691
Rp692
(dp693
g16
g198
sbatp694
Rp695
(dp696
g16
VSBAR
p697
sbatp698
Rp699
(dp700
g16
VVP
p701
sbatp702
Rp703
(dp704
g16
g198
sbatp705
Rp706
(dp707
g16
VVP
p708
sbatp709
Rp710
(dp711
g16
VNP
p712
sbatp713
Rp714
(dp715
g16
VPP
p716
sbatp717
Rp718
(dp719
g16
VNP
p720
sbatp721
Rp722
(dp723
g16
VPP
p724
sbatp725
Rp726
(dp727
g16
VVP
p728
sbatp729
Rp730
(dp731
g16
g198
sbatp732
Rp733
(dp734
g16
VROOT
p735
sbasg236
(icmyPackage
CorE
p736
(dp737
g239
(lp738
(I0
I0
tp739
a(I0
I18
tp740
asg243
g479
sbsg244
(icmyPackage
CorE
p741
(dp742
g239
(lp743
(I1
I4
tp744
a(I1
I23
tp745
asg243
g718
sbsg255
(icmyPackage
pattern
p746
(dp747
g258
I0
sg259
I1
sg260
(lp748
(lp749
(lp750
S'lead'
p751
aS'leads'
p752
aS'led'
p753
aaS'to'
p754
aasg266
(lp755
I4
aI1
aI1
asg268
(lp756
S"Representation and its summarization are separated. This leads to the separation of author's meaning, summarizer's understanding, and readers' understanding."
p757
asg271
I95
sg272
(lp758
(lp759
S'&C'
p760
aS'(,/./;/--)'
p761
aS'&this'
p762
aS'(&adj)'
p763
aS'(&N)'
p764
aS'(&CAN/have/has/had)'
p765
aS'(&ADV)'
p766
aa(lp767
S'&NP@R@'
p768
aasbsg278
(lp769
(isxpPackage
sxpSent
p770
(dp771
g282
(lp772
I1
asg284
VOur model also employs a variety of latent morpheme representations induced from a larger body of unannotated Korean text
p773
sg286
I1
sg271
I3
sg287
I0
sba(isxpPackage
sxpSent
p774
(dp775
g282
(lp776
I1
asg284
VThese elements lead to state-of-the-art performance of 81.07% labeled F1, representing the best SRL performance reported to date for an agglutinative language
p777
sg286
I1
sg271
I4
sg287
I0
sbasba(icmyPackage
CELink
p778
(dp779
g3
(lp780
g5
(g6
g7
(lp781
g5
(g6
g7
(lp782
g5
(g6
g7
(lp783
g5
(g6
g7
(lp784
VEver
p785
atp786
Rp787
(dp788
g16
VRB
p789
sbag5
(g6
g7
(lp790
Vsince
p791
atp792
Rp793
(dp794
g16
VIN
p795
sbag5
(g6
g7
(lp796
g5
(g6
g7
(lp797
g5
(g6
g7
(lp798
VGildea
p799
atp800
Rp801
(dp802
g16
VNNP
p803
sbag5
(g6
g7
(lp804
Vand
p805
atp806
Rp807
(dp808
g16
VCC
p809
sbag5
(g6
g7
(lp810
VJurafsky
p811
atp812
Rp813
(dp814
g16
VNNP
p815
sbatp816
Rp817
(dp818
g16
VNP
p819
sbag5
(g6
g7
(lp820
g5
(g6
g7
(lp821
V-LSB-
p822
atp823
Rp824
(dp825
g16
VVBZ
p826
sbag5
(g6
g7
(lp827
g5
(g6
g7
(lp828
V9
p829
atp830
Rp831
(dp832
g16
VCD
p833
sbag5
(g6
g7
(lp834
V-RSB-
p835
atp836
Rp837
(dp838
g16
VNNS
p839
sbatp840
Rp841
(dp842
g16
VNP
p843
sbatp844
Rp845
(dp846
g16
VVP
p847
sbatp848
Rp849
(dp850
g16
g198
sbatp851
Rp852
(dp853
g16
VSBAR
p854
sbag5
(g6
g7
(lp855
g581
atp856
Rp857
(dp858
g16
g581
sbag5
(g6
g7
(lp859
g5
(g6
g7
(lp860
VSRL
p861
atp862
Rp863
(dp864
g16
VNNP
p865
sbatp866
Rp867
(dp868
g16
VNP
p869
sbag5
(g6
g7
(lp870
g5
(g6
g7
(lp871
Vhas
p872
atp873
Rp874
(dp875
g16
VVBZ
p876
sbag5
(g6
g7
(lp877
g5
(g6
g7
(lp878
Vbecome
p879
atp880
Rp881
(dp882
g16
VVBN
p883
sbag5
(g6
g7
(lp884
g5
(g6
g7
(lp885
g5
(g6
g7
(lp886
Van
p887
atp888
Rp889
(dp890
g16
VDT
p891
sbag5
(g6
g7
(lp892
Vimportant
p893
atp894
Rp895
(dp896
g16
VJJ
p897
sbag5
(g6
g7
(lp898
Vtechnology
p899
atp900
Rp901
(dp902
g16
VNN
p903
sbatp904
Rp905
(dp906
g16
VNP
p907
sbag5
(g6
g7
(lp908
g5
(g6
g7
(lp909
Vused
p910
atp911
Rp912
(dp913
g16
VVBN
p914
sbag5
(g6
g7
(lp915
g5
(g6
g7
(lp916
Vin
p917
atp918
Rp919
(dp920
g16
VIN
p921
sbag5
(g6
g7
(lp922
g5
(g6
g7
(lp923
g5
(g6
g7
(lp924
Vapplications
p925
atp926
Rp927
(dp928
g16
VNNS
p929
sbatp930
Rp931
(dp932
g16
VNP
p933
sbag5
(g6
g7
(lp934
g5
(g6
g7
(lp935
g5
(g6
g7
(lp936
Vrequiring
p937
atp938
Rp939
(dp940
g16
VVBG
p941
sbag5
(g6
g7
(lp942
g5
(g6
g7
(lp943
Vsemantic
p944
atp945
Rp946
(dp947
g16
VJJ
p948
sbag5
(g6
g7
(lp949
Vinterpretation
p950
atp951
Rp952
(dp953
g16
VNN
p954
sbatp955
Rp956
(dp957
g16
VNP
p958
sbatp959
Rp960
(dp961
g16
VVP
p962
sbag5
(g6
g7
(lp963
g581
atp964
Rp965
(dp966
g16
g581
sbag5
(g6
g7
(lp967
g5
(g6
g7
(lp968
Vranging
p969
atp970
Rp971
(dp972
g16
VVBG
p973
sbag5
(g6
g7
(lp974
g5
(g6
g7
(lp975
Vfrom
p976
atp977
Rp978
(dp979
g16
VIN
p980
sbag5
(g6
g7
(lp981
g5
(g6
g7
(lp982
g5
(g6
g7
(lp983
Vinformation
p984
atp985
Rp986
(dp987
g16
VNN
p988
sbag5
(g6
g7
(lp989
Vextraction
p990
atp991
Rp992
(dp993
g16
VNN
p994
sbatp995
Rp996
(dp997
g16
VNP
p998
sbag5
(g6
g7
(lp999
g5
(g6
g7
(lp1000
V-LSB-
p1001
atp1002
Rp1003
(dp1004
g16
VVBG
p1005
sbag5
(g6
g7
(lp1006
g5
(g6
g7
(lp1007
g5
(g6
g7
(lp1008
V8
p1009
atp1010
Rp1011
(dp1012
g16
VCD
p1013
sbag5
(g6
g7
(lp1014
V-RSB-
p1015
atp1016
Rp1017
(dp1018
g16
VCD
p1019
sbatp1020
Rp1021
(dp1022
g16
VQP
p1023
sbatp1024
Rp1025
(dp1026
g16
VNP
p1027
sbatp1028
Rp1029
(dp1030
g16
VVP
p1031
sbatp1032
Rp1033
(dp1034
g16
VNP
p1035
sbatp1036
Rp1037
(dp1038
g16
VPP
p1039
sbatp1040
Rp1041
(dp1042
g16
VVP
p1043
sbag5
(g6
g7
(lp1044
Vand
p1045
atp1046
Rp1047
(dp1048
g16
VCC
p1049
sbag5
(g6
g7
(lp1050
g5
(g6
g7
(lp1051
Vquestion
p1052
atp1053
Rp1054
(dp1055
g16
VNN
p1056
sbag5
(g6
g7
(lp1057
g5
(g6
g7
(lp1058
g5
(g6
g7
(lp1059
Vanswering
p1060
atp1061
Rp1062
(dp1063
g16
VVBG
p1064
sbag5
(g6
g7
(lp1065
g5
(g6
g7
(lp1066
g5
(g6
g7
(lp1067
V-LSB-
p1068
atp1069
Rp1070
(dp1071
g16
VCD
p1072
sbag5
(g6
g7
(lp1073
V14
p1074
atp1075
Rp1076
(dp1077
g16
VCD
p1078
sbatp1079
Rp1080
(dp1081
g16
VQP
p1082
sbag5
(g6
g7
(lp1083
V-RSB-
p1084
atp1085
Rp1086
(dp1087
g16
VNNS
p1088
sbatp1089
Rp1090
(dp1091
g16
VNP
p1092
sbatp1093
Rp1094
(dp1095
g16
VVP
p1096
sbatp1097
Rp1098
(dp1099
g16
g198
sbatp1100
Rp1101
(dp1102
g16
VVP
p1103
sbatp1104
Rp1105
(dp1106
g16
VVP
p1107
sbatp1108
Rp1109
(dp1110
g16
VNP
p1111
sbatp1112
Rp1113
(dp1114
g16
VPP
p1115
sbatp1116
Rp1117
(dp1118
g16
VVP
p1119
sbatp1120
Rp1121
(dp1122
g16
VNP
p1123
sbag5
(g6
g7
(lp1124
g581
atp1125
Rp1126
(dp1127
g16
g581
sbag5
(g6
g7
(lp1128
g5
(g6
g7
(lp1129
Vto
p1130
atp1131
Rp1132
(dp1133
g16
VTO
p1134
sbag5
(g6
g7
(lp1135
g5
(g6
g7
(lp1136
g5
(g6
g7
(lp1137
Vpractical
p1138
atp1139
Rp1140
(dp1141
g16
VJJ
p1142
sbag5
(g6
g7
(lp1143
Vproblems
p1144
atp1145
Rp1146
(dp1147
g16
VNNS
p1148
sbatp1149
Rp1150
(dp1151
g16
VNP
p1152
sbag5
(g6
g7
(lp1153
g5
(g6
g7
(lp1154
Vincluding
p1155
atp1156
Rp1157
(dp1158
g16
VVBG
p1159
sbag5
(g6
g7
(lp1160
g5
(g6
g7
(lp1161
g5
(g6
g7
(lp1162
g5
(g6
g7
(lp1163
Vtextual
p1164
atp1165
Rp1166
(dp1167
g16
VJJ
p1168
sbag5
(g6
g7
(lp1169
Ventailment
p1170
atp1171
Rp1172
(dp1173
g16
VNN
p1174
sbatp1175
Rp1176
(dp1177
g16
VNP
p1178
sbag5
(g6
g7
(lp1179
g5
(g6
g7
(lp1180
g5
(g6
g7
(lp1181
V-LSB-
p1182
atp1183
Rp1184
(dp1185
g16
VCD
p1186
sbag5
(g6
g7
(lp1187
V4
p1188
atp1189
Rp1190
(dp1191
g16
VCD
p1192
sbatp1193
Rp1194
(dp1195
g16
VQP
p1196
sbag5
(g6
g7
(lp1197
V-RSB-
p1198
atp1199
Rp1200
(dp1201
g16
VNNS
p1202
sbatp1203
Rp1204
(dp1205
g16
VNP
p1206
sbatp1207
Rp1208
(dp1209
g16
VNP
p1210
sbag5
(g6
g7
(lp1211
Vand
p1212
atp1213
Rp1214
(dp1215
g16
VCC
p1216
sbag5
(g6
g7
(lp1217
g5
(g6
g7
(lp1218
g5
(g6
g7
(lp1219
Vpictorial
p1220
atp1221
Rp1222
(dp1223
g16
VJJ
p1224
sbag5
(g6
g7
(lp1225
Vcommunication
p1226
atp1227
Rp1228
(dp1229
g16
VNN
p1230
sbag5
(g6
g7
(lp1231
Vsystems
p1232
atp1233
Rp1234
(dp1235
g16
VNNS
p1236
sbatp1237
Rp1238
(dp1239
g16
VNP
p1240
sbag5
(g6
g7
(lp1241
g5
(g6
g7
(lp1242
g5
(g6
g7
(lp1243
V-LSB-
p1244
atp1245
Rp1246
(dp1247
g16
VCD
p1248
sbag5
(g6
g7
(lp1249
V10
p1250
atp1251
Rp1252
(dp1253
g16
VCD
p1254
sbatp1255
Rp1256
(dp1257
g16
VQP
p1258
sbag5
(g6
g7
(lp1259
V-RSB-
p1260
atp1261
Rp1262
(dp1263
g16
VNNS
p1264
sbatp1265
Rp1266
(dp1267
g16
VNP
p1268
sbatp1269
Rp1270
(dp1271
g16
VNP
p1272
sbatp1273
Rp1274
(dp1275
g16
VNP
p1276
sbatp1277
Rp1278
(dp1279
g16
VPP
p1280
sbatp1281
Rp1282
(dp1283
g16
VNP
p1284
sbatp1285
Rp1286
(dp1287
g16
VPP
p1288
sbatp1289
Rp1290
(dp1291
g16
VVP
p1292
sbatp1293
Rp1294
(dp1295
g16
VVP
p1296
sbatp1297
Rp1298
(dp1299
g16
g198
sbatp1300
Rp1301
(dp1302
g16
VROOT
p1303
sbasg236
(icmyPackage
CorE
p1304
(dp1305
g239
(lp1306
(I0
I2
tp1307
a(I0
I7
tp1308
asg243
g849
sbsg244
(icmyPackage
CorE
p1309
(dp1310
g239
(lp1311
(I0
I9
tp1312
a(I0
I51
tp1313
asg243
g5
(g6
g7
(lp1314
g867
ag1294
atp1315
Rp1316
(dp1317
g16
g254
sbsbsg255
(icmyPackage
pattern
p1318
(dp1319
g258
I15
sg259
I0
sg260
(lp1320
(lp1321
S'since'
p1322
aa(lp1323
S','
p1324
aasg266
(lp1325
I3
aI1
aI1
asg268
(lp1326
S'But, since the herpes virus does not always show its symptoms, prevention is not fool proof.'
p1327
asg271
I78
sg272
(lp1328
(lp1329
a(lp1330
S'&C@NCTime@'
p1331
aa(lp1332
S'&R@NCTime@'
p1333
aasbsg278
(lp1334
(isxpPackage
sxpSent
p1335
(dp1336
g282
(lp1337
I2
asg284
VEver since Gildea and Jurafsky [ 9 ] , SRL has become an important technology used in applications requiring semantic interpretation, ranging from information extraction [ 8 ] and question answering [ 14 ] , to practical problems including textual entailment [ 4 ] and pictorial communication systems [ 10 ]
p1338
sg286
I2
sg271
I6
sg287
I1
sbasba(icmyPackage
CELink
p1339
(dp1340
g3
(lp1341
g5
(g6
g7
(lp1342
g5
(g6
g7
(lp1343
g5
(g6
g7
(lp1344
g5
(g6
g7
(lp1345
VSRL
p1346
atp1347
Rp1348
(dp1349
g16
VVBP
p1350
sbag5
(g6
g7
(lp1351
g5
(g6
g7
(lp1352
g5
(g6
g7
(lp1353
g5
(g6
g7
(lp1354
g5
(g6
g7
(lp1355
Vsystems
p1356
atp1357
Rp1358
(dp1359
g16
VNNS
p1360
sbatp1361
Rp1362
(dp1363
g16
VNP
p1364
sbag5
(g6
g7
(lp1365
g5
(g6
g7
(lp1366
Vin
p1367
atp1368
Rp1369
(dp1370
g16
VIN
p1371
sbag5
(g6
g7
(lp1372
g5
(g6
g7
(lp1373
Vmany
p1374
atp1375
Rp1376
(dp1377
g16
VJJ
p1378
sbag5
(g6
g7
(lp1379
Vlanguages
p1380
atp1381
Rp1382
(dp1383
g16
VNNS
p1384
sbatp1385
Rp1386
(dp1387
g16
VNP
p1388
sbatp1389
Rp1390
(dp1391
g16
VPP
p1392
sbatp1393
Rp1394
(dp1395
g16
VNP
p1396
sbag5
(g6
g7
(lp1397
g5
(g6
g7
(lp1398
Vhave
p1399
atp1400
Rp1401
(dp1402
g16
VVBP
p1403
sbag5
(g6
g7
(lp1404
g5
(g6
g7
(lp1405
Vbeen
p1406
atp1407
Rp1408
(dp1409
g16
VVBN
p1410
sbag5
(g6
g7
(lp1411
g5
(g6
g7
(lp1412
Vdeveloped
p1413
atp1414
Rp1415
(dp1416
g16
VVBN
p1417
sbag5
(g6
g7
(lp1418
g5
(g6
g7
(lp1419
Vas
p1420
atp1421
Rp1422
(dp1423
g16
VIN
p1424
sbag5
(g6
g7
(lp1425
g5
(g6
g7
(lp1426
g5
(g6
g7
(lp1427
Vthe
p1428
atp1429
Rp1430
(dp1431
g16
VDT
p1432
sbag5
(g6
g7
(lp1433
g5
(g6
g7
(lp1434
Vnecessary
p1435
atp1436
Rp1437
(dp1438
g16
VJJ
p1439
sbag5
(g6
g7
(lp1440
Vlinguistic
p1441
atp1442
Rp1443
(dp1444
g16
VJJ
p1445
sbatp1446
Rp1447
(dp1448
g16
VADJP
p1449
sbag5
(g6
g7
(lp1450
Vresources
p1451
atp1452
Rp1453
(dp1454
g16
VNNS
p1455
sbatp1456
Rp1457
(dp1458
g16
VNP
p1459
sbag5
(g6
g7
(lp1460
g5
(g6
g7
(lp1461
Vbecome
p1462
atp1463
Rp1464
(dp1465
g16
VVBN
p1466
sbag5
(g6
g7
(lp1467
g5
(g6
g7
(lp1468
g5
(g6
g7
(lp1469
Vavailable
p1470
atp1471
Rp1472
(dp1473
g16
VJJ
p1474
sbatp1475
Rp1476
(dp1477
g16
VADJP
p1478
sbatp1479
Rp1480
(dp1481
g16
g198
sbatp1482
Rp1483
(dp1484
g16
VVP
p1485
sbatp1486
Rp1487
(dp1488
g16
VNP
p1489
sbatp1490
Rp1491
(dp1492
g16
VPP
p1493
sbatp1494
Rp1495
(dp1496
g16
VVP
p1497
sbatp1498
Rp1499
(dp1500
g16
VVP
p1501
sbatp1502
Rp1503
(dp1504
g16
VVP
p1505
sbatp1506
Rp1507
(dp1508
g16
g198
sbatp1509
Rp1510
(dp1511
g16
VSBAR
p1512
sbatp1513
Rp1514
(dp1515
g16
VVP
p1516
sbag5
(g6
g7
(lp1517
g5
(g6
g7
(lp1518
g5
(g6
g7
(lp1519
V-LSB-
p1520
atp1521
Rp1522
(dp1523
g16
VNNP
p1524
sbag5
(g6
g7
(lp1525
V18
p1526
atp1527
Rp1528
(dp1529
g16
VCD
p1530
sbag5
(g6
g7
(lp1531
g581
atp1532
Rp1533
(dp1534
g16
g581
sbag5
(g6
g7
(lp1535
V20
p1536
atp1537
Rp1538
(dp1539
g16
VCD
p1540
sbatp1541
Rp1542
(dp1543
g16
VNP
p1544
sbag5
(g6
g7
(lp1545
g581
atp1546
Rp1547
(dp1548
g16
g581
sbag5
(g6
g7
(lp1549
g5
(g6
g7
(lp1550
g5
(g6
g7
(lp1551
V5
p1552
atp1553
Rp1554
(dp1555
g16
VCD
p1556
sbatp1557
Rp1558
(dp1559
g16
VNP
p1560
sbag5
(g6
g7
(lp1561
g581
atp1562
Rp1563
(dp1564
g16
g581
sbag5
(g6
g7
(lp1565
g5
(g6
g7
(lp1566
V12
p1567
atp1568
Rp1569
(dp1570
g16
VCD
p1571
sbag5
(g6
g7
(lp1572
V-RSB-
p1573
atp1574
Rp1575
(dp1576
g16
VNNS
p1577
sbatp1578
Rp1579
(dp1580
g16
VNP
p1581
sbatp1582
Rp1583
(dp1584
g16
VNP
p1585
sbatp1586
Rp1587
(dp1588
g16
VNP
p1589
sbatp1590
Rp1591
(dp1592
g16
VSINV
p1593
sbatp1594
Rp1595
(dp1596
g16
VROOT
p1597
sbag5
(g6
g7
(lp1598
g5
(g6
g7
(lp1599
g5
(g6
g7
(lp1600
g5
(g6
g7
(lp1601
VSeven
p1602
atp1603
Rp1604
(dp1605
g16
VCD
p1606
sbag5
(g6
g7
(lp1607
Vlanguages
p1608
atp1609
Rp1610
(dp1611
g16
VNNS
p1612
sbatp1613
Rp1614
(dp1615
g16
VNP
p1616
sbag5
(g6
g7
(lp1617
g5
(g6
g7
(lp1618
Vwere
p1619
atp1620
Rp1621
(dp1622
g16
VVBD
p1623
sbag5
(g6
g7
(lp1624
g5
(g6
g7
(lp1625
g5
(g6
g7
(lp1626
Vthe
p1627
atp1628
Rp1629
(dp1630
g16
VDT
p1631
sbag5
(g6
g7
(lp1632
Vsubject
p1633
atp1634
Rp1635
(dp1636
g16
VNN
p1637
sbatp1638
Rp1639
(dp1640
g16
VNP
p1641
sbag5
(g6
g7
(lp1642
g5
(g6
g7
(lp1643
Vof
p1644
atp1645
Rp1646
(dp1647
g16
VIN
p1648
sbag5
(g6
g7
(lp1649
g5
(g6
g7
(lp1650
g5
(g6
g7
(lp1651
Vthe
p1652
atp1653
Rp1654
(dp1655
g16
VDT
p1656
sbag5
(g6
g7
(lp1657
VCoNLL-2009
p1658
atp1659
Rp1660
(dp1661
g16
VJJ
p1662
sbag5
(g6
g7
(lp1663
Vshared
p1664
atp1665
Rp1666
(dp1667
g16
VVBN
p1668
sbag5
(g6
g7
(lp1669
Vtask
p1670
atp1671
Rp1672
(dp1673
g16
VNN
p1674
sbatp1675
Rp1676
(dp1677
g16
VNP
p1678
sbag5
(g6
g7
(lp1679
g5
(g6
g7
(lp1680
Vin
p1681
atp1682
Rp1683
(dp1684
g16
VIN
p1685
sbag5
(g6
g7
(lp1686
g5
(g6
g7
(lp1687
g5
(g6
g7
(lp1688
Vsyntactic
p1689
atp1690
Rp1691
(dp1692
g16
VJJ
p1693
sbag5
(g6
g7
(lp1694
Vand
p1695
atp1696
Rp1697
(dp1698
g16
VCC
p1699
sbag5
(g6
g7
(lp1700
Vsemantic
p1701
atp1702
Rp1703
(dp1704
g16
VJJ
p1705
sbatp1706
Rp1707
(dp1708
g16
VADJP
p1709
sbag5
(g6
g7
(lp1710
Vparsing
p1711
atp1712
Rp1713
(dp1714
g16
VJJ
p1715
sbag5
(g6
g7
(lp1716
V-LSB-
p1717
atp1718
Rp1719
(dp1720
g16
VJJ
p1721
sbag5
(g6
g7
(lp1722
V11
p1723
atp1724
Rp1725
(dp1726
g16
VCD
p1727
sbag5
(g6
g7
(lp1728
V-RSB-
p1729
atp1730
Rp1731
(dp1732
g16
VNNS
p1733
sbatp1734
Rp1735
(dp1736
g16
VNP
p1737
sbatp1738
Rp1739
(dp1740
g16
VPP
p1741
sbatp1742
Rp1743
(dp1744
g16
VNP
p1745
sbatp1746
Rp1747
(dp1748
g16
VPP
p1749
sbatp1750
Rp1751
(dp1752
g16
VNP
p1753
sbatp1754
Rp1755
(dp1756
g16
VVP
p1757
sbatp1758
Rp1759
(dp1760
g16
g198
sbatp1761
Rp1762
(dp1763
g16
VROOT
p1764
sbasg236
(icmyPackage
CorE
p1765
(dp1766
g239
(lp1767
(I0
I9
tp1768
a(I1
I16
tp1769
asg243
g5
(g6
g7
(lp1770
g1487
ag1587
ag1614
ag1621
ag1639
ag1646
ag1676
ag1683
ag1707
ag1713
ag1719
ag1725
atp1771
Rp1772
(dp1773
g16
g254
sbsbsg244
(icmyPackage
CorE
p1774
(dp1775
g239
(lp1776
(I0
I0
tp1777
a(I0
I7
tp1778
asg243
g5
(g6
g7
(lp1779
g1348
ag1394
ag1401
ag1408
ag1415
atp1780
Rp1781
(dp1782
g16
g254
sbsbsg255
(icmyPackage
pattern
p1783
(dp1784
g258
I26
sg259
I1
sg260
(lp1785
(lp1786
S'as'
p1787
aasg266
(lp1788
I3
aI1
aI1
asg268
(lp1789
S'You do not need to worry about the operation, as the software is very easy to use.'
p1790
asg271
I80
sg272
(lp1791
(lp1792
S'&R@Complete@'
p1793
aS'(,)'
p1794
aS'(-such/-same/-seem/-regard/-regards/-regarded/-view/-views/-viewed/-denote/-denoted/-denotes)'
p1795
aa(lp1796
S'(-if/-follow/-follows/-&adv)'
p1797
aS'&C@Complete@'
p1798
aasbsg278
(lp1799
(isxpPackage
sxpSent
p1800
(dp1801
g282
(lp1802
I3
asg284
VSRL systems in many languages have been developed as the necessary linguistic resources become available [ 18 , 20 , 5 , 12 ]
p1803
sg286
I2
sg271
I7
sg287
I2
sba(isxpPackage
sxpSent
p1804
(dp1805
g282
(lp1806
I3
asg284
VSeven languages were the subject of the CoNLL-2009 shared task in syntactic and semantic parsing [ 11 ]
p1807
sg286
I2
sg271
I8
sg287
I2
sbasba(icmyPackage
CELink
p1808
(dp1809
g3
(lp1810
g5
(g6
g7
(lp1811
g5
(g6
g7
(lp1812
g5
(g6
g7
(lp1813
g5
(g6
g7
(lp1814
g5
(g6
g7
(lp1815
VAgglutinative
p1816
atp1817
Rp1818
(dp1819
g16
VJJ
p1820
sbag5
(g6
g7
(lp1821
Vlanguages
p1822
atp1823
Rp1824
(dp1825
g16
VNNS
p1826
sbatp1827
Rp1828
(dp1829
g16
VNP
p1830
sbag5
(g6
g7
(lp1831
g5
(g6
g7
(lp1832
Vsuch
p1833
atp1834
Rp1835
(dp1836
g16
VJJ
p1837
sbag5
(g6
g7
(lp1838
Vas
p1839
atp1840
Rp1841
(dp1842
g16
VIN
p1843
sbag5
(g6
g7
(lp1844
g5
(g6
g7
(lp1845
VJapanese
p1846
atp1847
Rp1848
(dp1849
g16
VNNP
p1850
sbag5
(g6
g7
(lp1851
g581
atp1852
Rp1853
(dp1854
g16
g581
sbag5
(g6
g7
(lp1855
VKorean
p1856
atp1857
Rp1858
(dp1859
g16
VNNP
p1860
sbag5
(g6
g7
(lp1861
g581
atp1862
Rp1863
(dp1864
g16
g581
sbag5
(g6
g7
(lp1865
Vand
p1866
atp1867
Rp1868
(dp1869
g16
VCC
p1870
sbag5
(g6
g7
(lp1871
VTurkish
p1872
atp1873
Rp1874
(dp1875
g16
VNNP
p1876
sbatp1877
Rp1878
(dp1879
g16
VNP
p1880
sbatp1881
Rp1882
(dp1883
g16
VPP
p1884
sbatp1885
Rp1886
(dp1887
g16
VNP
p1888
sbag5
(g6
g7
(lp1889
g5
(g6
g7
(lp1890
Vare
p1891
atp1892
Rp1893
(dp1894
g16
VVBP
p1895
sbag5
(g6
g7
(lp1896
g5
(g6
g7
(lp1897
Vcomputationally
p1898
atp1899
Rp1900
(dp1901
g16
VRB
p1902
sbatp1903
Rp1904
(dp1905
g16
VADVP
p1906
sbag5
(g6
g7
(lp1907
g5
(g6
g7
(lp1908
Vdifficult
p1909
atp1910
Rp1911
(dp1912
g16
VJJ
p1913
sbag5
(g6
g7
(lp1914
Vdue
p1915
atp1916
Rp1917
(dp1918
g16
VRB
p1919
sbag5
(g6
g7
(lp1920
g5
(g6
g7
(lp1921
Vto
p1922
atp1923
Rp1924
(dp1925
g16
VTO
p1926
sbag5
(g6
g7
(lp1927
g5
(g6
g7
(lp1928
g5
(g6
g7
(lp1929
Vword-form
p1930
atp1931
Rp1932
(dp1933
g16
VJJ
p1934
sbag5
(g6
g7
(lp1935
Vsparsity
p1936
atp1937
Rp1938
(dp1939
g16
VNN
p1940
sbatp1941
Rp1942
(dp1943
g16
VNP
p1944
sbag5
(g6
g7
(lp1945
g581
atp1946
Rp1947
(dp1948
g16
g581
sbag5
(g6
g7
(lp1949
g5
(g6
g7
(lp1950
Vvariable
p1951
atp1952
Rp1953
(dp1954
g16
VJJ
p1955
sbag5
(g6
g7
(lp1956
Vword
p1957
atp1958
Rp1959
(dp1960
g16
VNN
p1961
sbag5
(g6
g7
(lp1962
Vorder
p1963
atp1964
Rp1965
(dp1966
g16
VNN
p1967
sbatp1968
Rp1969
(dp1970
g16
VNP
p1971
sbag5
(g6
g7
(lp1972
g581
atp1973
Rp1974
(dp1975
g16
g581
sbag5
(g6
g7
(lp1976
Vand
p1977
atp1978
Rp1979
(dp1980
g16
VCC
p1981
sbag5
(g6
g7
(lp1982
g5
(g6
g7
(lp1983
Vthe
p1984
atp1985
Rp1986
(dp1987
g16
VDT
p1988
sbag5
(g6
g7
(lp1989
Vchallenge
p1990
atp1991
Rp1992
(dp1993
g16
VNN
p1994
sbatp1995
Rp1996
(dp1997
g16
VNP
p1998
sbatp1999
Rp2000
(dp2001
g16
VNP
p2002
sbatp2003
Rp2004
(dp2005
g16
VPP
p2006
sbag5
(g6
g7
(lp2007
g5
(g6
g7
(lp2008
Vof
p2009
atp2010
Rp2011
(dp2012
g16
VIN
p2013
sbag5
(g6
g7
(lp2014
g5
(g6
g7
(lp2015
g5
(g6
g7
(lp2016
Vusing
p2017
atp2018
Rp2019
(dp2020
g16
VVBG
p2021
sbag5
(g6
g7
(lp2022
g5
(g6
g7
(lp2023
Vrich
p2024
atp2025
Rp2026
(dp2027
g16
VJJ
p2028
sbag5
(g6
g7
(lp2029
Vmorphological
p2030
atp2031
Rp2032
(dp2033
g16
VJJ
p2034
sbag5
(g6
g7
(lp2035
Vfeatures
p2036
atp2037
Rp2038
(dp2039
g16
VNNS
p2040
sbatp2041
Rp2042
(dp2043
g16
VNP
p2044
sbatp2045
Rp2046
(dp2047
g16
VVP
p2048
sbatp2049
Rp2050
(dp2051
g16
g198
sbatp2052
Rp2053
(dp2054
g16
VPP
p2055
sbatp2056
Rp2057
(dp2058
g16
VADJP
p2059
sbatp2060
Rp2061
(dp2062
g16
VVP
p2063
sbatp2064
Rp2065
(dp2066
g16
g198
sbatp2067
Rp2068
(dp2069
g16
VROOT
p2070
sbasg236
(icmyPackage
CorE
p2071
(dp2072
g239
(lp2073
(I0
I15
tp2074
a(I0
I29
tp2075
asg243
g5
(g6
g7
(lp2076
g2000
ag2053
atp2077
Rp2078
(dp2079
g16
g254
sbsbsg244
(icmyPackage
CorE
p2080
(dp2081
g239
(lp2082
(I0
I0
tp2083
a(I0
I12
tp2084
asg243
g5
(g6
g7
(lp2085
g1886
ag1893
ag1904
ag1911
atp2086
Rp2087
(dp2088
g16
g254
sbsbsg255
(icmyPackage
pattern
p2089
(dp2090
g258
I0
sg259
I0
sg260
(lp2091
(lp2092
S'due'
p2093
aS'to'
p2094
aasg266
(lp2095
I2
aI1
aI1
asg268
(lp2096
S'Data stored on hard disks is at higher risk due to the mechanical nature of the device.'
p2097
asg271
I72
sg272
(lp2098
(lp2099
S'&R'
p2100
aa(lp2101
S'&NP@C@'
p2102
aasbsg278
(lp2103
(isxpPackage
sxpSent
p2104
(dp2105
g282
(lp2106
I4
asg284
VAgglutinative languages such as Japanese, Korean, and Turkish are computationally difficult due to word-form sparsity, variable word order, and the challenge of using rich morphological features
p2107
sg286
I2
sg271
I13
sg287
I3
sbasba(icmyPackage
CELink
p2108
(dp2109
g3
(lp2110
g5
(g6
g7
(lp2111
g5
(g6
g7
(lp2112
g5
(g6
g7
(lp2113
g5
(g6
g7
(lp2114
VWe
p2115
atp2116
Rp2117
(dp2118
g16
VPRP
p2119
sbatp2120
Rp2121
(dp2122
g16
VNP
p2123
sbag5
(g6
g7
(lp2124
g5
(g6
g7
(lp2125
Vview
p2126
atp2127
Rp2128
(dp2129
g16
VVBP
p2130
sbag5
(g6
g7
(lp2131
g5
(g6
g7
(lp2132
Vour
p2133
atp2134
Rp2135
(dp2136
g16
VPRP$
p2137
sbag5
(g6
g7
(lp2138
Vwork
p2139
atp2140
Rp2141
(dp2142
g16
VNN
p2143
sbatp2144
Rp2145
(dp2146
g16
VNP
p2147
sbag5
(g6
g7
(lp2148
g5
(g6
g7
(lp2149
Vas
p2150
atp2151
Rp2152
(dp2153
g16
VIN
p2154
sbag5
(g6
g7
(lp2155
g5
(g6
g7
(lp2156
g5
(g6
g7
(lp2157
Vbuilding
p2158
atp2159
Rp2160
(dp2161
g16
VVBG
p2162
sbag5
(g6
g7
(lp2163
g5
(g6
g7
(lp2164
Von
p2165
atp2166
Rp2167
(dp2168
g16
VIN
p2169
sbag5
(g6
g7
(lp2170
g5
(g6
g7
(lp2171
g5
(g6
g7
(lp2172
Vthe
p2173
atp2174
Rp2175
(dp2176
g16
VDT
p2177
sbag5
(g6
g7
(lp2178
Vefforts
p2179
atp2180
Rp2181
(dp2182
g16
VNNS
p2183
sbatp2184
Rp2185
(dp2186
g16
VNP
p2187
sbag5
(g6
g7
(lp2188
g5
(g6
g7
(lp2189
Vof
p2190
atp2191
Rp2192
(dp2193
g16
VIN
p2194
sbag5
(g6
g7
(lp2195
g5
(g6
g7
(lp2196
g5
(g6
g7
(lp2197
Vthe
p2198
atp2199
Rp2200
(dp2201
g16
VDT
p2202
sbag5
(g6
g7
(lp2203
VPenn
p2204
atp2205
Rp2206
(dp2207
g16
VNNP
p2208
sbag5
(g6
g7
(lp2209
VKorean
p2210
atp2211
Rp2212
(dp2213
g16
VNNP
p2214
sbatp2215
Rp2216
(dp2217
g16
VNP
p2218
sbag5
(g6
g7
(lp2219
g5
(g6
g7
(lp2220
VPropBank
p2221
atp2222
Rp2223
(dp2224
g16
VNNP
p2225
sbag5
(g6
g7
(lp2226
V-LRB-
p2227
atp2228
Rp2229
(dp2230
g16
V-LRB-
p2231
sbag5
(g6
g7
(lp2232
VPKPB
p2233
atp2234
Rp2235
(dp2236
g16
VNNP
p2237
sbatp2238
Rp2239
(dp2240
g16
VNP
p2241
sbatp2242
Rp2243
(dp2244
g16
VNP
p2245
sbatp2246
Rp2247
(dp2248
g16
VPP
p2249
sbatp2250
Rp2251
(dp2252
g16
VNP
p2253
sbatp2254
Rp2255
(dp2256
g16
VPP
p2257
sbatp2258
Rp2259
(dp2260
g16
VVP
p2261
sbatp2262
Rp2263
(dp2264
g16
g198
sbatp2265
Rp2266
(dp2267
g16
VPP
p2268
sbatp2269
Rp2270
(dp2271
g16
VVP
p2272
sbatp2273
Rp2274
(dp2275
g16
g198
sbatp2276
Rp2277
(dp2278
g16
VROOT
p2279
sbag5
(g6
g7
(lp2280
g5
(g6
g7
(lp2281
g5
(g6
g7
(lp2282
g5
(g6
g7
(lp2283
g5
(g6
g7
(lp2284
g5
(g6
g7
(lp2285
V2
p2286
atp2287
Rp2288
(dp2289
g16
VCD
p2290
sbag5
(g6
g7
(lp2291
g2286
atp2292
Rp2293
(dp2294
g16
VCD
p2295
sbag5
(g6
g7
(lp2296
Vhttp://catalog.ldc.upenn.edu/LDC2006T03
p2297
atp2298
Rp2299
(dp2300
g16
VNNS
p2301
sbatp2302
Rp2303
(dp2304
g16
VNP
p2305
sbag5
(g6
g7
(lp2306
g5
(g6
g7
(lp2307
VOur
p2308
atp2309
Rp2310
(dp2311
g16
VPRP$
p2312
sbag5
(g6
g7
(lp2313
Vcorpus
p2314
atp2315
Rp2316
(dp2317
g16
VNN
p2318
sbatp2319
Rp2320
(dp2321
g16
VNP
p2322
sbatp2323
Rp2324
(dp2325
g16
VNP
p2326
sbag5
(g6
g7
(lp2327
g5
(g6
g7
(lp2328
Vis
p2329
atp2330
Rp2331
(dp2332
g16
VVBZ
p2333
sbag5
(g6
g7
(lp2334
g5
(g6
g7
(lp2335
Vroughly
p2336
atp2337
Rp2338
(dp2339
g16
VRB
p2340
sbag5
(g6
g7
(lp2341
Vsimilar
p2342
atp2343
Rp2344
(dp2345
g16
VJJ
p2346
sbag5
(g6
g7
(lp2347
g5
(g6
g7
(lp2348
Vin
p2349
atp2350
Rp2351
(dp2352
g16
VIN
p2353
sbag5
(g6
g7
(lp2354
g5
(g6
g7
(lp2355
Vsize
p2356
atp2357
Rp2358
(dp2359
g16
VNN
p2360
sbatp2361
Rp2362
(dp2363
g16
VNP
p2364
sbatp2365
Rp2366
(dp2367
g16
VPP
p2368
sbatp2369
Rp2370
(dp2371
g16
VADJP
p2372
sbag5
(g6
g7
(lp2373
g5
(g6
g7
(lp2374
Vto
p2375
atp2376
Rp2377
(dp2378
g16
VTO
p2379
sbag5
(g6
g7
(lp2380
g5
(g6
g7
(lp2381
Vthe
p2382
atp2383
Rp2384
(dp2385
g16
VDT
p2386
sbag5
(g6
g7
(lp2387
VPKPB
p2388
atp2389
Rp2390
(dp2391
g16
VNNP
p2392
sbatp2393
Rp2394
(dp2395
g16
VNP
p2396
sbatp2397
Rp2398
(dp2399
g16
VPP
p2400
sbatp2401
Rp2402
(dp2403
g16
VVP
p2404
sbatp2405
Rp2406
(dp2407
g16
g198
sbag5
(g6
g7
(lp2408
g581
atp2409
Rp2410
(dp2411
g16
g581
sbag5
(g6
g7
(lp2412
Vand
p2413
atp2414
Rp2415
(dp2416
g16
VCC
p2417
sbag5
(g6
g7
(lp2418
g5
(g6
g7
(lp2419
g5
(g6
g7
(lp2420
g5
(g6
g7
(lp2421
Vtaken
p2422
atp2423
Rp2424
(dp2425
g16
VVBN
p2426
sbag5
(g6
g7
(lp2427
g5
(g6
g7
(lp2428
Vtogether
p2429
atp2430
Rp2431
(dp2432
g16
VRB
p2433
sbatp2434
Rp2435
(dp2436
g16
VADVP
p2437
sbatp2438
Rp2439
(dp2440
g16
VVP
p2441
sbatp2442
Rp2443
(dp2444
g16
g198
sbag5
(g6
g7
(lp2445
g581
atp2446
Rp2447
(dp2448
g16
g581
sbag5
(g6
g7
(lp2449
g5
(g6
g7
(lp2450
Vthe
p2451
atp2452
Rp2453
(dp2454
g16
VDT
p2455
sbag5
(g6
g7
(lp2456
Vtwo
p2457
atp2458
Rp2459
(dp2460
g16
VCD
p2461
sbag5
(g6
g7
(lp2462
VKorean
p2463
atp2464
Rp2465
(dp2466
g16
VJJ
p2467
sbag5
(g6
g7
(lp2468
Vcorpora
p2469
atp2470
Rp2471
(dp2472
g16
VNN
p2473
sbatp2474
Rp2475
(dp2476
g16
VNP
p2477
sbag5
(g6
g7
(lp2478
g5
(g6
g7
(lp2479
Vnow
p2480
atp2481
Rp2482
(dp2483
g16
VRB
p2484
sbatp2485
Rp2486
(dp2487
g16
VADVP
p2488
sbag5
(g6
g7
(lp2489
g5
(g6
g7
(lp2490
Vtotal
p2491
atp2492
Rp2493
(dp2494
g16
VVBP
p2495
sbag5
(g6
g7
(lp2496
g5
(g6
g7
(lp2497
g5
(g6
g7
(lp2498
g5
(g6
g7
(lp2499
Vabout
p2500
atp2501
Rp2502
(dp2503
g16
VRB
p2504
sbag5
(g6
g7
(lp2505
Vhalf
p2506
atp2507
Rp2508
(dp2509
g16
VPDT
p2510
sbatp2511
Rp2512
(dp2513
g16
VQP
p2514
sbag5
(g6
g7
(lp2515
Vthe
p2516
atp2517
Rp2518
(dp2519
g16
VDT
p2520
sbag5
(g6
g7
(lp2521
Vsize
p2522
atp2523
Rp2524
(dp2525
g16
VNN
p2526
sbatp2527
Rp2528
(dp2529
g16
VNP
p2530
sbag5
(g6
g7
(lp2531
g5
(g6
g7
(lp2532
Vof
p2533
atp2534
Rp2535
(dp2536
g16
VIN
p2537
sbag5
(g6
g7
(lp2538
g5
(g6
g7
(lp2539
Vthe
p2540
atp2541
Rp2542
(dp2543
g16
VDT
p2544
sbag5
(g6
g7
(lp2545
VPenn
p2546
atp2547
Rp2548
(dp2549
g16
VNNP
p2550
sbag5
(g6
g7
(lp2551
VEnglish
p2552
atp2553
Rp2554
(dp2555
g16
VNNP
p2556
sbag5
(g6
g7
(lp2557
VPropBank
p2558
atp2559
Rp2560
(dp2561
g16
VNNP
p2562
sbatp2563
Rp2564
(dp2565
g16
VNP
p2566
sbatp2567
Rp2568
(dp2569
g16
VPP
p2570
sbatp2571
Rp2572
(dp2573
g16
VNP
p2574
sbatp2575
Rp2576
(dp2577
g16
VVP
p2578
sbatp2579
Rp2580
(dp2581
g16
g198
sbatp2582
Rp2583
(dp2584
g16
g198
sbatp2585
Rp2586
(dp2587
g16
VROOT
p2588
sbasg236
(icmyPackage
CorE
p2589
(dp2590
g239
(lp2591
(I0
I5
tp2592
a(I1
I32
tp2593
asg243
g5
(g6
g7
(lp2594
g2263
ag2586
atp2595
Rp2596
(dp2597
g16
g254
sbsbsg244
(icmyPackage
CorE
p2598
(dp2599
g239
(lp2600
(I0
I0
tp2601
a(I0
I3
tp2602
asg243
g5
(g6
g7
(lp2603
g2121
ag2128
ag2145
atp2604
Rp2605
(dp2606
g16
g254
sbsbsg255
g1783
sg278
(lp2607
(isxpPackage
sxpSent
p2608
(dp2609
g282
(lp2610
I5
asg284
VWe view our work as building on the efforts of the Penn Korean PropBank (PKPB
p2611
sg286
I3
sg271
I25
sg287
I7
sba(isxpPackage
sxpSent
p2612
(dp2613
g282
(lp2614
I5
asg284
V2 2 http://catalog.ldc.upenn.edu/LDC2006T03 Our corpus is roughly similar in size to the PKPB, and taken together, the two Korean corpora now total about half the size of the Penn English PropBank
p2615
sg286
I3
sg271
I26
sg287
I7
sbasba(icmyPackage
CELink
p2616
(dp2617
g3
(lp2618
g5
(g6
g7
(lp2619
g5
(g6
g7
(lp2620
g5
(g6
g7
(lp2621
g5
(g6
g7
(lp2622
VOur
p2623
atp2624
Rp2625
(dp2626
g16
VPRP$
p2627
sbag5
(g6
g7
(lp2628
Vexperiments
p2629
atp2630
Rp2631
(dp2632
g16
VNNS
p2633
sbatp2634
Rp2635
(dp2636
g16
VNP
p2637
sbag5
(g6
g7
(lp2638
g5
(g6
g7
(lp2639
Vwill
p2640
atp2641
Rp2642
(dp2643
g16
VMD
p2644
sbag5
(g6
g7
(lp2645
g5
(g6
g7
(lp2646
Vshow
p2647
atp2648
Rp2649
(dp2650
g16
VVB
p2651
sbag5
(g6
g7
(lp2652
g5
(g6
g7
(lp2653
Vthat
p2654
atp2655
Rp2656
(dp2657
g16
VIN
p2658
sbag5
(g6
g7
(lp2659
g5
(g6
g7
(lp2660
g5
(g6
g7
(lp2661
Vthese
p2662
atp2663
Rp2664
(dp2665
g16
VDT
p2666
sbag5
(g6
g7
(lp2667
Vfiner-grained
p2668
atp2669
Rp2670
(dp2671
g16
VJJ
p2672
sbag5
(g6
g7
(lp2673
Vtags
p2674
atp2675
Rp2676
(dp2677
g16
VNNS
p2678
sbatp2679
Rp2680
(dp2681
g16
VNP
p2682
sbag5
(g6
g7
(lp2683
g5
(g6
g7
(lp2684
Vare
p2685
atp2686
Rp2687
(dp2688
g16
VVBP
p2689
sbag5
(g6
g7
(lp2690
g5
(g6
g7
(lp2691
Vcrucial
p2692
atp2693
Rp2694
(dp2695
g16
VJJ
p2696
sbag5
(g6
g7
(lp2697
g5
(g6
g7
(lp2698
Vfor
p2699
atp2700
Rp2701
(dp2702
g16
VIN
p2703
sbag5
(g6
g7
(lp2704
g5
(g6
g7
(lp2705
g5
(g6
g7
(lp2706
Vachieving
p2707
atp2708
Rp2709
(dp2710
g16
VVBG
p2711
sbag5
(g6
g7
(lp2712
g5
(g6
g7
(lp2713
Vhigh
p2714
atp2715
Rp2716
(dp2717
g16
VJJ
p2718
sbag5
(g6
g7
(lp2719
VSRL
p2720
atp2721
Rp2722
(dp2723
g16
VNNP
p2724
sbag5
(g6
g7
(lp2725
Vaccuracy
p2726
atp2727
Rp2728
(dp2729
g16
VNN
p2730
sbatp2731
Rp2732
(dp2733
g16
VNP
p2734
sbatp2735
Rp2736
(dp2737
g16
VVP
p2738
sbatp2739
Rp2740
(dp2741
g16
g198
sbatp2742
Rp2743
(dp2744
g16
VPP
p2745
sbatp2746
Rp2747
(dp2748
g16
VADJP
p2749
sbatp2750
Rp2751
(dp2752
g16
VVP
p2753
sbatp2754
Rp2755
(dp2756
g16
g198
sbatp2757
Rp2758
(dp2759
g16
VSBAR
p2760
sbatp2761
Rp2762
(dp2763
g16
VVP
p2764
sbatp2765
Rp2766
(dp2767
g16
VVP
p2768
sbatp2769
Rp2770
(dp2771
g16
g198
sbatp2772
Rp2773
(dp2774
g16
VROOT
p2775
sbasg236
(icmyPackage
CorE
p2776
(dp2777
g239
(lp2778
(I0
I11
tp2779
a(I0
I14
tp2780
asg243
g2740
sbsg244
(icmyPackage
CorE
p2781
(dp2782
g239
(lp2783
(I0
I0
tp2784
a(I0
I9
tp2785
asg243
g5
(g6
g7
(lp2786
g2635
ag2642
ag2649
ag2656
ag2680
ag2687
ag2694
atp2787
Rp2788
(dp2789
g16
g254
sbsbsg255
(icmyPackage
pattern
p2790
(dp2791
g258
I25
sg259
I0
sg260
(lp2792
(lp2793
S'for'
p2794
aasg266
(lp2795
I2
aI1
aI1
asg268
(lp2796
S'She was angry with him for being late.'
p2797
asg271
I44
sg272
(lp2798
(lp2799
S'&R'
p2800
aa(lp2801
S'&V-ing@C@'
p2802
aasbsg278
(lp2803
(isxpPackage
sxpSent
p2804
(dp2805
g282
(lp2806
I6
asg284
VOur experiments will show that these finer-grained tags are crucial for achieving high SRL accuracy
p2807
sg286
I3
sg271
I28
sg287
I7
sbasba(icmyPackage
CELink
p2808
(dp2809
g3
(lp2810
g5
(g6
g7
(lp2811
g5
(g6
g7
(lp2812
g5
(g6
g7
(lp2813
g5
(g6
g7
(lp2814
VAlthough
p2815
atp2816
Rp2817
(dp2818
g16
VIN
p2819
sbag5
(g6
g7
(lp2820
g5
(g6
g7
(lp2821
g5
(g6
g7
(lp2822
Vthese
p2823
atp2824
Rp2825
(dp2826
g16
VDT
p2827
sbatp2828
Rp2829
(dp2830
g16
VNP
p2831
sbag5
(g6
g7
(lp2832
g5
(g6
g7
(lp2833
Vare
p2834
atp2835
Rp2836
(dp2837
g16
VVBP
p2838
sbag5
(g6
g7
(lp2839
g5
(g6
g7
(lp2840
Vbased
p2841
atp2842
Rp2843
(dp2844
g16
VVBN
p2845
sbag5
(g6
g7
(lp2846
g5
(g6
g7
(lp2847
Von
p2848
atp2849
Rp2850
(dp2851
g16
VIN
p2852
sbag5
(g6
g7
(lp2853
g5
(g6
g7
(lp2854
Vthe
p2855
atp2856
Rp2857
(dp2858
g16
VDT
p2859
sbag5
(g6
g7
(lp2860
Vgeneral
p2861
atp2862
Rp2863
(dp2864
g16
VJJ
p2865
sbag5
(g6
g7
(lp2866
VEnglish
p2867
atp2868
Rp2869
(dp2870
g16
VNNP
p2871
sbag5
(g6
g7
(lp2872
VPropBank
p2873
atp2874
Rp2875
(dp2876
g16
VNNP
p2877
sbag5
(g6
g7
(lp2878
Vguidelines
p2879
atp2880
Rp2881
(dp2882
g16
VNNS
p2883
sbatp2884
Rp2885
(dp2886
g16
VNP
p2887
sbatp2888
Rp2889
(dp2890
g16
VPP
p2891
sbag5
(g6
g7
(lp2892
g5
(g6
g7
(lp2893
g5
(g6
g7
(lp2894
V-LSB-
p2895
atp2896
Rp2897
(dp2898
g16
VVBG
p2899
sbag5
(g6
g7
(lp2900
g5
(g6
g7
(lp2901
V3
p2902
atp2903
Rp2904
(dp2905
g16
VCD
p2906
sbag5
(g6
g7
(lp2907
V-RSB-
p2908
atp2909
Rp2910
(dp2911
g16
VNNS
p2912
sbatp2913
Rp2914
(dp2915
g16
VNP
p2916
sbatp2917
Rp2918
(dp2919
g16
VVP
p2920
sbatp2921
Rp2922
(dp2923
g16
g198
sbatp2924
Rp2925
(dp2926
g16
VVP
p2927
sbatp2928
Rp2929
(dp2930
g16
VVP
p2931
sbatp2932
Rp2933
(dp2934
g16
g198
sbatp2935
Rp2936
(dp2937
g16
VSBAR
p2938
sbag5
(g6
g7
(lp2939
g581
atp2940
Rp2941
(dp2942
g16
g581
sbag5
(g6
g7
(lp2943
g5
(g6
g7
(lp2944
Vthey
p2945
atp2946
Rp2947
(dp2948
g16
VPRP
p2949
sbatp2950
Rp2951
(dp2952
g16
VNP
p2953
sbag5
(g6
g7
(lp2954
g5
(g6
g7
(lp2955
Valso
p2956
atp2957
Rp2958
(dp2959
g16
VRB
p2960
sbatp2961
Rp2962
(dp2963
g16
VADVP
p2964
sbag5
(g6
g7
(lp2965
g5
(g6
g7
(lp2966
Vdiffer
p2967
atp2968
Rp2969
(dp2970
g16
VVBP
p2971
sbag5
(g6
g7
(lp2972
g5
(g6
g7
(lp2973
Vin
p2974
atp2975
Rp2976
(dp2977
g16
VRP
p2978
sbatp2979
Rp2980
(dp2981
g16
VPRT
p2982
sbag5
(g6
g7
(lp2983
g5
(g6
g7
(lp2984
Vthat
p2985
atp2986
Rp2987
(dp2988
g16
VIN
p2989
sbag5
(g6
g7
(lp2990
g5
(g6
g7
(lp2991
g5
(g6
g7
(lp2992
Vwe
p2993
atp2994
Rp2995
(dp2996
g16
VPRP
p2997
sbatp2998
Rp2999
(dp3000
g16
VNP
p3001
sbag5
(g6
g7
(lp3002
g5
(g6
g7
(lp3003
Vused
p3004
atp3005
Rp3006
(dp3007
g16
VVBD
p3008
sbag5
(g6
g7
(lp3009
g5
(g6
g7
(lp3010
g5
(g6
g7
(lp3011
Vonly
p3012
atp3013
Rp3014
(dp3015
g16
VRB
p3016
sbag5
(g6
g7
(lp3017
g1188
atp3018
Rp3019
(dp3020
g16
VCD
p3021
sbag5
(g6
g7
(lp3022
Vnumbered
p3023
atp3024
Rp3025
(dp3026
g16
VCD
p3027
sbatp3028
Rp3029
(dp3030
g16
VQP
p3031
sbag5
(g6
g7
(lp3032
Varguments
p3033
atp3034
Rp3035
(dp3036
g16
VNNS
p3037
sbatp3038
Rp3039
(dp3040
g16
VNP
p3041
sbag5
(g6
g7
(lp3042
g5
(g6
g7
(lp3043
Vfrom
p3044
atp3045
Rp3046
(dp3047
g16
VIN
p3048
sbag5
(g6
g7
(lp3049
g5
(g6
g7
(lp3050
g5
(g6
g7
(lp3051
g5
(g6
g7
(lp3052
VARG0
p3053
atp3054
Rp3055
(dp3056
g16
VCD
p3057
sbag5
(g6
g7
(lp3058
Vto
p3059
atp3060
Rp3061
(dp3062
g16
VTO
p3063
sbag5
(g6
g7
(lp3064
VARG3
p3065
atp3066
Rp3067
(dp3068
g16
VCD
p3069
sbatp3070
Rp3071
(dp3072
g16
VQP
p3073
sbatp3074
Rp3075
(dp3076
g16
VNP
p3077
sbag5
(g6
g7
(lp3078
g5
(g6
g7
(lp3079
Vinstead
p3080
atp3081
Rp3082
(dp3083
g16
VRB
p3084
sbag5
(g6
g7
(lp3085
Vof
p3086
atp3087
Rp3088
(dp3089
g16
VIN
p3090
sbag5
(g6
g7
(lp3091
g5
(g6
g7
(lp3092
g1552
atp3093
Rp3094
(dp3095
g16
VCD
p3096
sbag5
(g6
g7
(lp3097
Vnumbered
p3098
atp3099
Rp3100
(dp3101
g16
VJJ
p3102
sbag5
(g6
g7
(lp3103
Varguments
p3104
atp3105
Rp3106
(dp3107
g16
VNNS
p3108
sbatp3109
Rp3110
(dp3111
g16
VNP
p3112
sbatp3113
Rp3114
(dp3115
g16
VPP
p3116
sbatp3117
Rp3118
(dp3119
g16
VNP
p3120
sbatp3121
Rp3122
(dp3123
g16
VPP
p3124
sbatp3125
Rp3126
(dp3127
g16
VVP
p3128
sbatp3129
Rp3130
(dp3131
g16
g198
sbatp3132
Rp3133
(dp3134
g16
VSBAR
p3135
sbatp3136
Rp3137
(dp3138
g16
VVP
p3139
sbatp3140
Rp3141
(dp3142
g16
g198
sbatp3143
Rp3144
(dp3145
g16
VROOT
p3146
sbasg236
(icmyPackage
CorE
p3147
(dp3148
g239
(lp3149
(I0
I5
tp3150
a(I0
I12
tp3151
asg243
g5
(g6
g7
(lp3152
g2885
ag2922
atp3153
Rp3154
(dp3155
g16
g254
sbsbsg244
(icmyPackage
CorE
p3156
(dp3157
g239
(lp3158
(I0
I14
tp3159
a(I0
I33
tp3160
asg243
g5
(g6
g7
(lp3161
g2951
ag2962
ag3137
atp3162
Rp3163
(dp3164
g16
g254
sbsbsg255
(icmyPackage
pattern
p3165
(dp3166
g258
I0
sg259
I0
sg260
(lp3167
(lp3168
S'based'
p3169
aS'on'
p3170
aa(lp3171
g1324
aasg266
(lp3172
I2
aI1
aI1
asg268
(lp3173
S"He said that, based on his own experience, more students have been going back in recent years as their home countries' economies heat up."
p3174
asg271
I47
sg272
(lp3175
(lp3176
a(lp3177
S'&V-ing/&NP@C@'
p3178
aS'(&Clause@C@)'
p3179
aa(lp3180
S'&R'
p3181
aasbsg278
(lp3182
(isxpPackage
sxpSent
p3183
(dp3184
g282
(lp3185
I7
aI8
asg284
VAlthough these are based on the general English PropBank guidelines [ 3 ] , they also differ in that we used only 4 numbered arguments from ARG0 to ARG3 instead of 5 numbered arguments
p3186
sg286
I3
sg271
I40
sg287
I10
sbasba(icmyPackage
CELink
p3187
(dp3188
g3
(lp3189
g3144
ag5
(g6
g7
(lp3190
g5
(g6
g7
(lp3191
g5
(g6
g7
(lp3192
g5
(g6
g7
(lp3193
VWe
p3194
atp3195
Rp3196
(dp3197
g16
VPRP
p3198
sbatp3199
Rp3200
(dp3201
g16
VNP
p3202
sbag5
(g6
g7
(lp3203
g5
(g6
g7
(lp3204
g5
(g6
g7
(lp3205
Vthus
p3206
atp3207
Rp3208
(dp3209
g16
VRB
p3210
sbatp3211
Rp3212
(dp3213
g16
VADVP
p3214
sbag5
(g6
g7
(lp3215
Vconsider
p3216
atp3217
Rp3218
(dp3219
g16
VVBP
p3220
sbag5
(g6
g7
(lp3221
g5
(g6
g7
(lp3222
g5
(g6
g7
(lp3223
V17
p3224
atp3225
Rp3226
(dp3227
g16
VCD
p3228
sbag5
(g6
g7
(lp3229
Vsemantic
p3230
atp3231
Rp3232
(dp3233
g16
VJJ
p3234
sbag5
(g6
g7
(lp3235
Vroles
p3236
atp3237
Rp3238
(dp3239
g16
VNNS
p3240
sbatp3241
Rp3242
(dp3243
g16
VNP
p3244
sbag5
(g6
g7
(lp3245
g5
(g6
g7
(lp3246
Vin
p3247
atp3248
Rp3249
(dp3250
g16
VIN
p3251
sbag5
(g6
g7
(lp3252
g5
(g6
g7
(lp3253
Vtotal
p3254
atp3255
Rp3256
(dp3257
g16
VNN
p3258
sbatp3259
Rp3260
(dp3261
g16
VNP
p3262
sbatp3263
Rp3264
(dp3265
g16
VPP
p3266
sbatp3267
Rp3268
(dp3269
g16
VNP
p3270
sbatp3271
Rp3272
(dp3273
g16
VVP
p3274
sbatp3275
Rp3276
(dp3277
g16
g198
sbatp3278
Rp3279
(dp3280
g16
VROOT
p3281
sbasg236
(icmyPackage
CorE
p3282
(dp3283
g239
(lp3284
(I0
I1
tp3285
a(I1
I0
tp3286
asg243
g5
(g6
g7
(lp3287
g2933
ag2941
ag2951
ag2962
ag3137
ag3200
atp3288
Rp3289
(dp3290
g16
g254
sbsbsg244
(icmyPackage
CorE
p3291
(dp3292
g239
(lp3293
(I1
I2
tp3294
a(I1
I7
tp3295
asg243
g5
(g6
g7
(lp3296
g3218
ag3268
atp3297
Rp3298
(dp3299
g16
g254
sbsbsg255
(icmyPackage
pattern
p3300
(dp3301
g258
I35
sg259
I1
sg260
(lp3302
(lp3303
S'thus'
p3304
aasg266
(lp3305
I1
aI1
aI1
asg268
(lp3306
S'Japan will be on the dark side of the Earth, and thus will lack the warming influence of the Sun.'
p3307
asg271
I2
sg272
(lp3308
(lp3309
S'&C'
p3310
aS'(,/;/./--)'
p3311
aS'(&AND)'
p3312
aa(lp3313
S'&R'
p3314
aasbsg278
(lp3315
g3183
a(isxpPackage
sxpSent
p3316
(dp3317
g282
(lp3318
I8
asg284
VWe thus consider 17 semantic roles in total
p3319
sg286
I3
sg271
I41
sg287
I10
sbasba(icmyPackage
CELink
p3320
(dp3321
g3
(lp3322
g5
(g6
g7
(lp3323
g5
(g6
g7
(lp3324
g5
(g6
g7
(lp3325
g5
(g6
g7
(lp3326
VWe
p3327
atp3328
Rp3329
(dp3330
g16
VPRP
p3331
sbatp3332
Rp3333
(dp3334
g16
VNP
p3335
sbag5
(g6
g7
(lp3336
g5
(g6
g7
(lp3337
Vhave
p3338
atp3339
Rp3340
(dp3341
g16
VVBP
p3342
sbag5
(g6
g7
(lp3343
g5
(g6
g7
(lp3344
Vannotated
p3345
atp3346
Rp3347
(dp3348
g16
VJJ
p3349
sbag5
(g6
g7
(lp3350
Vsemantic
p3351
atp3352
Rp3353
(dp3354
g16
VJJ
p3355
sbag5
(g6
g7
(lp3356
Vroles
p3357
atp3358
Rp3359
(dp3360
g16
VNNS
p3361
sbatp3362
Rp3363
(dp3364
g16
VNP
p3365
sbag5
(g6
g7
(lp3366
g5
(g6
g7
(lp3367
g5
(g6
g7
(lp3368
Vby
p3369
atp3370
Rp3371
(dp3372
g16
VIN
p3373
sbag5
(g6
g7
(lp3374
g5
(g6
g7
(lp3375
g5
(g6
g7
(lp3376
Vfollowing
p3377
atp3378
Rp3379
(dp3380
g16
VVBG
p3381
sbag5
(g6
g7
(lp3382
g5
(g6
g7
(lp3383
g5
(g6
g7
(lp3384
Vthe
p3385
atp3386
Rp3387
(dp3388
g16
VDT
p3389
sbag5
(g6
g7
(lp3390
VPropBank
p3391
atp3392
Rp3393
(dp3394
g16
VNNP
p3395
sbag5
(g6
g7
(lp3396
Vannotation
p3397
atp3398
Rp3399
(dp3400
g16
VNN
p3401
sbag5
(g6
g7
(lp3402
Vguideline
p3403
atp3404
Rp3405
(dp3406
g16
VNN
p3407
sbatp3408
Rp3409
(dp3410
g16
VNP
p3411
sbag5
(g6
g7
(lp3412
g5
(g6
g7
(lp3413
V-LSB-
p3414
atp3415
Rp3416
(dp3417
g16
VVBG
p3418
sbag5
(g6
g7
(lp3419
g5
(g6
g7
(lp3420
g5
(g6
g7
(lp3421
g2902
atp3422
Rp3423
(dp3424
g16
VCD
p3425
sbag5
(g6
g7
(lp3426
V-RSB-
p3427
atp3428
Rp3429
(dp3430
g16
VCD
p3431
sbatp3432
Rp3433
(dp3434
g16
VQP
p3435
sbatp3436
Rp3437
(dp3438
g16
VNP
p3439
sbatp3440
Rp3441
(dp3442
g16
VVP
p3443
sbatp3444
Rp3445
(dp3446
g16
VNP
p3447
sbatp3448
Rp3449
(dp3450
g16
VVP
p3451
sbatp3452
Rp3453
(dp3454
g16
g198
sbatp3455
Rp3456
(dp3457
g16
VPP
p3458
sbag5
(g6
g7
(lp3459
Vand
p3460
atp3461
Rp3462
(dp3463
g16
VCC
p3464
sbag5
(g6
g7
(lp3465
g5
(g6
g7
(lp3466
Vby
p3467
atp3468
Rp3469
(dp3470
g16
VIN
p3471
sbag5
(g6
g7
(lp3472
g5
(g6
g7
(lp3473
g5
(g6
g7
(lp3474
Vusing
p3475
atp3476
Rp3477
(dp3478
g16
VVBG
p3479
sbag5
(g6
g7
(lp3480
g5
(g6
g7
(lp3481
g5
(g6
g7
(lp3482
Vframe
p3483
atp3484
Rp3485
(dp3486
g16
VNN
p3487
sbag5
(g6
g7
(lp3488
Vfiles
p3489
atp3490
Rp3491
(dp3492
g16
VNNS
p3493
sbatp3494
Rp3495
(dp3496
g16
VNP
p3497
sbag5
(g6
g7
(lp3498
g5
(g6
g7
(lp3499
Vof
p3500
atp3501
Rp3502
(dp3503
g16
VIN
p3504
sbag5
(g6
g7
(lp3505
g5
(g6
g7
(lp3506
g5
(g6
g7
(lp3507
Vthe
p3508
atp3509
Rp3510
(dp3511
g16
VDT
p3512
sbag5
(g6
g7
(lp3513
VPenn
p3514
atp3515
Rp3516
(dp3517
g16
VNNP
p3518
sbag5
(g6
g7
(lp3519
VKorean
p3520
atp3521
Rp3522
(dp3523
g16
VNNP
p3524
sbag5
(g6
g7
(lp3525
VPropBank
p3526
atp3527
Rp3528
(dp3529
g16
VNNP
p3530
sbatp3531
Rp3532
(dp3533
g16
VNP
p3534
sbag5
(g6
g7
(lp3535
g5
(g6
g7
(lp3536
Vbuilt
p3537
atp3538
Rp3539
(dp3540
g16
VVBN
p3541
sbag5
(g6
g7
(lp3542
g5
(g6
g7
(lp3543
Vby
p3544
atp3545
Rp3546
(dp3547
g16
VIN
p3548
sbag5
(g6
g7
(lp3549
g5
(g6
g7
(lp3550
VPalmer
p3551
atp3552
Rp3553
(dp3554
g16
VNNP
p3555
sbag5
(g6
g7
(lp3556
Vet
p3557
atp3558
Rp3559
(dp3560
g16
VCC
p3561
sbag5
(g6
g7
(lp3562
Val
p3563
atp3564
Rp3565
(dp3566
g16
VNNP
p3567
sbatp3568
Rp3569
(dp3570
g16
VNP
p3571
sbatp3572
Rp3573
(dp3574
g16
VPP
p3575
sbatp3576
Rp3577
(dp3578
g16
VVP
p3579
sbatp3580
Rp3581
(dp3582
g16
VNP
p3583
sbatp3584
Rp3585
(dp3586
g16
VPP
p3587
sbatp3588
Rp3589
(dp3590
g16
VNP
p3591
sbatp3592
Rp3593
(dp3594
g16
VVP
p3595
sbatp3596
Rp3597
(dp3598
g16
g198
sbatp3599
Rp3600
(dp3601
g16
VPP
p3602
sbatp3603
Rp3604
(dp3605
g16
VPP
p3606
sbatp3607
Rp3608
(dp3609
g16
VVP
p3610
sbatp3611
Rp3612
(dp3613
g16
g198
sbatp3614
Rp3615
(dp3616
g16
VROOT
p3617
sbasg236
(icmyPackage
CorE
p3618
(dp3619
g239
(lp3620
(I0
I6
tp3621
a(I0
I13
tp3622
asg243
g3453
sbsg244
(icmyPackage
CorE
p3623
(dp3624
g239
(lp3625
(I0
I14
tp3626
a(I0
I27
tp3627
asg243
g5
(g6
g7
(lp3628
g3462
ag3469
ag3477
ag3495
ag3502
ag3532
ag3539
ag3546
ag3553
ag3559
atp3629
Rp3630
(dp3631
g16
g254
sbsbsg255
(icmyPackage
pattern
p3632
(dp3633
g258
I0
sg259
I0
sg260
(lp3634
(lp3635
(lp3636
S'by'
p3637
aS'through'
p3638
aaasg266
(lp3639
I2
aI1
aI1
asg268
(lp3640
S'By extracting comments and comparisons of the cited articles and then organizing them according to the time of publication discovers and displays how the area has developed as a research literature.'
p3641
asg271
I67
sg272
(lp3642
(lp3643
a(lp3644
S'&V-ing@C@'
p3645
aS'&R'
p3646
aasbsg278
(lp3647
(isxpPackage
sxpSent
p3648
(dp3649
g282
(lp3650
I9
asg284
VWe have annotated semantic roles by following the PropBank annotation guideline [ 3 ] and by using frame files of the Penn Korean PropBank built by Palmer et al
p3651
sg286
I3
sg271
I44
sg287
I11
sbasba(icmyPackage
CELink
p3652
(dp3653
g3
(lp3654
g5
(g6
g7
(lp3655
g5
(g6
g7
(lp3656
g5
(g6
g7
(lp3657
g5
(g6
g7
(lp3658
g5
(g6
g7
(lp3659
VThe
p3660
atp3661
Rp3662
(dp3663
g16
VDT
p3664
sbag5
(g6
g7
(lp3665
VPropBank
p3666
atp3667
Rp3668
(dp3669
g16
VNN
p3670
sbatp3671
Rp3672
(dp3673
g16
VNP
p3674
sbag5
(g6
g7
(lp3675
Vand
p3676
atp3677
Rp3678
(dp3679
g16
VCC
p3680
sbag5
(g6
g7
(lp3681
g5
(g6
g7
(lp3682
Vour
p3683
atp3684
Rp3685
(dp3686
g16
VPRP$
p3687
sbag5
(g6
g7
(lp3688
Vcorpus
p3689
atp3690
Rp3691
(dp3692
g16
VNN
p3693
sbatp3694
Rp3695
(dp3696
g16
VNP
p3697
sbatp3698
Rp3699
(dp3700
g16
VNP
p3701
sbag5
(g6
g7
(lp3702
g5
(g6
g7
(lp3703
Vare
p3704
atp3705
Rp3706
(dp3707
g16
VVBP
p3708
sbag5
(g6
g7
(lp3709
Vnot
p3710
atp3711
Rp3712
(dp3713
g16
VRB
p3714
sbag5
(g6
g7
(lp3715
g5
(g6
g7
(lp3716
Vexactly
p3717
atp3718
Rp3719
(dp3720
g16
VRB
p3721
sbag5
(g6
g7
(lp3722
Vcompatible
p3723
atp3724
Rp3725
(dp3726
g16
VJJ
p3727
sbag5
(g6
g7
(lp3728
g5
(g6
g7
(lp3729
g581
atp3730
Rp3731
(dp3732
g16
g581
sbag5
(g6
g7
(lp3733
g5
(g6
g7
(lp3734
Vbecause
p3735
atp3736
Rp3737
(dp3738
g16
VIN
p3739
sbag5
(g6
g7
(lp3740
g5
(g6
g7
(lp3741
g5
(g6
g7
(lp3742
Vthe
p3743
atp3744
Rp3745
(dp3746
g16
VDT
p3747
sbag5
(g6
g7
(lp3748
Vformer
p3749
atp3750
Rp3751
(dp3752
g16
VJJ
p3753
sbatp3754
Rp3755
(dp3756
g16
VNP
p3757
sbag5
(g6
g7
(lp3758
g5
(g6
g7
(lp3759
Vis
p3760
atp3761
Rp3762
(dp3763
g16
VVBZ
p3764
sbag5
(g6
g7
(lp3765
g5
(g6
g7
(lp3766
Vbuilt
p3767
atp3768
Rp3769
(dp3770
g16
VVBN
p3771
sbag5
(g6
g7
(lp3772
g5
(g6
g7
(lp3773
Von
p3774
atp3775
Rp3776
(dp3777
g16
VIN
p3778
sbag5
(g6
g7
(lp3779
g5
(g6
g7
(lp3780
Vconstituency-based
p3781
atp3782
Rp3783
(dp3784
g16
VJJ
p3785
sbag5
(g6
g7
(lp3786
Vparse
p3787
atp3788
Rp3789
(dp3790
g16
VNN
p3791
sbag5
(g6
g7
(lp3792
Vtrees
p3793
atp3794
Rp3795
(dp3796
g16
VNNS
p3797
sbatp3798
Rp3799
(dp3800
g16
VNP
p3801
sbatp3802
Rp3803
(dp3804
g16
VPP
p3805
sbatp3806
Rp3807
(dp3808
g16
VVP
p3809
sbatp3810
Rp3811
(dp3812
g16
VVP
p3813
sbatp3814
Rp3815
(dp3816
g16
g198
sbatp3817
Rp3818
(dp3819
g16
VSBAR
p3820
sbag5
(g6
g7
(lp3821
g581
atp3822
Rp3823
(dp3824
g16
g581
sbatp3825
Rp3826
(dp3827
g16
VPRN
p3828
sbag5
(g6
g7
(lp3829
g5
(g6
g7
(lp3830
Vwhereas
p3831
atp3832
Rp3833
(dp3834
g16
VIN
p3835
sbag5
(g6
g7
(lp3836
g5
(g6
g7
(lp3837
g5
(g6
g7
(lp3838
Vour
p3839
atp3840
Rp3841
(dp3842
g16
VPRP$
p3843
sbag5
(g6
g7
(lp3844
Vcorpus
p3845
atp3846
Rp3847
(dp3848
g16
VNN
p3849
sbatp3850
Rp3851
(dp3852
g16
VNP
p3853
sbag5
(g6
g7
(lp3854
g5
(g6
g7
(lp3855
Vuses
p3856
atp3857
Rp3858
(dp3859
g16
VVBZ
p3860
sbag5
(g6
g7
(lp3861
g5
(g6
g7
(lp3862
Vdependency
p3863
atp3864
Rp3865
(dp3866
g16
VJJ
p3867
sbag5
(g6
g7
(lp3868
Vparses
p3869
atp3870
Rp3871
(dp3872
g16
VNNS
p3873
sbatp3874
Rp3875
(dp3876
g16
VNP
p3877
sbatp3878
Rp3879
(dp3880
g16
VVP
p3881
sbatp3882
Rp3883
(dp3884
g16
g198
sbatp3885
Rp3886
(dp3887
g16
VSBAR
p3888
sbatp3889
Rp3890
(dp3891
g16
VADJP
p3892
sbatp3893
Rp3894
(dp3895
g16
VVP
p3896
sbatp3897
Rp3898
(dp3899
g16
g198
sbatp3900
Rp3901
(dp3902
g16
VROOT
p3903
sbasg236
(icmyPackage
CorE
p3904
(dp3905
g239
(lp3906
(I0
I11
tp3907
a(I0
I18
tp3908
asg243
g3815
sbsg244
(icmyPackage
CorE
p3909
(dp3910
g239
(lp3911
(I0
I20
tp3912
a(I0
I25
tp3913
asg243
g3886
sbsg255
(icmyPackage
pattern
p3914
(dp3915
g258
I18
sg259
I0
sg260
(lp3916
(lp3917
S'because'
p3918
aa(lp3919
g1324
aasg266
(lp3920
I3
aI1
aI1
asg268
(lp3921
S'Because he was absent for two weeks, the other students in his class are ahead of him.'
p3922
asg271
I75
sg272
(lp3923
(lp3924
a(lp3925
S'&C'
p3926
aa(lp3927
S'&R'
p3928
aasbsg278
(lp3929
(isxpPackage
sxpSent
p3930
(dp3931
g282
(lp3932
I10
asg284
VThe PropBank and our corpus are not exactly compatible, because the former is built on constituency-based parse trees, whereas our corpus uses dependency parses
p3933
sg286
I3
sg271
I46
sg287
I11
sbasba(icmyPackage
CELink
p3934
(dp3935
g3
(lp3936
g5
(g6
g7
(lp3937
g5
(g6
g7
(lp3938
g5
(g6
g7
(lp3939
g5
(g6
g7
(lp3940
VUsing
p3941
atp3942
Rp3943
(dp3944
g16
VVBG
p3945
sbag5
(g6
g7
(lp3946
g5
(g6
g7
(lp3947
Vcoarser
p3948
atp3949
Rp3950
(dp3951
g16
VNN
p3952
sbag5
(g6
g7
(lp3953
Vsuffix
p3954
atp3955
Rp3956
(dp3957
g16
VNN
p3958
sbag5
(g6
g7
(lp3959
Vtags
p3960
atp3961
Rp3962
(dp3963
g16
VNNS
p3964
sbatp3965
Rp3966
(dp3967
g16
VNP
p3968
sbatp3969
Rp3970
(dp3971
g16
VVP
p3972
sbag5
(g6
g7
(lp3973
g5
(g6
g7
(lp3974
Vcan
p3975
atp3976
Rp3977
(dp3978
g16
VMD
p3979
sbag5
(g6
g7
(lp3980
g5
(g6
g7
(lp3981
Vseriously
p3982
atp3983
Rp3984
(dp3985
g16
VRB
p3986
sbatp3987
Rp3988
(dp3989
g16
VADVP
p3990
sbag5
(g6
g7
(lp3991
g5
(g6
g7
(lp3992
Vdegrade
p3993
atp3994
Rp3995
(dp3996
g16
VVB
p3997
sbag5
(g6
g7
(lp3998
g5
(g6
g7
(lp3999
VSRL
p4000
atp4001
Rp4002
(dp4003
g16
VNNP
p4004
sbatp4005
Rp4006
(dp4007
g16
VNP
p4008
sbatp4009
Rp4010
(dp4011
g16
VVP
p4012
sbatp4013
Rp4014
(dp4015
g16
VVP
p4016
sbag5
(g6
g7
(lp4017
g5
(g6
g7
(lp4018
g5
(g6
g7
(lp4019
Vperformance
p4020
atp4021
Rp4022
(dp4023
g16
VNN
p4024
sbatp4025
Rp4026
(dp4027
g16
VNP
p4028
sbag5
(g6
g7
(lp4029
g581
atp4030
Rp4031
(dp4032
g16
g581
sbag5
(g6
g7
(lp4033
g5
(g6
g7
(lp4034
Vas
p4035
atp4036
Rp4037
(dp4038
g16
VIN
p4039
sbag5
(g6
g7
(lp4040
g5
(g6
g7
(lp4041
g5
(g6
g7
(lp4042
Vwe
p4043
atp4044
Rp4045
(dp4046
g16
VPRP
p4047
sbatp4048
Rp4049
(dp4050
g16
VNP
p4051
sbag5
(g6
g7
(lp4052
g5
(g6
g7
(lp4053
Vshow
p4054
atp4055
Rp4056
(dp4057
g16
VVBP
p4058
sbag5
(g6
g7
(lp4059
g5
(g6
g7
(lp4060
Vin
p4061
atp4062
Rp4063
(dp4064
g16
VIN
p4065
sbag5
(g6
g7
(lp4066
g5
(g6
g7
(lp4067
VSection
p4068
atp4069
Rp4070
(dp4071
g16
VNNP
p4072
sbag5
(g6
g7
(lp4073
V6
p4074
atp4075
Rp4076
(dp4077
g16
VCD
p4078
sbatp4079
Rp4080
(dp4081
g16
VNP
p4082
sbatp4083
Rp4084
(dp4085
g16
VPP
p4086
sbag5
(g6
g7
(lp4087
g581
atp4088
Rp4089
(dp4090
g16
g581
sbag5
(g6
g7
(lp4091
g5
(g6
g7
(lp4092
g5
(g6
g7
(lp4093
Vwhere
p4094
atp4095
Rp4096
(dp4097
g16
VWRB
p4098
sbatp4099
Rp4100
(dp4101
g16
VWHADVP
p4102
sbag5
(g6
g7
(lp4103
g5
(g6
g7
(lp4104
g5
(g6
g7
(lp4105
Vwe
p4106
atp4107
Rp4108
(dp4109
g16
VPRP
p4110
sbatp4111
Rp4112
(dp4113
g16
VNP
p4114
sbag5
(g6
g7
(lp4115
g5
(g6
g7
(lp4116
Vcompare
p4117
atp4118
Rp4119
(dp4120
g16
VVBP
p4121
sbag5
(g6
g7
(lp4122
g5
(g6
g7
(lp4123
g5
(g6
g7
(lp4124
Vthe
p4125
atp4126
Rp4127
(dp4128
g16
VDT
p4129
sbag5
(g6
g7
(lp4130
Vperformance
p4131
atp4132
Rp4133
(dp4134
g16
VNN
p4135
sbatp4136
Rp4137
(dp4138
g16
VNP
p4139
sbag5
(g6
g7
(lp4140
g5
(g6
g7
(lp4141
Vof
p4142
atp4143
Rp4144
(dp4145
g16
VIN
p4146
sbag5
(g6
g7
(lp4147
g5
(g6
g7
(lp4148
Vour
p4149
atp4150
Rp4151
(dp4152
g16
VPRP$
p4153
sbag5
(g6
g7
(lp4154
Vmodel
p4155
atp4156
Rp4157
(dp4158
g16
VNN
p4159
sbatp4160
Rp4161
(dp4162
g16
VNP
p4163
sbatp4164
Rp4165
(dp4166
g16
VPP
p4167
sbatp4168
Rp4169
(dp4170
g16
VNP
p4171
sbag5
(g6
g7
(lp4172
g5
(g6
g7
(lp4173
Von
p4174
atp4175
Rp4176
(dp4177
g16
VIN
p4178
sbag5
(g6
g7
(lp4179
g5
(g6
g7
(lp4180
Vboth
p4181
atp4182
Rp4183
(dp4184
g16
VPDT
p4185
sbag5
(g6
g7
(lp4186
g5
(g6
g7
(lp4187
Vthe
p4188
atp4189
Rp4190
(dp4191
g16
VDT
p4192
sbag5
(g6
g7
(lp4193
Vnew
p4194
atp4195
Rp4196
(dp4197
g16
VJJ
p4198
sbag5
(g6
g7
(lp4199
Vcorpus
p4200
atp4201
Rp4202
(dp4203
g16
VNN
p4204
sbatp4205
Rp4206
(dp4207
g16
VNP
p4208
sbag5
(g6
g7
(lp4209
Vand
p4210
atp4211
Rp4212
(dp4213
g16
VCC
p4214
sbag5
(g6
g7
(lp4215
g5
(g6
g7
(lp4216
Vthe
p4217
atp4218
Rp4219
(dp4220
g16
VDT
p4221
sbag5
(g6
g7
(lp4222
Volder
p4223
atp4224
Rp4225
(dp4226
g16
VJJR
p4227
sbag5
(g6
g7
(lp4228
VPKPB
p4229
atp4230
Rp4231
(dp4232
g16
VNN
p4233
sbatp4234
Rp4235
(dp4236
g16
VNP
p4237
sbatp4238
Rp4239
(dp4240
g16
VNP
p4241
sbatp4242
Rp4243
(dp4244
g16
VPP
p4245
sbatp4246
Rp4247
(dp4248
g16
VVP
p4249
sbatp4250
Rp4251
(dp4252
g16
g198
sbatp4253
Rp4254
(dp4255
g16
VSBAR
p4256
sbatp4257
Rp4258
(dp4259
g16
VVP
p4260
sbatp4261
Rp4262
(dp4263
g16
g198
sbatp4264
Rp4265
(dp4266
g16
VSBAR
p4267
sbatp4268
Rp4269
(dp4270
g16
VNP
p4271
sbatp4272
Rp4273
(dp4274
g16
VSINV
p4275
sbatp4276
Rp4277
(dp4278
g16
VROOT
p4279
sbasg236
(icmyPackage
CorE
p4280
(dp4281
g239
(lp4282
(I0
I11
tp4283
a(I0
I33
tp4284
asg243
g4262
sbsg244
(icmyPackage
CorE
p4285
(dp4286
g239
(lp4287
(I0
I1
tp4288
a(I0
I8
tp4289
asg243
g5
(g6
g7
(lp4290
g3966
ag4014
ag4026
atp4291
Rp4292
(dp4293
g16
g254
sbsbsg255
g1783
sg278
(lp4294
(isxpPackage
sxpSent
p4295
(dp4296
g282
(lp4297
I11
asg284
VUsing coarser suffix tags can seriously degrade SRL performance, as we show in Section 6 , where we compare the performance of our model on both the new corpus and the older PKPB
p4298
sg286
I3
sg271
I50
sg287
I12
sbasba(icmyPackage
CELink
p4299
(dp4300
g3
(lp4301
g5
(g6
g7
(lp4302
g5
(g6
g7
(lp4303
g5
(g6
g7
(lp4304
g5
(g6
g7
(lp4305
VKorean
p4306
atp4307
Rp4308
(dp4309
g16
VNNP
p4310
sbag5
(g6
g7
(lp4311
VSRL
p4312
atp4313
Rp4314
(dp4315
g16
VNNP
p4316
sbag5
(g6
g7
(lp4317
Vresearch
p4318
atp4319
Rp4320
(dp4321
g16
VNN
p4322
sbatp4323
Rp4324
(dp4325
g16
VNP
p4326
sbag5
(g6
g7
(lp4327
g5
(g6
g7
(lp4328
Vhas
p4329
atp4330
Rp4331
(dp4332
g16
VVBZ
p4333
sbag5
(g6
g7
(lp4334
g5
(g6
g7
(lp4335
Vbeen
p4336
atp4337
Rp4338
(dp4339
g16
VVBN
p4340
sbag5
(g6
g7
(lp4341
g5
(g6
g7
(lp4342
Vlimited
p4343
atp4344
Rp4345
(dp4346
g16
VVBN
p4347
sbag5
(g6
g7
(lp4348
g5
(g6
g7
(lp4349
Vto
p4350
atp4351
Rp4352
(dp4353
g16
VTO
p4354
sbag5
(g6
g7
(lp4355
g5
(g6
g7
(lp4356
g5
(g6
g7
(lp4357
Vdomestically
p4358
atp4359
Rp4360
(dp4361
g16
VRB
p4362
sbag5
(g6
g7
(lp4363
Vpublished
p4364
atp4365
Rp4366
(dp4367
g16
VVBN
p4368
sbatp4369
Rp4370
(dp4371
g16
VADJP
p4372
sbag5
(g6
g7
(lp4373
VKorean
p4374
atp4375
Rp4376
(dp4377
g16
VJJ
p4378
sbag5
(g6
g7
(lp4379
Vresearch
p4380
atp4381
Rp4382
(dp4383
g16
VNN
p4384
sbatp4385
Rp4386
(dp4387
g16
VNP
p4388
sbatp4389
Rp4390
(dp4391
g16
VPP
p4392
sbatp4393
Rp4394
(dp4395
g16
VADJP
p4396
sbag5
(g6
g7
(lp4397
g5
(g6
g7
(lp4398
Von
p4399
atp4400
Rp4401
(dp4402
g16
VIN
p4403
sbag5
(g6
g7
(lp4404
g5
(g6
g7
(lp4405
Vsmall
p4406
atp4407
Rp4408
(dp4409
g16
VJJ
p4410
sbag5
(g6
g7
(lp4411
Vcorpora
p4412
atp4413
Rp4414
(dp4415
g16
VNN
p4416
sbatp4417
Rp4418
(dp4419
g16
VNP
p4420
sbatp4421
Rp4422
(dp4423
g16
VPP
p4424
sbatp4425
Rp4426
(dp4427
g16
VVP
p4428
sbatp4429
Rp4430
(dp4431
g16
VVP
p4432
sbatp4433
Rp4434
(dp4435
g16
g198
sbatp4436
Rp4437
(dp4438
g16
VROOT
p4439
sbag5
(g6
g7
(lp4440
g5
(g6
g7
(lp4441
g5
(g6
g7
(lp4442
g5
(g6
g7
(lp4443
VTherefore
p4444
atp4445
Rp4446
(dp4447
g16
VRB
p4448
sbatp4449
Rp4450
(dp4451
g16
VADVP
p4452
sbag5
(g6
g7
(lp4453
g581
atp4454
Rp4455
(dp4456
g16
g581
sbag5
(g6
g7
(lp4457
g5
(g6
g7
(lp4458
g5
(g6
g7
(lp4459
Vthe
p4460
atp4461
Rp4462
(dp4463
g16
VDT
p4464
sbag5
(g6
g7
(lp4465
g5
(g6
g7
(lp4466
Vmost
p4467
atp4468
Rp4469
(dp4470
g16
VRBS
p4471
sbag5
(g6
g7
(lp4472
Vdirect
p4473
atp4474
Rp4475
(dp4476
g16
VJJ
p4477
sbatp4478
Rp4479
(dp4480
g16
VADJP
p4481
sbag5
(g6
g7
(lp4482
Vprecedent
p4483
atp4484
Rp4485
(dp4486
g16
VNN
p4487
sbatp4488
Rp4489
(dp4490
g16
VNP
p4491
sbag5
(g6
g7
(lp4492
g5
(g6
g7
(lp4493
Vto
p4494
atp4495
Rp4496
(dp4497
g16
VTO
p4498
sbag5
(g6
g7
(lp4499
g5
(g6
g7
(lp4500
Vthe
p4501
atp4502
Rp4503
(dp4504
g16
VDT
p4505
sbag5
(g6
g7
(lp4506
Vpresent
p4507
atp4508
Rp4509
(dp4510
g16
VJJ
p4511
sbag5
(g6
g7
(lp4512
Vwork
p4513
atp4514
Rp4515
(dp4516
g16
VNN
p4517
sbatp4518
Rp4519
(dp4520
g16
VNP
p4521
sbatp4522
Rp4523
(dp4524
g16
VPP
p4525
sbatp4526
Rp4527
(dp4528
g16
VNP
p4529
sbag5
(g6
g7
(lp4530
g5
(g6
g7
(lp4531
Vis
p4532
atp4533
Rp4534
(dp4535
g16
VVBZ
p4536
sbag5
(g6
g7
(lp4537
g5
(g6
g7
(lp4538
g5
(g6
g7
(lp4539
g42
atp4540
Rp4541
(dp4542
g16
VDT
p4543
sbag5
(g6
g7
(lp4544
Vsection
p4545
atp4546
Rp4547
(dp4548
g16
VNN
p4549
sbatp4550
Rp4551
(dp4552
g16
VNP
p4553
sbag5
(g6
g7
(lp4554
g5
(g6
g7
(lp4555
Vin
p4556
atp4557
Rp4558
(dp4559
g16
VIN
p4560
sbag5
(g6
g7
(lp4561
g5
(g6
g7
(lp4562
VBj
p4563
atp4564
Rp4565
(dp4566
g16
VNNP
p4567
sbag5
(g6
g7
(lp4568
Vrkelund
p4569
atp4570
Rp4571
(dp4572
g16
VNNP
p4573
sbag5
(g6
g7
(lp4574
Vet
p4575
atp4576
Rp4577
(dp4578
g16
VCC
p4579
sbag5
(g6
g7
(lp4580
Val
p4581
atp4582
Rp4583
(dp4584
g16
VNNP
p4585
sbatp4586
Rp4587
(dp4588
g16
VNP
p4589
sbatp4590
Rp4591
(dp4592
g16
VPP
p4593
sbatp4594
Rp4595
(dp4596
g16
VNP
p4597
sbatp4598
Rp4599
(dp4600
g16
VVP
p4601
sbatp4602
Rp4603
(dp4604
g16
g198
sbatp4605
Rp4606
(dp4607
g16
VROOT
p4608
sbasg236
(icmyPackage
CorE
p4609
(dp4610
g239
(lp4611
(I0
I0
tp4612
a(I0
I13
tp4613
asg243
g4437
sbsg244
(icmyPackage
CorE
p4614
(dp4615
g239
(lp4616
(I1
I2
tp4617
a(I1
I17
tp4618
asg243
g5
(g6
g7
(lp4619
g4527
ag4599
atp4620
Rp4621
(dp4622
g16
g254
sbsbsg255
(icmyPackage
pattern
p4623
(dp4624
g258
I62
sg259
I1
sg260
(lp4625
(lp4626
S'therefore'
p4627
aasg266
(lp4628
I1
aI1
aI1
asg268
(lp4629
S'He never lies; therefore, everyone likes to make friends with him.'
p4630
asg271
I1
sg272
(lp4631
(lp4632
S'&C'
p4633
aS'(,/;/./--)'
p4634
aS'(&AND)'
p4635
aa(lp4636
S'(,)'
p4637
aS'&R'
p4638
aasbsg278
(lp4639
(isxpPackage
sxpSent
p4640
(dp4641
g282
(lp4642
I12
asg284
VKorean SRL research has been limited to domestically published Korean research on small corpora
p4643
sg286
I4
sg271
I51
sg287
I13
sba(isxpPackage
sxpSent
p4644
(dp4645
g282
(lp4646
I12
asg284
VTherefore, the most direct precedent to the present work is a section in Bjrkelund et al
p4647
sg286
I4
sg271
I52
sg287
I13
sbasba(icmyPackage
CELink
p4648
(dp4649
g3
(lp4650
g5
(g6
g7
(lp4651
g5
(g6
g7
(lp4652
g5
(g6
g7
(lp4653
g5
(g6
g7
(lp4654
VThis
p4655
atp4656
Rp4657
(dp4658
g16
VDT
p4659
sbag5
(g6
g7
(lp4660
Vresult
p4661
atp4662
Rp4663
(dp4664
g16
VNN
p4665
sbatp4666
Rp4667
(dp4668
g16
VNP
p4669
sbag5
(g6
g7
(lp4670
g5
(g6
g7
(lp4671
Vshowcases
p4672
atp4673
Rp4674
(dp4675
g16
VVBZ
p4676
sbag5
(g6
g7
(lp4677
g5
(g6
g7
(lp4678
g5
(g6
g7
(lp4679
Vthe
p4680
atp4681
Rp4682
(dp4683
g16
VDT
p4684
sbag5
(g6
g7
(lp4685
Vcomputational
p4686
atp4687
Rp4688
(dp4689
g16
VJJ
p4690
sbag5
(g6
g7
(lp4691
Vdifficulty
p4692
atp4693
Rp4694
(dp4695
g16
VNN
p4696
sbatp4697
Rp4698
(dp4699
g16
VNP
p4700
sbag5
(g6
g7
(lp4701
g5
(g6
g7
(lp4702
Vof
p4703
atp4704
Rp4705
(dp4706
g16
VIN
p4707
sbag5
(g6
g7
(lp4708
g5
(g6
g7
(lp4709
g5
(g6
g7
(lp4710
Vdealing
p4711
atp4712
Rp4713
(dp4714
g16
VVBG
p4715
sbag5
(g6
g7
(lp4716
g5
(g6
g7
(lp4717
Vwith
p4718
atp4719
Rp4720
(dp4721
g16
VIN
p4722
sbag5
(g6
g7
(lp4723
g5
(g6
g7
(lp4724
g5
(g6
g7
(lp4725
Vmorphologically
p4726
atp4727
Rp4728
(dp4729
g16
VRB
p4730
sbag5
(g6
g7
(lp4731
Vrich
p4732
atp4733
Rp4734
(dp4735
g16
VJJ
p4736
sbatp4737
Rp4738
(dp4739
g16
VADJP
p4740
sbag5
(g6
g7
(lp4741
Vagglutinative
p4742
atp4743
Rp4744
(dp4745
g16
VNN
p4746
sbag5
(g6
g7
(lp4747
Vlanguages
p4748
atp4749
Rp4750
(dp4751
g16
VNNS
p4752
sbatp4753
Rp4754
(dp4755
g16
VNP
p4756
sbatp4757
Rp4758
(dp4759
g16
VPP
p4760
sbatp4761
Rp4762
(dp4763
g16
VVP
p4764
sbatp4765
Rp4766
(dp4767
g16
g198
sbatp4768
Rp4769
(dp4770
g16
VPP
p4771
sbatp4772
Rp4773
(dp4774
g16
VNP
p4775
sbatp4776
Rp4777
(dp4778
g16
VVP
p4779
sbatp4780
Rp4781
(dp4782
g16
g198
sbatp4783
Rp4784
(dp4785
g16
VROOT
p4786
sbag5
(g6
g7
(lp4787
g5
(g6
g7
(lp4788
g5
(g6
g7
(lp4789
g5
(g6
g7
(lp4790
VAs
p4791
atp4792
Rp4793
(dp4794
g16
VIN
p4795
sbag5
(g6
g7
(lp4796
g5
(g6
g7
(lp4797
g5
(g6
g7
(lp4798
Vwe
p4799
atp4800
Rp4801
(dp4802
g16
VPRP
p4803
sbatp4804
Rp4805
(dp4806
g16
VNP
p4807
sbag5
(g6
g7
(lp4808
g5
(g6
g7
(lp4809
Vdiscuss
p4810
atp4811
Rp4812
(dp4813
g16
VVB
p4814
sbag5
(g6
g7
(lp4815
g5
(g6
g7
(lp4816
Vin
p4817
atp4818
Rp4819
(dp4820
g16
VIN
p4821
sbag5
(g6
g7
(lp4822
g5
(g6
g7
(lp4823
VSection
p4824
atp4825
Rp4826
(dp4827
g16
VNNP
p4828
sbag5
(g6
g7
(lp4829
g1552
atp4830
Rp4831
(dp4832
g16
VCD
p4833
sbatp4834
Rp4835
(dp4836
g16
VNP
p4837
sbatp4838
Rp4839
(dp4840
g16
VPP
p4841
sbatp4842
Rp4843
(dp4844
g16
VVP
p4845
sbatp4846
Rp4847
(dp4848
g16
g198
sbatp4849
Rp4850
(dp4851
g16
VSBAR
p4852
sbag5
(g6
g7
(lp4853
g581
atp4854
Rp4855
(dp4856
g16
g581
sbag5
(g6
g7
(lp4857
g5
(g6
g7
(lp4858
Vwe
p4859
atp4860
Rp4861
(dp4862
g16
VPRP
p4863
sbatp4864
Rp4865
(dp4866
g16
VNP
p4867
sbag5
(g6
g7
(lp4868
g5
(g6
g7
(lp4869
g5
(g6
g7
(lp4870
Vutilize
p4871
atp4872
Rp4873
(dp4874
g16
VVBZ
p4875
sbag5
(g6
g7
(lp4876
g5
(g6
g7
(lp4877
Vthese
p4878
atp4879
Rp4880
(dp4881
g16
VDT
p4882
sbag5
(g6
g7
(lp4883
Vsame
p4884
atp4885
Rp4886
(dp4887
g16
VJJ
p4888
sbag5
(g6
g7
(lp4889
Vfeatures
p4890
atp4891
Rp4892
(dp4893
g16
VNNS
p4894
sbatp4895
Rp4896
(dp4897
g16
VNP
p4898
sbatp4899
Rp4900
(dp4901
g16
VVP
p4902
sbag5
(g6
g7
(lp4903
g581
atp4904
Rp4905
(dp4906
g16
g581
sbag5
(g6
g7
(lp4907
Vbut
p4908
atp4909
Rp4910
(dp4911
g16
VCC
p4912
sbag5
(g6
g7
(lp4913
g5
(g6
g7
(lp4914
g5
(g6
g7
(lp4915
Valso
p4916
atp4917
Rp4918
(dp4919
g16
VRB
p4920
sbatp4921
Rp4922
(dp4923
g16
VADVP
p4924
sbag5
(g6
g7
(lp4925
Vadd
p4926
atp4927
Rp4928
(dp4929
g16
VVBP
p4930
sbag5
(g6
g7
(lp4931
g5
(g6
g7
(lp4932
g5
(g6
g7
(lp4933
g42
atp4934
Rp4935
(dp4936
g16
VDT
p4937
sbag5
(g6
g7
(lp4938
Vset
p4939
atp4940
Rp4941
(dp4942
g16
VNN
p4943
sbatp4944
Rp4945
(dp4946
g16
VNP
p4947
sbag5
(g6
g7
(lp4948
g5
(g6
g7
(lp4949
Vof
p4950
atp4951
Rp4952
(dp4953
g16
VIN
p4954
sbag5
(g6
g7
(lp4955
g5
(g6
g7
(lp4956
VKorean-specific
p4957
atp4958
Rp4959
(dp4960
g16
VNNP
p4961
sbag5
(g6
g7
(lp4962
Vfeatures
p4963
atp4964
Rp4965
(dp4966
g16
VNNS
p4967
sbag5
(g6
g7
(lp4968
g5
(g6
g7
(lp4969
g5
(g6
g7
(lp4970
Vto
p4971
atp4972
Rp4973
(dp4974
g16
VTO
p4975
sbag5
(g6
g7
(lp4976
g5
(g6
g7
(lp4977
Vcapture
p4978
atp4979
Rp4980
(dp4981
g16
VVB
p4982
sbag5
(g6
g7
(lp4983
g5
(g6
g7
(lp4984
g5
(g6
g7
(lp4985
Vaspects
p4986
atp4987
Rp4988
(dp4989
g16
VNNS
p4990
sbatp4991
Rp4992
(dp4993
g16
VNP
p4994
sbag5
(g6
g7
(lp4995
g5
(g6
g7
(lp4996
Vof
p4997
atp4998
Rp4999
(dp5000
g16
VIN
p5001
sbag5
(g6
g7
(lp5002
g5
(g6
g7
(lp5003
VKorean
p5004
atp5005
Rp5006
(dp5007
g16
VJJ
p5008
sbag5
(g6
g7
(lp5009
Vmorphology
p5010
atp5011
Rp5012
(dp5013
g16
VNN
p5014
sbatp5015
Rp5016
(dp5017
g16
VNP
p5018
sbatp5019
Rp5020
(dp5021
g16
VPP
p5022
sbatp5023
Rp5024
(dp5025
g16
VNP
p5026
sbatp5027
Rp5028
(dp5029
g16
VVP
p5030
sbatp5031
Rp5032
(dp5033
g16
VVP
p5034
sbatp5035
Rp5036
(dp5037
g16
g198
sbatp5038
Rp5039
(dp5040
g16
VNP
p5041
sbatp5042
Rp5043
(dp5044
g16
VPP
p5045
sbatp5046
Rp5047
(dp5048
g16
VNP
p5049
sbatp5050
Rp5051
(dp5052
g16
VVP
p5053
sbatp5054
Rp5055
(dp5056
g16
VVP
p5057
sbatp5058
Rp5059
(dp5060
g16
g198
sbatp5061
Rp5062
(dp5063
g16
VROOT
p5064
sbasg236
(icmyPackage
CorE
p5065
(dp5066
g239
(lp5067
(I1
I1
tp5068
a(I1
I12
tp5069
asg243
g5
(g6
g7
(lp5070
g4847
ag4855
ag4865
ag4900
ag4905
atp5071
Rp5072
(dp5073
g16
g254
sbsbsg244
(icmyPackage
CorE
p5074
(dp5075
g239
(lp5076
(I0
I0
tp5077
a(I0
I12
tp5078
asg243
g4784
sbsg255
g1783
sg278
(lp5079
(isxpPackage
sxpSent
p5080
(dp5081
g282
(lp5082
I13
asg284
VThis result showcases the computational difficulty of dealing with morphologically rich agglutinative languages
p5083
sg286
I4
sg271
I57
sg287
I14
sba(isxpPackage
sxpSent
p5084
(dp5085
g282
(lp5086
I13
asg284
VAs we discuss in Section 5 , we utilize these same features, but also add a set of Korean-specific features to capture aspects of Korean morphology
p5087
sg286
I4
sg271
I58
sg287
I14
sbasba(icmyPackage
CELink
p5088
(dp5089
g3
(lp5090
g5
(g6
g7
(lp5091
g5
(g6
g7
(lp5092
g5
(g6
g7
(lp5093
g5
(g6
g7
(lp5094
VBesides
p5095
atp5096
Rp5097
(dp5098
g16
VIN
p5099
sbag5
(g6
g7
(lp5100
g5
(g6
g7
(lp5101
Vthese
p5102
atp5103
Rp5104
(dp5105
g16
VDT
p5106
sbag5
(g6
g7
(lp5107
Vmorphological
p5108
atp5109
Rp5110
(dp5111
g16
VJJ
p5112
sbag5
(g6
g7
(lp5113
Vfeatures
p5114
atp5115
Rp5116
(dp5117
g16
VNNS
p5118
sbatp5119
Rp5120
(dp5121
g16
VNP
p5122
sbatp5123
Rp5124
(dp5125
g16
VPP
p5126
sbag5
(g6
g7
(lp5127
g581
atp5128
Rp5129
(dp5130
g16
g581
sbag5
(g6
g7
(lp5131
g5
(g6
g7
(lp5132
Vwe
p5133
atp5134
Rp5135
(dp5136
g16
VPRP
p5137
sbatp5138
Rp5139
(dp5140
g16
VNP
p5141
sbag5
(g6
g7
(lp5142
g5
(g6
g7
(lp5143
Valso
p5144
atp5145
Rp5146
(dp5147
g16
VRB
p5148
sbatp5149
Rp5150
(dp5151
g16
VADVP
p5152
sbag5
(g6
g7
(lp5153
g5
(g6
g7
(lp5154
Vemploy
p5155
atp5156
Rp5157
(dp5158
g16
VVBP
p5159
sbag5
(g6
g7
(lp5160
g5
(g6
g7
(lp5161
g5
(g6
g7
(lp5162
Vlatent
p5163
atp5164
Rp5165
(dp5166
g16
VJJ
p5167
sbag5
(g6
g7
(lp5168
Vcontinuous
p5169
atp5170
Rp5171
(dp5172
g16
VJJ
p5173
sbatp5174
Rp5175
(dp5176
g16
VADJP
p5177
sbag5
(g6
g7
(lp5178
Vand
p5179
atp5180
Rp5181
(dp5182
g16
VCC
p5183
sbag5
(g6
g7
(lp5184
g5
(g6
g7
(lp5185
g5
(g6
g7
(lp5186
Vdiscrete
p5187
atp5188
Rp5189
(dp5190
g16
VJJ
p5191
sbag5
(g6
g7
(lp5192
Vmorpheme
p5193
atp5194
Rp5195
(dp5196
g16
VNN
p5197
sbag5
(g6
g7
(lp5198
Vrepresentations
p5199
atp5200
Rp5201
(dp5202
g16
VNNS
p5203
sbatp5204
Rp5205
(dp5206
g16
VNP
p5207
sbag5
(g6
g7
(lp5208
g5
(g6
g7
(lp5209
Vinduced
p5210
atp5211
Rp5212
(dp5213
g16
VVBN
p5214
sbag5
(g6
g7
(lp5215
g5
(g6
g7
(lp5216
Vfrom
p5217
atp5218
Rp5219
(dp5220
g16
VIN
p5221
sbag5
(g6
g7
(lp5222
g5
(g6
g7
(lp5223
g5
(g6
g7
(lp5224
g42
atp5225
Rp5226
(dp5227
g16
VDT
p5228
sbag5
(g6
g7
(lp5229
Vlarger
p5230
atp5231
Rp5232
(dp5233
g16
VJJR
p5234
sbag5
(g6
g7
(lp5235
Vbody
p5236
atp5237
Rp5238
(dp5239
g16
VNN
p5240
sbatp5241
Rp5242
(dp5243
g16
VNP
p5244
sbag5
(g6
g7
(lp5245
g5
(g6
g7
(lp5246
Vof
p5247
atp5248
Rp5249
(dp5250
g16
VIN
p5251
sbag5
(g6
g7
(lp5252
g5
(g6
g7
(lp5253
Vunannotated
p5254
atp5255
Rp5256
(dp5257
g16
VJJ
p5258
sbag5
(g6
g7
(lp5259
VKorean
p5260
atp5261
Rp5262
(dp5263
g16
VJJ
p5264
sbag5
(g6
g7
(lp5265
Vtext
p5266
atp5267
Rp5268
(dp5269
g16
VNN
p5270
sbatp5271
Rp5272
(dp5273
g16
VNP
p5274
sbatp5275
Rp5276
(dp5277
g16
VPP
p5278
sbatp5279
Rp5280
(dp5281
g16
VNP
p5282
sbatp5283
Rp5284
(dp5285
g16
VPP
p5286
sbatp5287
Rp5288
(dp5289
g16
VVP
p5290
sbatp5291
Rp5292
(dp5293
g16
VNP
p5294
sbatp5295
Rp5296
(dp5297
g16
VUCP
p5298
sbatp5299
Rp5300
(dp5301
g16
VVP
p5302
sbatp5303
Rp5304
(dp5305
g16
g198
sbatp5306
Rp5307
(dp5308
g16
VROOT
p5309
sbag5
(g6
g7
(lp5310
g5
(g6
g7
(lp5311
g5
(g6
g7
(lp5312
g5
(g6
g7
(lp5313
VAs
p5314
atp5315
Rp5316
(dp5317
g16
VIN
p5318
sbag5
(g6
g7
(lp5319
g5
(g6
g7
(lp5320
g5
(g6
g7
(lp5321
Vour
p5322
atp5323
Rp5324
(dp5325
g16
VPRP$
p5326
sbag5
(g6
g7
(lp5327
Vexperiments
p5328
atp5329
Rp5330
(dp5331
g16
VNNS
p5332
sbatp5333
Rp5334
(dp5335
g16
VNP
p5336
sbag5
(g6
g7
(lp5337
g5
(g6
g7
(lp5338
Vbelow
p5339
atp5340
Rp5341
(dp5342
g16
VIN
p5343
sbag5
(g6
g7
(lp5344
g5
(g6
g7
(lp5345
Vshow
p5346
atp5347
Rp5348
(dp5349
g16
VNN
p5350
sbatp5351
Rp5352
(dp5353
g16
VNP
p5354
sbatp5355
Rp5356
(dp5357
g16
VPP
p5358
sbatp5359
Rp5360
(dp5361
g16
VNP
p5362
sbatp5363
Rp5364
(dp5365
g16
VPP
p5366
sbag5
(g6
g7
(lp5367
g581
atp5368
Rp5369
(dp5370
g16
g581
sbag5
(g6
g7
(lp5371
g5
(g6
g7
(lp5372
Vthese
p5373
atp5374
Rp5375
(dp5376
g16
VDT
p5377
sbag5
(g6
g7
(lp5378
Vfeatures
p5379
atp5380
Rp5381
(dp5382
g16
VNNS
p5383
sbatp5384
Rp5385
(dp5386
g16
VNP
p5387
sbag5
(g6
g7
(lp5388
g5
(g6
g7
(lp5389
Vimprove
p5390
atp5391
Rp5392
(dp5393
g16
VVBP
p5394
sbag5
(g6
g7
(lp5395
g5
(g6
g7
(lp5396
Vperformance
p5397
atp5398
Rp5399
(dp5400
g16
VNN
p5401
sbatp5402
Rp5403
(dp5404
g16
VNP
p5405
sbag5
(g6
g7
(lp5406
g5
(g6
g7
(lp5407
Vby
p5408
atp5409
Rp5410
(dp5411
g16
VIN
p5412
sbag5
(g6
g7
(lp5413
g5
(g6
g7
(lp5414
g5
(g6
g7
(lp5415
Vdealing
p5416
atp5417
Rp5418
(dp5419
g16
VVBG
p5420
sbag5
(g6
g7
(lp5421
g5
(g6
g7
(lp5422
Vwith
p5423
atp5424
Rp5425
(dp5426
g16
VIN
p5427
sbag5
(g6
g7
(lp5428
g5
(g6
g7
(lp5429
Vsparsity
p5430
atp5431
Rp5432
(dp5433
g16
VJJ
p5434
sbag5
(g6
g7
(lp5435
Vissues
p5436
atp5437
Rp5438
(dp5439
g16
VNNS
p5440
sbatp5441
Rp5442
(dp5443
g16
VNP
p5444
sbatp5445
Rp5446
(dp5447
g16
VPP
p5448
sbatp5449
Rp5450
(dp5451
g16
VVP
p5452
sbatp5453
Rp5454
(dp5455
g16
g198
sbatp5456
Rp5457
(dp5458
g16
VPP
p5459
sbatp5460
Rp5461
(dp5462
g16
VVP
p5463
sbatp5464
Rp5465
(dp5466
g16
g198
sbatp5467
Rp5468
(dp5469
g16
VROOT
p5470
sbasg236
(icmyPackage
CorE
p5471
(dp5472
g239
(lp5473
(I1
I1
tp5474
a(I1
I14
tp5475
asg243
g5
(g6
g7
(lp5476
g5360
ag5369
ag5385
ag5461
atp5477
Rp5478
(dp5479
g16
g254
sbsbsg244
(icmyPackage
CorE
p5480
(dp5481
g239
(lp5482
(I0
I0
tp5483
a(I0
I22
tp5484
asg243
g5307
sbsg255
g1783
sg278
(lp5485
(isxpPackage
sxpSent
p5486
(dp5487
g282
(lp5488
I14
asg284
VBesides these morphological features, we also employ latent continuous and discrete morpheme representations induced from a larger body of unannotated Korean text
p5489
sg286
I4
sg271
I59
sg287
I15
sba(isxpPackage
sxpSent
p5490
(dp5491
g282
(lp5492
I14
asg284
VAs our experiments below show, these features improve performance by dealing with sparsity issues
p5493
sg286
I4
sg271
I60
sg287
I15
sbasba(icmyPackage
CELink
p5494
(dp5495
g3
(lp5496
g5
(g6
g7
(lp5497
g5
(g6
g7
(lp5498
g5
(g6
g7
(lp5499
g5
(g6
g7
(lp5500
VUnlike
p5501
atp5502
Rp5503
(dp5504
g16
VIN
p5505
sbag5
(g6
g7
(lp5506
g5
(g6
g7
(lp5507
Vthe
p5508
atp5509
Rp5510
(dp5511
g16
VDT
p5512
sbag5
(g6
g7
(lp5513
VEnglish
p5514
atp5515
Rp5516
(dp5517
g16
VJJ
p5518
sbag5
(g6
g7
(lp5519
Vmodels
p5520
atp5521
Rp5522
(dp5523
g16
VNNS
p5524
sbatp5525
Rp5526
(dp5527
g16
VNP
p5528
sbatp5529
Rp5530
(dp5531
g16
VPP
p5532
sbag5
(g6
g7
(lp5533
g581
atp5534
Rp5535
(dp5536
g16
g581
sbag5
(g6
g7
(lp5537
g5
(g6
g7
(lp5538
Vwe
p5539
atp5540
Rp5541
(dp5542
g16
VPRP
p5543
sbatp5544
Rp5545
(dp5546
g16
VNP
p5547
sbag5
(g6
g7
(lp5548
g5
(g6
g7
(lp5549
Vuse
p5550
atp5551
Rp5552
(dp5553
g16
VVBP
p5554
sbag5
(g6
g7
(lp5555
g5
(g6
g7
(lp5556
Vindividual
p5557
atp5558
Rp5559
(dp5560
g16
VJJ
p5561
sbag5
(g6
g7
(lp5562
Vmorphemes
p5563
atp5564
Rp5565
(dp5566
g16
VNNS
p5567
sbatp5568
Rp5569
(dp5570
g16
VNP
p5571
sbag5
(g6
g7
(lp5572
g5
(g6
g7
(lp5573
Vas
p5574
atp5575
Rp5576
(dp5577
g16
VIN
p5578
sbag5
(g6
g7
(lp5579
g5
(g6
g7
(lp5580
g5
(g6
g7
(lp5581
Vour
p5582
atp5583
Rp5584
(dp5585
g16
VPRP$
p5586
sbag5
(g6
g7
(lp5587
Vunit
p5588
atp5589
Rp5590
(dp5591
g16
VNN
p5592
sbatp5593
Rp5594
(dp5595
g16
VNP
p5596
sbag5
(g6
g7
(lp5597
g5
(g6
g7
(lp5598
Vof
p5599
atp5600
Rp5601
(dp5602
g16
VIN
p5603
sbag5
(g6
g7
(lp5604
g5
(g6
g7
(lp5605
Vanalysis
p5606
atp5607
Rp5608
(dp5609
g16
VNN
p5610
sbatp5611
Rp5612
(dp5613
g16
VNP
p5614
sbatp5615
Rp5616
(dp5617
g16
VPP
p5618
sbatp5619
Rp5620
(dp5621
g16
VNP
p5622
sbatp5623
Rp5624
(dp5625
g16
VPP
p5626
sbatp5627
Rp5628
(dp5629
g16
VVP
p5630
sbatp5631
Rp5632
(dp5633
g16
g198
sbatp5634
Rp5635
(dp5636
g16
VROOT
p5637
sbag5
(g6
g7
(lp5638
g5
(g6
g7
(lp5639
g5
(g6
g7
(lp5640
g5
(g6
g7
(lp5641
VFor
p5642
atp5643
Rp5644
(dp5645
g16
VIN
p5646
sbag5
(g6
g7
(lp5647
g5
(g6
g7
(lp5648
Vthe
p5649
atp5650
Rp5651
(dp5652
g16
VDT
p5653
sbag5
(g6
g7
(lp5654
Vsemantic
p5655
atp5656
Rp5657
(dp5658
g16
VJJ
p5659
sbag5
(g6
g7
(lp5660
Vrole
p5661
atp5662
Rp5663
(dp5664
g16
VNN
p5665
sbag5
(g6
g7
(lp5666
Vtask
p5667
atp5668
Rp5669
(dp5670
g16
VNN
p5671
sbatp5672
Rp5673
(dp5674
g16
VNP
p5675
sbatp5676
Rp5677
(dp5678
g16
VPP
p5679
sbag5
(g6
g7
(lp5680
g581
atp5681
Rp5682
(dp5683
g16
g581
sbag5
(g6
g7
(lp5684
g5
(g6
g7
(lp5685
Vthe
p5686
atp5687
Rp5688
(dp5689
g16
VDT
p5690
sbag5
(g6
g7
(lp5691
Vinput
p5692
atp5693
Rp5694
(dp5695
g16
VNN
p5696
sbatp5697
Rp5698
(dp5699
g16
VNP
p5700
sbag5
(g6
g7
(lp5701
g5
(g6
g7
(lp5702
Vis
p5703
atp5704
Rp5705
(dp5706
g16
VVBZ
p5707
sbag5
(g6
g7
(lp5708
g5
(g6
g7
(lp5709
g5
(g6
g7
(lp5710
g42
atp5711
Rp5712
(dp5713
g16
VDT
p5714
sbag5
(g6
g7
(lp5715
Vsentence
p5716
atp5717
Rp5718
(dp5719
g16
VNN
p5720
sbatp5721
Rp5722
(dp5723
g16
VNP
p5724
sbag5
(g6
g7
(lp5725
g5
(g6
g7
(lp5726
Vconsisting
p5727
atp5728
Rp5729
(dp5730
g16
VVBG
p5731
sbag5
(g6
g7
(lp5732
g5
(g6
g7
(lp5733
Vof
p5734
atp5735
Rp5736
(dp5737
g16
VIN
p5738
sbag5
(g6
g7
(lp5739
g5
(g6
g7
(lp5740
g5
(g6
g7
(lp5741
g42
atp5742
Rp5743
(dp5744
g16
VDT
p5745
sbag5
(g6
g7
(lp5746
Vsequence
p5747
atp5748
Rp5749
(dp5750
g16
VNN
p5751
sbatp5752
Rp5753
(dp5754
g16
VNP
p5755
sbag5
(g6
g7
(lp5756
g5
(g6
g7
(lp5757
Vof
p5758
atp5759
Rp5760
(dp5761
g16
VIN
p5762
sbag5
(g6
g7
(lp5763
g5
(g6
g7
(lp5764
g5
(g6
g7
(lp5765
g5
(g6
g7
(lp5766
Vwords
p5767
atp5768
Rp5769
(dp5770
g16
VNNS
p5771
sbatp5772
Rp5773
(dp5774
g16
VNP
p5775
sbag5
(g6
g7
(lp5776
g5
(g6
g7
(lp5777
Vx
p5778
atp5779
Rp5780
(dp5781
g16
VVBN
p5782
sbag5
(g6
g7
(lp5783
g5
(g6
g7
(lp5784
g5
(g6
g7
(lp5785
V=
p5786
atp5787
Rp5788
(dp5789
g16
VSYM
p5790
sbag5
(g6
g7
(lp5791
g5
(g6
g7
(lp5792
g5778
atp5793
Rp5794
(dp5795
g16
VCD
p5796
sbag5
(g6
g7
(lp5797
V1
p5798
atp5799
Rp5800
(dp5801
g16
VCD
p5802
sbatp5803
Rp5804
(dp5805
g16
VNP
p5806
sbatp5807
Rp5808
(dp5809
g16
VVP
p5810
sbatp5811
Rp5812
(dp5813
g16
g198
sbatp5814
Rp5815
(dp5816
g16
VVP
p5817
sbatp5818
Rp5819
(dp5820
g16
VNP
p5821
sbag5
(g6
g7
(lp5822
g581
atp5823
Rp5824
(dp5825
g16
g581
sbag5
(g6
g7
(lp5826
g5
(g6
g7
(lp5827
g5
(g6
g7
(lp5828
Vu
p5829
atp5830
Rp5831
(dp5832
g16
VNNP
p5833
sbag5
(g6
g7
(lp5834
V'
p5835
atp5836
Rp5837
(dp5838
g16
VPOS
p5839
sbatp5840
Rp5841
(dp5842
g16
VNP
p5843
sbag5
(g6
g7
(lp5844
V\u005c
p5845
atp5846
Rp5847
(dp5848
g16
VNN
p5849
sbag5
(g6
g7
(lp5850
Vu2026
p5851
atp5852
Rp5853
(dp5854
g16
VNNS
p5855
sbag5
(g6
g7
(lp5856
g5835
atp5857
Rp5858
(dp5859
g16
V''
p5860
sbatp5861
Rp5862
(dp5863
g16
VNP
p5864
sbag5
(g6
g7
(lp5865
g581
atp5866
Rp5867
(dp5868
g16
g581
sbag5
(g6
g7
(lp5869
g5
(g6
g7
(lp5870
g5
(g6
g7
(lp5871
g5778
atp5872
Rp5873
(dp5874
g16
VSYM
p5875
sbatp5876
Rp5877
(dp5878
g16
VNP
p5879
sbag5
(g6
g7
(lp5880
g5
(g6
g7
(lp5881
g5
(g6
g7
(lp5882
g5
(g6
g7
(lp5883
g5
(g6
g7
(lp5884
Vn
p5885
atp5886
Rp5887
(dp5888
g16
VNN
p5889
sbatp5890
Rp5891
(dp5892
g16
VNP
p5893
sbag5
(g6
g7
(lp5894
Vand
p5895
atp5896
Rp5897
(dp5898
g16
VCC
p5899
sbag5
(g6
g7
(lp5900
g5
(g6
g7
(lp5901
Vthe
p5902
atp5903
Rp5904
(dp5905
g16
VDT
p5906
sbag5
(g6
g7
(lp5907
Voutput
p5908
atp5909
Rp5910
(dp5911
g16
VNN
p5912
sbatp5913
Rp5914
(dp5915
g16
VNP
p5916
sbatp5917
Rp5918
(dp5919
g16
VNP
p5920
sbag5
(g6
g7
(lp5921
g5
(g6
g7
(lp5922
Vis
p5923
atp5924
Rp5925
(dp5926
g16
VVBZ
p5927
sbag5
(g6
g7
(lp5928
g5
(g6
g7
(lp5929
g5
(g6
g7
(lp5930
g42
atp5931
Rp5932
(dp5933
g16
VDT
p5934
sbag5
(g6
g7
(lp5935
Vsequence
p5936
atp5937
Rp5938
(dp5939
g16
VNN
p5940
sbatp5941
Rp5942
(dp5943
g16
VNP
p5944
sbag5
(g6
g7
(lp5945
g5
(g6
g7
(lp5946
Vof
p5947
atp5948
Rp5949
(dp5950
g16
VIN
p5951
sbag5
(g6
g7
(lp5952
g5
(g6
g7
(lp5953
g5
(g6
g7
(lp5954
Vcorresponding
p5955
atp5956
Rp5957
(dp5958
g16
VJJ
p5959
sbag5
(g6
g7
(lp5960
Vsemantic
p5961
atp5962
Rp5963
(dp5964
g16
VJJ
p5965
sbag5
(g6
g7
(lp5966
Vtags
p5967
atp5968
Rp5969
(dp5970
g16
VNNS
p5971
sbatp5972
Rp5973
(dp5974
g16
VNP
p5975
sbag5
(g6
g7
(lp5976
g5
(g6
g7
(lp5977
Vy
p5978
atp5979
Rp5980
(dp5981
g16
VVBN
p5982
sbag5
(g6
g7
(lp5983
g5
(g6
g7
(lp5984
g5
(g6
g7
(lp5985
g5786
atp5986
Rp5987
(dp5988
g16
VSYM
p5989
sbag5
(g6
g7
(lp5990
g5
(g6
g7
(lp5991
g5978
atp5992
Rp5993
(dp5994
g16
VNN
p5995
sbag5
(g6
g7
(lp5996
g5798
atp5997
Rp5998
(dp5999
g16
VCD
p6000
sbatp6001
Rp6002
(dp6003
g16
VNP
p6004
sbatp6005
Rp6006
(dp6007
g16
VVP
p6008
sbatp6009
Rp6010
(dp6011
g16
g198
sbatp6012
Rp6013
(dp6014
g16
VVP
p6015
sbatp6016
Rp6017
(dp6018
g16
VNP
p6019
sbatp6020
Rp6021
(dp6022
g16
VPP
p6023
sbatp6024
Rp6025
(dp6026
g16
VNP
p6027
sbatp6028
Rp6029
(dp6030
g16
VVP
p6031
sbatp6032
Rp6033
(dp6034
g16
g198
sbatp6035
Rp6036
(dp6037
g16
VSBAR
p6038
sbatp6039
Rp6040
(dp6041
g16
VNP
p6042
sbag5
(g6
g7
(lp6043
g581
atp6044
Rp6045
(dp6046
g16
g581
sbag5
(g6
g7
(lp6047
g5
(g6
g7
(lp6048
g5
(g6
g7
(lp6049
g5
(g6
g7
(lp6050
g5829
atp6051
Rp6052
(dp6053
g16
VNNP
p6054
sbag5
(g6
g7
(lp6055
g5835
atp6056
Rp6057
(dp6058
g16
VPOS
p6059
sbatp6060
Rp6061
(dp6062
g16
VNP
p6063
sbag5
(g6
g7
(lp6064
V\u005c
p6065
atp6066
Rp6067
(dp6068
g16
VNN
p6069
sbag5
(g6
g7
(lp6070
Vu2026
p6071
atp6072
Rp6073
(dp6074
g16
VNNS
p6075
sbag5
(g6
g7
(lp6076
g5835
atp6077
Rp6078
(dp6079
g16
V''
p6080
sbatp6081
Rp6082
(dp6083
g16
VNP
p6084
sbag5
(g6
g7
(lp6085
g581
atp6086
Rp6087
(dp6088
g16
g581
sbag5
(g6
g7
(lp6089
g5
(g6
g7
(lp6090
g5978
atp6091
Rp6092
(dp6093
g16
VNN
p6094
sbag5
(g6
g7
(lp6095
g5885
atp6096
Rp6097
(dp6098
g16
VNN
p6099
sbatp6100
Rp6101
(dp6102
g16
VNP
p6103
sbatp6104
Rp6105
(dp6106
g16
VNP
p6107
sbatp6108
Rp6109
(dp6110
g16
VNP
p6111
sbatp6112
Rp6113
(dp6114
g16
VPP
p6115
sbatp6116
Rp6117
(dp6118
g16
VNP
p6119
sbatp6120
Rp6121
(dp6122
g16
VPP
p6123
sbatp6124
Rp6125
(dp6126
g16
VVP
p6127
sbatp6128
Rp6129
(dp6130
g16
VNP
p6131
sbatp6132
Rp6133
(dp6134
g16
VVP
p6135
sbatp6136
Rp6137
(dp6138
g16
g198
sbatp6139
Rp6140
(dp6141
g16
VROOT
p6142
sbasg236
(icmyPackage
CorE
p6143
(dp6144
g239
(lp6145
(I0
I10
tp6146
a(I1
I51
tp6147
asg243
g5
(g6
g7
(lp6148
g5620
ag5677
ag5682
ag5698
ag5705
ag5722
ag5729
ag5736
ag5753
ag5760
ag5819
ag5824
ag5862
ag5867
ag6040
ag6045
ag6082
ag6087
ag6092
atp6149
Rp6150
(dp6151
g16
g254
sbsbsg244
(icmyPackage
CorE
p6152
(dp6153
g239
(lp6154
(I0
I0
tp6155
a(I0
I8
tp6156
asg243
g5
(g6
g7
(lp6157
g5530
ag5535
ag5545
ag5552
ag5569
atp6158
Rp6159
(dp6160
g16
g254
sbsbsg255
g1783
sg278
(lp6161
(isxpPackage
sxpSent
p6162
(dp6163
g282
(lp6164
I15
asg284
VUnlike the English models, we use individual morphemes as our unit of analysis
p6165
sg286
I4
sg271
I62
sg287
I15
sba(isxpPackage
sxpSent
p6166
(dp6167
g282
(lp6168
I15
asg284
VFor the semantic role task, the input is a sentence consisting of a sequence of words x = x 1 , u'\u005cu2026' , x n and the output is a sequence of corresponding semantic tags y = y 1 , u'\u005cu2026' , y n
p6169
sg286
I5
sg271
I63
sg287
I16
sbasba(icmyPackage
CELink
p6170
(dp6171
g3
(lp6172
g5
(g6
g7
(lp6173
g5
(g6
g7
(lp6174
g5
(g6
g7
(lp6175
g5
(g6
g7
(lp6176
VThese
p6177
atp6178
Rp6179
(dp6180
g16
VDT
p6181
sbag5
(g6
g7
(lp6182
Vfeatures
p6183
atp6184
Rp6185
(dp6186
g16
VNNS
p6187
sbatp6188
Rp6189
(dp6190
g16
VNP
p6191
sbag5
(g6
g7
(lp6192
g5
(g6
g7
(lp6193
Vare
p6194
atp6195
Rp6196
(dp6197
g16
VVBP
p6198
sbag5
(g6
g7
(lp6199
g5
(g6
g7
(lp6200
Vcategorized
p6201
atp6202
Rp6203
(dp6204
g16
VVBN
p6205
sbag5
(g6
g7
(lp6206
g5
(g6
g7
(lp6207
Vas
p6208
atp6209
Rp6210
(dp6211
g16
VIN
p6212
sbag5
(g6
g7
(lp6213
g5
(g6
g7
(lp6214
g5
(g6
g7
(lp6215
Veither
p6216
atp6217
Rp6218
(dp6219
g16
VDT
p6220
sbag5
(g6
g7
(lp6221
Vgeneral
p6222
atp6223
Rp6224
(dp6225
g16
VJJ
p6226
sbag5
(g6
g7
(lp6227
Vfeatures
p6228
atp6229
Rp6230
(dp6231
g16
VNNS
p6232
sbatp6233
Rp6234
(dp6235
g16
VNP
p6236
sbag5
(g6
g7
(lp6237
g581
atp6238
Rp6239
(dp6240
g16
g581
sbag5
(g6
g7
(lp6241
g5
(g6
g7
(lp6242
VKorean-specific
p6243
atp6244
Rp6245
(dp6246
g16
VJJ
p6247
sbag5
(g6
g7
(lp6248
Vfeatures
p6249
atp6250
Rp6251
(dp6252
g16
VNNS
p6253
sbatp6254
Rp6255
(dp6256
g16
VNP
p6257
sbag5
(g6
g7
(lp6258
g581
atp6259
Rp6260
(dp6261
g16
g581
sbag5
(g6
g7
(lp6262
Vor
p6263
atp6264
Rp6265
(dp6266
g16
VCC
p6267
sbag5
(g6
g7
(lp6268
g5
(g6
g7
(lp6269
g5
(g6
g7
(lp6270
Vlatent
p6271
atp6272
Rp6273
(dp6274
g16
VJJ
p6275
sbag5
(g6
g7
(lp6276
Vmorpheme
p6277
atp6278
Rp6279
(dp6280
g16
VJJ
p6281
sbatp6282
Rp6283
(dp6284
g16
VADJP
p6285
sbag5
(g6
g7
(lp6286
Vrepresentation
p6287
atp6288
Rp6289
(dp6290
g16
VNN
p6291
sbag5
(g6
g7
(lp6292
Vfeatures
p6293
atp6294
Rp6295
(dp6296
g16
VNNS
p6297
sbatp6298
Rp6299
(dp6300
g16
VNP
p6301
sbatp6302
Rp6303
(dp6304
g16
VNP
p6305
sbatp6306
Rp6307
(dp6308
g16
VPP
p6309
sbatp6310
Rp6311
(dp6312
g16
VVP
p6313
sbatp6314
Rp6315
(dp6316
g16
VVP
p6317
sbatp6318
Rp6319
(dp6320
g16
g198
sbatp6321
Rp6322
(dp6323
g16
VROOT
p6324
sbag5
(g6
g7
(lp6325
g5
(g6
g7
(lp6326
g5
(g6
g7
(lp6327
g5
(g6
g7
(lp6328
VKorean-specific
p6329
atp6330
Rp6331
(dp6332
g16
VNNP
p6333
sbag5
(g6
g7
(lp6334
Vfeatures
p6335
atp6336
Rp6337
(dp6338
g16
VNNS
p6339
sbatp6340
Rp6341
(dp6342
g16
VNP
p6343
sbag5
(g6
g7
(lp6344
g5
(g6
g7
(lp6345
Vare
p6346
atp6347
Rp6348
(dp6349
g16
VVBP
p6350
sbag5
(g6
g7
(lp6351
g5
(g6
g7
(lp6352
Vbuilt
p6353
atp6354
Rp6355
(dp6356
g16
VVBN
p6357
sbag5
(g6
g7
(lp6358
g5
(g6
g7
(lp6359
Vupon
p6360
atp6361
Rp6362
(dp6363
g16
VIN
p6364
sbag5
(g6
g7
(lp6365
g5
(g6
g7
(lp6366
g5
(g6
g7
(lp6367
Vthe
p6368
atp6369
Rp6370
(dp6371
g16
VDT
p6372
sbag5
(g6
g7
(lp6373
Vmorphological
p6374
atp6375
Rp6376
(dp6377
g16
VJJ
p6378
sbag5
(g6
g7
(lp6379
Vanalysis
p6380
atp6381
Rp6382
(dp6383
g16
VNN
p6384
sbatp6385
Rp6386
(dp6387
g16
VNP
p6388
sbag5
(g6
g7
(lp6389
g5
(g6
g7
(lp6390
Vof
p6391
atp6392
Rp6393
(dp6394
g16
VIN
p6395
sbag5
(g6
g7
(lp6396
g5
(g6
g7
(lp6397
g5
(g6
g7
(lp6398
Vthe
p6399
atp6400
Rp6401
(dp6402
g16
VDT
p6403
sbag5
(g6
g7
(lp6404
Vsuffix
p6405
atp6406
Rp6407
(dp6408
g16
VJJ
p6409
sbag5
(g6
g7
(lp6410
Vagglutination
p6411
atp6412
Rp6413
(dp6414
g16
VNN
p6415
sbatp6416
Rp6417
(dp6418
g16
VNP
p6419
sbag5
(g6
g7
(lp6420
g5
(g6
g7
(lp6421
Vof
p6422
atp6423
Rp6424
(dp6425
g16
VIN
p6426
sbag5
(g6
g7
(lp6427
g5
(g6
g7
(lp6428
Vthe
p6429
atp6430
Rp6431
(dp6432
g16
VDT
p6433
sbag5
(g6
g7
(lp6434
Vcurrent
p6435
atp6436
Rp6437
(dp6438
g16
VJJ
p6439
sbag5
(g6
g7
(lp6440
Vword
p6441
atp6442
Rp6443
(dp6444
g16
VNN
p6445
sbatp6446
Rp6447
(dp6448
g16
VNP
p6449
sbatp6450
Rp6451
(dp6452
g16
VPP
p6453
sbatp6454
Rp6455
(dp6456
g16
VNP
p6457
sbatp6458
Rp6459
(dp6460
g16
VPP
p6461
sbatp6462
Rp6463
(dp6464
g16
VNP
p6465
sbatp6466
Rp6467
(dp6468
g16
VPP
p6469
sbag5
(g6
g7
(lp6470
g5
(g6
g7
(lp6471
g5
(g6
g7
(lp6472
g5778
atp6473
Rp6474
(dp6475
g16
VVBG
p6476
sbag5
(g6
g7
(lp6477
g5
(g6
g7
(lp6478
Vi
p6479
atp6480
Rp6481
(dp6482
g16
VFW
p6483
sbatp6484
Rp6485
(dp6486
g16
VNP
p6487
sbatp6488
Rp6489
(dp6490
g16
VVP
p6491
sbatp6492
Rp6493
(dp6494
g16
g198
sbatp6495
Rp6496
(dp6497
g16
VVP
p6498
sbatp6499
Rp6500
(dp6501
g16
VVP
p6502
sbatp6503
Rp6504
(dp6505
g16
g198
sbatp6506
Rp6507
(dp6508
g16
VROOT
p6509
sbasg236
(icmyPackage
CorE
p6510
(dp6511
g239
(lp6512
(I0
I5
tp6513
a(I1
I16
tp6514
asg243
g5
(g6
g7
(lp6515
g6303
ag6341
ag6348
ag6355
ag6467
ag6474
atp6516
Rp6517
(dp6518
g16
g254
sbsbsg244
(icmyPackage
CorE
p6519
(dp6520
g239
(lp6521
(I0
I0
tp6522
a(I0
I3
tp6523
asg243
g5
(g6
g7
(lp6524
g6189
ag6196
ag6203
atp6525
Rp6526
(dp6527
g16
g254
sbsbsg255
g1783
sg278
(lp6528
(isxpPackage
sxpSent
p6529
(dp6530
g282
(lp6531
I16
asg284
VThese features are categorized as either general features, Korean-specific features, or latent morpheme representation features
p6532
sg286
I6
sg271
I71
sg287
I18
sba(isxpPackage
sxpSent
p6533
(dp6534
g282
(lp6535
I16
asg284
VKorean-specific features are built upon the morphological analysis of the suffix agglutination of the current word x i
p6536
sg286
I6
sg271
I72
sg287
I18
sbasba(icmyPackage
CELink
p6537
(dp6538
g3
(lp6539
g5
(g6
g7
(lp6540
g5
(g6
g7
(lp6541
g5
(g6
g7
(lp6542
g5
(g6
g7
(lp6543
VJosa
p6544
atp6545
Rp6546
(dp6547
g16
VNNP
p6548
sbatp6549
Rp6550
(dp6551
g16
VNP
p6552
sbag5
(g6
g7
(lp6553
g5
(g6
g7
(lp6554
Vis
p6555
atp6556
Rp6557
(dp6558
g16
VVBZ
p6559
sbag5
(g6
g7
(lp6560
g5
(g6
g7
(lp6561
Vused
p6562
atp6563
Rp6564
(dp6565
g16
VVBN
p6566
sbag5
(g6
g7
(lp6567
g5
(g6
g7
(lp6568
g5
(g6
g7
(lp6569
Vto
p6570
atp6571
Rp6572
(dp6573
g16
VTO
p6574
sbag5
(g6
g7
(lp6575
g5
(g6
g7
(lp6576
g5
(g6
g7
(lp6577
Vdefine
p6578
atp6579
Rp6580
(dp6581
g16
VVB
p6582
sbag5
(g6
g7
(lp6583
g5
(g6
g7
(lp6584
Vnominal
p6585
atp6586
Rp6587
(dp6588
g16
VJJ
p6589
sbag5
(g6
g7
(lp6590
Vcases
p6591
atp6592
Rp6593
(dp6594
g16
VNNS
p6595
sbatp6596
Rp6597
(dp6598
g16
VNP
p6599
sbatp6600
Rp6601
(dp6602
g16
VVP
p6603
sbag5
(g6
g7
(lp6604
Vand
p6605
atp6606
Rp6607
(dp6608
g16
VCC
p6609
sbag5
(g6
g7
(lp6610
g5
(g6
g7
(lp6611
Vmodify
p6612
atp6613
Rp6614
(dp6615
g16
VVB
p6616
sbag5
(g6
g7
(lp6617
g5
(g6
g7
(lp6618
Vother
p6619
atp6620
Rp6621
(dp6622
g16
VJJ
p6623
sbag5
(g6
g7
(lp6624
Vphrases
p6625
atp6626
Rp6627
(dp6628
g16
VNNS
p6629
sbatp6630
Rp6631
(dp6632
g16
VNP
p6633
sbag5
(g6
g7
(lp6634
g581
atp6635
Rp6636
(dp6637
g16
g581
sbag5
(g6
g7
(lp6638
g5
(g6
g7
(lp6639
Vwhile
p6640
atp6641
Rp6642
(dp6643
g16
VIN
p6644
sbag5
(g6
g7
(lp6645
g5
(g6
g7
(lp6646
g5
(g6
g7
(lp6647
VEomi
p6648
atp6649
Rp6650
(dp6651
g16
VNNP
p6652
sbatp6653
Rp6654
(dp6655
g16
VNP
p6656
sbag5
(g6
g7
(lp6657
g5
(g6
g7
(lp6658
Vis
p6659
atp6660
Rp6661
(dp6662
g16
VVBZ
p6663
sbag5
(g6
g7
(lp6664
g5
(g6
g7
(lp6665
g5
(g6
g7
(lp6666
Van
p6667
atp6668
Rp6669
(dp6670
g16
VDT
p6671
sbag5
(g6
g7
(lp6672
Vending
p6673
atp6674
Rp6675
(dp6676
g16
VNN
p6677
sbatp6678
Rp6679
(dp6680
g16
VNP
p6681
sbag5
(g6
g7
(lp6682
g5
(g6
g7
(lp6683
Vof
p6684
atp6685
Rp6686
(dp6687
g16
VIN
p6688
sbag5
(g6
g7
(lp6689
g5
(g6
g7
(lp6690
g5
(g6
g7
(lp6691
g42
atp6692
Rp6693
(dp6694
g16
VDT
p6695
sbag5
(g6
g7
(lp6696
Vverb
p6697
atp6698
Rp6699
(dp6700
g16
VNN
p6701
sbatp6702
Rp6703
(dp6704
g16
VNP
p6705
sbag5
(g6
g7
(lp6706
Vor
p6707
atp6708
Rp6709
(dp6710
g16
VCC
p6711
sbag5
(g6
g7
(lp6712
g5
(g6
g7
(lp6713
Van
p6714
atp6715
Rp6716
(dp6717
g16
VDT
p6718
sbag5
(g6
g7
(lp6719
Vadjective
p6720
atp6721
Rp6722
(dp6723
g16
VNN
p6724
sbag5
(g6
g7
(lp6725
g5
(g6
g7
(lp6726
g5
(g6
g7
(lp6727
Vto
p6728
atp6729
Rp6730
(dp6731
g16
VTO
p6732
sbag5
(g6
g7
(lp6733
g5
(g6
g7
(lp6734
Vdefine
p6735
atp6736
Rp6737
(dp6738
g16
VVB
p6739
sbag5
(g6
g7
(lp6740
g5
(g6
g7
(lp6741
g42
atp6742
Rp6743
(dp6744
g16
VDT
p6745
sbag5
(g6
g7
(lp6746
Vtense
p6747
atp6748
Rp6749
(dp6750
g16
VJJ
p6751
sbatp6752
Rp6753
(dp6754
g16
VNP
p6755
sbatp6756
Rp6757
(dp6758
g16
VVP
p6759
sbatp6760
Rp6761
(dp6762
g16
VVP
p6763
sbatp6764
Rp6765
(dp6766
g16
g198
sbatp6767
Rp6768
(dp6769
g16
VNP
p6770
sbatp6771
Rp6772
(dp6773
g16
VNP
p6774
sbatp6775
Rp6776
(dp6777
g16
VPP
p6778
sbatp6779
Rp6780
(dp6781
g16
VNP
p6782
sbatp6783
Rp6784
(dp6785
g16
VVP
p6786
sbatp6787
Rp6788
(dp6789
g16
g198
sbatp6790
Rp6791
(dp6792
g16
VSBAR
p6793
sbatp6794
Rp6795
(dp6796
g16
VVP
p6797
sbag5
(g6
g7
(lp6798
g581
atp6799
Rp6800
(dp6801
g16
g581
sbag5
(g6
g7
(lp6802
g5
(g6
g7
(lp6803
Vshow
p6804
atp6805
Rp6806
(dp6807
g16
VVB
p6808
sbag5
(g6
g7
(lp6809
g5
(g6
g7
(lp6810
Van
p6811
atp6812
Rp6813
(dp6814
g16
VDT
p6815
sbag5
(g6
g7
(lp6816
Vattitude
p6817
atp6818
Rp6819
(dp6820
g16
VNN
p6821
sbatp6822
Rp6823
(dp6824
g16
VNP
p6825
sbatp6826
Rp6827
(dp6828
g16
VVP
p6829
sbag5
(g6
g7
(lp6830
g581
atp6831
Rp6832
(dp6833
g16
g581
sbag5
(g6
g7
(lp6834
Vand
p6835
atp6836
Rp6837
(dp6838
g16
VCC
p6839
sbag5
(g6
g7
(lp6840
g5
(g6
g7
(lp6841
Vconnect
p6842
atp6843
Rp6844
(dp6845
g16
VVB
p6846
sbag5
(g6
g7
(lp6847
Vor
p6848
atp6849
Rp6850
(dp6851
g16
VCC
p6852
sbag5
(g6
g7
(lp6853
Vterminate
p6854
atp6855
Rp6856
(dp6857
g16
VVB
p6858
sbag5
(g6
g7
(lp6859
g5
(g6
g7
(lp6860
g42
atp6861
Rp6862
(dp6863
g16
VDT
p6864
sbag5
(g6
g7
(lp6865
Vsentence
p6866
atp6867
Rp6868
(dp6869
g16
VNN
p6870
sbatp6871
Rp6872
(dp6873
g16
VNP
p6874
sbatp6875
Rp6876
(dp6877
g16
VVP
p6878
sbatp6879
Rp6880
(dp6881
g16
VVP
p6882
sbatp6883
Rp6884
(dp6885
g16
VVP
p6886
sbatp6887
Rp6888
(dp6889
g16
g198
sbatp6890
Rp6891
(dp6892
g16
VVP
p6893
sbatp6894
Rp6895
(dp6896
g16
VVP
p6897
sbatp6898
Rp6899
(dp6900
g16
g198
sbatp6901
Rp6902
(dp6903
g16
VROOT
p6904
sbag5
(g6
g7
(lp6905
g5
(g6
g7
(lp6906
g5
(g6
g7
(lp6907
g5
(g6
g7
(lp6908
VThus
p6909
atp6910
Rp6911
(dp6912
g16
VRB
p6913
sbatp6914
Rp6915
(dp6916
g16
VADVP
p6917
sbag5
(g6
g7
(lp6918
g581
atp6919
Rp6920
(dp6921
g16
g581
sbag5
(g6
g7
(lp6922
g5
(g6
g7
(lp6923
Vthe
p6924
atp6925
Rp6926
(dp6927
g16
VDT
p6928
sbag5
(g6
g7
(lp6929
VEomi
p6930
atp6931
Rp6932
(dp6933
g16
VNNP
p6934
sbag5
(g6
g7
(lp6935
Vand
p6936
atp6937
Rp6938
(dp6939
g16
VCC
p6940
sbag5
(g6
g7
(lp6941
VJosa
p6942
atp6943
Rp6944
(dp6945
g16
VNNP
p6946
sbag5
(g6
g7
(lp6947
Vcategorization
p6948
atp6949
Rp6950
(dp6951
g16
VNN
p6952
sbatp6953
Rp6954
(dp6955
g16
VNP
p6956
sbag5
(g6
g7
(lp6957
g5
(g6
g7
(lp6958
Vplays
p6959
atp6960
Rp6961
(dp6962
g16
VVBZ
p6963
sbag5
(g6
g7
(lp6964
g5
(g6
g7
(lp6965
Van
p6966
atp6967
Rp6968
(dp6969
g16
VDT
p6970
sbag5
(g6
g7
(lp6971
Vimportant
p6972
atp6973
Rp6974
(dp6975
g16
VJJ
p6976
sbag5
(g6
g7
(lp6977
Vrole
p6978
atp6979
Rp6980
(dp6981
g16
VNN
p6982
sbatp6983
Rp6984
(dp6985
g16
VNP
p6986
sbag5
(g6
g7
(lp6987
g5
(g6
g7
(lp6988
Vin
p6989
atp6990
Rp6991
(dp6992
g16
VIN
p6993
sbag5
(g6
g7
(lp6994
g5
(g6
g7
(lp6995
g5
(g6
g7
(lp6996
Vsignaling
p6997
atp6998
Rp6999
(dp7000
g16
VVBG
p7001
sbag5
(g6
g7
(lp7002
g5
(g6
g7
(lp7003
Vsemantic
p7004
atp7005
Rp7006
(dp7007
g16
VJJ
p7008
sbag5
(g6
g7
(lp7009
Vroles
p7010
atp7011
Rp7012
(dp7013
g16
VNNS
p7014
sbatp7015
Rp7016
(dp7017
g16
VNP
p7018
sbatp7019
Rp7020
(dp7021
g16
VVP
p7022
sbatp7023
Rp7024
(dp7025
g16
g198
sbatp7026
Rp7027
(dp7028
g16
VPP
p7029
sbatp7030
Rp7031
(dp7032
g16
VVP
p7033
sbatp7034
Rp7035
(dp7036
g16
g198
sbatp7037
Rp7038
(dp7039
g16
VROOT
p7040
sbasg236
(icmyPackage
CorE
p7041
(dp7042
g239
(lp7043
(I0
I0
tp7044
a(I0
I37
tp7045
asg243
g6902
sbsg244
(icmyPackage
CorE
p7046
(dp7047
g239
(lp7048
(I1
I1
tp7049
a(I1
I14
tp7050
asg243
g5
(g6
g7
(lp7051
g6920
ag6954
ag7031
atp7052
Rp7053
(dp7054
g16
g254
sbsbsg255
g3300
sg278
(lp7055
(isxpPackage
sxpSent
p7056
(dp7057
g282
(lp7058
I17
asg284
VJosa is used to define nominal cases and modify other phrases, while Eomi is an ending of a verb or an adjective to define a tense, show an attitude, and connect or terminate a sentence
p7059
sg286
I6
sg271
I74
sg287
I19
sba(isxpPackage
sxpSent
p7060
(dp7061
g282
(lp7062
I17
asg284
VThus, the Eomi and Josa categorization plays an important role in signaling semantic roles
p7063
sg286
I6
sg271
I75
sg287
I19
sbasba(icmyPackage
CELink
p7064
(dp7065
g3
(lp7066
g5
(g6
g7
(lp7067
g5
(g6
g7
(lp7068
g5
(g6
g7
(lp7069
g5
(g6
g7
(lp7070
VIf
p7071
atp7072
Rp7073
(dp7074
g16
VIN
p7075
sbag5
(g6
g7
(lp7076
g5
(g6
g7
(lp7077
g5
(g6
g7
(lp7078
VPOS_Lv1
p7079
atp7080
Rp7081
(dp7082
g16
VNNS
p7083
sbatp7084
Rp7085
(dp7086
g16
VNP
p7087
sbag5
(g6
g7
(lp7088
g5
(g6
g7
(lp7089
Vis
p7090
atp7091
Rp7092
(dp7093
g16
VVBZ
p7094
sbag5
(g6
g7
(lp7095
g5
(g6
g7
(lp7096
Vnoun
p7097
atp7098
Rp7099
(dp7100
g16
VNN
p7101
sbatp7102
Rp7103
(dp7104
g16
VNP
p7105
sbatp7106
Rp7107
(dp7108
g16
VVP
p7109
sbatp7110
Rp7111
(dp7112
g16
g198
sbatp7113
Rp7114
(dp7115
g16
VSBAR
p7116
sbag5
(g6
g7
(lp7117
g581
atp7118
Rp7119
(dp7120
g16
g581
sbag5
(g6
g7
(lp7121
g5
(g6
g7
(lp7122
g5
(g6
g7
(lp7123
Veither
p7124
atp7125
Rp7126
(dp7127
g16
VRB
p7128
sbag5
(g6
g7
(lp7129
g42
atp7130
Rp7131
(dp7132
g16
VDT
p7133
sbag5
(g6
g7
(lp7134
Vproper
p7135
atp7136
Rp7137
(dp7138
g16
VJJ
p7139
sbag5
(g6
g7
(lp7140
Vnoun
p7141
atp7142
Rp7143
(dp7144
g16
VNN
p7145
sbatp7146
Rp7147
(dp7148
g16
VNP
p7149
sbag5
(g6
g7
(lp7150
g581
atp7151
Rp7152
(dp7153
g16
g581
sbag5
(g6
g7
(lp7154
g5
(g6
g7
(lp7155
Vcommon
p7156
atp7157
Rp7158
(dp7159
g16
VJJ
p7160
sbag5
(g6
g7
(lp7161
Vnoun
p7162
atp7163
Rp7164
(dp7165
g16
VNN
p7166
sbatp7167
Rp7168
(dp7169
g16
VNP
p7170
sbag5
(g6
g7
(lp7171
g581
atp7172
Rp7173
(dp7174
g16
g581
sbag5
(g6
g7
(lp7175
Vor
p7176
atp7177
Rp7178
(dp7179
g16
VCC
p7180
sbag5
(g6
g7
(lp7181
g5
(g6
g7
(lp7182
g5
(g6
g7
(lp7183
Vother
p7184
atp7185
Rp7186
(dp7187
g16
VJJ
p7188
sbag5
(g6
g7
(lp7189
Vkinds
p7190
atp7191
Rp7192
(dp7193
g16
VNNS
p7194
sbatp7195
Rp7196
(dp7197
g16
VNP
p7198
sbag5
(g6
g7
(lp7199
g5
(g6
g7
(lp7200
Vof
p7201
atp7202
Rp7203
(dp7204
g16
VIN
p7205
sbag5
(g6
g7
(lp7206
g5
(g6
g7
(lp7207
Vnouns
p7208
atp7209
Rp7210
(dp7211
g16
VNNS
p7212
sbatp7213
Rp7214
(dp7215
g16
VNP
p7216
sbatp7217
Rp7218
(dp7219
g16
VPP
p7220
sbatp7221
Rp7222
(dp7223
g16
VNP
p7224
sbatp7225
Rp7226
(dp7227
g16
VNP
p7228
sbag5
(g6
g7
(lp7229
g5
(g6
g7
(lp7230
Vis
p7231
atp7232
Rp7233
(dp7234
g16
VVBZ
p7235
sbag5
(g6
g7
(lp7236
g5
(g6
g7
(lp7237
Vthe
p7238
atp7239
Rp7240
(dp7241
g16
VDT
p7242
sbag5
(g6
g7
(lp7243
VPOS_Lv2
p7244
atp7245
Rp7246
(dp7247
g16
VNNS
p7248
sbatp7249
Rp7250
(dp7251
g16
VNP
p7252
sbatp7253
Rp7254
(dp7255
g16
VVP
p7256
sbatp7257
Rp7258
(dp7259
g16
g198
sbatp7260
Rp7261
(dp7262
g16
VROOT
p7263
sbasg236
(icmyPackage
CorE
p7264
(dp7265
g239
(lp7266
(I0
I1
tp7267
a(I0
I3
tp7268
asg243
g7111
sbsg244
(icmyPackage
CorE
p7269
(dp7270
g239
(lp7271
(I0
I5
tp7272
a(I0
I18
tp7273
asg243
g5
(g6
g7
(lp7274
g7226
ag7233
atp7275
Rp7276
(dp7277
g16
g254
sbsbsg255
(icmyPackage
pattern
p7278
(dp7279
g258
I0
sg259
I0
sg260
(lp7280
(lp7281
(lp7282
S'if'
p7283
aS'once'
p7284
aaa(lp7285
g1324
aasg266
(lp7286
I1
aI1
aI1
asg268
(lp7287
S'If some light and mobile detection devices can be invented in the future, many new applications can be imagined, for example, people can get some services while thinking.'
p7288
asg271
I15
sg272
(lp7289
(lp7290
a(lp7291
S'&C@Complete@'
p7292
aa(lp7293
S'&R@Complete@'
p7294
aasbsg278
(lp7295
(isxpPackage
sxpSent
p7296
(dp7297
g282
(lp7298
I18
asg284
VIf POS_Lv1 is noun , either a proper noun, common noun, or other kinds of nouns is the POS_Lv2
p7299
sg286
I6
sg271
I85
sg287
I24
sbasba(icmyPackage
CELink
p7300
(dp7301
g3
(lp7302
g5
(g6
g7
(lp7303
g5
(g6
g7
(lp7304
g5
(g6
g7
(lp7305
g5
(g6
g7
(lp7306
VIt
p7307
atp7308
Rp7309
(dp7310
g16
VPRP
p7311
sbatp7312
Rp7313
(dp7314
g16
VNP
p7315
sbag5
(g6
g7
(lp7316
g5
(g6
g7
(lp7317
Vis
p7318
atp7319
Rp7320
(dp7321
g16
VVBZ
p7322
sbag5
(g6
g7
(lp7323
g5
(g6
g7
(lp7324
Vset
p7325
atp7326
Rp7327
(dp7328
g16
VVBN
p7329
sbag5
(g6
g7
(lp7330
g5
(g6
g7
(lp7331
Vto
p7332
atp7333
Rp7334
(dp7335
g16
VTO
p7336
sbag5
(g6
g7
(lp7337
g5
(g6
g7
(lp7338
g5798
atp7339
Rp7340
(dp7341
g16
VCD
p7342
sbatp7343
Rp7344
(dp7345
g16
VNP
p7346
sbatp7347
Rp7348
(dp7349
g16
VPP
p7350
sbag5
(g6
g7
(lp7351
g5
(g6
g7
(lp7352
Vif
p7353
atp7354
Rp7355
(dp7356
g16
VIN
p7357
sbag5
(g6
g7
(lp7358
g5
(g6
g7
(lp7359
g5
(g6
g7
(lp7360
Vany
p7361
atp7362
Rp7363
(dp7364
g16
VDT
p7365
sbag5
(g6
g7
(lp7366
VJosa
p7367
atp7368
Rp7369
(dp7370
g16
VNNP
p7371
sbatp7372
Rp7373
(dp7374
g16
VNP
p7375
sbag5
(g6
g7
(lp7376
g5
(g6
g7
(lp7377
g5
(g6
g7
(lp7378
Vexists
p7379
atp7380
Rp7381
(dp7382
g16
VVBZ
p7383
sbatp7384
Rp7385
(dp7386
g16
VVP
p7387
sbag5
(g6
g7
(lp7388
g581
atp7389
Rp7390
(dp7391
g16
g581
sbag5
(g6
g7
(lp7392
g5
(g6
g7
(lp7393
Votherwise
p7394
atp7395
Rp7396
(dp7397
g16
VRB
p7398
sbatp7399
Rp7400
(dp7401
g16
VADVP
p7402
sbag5
(g6
g7
(lp7403
g5
(g6
g7
(lp7404
V0
p7405
atp7406
Rp7407
(dp7408
g16
VVBZ
p7409
sbatp7410
Rp7411
(dp7412
g16
VVP
p7413
sbatp7414
Rp7415
(dp7416
g16
VVP
p7417
sbatp7418
Rp7419
(dp7420
g16
g198
sbatp7421
Rp7422
(dp7423
g16
VSBAR
p7424
sbatp7425
Rp7426
(dp7427
g16
VVP
p7428
sbatp7429
Rp7430
(dp7431
g16
VVP
p7432
sbatp7433
Rp7434
(dp7435
g16
g198
sbatp7436
Rp7437
(dp7438
g16
VROOT
p7439
sbasg236
(icmyPackage
CorE
p7440
(dp7441
g239
(lp7442
(I0
I6
tp7443
a(I0
I11
tp7444
asg243
g7419
sbsg244
(icmyPackage
CorE
p7445
(dp7446
g239
(lp7447
(I0
I0
tp7448
a(I0
I4
tp7449
asg243
g5
(g6
g7
(lp7450
g7313
ag7320
ag7327
ag7348
atp7451
Rp7452
(dp7453
g16
g254
sbsbsg255
(icmyPackage
pattern
p7454
(dp7455
g258
I0
sg259
I0
sg260
(lp7456
(lp7457
S'if'
p7458
aasg266
(lp7459
I1
aI1
aI1
asg268
(lp7460
S'An effective knowledge flow network enables a research team to be very powerful in generating new knowledge if every node can innovate and output new knowledge to appropriate members.'
p7461
asg271
I14
sg272
(lp7462
(lp7463
S'&R@Complete@'
p7464
aa(lp7465
S'&C@Complete@'
p7466
aasbsg278
(lp7467
(isxpPackage
sxpSent
p7468
(dp7469
g282
(lp7470
I19
asg284
VIt is set to 1 if any Josa exists, otherwise 0
p7471
sg286
I6
sg271
I91
sg287
I28
sbasba(icmyPackage
CELink
p7472
(dp7473
g3
(lp7474
g5
(g6
g7
(lp7475
g5
(g6
g7
(lp7476
g5
(g6
g7
(lp7477
g5
(g6
g7
(lp7478
VAlthough
p7479
atp7480
Rp7481
(dp7482
g16
VIN
p7483
sbag5
(g6
g7
(lp7484
g5
(g6
g7
(lp7485
g5
(g6
g7
(lp7486
Vboth
p7487
atp7488
Rp7489
(dp7490
g16
VCC
p7491
sbag5
(g6
g7
(lp7492
g5
(g6
g7
(lp7493
Vthe
p7494
atp7495
Rp7496
(dp7497
g16
VDT
p7498
sbag5
(g6
g7
(lp7499
VPKPB
p7500
atp7501
Rp7502
(dp7503
g16
VNNP
p7504
sbatp7505
Rp7506
(dp7507
g16
VNP
p7508
sbag5
(g6
g7
(lp7509
Vand
p7510
atp7511
Rp7512
(dp7513
g16
VCC
p7514
sbag5
(g6
g7
(lp7515
g5
(g6
g7
(lp7516
Vour
p7517
atp7518
Rp7519
(dp7520
g16
VPRP$
p7521
sbag5
(g6
g7
(lp7522
Vcorpus
p7523
atp7524
Rp7525
(dp7526
g16
VNN
p7527
sbatp7528
Rp7529
(dp7530
g16
VNP
p7531
sbatp7532
Rp7533
(dp7534
g16
VNP
p7535
sbag5
(g6
g7
(lp7536
g5
(g6
g7
(lp7537
Vhad
p7538
atp7539
Rp7540
(dp7541
g16
VVBD
p7542
sbag5
(g6
g7
(lp7543
g5
(g6
g7
(lp7544
Vimprovements
p7545
atp7546
Rp7547
(dp7548
g16
VNNS
p7549
sbatp7550
Rp7551
(dp7552
g16
VNP
p7553
sbatp7554
Rp7555
(dp7556
g16
VVP
p7557
sbatp7558
Rp7559
(dp7560
g16
g198
sbatp7561
Rp7562
(dp7563
g16
VSBAR
p7564
sbag5
(g6
g7
(lp7565
g581
atp7566
Rp7567
(dp7568
g16
g581
sbag5
(g6
g7
(lp7569
g5
(g6
g7
(lp7570
Vthe
p7571
atp7572
Rp7573
(dp7574
g16
VDT
p7575
sbag5
(g6
g7
(lp7576
Vimprovements
p7577
atp7578
Rp7579
(dp7580
g16
VNNS
p7581
sbatp7582
Rp7583
(dp7584
g16
VNP
p7585
sbag5
(g6
g7
(lp7586
g5
(g6
g7
(lp7587
Vwere
p7588
atp7589
Rp7590
(dp7591
g16
VVBD
p7592
sbag5
(g6
g7
(lp7593
g5
(g6
g7
(lp7594
g5
(g6
g7
(lp7595
Vthe
p7596
atp7597
Rp7598
(dp7599
g16
VDT
p7600
sbag5
(g6
g7
(lp7601
g5
(g6
g7
(lp7602
Vmost
p7603
atp7604
Rp7605
(dp7606
g16
VRBS
p7607
sbag5
(g6
g7
(lp7608
Vnotable
p7609
atp7610
Rp7611
(dp7612
g16
VJJ
p7613
sbatp7614
Rp7615
(dp7616
g16
VADJP
p7617
sbatp7618
Rp7619
(dp7620
g16
VNP
p7621
sbag5
(g6
g7
(lp7622
g5
(g6
g7
(lp7623
Von
p7624
atp7625
Rp7626
(dp7627
g16
VIN
p7628
sbag5
(g6
g7
(lp7629
g5
(g6
g7
(lp7630
Vour
p7631
atp7632
Rp7633
(dp7634
g16
VPRP$
p7635
sbag5
(g6
g7
(lp7636
Vcorpus
p7637
atp7638
Rp7639
(dp7640
g16
VNN
p7641
sbatp7642
Rp7643
(dp7644
g16
VNP
p7645
sbatp7646
Rp7647
(dp7648
g16
VPP
p7649
sbatp7650
Rp7651
(dp7652
g16
VNP
p7653
sbatp7654
Rp7655
(dp7656
g16
VVP
p7657
sbatp7658
Rp7659
(dp7660
g16
g198
sbatp7661
Rp7662
(dp7663
g16
VROOT
p7664
sbag5
(g6
g7
(lp7665
g5
(g6
g7
(lp7666
g5
(g6
g7
(lp7667
g5
(g6
g7
(lp7668
VThis
p7669
atp7670
Rp7671
(dp7672
g16
VDT
p7673
sbatp7674
Rp7675
(dp7676
g16
VNP
p7677
sbag5
(g6
g7
(lp7678
g5
(g6
g7
(lp7679
Vis
p7680
atp7681
Rp7682
(dp7683
g16
VVBZ
p7684
sbag5
(g6
g7
(lp7685
g5
(g6
g7
(lp7686
Vbecause
p7687
atp7688
Rp7689
(dp7690
g16
VIN
p7691
sbag5
(g6
g7
(lp7692
g5
(g6
g7
(lp7693
g5
(g6
g7
(lp7694
VPKPB
p7695
atp7696
Rp7697
(dp7698
g16
VNNP
p7699
sbag5
(g6
g7
(lp7700
VPOS
p7701
atp7702
Rp7703
(dp7704
g16
VNNP
p7705
sbag5
(g6
g7
(lp7706
Vtags
p7707
atp7708
Rp7709
(dp7710
g16
VNNS
p7711
sbatp7712
Rp7713
(dp7714
g16
VNP
p7715
sbag5
(g6
g7
(lp7716
g5
(g6
g7
(lp7717
Vmight
p7718
atp7719
Rp7720
(dp7721
g16
VMD
p7722
sbag5
(g6
g7
(lp7723
g5
(g6
g7
(lp7724
Vbe
p7725
atp7726
Rp7727
(dp7728
g16
VVB
p7729
sbag5
(g6
g7
(lp7730
g5
(g6
g7
(lp7731
Vtoo
p7732
atp7733
Rp7734
(dp7735
g16
VRB
p7736
sbag5
(g6
g7
(lp7737
Vcoarse
p7738
atp7739
Rp7740
(dp7741
g16
VJJ
p7742
sbatp7743
Rp7744
(dp7745
g16
VADJP
p7746
sbatp7747
Rp7748
(dp7749
g16
VVP
p7750
sbatp7751
Rp7752
(dp7753
g16
VVP
p7754
sbatp7755
Rp7756
(dp7757
g16
g198
sbatp7758
Rp7759
(dp7760
g16
VSBAR
p7761
sbatp7762
Rp7763
(dp7764
g16
VVP
p7765
sbatp7766
Rp7767
(dp7768
g16
g198
sbatp7769
Rp7770
(dp7771
g16
VROOT
p7772
sbasg236
(icmyPackage
CorE
p7773
(dp7774
g239
(lp7775
(I1
I3
tp7776
a(I1
I9
tp7777
asg243
g7756
sbsg244
(icmyPackage
CorE
p7778
(dp7779
g239
(lp7780
(I0
I0
tp7781
a(I0
I18
tp7782
asg243
g7662
sbsg255
(icmyPackage
pattern
p7783
(dp7784
g258
I8
sg259
I1
sg260
(lp7785
(lp7786
S'because'
p7787
aasg266
(lp7788
I4
aI1
aI2
asg268
(lp7789
S'Amazing things will happen. This is often because they have found ways of bypassing what might seem like the remorseless inevitability of the curve and its slope.'
p7790
asg271
I100
sg272
(lp7791
(lp7792
S'&R'
p7793
aS'(,/./;/--)'
p7794
aS'(&AND)'
p7795
aS'&THIS'
p7796
aS'&BE'
p7797
aS'(&ADV)'
p7798
aa(lp7799
S'&C'
p7800
aasbsg278
(lp7801
(isxpPackage
sxpSent
p7802
(dp7803
g282
(lp7804
I20
asg284
VAlthough both the PKPB and our corpus had improvements, the improvements were the most notable on our corpus
p7805
sg286
I10
sg271
I121
sg287
I40
sba(isxpPackage
sxpSent
p7806
(dp7807
g282
(lp7808
I20
asg284
VThis is because PKPB POS tags might be too coarse
p7809
sg286
I10
sg271
I122
sg287
I40
sbasba.