(lp0
(icmyPackage
CELink
p1
(dp2
S'PTreelst'
p3
(lp4
ccopy_reg
_reconstructor
p5
(cnltk.tree
Tree
p6
c__builtin__
list
p7
(lp8
g5
(g6
g7
(lp9
g5
(g6
g7
(lp10
g5
(g6
g7
(lp11
VTwo
p12
atp13
Rp14
(dp15
S'_label'
p16
VCD
p17
sbag5
(g6
g7
(lp18
Vkernels
p19
atp20
Rp21
(dp22
g16
VNNS
p23
sbatp24
Rp25
(dp26
g16
VNP
p27
sbag5
(g6
g7
(lp28
g5
(g6
g7
(lp29
Vare
p30
atp31
Rp32
(dp33
g16
VVBP
p34
sbag5
(g6
g7
(lp35
g5
(g6
g7
(lp36
Vdefined
p37
atp38
Rp39
(dp40
g16
VVBN
p41
sbag5
(g6
g7
(lp42
g5
(g6
g7
(lp43
Vbased
p44
atp45
Rp46
(dp47
g16
VVBN
p48
sbag5
(g6
g7
(lp49
g5
(g6
g7
(lp50
Von
p51
atp52
Rp53
(dp54
g16
VIN
p55
sbag5
(g6
g7
(lp56
g5
(g6
g7
(lp57
g5
(g6
g7
(lp58
Vhistory
p59
atp60
Rp61
(dp62
g16
VNN
p63
sbag5
(g6
g7
(lp64
Vsequences
p65
atp66
Rp67
(dp68
g16
VNNS
p69
sbag5
(g6
g7
(lp70
Vand
p71
atp72
Rp73
(dp74
g16
VCC
p75
sbag5
(g6
g7
(lp76
Vcontext
p77
atp78
Rp79
(dp80
g16
VNN
p81
sbag5
(g6
g7
(lp82
Vtrees
p83
atp84
Rp85
(dp86
g16
VNNS
p87
sbatp88
Rp89
(dp90
g16
VNP
p91
sbag5
(g6
g7
(lp92
g5
(g6
g7
(lp93
Vconstructed
p94
atp95
Rp96
(dp97
g16
VVBN
p98
sbag5
(g6
g7
(lp99
g5
(g6
g7
(lp100
Vbased
p101
atp102
Rp103
(dp104
g16
VVBN
p105
sbag5
(g6
g7
(lp106
g5
(g6
g7
(lp107
Von
p108
atp109
Rp110
(dp111
g16
VIN
p112
sbag5
(g6
g7
(lp113
g5
(g6
g7
(lp114
Vthe
p115
atp116
Rp117
(dp118
g16
VDT
p119
sbag5
(g6
g7
(lp120
Vextracted
p121
atp122
Rp123
(dp124
g16
VJJ
p125
sbag5
(g6
g7
(lp126
Vfeatures
p127
atp128
Rp129
(dp130
g16
VNNS
p131
sbatp132
Rp133
(dp134
g16
VNP
p135
sbatp136
Rp137
(dp138
g16
VPP
p139
sbatp140
Rp141
(dp142
g16
VPP
p143
sbatp144
Rp145
(dp146
g16
VVP
p147
sbatp148
Rp149
(dp150
g16
VNP
p151
sbatp152
Rp153
(dp154
g16
VPP
p155
sbatp156
Rp157
(dp158
g16
VPP
p159
sbatp160
Rp161
(dp162
g16
VVP
p163
sbatp164
Rp165
(dp166
g16
VVP
p167
sbatp168
Rp169
(dp170
g16
VS
p171
sbatp172
Rp173
(dp174
g16
VROOT
p175
sbasS'cause'
p176
(icmyPackage
CorE
p177
(dp178
S'span'
p179
(lp180
(I0
I14
tp181
a(I0
I16
tp182
asS'PTree'
p183
g133
sbsS'effect'
p184
(icmyPackage
CorE
p185
(dp186
g179
(lp187
(I0
I0
tp188
a(I0
I11
tp189
asg183
g5
(g6
g7
(lp190
g25
ag32
ag39
ag46
ag53
ag89
ag96
atp191
Rp192
(dp193
g16
S'ROOT'
p194
sbsbsS'pt'
p195
(icmyPackage
pattern
p196
(dp197
S'pfreq'
p198
I0
sS'moresent'
p199
I0
sS'main_token'
p200
(lp201
(lp202
S'based'
p203
aS'on'
p204
aasS'ptype'
p205
(lp206
I2
aI1
aI1
asS'cases'
p207
(lp208
S'He said he planned to announce details of legislation on Sunday based on a Republican plan that would provide a short-term solution'
p209
asS'id'
p210
I48
sS'constraints'
p211
(lp212
(lp213
S'&R'
p214
aS'(,)'
p215
aS'(&ADV)'
p216
aa(lp217
S'&V-ing/&NP@C@'
p218
aS'(&Clause@C@)'
p219
aasbsS'sInfo'
p220
(lp221
(isxpPackage
sxpSent
p222
(dp223
S'sysCEidlst'
p224
(lp225
I0
aI1
asS'sentence_text'
p226
VTwo kernels are defined based on history sequences and context trees constructed based on the extracted features
p227
sS'id_sec'
p228
I1
sg210
I2
sS'id_para'
p229
I0
sbasba(icmyPackage
CELink
p230
(dp231
g3
(lp232
g192
asg176
(icmyPackage
CorE
p233
(dp234
g179
(lp235
(I0
I6
tp236
a(I0
I10
tp237
asg183
g89
sbsg184
(icmyPackage
CorE
p238
(dp239
g179
(lp240
(I0
I0
tp241
a(I0
I3
tp242
asg183
g5
(g6
g7
(lp243
g25
ag32
ag39
atp244
Rp245
(dp246
g16
g194
sbsbsg195
g196
sg220
(lp247
g222
asba(icmyPackage
CELink
p248
(dp249
g3
(lp250
g5
(g6
g7
(lp251
g5
(g6
g7
(lp252
g5
(g6
g7
(lp253
g5
(g6
g7
(lp254
g5
(g6
g7
(lp255
VTo
p256
atp257
Rp258
(dp259
g16
VTO
p260
sbag5
(g6
g7
(lp261
g5
(g6
g7
(lp262
Vanalyze
p263
atp264
Rp265
(dp266
g16
VVB
p267
sbag5
(g6
g7
(lp268
Vand
p269
atp270
Rp271
(dp272
g16
VCC
p273
sbag5
(g6
g7
(lp274
Vmaintain
p275
atp276
Rp277
(dp278
g16
VVB
p279
sbag5
(g6
g7
(lp280
g5
(g6
g7
(lp281
Vdialog
p282
atp283
Rp284
(dp285
g16
VJJ
p286
sbag5
(g6
g7
(lp287
Vtopics
p288
atp289
Rp290
(dp291
g16
VNNS
p292
sbatp293
Rp294
(dp295
g16
VNP
p296
sbag5
(g6
g7
(lp297
g5
(g6
g7
(lp298
Vfrom
p299
atp300
Rp301
(dp302
g16
VIN
p303
sbag5
(g6
g7
(lp304
g5
(g6
g7
(lp305
g5
(g6
g7
(lp306
Va
p307
atp308
Rp309
(dp310
g16
VDT
p311
sbag5
(g6
g7
(lp312
g5
(g6
g7
(lp313
Vmore
p314
atp315
Rp316
(dp317
g16
VRBR
p318
sbag5
(g6
g7
(lp319
Vsystematic
p320
atp321
Rp322
(dp323
g16
VJJ
p324
sbatp325
Rp326
(dp327
g16
VADJP
p328
sbag5
(g6
g7
(lp329
Vperspective
p330
atp331
Rp332
(dp333
g16
VNN
p334
sbatp335
Rp336
(dp337
g16
VNP
p338
sbag5
(g6
g7
(lp339
g5
(g6
g7
(lp340
Vin
p341
atp342
Rp343
(dp344
g16
VIN
p345
sbag5
(g6
g7
(lp346
g5
(g6
g7
(lp347
g5
(g6
g7
(lp348
g307
atp349
Rp350
(dp351
g16
VDT
p352
sbag5
(g6
g7
(lp353
Vgiven
p354
atp355
Rp356
(dp357
g16
VVBN
p358
sbag5
(g6
g7
(lp359
Vdialog
p360
atp361
Rp362
(dp363
g16
VNN
p364
sbag5
(g6
g7
(lp365
Vflow
p366
atp367
Rp368
(dp369
g16
VNN
p370
sbatp371
Rp372
(dp373
g16
VNP
p374
sbag5
(g6
g7
(lp375
V,
p376
atp377
Rp378
(dp379
g16
g376
sbag5
(g6
g7
(lp380
g5
(g6
g7
(lp381
g5
(g6
g7
(lp382
Vsome
p383
atp384
Rp385
(dp386
g16
VDT
p387
sbag5
(g6
g7
(lp388
Vresearchers
p389
atp390
Rp391
(dp392
g16
VNNS
p393
sbatp394
Rp395
(dp396
g16
VNP
p397
sbag5
(g6
g7
(lp398
g5
(g6
g7
(lp399
V-LSB-
p400
atp401
Rp402
(dp403
g16
VNNP
p404
sbag5
(g6
g7
(lp405
V12
p406
atp407
Rp408
(dp409
g16
VCD
p410
sbag5
(g6
g7
(lp411
g376
atp412
Rp413
(dp414
g16
g376
sbag5
(g6
g7
(lp415
V8
p416
atp417
Rp418
(dp419
g16
VCD
p420
sbatp421
Rp422
(dp423
g16
VNP
p424
sbatp425
Rp426
(dp427
g16
VNP
p428
sbatp429
Rp430
(dp431
g16
VNP
p432
sbatp433
Rp434
(dp435
g16
VPP
p436
sbatp437
Rp438
(dp439
g16
VNP
p440
sbatp441
Rp442
(dp443
g16
VPP
p444
sbatp445
Rp446
(dp447
g16
VVP
p448
sbatp449
Rp450
(dp451
g16
VVP
p452
sbatp453
Rp454
(dp455
g16
g171
sbag5
(g6
g7
(lp456
g376
atp457
Rp458
(dp459
g16
g376
sbag5
(g6
g7
(lp460
g5
(g6
g7
(lp461
V1
p462
atp463
Rp464
(dp465
g16
VCD
p466
sbag5
(g6
g7
(lp467
V-RSB-
p468
atp469
Rp470
(dp471
g16
VNNS
p472
sbatp473
Rp474
(dp475
g16
VNP
p476
sbag5
(g6
g7
(lp477
g5
(g6
g7
(lp478
Vhave
p479
atp480
Rp481
(dp482
g16
VVBP
p483
sbag5
(g6
g7
(lp484
g5
(g6
g7
(lp485
g5
(g6
g7
(lp486
Vconsidered
p487
atp488
Rp489
(dp490
g16
VVBN
p491
sbag5
(g6
g7
(lp492
g5
(g6
g7
(lp493
Vthis
p494
atp495
Rp496
(dp497
g16
VDT
p498
sbag5
(g6
g7
(lp499
Vdialog
p500
atp501
Rp502
(dp503
g16
VJJ
p504
sbag5
(g6
g7
(lp505
Vtopic
p506
atp507
Rp508
(dp509
g16
VNN
p510
sbag5
(g6
g7
(lp511
Videntification
p512
atp513
Rp514
(dp515
g16
VNN
p516
sbatp517
Rp518
(dp519
g16
VNP
p520
sbag5
(g6
g7
(lp521
g5
(g6
g7
(lp522
Vas
p523
atp524
Rp525
(dp526
g16
VIN
p527
sbag5
(g6
g7
(lp528
g5
(g6
g7
(lp529
g5
(g6
g7
(lp530
g307
atp531
Rp532
(dp533
g16
VDT
p534
sbag5
(g6
g7
(lp535
Vseparate
p536
atp537
Rp538
(dp539
g16
VJJ
p540
sbag5
(g6
g7
(lp541
Vsub-problem
p542
atp543
Rp544
(dp545
g16
VNN
p546
sbatp547
Rp548
(dp549
g16
VNP
p550
sbag5
(g6
g7
(lp551
g5
(g6
g7
(lp552
Vof
p553
atp554
Rp555
(dp556
g16
VIN
p557
sbag5
(g6
g7
(lp558
g5
(g6
g7
(lp559
Vdialog
p560
atp561
Rp562
(dp563
g16
VVBG
p564
sbag5
(g6
g7
(lp565
Vmanagement
p566
atp567
Rp568
(dp569
g16
VNN
p570
sbatp571
Rp572
(dp573
g16
VNP
p574
sbatp575
Rp576
(dp577
g16
VPP
p578
sbatp579
Rp580
(dp581
g16
VNP
p582
sbatp583
Rp584
(dp585
g16
VPP
p586
sbatp587
Rp588
(dp589
g16
VVP
p590
sbag5
(g6
g7
(lp591
Vand
p592
atp593
Rp594
(dp595
g16
VCC
p596
sbag5
(g6
g7
(lp597
g5
(g6
g7
(lp598
Vattempted
p599
atp600
Rp601
(dp602
g16
VVBN
p603
sbag5
(g6
g7
(lp604
g5
(g6
g7
(lp605
g5
(g6
g7
(lp606
Vto
p607
atp608
Rp609
(dp610
g16
VTO
p611
sbag5
(g6
g7
(lp612
g5
(g6
g7
(lp613
Vsolve
p614
atp615
Rp616
(dp617
g16
VVB
p618
sbag5
(g6
g7
(lp619
g5
(g6
g7
(lp620
Vit
p621
atp622
Rp623
(dp624
g16
VPRP
p625
sbatp626
Rp627
(dp628
g16
VNP
p629
sbag5
(g6
g7
(lp630
g5
(g6
g7
(lp631
Vwith
p632
atp633
Rp634
(dp635
g16
VIN
p636
sbag5
(g6
g7
(lp637
g5
(g6
g7
(lp638
g5
(g6
g7
(lp639
Vtext
p640
atp641
Rp642
(dp643
g16
VNN
p644
sbag5
(g6
g7
(lp645
Vcategorization
p646
atp647
Rp648
(dp649
g16
VNN
p650
sbag5
(g6
g7
(lp651
Vapproaches
p652
atp653
Rp654
(dp655
g16
VNNS
p656
sbatp657
Rp658
(dp659
g16
VNP
p660
sbag5
(g6
g7
(lp661
g5
(g6
g7
(lp662
Vfor
p663
atp664
Rp665
(dp666
g16
VIN
p667
sbag5
(g6
g7
(lp668
g5
(g6
g7
(lp669
Vthe
p670
atp671
Rp672
(dp673
g16
VDT
p674
sbag5
(g6
g7
(lp675
Vrecognized
p676
atp677
Rp678
(dp679
g16
VVBN
p680
sbag5
(g6
g7
(lp681
Vutterances
p682
atp683
Rp684
(dp685
g16
VNNS
p686
sbatp687
Rp688
(dp689
g16
VNP
p690
sbatp691
Rp692
(dp693
g16
VPP
p694
sbatp695
Rp696
(dp697
g16
VNP
p698
sbatp699
Rp700
(dp701
g16
VPP
p702
sbatp703
Rp704
(dp705
g16
VVP
p706
sbatp707
Rp708
(dp709
g16
VVP
p710
sbatp711
Rp712
(dp713
g16
g171
sbatp714
Rp715
(dp716
g16
VVP
p717
sbag5
(g6
g7
(lp718
g5
(g6
g7
(lp719
Vin
p720
atp721
Rp722
(dp723
g16
VIN
p724
sbag5
(g6
g7
(lp725
g5
(g6
g7
(lp726
g307
atp727
Rp728
(dp729
g16
VDT
p730
sbag5
(g6
g7
(lp731
Vgiven
p732
atp733
Rp734
(dp735
g16
VVBN
p736
sbag5
(g6
g7
(lp737
Vturn
p738
atp739
Rp740
(dp741
g16
VNN
p742
sbatp743
Rp744
(dp745
g16
VNP
p746
sbatp747
Rp748
(dp749
g16
VPP
p750
sbatp751
Rp752
(dp753
g16
VVP
p754
sbatp755
Rp756
(dp757
g16
VVP
p758
sbatp759
Rp760
(dp761
g16
g171
sbatp762
Rp763
(dp764
g16
VROOT
p765
sbasg176
(icmyPackage
CorE
p766
(dp767
g179
(lp768
(I0
I33
tp769
a(I0
I55
tp770
asg183
g5
(g6
g7
(lp771
g580
ag594
ag715
ag748
atp772
Rp773
(dp774
g16
g194
sbsbsg184
(icmyPackage
CorE
p775
(dp776
g179
(lp777
(I0
I0
tp778
a(I0
I31
tp779
asg183
g5
(g6
g7
(lp780
g454
ag458
ag474
ag481
ag489
ag518
atp781
Rp782
(dp783
g16
g194
sbsbsg195
(icmyPackage
pattern
p784
(dp785
g198
I26
sg199
I1
sg200
(lp786
(lp787
S'as'
p788
aasg205
(lp789
I3
aI1
aI1
asg207
(lp790
S'You do not need to worry about the operation, as the software is very easy to use.'
p791
asg210
I80
sg211
(lp792
(lp793
S'&R@Complete@'
p794
aS'(,)'
p795
aS'(-such/-same/-seem/-regard/-regards/-regarded/-view/-views/-viewed/-denote/-denoted/-denotes)'
p796
aa(lp797
S'(-if/-follow/-follows/-&adv)'
p798
aS'&C@Complete@'
p799
aasbsg220
(lp800
(isxpPackage
sxpSent
p801
(dp802
g224
(lp803
I2
asg226
VTo analyze and maintain dialog topics from a more systematic perspective in a given dialog flow, some researchers [ 12 , 8 , 1 ] have considered this dialog topic identification as a separate sub-problem of dialog management and attempted to solve it with text categorization approaches for the recognized utterances in a given turn
p804
sg228
I2
sg210
I8
sg229
I2
sbasba(icmyPackage
CELink
p805
(dp806
g3
(lp807
g5
(g6
g7
(lp808
g5
(g6
g7
(lp809
g5
(g6
g7
(lp810
g5
(g6
g7
(lp811
VHowever
p812
atp813
Rp814
(dp815
g16
VRB
p816
sbatp817
Rp818
(dp819
g16
VADVP
p820
sbag5
(g6
g7
(lp821
g376
atp822
Rp823
(dp824
g16
g376
sbag5
(g6
g7
(lp825
g5
(g6
g7
(lp826
g5
(g6
g7
(lp827
Vthe
p828
atp829
Rp830
(dp831
g16
VDT
p832
sbag5
(g6
g7
(lp833
Vdialog
p834
atp835
Rp836
(dp837
g16
VVBG
p838
sbag5
(g6
g7
(lp839
Vtopic
p840
atp841
Rp842
(dp843
g16
VNN
p844
sbatp845
Rp846
(dp847
g16
VNP
p848
sbag5
(g6
g7
(lp849
g5
(g6
g7
(lp850
Vat
p851
atp852
Rp853
(dp854
g16
VIN
p855
sbag5
(g6
g7
(lp856
g5
(g6
g7
(lp857
Veach
p858
atp859
Rp860
(dp861
g16
VDT
p862
sbag5
(g6
g7
(lp863
Vturn
p864
atp865
Rp866
(dp867
g16
VNN
p868
sbatp869
Rp870
(dp871
g16
VNP
p872
sbatp873
Rp874
(dp875
g16
VPP
p876
sbatp877
Rp878
(dp879
g16
VNP
p880
sbag5
(g6
g7
(lp881
g5
(g6
g7
(lp882
Vcan
p883
atp884
Rp885
(dp886
g16
VMD
p887
sbag5
(g6
g7
(lp888
g5
(g6
g7
(lp889
Vbe
p890
atp891
Rp892
(dp893
g16
VVB
p894
sbag5
(g6
g7
(lp895
g5
(g6
g7
(lp896
Vdetermined
p897
atp898
Rp899
(dp900
g16
VVBN
p901
sbag5
(g6
g7
(lp902
g5
(g6
g7
(lp903
Vnot
p904
atp905
Rp906
(dp907
g16
VRB
p908
sbag5
(g6
g7
(lp909
Vonly
p910
atp911
Rp912
(dp913
g16
VRB
p914
sbag5
(g6
g7
(lp915
g5
(g6
g7
(lp916
Vby
p917
atp918
Rp919
(dp920
g16
VIN
p921
sbag5
(g6
g7
(lp922
g5
(g6
g7
(lp923
g5
(g6
g7
(lp924
g5
(g6
g7
(lp925
g5
(g6
g7
(lp926
Vthe
p927
atp928
Rp929
(dp930
g16
VDT
p931
sbag5
(g6
g7
(lp932
Vuser
p933
atp934
Rp935
(dp936
g16
VNN
p937
sbag5
(g6
g7
(lp938
Vu
p939
atp940
Rp941
(dp942
g16
VNN
p943
sbag5
(g6
g7
(lp944
V'
p945
atp946
Rp947
(dp948
g16
VPOS
p949
sbatp950
Rp951
(dp952
g16
VNP
p953
sbag5
(g6
g7
(lp954
V\u005c
p955
atp956
Rp957
(dp958
g16
VJJ
p959
sbag5
(g6
g7
(lp960
Vu2019
p961
atp962
Rp963
(dp964
g16
VNNS
p965
sbag5
(g6
g7
(lp966
g945
atp967
Rp968
(dp969
g16
VPOS
p970
sbatp971
Rp972
(dp973
g16
VNP
p974
sbag5
(g6
g7
(lp975
Vs
p976
atp977
Rp978
(dp979
g16
VNN
p980
sbag5
(g6
g7
(lp981
Vintentions
p982
atp983
Rp984
(dp985
g16
VNNS
p986
sbatp987
Rp988
(dp989
g16
VNP
p990
sbag5
(g6
g7
(lp991
g5
(g6
g7
(lp992
Vcaptured
p993
atp994
Rp995
(dp996
g16
VVBN
p997
sbag5
(g6
g7
(lp998
g5
(g6
g7
(lp999
Vfrom
p1000
atp1001
Rp1002
(dp1003
g16
VIN
p1004
sbag5
(g6
g7
(lp1005
g5
(g6
g7
(lp1006
Vthe
p1007
atp1008
Rp1009
(dp1010
g16
VDT
p1011
sbag5
(g6
g7
(lp1012
Vgiven
p1013
atp1014
Rp1015
(dp1016
g16
VVBN
p1017
sbag5
(g6
g7
(lp1018
Vutterances
p1019
atp1020
Rp1021
(dp1022
g16
VNNS
p1023
sbatp1024
Rp1025
(dp1026
g16
VNP
p1027
sbatp1028
Rp1029
(dp1030
g16
VPP
p1031
sbatp1032
Rp1033
(dp1034
g16
VVP
p1035
sbatp1036
Rp1037
(dp1038
g16
VNP
p1039
sbatp1040
Rp1041
(dp1042
g16
VPP
p1043
sbag5
(g6
g7
(lp1044
g376
atp1045
Rp1046
(dp1047
g16
g376
sbag5
(g6
g7
(lp1048
Vbut
p1049
atp1050
Rp1051
(dp1052
g16
VCC
p1053
sbag5
(g6
g7
(lp1054
g5
(g6
g7
(lp1055
g5
(g6
g7
(lp1056
Valso
p1057
atp1058
Rp1059
(dp1060
g16
VRB
p1061
sbatp1062
Rp1063
(dp1064
g16
VADVP
p1065
sbag5
(g6
g7
(lp1066
Vby
p1067
atp1068
Rp1069
(dp1070
g16
VIN
p1071
sbag5
(g6
g7
(lp1072
g5
(g6
g7
(lp1073
g5
(g6
g7
(lp1074
g5
(g6
g7
(lp1075
g5
(g6
g7
(lp1076
Vthe
p1077
atp1078
Rp1079
(dp1080
g16
VDT
p1081
sbag5
(g6
g7
(lp1082
Vsystem
p1083
atp1084
Rp1085
(dp1086
g16
VNN
p1087
sbag5
(g6
g7
(lp1088
g939
atp1089
Rp1090
(dp1091
g16
VNN
p1092
sbag5
(g6
g7
(lp1093
g945
atp1094
Rp1095
(dp1096
g16
VPOS
p1097
sbatp1098
Rp1099
(dp1100
g16
VNP
p1101
sbag5
(g6
g7
(lp1102
V\u005c
p1103
atp1104
Rp1105
(dp1106
g16
VJJ
p1107
sbag5
(g6
g7
(lp1108
Vu2019
p1109
atp1110
Rp1111
(dp1112
g16
VNNS
p1113
sbag5
(g6
g7
(lp1114
g945
atp1115
Rp1116
(dp1117
g16
VPOS
p1118
sbatp1119
Rp1120
(dp1121
g16
VNP
p1122
sbag5
(g6
g7
(lp1123
g976
atp1124
Rp1125
(dp1126
g16
VNN
p1127
sbag5
(g6
g7
(lp1128
Vdecisions
p1129
atp1130
Rp1131
(dp1132
g16
VNNS
p1133
sbatp1134
Rp1135
(dp1136
g16
VNP
p1137
sbag5
(g6
g7
(lp1138
g5
(g6
g7
(lp1139
Vfor
p1140
atp1141
Rp1142
(dp1143
g16
VIN
p1144
sbag5
(g6
g7
(lp1145
g5
(g6
g7
(lp1146
Vdialog
p1147
atp1148
Rp1149
(dp1150
g16
VJJ
p1151
sbag5
(g6
g7
(lp1152
Vmanagement
p1153
atp1154
Rp1155
(dp1156
g16
VNN
p1157
sbag5
(g6
g7
(lp1158
Vpurposes
p1159
atp1160
Rp1161
(dp1162
g16
VNNS
p1163
sbatp1164
Rp1165
(dp1166
g16
VNP
p1167
sbatp1168
Rp1169
(dp1170
g16
VPP
p1171
sbatp1172
Rp1173
(dp1174
g16
VNP
p1175
sbatp1176
Rp1177
(dp1178
g16
VPP
p1179
sbatp1180
Rp1181
(dp1182
g16
VPP
p1183
sbatp1184
Rp1185
(dp1186
g16
VVP
p1187
sbatp1188
Rp1189
(dp1190
g16
VVP
p1191
sbatp1192
Rp1193
(dp1194
g16
VVP
p1195
sbatp1196
Rp1197
(dp1198
g16
g171
sbatp1199
Rp1200
(dp1201
g16
VROOT
p1202
sbag5
(g6
g7
(lp1203
g5
(g6
g7
(lp1204
g5
(g6
g7
(lp1205
g5
(g6
g7
(lp1206
VThus
p1207
atp1208
Rp1209
(dp1210
g16
VRB
p1211
sbatp1212
Rp1213
(dp1214
g16
VADVP
p1215
sbag5
(g6
g7
(lp1216
g376
atp1217
Rp1218
(dp1219
g16
g376
sbag5
(g6
g7
(lp1220
g5
(g6
g7
(lp1221
Vthe
p1222
atp1223
Rp1224
(dp1225
g16
VDT
p1226
sbag5
(g6
g7
(lp1227
Vtext
p1228
atp1229
Rp1230
(dp1231
g16
VNN
p1232
sbag5
(g6
g7
(lp1233
Vcategorization
p1234
atp1235
Rp1236
(dp1237
g16
VNN
p1238
sbag5
(g6
g7
(lp1239
Vapproaches
p1240
atp1241
Rp1242
(dp1243
g16
VNNS
p1244
sbatp1245
Rp1246
(dp1247
g16
VNP
p1248
sbag5
(g6
g7
(lp1249
g5
(g6
g7
(lp1250
Vcan
p1251
atp1252
Rp1253
(dp1254
g16
VMD
p1255
sbag5
(g6
g7
(lp1256
g5
(g6
g7
(lp1257
Vonly
p1258
atp1259
Rp1260
(dp1261
g16
VRB
p1262
sbatp1263
Rp1264
(dp1265
g16
VADVP
p1266
sbag5
(g6
g7
(lp1267
g5
(g6
g7
(lp1268
Vbe
p1269
atp1270
Rp1271
(dp1272
g16
VVB
p1273
sbag5
(g6
g7
(lp1274
g5
(g6
g7
(lp1275
Veffective
p1276
atp1277
Rp1278
(dp1279
g16
VJJ
p1280
sbag5
(g6
g7
(lp1281
g5
(g6
g7
(lp1282
Vfor
p1283
atp1284
Rp1285
(dp1286
g16
VIN
p1287
sbag5
(g6
g7
(lp1288
g5
(g6
g7
(lp1289
Vthe
p1290
atp1291
Rp1292
(dp1293
g16
VDT
p1294
sbag5
(g6
g7
(lp1295
Vuser-initiative
p1296
atp1297
Rp1298
(dp1299
g16
VJJ
p1300
sbag5
(g6
g7
(lp1301
Vcases
p1302
atp1303
Rp1304
(dp1305
g16
VNNS
p1306
sbatp1307
Rp1308
(dp1309
g16
VNP
p1310
sbatp1311
Rp1312
(dp1313
g16
VPP
p1314
sbatp1315
Rp1316
(dp1317
g16
VADJP
p1318
sbag5
(g6
g7
(lp1319
g5
(g6
g7
(lp1320
g5
(g6
g7
(lp1321
Vwhen
p1322
atp1323
Rp1324
(dp1325
g16
VWRB
p1326
sbatp1327
Rp1328
(dp1329
g16
VWHADVP
p1330
sbag5
(g6
g7
(lp1331
g5
(g6
g7
(lp1332
g5
(g6
g7
(lp1333
Vusers
p1334
atp1335
Rp1336
(dp1337
g16
VNNS
p1338
sbatp1339
Rp1340
(dp1341
g16
VNP
p1342
sbag5
(g6
g7
(lp1343
g5
(g6
g7
(lp1344
Vtend
p1345
atp1346
Rp1347
(dp1348
g16
VVBP
p1349
sbag5
(g6
g7
(lp1350
g5
(g6
g7
(lp1351
g5
(g6
g7
(lp1352
Vto
p1353
atp1354
Rp1355
(dp1356
g16
VTO
p1357
sbag5
(g6
g7
(lp1358
g5
(g6
g7
(lp1359
Vmention
p1360
atp1361
Rp1362
(dp1363
g16
VVB
p1364
sbag5
(g6
g7
(lp1365
g5
(g6
g7
(lp1366
Vthe
p1367
atp1368
Rp1369
(dp1370
g16
VDT
p1371
sbag5
(g6
g7
(lp1372
Vtopic-related
p1373
atp1374
Rp1375
(dp1376
g16
VJJ
p1377
sbag5
(g6
g7
(lp1378
Vexpressions
p1379
atp1380
Rp1381
(dp1382
g16
VNNS
p1383
sbatp1384
Rp1385
(dp1386
g16
VNP
p1387
sbag5
(g6
g7
(lp1388
g5
(g6
g7
(lp1389
Vexplicitly
p1390
atp1391
Rp1392
(dp1393
g16
VRB
p1394
sbatp1395
Rp1396
(dp1397
g16
VADVP
p1398
sbag5
(g6
g7
(lp1399
g5
(g6
g7
(lp1400
Vin
p1401
atp1402
Rp1403
(dp1404
g16
VIN
p1405
sbag5
(g6
g7
(lp1406
g5
(g6
g7
(lp1407
Vtheir
p1408
atp1409
Rp1410
(dp1411
g16
VPRP$
p1412
sbag5
(g6
g7
(lp1413
Vutterances
p1414
atp1415
Rp1416
(dp1417
g16
VNNS
p1418
sbatp1419
Rp1420
(dp1421
g16
VNP
p1422
sbatp1423
Rp1424
(dp1425
g16
VPP
p1426
sbatp1427
Rp1428
(dp1429
g16
VVP
p1430
sbatp1431
Rp1432
(dp1433
g16
VVP
p1434
sbatp1435
Rp1436
(dp1437
g16
g171
sbatp1438
Rp1439
(dp1440
g16
VVP
p1441
sbatp1442
Rp1443
(dp1444
g16
g171
sbatp1445
Rp1446
(dp1447
g16
VSBAR
p1448
sbatp1449
Rp1450
(dp1451
g16
VVP
p1452
sbatp1453
Rp1454
(dp1455
g16
VVP
p1456
sbatp1457
Rp1458
(dp1459
g16
g171
sbatp1460
Rp1461
(dp1462
g16
VROOT
p1463
sbasg176
(icmyPackage
CorE
p1464
(dp1465
g179
(lp1466
(I0
I0
tp1467
a(I0
I44
tp1468
asg183
g1200
sbsg184
(icmyPackage
CorE
p1469
(dp1470
g179
(lp1471
(I1
I1
tp1472
a(I1
I25
tp1473
asg183
g5
(g6
g7
(lp1474
g1218
ag1246
ag1454
atp1475
Rp1476
(dp1477
g16
g194
sbsbsg195
(icmyPackage
pattern
p1478
(dp1479
g198
I35
sg199
I1
sg200
(lp1480
(lp1481
S'thus'
p1482
aasg205
(lp1483
I1
aI1
aI1
asg207
(lp1484
S'Japan will be on the dark side of the Earth, and thus will lack the warming influence of the Sun.'
p1485
asg210
I2
sg211
(lp1486
(lp1487
S'&C'
p1488
aS'(,/;/./--)'
p1489
aS'(&AND)'
p1490
aa(lp1491
S'&R'
p1492
aasbsg220
(lp1493
(isxpPackage
sxpSent
p1494
(dp1495
g224
(lp1496
I3
asg226
VHowever, the dialog topic at each turn can be determined not only by the user u'\u005cu2019' s intentions captured from the given utterances, but also by the system u'\u005cu2019' s decisions for dialog management purposes
p1497
sg228
I2
sg210
I11
sg229
I2
sba(isxpPackage
sxpSent
p1498
(dp1499
g224
(lp1500
I3
asg226
VThus, the text categorization approaches can only be effective for the user-initiative cases when users tend to mention the topic-related expressions explicitly in their utterances
p1501
sg228
I2
sg210
I12
sg229
I2
sbasba(icmyPackage
CELink
p1502
(dp1503
g3
(lp1504
g5
(g6
g7
(lp1505
g5
(g6
g7
(lp1506
g5
(g6
g7
(lp1507
g5
(g6
g7
(lp1508
VThese
p1509
atp1510
Rp1511
(dp1512
g16
VDT
p1513
sbag5
(g6
g7
(lp1514
Vknowledge-based
p1515
atp1516
Rp1517
(dp1518
g16
VJJ
p1519
sbag5
(g6
g7
(lp1520
Vmethods
p1521
atp1522
Rp1523
(dp1524
g16
VNNS
p1525
sbatp1526
Rp1527
(dp1528
g16
VNP
p1529
sbag5
(g6
g7
(lp1530
g5
(g6
g7
(lp1531
Vhave
p1532
atp1533
Rp1534
(dp1535
g16
VVBP
p1536
sbag5
(g6
g7
(lp1537
g5
(g6
g7
(lp1538
g5
(g6
g7
(lp1539
Van
p1540
atp1541
Rp1542
(dp1543
g16
VDT
p1544
sbag5
(g6
g7
(lp1545
Vadvantage
p1546
atp1547
Rp1548
(dp1549
g16
VNN
p1550
sbatp1551
Rp1552
(dp1553
g16
VNP
p1554
sbag5
(g6
g7
(lp1555
g5
(g6
g7
(lp1556
Vof
p1557
atp1558
Rp1559
(dp1560
g16
VIN
p1561
sbag5
(g6
g7
(lp1562
g5
(g6
g7
(lp1563
g5
(g6
g7
(lp1564
Vdealing
p1565
atp1566
Rp1567
(dp1568
g16
VVBG
p1569
sbag5
(g6
g7
(lp1570
g5
(g6
g7
(lp1571
Vwith
p1572
atp1573
Rp1574
(dp1575
g16
VIN
p1576
sbag5
(g6
g7
(lp1577
g5
(g6
g7
(lp1578
Vsystem-initiative
p1579
atp1580
Rp1581
(dp1582
g16
VJJ
p1583
sbag5
(g6
g7
(lp1584
Vdialogs
p1585
atp1586
Rp1587
(dp1588
g16
VNNS
p1589
sbatp1590
Rp1591
(dp1592
g16
VNP
p1593
sbatp1594
Rp1595
(dp1596
g16
VPP
p1597
sbatp1598
Rp1599
(dp1600
g16
VVP
p1601
sbatp1602
Rp1603
(dp1604
g16
g171
sbatp1605
Rp1606
(dp1607
g16
VPP
p1608
sbatp1609
Rp1610
(dp1611
g16
VNP
p1612
sbag5
(g6
g7
(lp1613
g376
atp1614
Rp1615
(dp1616
g16
g376
sbag5
(g6
g7
(lp1617
g5
(g6
g7
(lp1618
Vbecause
p1619
atp1620
Rp1621
(dp1622
g16
VIN
p1623
sbag5
(g6
g7
(lp1624
g5
(g6
g7
(lp1625
g5
(g6
g7
(lp1626
Vdialog
p1627
atp1628
Rp1629
(dp1630
g16
VVBG
p1631
sbag5
(g6
g7
(lp1632
Vflows
p1633
atp1634
Rp1635
(dp1636
g16
VNNS
p1637
sbatp1638
Rp1639
(dp1640
g16
VNP
p1641
sbag5
(g6
g7
(lp1642
g5
(g6
g7
(lp1643
Vcan
p1644
atp1645
Rp1646
(dp1647
g16
VMD
p1648
sbag5
(g6
g7
(lp1649
g5
(g6
g7
(lp1650
Vbe
p1651
atp1652
Rp1653
(dp1654
g16
VVB
p1655
sbag5
(g6
g7
(lp1656
g5
(g6
g7
(lp1657
Vcontrolled
p1658
atp1659
Rp1660
(dp1661
g16
VVBN
p1662
sbag5
(g6
g7
(lp1663
g5
(g6
g7
(lp1664
Vby
p1665
atp1666
Rp1667
(dp1668
g16
VIN
p1669
sbag5
(g6
g7
(lp1670
g5
(g6
g7
(lp1671
g5
(g6
g7
(lp1672
Vthe
p1673
atp1674
Rp1675
(dp1676
g16
VDT
p1677
sbag5
(g6
g7
(lp1678
Vsystem
p1679
atp1680
Rp1681
(dp1682
g16
VNN
p1683
sbatp1684
Rp1685
(dp1686
g16
VNP
p1687
sbag5
(g6
g7
(lp1688
g5
(g6
g7
(lp1689
Vbased
p1690
atp1691
Rp1692
(dp1693
g16
VVBN
p1694
sbag5
(g6
g7
(lp1695
g5
(g6
g7
(lp1696
Von
p1697
atp1698
Rp1699
(dp1700
g16
VIN
p1701
sbag5
(g6
g7
(lp1702
g5
(g6
g7
(lp1703
Vgiven
p1704
atp1705
Rp1706
(dp1707
g16
VVBN
p1708
sbag5
(g6
g7
(lp1709
Vresources
p1710
atp1711
Rp1712
(dp1713
g16
VNNS
p1714
sbatp1715
Rp1716
(dp1717
g16
VNP
p1718
sbatp1719
Rp1720
(dp1721
g16
VPP
p1722
sbatp1723
Rp1724
(dp1725
g16
VVP
p1726
sbatp1727
Rp1728
(dp1729
g16
VNP
p1730
sbatp1731
Rp1732
(dp1733
g16
VPP
p1734
sbatp1735
Rp1736
(dp1737
g16
VVP
p1738
sbatp1739
Rp1740
(dp1741
g16
VVP
p1742
sbatp1743
Rp1744
(dp1745
g16
VVP
p1746
sbatp1747
Rp1748
(dp1749
g16
g171
sbatp1750
Rp1751
(dp1752
g16
VSBAR
p1753
sbatp1754
Rp1755
(dp1756
g16
VVP
p1757
sbatp1758
Rp1759
(dp1760
g16
g171
sbatp1761
Rp1762
(dp1763
g16
VROOT
p1764
sbasg176
(icmyPackage
CorE
p1765
(dp1766
g179
(lp1767
(I0
I13
tp1768
a(I0
I24
tp1769
asg183
g1748
sbsg184
(icmyPackage
CorE
p1770
(dp1771
g179
(lp1772
(I0
I0
tp1773
a(I0
I10
tp1774
asg183
g5
(g6
g7
(lp1775
g1527
ag1534
ag1610
atp1776
Rp1777
(dp1778
g16
g194
sbsbsg195
(icmyPackage
pattern
p1779
(dp1780
g198
I407
sg199
I1
sg200
(lp1781
(lp1782
S'because'
p1783
aasg205
(lp1784
I3
aI1
aI1
asg207
(lp1785
S'It ends up in burnout and less production, because we inevitably run out of energy.'
p1786
asg210
I76
sg211
(lp1787
(lp1788
S'&R'
p1789
aS'(,)'
p1790
aS'(&ADV)'
p1791
aa(lp1792
S'&C'
p1793
aasbsg220
(lp1794
(isxpPackage
sxpSent
p1795
(dp1796
g224
(lp1797
I4
aI5
asg226
VThese knowledge-based methods have an advantage of dealing with system-initiative dialogs, because dialog flows can be controlled by the system based on given resources
p1798
sg228
I2
sg210
I14
sg229
I3
sbasba(icmyPackage
CELink
p1799
(dp1800
g3
(lp1801
g1748
asg176
(icmyPackage
CorE
p1802
(dp1803
g179
(lp1804
(I0
I10
tp1805
a(I0
I11
tp1806
asg183
g1716
sbsg184
(icmyPackage
CorE
p1807
(dp1808
g179
(lp1809
(I0
I0
tp1810
a(I0
I7
tp1811
asg183
g5
(g6
g7
(lp1812
g1639
ag1646
ag1653
ag1660
ag1667
ag1685
atp1813
Rp1814
(dp1815
g16
g194
sbsbsg195
g196
sg220
(lp1816
g1795
asba(icmyPackage
CELink
p1817
(dp1818
g3
(lp1819
g5
(g6
g7
(lp1820
g5
(g6
g7
(lp1821
g5
(g6
g7
(lp1822
g5
(g6
g7
(lp1823
VMoreover
p1824
atp1825
Rp1826
(dp1827
g16
VRB
p1828
sbatp1829
Rp1830
(dp1831
g16
VADVP
p1832
sbag5
(g6
g7
(lp1833
g376
atp1834
Rp1835
(dp1836
g16
g376
sbag5
(g6
g7
(lp1837
g5
(g6
g7
(lp1838
Vthese
p1839
atp1840
Rp1841
(dp1842
g16
VDT
p1843
sbag5
(g6
g7
(lp1844
Vapproaches
p1845
atp1846
Rp1847
(dp1848
g16
VNNS
p1849
sbatp1850
Rp1851
(dp1852
g16
VNP
p1853
sbag5
(g6
g7
(lp1854
g5
(g6
g7
(lp1855
Vface
p1856
atp1857
Rp1858
(dp1859
g16
VVBP
p1860
sbag5
(g6
g7
(lp1861
g5
(g6
g7
(lp1862
Vcost
p1863
atp1864
Rp1865
(dp1866
g16
VNN
p1867
sbag5
(g6
g7
(lp1868
Vproblems
p1869
atp1870
Rp1871
(dp1872
g16
VNNS
p1873
sbatp1874
Rp1875
(dp1876
g16
VNP
p1877
sbag5
(g6
g7
(lp1878
g5
(g6
g7
(lp1879
Vfor
p1880
atp1881
Rp1882
(dp1883
g16
VIN
p1884
sbag5
(g6
g7
(lp1885
g5
(g6
g7
(lp1886
g5
(g6
g7
(lp1887
Vbuilding
p1888
atp1889
Rp1890
(dp1891
g16
VVBG
p1892
sbag5
(g6
g7
(lp1893
g5
(g6
g7
(lp1894
g5
(g6
g7
(lp1895
g307
atp1896
Rp1897
(dp1898
g16
VDT
p1899
sbag5
(g6
g7
(lp1900
Vsufficient
p1901
atp1902
Rp1903
(dp1904
g16
VJJ
p1905
sbag5
(g6
g7
(lp1906
Vamount
p1907
atp1908
Rp1909
(dp1910
g16
VNN
p1911
sbatp1912
Rp1913
(dp1914
g16
VNP
p1915
sbag5
(g6
g7
(lp1916
g5
(g6
g7
(lp1917
Vof
p1918
atp1919
Rp1920
(dp1921
g16
VIN
p1922
sbag5
(g6
g7
(lp1923
g5
(g6
g7
(lp1924
Vresources
p1925
atp1926
Rp1927
(dp1928
g16
VNNS
p1929
sbatp1930
Rp1931
(dp1932
g16
VNP
p1933
sbatp1934
Rp1935
(dp1936
g16
VPP
p1937
sbatp1938
Rp1939
(dp1940
g16
VNP
p1941
sbag5
(g6
g7
(lp1942
g5
(g6
g7
(lp1943
g5
(g6
g7
(lp1944
Vto
p1945
atp1946
Rp1947
(dp1948
g16
VTO
p1949
sbag5
(g6
g7
(lp1950
g5
(g6
g7
(lp1951
Vcover
p1952
atp1953
Rp1954
(dp1955
g16
VVB
p1956
sbag5
(g6
g7
(lp1957
g5
(g6
g7
(lp1958
g5
(g6
g7
(lp1959
Vbroad
p1960
atp1961
Rp1962
(dp1963
g16
VJJ
p1964
sbag5
(g6
g7
(lp1965
Vstates
p1966
atp1967
Rp1968
(dp1969
g16
VNNS
p1970
sbatp1971
Rp1972
(dp1973
g16
VNP
p1974
sbag5
(g6
g7
(lp1975
g5
(g6
g7
(lp1976
Vof
p1977
atp1978
Rp1979
(dp1980
g16
VIN
p1981
sbag5
(g6
g7
(lp1982
g5
(g6
g7
(lp1983
Vcomplex
p1984
atp1985
Rp1986
(dp1987
g16
VJJ
p1988
sbag5
(g6
g7
(lp1989
Vdialogs
p1990
atp1991
Rp1992
(dp1993
g16
VNNS
p1994
sbatp1995
Rp1996
(dp1997
g16
VNP
p1998
sbatp1999
Rp2000
(dp2001
g16
VPP
p2002
sbatp2003
Rp2004
(dp2005
g16
VNP
p2006
sbatp2007
Rp2008
(dp2009
g16
VVP
p2010
sbatp2011
Rp2012
(dp2013
g16
VVP
p2014
sbatp2015
Rp2016
(dp2017
g16
g171
sbatp2018
Rp2019
(dp2020
g16
VVP
p2021
sbatp2022
Rp2023
(dp2024
g16
g171
sbatp2025
Rp2026
(dp2027
g16
VPP
p2028
sbag5
(g6
g7
(lp2029
g376
atp2030
Rp2031
(dp2032
g16
g376
sbag5
(g6
g7
(lp2033
g5
(g6
g7
(lp2034
Vbecause
p2035
atp2036
Rp2037
(dp2038
g16
VIN
p2039
sbag5
(g6
g7
(lp2040
g5
(g6
g7
(lp2041
g5
(g6
g7
(lp2042
Vthese
p2043
atp2044
Rp2045
(dp2046
g16
VDT
p2047
sbag5
(g6
g7
(lp2048
Vresources
p2049
atp2050
Rp2051
(dp2052
g16
VNNS
p2053
sbatp2054
Rp2055
(dp2056
g16
VNP
p2057
sbag5
(g6
g7
(lp2058
g5
(g6
g7
(lp2059
Vshould
p2060
atp2061
Rp2062
(dp2063
g16
VMD
p2064
sbag5
(g6
g7
(lp2065
g5
(g6
g7
(lp2066
Vbe
p2067
atp2068
Rp2069
(dp2070
g16
VVB
p2071
sbag5
(g6
g7
(lp2072
g5
(g6
g7
(lp2073
g5
(g6
g7
(lp2074
Vmanually
p2075
atp2076
Rp2077
(dp2078
g16
VRB
p2079
sbatp2080
Rp2081
(dp2082
g16
VADVP
p2083
sbag5
(g6
g7
(lp2084
Vprepared
p2085
atp2086
Rp2087
(dp2088
g16
VVBN
p2089
sbag5
(g6
g7
(lp2090
g5
(g6
g7
(lp2091
Vby
p2092
atp2093
Rp2094
(dp2095
g16
VIN
p2096
sbag5
(g6
g7
(lp2097
g5
(g6
g7
(lp2098
g5
(g6
g7
(lp2099
Vhuman
p2100
atp2101
Rp2102
(dp2103
g16
VJJ
p2104
sbag5
(g6
g7
(lp2105
Vexperts
p2106
atp2107
Rp2108
(dp2109
g16
VNNS
p2110
sbatp2111
Rp2112
(dp2113
g16
VNP
p2114
sbag5
(g6
g7
(lp2115
g5
(g6
g7
(lp2116
Vfor
p2117
atp2118
Rp2119
(dp2120
g16
VIN
p2121
sbag5
(g6
g7
(lp2122
g5
(g6
g7
(lp2123
Veach
p2124
atp2125
Rp2126
(dp2127
g16
VDT
p2128
sbag5
(g6
g7
(lp2129
Vspecific
p2130
atp2131
Rp2132
(dp2133
g16
VJJ
p2134
sbag5
(g6
g7
(lp2135
Vdomain
p2136
atp2137
Rp2138
(dp2139
g16
VNN
p2140
sbatp2141
Rp2142
(dp2143
g16
VNP
p2144
sbatp2145
Rp2146
(dp2147
g16
VPP
p2148
sbatp2149
Rp2150
(dp2151
g16
VNP
p2152
sbatp2153
Rp2154
(dp2155
g16
VPP
p2156
sbatp2157
Rp2158
(dp2159
g16
VVP
p2160
sbatp2161
Rp2162
(dp2163
g16
VVP
p2164
sbatp2165
Rp2166
(dp2167
g16
VVP
p2168
sbatp2169
Rp2170
(dp2171
g16
g171
sbatp2172
Rp2173
(dp2174
g16
VSBAR
p2175
sbatp2176
Rp2177
(dp2178
g16
VVP
p2179
sbatp2180
Rp2181
(dp2182
g16
g171
sbatp2183
Rp2184
(dp2185
g16
VROOT
p2186
sbasg176
(icmyPackage
CorE
p2187
(dp2188
g179
(lp2189
(I0
I23
tp2190
a(I0
I35
tp2191
asg183
g2170
sbsg184
(icmyPackage
CorE
p2192
(dp2193
g179
(lp2194
(I0
I0
tp2195
a(I0
I20
tp2196
asg183
g5
(g6
g7
(lp2197
g1830
ag1835
ag1851
ag1858
ag1875
ag2026
atp2198
Rp2199
(dp2200
g16
g194
sbsbsg195
g1779
sg220
(lp2201
(isxpPackage
sxpSent
p2202
(dp2203
g224
(lp2204
I6
aI7
asg226
VMoreover, these approaches face cost problems for building a sufficient amount of resources to cover broad states of complex dialogs, because these resources should be manually prepared by human experts for each specific domain
p2205
sg228
I2
sg210
I16
sg229
I3
sbasba(icmyPackage
CELink
p2206
(dp2207
g3
(lp2208
g2199
asg176
(icmyPackage
CorE
p2209
(dp2210
g179
(lp2211
(I0
I8
tp2212
a(I0
I20
tp2213
asg183
g2023
sbsg184
(icmyPackage
CorE
p2214
(dp2215
g179
(lp2216
(I0
I0
tp2217
a(I0
I6
tp2218
asg183
g5
(g6
g7
(lp2219
g1830
ag1835
ag1851
ag1858
ag1875
atp2220
Rp2221
(dp2222
g16
g194
sbsbsg195
(icmyPackage
pattern
p2223
(dp2224
g198
I25
sg199
I0
sg200
(lp2225
(lp2226
S'for'
p2227
aasg205
(lp2228
I2
aI1
aI1
asg207
(lp2229
S'She was angry with him for being late.'
p2230
asg210
I44
sg211
(lp2231
(lp2232
S'&R'
p2233
aa(lp2234
S'&V-ing@C@'
p2235
aasbsg220
(lp2236
g2202
asba(icmyPackage
CELink
p2237
(dp2238
g3
(lp2239
g5
(g6
g7
(lp2240
g5
(g6
g7
(lp2241
g5
(g6
g7
(lp2242
g5
(g6
g7
(lp2243
VComposite
p2244
atp2245
Rp2246
(dp2247
g16
VNNP
p2248
sbag5
(g6
g7
(lp2249
Vkernels
p2250
atp2251
Rp2252
(dp2253
g16
VNNS
p2254
sbatp2255
Rp2256
(dp2257
g16
VNP
p2258
sbag5
(g6
g7
(lp2259
g5
(g6
g7
(lp2260
Vhave
p2261
atp2262
Rp2263
(dp2264
g16
VVBP
p2265
sbag5
(g6
g7
(lp2266
g5
(g6
g7
(lp2267
Vbeen
p2268
atp2269
Rp2270
(dp2271
g16
VVBN
p2272
sbag5
(g6
g7
(lp2273
g5
(g6
g7
(lp2274
Vsuccessfully
p2275
atp2276
Rp2277
(dp2278
g16
VRB
p2279
sbatp2280
Rp2281
(dp2282
g16
VADVP
p2283
sbag5
(g6
g7
(lp2284
g5
(g6
g7
(lp2285
Vapplied
p2286
atp2287
Rp2288
(dp2289
g16
VVBN
p2290
sbag5
(g6
g7
(lp2291
g5
(g6
g7
(lp2292
g5
(g6
g7
(lp2293
Vto
p2294
atp2295
Rp2296
(dp2297
g16
VTO
p2298
sbag5
(g6
g7
(lp2299
g5
(g6
g7
(lp2300
Vimprove
p2301
atp2302
Rp2303
(dp2304
g16
VVB
p2305
sbag5
(g6
g7
(lp2306
g5
(g6
g7
(lp2307
g5
(g6
g7
(lp2308
Vthe
p2309
atp2310
Rp2311
(dp2312
g16
VDT
p2313
sbag5
(g6
g7
(lp2314
Vperformances
p2315
atp2316
Rp2317
(dp2318
g16
VNNS
p2319
sbatp2320
Rp2321
(dp2322
g16
VNP
p2323
sbag5
(g6
g7
(lp2324
g5
(g6
g7
(lp2325
Vin
p2326
atp2327
Rp2328
(dp2329
g16
VIN
p2330
sbag5
(g6
g7
(lp2331
g5
(g6
g7
(lp2332
Vother
p2333
atp2334
Rp2335
(dp2336
g16
VJJ
p2337
sbag5
(g6
g7
(lp2338
VNLP
p2339
atp2340
Rp2341
(dp2342
g16
VNNP
p2343
sbag5
(g6
g7
(lp2344
Vproblems
p2345
atp2346
Rp2347
(dp2348
g16
VNNS
p2349
sbatp2350
Rp2351
(dp2352
g16
VNP
p2353
sbatp2354
Rp2355
(dp2356
g16
VPP
p2357
sbag5
(g6
g7
(lp2358
g5
(g6
g7
(lp2359
g5
(g6
g7
(lp2360
V-LSB-
p2361
atp2362
Rp2363
(dp2364
g16
VNNP
p2365
sbag5
(g6
g7
(lp2366
V17
p2367
atp2368
Rp2369
(dp2370
g16
VCD
p2371
sbag5
(g6
g7
(lp2372
g376
atp2373
Rp2374
(dp2375
g16
g376
sbag5
(g6
g7
(lp2376
V16
p2377
atp2378
Rp2379
(dp2380
g16
VCD
p2381
sbatp2382
Rp2383
(dp2384
g16
VNP
p2385
sbag5
(g6
g7
(lp2386
V-RSB-
p2387
atp2388
Rp2389
(dp2390
g16
VJJ
p2391
sbatp2392
Rp2393
(dp2394
g16
VADJP
p2395
sbatp2396
Rp2397
(dp2398
g16
VNP
p2399
sbag5
(g6
g7
(lp2400
g5
(g6
g7
(lp2401
Vby
p2402
atp2403
Rp2404
(dp2405
g16
VIN
p2406
sbag5
(g6
g7
(lp2407
g5
(g6
g7
(lp2408
g5
(g6
g7
(lp2409
Vintegrating
p2410
atp2411
Rp2412
(dp2413
g16
VVBG
p2414
sbag5
(g6
g7
(lp2415
g5
(g6
g7
(lp2416
g5
(g6
g7
(lp2417
Vmultiple
p2418
atp2419
Rp2420
(dp2421
g16
VJJ
p2422
sbag5
(g6
g7
(lp2423
Vindividual
p2424
atp2425
Rp2426
(dp2427
g16
VJJ
p2428
sbag5
(g6
g7
(lp2429
Vkernels
p2430
atp2431
Rp2432
(dp2433
g16
VNNS
p2434
sbatp2435
Rp2436
(dp2437
g16
VNP
p2438
sbag5
(g6
g7
(lp2439
g376
atp2440
Rp2441
(dp2442
g16
g376
sbag5
(g6
g7
(lp2443
g5
(g6
g7
(lp2444
g5
(g6
g7
(lp2445
Vwhich
p2446
atp2447
Rp2448
(dp2449
g16
VWDT
p2450
sbatp2451
Rp2452
(dp2453
g16
VWHNP
p2454
sbag5
(g6
g7
(lp2455
g5
(g6
g7
(lp2456
g5
(g6
g7
(lp2457
Vaim
p2458
atp2459
Rp2460
(dp2461
g16
VVBP
p2462
sbag5
(g6
g7
(lp2463
g5
(g6
g7
(lp2464
g5
(g6
g7
(lp2465
Vto
p2466
atp2467
Rp2468
(dp2469
g16
VTO
p2470
sbag5
(g6
g7
(lp2471
g5
(g6
g7
(lp2472
Vovercome
p2473
atp2474
Rp2475
(dp2476
g16
VVB
p2477
sbag5
(g6
g7
(lp2478
g5
(g6
g7
(lp2479
g5
(g6
g7
(lp2480
Vthe
p2481
atp2482
Rp2483
(dp2484
g16
VDT
p2485
sbag5
(g6
g7
(lp2486
Verrors
p2487
atp2488
Rp2489
(dp2490
g16
VNNS
p2491
sbatp2492
Rp2493
(dp2494
g16
VNP
p2495
sbag5
(g6
g7
(lp2496
g5
(g6
g7
(lp2497
Voccurring
p2498
atp2499
Rp2500
(dp2501
g16
VVBG
p2502
sbag5
(g6
g7
(lp2503
g5
(g6
g7
(lp2504
Vat
p2505
atp2506
Rp2507
(dp2508
g16
VIN
p2509
sbag5
(g6
g7
(lp2510
g5
(g6
g7
(lp2511
Vone
p2512
atp2513
Rp2514
(dp2515
g16
VCD
p2516
sbag5
(g6
g7
(lp2517
Vlevel
p2518
atp2519
Rp2520
(dp2521
g16
VNN
p2522
sbatp2523
Rp2524
(dp2525
g16
VNP
p2526
sbatp2527
Rp2528
(dp2529
g16
VPP
p2530
sbag5
(g6
g7
(lp2531
g5
(g6
g7
(lp2532
Vby
p2533
atp2534
Rp2535
(dp2536
g16
VIN
p2537
sbag5
(g6
g7
(lp2538
g5
(g6
g7
(lp2539
g5
(g6
g7
(lp2540
Vinformation
p2541
atp2542
Rp2543
(dp2544
g16
VNN
p2545
sbatp2546
Rp2547
(dp2548
g16
VNP
p2549
sbag5
(g6
g7
(lp2550
g5
(g6
g7
(lp2551
Vfrom
p2552
atp2553
Rp2554
(dp2555
g16
VIN
p2556
sbag5
(g6
g7
(lp2557
g5
(g6
g7
(lp2558
Vother
p2559
atp2560
Rp2561
(dp2562
g16
VJJ
p2563
sbag5
(g6
g7
(lp2564
Vlevels
p2565
atp2566
Rp2567
(dp2568
g16
VNNS
p2569
sbatp2570
Rp2571
(dp2572
g16
VNP
p2573
sbatp2574
Rp2575
(dp2576
g16
VPP
p2577
sbatp2578
Rp2579
(dp2580
g16
VNP
p2581
sbatp2582
Rp2583
(dp2584
g16
VPP
p2585
sbatp2586
Rp2587
(dp2588
g16
VVP
p2589
sbatp2590
Rp2591
(dp2592
g16
VNP
p2593
sbatp2594
Rp2595
(dp2596
g16
VVP
p2597
sbatp2598
Rp2599
(dp2600
g16
VVP
p2601
sbatp2602
Rp2603
(dp2604
g16
g171
sbatp2605
Rp2606
(dp2607
g16
VVP
p2608
sbatp2609
Rp2610
(dp2611
g16
g171
sbatp2612
Rp2613
(dp2614
g16
VSBAR
p2615
sbatp2616
Rp2617
(dp2618
g16
VNP
p2619
sbatp2620
Rp2621
(dp2622
g16
VVP
p2623
sbatp2624
Rp2625
(dp2626
g16
g171
sbatp2627
Rp2628
(dp2629
g16
VPP
p2630
sbatp2631
Rp2632
(dp2633
g16
VVP
p2634
sbatp2635
Rp2636
(dp2637
g16
VVP
p2638
sbatp2639
Rp2640
(dp2641
g16
g171
sbatp2642
Rp2643
(dp2644
g16
VVP
p2645
sbatp2646
Rp2647
(dp2648
g16
VVP
p2649
sbatp2650
Rp2651
(dp2652
g16
VVP
p2653
sbatp2654
Rp2655
(dp2656
g16
g171
sbatp2657
Rp2658
(dp2659
g16
VROOT
p2660
sbasg176
(icmyPackage
CorE
p2661
(dp2662
g179
(lp2663
(I0
I20
tp2664
a(I0
I39
tp2665
asg183
g2625
sbsg184
(icmyPackage
CorE
p2666
(dp2667
g179
(lp2668
(I0
I0
tp2669
a(I0
I18
tp2670
asg183
g5
(g6
g7
(lp2671
g2256
ag2263
ag2270
ag2281
ag2288
ag2296
ag2303
ag2397
atp2672
Rp2673
(dp2674
g16
g194
sbsbsg195
(icmyPackage
pattern
p2675
(dp2676
g198
I0
sg199
I0
sg200
(lp2677
(lp2678
(lp2679
S'by'
p2680
aS'through'
p2681
aaasg205
(lp2682
I2
aI1
aI1
asg207
(lp2683
S'The similar relation can be detected by analyzing the contents of nodes based on such approaches as the Latent Semantic Analysis (LSA) and the Vector Space Model (VSM)'
p2684
asg210
I68
sg211
(lp2685
(lp2686
S'&R@Complete@'
p2687
aa(lp2688
S'&V-ing@C@'
p2689
aasbsg220
(lp2690
(isxpPackage
sxpSent
p2691
(dp2692
g224
(lp2693
I8
asg226
VComposite kernels have been successfully applied to improve the performances in other NLP problems [ 17 , 16 ] by integrating multiple individual kernels, which aim to overcome the errors occurring at one level by information from other levels
p2694
sg228
I2
sg210
I18
sg229
I4
sbasba(icmyPackage
CELink
p2695
(dp2696
g3
(lp2697
g5
(g6
g7
(lp2698
g5
(g6
g7
(lp2699
g5
(g6
g7
(lp2700
g5
(g6
g7
(lp2701
VOur
p2702
atp2703
Rp2704
(dp2705
g16
VPRP$
p2706
sbag5
(g6
g7
(lp2707
Vcomposite
p2708
atp2709
Rp2710
(dp2711
g16
VJJ
p2712
sbag5
(g6
g7
(lp2713
Vkernel
p2714
atp2715
Rp2716
(dp2717
g16
VNN
p2718
sbatp2719
Rp2720
(dp2721
g16
VNP
p2722
sbag5
(g6
g7
(lp2723
g5
(g6
g7
(lp2724
Vconsists
p2725
atp2726
Rp2727
(dp2728
g16
VVBZ
p2729
sbag5
(g6
g7
(lp2730
g5
(g6
g7
(lp2731
Vof
p2732
atp2733
Rp2734
(dp2735
g16
VIN
p2736
sbag5
(g6
g7
(lp2737
g5
(g6
g7
(lp2738
g5
(g6
g7
(lp2739
g307
atp2740
Rp2741
(dp2742
g16
VDT
p2743
sbag5
(g6
g7
(lp2744
Vhistory
p2745
atp2746
Rp2747
(dp2748
g16
VNN
p2749
sbag5
(g6
g7
(lp2750
Vsequence
p2751
atp2752
Rp2753
(dp2754
g16
VNN
p2755
sbatp2756
Rp2757
(dp2758
g16
VNP
p2759
sbag5
(g6
g7
(lp2760
Vand
p2761
atp2762
Rp2763
(dp2764
g16
VCC
p2765
sbag5
(g6
g7
(lp2766
g5
(g6
g7
(lp2767
g307
atp2768
Rp2769
(dp2770
g16
VDT
p2771
sbag5
(g6
g7
(lp2772
Vdomain
p2773
atp2774
Rp2775
(dp2776
g16
VNN
p2777
sbag5
(g6
g7
(lp2778
Vcontext
p2779
atp2780
Rp2781
(dp2782
g16
VNN
p2783
sbatp2784
Rp2785
(dp2786
g16
VNP
p2787
sbatp2788
Rp2789
(dp2790
g16
VNP
p2791
sbatp2792
Rp2793
(dp2794
g16
VPP
p2795
sbag5
(g6
g7
(lp2796
g5
(g6
g7
(lp2797
g5
(g6
g7
(lp2798
Vtree
p2799
atp2800
Rp2801
(dp2802
g16
VNN
p2803
sbag5
(g6
g7
(lp2804
Vkernels
p2805
atp2806
Rp2807
(dp2808
g16
VNNS
p2809
sbatp2810
Rp2811
(dp2812
g16
VNP
p2813
sbag5
(g6
g7
(lp2814
g376
atp2815
Rp2816
(dp2817
g16
g376
sbag5
(g6
g7
(lp2818
g5
(g6
g7
(lp2819
g5
(g6
g7
(lp2820
Vboth
p2821
atp2822
Rp2823
(dp2824
g16
VDT
p2825
sbag5
(g6
g7
(lp2826
g5
(g6
g7
(lp2827
Vof
p2828
atp2829
Rp2830
(dp2831
g16
VIN
p2832
sbag5
(g6
g7
(lp2833
g5
(g6
g7
(lp2834
Vwhich
p2835
atp2836
Rp2837
(dp2838
g16
VWDT
p2839
sbatp2840
Rp2841
(dp2842
g16
VWHNP
p2843
sbatp2844
Rp2845
(dp2846
g16
VWHPP
p2847
sbatp2848
Rp2849
(dp2850
g16
VWHNP
p2851
sbag5
(g6
g7
(lp2852
g5
(g6
g7
(lp2853
g5
(g6
g7
(lp2854
Vare
p2855
atp2856
Rp2857
(dp2858
g16
VVBP
p2859
sbag5
(g6
g7
(lp2860
g5
(g6
g7
(lp2861
Vcomposed
p2862
atp2863
Rp2864
(dp2865
g16
VVBN
p2866
sbag5
(g6
g7
(lp2867
g5
(g6
g7
(lp2868
Vbased
p2869
atp2870
Rp2871
(dp2872
g16
VVBN
p2873
sbag5
(g6
g7
(lp2874
g5
(g6
g7
(lp2875
Von
p2876
atp2877
Rp2878
(dp2879
g16
VIN
p2880
sbag5
(g6
g7
(lp2881
g5
(g6
g7
(lp2882
g5
(g6
g7
(lp2883
Vsimilar
p2884
atp2885
Rp2886
(dp2887
g16
VJJ
p2888
sbag5
(g6
g7
(lp2889
Vtextual
p2890
atp2891
Rp2892
(dp2893
g16
VJJ
p2894
sbag5
(g6
g7
(lp2895
Vunits
p2896
atp2897
Rp2898
(dp2899
g16
VNNS
p2900
sbatp2901
Rp2902
(dp2903
g16
VNP
p2904
sbag5
(g6
g7
(lp2905
g5
(g6
g7
(lp2906
Vin
p2907
atp2908
Rp2909
(dp2910
g16
VIN
p2911
sbag5
(g6
g7
(lp2912
g5
(g6
g7
(lp2913
VWikipedia
p2914
atp2915
Rp2916
(dp2917
g16
VNNP
p2918
sbag5
(g6
g7
(lp2919
Varticles
p2920
atp2921
Rp2922
(dp2923
g16
VNNS
p2924
sbatp2925
Rp2926
(dp2927
g16
VNP
p2928
sbatp2929
Rp2930
(dp2931
g16
VPP
p2932
sbatp2933
Rp2934
(dp2935
g16
VNP
p2936
sbatp2937
Rp2938
(dp2939
g16
VPP
p2940
sbatp2941
Rp2942
(dp2943
g16
VPP
p2944
sbag5
(g6
g7
(lp2945
g5
(g6
g7
(lp2946
Vto
p2947
atp2948
Rp2949
(dp2950
g16
VTO
p2951
sbag5
(g6
g7
(lp2952
g5
(g6
g7
(lp2953
g307
atp2954
Rp2955
(dp2956
g16
VDT
p2957
sbag5
(g6
g7
(lp2958
Vgiven
p2959
atp2960
Rp2961
(dp2962
g16
VVBN
p2963
sbag5
(g6
g7
(lp2964
Vdialog
p2965
atp2966
Rp2967
(dp2968
g16
VNN
p2969
sbag5
(g6
g7
(lp2970
Vcontext
p2971
atp2972
Rp2973
(dp2974
g16
VNN
p2975
sbatp2976
Rp2977
(dp2978
g16
VNP
p2979
sbatp2980
Rp2981
(dp2982
g16
VPP
p2983
sbatp2984
Rp2985
(dp2986
g16
VVP
p2987
sbatp2988
Rp2989
(dp2990
g16
VVP
p2991
sbatp2992
Rp2993
(dp2994
g16
g171
sbatp2995
Rp2996
(dp2997
g16
VSBAR
p2998
sbatp2999
Rp3000
(dp3001
g16
VNP
p3002
sbatp3003
Rp3004
(dp3005
g16
VVP
p3006
sbatp3007
Rp3008
(dp3009
g16
g171
sbatp3010
Rp3011
(dp3012
g16
VROOT
p3013
sbasg176
(icmyPackage
CorE
p3014
(dp3015
g179
(lp3016
(I0
I22
tp3017
a(I0
I32
tp3018
asg183
g5
(g6
g7
(lp3019
g2934
ag2981
atp3020
Rp3021
(dp3022
g16
g194
sbsbsg184
(icmyPackage
CorE
p3023
(dp3024
g179
(lp3025
(I0
I0
tp3026
a(I0
I19
tp3027
asg183
g5
(g6
g7
(lp3028
g2720
ag2727
ag2793
ag2811
ag2816
ag2849
ag2857
ag2864
atp3029
Rp3030
(dp3031
g16
g194
sbsbsg195
g196
sg220
(lp3032
(isxpPackage
sxpSent
p3033
(dp3034
g224
(lp3035
I9
asg226
VOur composite kernel consists of a history sequence and a domain context tree kernels, both of which are composed based on similar textual units in Wikipedia articles to a given dialog context
p3036
sg228
I2
sg210
I19
sg229
I4
sbasba(icmyPackage
CELink
p3037
(dp3038
g3
(lp3039
g5
(g6
g7
(lp3040
g5
(g6
g7
(lp3041
g5
(g6
g7
(lp3042
g5
(g6
g7
(lp3043
VDialog
p3044
atp3045
Rp3046
(dp3047
g16
VJJ
p3048
sbag5
(g6
g7
(lp3049
Vtopic
p3050
atp3051
Rp3052
(dp3053
g16
VNN
p3054
sbag5
(g6
g7
(lp3055
Vtracking
p3056
atp3057
Rp3058
(dp3059
g16
VNN
p3060
sbatp3061
Rp3062
(dp3063
g16
VNP
p3064
sbag5
(g6
g7
(lp3065
g5
(g6
g7
(lp3066
Vcan
p3067
atp3068
Rp3069
(dp3070
g16
VMD
p3071
sbag5
(g6
g7
(lp3072
g5
(g6
g7
(lp3073
Vbe
p3074
atp3075
Rp3076
(dp3077
g16
VVB
p3078
sbag5
(g6
g7
(lp3079
g5
(g6
g7
(lp3080
Vconsidered
p3081
atp3082
Rp3083
(dp3084
g16
VVBN
p3085
sbag5
(g6
g7
(lp3086
g5
(g6
g7
(lp3087
Vas
p3088
atp3089
Rp3090
(dp3091
g16
VIN
p3092
sbag5
(g6
g7
(lp3093
g5
(g6
g7
(lp3094
g307
atp3095
Rp3096
(dp3097
g16
VDT
p3098
sbag5
(g6
g7
(lp3099
Vclassification
p3100
atp3101
Rp3102
(dp3103
g16
VNN
p3104
sbag5
(g6
g7
(lp3105
Vproblem
p3106
atp3107
Rp3108
(dp3109
g16
VNN
p3110
sbatp3111
Rp3112
(dp3113
g16
VNP
p3114
sbatp3115
Rp3116
(dp3117
g16
VPP
p3118
sbag5
(g6
g7
(lp3119
g5
(g6
g7
(lp3120
g5
(g6
g7
(lp3121
Vto
p3122
atp3123
Rp3124
(dp3125
g16
VTO
p3126
sbag5
(g6
g7
(lp3127
g5
(g6
g7
(lp3128
Vdetect
p3129
atp3130
Rp3131
(dp3132
g16
VVB
p3133
sbag5
(g6
g7
(lp3134
g5
(g6
g7
(lp3135
Vtopic
p3136
atp3137
Rp3138
(dp3139
g16
VNN
p3140
sbag5
(g6
g7
(lp3141
Vtransitions
p3142
atp3143
Rp3144
(dp3145
g16
VNNS
p3146
sbatp3147
Rp3148
(dp3149
g16
VNP
p3150
sbatp3151
Rp3152
(dp3153
g16
VVP
p3154
sbatp3155
Rp3156
(dp3157
g16
VVP
p3158
sbatp3159
Rp3160
(dp3161
g16
g171
sbatp3162
Rp3163
(dp3164
g16
VVP
p3165
sbatp3166
Rp3167
(dp3168
g16
VVP
p3169
sbatp3170
Rp3171
(dp3172
g16
VVP
p3173
sbatp3174
Rp3175
(dp3176
g16
g171
sbatp3177
Rp3178
(dp3179
g16
VROOT
p3180
sbag5
(g6
g7
(lp3181
g5
(g6
g7
(lp3182
g5
(g6
g7
(lp3183
g5
(g6
g7
(lp3184
g5
(g6
g7
(lp3185
VThe
p3186
atp3187
Rp3188
(dp3189
g16
VDT
p3190
sbag5
(g6
g7
(lp3191
g5
(g6
g7
(lp3192
Vmost
p3193
atp3194
Rp3195
(dp3196
g16
VRBS
p3197
sbag5
(g6
g7
(lp3198
Vprobable
p3199
atp3200
Rp3201
(dp3202
g16
VJJ
p3203
sbatp3204
Rp3205
(dp3206
g16
VADJP
p3207
sbag5
(g6
g7
(lp3208
Vpair
p3209
atp3210
Rp3211
(dp3212
g16
VNN
p3213
sbatp3214
Rp3215
(dp3216
g16
VNP
p3217
sbag5
(g6
g7
(lp3218
g5
(g6
g7
(lp3219
Vof
p3220
atp3221
Rp3222
(dp3223
g16
VIN
p3224
sbag5
(g6
g7
(lp3225
g5
(g6
g7
(lp3226
g5
(g6
g7
(lp3227
Vtopics
p3228
atp3229
Rp3230
(dp3231
g16
VNNS
p3232
sbatp3233
Rp3234
(dp3235
g16
VNP
p3236
sbag5
(g6
g7
(lp3237
g5
(g6
g7
(lp3238
Vat
p3239
atp3240
Rp3241
(dp3242
g16
VIN
p3243
sbag5
(g6
g7
(lp3244
g5
(g6
g7
(lp3245
Vjust
p3246
atp3247
Rp3248
(dp3249
g16
VRB
p3250
sbag5
(g6
g7
(lp3251
Vbefore
p3252
atp3253
Rp3254
(dp3255
g16
VRB
p3256
sbatp3257
Rp3258
(dp3259
g16
VNP
p3260
sbatp3261
Rp3262
(dp3263
g16
VPP
p3264
sbatp3265
Rp3266
(dp3267
g16
VNP
p3268
sbatp3269
Rp3270
(dp3271
g16
VPP
p3272
sbatp3273
Rp3274
(dp3275
g16
VNP
p3276
sbag5
(g6
g7
(lp3277
Vand
p3278
atp3279
Rp3280
(dp3281
g16
VCC
p3282
sbag5
(g6
g7
(lp3283
g5
(g6
g7
(lp3284
Vafter
p3285
atp3286
Rp3287
(dp3288
g16
VIN
p3289
sbag5
(g6
g7
(lp3290
g5
(g6
g7
(lp3291
g5
(g6
g7
(lp3292
Veach
p3293
atp3294
Rp3295
(dp3296
g16
VDT
p3297
sbag5
(g6
g7
(lp3298
Vturn
p3299
atp3300
Rp3301
(dp3302
g16
VNN
p3303
sbatp3304
Rp3305
(dp3306
g16
VNP
p3307
sbag5
(g6
g7
(lp3308
g5
(g6
g7
(lp3309
Vis
p3310
atp3311
Rp3312
(dp3313
g16
VVBZ
p3314
sbag5
(g6
g7
(lp3315
g5
(g6
g7
(lp3316
Vpredicted
p3317
atp3318
Rp3319
(dp3320
g16
VVBN
p3321
sbag5
(g6
g7
(lp3322
g5
(g6
g7
(lp3323
Vby
p3324
atp3325
Rp3326
(dp3327
g16
VIN
p3328
sbag5
(g6
g7
(lp3329
g5
(g6
g7
(lp3330
g5
(g6
g7
(lp3331
g5
(g6
g7
(lp3332
Vthe
p3333
atp3334
Rp3335
(dp3336
g16
VDT
p3337
sbag5
(g6
g7
(lp3338
Vfollowing
p3339
atp3340
Rp3341
(dp3342
g16
VJJ
p3343
sbag5
(g6
g7
(lp3344
Vclassifier
p3345
atp3346
Rp3347
(dp3348
g16
VNN
p3349
sbag5
(g6
g7
(lp3350
Vf
p3351
atp3352
Rp3353
(dp3354
g16
VNN
p3355
sbag5
(g6
g7
(lp3356
g939
atp3357
Rp3358
(dp3359
g16
VNN
p3360
sbag5
(g6
g7
(lp3361
g945
atp3362
Rp3363
(dp3364
g16
VPOS
p3365
sbatp3366
Rp3367
(dp3368
g16
VNP
p3369
sbag5
(g6
g7
(lp3370
V\u005c
p3371
atp3372
Rp3373
(dp3374
g16
VNNP
p3375
sbag5
(g6
g7
(lp3376
Vu2062
p3377
atp3378
Rp3379
(dp3380
g16
VNNP
p3381
sbag5
(g6
g7
(lp3382
g945
atp3383
Rp3384
(dp3385
g16
V''
p3386
sbag5
(g6
g7
(lp3387
g5
(g6
g7
(lp3388
V-LRB-
p3389
atp3390
Rp3391
(dp3392
g16
V-LRB-
p3393
sbag5
(g6
g7
(lp3394
g5
(g6
g7
(lp3395
Vx
p3396
atp3397
Rp3398
(dp3399
g16
VJJ
p3400
sbag5
(g6
g7
(lp3401
Vt
p3402
atp3403
Rp3404
(dp3405
g16
VNN
p3406
sbatp3407
Rp3408
(dp3409
g16
VNP
p3410
sbag5
(g6
g7
(lp3411
V-RRB-
p3412
atp3413
Rp3414
(dp3415
g16
V-RRB-
p3416
sbatp3417
Rp3418
(dp3419
g16
VPRN
p3420
sbag5
(g6
g7
(lp3421
V=
p3422
atp3423
Rp3424
(dp3425
g16
VNN
p3426
sbatp3427
Rp3428
(dp3429
g16
VNP
p3430
sbag5
(g6
g7
(lp3431
g5
(g6
g7
(lp3432
V-LRB-
p3433
atp3434
Rp3435
(dp3436
g16
V-LRB-
p3437
sbag5
(g6
g7
(lp3438
g5
(g6
g7
(lp3439
Vy
p3440
atp3441
Rp3442
(dp3443
g16
VNN
p3444
sbag5
(g6
g7
(lp3445
g3402
atp3446
Rp3447
(dp3448
g16
VNN
p3449
sbatp3450
Rp3451
(dp3452
g16
VNP
p3453
sbag5
(g6
g7
(lp3454
V-
p3455
atp3456
Rp3457
(dp3458
g16
V:
p3459
sbag5
(g6
g7
(lp3460
g5
(g6
g7
(lp3461
g5
(g6
g7
(lp3462
g462
atp3463
Rp3464
(dp3465
g16
VCD
p3466
sbatp3467
Rp3468
(dp3469
g16
VNP
p3470
sbag5
(g6
g7
(lp3471
g376
atp3472
Rp3473
(dp3474
g16
g376
sbag5
(g6
g7
(lp3475
g5
(g6
g7
(lp3476
g3440
atp3477
Rp3478
(dp3479
g16
VNN
p3480
sbag5
(g6
g7
(lp3481
g3402
atp3482
Rp3483
(dp3484
g16
VNN
p3485
sbatp3486
Rp3487
(dp3488
g16
VNP
p3489
sbatp3490
Rp3491
(dp3492
g16
VNP
p3493
sbag5
(g6
g7
(lp3494
V-RRB-
p3495
atp3496
Rp3497
(dp3498
g16
V-RRB-
p3499
sbatp3500
Rp3501
(dp3502
g16
VPRN
p3503
sbatp3504
Rp3505
(dp3506
g16
VNP
p3507
sbatp3508
Rp3509
(dp3510
g16
VPP
p3511
sbag5
(g6
g7
(lp3512
g376
atp3513
Rp3514
(dp3515
g16
g376
sbag5
(g6
g7
(lp3516
g5
(g6
g7
(lp3517
g5
(g6
g7
(lp3518
Vwhere
p3519
atp3520
Rp3521
(dp3522
g16
VWRB
p3523
sbatp3524
Rp3525
(dp3526
g16
VWHADVP
p3527
sbag5
(g6
g7
(lp3528
g5
(g6
g7
(lp3529
g5
(g6
g7
(lp3530
g5
(g6
g7
(lp3531
g3396
atp3532
Rp3533
(dp3534
g16
VLS
p3535
sbatp3536
Rp3537
(dp3538
g16
VLST
p3539
sbag5
(g6
g7
(lp3540
g5
(g6
g7
(lp3541
g3402
atp3542
Rp3543
(dp3544
g16
VNN
p3545
sbatp3546
Rp3547
(dp3548
g16
VNP
p3549
sbag5
(g6
g7
(lp3550
g5
(g6
g7
(lp3551
Vcontains
p3552
atp3553
Rp3554
(dp3555
g16
VVBZ
p3556
sbag5
(g6
g7
(lp3557
g5
(g6
g7
(lp3558
g5
(g6
g7
(lp3559
g5
(g6
g7
(lp3560
Vthe
p3561
atp3562
Rp3563
(dp3564
g16
VDT
p3565
sbag5
(g6
g7
(lp3566
Vinput
p3567
atp3568
Rp3569
(dp3570
g16
VNN
p3571
sbatp3572
Rp3573
(dp3574
g16
VNP
p3575
sbag5
(g6
g7
(lp3576
g5
(g6
g7
(lp3577
Vfeatures
p3578
atp3579
Rp3580
(dp3581
g16
VVBZ
p3582
sbag5
(g6
g7
(lp3583
g5
(g6
g7
(lp3584
Vobtained
p3585
atp3586
Rp3587
(dp3588
g16
VVBN
p3589
sbag5
(g6
g7
(lp3590
g5
(g6
g7
(lp3591
Vat
p3592
atp3593
Rp3594
(dp3595
g16
VIN
p3596
sbag5
(g6
g7
(lp3597
g5
(g6
g7
(lp3598
g5
(g6
g7
(lp3599
g307
atp3600
Rp3601
(dp3602
g16
VDT
p3603
sbag5
(g6
g7
(lp3604
Vturn
p3605
atp3606
Rp3607
(dp3608
g16
VNN
p3609
sbag5
(g6
g7
(lp3610
g3402
atp3611
Rp3612
(dp3613
g16
VNN
p3614
sbatp3615
Rp3616
(dp3617
g16
VNP
p3618
sbag5
(g6
g7
(lp3619
g376
atp3620
Rp3621
(dp3622
g16
g376
sbag5
(g6
g7
(lp3623
g5
(g6
g7
(lp3624
g5
(g6
g7
(lp3625
g3440
atp3626
Rp3627
(dp3628
g16
VNNP
p3629
sbag5
(g6
g7
(lp3630
g3402
atp3631
Rp3632
(dp3633
g16
VNNP
p3634
sbag5
(g6
g7
(lp3635
g939
atp3636
Rp3637
(dp3638
g16
VNNP
p3639
sbag5
(g6
g7
(lp3640
g945
atp3641
Rp3642
(dp3643
g16
VPOS
p3644
sbatp3645
Rp3646
(dp3647
g16
VNP
p3648
sbag5
(g6
g7
(lp3649
V\u005c
p3650
atp3651
Rp3652
(dp3653
g16
VJJ
p3654
sbag5
(g6
g7
(lp3655
g5
(g6
g7
(lp3656
Vu2208
p3657
atp3658
Rp3659
(dp3660
g16
VNNP
p3661
sbag5
(g6
g7
(lp3662
g945
atp3663
Rp3664
(dp3665
g16
VPOS
p3666
sbatp3667
Rp3668
(dp3669
g16
VNP
p3670
sbag5
(g6
g7
(lp3671
VC
p3672
atp3673
Rp3674
(dp3675
g16
VNNP
p3676
sbatp3677
Rp3678
(dp3679
g16
VNP
p3680
sbatp3681
Rp3682
(dp3683
g16
VNP
p3684
sbatp3685
Rp3686
(dp3687
g16
VPP
p3688
sbatp3689
Rp3690
(dp3691
g16
VVP
p3692
sbatp3693
Rp3694
(dp3695
g16
VVP
p3696
sbatp3697
Rp3698
(dp3699
g16
g171
sbatp3700
Rp3701
(dp3702
g16
VSBAR
p3703
sbatp3704
Rp3705
(dp3706
g16
VVP
p3707
sbatp3708
Rp3709
(dp3710
g16
g171
sbag5
(g6
g7
(lp3711
g376
atp3712
Rp3713
(dp3714
g16
g376
sbag5
(g6
g7
(lp3715
Vand
p3716
atp3717
Rp3718
(dp3719
g16
VCC
p3720
sbag5
(g6
g7
(lp3721
g5
(g6
g7
(lp3722
g5
(g6
g7
(lp3723
g3672
atp3724
Rp3725
(dp3726
g16
VNNP
p3727
sbatp3728
Rp3729
(dp3730
g16
VNP
p3731
sbag5
(g6
g7
(lp3732
g5
(g6
g7
(lp3733
Vis
p3734
atp3735
Rp3736
(dp3737
g16
VVBZ
p3738
sbag5
(g6
g7
(lp3739
g5
(g6
g7
(lp3740
g5
(g6
g7
(lp3741
g307
atp3742
Rp3743
(dp3744
g16
VDT
p3745
sbag5
(g6
g7
(lp3746
Vclosed
p3747
atp3748
Rp3749
(dp3750
g16
VVBN
p3751
sbag5
(g6
g7
(lp3752
Vset
p3753
atp3754
Rp3755
(dp3756
g16
VNN
p3757
sbatp3758
Rp3759
(dp3760
g16
VNP
p3761
sbag5
(g6
g7
(lp3762
g5
(g6
g7
(lp3763
Vof
p3764
atp3765
Rp3766
(dp3767
g16
VIN
p3768
sbag5
(g6
g7
(lp3769
g5
(g6
g7
(lp3770
Vtopic
p3771
atp3772
Rp3773
(dp3774
g16
VNN
p3775
sbag5
(g6
g7
(lp3776
Vcategories
p3777
atp3778
Rp3779
(dp3780
g16
VNNS
p3781
sbatp3782
Rp3783
(dp3784
g16
VNP
p3785
sbatp3786
Rp3787
(dp3788
g16
VPP
p3789
sbatp3790
Rp3791
(dp3792
g16
VNP
p3793
sbatp3794
Rp3795
(dp3796
g16
VVP
p3797
sbatp3798
Rp3799
(dp3800
g16
g171
sbatp3801
Rp3802
(dp3803
g16
g171
sbatp3804
Rp3805
(dp3806
g16
VSBAR
p3807
sbatp3808
Rp3809
(dp3810
g16
VVP
p3811
sbatp3812
Rp3813
(dp3814
g16
VVP
p3815
sbatp3816
Rp3817
(dp3818
g16
g171
sbatp3819
Rp3820
(dp3821
g16
VSBAR
p3822
sbatp3823
Rp3824
(dp3825
g16
VUCP
p3826
sbatp3827
Rp3828
(dp3829
g16
VROOT
p3830
sbasg176
(icmyPackage
CorE
p3831
(dp3832
g179
(lp3833
(I0
I7
tp3834
a(I1
I28
tp3835
asg183
g5
(g6
g7
(lp3836
g3112
ag3160
ag3274
ag3280
ag3287
ag3305
ag3312
ag3319
ag3326
ag3367
ag3373
ag3379
ag3384
ag3418
atp3837
Rp3838
(dp3839
g16
g194
sbsbsg184
(icmyPackage
CorE
p3840
(dp3841
g179
(lp3842
(I0
I0
tp3843
a(I0
I5
tp3844
asg183
g5
(g6
g7
(lp3845
g3062
ag3069
ag3076
ag3083
atp3846
Rp3847
(dp3848
g16
g194
sbsbsg195
g784
sg220
(lp3849
(isxpPackage
sxpSent
p3850
(dp3851
g224
(lp3852
I10
asg226
VDialog topic tracking can be considered as a classification problem to detect topic transitions
p3853
sg228
I3
sg210
I20
sg229
I5
sba(isxpPackage
sxpSent
p3854
(dp3855
g224
(lp3856
I10
asg226
VThe most probable pair of topics at just before and after each turn is predicted by the following classifier f u'\u005cu2062' ( x t ) = ( y t - 1 , y t ) , where x t contains the input features obtained at a turn t , y t u'\u005cu2208' C , and C is a closed set of topic categories
p3857
sg228
I3
sg210
I21
sg229
I5
sbasba(icmyPackage
CELink
p3858
(dp3859
g3
(lp3860
g5
(g6
g7
(lp3861
g5
(g6
g7
(lp3862
g5
(g6
g7
(lp3863
g5
(g6
g7
(lp3864
VIf
p3865
atp3866
Rp3867
(dp3868
g16
VIN
p3869
sbag5
(g6
g7
(lp3870
g5
(g6
g7
(lp3871
g5
(g6
g7
(lp3872
g307
atp3873
Rp3874
(dp3875
g16
VDT
p3876
sbag5
(g6
g7
(lp3877
Vtopic
p3878
atp3879
Rp3880
(dp3881
g16
VNN
p3882
sbag5
(g6
g7
(lp3883
Vtransition
p3884
atp3885
Rp3886
(dp3887
g16
VNN
p3888
sbatp3889
Rp3890
(dp3891
g16
VNP
p3892
sbag5
(g6
g7
(lp3893
g5
(g6
g7
(lp3894
Voccurs
p3895
atp3896
Rp3897
(dp3898
g16
VVBZ
p3899
sbag5
(g6
g7
(lp3900
g5
(g6
g7
(lp3901
Vat
p3902
atp3903
Rp3904
(dp3905
g16
VIN
p3906
sbag5
(g6
g7
(lp3907
g5
(g6
g7
(lp3908
g3402
atp3909
Rp3910
(dp3911
g16
VNN
p3912
sbatp3913
Rp3914
(dp3915
g16
VNP
p3916
sbatp3917
Rp3918
(dp3919
g16
VPP
p3920
sbatp3921
Rp3922
(dp3923
g16
VVP
p3924
sbatp3925
Rp3926
(dp3927
g16
g171
sbatp3928
Rp3929
(dp3930
g16
VSBAR
p3931
sbag5
(g6
g7
(lp3932
g376
atp3933
Rp3934
(dp3935
g16
g376
sbag5
(g6
g7
(lp3936
g5
(g6
g7
(lp3937
g3440
atp3938
Rp3939
(dp3940
g16
VNN
p3941
sbag5
(g6
g7
(lp3942
g3402
atp3943
Rp3944
(dp3945
g16
VNN
p3946
sbatp3947
Rp3948
(dp3949
g16
VNP
p3950
sbag5
(g6
g7
(lp3951
g5
(g6
g7
(lp3952
Vshould
p3953
atp3954
Rp3955
(dp3956
g16
VMD
p3957
sbag5
(g6
g7
(lp3958
g5
(g6
g7
(lp3959
Vbe
p3960
atp3961
Rp3962
(dp3963
g16
VVB
p3964
sbag5
(g6
g7
(lp3965
g5
(g6
g7
(lp3966
Vdifferent
p3967
atp3968
Rp3969
(dp3970
g16
VJJ
p3971
sbag5
(g6
g7
(lp3972
g5
(g6
g7
(lp3973
Vfrom
p3974
atp3975
Rp3976
(dp3977
g16
VIN
p3978
sbag5
(g6
g7
(lp3979
g5
(g6
g7
(lp3980
g3440
atp3981
Rp3982
(dp3983
g16
VNNP
p3984
sbag5
(g6
g7
(lp3985
g3402
atp3986
Rp3987
(dp3988
g16
VCD
p3989
sbag5
(g6
g7
(lp3990
g3455
atp3991
Rp3992
(dp3993
g16
g3459
sbag5
(g6
g7
(lp3994
g462
atp3995
Rp3996
(dp3997
g16
VCD
p3998
sbatp3999
Rp4000
(dp4001
g16
VNP
p4002
sbatp4003
Rp4004
(dp4005
g16
VPP
p4006
sbatp4007
Rp4008
(dp4009
g16
VADJP
p4010
sbatp4011
Rp4012
(dp4013
g16
VVP
p4014
sbatp4015
Rp4016
(dp4017
g16
VVP
p4018
sbatp4019
Rp4020
(dp4021
g16
g171
sbatp4022
Rp4023
(dp4024
g16
VROOT
p4025
sbasg176
(icmyPackage
CorE
p4026
(dp4027
g179
(lp4028
(I0
I1
tp4029
a(I0
I6
tp4030
asg183
g3926
sbsg184
(icmyPackage
CorE
p4031
(dp4032
g179
(lp4033
(I0
I8
tp4034
a(I0
I17
tp4035
asg183
g5
(g6
g7
(lp4036
g3948
ag4016
atp4037
Rp4038
(dp4039
g16
g194
sbsbsg195
(icmyPackage
pattern
p4040
(dp4041
g198
I0
sg199
I0
sg200
(lp4042
(lp4043
(lp4044
S'if'
p4045
aS'once'
p4046
aaa(lp4047
S','
p4048
aasg205
(lp4049
I1
aI1
aI1
asg207
(lp4050
S'If some light and mobile detection devices can be invented in the future, many new applications can be imagined, for example, people can get some services while thinking.'
p4051
asg210
I15
sg211
(lp4052
(lp4053
a(lp4054
S'&C@Complete@'
p4055
aa(lp4056
S'&R@Complete@'
p4057
aasbsg220
(lp4058
(isxpPackage
sxpSent
p4059
(dp4060
g224
(lp4061
I11
asg226
VIf a topic transition occurs at t , y t should be different from y t - 1
p4062
sg228
I3
sg210
I22
sg229
I5
sbasba(icmyPackage
CELink
p4063
(dp4064
g3
(lp4065
g5
(g6
g7
(lp4066
g5
(g6
g7
(lp4067
g5
(g6
g7
(lp4068
g5
(g6
g7
(lp4069
VThis
p4070
atp4071
Rp4072
(dp4073
g16
VDT
p4074
sbag5
(g6
g7
(lp4075
Vconversation
p4076
atp4077
Rp4078
(dp4079
g16
VNN
p4080
sbatp4081
Rp4082
(dp4083
g16
VNP
p4084
sbag5
(g6
g7
(lp4085
g5
(g6
g7
(lp4086
Vis
p4087
atp4088
Rp4089
(dp4090
g16
VVBZ
p4091
sbag5
(g6
g7
(lp4092
g5
(g6
g7
(lp4093
Vdivided
p4094
atp4095
Rp4096
(dp4097
g16
VVBN
p4098
sbag5
(g6
g7
(lp4099
g5
(g6
g7
(lp4100
Vinto
p4101
atp4102
Rp4103
(dp4104
g16
VIN
p4105
sbag5
(g6
g7
(lp4106
g5
(g6
g7
(lp4107
Vthree
p4108
atp4109
Rp4110
(dp4111
g16
VCD
p4112
sbag5
(g6
g7
(lp4113
Vsegments
p4114
atp4115
Rp4116
(dp4117
g16
VNNS
p4118
sbatp4119
Rp4120
(dp4121
g16
VNP
p4122
sbatp4123
Rp4124
(dp4125
g16
VPP
p4126
sbag5
(g6
g7
(lp4127
g376
atp4128
Rp4129
(dp4130
g16
g376
sbag5
(g6
g7
(lp4131
g5
(g6
g7
(lp4132
Vsince
p4133
atp4134
Rp4135
(dp4136
g16
VIN
p4137
sbag5
(g6
g7
(lp4138
g5
(g6
g7
(lp4139
g5
(g6
g7
(lp4140
g3351
atp4141
Rp4142
(dp4143
g16
VSYM
p4144
sbatp4145
Rp4146
(dp4147
g16
VNP
p4148
sbag5
(g6
g7
(lp4149
g5
(g6
g7
(lp4150
Vdetects
p4151
atp4152
Rp4153
(dp4154
g16
VVBZ
p4155
sbag5
(g6
g7
(lp4156
g5
(g6
g7
(lp4157
Vthree
p4158
atp4159
Rp4160
(dp4161
g16
VCD
p4162
sbag5
(g6
g7
(lp4163
Vtopic
p4164
atp4165
Rp4166
(dp4167
g16
VNN
p4168
sbag5
(g6
g7
(lp4169
Vtransitions
p4170
atp4171
Rp4172
(dp4173
g16
VNNS
p4174
sbatp4175
Rp4176
(dp4177
g16
VNP
p4178
sbag5
(g6
g7
(lp4179
g5
(g6
g7
(lp4180
Vat
p4181
atp4182
Rp4183
(dp4184
g16
VIN
p4185
sbag5
(g6
g7
(lp4186
g5
(g6
g7
(lp4187
g5
(g6
g7
(lp4188
g3402
atp4189
Rp4190
(dp4191
g16
VNN
p4192
sbag5
(g6
g7
(lp4193
g462
atp4194
Rp4195
(dp4196
g16
VCD
p4197
sbatp4198
Rp4199
(dp4200
g16
VNP
p4201
sbag5
(g6
g7
(lp4202
g376
atp4203
Rp4204
(dp4205
g16
g376
sbag5
(g6
g7
(lp4206
g5
(g6
g7
(lp4207
g3402
atp4208
Rp4209
(dp4210
g16
VNN
p4211
sbag5
(g6
g7
(lp4212
V4
p4213
atp4214
Rp4215
(dp4216
g16
VCD
p4217
sbatp4218
Rp4219
(dp4220
g16
VNP
p4221
sbag5
(g6
g7
(lp4222
Vand
p4223
atp4224
Rp4225
(dp4226
g16
VCC
p4227
sbag5
(g6
g7
(lp4228
g5
(g6
g7
(lp4229
g3402
atp4230
Rp4231
(dp4232
g16
VNN
p4233
sbag5
(g6
g7
(lp4234
V6
p4235
atp4236
Rp4237
(dp4238
g16
VCD
p4239
sbatp4240
Rp4241
(dp4242
g16
VNP
p4243
sbatp4244
Rp4245
(dp4246
g16
VNP
p4247
sbatp4248
Rp4249
(dp4250
g16
VPP
p4251
sbatp4252
Rp4253
(dp4254
g16
VVP
p4255
sbatp4256
Rp4257
(dp4258
g16
g171
sbatp4259
Rp4260
(dp4261
g16
VSBAR
p4262
sbatp4263
Rp4264
(dp4265
g16
VVP
p4266
sbatp4267
Rp4268
(dp4269
g16
VVP
p4270
sbatp4271
Rp4272
(dp4273
g16
g171
sbatp4274
Rp4275
(dp4276
g16
VROOT
p4277
sbasg176
(icmyPackage
CorE
p4278
(dp4279
g179
(lp4280
(I0
I9
tp4281
a(I0
I22
tp4282
asg183
g4257
sbsg184
(icmyPackage
CorE
p4283
(dp4284
g179
(lp4285
(I0
I0
tp4286
a(I0
I6
tp4287
asg183
g5
(g6
g7
(lp4288
g4082
ag4089
ag4096
ag4124
atp4289
Rp4290
(dp4291
g16
g194
sbsbsg195
(icmyPackage
pattern
p4292
(dp4293
g198
I23
sg199
I1
sg200
(lp4294
(lp4295
S'since'
p4296
aasg205
(lp4297
I3
aI1
aI1
asg207
(lp4298
S'This is one of the simplest cases since the surface is so thin.'
p4299
aS'He could not answer the question, since he had not made up his mind.'
p4300
aS'That manager has been a basket case here since his wife left him.'
p4301
asg210
I79
sg211
(lp4302
(lp4303
S'&R@NCTime@'
p4304
aS'(,)'
p4305
aa(lp4306
S'&C@NCTime@'
p4307
aasbsg220
(lp4308
(isxpPackage
sxpSent
p4309
(dp4310
g224
(lp4311
I12
asg226
VThis conversation is divided into three segments, since f detects three topic transitions at t 1 , t 4 and t 6
p4312
sg228
I3
sg210
I25
sg229
I6
sbasba(icmyPackage
CELink
p4313
(dp4314
g3
(lp4315
g5
(g6
g7
(lp4316
g5
(g6
g7
(lp4317
g5
(g6
g7
(lp4318
g5
(g6
g7
(lp4319
VAlthough
p4320
atp4321
Rp4322
(dp4323
g16
VIN
p4324
sbag5
(g6
g7
(lp4325
g5
(g6
g7
(lp4326
g5
(g6
g7
(lp4327
g5
(g6
g7
(lp4328
Vsome
p4329
atp4330
Rp4331
(dp4332
g16
VDT
p4333
sbag5
(g6
g7
(lp4334
Vfundamental
p4335
atp4336
Rp4337
(dp4338
g16
VJJ
p4339
sbag5
(g6
g7
(lp4340
Vfeatures
p4341
atp4342
Rp4343
(dp4344
g16
VNNS
p4345
sbatp4346
Rp4347
(dp4348
g16
VNP
p4349
sbag5
(g6
g7
(lp4350
g5
(g6
g7
(lp4351
Vextracted
p4352
atp4353
Rp4354
(dp4355
g16
VVBN
p4356
sbag5
(g6
g7
(lp4357
g5
(g6
g7
(lp4358
g5
(g6
g7
(lp4359
Vfrom
p4360
atp4361
Rp4362
(dp4363
g16
VIN
p4364
sbag5
(g6
g7
(lp4365
g5
(g6
g7
(lp4366
g5
(g6
g7
(lp4367
Vthe
p4368
atp4369
Rp4370
(dp4371
g16
VDT
p4372
sbag5
(g6
g7
(lp4373
Vutterances
p4374
atp4375
Rp4376
(dp4377
g16
VNNS
p4378
sbatp4379
Rp4380
(dp4381
g16
VNP
p4382
sbag5
(g6
g7
(lp4383
g5
(g6
g7
(lp4384
Vmentioned
p4385
atp4386
Rp4387
(dp4388
g16
VVBN
p4389
sbag5
(g6
g7
(lp4390
g5
(g6
g7
(lp4391
Vat
p4392
atp4393
Rp4394
(dp4395
g16
VIN
p4396
sbag5
(g6
g7
(lp4397
g5
(g6
g7
(lp4398
g307
atp4399
Rp4400
(dp4401
g16
VDT
p4402
sbag5
(g6
g7
(lp4403
Vgiven
p4404
atp4405
Rp4406
(dp4407
g16
VVBN
p4408
sbag5
(g6
g7
(lp4409
Vturn
p4410
atp4411
Rp4412
(dp4413
g16
VNN
p4414
sbatp4415
Rp4416
(dp4417
g16
VNP
p4418
sbatp4419
Rp4420
(dp4421
g16
VPP
p4422
sbatp4423
Rp4424
(dp4425
g16
VVP
p4426
sbatp4427
Rp4428
(dp4429
g16
VNP
p4430
sbatp4431
Rp4432
(dp4433
g16
VPP
p4434
sbag5
(g6
g7
(lp4435
Vor
p4436
atp4437
Rp4438
(dp4439
g16
VCC
p4440
sbag5
(g6
g7
(lp4441
g5
(g6
g7
(lp4442
Vin
p4443
atp4444
Rp4445
(dp4446
g16
VIN
p4447
sbag5
(g6
g7
(lp4448
g5
(g6
g7
(lp4449
g5
(g6
g7
(lp4450
g307
atp4451
Rp4452
(dp4453
g16
VDT
p4454
sbag5
(g6
g7
(lp4455
Vcertain
p4456
atp4457
Rp4458
(dp4459
g16
VJJ
p4460
sbag5
(g6
g7
(lp4461
Vnumber
p4462
atp4463
Rp4464
(dp4465
g16
VNN
p4466
sbatp4467
Rp4468
(dp4469
g16
VNP
p4470
sbag5
(g6
g7
(lp4471
g5
(g6
g7
(lp4472
Vof
p4473
atp4474
Rp4475
(dp4476
g16
VIN
p4477
sbag5
(g6
g7
(lp4478
g5
(g6
g7
(lp4479
Vprevious
p4480
atp4481
Rp4482
(dp4483
g16
VJJ
p4484
sbag5
(g6
g7
(lp4485
Vturns
p4486
atp4487
Rp4488
(dp4489
g16
VNNS
p4490
sbatp4491
Rp4492
(dp4493
g16
VNP
p4494
sbatp4495
Rp4496
(dp4497
g16
VPP
p4498
sbatp4499
Rp4500
(dp4501
g16
VNP
p4502
sbatp4503
Rp4504
(dp4505
g16
VPP
p4506
sbatp4507
Rp4508
(dp4509
g16
VPP
p4510
sbatp4511
Rp4512
(dp4513
g16
VVP
p4514
sbatp4515
Rp4516
(dp4517
g16
VNP
p4518
sbag5
(g6
g7
(lp4519
g5
(g6
g7
(lp4520
Vcan
p4521
atp4522
Rp4523
(dp4524
g16
VMD
p4525
sbag5
(g6
g7
(lp4526
g5
(g6
g7
(lp4527
Vbe
p4528
atp4529
Rp4530
(dp4531
g16
VVB
p4532
sbag5
(g6
g7
(lp4533
g5
(g6
g7
(lp4534
Vused
p4535
atp4536
Rp4537
(dp4538
g16
VVBN
p4539
sbag5
(g6
g7
(lp4540
g5
(g6
g7
(lp4541
Vfor
p4542
atp4543
Rp4544
(dp4545
g16
VIN
p4546
sbag5
(g6
g7
(lp4547
g5
(g6
g7
(lp4548
g5
(g6
g7
(lp4549
Vtraining
p4550
atp4551
Rp4552
(dp4553
g16
VVBG
p4554
sbag5
(g6
g7
(lp4555
g5
(g6
g7
(lp4556
Vthe
p4557
atp4558
Rp4559
(dp4560
g16
VDT
p4561
sbag5
(g6
g7
(lp4562
Vmodel
p4563
atp4564
Rp4565
(dp4566
g16
VNN
p4567
sbatp4568
Rp4569
(dp4570
g16
VNP
p4571
sbatp4572
Rp4573
(dp4574
g16
VVP
p4575
sbatp4576
Rp4577
(dp4578
g16
g171
sbatp4579
Rp4580
(dp4581
g16
VPP
p4582
sbatp4583
Rp4584
(dp4585
g16
VVP
p4586
sbatp4587
Rp4588
(dp4589
g16
VVP
p4590
sbatp4591
Rp4592
(dp4593
g16
VVP
p4594
sbatp4595
Rp4596
(dp4597
g16
g171
sbatp4598
Rp4599
(dp4600
g16
VSBAR
p4601
sbag5
(g6
g7
(lp4602
g376
atp4603
Rp4604
(dp4605
g16
g376
sbag5
(g6
g7
(lp4606
g5
(g6
g7
(lp4607
g5
(g6
g7
(lp4608
Vthis
p4609
atp4610
Rp4611
(dp4612
g16
VDT
p4613
sbag5
(g6
g7
(lp4614
Vinformation
p4615
atp4616
Rp4617
(dp4618
g16
VNN
p4619
sbatp4620
Rp4621
(dp4622
g16
VNP
p4623
sbag5
(g6
g7
(lp4624
g5
(g6
g7
(lp4625
Vobtained
p4626
atp4627
Rp4628
(dp4629
g16
VVBN
p4630
sbag5
(g6
g7
(lp4631
g5
(g6
g7
(lp4632
Vsolely
p4633
atp4634
Rp4635
(dp4636
g16
VRB
p4637
sbatp4638
Rp4639
(dp4640
g16
VADVP
p4641
sbag5
(g6
g7
(lp4642
g5
(g6
g7
(lp4643
Vfrom
p4644
atp4645
Rp4646
(dp4647
g16
VIN
p4648
sbag5
(g6
g7
(lp4649
g5
(g6
g7
(lp4650
Van
p4651
atp4652
Rp4653
(dp4654
g16
VDT
p4655
sbag5
(g6
g7
(lp4656
Vongoing
p4657
atp4658
Rp4659
(dp4660
g16
VJJ
p4661
sbag5
(g6
g7
(lp4662
Vdialog
p4663
atp4664
Rp4665
(dp4666
g16
VNN
p4667
sbatp4668
Rp4669
(dp4670
g16
VNP
p4671
sbatp4672
Rp4673
(dp4674
g16
VPP
p4675
sbatp4676
Rp4677
(dp4678
g16
VVP
p4679
sbatp4680
Rp4681
(dp4682
g16
VNP
p4683
sbag5
(g6
g7
(lp4684
g5
(g6
g7
(lp4685
Vis
p4686
atp4687
Rp4688
(dp4689
g16
VVBZ
p4690
sbag5
(g6
g7
(lp4691
Vnot
p4692
atp4693
Rp4694
(dp4695
g16
VRB
p4696
sbag5
(g6
g7
(lp4697
g5
(g6
g7
(lp4698
Vsufficient
p4699
atp4700
Rp4701
(dp4702
g16
VJJ
p4703
sbag5
(g6
g7
(lp4704
g5
(g6
g7
(lp4705
g5
(g6
g7
(lp4706
Vto
p4707
atp4708
Rp4709
(dp4710
g16
VTO
p4711
sbag5
(g6
g7
(lp4712
g5
(g6
g7
(lp4713
Videntify
p4714
atp4715
Rp4716
(dp4717
g16
VVB
p4718
sbag5
(g6
g7
(lp4719
g5
(g6
g7
(lp4720
g5
(g6
g7
(lp4721
Vnot
p4722
atp4723
Rp4724
(dp4725
g16
VRB
p4726
sbag5
(g6
g7
(lp4727
Vonly
p4728
atp4729
Rp4730
(dp4731
g16
VRB
p4732
sbag5
(g6
g7
(lp4733
Vuser-initiative
p4734
atp4735
Rp4736
(dp4737
g16
VJJ
p4738
sbatp4739
Rp4740
(dp4741
g16
VNP
p4742
sbag5
(g6
g7
(lp4743
g376
atp4744
Rp4745
(dp4746
g16
g376
sbag5
(g6
g7
(lp4747
g5
(g6
g7
(lp4748
Vbut
p4749
atp4750
Rp4751
(dp4752
g16
VCC
p4753
sbag5
(g6
g7
(lp4754
Valso
p4755
atp4756
Rp4757
(dp4758
g16
VRB
p4759
sbatp4760
Rp4761
(dp4762
g16
VCONJP
p4763
sbag5
(g6
g7
(lp4764
g5
(g6
g7
(lp4765
Vsystem-initiative
p4766
atp4767
Rp4768
(dp4769
g16
VJJ
p4770
sbag5
(g6
g7
(lp4771
Vtopic
p4772
atp4773
Rp4774
(dp4775
g16
VNN
p4776
sbag5
(g6
g7
(lp4777
Vtransitions
p4778
atp4779
Rp4780
(dp4781
g16
VNNS
p4782
sbatp4783
Rp4784
(dp4785
g16
VNP
p4786
sbatp4787
Rp4788
(dp4789
g16
VNP
p4790
sbatp4791
Rp4792
(dp4793
g16
VVP
p4794
sbatp4795
Rp4796
(dp4797
g16
VVP
p4798
sbatp4799
Rp4800
(dp4801
g16
g171
sbatp4802
Rp4803
(dp4804
g16
VADJP
p4805
sbatp4806
Rp4807
(dp4808
g16
VVP
p4809
sbatp4810
Rp4811
(dp4812
g16
g171
sbatp4813
Rp4814
(dp4815
g16
VROOT
p4816
sbasg176
(icmyPackage
CorE
p4817
(dp4818
g179
(lp4819
(I0
I25
tp4820
a(I0
I27
tp4821
asg183
g4577
sbsg184
(icmyPackage
CorE
p4822
(dp4823
g179
(lp4824
(I0
I0
tp4825
a(I0
I23
tp4826
asg183
g5
(g6
g7
(lp4827
g4322
ag4516
ag4523
ag4530
ag4537
atp4828
Rp4829
(dp4830
g16
g194
sbsbsg195
g2223
sg220
(lp4831
(isxpPackage
sxpSent
p4832
(dp4833
g224
(lp4834
I13
asg226
VAlthough some fundamental features extracted from the utterances mentioned at a given turn or in a certain number of previous turns can be used for training the model, this information obtained solely from an ongoing dialog is not sufficient to identify not only user-initiative, but also system-initiative topic transitions
p4835
sg228
I4
sg210
I28
sg229
I7
sbasba(icmyPackage
CELink
p4836
(dp4837
g3
(lp4838
g5
(g6
g7
(lp4839
g5
(g6
g7
(lp4840
g5
(g6
g7
(lp4841
g5
(g6
g7
(lp4842
VBoth
p4843
atp4844
Rp4845
(dp4846
g16
VDT
p4847
sbatp4848
Rp4849
(dp4850
g16
VNP
p4851
sbag5
(g6
g7
(lp4852
g5
(g6
g7
(lp4853
Vrepresent
p4854
atp4855
Rp4856
(dp4857
g16
VVBP
p4858
sbag5
(g6
g7
(lp4859
g5
(g6
g7
(lp4860
Vthe
p4861
atp4862
Rp4863
(dp4864
g16
VDT
p4865
sbag5
(g6
g7
(lp4866
Vcurrent
p4867
atp4868
Rp4869
(dp4870
g16
VJJ
p4871
sbag5
(g6
g7
(lp4872
Vdialog
p4873
atp4874
Rp4875
(dp4876
g16
VVBG
p4877
sbag5
(g6
g7
(lp4878
Vcontext
p4879
atp4880
Rp4881
(dp4882
g16
VNN
p4883
sbatp4884
Rp4885
(dp4886
g16
VNP
p4887
sbag5
(g6
g7
(lp4888
g5
(g6
g7
(lp4889
Vat
p4890
atp4891
Rp4892
(dp4893
g16
VIN
p4894
sbag5
(g6
g7
(lp4895
g5
(g6
g7
(lp4896
g5
(g6
g7
(lp4897
g307
atp4898
Rp4899
(dp4900
g16
VDT
p4901
sbag5
(g6
g7
(lp4902
Vgiven
p4903
atp4904
Rp4905
(dp4906
g16
VVBN
p4907
sbag5
(g6
g7
(lp4908
Vturn
p4909
atp4910
Rp4911
(dp4912
g16
VNN
p4913
sbatp4914
Rp4915
(dp4916
g16
VNP
p4917
sbag5
(g6
g7
(lp4918
g5
(g6
g7
(lp4919
Vwith
p4920
atp4921
Rp4922
(dp4923
g16
VIN
p4924
sbag5
(g6
g7
(lp4925
g5
(g6
g7
(lp4926
g5
(g6
g7
(lp4927
g307
atp4928
Rp4929
(dp4930
g16
VDT
p4931
sbag5
(g6
g7
(lp4932
Vset
p4933
atp4934
Rp4935
(dp4936
g16
VNN
p4937
sbatp4938
Rp4939
(dp4940
g16
VNP
p4941
sbag5
(g6
g7
(lp4942
g5
(g6
g7
(lp4943
Vof
p4944
atp4945
Rp4946
(dp4947
g16
VIN
p4948
sbag5
(g6
g7
(lp4949
g5
(g6
g7
(lp4950
Vrelevant
p4951
atp4952
Rp4953
(dp4954
g16
VJJ
p4955
sbag5
(g6
g7
(lp4956
VWikipedia
p4957
atp4958
Rp4959
(dp4960
g16
VNNP
p4961
sbag5
(g6
g7
(lp4962
Vparagraphs
p4963
atp4964
Rp4965
(dp4966
g16
VNNS
p4967
sbatp4968
Rp4969
(dp4970
g16
VNP
p4971
sbatp4972
Rp4973
(dp4974
g16
VPP
p4975
sbatp4976
Rp4977
(dp4978
g16
VNP
p4979
sbatp4980
Rp4981
(dp4982
g16
VPP
p4983
sbag5
(g6
g7
(lp4984
g5
(g6
g7
(lp4985
g5
(g6
g7
(lp4986
Vwhich
p4987
atp4988
Rp4989
(dp4990
g16
VWDT
p4991
sbatp4992
Rp4993
(dp4994
g16
VWHNP
p4995
sbag5
(g6
g7
(lp4996
g5
(g6
g7
(lp4997
g5
(g6
g7
(lp4998
Vare
p4999
atp5000
Rp5001
(dp5002
g16
VVBP
p5003
sbag5
(g6
g7
(lp5004
g5
(g6
g7
(lp5005
Vselected
p5006
atp5007
Rp5008
(dp5009
g16
VVBN
p5010
sbag5
(g6
g7
(lp5011
g5
(g6
g7
(lp5012
Vbased
p5013
atp5014
Rp5015
(dp5016
g16
VVBN
p5017
sbag5
(g6
g7
(lp5018
g5
(g6
g7
(lp5019
Von
p5020
atp5021
Rp5022
(dp5023
g16
VIN
p5024
sbag5
(g6
g7
(lp5025
g5
(g6
g7
(lp5026
g5
(g6
g7
(lp5027
Vthe
p5028
atp5029
Rp5030
(dp5031
g16
VDT
p5032
sbag5
(g6
g7
(lp5033
Vcosine
p5034
atp5035
Rp5036
(dp5037
g16
VJJ
p5038
sbag5
(g6
g7
(lp5039
Vsimilarity
p5040
atp5041
Rp5042
(dp5043
g16
VNN
p5044
sbatp5045
Rp5046
(dp5047
g16
VNP
p5048
sbag5
(g6
g7
(lp5049
g5
(g6
g7
(lp5050
Vbetween
p5051
atp5052
Rp5053
(dp5054
g16
VIN
p5055
sbag5
(g6
g7
(lp5056
g5
(g6
g7
(lp5057
g5
(g6
g7
(lp5058
Vthe
p5059
atp5060
Rp5061
(dp5062
g16
VDT
p5063
sbag5
(g6
g7
(lp5064
Vterm
p5065
atp5066
Rp5067
(dp5068
g16
VNN
p5069
sbag5
(g6
g7
(lp5070
Vvectors
p5071
atp5072
Rp5073
(dp5074
g16
VNNS
p5075
sbatp5076
Rp5077
(dp5078
g16
VNP
p5079
sbag5
(g6
g7
(lp5080
g5
(g6
g7
(lp5081
Vof
p5082
atp5083
Rp5084
(dp5085
g16
VIN
p5086
sbag5
(g6
g7
(lp5087
g5
(g6
g7
(lp5088
g5
(g6
g7
(lp5089
Vthe
p5090
atp5091
Rp5092
(dp5093
g16
VDT
p5094
sbag5
(g6
g7
(lp5095
g5
(g6
g7
(lp5096
Vrecently
p5097
atp5098
Rp5099
(dp5100
g16
VRB
p5101
sbag5
(g6
g7
(lp5102
Vmentioned
p5103
atp5104
Rp5105
(dp5106
g16
VJJ
p5107
sbatp5108
Rp5109
(dp5110
g16
VADJP
p5111
sbag5
(g6
g7
(lp5112
Vutterances
p5113
atp5114
Rp5115
(dp5116
g16
VNNS
p5117
sbatp5118
Rp5119
(dp5120
g16
VNP
p5121
sbag5
(g6
g7
(lp5122
Vand
p5123
atp5124
Rp5125
(dp5126
g16
VCC
p5127
sbag5
(g6
g7
(lp5128
g5
(g6
g7
(lp5129
g5
(g6
g7
(lp5130
Veach
p5131
atp5132
Rp5133
(dp5134
g16
VDT
p5135
sbag5
(g6
g7
(lp5136
Vparagraph
p5137
atp5138
Rp5139
(dp5140
g16
VNN
p5141
sbatp5142
Rp5143
(dp5144
g16
VNP
p5145
sbag5
(g6
g7
(lp5146
g5
(g6
g7
(lp5147
Vin
p5148
atp5149
Rp5150
(dp5151
g16
VIN
p5152
sbag5
(g6
g7
(lp5153
g5
(g6
g7
(lp5154
Vthe
p5155
atp5156
Rp5157
(dp5158
g16
VDT
p5159
sbag5
(g6
g7
(lp5160
VWikipedia
p5161
atp5162
Rp5163
(dp5164
g16
VNNP
p5165
sbag5
(g6
g7
(lp5166
Vcollection
p5167
atp5168
Rp5169
(dp5170
g16
VNN
p5171
sbatp5172
Rp5173
(dp5174
g16
VNP
p5175
sbatp5176
Rp5177
(dp5178
g16
VPP
p5179
sbatp5180
Rp5181
(dp5182
g16
VNP
p5183
sbag5
(g6
g7
(lp5184
g5
(g6
g7
(lp5185
Vas
p5186
atp5187
Rp5188
(dp5189
g16
VIN
p5190
sbag5
(g6
g7
(lp5191
g5
(g6
g7
(lp5192
g5
(g6
g7
(lp5193
Vfollows
p5194
atp5195
Rp5196
(dp5197
g16
VVBZ
p5198
sbatp5199
Rp5200
(dp5201
g16
VVP
p5202
sbatp5203
Rp5204
(dp5205
g16
g171
sbatp5206
Rp5207
(dp5208
g16
VSBAR
p5209
sbatp5210
Rp5211
(dp5212
g16
VNP
p5213
sbatp5214
Rp5215
(dp5216
g16
VPP
p5217
sbatp5218
Rp5219
(dp5220
g16
VNP
p5221
sbatp5222
Rp5223
(dp5224
g16
VPP
p5225
sbatp5226
Rp5227
(dp5228
g16
VNP
p5229
sbatp5230
Rp5231
(dp5232
g16
VPP
p5233
sbatp5234
Rp5235
(dp5236
g16
VPP
p5237
sbatp5238
Rp5239
(dp5240
g16
VVP
p5241
sbatp5242
Rp5243
(dp5244
g16
VVP
p5245
sbatp5246
Rp5247
(dp5248
g16
g171
sbatp5249
Rp5250
(dp5251
g16
VSBAR
p5252
sbatp5253
Rp5254
(dp5255
g16
VNP
p5256
sbatp5257
Rp5258
(dp5259
g16
VPP
p5260
sbatp5261
Rp5262
(dp5263
g16
VVP
p5264
sbatp5265
Rp5266
(dp5267
g16
g171
sbatp5268
Rp5269
(dp5270
g16
VROOT
p5271
sbasg176
(icmyPackage
CorE
p5272
(dp5273
g179
(lp5274
(I0
I22
tp5275
a(I0
I42
tp5276
asg183
g5227
sbsg184
(icmyPackage
CorE
p5277
(dp5278
g179
(lp5279
(I0
I0
tp5280
a(I0
I19
tp5281
asg183
g5
(g6
g7
(lp5282
g4849
ag4856
ag4885
ag4892
ag4915
ag4981
ag4993
ag5001
ag5008
atp5283
Rp5284
(dp5285
g16
g194
sbsbsg195
g196
sg220
(lp5286
(isxpPackage
sxpSent
p5287
(dp5288
g224
(lp5289
I14
asg226
VBoth represent the current dialog context at a given turn with a set of relevant Wikipedia paragraphs which are selected based on the cosine similarity between the term vectors of the recently mentioned utterances and each paragraph in the Wikipedia collection as follows
p5290
sg228
I4
sg210
I33
sg229
I9
sbasba(icmyPackage
CELink
p5291
(dp5292
g3
(lp5293
g5
(g6
g7
(lp5294
g5
(g6
g7
(lp5295
g5
(g6
g7
(lp5296
g5
(g6
g7
(lp5297
g5
(g6
g7
(lp5298
VThe
p5299
atp5300
Rp5301
(dp5302
g16
VDT
p5303
sbag5
(g6
g7
(lp5304
Vterm
p5305
atp5306
Rp5307
(dp5308
g16
VNN
p5309
sbag5
(g6
g7
(lp5310
Vvector
p5311
atp5312
Rp5313
(dp5314
g16
VNN
p5315
sbatp5316
Rp5317
(dp5318
g16
VNP
p5319
sbag5
(g6
g7
(lp5320
g5
(g6
g7
(lp5321
Vfor
p5322
atp5323
Rp5324
(dp5325
g16
VIN
p5326
sbag5
(g6
g7
(lp5327
g5
(g6
g7
(lp5328
g5
(g6
g7
(lp5329
Vthe
p5330
atp5331
Rp5332
(dp5333
g16
VDT
p5334
sbag5
(g6
g7
(lp5335
Vinput
p5336
atp5337
Rp5338
(dp5339
g16
VNN
p5340
sbatp5341
Rp5342
(dp5343
g16
VNP
p5344
sbag5
(g6
g7
(lp5345
g5
(g6
g7
(lp5346
g5
(g6
g7
(lp5347
g5
(g6
g7
(lp5348
g5
(g6
g7
(lp5349
g3396
atp5350
Rp5351
(dp5352
g16
VSYM
p5353
sbatp5354
Rp5355
(dp5356
g16
VNP
p5357
sbag5
(g6
g7
(lp5358
g376
atp5359
Rp5360
(dp5361
g16
g376
sbag5
(g6
g7
(lp5362
g5
(g6
g7
(lp5363
g5
(g6
g7
(lp5364
g5
(g6
g7
(lp5365
g939
atp5366
Rp5367
(dp5368
g16
VNNP
p5369
sbag5
(g6
g7
(lp5370
g945
atp5371
Rp5372
(dp5373
g16
VPOS
p5374
sbatp5375
Rp5376
(dp5377
g16
VNP
p5378
sbag5
(g6
g7
(lp5379
V\u005c
p5380
atp5381
Rp5382
(dp5383
g16
VJJ
p5384
sbag5
(g6
g7
(lp5385
g5
(g6
g7
(lp5386
Vu03a6
p5387
atp5388
Rp5389
(dp5390
g16
VNNP
p5391
sbag5
(g6
g7
(lp5392
g945
atp5393
Rp5394
(dp5395
g16
VPOS
p5396
sbatp5397
Rp5398
(dp5399
g16
VNP
p5400
sbag5
(g6
g7
(lp5401
g939
atp5402
Rp5403
(dp5404
g16
VNN
p5405
sbag5
(g6
g7
(lp5406
g945
atp5407
Rp5408
(dp5409
g16
V''
p5410
sbatp5411
Rp5412
(dp5413
g16
VNP
p5414
sbag5
(g6
g7
(lp5415
g5
(g6
g7
(lp5416
g5
(g6
g7
(lp5417
V\u005c
p5418
atp5419
Rp5420
(dp5421
g16
VRB
p5422
sbag5
(g6
g7
(lp5423
Vu2062
p5424
atp5425
Rp5426
(dp5427
g16
VJJ
p5428
sbag5
(g6
g7
(lp5429
g945
atp5430
Rp5431
(dp5432
g16
V''
p5433
sbatp5434
Rp5435
(dp5436
g16
VADJP
p5437
sbag5
(g6
g7
(lp5438
g5
(g6
g7
(lp5439
V-LRB-
p5440
atp5441
Rp5442
(dp5443
g16
V-LRB-
p5444
sbag5
(g6
g7
(lp5445
g5
(g6
g7
(lp5446
g3396
atp5447
Rp5448
(dp5449
g16
VNNP
p5450
sbatp5451
Rp5452
(dp5453
g16
VNP
p5454
sbag5
(g6
g7
(lp5455
V-RRB-
p5456
atp5457
Rp5458
(dp5459
g16
V-RRB-
p5460
sbatp5461
Rp5462
(dp5463
g16
VPRN
p5464
sbatp5465
Rp5466
(dp5467
g16
VADJP
p5468
sbatp5469
Rp5470
(dp5471
g16
VNP
p5472
sbag5
(g6
g7
(lp5473
g376
atp5474
Rp5475
(dp5476
g16
g376
sbatp5477
Rp5478
(dp5479
g16
VNP
p5480
sbag5
(g6
g7
(lp5481
g5
(g6
g7
(lp5482
Vis
p5483
atp5484
Rp5485
(dp5486
g16
VVBZ
p5487
sbag5
(g6
g7
(lp5488
g5
(g6
g7
(lp5489
Vcomputed
p5490
atp5491
Rp5492
(dp5493
g16
VVBN
p5494
sbag5
(g6
g7
(lp5495
g5
(g6
g7
(lp5496
Vby
p5497
atp5498
Rp5499
(dp5500
g16
VIN
p5501
sbag5
(g6
g7
(lp5502
g5
(g6
g7
(lp5503
g5
(g6
g7
(lp5504
Vaccumulating
p5505
atp5506
Rp5507
(dp5508
g16
VVBG
p5509
sbag5
(g6
g7
(lp5510
g5
(g6
g7
(lp5511
Vthe
p5512
atp5513
Rp5514
(dp5515
g16
VDT
p5516
sbag5
(g6
g7
(lp5517
Vweights
p5518
atp5519
Rp5520
(dp5521
g16
VNNS
p5522
sbatp5523
Rp5524
(dp5525
g16
VNP
p5526
sbag5
(g6
g7
(lp5527
g5
(g6
g7
(lp5528
Vin
p5529
atp5530
Rp5531
(dp5532
g16
VIN
p5533
sbag5
(g6
g7
(lp5534
g5
(g6
g7
(lp5535
Vthe
p5536
atp5537
Rp5538
(dp5539
g16
VDT
p5540
sbag5
(g6
g7
(lp5541
Vprevious
p5542
atp5543
Rp5544
(dp5545
g16
VJJ
p5546
sbatp5547
Rp5548
(dp5549
g16
VNP
p5550
sbatp5551
Rp5552
(dp5553
g16
VPP
p5554
sbatp5555
Rp5556
(dp5557
g16
VVP
p5558
sbatp5559
Rp5560
(dp5561
g16
g171
sbatp5562
Rp5563
(dp5564
g16
VPP
p5565
sbatp5566
Rp5567
(dp5568
g16
VVP
p5569
sbatp5570
Rp5571
(dp5572
g16
VVP
p5573
sbatp5574
Rp5575
(dp5576
g16
g171
sbatp5577
Rp5578
(dp5579
g16
VSBAR
p5580
sbatp5581
Rp5582
(dp5583
g16
VNP
p5584
sbatp5585
Rp5586
(dp5587
g16
VPP
p5588
sbatp5589
Rp5590
(dp5591
g16
VNP
p5592
sbag5
(g6
g7
(lp5593
g5
(g6
g7
(lp5594
Vturns
p5595
atp5596
Rp5597
(dp5598
g16
VVBZ
p5599
sbag5
(g6
g7
(lp5600
g5
(g6
g7
(lp5601
Vas
p5602
atp5603
Rp5604
(dp5605
g16
VIN
p5606
sbag5
(g6
g7
(lp5607
g5
(g6
g7
(lp5608
g5
(g6
g7
(lp5609
Vfollows
p5610
atp5611
Rp5612
(dp5613
g16
VVBZ
p5614
sbatp5615
Rp5616
(dp5617
g16
VVP
p5618
sbatp5619
Rp5620
(dp5621
g16
g171
sbatp5622
Rp5623
(dp5624
g16
VSBAR
p5625
sbatp5626
Rp5627
(dp5628
g16
VVP
p5629
sbatp5630
Rp5631
(dp5632
g16
g171
sbatp5633
Rp5634
(dp5635
g16
VROOT
p5636
sbasg176
(icmyPackage
CorE
p5637
(dp5638
g179
(lp5639
(I0
I25
tp5640
a(I0
I30
tp5641
asg183
g5560
sbsg184
(icmyPackage
CorE
p5642
(dp5643
g179
(lp5644
(I0
I31
tp5645
a(I0
I33
tp5646
asg183
g5627
sbsg195
(icmyPackage
pattern
p5647
(dp5648
g198
I0
sg199
I0
sg200
(lp5649
(lp5650
(lp5651
S'by'
p5652
aS'through'
p5653
aaasg205
(lp5654
I2
aI1
aI1
asg207
(lp5655
S'By extracting comments and comparisons of the cited articles and then organizing them according to the time of publication discovers and displays how the area has developed as a research literature.'
p5656
asg210
I67
sg211
(lp5657
(lp5658
a(lp5659
S'&V-ing@C@'
p5660
aS'&R'
p5661
aasbsg220
(lp5662
(isxpPackage
sxpSent
p5663
(dp5664
g224
(lp5665
I15
asg226
VThe term vector for the input x , u'\u005cu03a6' u'\u005cu2062' ( x ) , is computed by accumulating the weights in the previous turns as follows
p5666
sg228
I4
sg210
I35
sg229
I10
sbasba(icmyPackage
CELink
p5667
(dp5668
g3
(lp5669
g5
(g6
g7
(lp5670
g5
(g6
g7
(lp5671
g5
(g6
g7
(lp5672
g5
(g6
g7
(lp5673
Vwhere
p5674
atp5675
Rp5676
(dp5677
g16
VWRB
p5678
sbatp5679
Rp5680
(dp5681
g16
VWHADVP
p5682
sbag5
(g6
g7
(lp5683
g5
(g6
g7
(lp5684
g5
(g6
g7
(lp5685
g939
atp5686
Rp5687
(dp5688
g16
VVBP
p5689
sbag5
(g6
g7
(lp5690
g945
atp5691
Rp5692
(dp5693
g16
V``
p5694
sbag5
(g6
g7
(lp5695
g5
(g6
g7
(lp5696
g5
(g6
g7
(lp5697
V\u005c
p5698
atp5699
Rp5700
(dp5701
g16
VNNP
p5702
sbag5
(g6
g7
(lp5703
Vu0391
p5704
atp5705
Rp5706
(dp5707
g16
VNNP
p5708
sbag5
(g6
g7
(lp5709
g945
atp5710
Rp5711
(dp5712
g16
VPOS
p5713
sbatp5714
Rp5715
(dp5716
g16
VNP
p5717
sbag5
(g6
g7
(lp5718
Vi
p5719
atp5720
Rp5721
(dp5722
g16
VFW
p5723
sbag5
(g6
g7
(lp5724
g3422
atp5725
Rp5726
(dp5727
g16
VNN
p5728
sbag5
(g6
g7
(lp5729
g939
atp5730
Rp5731
(dp5732
g16
VNN
p5733
sbatp5734
Rp5735
(dp5736
g16
VNP
p5737
sbag5
(g6
g7
(lp5738
g945
atp5739
Rp5740
(dp5741
g16
V''
p5742
sbatp5743
Rp5744
(dp5745
g16
VVP
p5746
sbag5
(g6
g7
(lp5747
g5
(g6
g7
(lp5748
g5
(g6
g7
(lp5749
g5
(g6
g7
(lp5750
V\u005c
p5751
atp5752
Rp5753
(dp5754
g16
VVBG
p5755
sbag5
(g6
g7
(lp5756
g5
(g6
g7
(lp5757
g5
(g6
g7
(lp5758
Vu2211
p5759
atp5760
Rp5761
(dp5762
g16
VNNP
p5763
sbag5
(g6
g7
(lp5764
g945
atp5765
Rp5766
(dp5767
g16
VPOS
p5768
sbatp5769
Rp5770
(dp5771
g16
VNP
p5772
sbag5
(g6
g7
(lp5773
Vj
p5774
atp5775
Rp5776
(dp5777
g16
VNN
p5778
sbatp5779
Rp5780
(dp5781
g16
VNP
p5782
sbag5
(g6
g7
(lp5783
g5
(g6
g7
(lp5784
g5
(g6
g7
(lp5785
g3422
atp5786
Rp5787
(dp5788
g16
VSYM
p5789
sbag5
(g6
g7
(lp5790
g5
(g6
g7
(lp5791
V0
p5792
atp5793
Rp5794
(dp5795
g16
VCD
p5796
sbag5
(g6
g7
(lp5797
Vh
p5798
atp5799
Rp5800
(dp5801
g16
VNN
p5802
sbatp5803
Rp5804
(dp5805
g16
VNP
p5806
sbatp5807
Rp5808
(dp5809
g16
VVP
p5810
sbatp5811
Rp5812
(dp5813
g16
g171
sbatp5814
Rp5815
(dp5816
g16
VVP
p5817
sbag5
(g6
g7
(lp5818
g5
(g6
g7
(lp5819
V-LRB-
p5820
atp5821
Rp5822
(dp5823
g16
V-LRB-
p5824
sbag5
(g6
g7
(lp5825
g5
(g6
g7
(lp5826
g5
(g6
g7
(lp5827
g5
(g6
g7
(lp5828
g939
atp5829
Rp5830
(dp5831
g16
VNNP
p5832
sbag5
(g6
g7
(lp5833
g945
atp5834
Rp5835
(dp5836
g16
VPOS
p5837
sbatp5838
Rp5839
(dp5840
g16
VNP
p5841
sbag5
(g6
g7
(lp5842
g5
(g6
g7
(lp5843
g5
(g6
g7
(lp5844
g5
(g6
g7
(lp5845
V\u005c
p5846
atp5847
Rp5848
(dp5849
g16
VNNP
p5850
sbag5
(g6
g7
(lp5851
Vu039b
p5852
atp5853
Rp5854
(dp5855
g16
VNNP
p5856
sbag5
(g6
g7
(lp5857
g945
atp5858
Rp5859
(dp5860
g16
VPOS
p5861
sbatp5862
Rp5863
(dp5864
g16
VNP
p5865
sbag5
(g6
g7
(lp5866
g5774
atp5867
Rp5868
(dp5869
g16
VNN
p5870
sbag5
(g6
g7
(lp5871
g939
atp5872
Rp5873
(dp5874
g16
VNN
p5875
sbag5
(g6
g7
(lp5876
g945
atp5877
Rp5878
(dp5879
g16
V''
p5880
sbatp5881
Rp5882
(dp5883
g16
VNP
p5884
sbag5
(g6
g7
(lp5885
g5
(g6
g7
(lp5886
g5
(g6
g7
(lp5887
V\u005c
p5888
atp5889
Rp5890
(dp5891
g16
VNNP
p5892
sbag5
(g6
g7
(lp5893
Vu22c5
p5894
atp5895
Rp5896
(dp5897
g16
VNNP
p5898
sbag5
(g6
g7
(lp5899
g945
atp5900
Rp5901
(dp5902
g16
VPOS
p5903
sbatp5904
Rp5905
(dp5906
g16
VNP
p5907
sbag5
(g6
g7
(lp5908
g3402
atp5909
Rp5910
(dp5911
g16
VNN
p5912
sbag5
(g6
g7
(lp5913
g939
atp5914
Rp5915
(dp5916
g16
VNN
p5917
sbag5
(g6
g7
(lp5918
g945
atp5919
Rp5920
(dp5921
g16
V''
p5922
sbatp5923
Rp5924
(dp5925
g16
VNP
p5926
sbatp5927
Rp5928
(dp5929
g16
VNP
p5930
sbatp5931
Rp5932
(dp5933
g16
VNP
p5934
sbag5
(g6
g7
(lp5935
g5
(g6
g7
(lp5936
V\u005c
p5937
atp5938
Rp5939
(dp5940
g16
VVBD
p5941
sbag5
(g6
g7
(lp5942
g5
(g6
g7
(lp5943
g5
(g6
g7
(lp5944
g5
(g6
g7
(lp5945
g5
(g6
g7
(lp5946
Vu2062
p5947
atp5948
Rp5949
(dp5950
g16
VNNP
p5951
sbag5
(g6
g7
(lp5952
g945
atp5953
Rp5954
(dp5955
g16
VPOS
p5956
sbatp5957
Rp5958
(dp5959
g16
VNP
p5960
sbag5
(g6
g7
(lp5961
g5
(g6
g7
(lp5962
g5
(g6
g7
(lp5963
g3351
atp5964
Rp5965
(dp5966
g16
VSYM
p5967
sbatp5968
Rp5969
(dp5970
g16
VX
p5971
sbag5
(g6
g7
(lp5972
g5
(g6
g7
(lp5973
g5
(g6
g7
(lp5974
g5
(g6
g7
(lp5975
g5
(g6
g7
(lp5976
g939
atp5977
Rp5978
(dp5979
g16
VNNP
p5980
sbag5
(g6
g7
(lp5981
g945
atp5982
Rp5983
(dp5984
g16
VPOS
p5985
sbatp5986
Rp5987
(dp5988
g16
VNP
p5989
sbag5
(g6
g7
(lp5990
V\u005c
p5991
atp5992
Rp5993
(dp5994
g16
VJJ
p5995
sbag5
(g6
g7
(lp5996
Vu2062
p5997
atp5998
Rp5999
(dp6000
g16
VNNS
p6001
sbag5
(g6
g7
(lp6002
g945
atp6003
Rp6004
(dp6005
g16
VPOS
p6006
sbatp6007
Rp6008
(dp6009
g16
VNP
p6010
sbag5
(g6
g7
(lp6011
g5719
atp6012
Rp6013
(dp6014
g16
VNNP
p6015
sbag5
(g6
g7
(lp6016
g939
atp6017
Rp6018
(dp6019
g16
VNNP
p6020
sbag5
(g6
g7
(lp6021
g945
atp6022
Rp6023
(dp6024
g16
V''
p6025
sbatp6026
Rp6027
(dp6028
g16
VNP
p6029
sbag5
(g6
g7
(lp6030
g5
(g6
g7
(lp6031
V\u005c
p6032
atp6033
Rp6034
(dp6035
g16
VVBN
p6036
sbag5
(g6
g7
(lp6037
g5
(g6
g7
(lp6038
g5
(g6
g7
(lp6039
g5
(g6
g7
(lp6040
g5
(g6
g7
(lp6041
Vu2062
p6042
atp6043
Rp6044
(dp6045
g16
VNNP
p6046
sbag5
(g6
g7
(lp6047
g945
atp6048
Rp6049
(dp6050
g16
VPOS
p6051
sbatp6052
Rp6053
(dp6054
g16
VNP
p6055
sbag5
(g6
g7
(lp6056
Vd
p6057
atp6058
Rp6059
(dp6060
g16
VJJ
p6061
sbag5
(g6
g7
(lp6062
g939
atp6063
Rp6064
(dp6065
g16
VNN
p6066
sbag5
(g6
g7
(lp6067
g945
atp6068
Rp6069
(dp6070
g16
VPOS
p6071
sbatp6072
Rp6073
(dp6074
g16
VNP
p6075
sbag5
(g6
g7
(lp6076
V\u005c
p6077
atp6078
Rp6079
(dp6080
g16
VNNP
p6081
sbag5
(g6
g7
(lp6082
Vu2062
p6083
atp6084
Rp6085
(dp6086
g16
VNNP
p6087
sbag5
(g6
g7
(lp6088
g945
atp6089
Rp6090
(dp6091
g16
V''
p6092
sbatp6093
Rp6094
(dp6095
g16
VNP
p6096
sbag5
(g6
g7
(lp6097
g5
(g6
g7
(lp6098
g3351
atp6099
Rp6100
(dp6101
g16
VSYM
p6102
sbatp6103
Rp6104
(dp6105
g16
g5971
sbatp6106
Rp6107
(dp6108
g16
VNP
p6109
sbatp6110
Rp6111
(dp6112
g16
VVP
p6113
sbatp6114
Rp6115
(dp6116
g16
VNP
p6117
sbatp6118
Rp6119
(dp6120
g16
g5971
sbatp6121
Rp6122
(dp6123
g16
g171
sbag5
(g6
g7
(lp6124
g5
(g6
g7
(lp6125
g939
atp6126
Rp6127
(dp6128
g16
VVBP
p6129
sbag5
(g6
g7
(lp6130
g945
atp6131
Rp6132
(dp6133
g16
V``
p6134
sbag5
(g6
g7
(lp6135
g5
(g6
g7
(lp6136
V\u005c
p6137
atp6138
Rp6139
(dp6140
g16
VRB
p6141
sbag5
(g6
g7
(lp6142
Vu2062
p6143
atp6144
Rp6145
(dp6146
g16
VJJ
p6147
sbatp6148
Rp6149
(dp6150
g16
VADJP
p6151
sbag5
(g6
g7
(lp6152
g945
atp6153
Rp6154
(dp6155
g16
V''
p6156
sbag5
(g6
g7
(lp6157
g5
(g6
g7
(lp6158
V-LRB-
p6159
atp6160
Rp6161
(dp6162
g16
V-LRB-
p6163
sbag5
(g6
g7
(lp6164
g5
(g6
g7
(lp6165
g5
(g6
g7
(lp6166
Vw
p6167
atp6168
Rp6169
(dp6170
g16
VVB
p6171
sbag5
(g6
g7
(lp6172
g5
(g6
g7
(lp6173
g5
(g6
g7
(lp6174
g5719
atp6175
Rp6176
(dp6177
g16
VFW
p6178
sbatp6179
Rp6180
(dp6181
g16
VNP
p6182
sbag5
(g6
g7
(lp6183
g376
atp6184
Rp6185
(dp6186
g16
g376
sbag5
(g6
g7
(lp6187
g5
(g6
g7
(lp6188
g939
atp6189
Rp6190
(dp6191
g16
VNN
p6192
sbatp6193
Rp6194
(dp6195
g16
VNP
p6196
sbag5
(g6
g7
(lp6197
g5
(g6
g7
(lp6198
V-LRB-
p6199
atp6200
Rp6201
(dp6202
g16
V-LRB-
p6203
sbag5
(g6
g7
(lp6204
g5
(g6
g7
(lp6205
g5
(g6
g7
(lp6206
g3402
atp6207
Rp6208
(dp6209
g16
VNN
p6210
sbatp6211
Rp6212
(dp6213
g16
VNP
p6214
sbag5
(g6
g7
(lp6215
g3455
atp6216
Rp6217
(dp6218
g16
g3459
sbag5
(g6
g7
(lp6219
g5
(g6
g7
(lp6220
g5774
atp6221
Rp6222
(dp6223
g16
VNN
p6224
sbatp6225
Rp6226
(dp6227
g16
VNP
p6228
sbatp6229
Rp6230
(dp6231
g16
VNP
p6232
sbag5
(g6
g7
(lp6233
V-RRB-
p6234
atp6235
Rp6236
(dp6237
g16
V-RRB-
p6238
sbatp6239
Rp6240
(dp6241
g16
VPRN
p6242
sbatp6243
Rp6244
(dp6245
g16
VNP
p6246
sbatp6247
Rp6248
(dp6249
g16
VVP
p6250
sbatp6251
Rp6252
(dp6253
g16
g171
sbag5
(g6
g7
(lp6254
V-RRB-
p6255
atp6256
Rp6257
(dp6258
g16
V-RRB-
p6259
sbatp6260
Rp6261
(dp6262
g16
VPRN
p6263
sbatp6264
Rp6265
(dp6266
g16
VVP
p6267
sbatp6268
Rp6269
(dp6270
g16
g171
sbatp6271
Rp6272
(dp6273
g16
VSBAR
p6274
sbatp6275
Rp6276
(dp6277
g16
VVP
p6278
sbatp6279
Rp6280
(dp6281
g16
g171
sbag5
(g6
g7
(lp6282
V-RRB-
p6283
atp6284
Rp6285
(dp6286
g16
V-RRB-
p6287
sbatp6288
Rp6289
(dp6290
g16
VPRN
p6291
sbatp6292
Rp6293
(dp6294
g16
VVP
p6295
sbatp6296
Rp6297
(dp6298
g16
g171
sbag5
(g6
g7
(lp6299
g5
(g6
g7
(lp6300
g376
atp6301
Rp6302
(dp6303
g16
g376
sbag5
(g6
g7
(lp6304
g5
(g6
g7
(lp6305
g5
(g6
g7
(lp6306
g939
atp6307
Rp6308
(dp6309
g16
VNN
p6310
sbag5
(g6
g7
(lp6311
g3402
atp6312
Rp6313
(dp6314
g16
VNN
p6315
sbatp6316
Rp6317
(dp6318
g16
VNP
p6319
sbag5
(g6
g7
(lp6320
g5
(g6
g7
(lp6321
Vis
p6322
atp6323
Rp6324
(dp6325
g16
VVBZ
p6326
sbag5
(g6
g7
(lp6327
g5
(g6
g7
(lp6328
g5
(g6
g7
(lp6329
g5
(g6
g7
(lp6330
Vthe
p6331
atp6332
Rp6333
(dp6334
g16
VDT
p6335
sbag5
(g6
g7
(lp6336
Vutterance
p6337
atp6338
Rp6339
(dp6340
g16
VNN
p6341
sbatp6342
Rp6343
(dp6344
g16
VNP
p6345
sbag5
(g6
g7
(lp6346
g5
(g6
g7
(lp6347
Vmentioned
p6348
atp6349
Rp6350
(dp6351
g16
VVBN
p6352
sbag5
(g6
g7
(lp6353
g5
(g6
g7
(lp6354
Vin
p6355
atp6356
Rp6357
(dp6358
g16
VIN
p6359
sbag5
(g6
g7
(lp6360
g5
(g6
g7
(lp6361
g307
atp6362
Rp6363
(dp6364
g16
VDT
p6365
sbag5
(g6
g7
(lp6366
Vturn
p6367
atp6368
Rp6369
(dp6370
g16
VNN
p6371
sbag5
(g6
g7
(lp6372
g3402
atp6373
Rp6374
(dp6375
g16
VNN
p6376
sbatp6377
Rp6378
(dp6379
g16
VNP
p6380
sbatp6381
Rp6382
(dp6383
g16
VPP
p6384
sbatp6385
Rp6386
(dp6387
g16
VVP
p6388
sbatp6389
Rp6390
(dp6391
g16
VNP
p6392
sbag5
(g6
g7
(lp6393
g376
atp6394
Rp6395
(dp6396
g16
g376
sbag5
(g6
g7
(lp6397
g5
(g6
g7
(lp6398
g5
(g6
g7
(lp6399
g3402
atp6400
Rp6401
(dp6402
g16
VJJ
p6403
sbag5
(g6
g7
(lp6404
g939
atp6405
Rp6406
(dp6407
g16
VNN
p6408
sbag5
(g6
g7
(lp6409
g945
atp6410
Rp6411
(dp6412
g16
VPOS
p6413
sbatp6414
Rp6415
(dp6416
g16
VNP
p6417
sbag5
(g6
g7
(lp6418
V\u005c
p6419
atp6420
Rp6421
(dp6422
g16
VNN
p6423
sbag5
(g6
g7
(lp6424
Vu2062
p6425
atp6426
Rp6427
(dp6428
g16
VNNS
p6429
sbag5
(g6
g7
(lp6430
g945
atp6431
Rp6432
(dp6433
g16
V''
p6434
sbatp6435
Rp6436
(dp6437
g16
VNP
p6438
sbatp6439
Rp6440
(dp6441
g16
VNP
p6442
sbatp6443
Rp6444
(dp6445
g16
VVP
p6446
sbatp6447
Rp6448
(dp6449
g16
g171
sbatp6450
Rp6451
(dp6452
g16
VPRN
p6453
sbag5
(g6
g7
(lp6454
g5
(g6
g7
(lp6455
g5
(g6
g7
(lp6456
g3351
atp6457
Rp6458
(dp6459
g16
VSYM
p6460
sbatp6461
Rp6462
(dp6463
g16
g5971
sbag5
(g6
g7
(lp6464
g5
(g6
g7
(lp6465
g5
(g6
g7
(lp6466
g5
(g6
g7
(lp6467
g5
(g6
g7
(lp6468
g5
(g6
g7
(lp6469
g5
(g6
g7
(lp6470
g939
atp6471
Rp6472
(dp6473
g16
VNNP
p6474
sbag5
(g6
g7
(lp6475
g945
atp6476
Rp6477
(dp6478
g16
VPOS
p6479
sbatp6480
Rp6481
(dp6482
g16
VNP
p6483
sbag5
(g6
g7
(lp6484
V\u005c
p6485
atp6486
Rp6487
(dp6488
g16
VJJ
p6489
sbag5
(g6
g7
(lp6490
Vu2062
p6491
atp6492
Rp6493
(dp6494
g16
VNNS
p6495
sbag5
(g6
g7
(lp6496
g945
atp6497
Rp6498
(dp6499
g16
VPOS
p6500
sbatp6501
Rp6502
(dp6503
g16
VNP
p6504
sbag5
(g6
g7
(lp6505
g5719
atp6506
Rp6507
(dp6508
g16
VNNP
p6509
sbag5
(g6
g7
(lp6510
g939
atp6511
Rp6512
(dp6513
g16
VNNP
p6514
sbag5
(g6
g7
(lp6515
g945
atp6516
Rp6517
(dp6518
g16
V''
p6519
sbatp6520
Rp6521
(dp6522
g16
VNP
p6523
sbag5
(g6
g7
(lp6524
g5
(g6
g7
(lp6525
g5
(g6
g7
(lp6526
g5
(g6
g7
(lp6527
g5
(g6
g7
(lp6528
V\u005c
p6529
atp6530
Rp6531
(dp6532
g16
VNNP
p6533
sbag5
(g6
g7
(lp6534
Vu2062
p6535
atp6536
Rp6537
(dp6538
g16
VNNP
p6539
sbag5
(g6
g7
(lp6540
g945
atp6541
Rp6542
(dp6543
g16
VPOS
p6544
sbatp6545
Rp6546
(dp6547
g16
VNP
p6548
sbag5
(g6
g7
(lp6549
g5
(g6
g7
(lp6550
g5
(g6
g7
(lp6551
g5
(g6
g7
(lp6552
g6057
atp6553
Rp6554
(dp6555
g16
VSYM
p6556
sbatp6557
Rp6558
(dp6559
g16
VNP
p6560
sbag5
(g6
g7
(lp6561
g5
(g6
g7
(lp6562
g939
atp6563
Rp6564
(dp6565
g16
VVBP
p6566
sbag5
(g6
g7
(lp6567
g945
atp6568
Rp6569
(dp6570
g16
V``
p6571
sbag5
(g6
g7
(lp6572
g5
(g6
g7
(lp6573
g5
(g6
g7
(lp6574
V\u005c
p6575
atp6576
Rp6577
(dp6578
g16
VNNP
p6579
sbag5
(g6
g7
(lp6580
Vu2062
p6581
atp6582
Rp6583
(dp6584
g16
VNNP
p6585
sbag5
(g6
g7
(lp6586
g945
atp6587
Rp6588
(dp6589
g16
VPOS
p6590
sbatp6591
Rp6592
(dp6593
g16
VNP
p6594
sbag5
(g6
g7
(lp6595
g5
(g6
g7
(lp6596
g3351
atp6597
Rp6598
(dp6599
g16
VNNP
p6600
sbag5
(g6
g7
(lp6601
g939
atp6602
Rp6603
(dp6604
g16
VNNP
p6605
sbag5
(g6
g7
(lp6606
g945
atp6607
Rp6608
(dp6609
g16
VPOS
p6610
sbatp6611
Rp6612
(dp6613
g16
VNP
p6614
sbag5
(g6
g7
(lp6615
V\u005c
p6616
atp6617
Rp6618
(dp6619
g16
VNN
p6620
sbag5
(g6
g7
(lp6621
Vu2062
p6622
atp6623
Rp6624
(dp6625
g16
VNNS
p6626
sbatp6627
Rp6628
(dp6629
g16
VNP
p6630
sbag5
(g6
g7
(lp6631
g945
atp6632
Rp6633
(dp6634
g16
V''
p6635
sbatp6636
Rp6637
(dp6638
g16
VVP
p6639
sbatp6640
Rp6641
(dp6642
g16
VNX
p6643
sbag5
(g6
g7
(lp6644
g5
(g6
g7
(lp6645
V-LRB-
p6646
atp6647
Rp6648
(dp6649
g16
V-LRB-
p6650
sbag5
(g6
g7
(lp6651
g5
(g6
g7
(lp6652
g6167
atp6653
Rp6654
(dp6655
g16
VNNP
p6656
sbag5
(g6
g7
(lp6657
g5719
atp6658
Rp6659
(dp6660
g16
VNNP
p6661
sbatp6662
Rp6663
(dp6664
g16
VNP
p6665
sbag5
(g6
g7
(lp6666
g376
atp6667
Rp6668
(dp6669
g16
g376
sbag5
(g6
g7
(lp6670
g5
(g6
g7
(lp6671
g939
atp6672
Rp6673
(dp6674
g16
VNN
p6675
sbag5
(g6
g7
(lp6676
g3402
atp6677
Rp6678
(dp6679
g16
VNN
p6680
sbatp6681
Rp6682
(dp6683
g16
VNP
p6684
sbag5
(g6
g7
(lp6685
V-RRB-
p6686
atp6687
Rp6688
(dp6689
g16
V-RRB-
p6690
sbatp6691
Rp6692
(dp6693
g16
VPRN
p6694
sbatp6695
Rp6696
(dp6697
g16
VNX
p6698
sbatp6699
Rp6700
(dp6701
g16
VNP
p6702
sbag5
(g6
g7
(lp6703
g5
(g6
g7
(lp6704
Vis
p6705
atp6706
Rp6707
(dp6708
g16
VVBZ
p6709
sbag5
(g6
g7
(lp6710
g5
(g6
g7
(lp6711
g5
(g6
g7
(lp6712
Vthe
p6713
atp6714
Rp6715
(dp6716
g16
VDT
p6717
sbag5
(g6
g7
(lp6718
Vproduct
p6719
atp6720
Rp6721
(dp6722
g16
VNN
p6723
sbatp6724
Rp6725
(dp6726
g16
VNP
p6727
sbag5
(g6
g7
(lp6728
g5
(g6
g7
(lp6729
Vof
p6730
atp6731
Rp6732
(dp6733
g16
VIN
p6734
sbag5
(g6
g7
(lp6735
g5
(g6
g7
(lp6736
g5
(g6
g7
(lp6737
Vterm
p6738
atp6739
Rp6740
(dp6741
g16
VNN
p6742
sbag5
(g6
g7
(lp6743
Vfrequency
p6744
atp6745
Rp6746
(dp6747
g16
VNN
p6748
sbatp6749
Rp6750
(dp6751
g16
VNP
p6752
sbag5
(g6
g7
(lp6753
g5
(g6
g7
(lp6754
Vof
p6755
atp6756
Rp6757
(dp6758
g16
VIN
p6759
sbag5
(g6
g7
(lp6760
g5
(g6
g7
(lp6761
g5
(g6
g7
(lp6762
g307
atp6763
Rp6764
(dp6765
g16
VDT
p6766
sbag5
(g6
g7
(lp6767
Vword
p6768
atp6769
Rp6770
(dp6771
g16
VNN
p6772
sbag5
(g6
g7
(lp6773
g6167
atp6774
Rp6775
(dp6776
g16
VNN
p6777
sbag5
(g6
g7
(lp6778
g5719
atp6779
Rp6780
(dp6781
g16
VNN
p6782
sbatp6783
Rp6784
(dp6785
g16
VNP
p6786
sbag5
(g6
g7
(lp6787
g5
(g6
g7
(lp6788
Vin
p6789
atp6790
Rp6791
(dp6792
g16
VIN
p6793
sbag5
(g6
g7
(lp6794
g5
(g6
g7
(lp6795
g5
(g6
g7
(lp6796
g939
atp6797
Rp6798
(dp6799
g16
VNN
p6800
sbag5
(g6
g7
(lp6801
g3402
atp6802
Rp6803
(dp6804
g16
VNN
p6805
sbag5
(g6
g7
(lp6806
Vand
p6807
atp6808
Rp6809
(dp6810
g16
VCC
p6811
sbag5
(g6
g7
(lp6812
Vinverse
p6813
atp6814
Rp6815
(dp6816
g16
VJJ
p6817
sbag5
(g6
g7
(lp6818
Vdocument
p6819
atp6820
Rp6821
(dp6822
g16
VNN
p6823
sbag5
(g6
g7
(lp6824
Vfrequency
p6825
atp6826
Rp6827
(dp6828
g16
VNN
p6829
sbatp6830
Rp6831
(dp6832
g16
VNP
p6833
sbag5
(g6
g7
(lp6834
g5
(g6
g7
(lp6835
Vof
p6836
atp6837
Rp6838
(dp6839
g16
VIN
p6840
sbag5
(g6
g7
(lp6841
g5
(g6
g7
(lp6842
g6167
atp6843
Rp6844
(dp6845
g16
VJJ
p6846
sbag5
(g6
g7
(lp6847
g5719
atp6848
Rp6849
(dp6850
g16
VFW
p6851
sbatp6852
Rp6853
(dp6854
g16
VNP
p6855
sbatp6856
Rp6857
(dp6858
g16
VPP
p6859
sbatp6860
Rp6861
(dp6862
g16
VNP
p6863
sbatp6864
Rp6865
(dp6866
g16
VPP
p6867
sbatp6868
Rp6869
(dp6870
g16
VNP
p6871
sbatp6872
Rp6873
(dp6874
g16
VPP
p6875
sbatp6876
Rp6877
(dp6878
g16
VNP
p6879
sbatp6880
Rp6881
(dp6882
g16
VPP
p6883
sbatp6884
Rp6885
(dp6886
g16
VNP
p6887
sbatp6888
Rp6889
(dp6890
g16
VVP
p6891
sbatp6892
Rp6893
(dp6894
g16
g171
sbatp6895
Rp6896
(dp6897
g16
VSBAR
p6898
sbatp6899
Rp6900
(dp6901
g16
VNP
p6902
sbag5
(g6
g7
(lp6903
g376
atp6904
Rp6905
(dp6906
g16
g376
sbag5
(g6
g7
(lp6907
g5
(g6
g7
(lp6908
g5
(g6
g7
(lp6909
g939
atp6910
Rp6911
(dp6912
g16
VNNP
p6913
sbag5
(g6
g7
(lp6914
g945
atp6915
Rp6916
(dp6917
g16
VPOS
p6918
sbatp6919
Rp6920
(dp6921
g16
VNP
p6922
sbag5
(g6
g7
(lp6923
V\u005c
p6924
atp6925
Rp6926
(dp6927
g16
VJJ
p6928
sbag5
(g6
g7
(lp6929
Vu039b
p6930
atp6931
Rp6932
(dp6933
g16
VNNS
p6934
sbatp6935
Rp6936
(dp6937
g16
VNP
p6938
sbag5
(g6
g7
(lp6939
g945
atp6940
Rp6941
(dp6942
g16
V''
p6943
sbatp6944
Rp6945
(dp6946
g16
VNP
p6947
sbag5
(g6
g7
(lp6948
g5
(g6
g7
(lp6949
Vis
p6950
atp6951
Rp6952
(dp6953
g16
VVBZ
p6954
sbag5
(g6
g7
(lp6955
g5
(g6
g7
(lp6956
g5
(g6
g7
(lp6957
g307
atp6958
Rp6959
(dp6960
g16
VDT
p6961
sbag5
(g6
g7
(lp6962
Vdecay
p6963
atp6964
Rp6965
(dp6966
g16
VNN
p6967
sbag5
(g6
g7
(lp6968
Vfactor
p6969
atp6970
Rp6971
(dp6972
g16
VNN
p6973
sbatp6974
Rp6975
(dp6976
g16
VNP
p6977
sbag5
(g6
g7
(lp6978
g5
(g6
g7
(lp6979
Vfor
p6980
atp6981
Rp6982
(dp6983
g16
VIN
p6984
sbag5
(g6
g7
(lp6985
g5
(g6
g7
(lp6986
g5
(g6
g7
(lp6987
Vgiving
p6988
atp6989
Rp6990
(dp6991
g16
VVBG
p6992
sbag5
(g6
g7
(lp6993
g5
(g6
g7
(lp6994
Vmore
p6995
atp6996
Rp6997
(dp6998
g16
VJJR
p6999
sbag5
(g6
g7
(lp7000
Vimportance
p7001
atp7002
Rp7003
(dp7004
g16
VNN
p7005
sbatp7006
Rp7007
(dp7008
g16
VNP
p7009
sbag5
(g6
g7
(lp7010
g5
(g6
g7
(lp7011
Vto
p7012
atp7013
Rp7014
(dp7015
g16
VTO
p7016
sbag5
(g6
g7
(lp7017
g5
(g6
g7
(lp7018
Vmore
p7019
atp7020
Rp7021
(dp7022
g16
VJJR
p7023
sbag5
(g6
g7
(lp7024
Vrecent
p7025
atp7026
Rp7027
(dp7028
g16
VJJ
p7029
sbag5
(g6
g7
(lp7030
Vturns
p7031
atp7032
Rp7033
(dp7034
g16
VNNS
p7035
sbatp7036
Rp7037
(dp7038
g16
VNP
p7039
sbatp7040
Rp7041
(dp7042
g16
VPP
p7043
sbatp7044
Rp7045
(dp7046
g16
VVP
p7047
sbatp7048
Rp7049
(dp7050
g16
g171
sbatp7051
Rp7052
(dp7053
g16
VPP
p7054
sbatp7055
Rp7056
(dp7057
g16
VNP
p7058
sbatp7059
Rp7060
(dp7061
g16
VVP
p7062
sbatp7063
Rp7064
(dp7065
g16
g171
sbatp7066
Rp7067
(dp7068
g16
VSBAR
p7069
sbatp7070
Rp7071
(dp7072
g16
VSQ
p7073
sbatp7074
Rp7075
(dp7076
g16
VSBARQ
p7077
sbatp7078
Rp7079
(dp7080
g16
VROOT
p7081
sbasg176
(icmyPackage
CorE
p7082
(dp7083
g179
(lp7084
(I0
I152
tp7085
a(I0
I158
tp7086
asg183
g7049
sbsg184
(icmyPackage
CorE
p7087
(dp7088
g179
(lp7089
(I0
I0
tp7090
a(I0
I150
tp7091
asg183
g5
(g6
g7
(lp7092
g5680
ag5744
ag6297
ag6451
ag6462
ag6945
ag6952
ag6975
atp7093
Rp7094
(dp7095
g16
g194
sbsbsg195
g2223
sg220
(lp7096
(isxpPackage
sxpSent
p7097
(dp7098
g224
(lp7099
I16
asg226
Vwhere u'\u005cu0391' i = u'\u005cu2211' j = 0 h ( u'\u005cu039b' j u'\u005cu22c5' t u'\u005cu2062' f u'\u005cu2062' i u'\u005cu2062' d u'\u005cu2062' f u'\u005cu2062' ( w i , u ( t - j ) ) ) , u t is the utterance mentioned in a turn t , t u'\u005cu2062' f u'\u005cu2062' i u'\u005cu2062' d u'\u005cu2062' f u'\u005cu2062' ( w i , u t ) is the product of term frequency of a word w i in u t and inverse document frequency of w i , u'\u005cu039b' is a decay factor for giving more importance to more recent turns
p7100
sg228
I4
sg210
I36
sg229
I11
sbasba(icmyPackage
CELink
p7101
(dp7102
g3
(lp7103
g5
(g6
g7
(lp7104
g5
(g6
g7
(lp7105
g5
(g6
g7
(lp7106
g5
(g6
g7
(lp7107
g5
(g6
g7
(lp7108
VW
p7109
atp7110
Rp7111
(dp7112
g16
VNNP
p7113
sbatp7114
Rp7115
(dp7116
g16
VNP
p7117
sbag5
(g6
g7
(lp7118
g5
(g6
g7
(lp7119
Vis
p7120
atp7121
Rp7122
(dp7123
g16
VVBZ
p7124
sbag5
(g6
g7
(lp7125
g5
(g6
g7
(lp7126
g5
(g6
g7
(lp7127
Vthe
p7128
atp7129
Rp7130
(dp7131
g16
VDT
p7132
sbag5
(g6
g7
(lp7133
Vsize
p7134
atp7135
Rp7136
(dp7137
g16
VNN
p7138
sbatp7139
Rp7140
(dp7141
g16
VNP
p7142
sbag5
(g6
g7
(lp7143
g5
(g6
g7
(lp7144
Vof
p7145
atp7146
Rp7147
(dp7148
g16
VIN
p7149
sbag5
(g6
g7
(lp7150
g5
(g6
g7
(lp7151
Vword
p7152
atp7153
Rp7154
(dp7155
g16
VNN
p7156
sbag5
(g6
g7
(lp7157
Vdictionary
p7158
atp7159
Rp7160
(dp7161
g16
VNN
p7162
sbatp7163
Rp7164
(dp7165
g16
VNP
p7166
sbatp7167
Rp7168
(dp7169
g16
VPP
p7170
sbatp7171
Rp7172
(dp7173
g16
VNP
p7174
sbatp7175
Rp7176
(dp7177
g16
VVP
p7178
sbatp7179
Rp7180
(dp7181
g16
g171
sbag5
(g6
g7
(lp7182
g376
atp7183
Rp7184
(dp7185
g16
g376
sbag5
(g6
g7
(lp7186
Vand
p7187
atp7188
Rp7189
(dp7190
g16
VCC
p7191
sbag5
(g6
g7
(lp7192
g5
(g6
g7
(lp7193
g5
(g6
g7
(lp7194
g5798
atp7195
Rp7196
(dp7197
g16
VNN
p7198
sbatp7199
Rp7200
(dp7201
g16
VNP
p7202
sbag5
(g6
g7
(lp7203
g5
(g6
g7
(lp7204
Vis
p7205
atp7206
Rp7207
(dp7208
g16
VVBZ
p7209
sbag5
(g6
g7
(lp7210
g5
(g6
g7
(lp7211
g5
(g6
g7
(lp7212
Vthe
p7213
atp7214
Rp7215
(dp7216
g16
VDT
p7217
sbag5
(g6
g7
(lp7218
Vnumber
p7219
atp7220
Rp7221
(dp7222
g16
VNN
p7223
sbatp7224
Rp7225
(dp7226
g16
VNP
p7227
sbag5
(g6
g7
(lp7228
g5
(g6
g7
(lp7229
Vof
p7230
atp7231
Rp7232
(dp7233
g16
VIN
p7234
sbag5
(g6
g7
(lp7235
g5
(g6
g7
(lp7236
g5
(g6
g7
(lp7237
Vprevious
p7238
atp7239
Rp7240
(dp7241
g16
VJJ
p7242
sbag5
(g6
g7
(lp7243
Vturns
p7244
atp7245
Rp7246
(dp7247
g16
VNNS
p7248
sbatp7249
Rp7250
(dp7251
g16
VNP
p7252
sbag5
(g6
g7
(lp7253
g5
(g6
g7
(lp7254
Vconsidered
p7255
atp7256
Rp7257
(dp7258
g16
VVBN
p7259
sbag5
(g6
g7
(lp7260
g5
(g6
g7
(lp7261
Vas
p7262
atp7263
Rp7264
(dp7265
g16
VIN
p7266
sbag5
(g6
g7
(lp7267
g5
(g6
g7
(lp7268
g5
(g6
g7
(lp7269
Vdialog
p7270
atp7271
Rp7272
(dp7273
g16
VVBG
p7274
sbag5
(g6
g7
(lp7275
g5
(g6
g7
(lp7276
Vhistory
p7277
atp7278
Rp7279
(dp7280
g16
VNN
p7281
sbag5
(g6
g7
(lp7282
Vfeatures
p7283
atp7284
Rp7285
(dp7286
g16
VNNS
p7287
sbatp7288
Rp7289
(dp7290
g16
VNP
p7291
sbatp7292
Rp7293
(dp7294
g16
VVP
p7295
sbatp7296
Rp7297
(dp7298
g16
g171
sbatp7299
Rp7300
(dp7301
g16
VPP
p7302
sbatp7303
Rp7304
(dp7305
g16
VVP
p7306
sbatp7307
Rp7308
(dp7309
g16
VNP
p7310
sbatp7311
Rp7312
(dp7313
g16
VPP
p7314
sbatp7315
Rp7316
(dp7317
g16
VNP
p7318
sbatp7319
Rp7320
(dp7321
g16
VVP
p7322
sbatp7323
Rp7324
(dp7325
g16
g171
sbatp7326
Rp7327
(dp7328
g16
g171
sbatp7329
Rp7330
(dp7331
g16
VROOT
p7332
sbag5
(g6
g7
(lp7333
g5
(g6
g7
(lp7334
g5
(g6
g7
(lp7335
g5
(g6
g7
(lp7336
VAfter
p7337
atp7338
Rp7339
(dp7340
g16
VIN
p7341
sbag5
(g6
g7
(lp7342
g5
(g6
g7
(lp7343
g5
(g6
g7
(lp7344
Vcomputing
p7345
atp7346
Rp7347
(dp7348
g16
VVBG
p7349
sbag5
(g6
g7
(lp7350
g5
(g6
g7
(lp7351
g5
(g6
g7
(lp7352
g5
(g6
g7
(lp7353
Vthis
p7354
atp7355
Rp7356
(dp7357
g16
VDT
p7358
sbag5
(g6
g7
(lp7359
Vrelatedness
p7360
atp7361
Rp7362
(dp7363
g16
VNNS
p7364
sbatp7365
Rp7366
(dp7367
g16
VNP
p7368
sbag5
(g6
g7
(lp7369
g5
(g6
g7
(lp7370
Vbetween
p7371
atp7372
Rp7373
(dp7374
g16
VIN
p7375
sbag5
(g6
g7
(lp7376
g5
(g6
g7
(lp7377
Vthe
p7378
atp7379
Rp7380
(dp7381
g16
VDT
p7382
sbag5
(g6
g7
(lp7383
Vcurrent
p7384
atp7385
Rp7386
(dp7387
g16
VJJ
p7388
sbag5
(g6
g7
(lp7389
Vdialog
p7390
atp7391
Rp7392
(dp7393
g16
VNN
p7394
sbag5
(g6
g7
(lp7395
Vcontext
p7396
atp7397
Rp7398
(dp7399
g16
VNN
p7400
sbatp7401
Rp7402
(dp7403
g16
VNP
p7404
sbatp7405
Rp7406
(dp7407
g16
VPP
p7408
sbatp7409
Rp7410
(dp7411
g16
VNP
p7412
sbag5
(g6
g7
(lp7413
Vand
p7414
atp7415
Rp7416
(dp7417
g16
VCC
p7418
sbag5
(g6
g7
(lp7419
g5
(g6
g7
(lp7420
g5
(g6
g7
(lp7421
Vevery
p7422
atp7423
Rp7424
(dp7425
g16
VDT
p7426
sbag5
(g6
g7
(lp7427
Vparagraph
p7428
atp7429
Rp7430
(dp7431
g16
VNN
p7432
sbatp7433
Rp7434
(dp7435
g16
VNP
p7436
sbag5
(g6
g7
(lp7437
g5
(g6
g7
(lp7438
Vin
p7439
atp7440
Rp7441
(dp7442
g16
VIN
p7443
sbag5
(g6
g7
(lp7444
g5
(g6
g7
(lp7445
Vthe
p7446
atp7447
Rp7448
(dp7449
g16
VDT
p7450
sbag5
(g6
g7
(lp7451
VWikipedia
p7452
atp7453
Rp7454
(dp7455
g16
VNNP
p7456
sbag5
(g6
g7
(lp7457
Vcollection
p7458
atp7459
Rp7460
(dp7461
g16
VNN
p7462
sbatp7463
Rp7464
(dp7465
g16
VNP
p7466
sbatp7467
Rp7468
(dp7469
g16
VPP
p7470
sbatp7471
Rp7472
(dp7473
g16
VNP
p7474
sbatp7475
Rp7476
(dp7477
g16
VNP
p7478
sbatp7479
Rp7480
(dp7481
g16
VVP
p7482
sbatp7483
Rp7484
(dp7485
g16
g171
sbatp7486
Rp7487
(dp7488
g16
VPP
p7489
sbag5
(g6
g7
(lp7490
g376
atp7491
Rp7492
(dp7493
g16
g376
sbag5
(g6
g7
(lp7494
g5
(g6
g7
(lp7495
Vtwo
p7496
atp7497
Rp7498
(dp7499
g16
VCD
p7500
sbag5
(g6
g7
(lp7501
Vkernel
p7502
atp7503
Rp7504
(dp7505
g16
VNN
p7506
sbag5
(g6
g7
(lp7507
Vstructures
p7508
atp7509
Rp7510
(dp7511
g16
VNNS
p7512
sbatp7513
Rp7514
(dp7515
g16
VNP
p7516
sbag5
(g6
g7
(lp7517
g5
(g6
g7
(lp7518
Vare
p7519
atp7520
Rp7521
(dp7522
g16
VVBP
p7523
sbag5
(g6
g7
(lp7524
g5
(g6
g7
(lp7525
Vconstructed
p7526
atp7527
Rp7528
(dp7529
g16
VVBN
p7530
sbag5
(g6
g7
(lp7531
g5
(g6
g7
(lp7532
g5
(g6
g7
(lp7533
Vusing
p7534
atp7535
Rp7536
(dp7537
g16
VVBG
p7538
sbag5
(g6
g7
(lp7539
g5
(g6
g7
(lp7540
g5
(g6
g7
(lp7541
Vthe
p7542
atp7543
Rp7544
(dp7545
g16
VDT
p7546
sbag5
(g6
g7
(lp7547
Vinformation
p7548
atp7549
Rp7550
(dp7551
g16
VNN
p7552
sbatp7553
Rp7554
(dp7555
g16
VNP
p7556
sbag5
(g6
g7
(lp7557
g5
(g6
g7
(lp7558
Vobtained
p7559
atp7560
Rp7561
(dp7562
g16
VVBN
p7563
sbag5
(g6
g7
(lp7564
g5
(g6
g7
(lp7565
Vfrom
p7566
atp7567
Rp7568
(dp7569
g16
VIN
p7570
sbag5
(g6
g7
(lp7571
g5
(g6
g7
(lp7572
g5
(g6
g7
(lp7573
Vthe
p7574
atp7575
Rp7576
(dp7577
g16
VDT
p7578
sbag5
(g6
g7
(lp7579
Vhighly-ranked
p7580
atp7581
Rp7582
(dp7583
g16
VJJ
p7584
sbag5
(g6
g7
(lp7585
Vparagraphs
p7586
atp7587
Rp7588
(dp7589
g16
VNNS
p7590
sbatp7591
Rp7592
(dp7593
g16
VNP
p7594
sbag5
(g6
g7
(lp7595
g5
(g6
g7
(lp7596
Vin
p7597
atp7598
Rp7599
(dp7600
g16
VIN
p7601
sbag5
(g6
g7
(lp7602
g5
(g6
g7
(lp7603
Vthe
p7604
atp7605
Rp7606
(dp7607
g16
VDT
p7608
sbag5
(g6
g7
(lp7609
VWikipedia
p7610
atp7611
Rp7612
(dp7613
g16
VNNP
p7614
sbatp7615
Rp7616
(dp7617
g16
VNP
p7618
sbatp7619
Rp7620
(dp7621
g16
VPP
p7622
sbatp7623
Rp7624
(dp7625
g16
VNP
p7626
sbatp7627
Rp7628
(dp7629
g16
VPP
p7630
sbatp7631
Rp7632
(dp7633
g16
VVP
p7634
sbatp7635
Rp7636
(dp7637
g16
VNP
p7638
sbatp7639
Rp7640
(dp7641
g16
VVP
p7642
sbatp7643
Rp7644
(dp7645
g16
g171
sbatp7646
Rp7647
(dp7648
g16
VVP
p7649
sbatp7650
Rp7651
(dp7652
g16
VVP
p7653
sbatp7654
Rp7655
(dp7656
g16
g171
sbatp7657
Rp7658
(dp7659
g16
VROOT
p7660
sbasg176
(icmyPackage
CorE
p7661
(dp7662
g179
(lp7663
(I0
I18
tp7664
a(I1
I32
tp7665
asg183
g5
(g6
g7
(lp7666
g7297
ag7658
atp7667
Rp7668
(dp7669
g16
g194
sbsbsg184
(icmyPackage
CorE
p7670
(dp7671
g179
(lp7672
(I0
I2
tp7673
a(I0
I16
tp7674
asg183
g5
(g6
g7
(lp7675
g7172
ag7184
ag7189
ag7200
ag7207
ag7225
ag7232
ag7250
ag7257
atp7676
Rp7677
(dp7678
g16
g194
sbsbsg195
g784
sg220
(lp7679
(isxpPackage
sxpSent
p7680
(dp7681
g226
VW is the size of word dictionary, and h is the number of previous turns considered as dialog history features
p7682
sg228
I4
sg210
I37
sg229
I11
sba(isxpPackage
sxpSent
p7683
(dp7684
g226
VAfter computing this relatedness between the current dialog context and every paragraph in the Wikipedia collection, two kernel structures are constructed using the information obtained from the highly-ranked paragraphs in the Wikipedia
p7685
sg228
I4
sg210
I38
sg229
I12
sbasba(icmyPackage
CELink
p7686
(dp7687
g3
(lp7688
g5
(g6
g7
(lp7689
g5
(g6
g7
(lp7690
g5
(g6
g7
(lp7691
g5
(g6
g7
(lp7692
VSince
p7693
atp7694
Rp7695
(dp7696
g16
VIN
p7697
sbag5
(g6
g7
(lp7698
g5
(g6
g7
(lp7699
g5
(g6
g7
(lp7700
Vour
p7701
atp7702
Rp7703
(dp7704
g16
VPRP$
p7705
sbag5
(g6
g7
(lp7706
Vhypothesis
p7707
atp7708
Rp7709
(dp7710
g16
VNNS
p7711
sbatp7712
Rp7713
(dp7714
g16
VNP
p7715
sbag5
(g6
g7
(lp7716
g5
(g6
g7
(lp7717
Vis
p7718
atp7719
Rp7720
(dp7721
g16
VVBZ
p7722
sbag5
(g6
g7
(lp7723
g5
(g6
g7
(lp7724
Vthat
p7725
atp7726
Rp7727
(dp7728
g16
VIN
p7729
sbag5
(g6
g7
(lp7730
g5
(g6
g7
(lp7731
g5
(g6
g7
(lp7732
g5
(g6
g7
(lp7733
Vthe
p7734
atp7735
Rp7736
(dp7737
g16
VDT
p7738
sbag5
(g6
g7
(lp7739
g5
(g6
g7
(lp7740
Vmore
p7741
atp7742
Rp7743
(dp7744
g16
VRBR
p7745
sbag5
(g6
g7
(lp7746
Vsimilar
p7747
atp7748
Rp7749
(dp7750
g16
VJJ
p7751
sbatp7752
Rp7753
(dp7754
g16
VADJP
p7755
sbatp7756
Rp7757
(dp7758
g16
g5971
sbag5
(g6
g7
(lp7759
g5
(g6
g7
(lp7760
g5
(g6
g7
(lp7761
g5
(g6
g7
(lp7762
Vthe
p7763
atp7764
Rp7765
(dp7766
g16
VDT
p7767
sbag5
(g6
g7
(lp7768
Vdialog
p7769
atp7770
Rp7771
(dp7772
g16
VVBG
p7773
sbag5
(g6
g7
(lp7774
Vhistories
p7775
atp7776
Rp7777
(dp7778
g16
VNNS
p7779
sbatp7780
Rp7781
(dp7782
g16
VNP
p7783
sbag5
(g6
g7
(lp7784
g5
(g6
g7
(lp7785
Vof
p7786
atp7787
Rp7788
(dp7789
g16
VIN
p7790
sbag5
(g6
g7
(lp7791
g5
(g6
g7
(lp7792
Vthe
p7793
atp7794
Rp7795
(dp7796
g16
VDT
p7797
sbag5
(g6
g7
(lp7798
Vtwo
p7799
atp7800
Rp7801
(dp7802
g16
VCD
p7803
sbag5
(g6
g7
(lp7804
Vinputs
p7805
atp7806
Rp7807
(dp7808
g16
VNNS
p7809
sbatp7810
Rp7811
(dp7812
g16
VNP
p7813
sbatp7814
Rp7815
(dp7816
g16
VPP
p7817
sbatp7818
Rp7819
(dp7820
g16
VNP
p7821
sbag5
(g6
g7
(lp7822
g5
(g6
g7
(lp7823
Vare
p7824
atp7825
Rp7826
(dp7827
g16
VVBP
p7828
sbatp7829
Rp7830
(dp7831
g16
VVP
p7832
sbatp7833
Rp7834
(dp7835
g16
g171
sbatp7836
Rp7837
(dp7838
g16
VSBAR
p7839
sbag5
(g6
g7
(lp7840
g376
atp7841
Rp7842
(dp7843
g16
g376
sbag5
(g6
g7
(lp7844
g5
(g6
g7
(lp7845
g5
(g6
g7
(lp7846
Vthe
p7847
atp7848
Rp7849
(dp7850
g16
VDT
p7851
sbag5
(g6
g7
(lp7852
g5
(g6
g7
(lp7853
Vmore
p7854
atp7855
Rp7856
(dp7857
g16
VRBR
p7858
sbag5
(g6
g7
(lp7859
Vsimilar
p7860
atp7861
Rp7862
(dp7863
g16
VJJ
p7864
sbatp7865
Rp7866
(dp7867
g16
VADJP
p7868
sbag5
(g6
g7
(lp7869
Vaspects
p7870
atp7871
Rp7872
(dp7873
g16
VNNS
p7874
sbatp7875
Rp7876
(dp7877
g16
VNP
p7878
sbag5
(g6
g7
(lp7879
g5
(g6
g7
(lp7880
Vof
p7881
atp7882
Rp7883
(dp7884
g16
VIN
p7885
sbag5
(g6
g7
(lp7886
g5
(g6
g7
(lp7887
Vtopic
p7888
atp7889
Rp7890
(dp7891
g16
VNN
p7892
sbag5
(g6
g7
(lp7893
Vtranstions
p7894
atp7895
Rp7896
(dp7897
g16
VNNS
p7898
sbatp7899
Rp7900
(dp7901
g16
VNP
p7902
sbatp7903
Rp7904
(dp7905
g16
VPP
p7906
sbatp7907
Rp7908
(dp7909
g16
VNP
p7910
sbag5
(g6
g7
(lp7911
g5
(g6
g7
(lp7912
Voccur
p7913
atp7914
Rp7915
(dp7916
g16
VVBP
p7917
sbag5
(g6
g7
(lp7918
g5
(g6
g7
(lp7919
Vfor
p7920
atp7921
Rp7922
(dp7923
g16
VIN
p7924
sbag5
(g6
g7
(lp7925
g5
(g6
g7
(lp7926
Vthem
p7927
atp7928
Rp7929
(dp7930
g16
VPRP
p7931
sbatp7932
Rp7933
(dp7934
g16
VNP
p7935
sbatp7936
Rp7937
(dp7938
g16
VPP
p7939
sbatp7940
Rp7941
(dp7942
g16
VVP
p7943
sbatp7944
Rp7945
(dp7946
g16
g171
sbatp7947
Rp7948
(dp7949
g16
VSBAR
p7950
sbatp7951
Rp7952
(dp7953
g16
VVP
p7954
sbatp7955
Rp7956
(dp7957
g16
g171
sbatp7958
Rp7959
(dp7960
g16
VSBAR
p7961
sbag5
(g6
g7
(lp7962
g376
atp7963
Rp7964
(dp7965
g16
g376
sbag5
(g6
g7
(lp7966
g5
(g6
g7
(lp7967
Vwe
p7968
atp7969
Rp7970
(dp7971
g16
VPRP
p7972
sbatp7973
Rp7974
(dp7975
g16
VNP
p7976
sbag5
(g6
g7
(lp7977
g5
(g6
g7
(lp7978
Vpropose
p7979
atp7980
Rp7981
(dp7982
g16
VVBP
p7983
sbag5
(g6
g7
(lp7984
g5
(g6
g7
(lp7985
g5
(g6
g7
(lp7986
g5
(g6
g7
(lp7987
g307
atp7988
Rp7989
(dp7990
g16
VDT
p7991
sbag5
(g6
g7
(lp7992
Vsub-sequence
p7993
atp7994
Rp7995
(dp7996
g16
VJJ
p7997
sbag5
(g6
g7
(lp7998
Vkernel
p7999
atp8000
Rp8001
(dp8002
g16
VNN
p8003
sbatp8004
Rp8005
(dp8006
g16
VNP
p8007
sbag5
(g6
g7
(lp8008
g5
(g6
g7
(lp8009
V-LSB-
p8010
atp8011
Rp8012
(dp8013
g16
VVBD
p8014
sbag5
(g6
g7
(lp8015
g5
(g6
g7
(lp8016
V11
p8017
atp8018
Rp8019
(dp8020
g16
VCD
p8021
sbag5
(g6
g7
(lp8022
V-RSB-
p8023
atp8024
Rp8025
(dp8026
g16
VNNS
p8027
sbatp8028
Rp8029
(dp8030
g16
VNP
p8031
sbag5
(g6
g7
(lp8032
g5
(g6
g7
(lp8033
g5
(g6
g7
(lp8034
Vto
p8035
atp8036
Rp8037
(dp8038
g16
VTO
p8039
sbag5
(g6
g7
(lp8040
g5
(g6
g7
(lp8041
Vmap
p8042
atp8043
Rp8044
(dp8045
g16
VVB
p8046
sbag5
(g6
g7
(lp8047
g5
(g6
g7
(lp8048
Vthe
p8049
atp8050
Rp8051
(dp8052
g16
VDT
p8053
sbag5
(g6
g7
(lp8054
Vdata
p8055
atp8056
Rp8057
(dp8058
g16
VNNS
p8059
sbatp8060
Rp8061
(dp8062
g16
VNP
p8063
sbag5
(g6
g7
(lp8064
g5
(g6
g7
(lp8065
Vinto
p8066
atp8067
Rp8068
(dp8069
g16
VIN
p8070
sbag5
(g6
g7
(lp8071
g5
(g6
g7
(lp8072
g5
(g6
g7
(lp8073
g307
atp8074
Rp8075
(dp8076
g16
VDT
p8077
sbag5
(g6
g7
(lp8078
Vnew
p8079
atp8080
Rp8081
(dp8082
g16
VJJ
p8083
sbag5
(g6
g7
(lp8084
Vfeature
p8085
atp8086
Rp8087
(dp8088
g16
VNN
p8089
sbag5
(g6
g7
(lp8090
Vspace
p8091
atp8092
Rp8093
(dp8094
g16
VNN
p8095
sbatp8096
Rp8097
(dp8098
g16
VNP
p8099
sbag5
(g6
g7
(lp8100
g5
(g6
g7
(lp8101
Vdefined
p8102
atp8103
Rp8104
(dp8105
g16
VVBN
p8106
sbag5
(g6
g7
(lp8107
g5
(g6
g7
(lp8108
Vbased
p8109
atp8110
Rp8111
(dp8112
g16
VVBN
p8113
sbag5
(g6
g7
(lp8114
g5
(g6
g7
(lp8115
Von
p8116
atp8117
Rp8118
(dp8119
g16
VIN
p8120
sbag5
(g6
g7
(lp8121
g5
(g6
g7
(lp8122
g5
(g6
g7
(lp8123
Vthe
p8124
atp8125
Rp8126
(dp8127
g16
VDT
p8128
sbag5
(g6
g7
(lp8129
Vsimilarity
p8130
atp8131
Rp8132
(dp8133
g16
VNN
p8134
sbatp8135
Rp8136
(dp8137
g16
VNP
p8138
sbag5
(g6
g7
(lp8139
g5
(g6
g7
(lp8140
Vof
p8141
atp8142
Rp8143
(dp8144
g16
VIN
p8145
sbag5
(g6
g7
(lp8146
g5
(g6
g7
(lp8147
g5
(g6
g7
(lp8148
Veach
p8149
atp8150
Rp8151
(dp8152
g16
VDT
p8153
sbag5
(g6
g7
(lp8154
Vpair
p8155
atp8156
Rp8157
(dp8158
g16
VNN
p8159
sbatp8160
Rp8161
(dp8162
g16
VNP
p8163
sbag5
(g6
g7
(lp8164
g5
(g6
g7
(lp8165
Vof
p8166
atp8167
Rp8168
(dp8169
g16
VIN
p8170
sbag5
(g6
g7
(lp8171
g5
(g6
g7
(lp8172
Vhistory
p8173
atp8174
Rp8175
(dp8176
g16
VNN
p8177
sbag5
(g6
g7
(lp8178
Vsequences
p8179
atp8180
Rp8181
(dp8182
g16
VNNS
p8183
sbatp8184
Rp8185
(dp8186
g16
VNP
p8187
sbatp8188
Rp8189
(dp8190
g16
VPP
p8191
sbatp8192
Rp8193
(dp8194
g16
VNP
p8195
sbatp8196
Rp8197
(dp8198
g16
VPP
p8199
sbatp8200
Rp8201
(dp8202
g16
VNP
p8203
sbatp8204
Rp8205
(dp8206
g16
VPP
p8207
sbatp8208
Rp8209
(dp8210
g16
VPP
p8211
sbatp8212
Rp8213
(dp8214
g16
VVP
p8215
sbatp8216
Rp8217
(dp8218
g16
VNP
p8219
sbatp8220
Rp8221
(dp8222
g16
VPP
p8223
sbag5
(g6
g7
(lp8224
g5
(g6
g7
(lp8225
Vas
p8226
atp8227
Rp8228
(dp8229
g16
VIN
p8230
sbag5
(g6
g7
(lp8231
g5
(g6
g7
(lp8232
g5
(g6
g7
(lp8233
Vfollows
p8234
atp8235
Rp8236
(dp8237
g16
VVBZ
p8238
sbatp8239
Rp8240
(dp8241
g16
VVP
p8242
sbatp8243
Rp8244
(dp8245
g16
g171
sbatp8246
Rp8247
(dp8248
g16
VSBAR
p8249
sbatp8250
Rp8251
(dp8252
g16
VVP
p8253
sbatp8254
Rp8255
(dp8256
g16
VVP
p8257
sbatp8258
Rp8259
(dp8260
g16
g171
sbatp8261
Rp8262
(dp8263
g16
VVP
p8264
sbatp8265
Rp8266
(dp8267
g16
g171
sbatp8268
Rp8269
(dp8270
g16
VSBAR
p8271
sbatp8272
Rp8273
(dp8274
g16
VVP
p8275
sbatp8276
Rp8277
(dp8278
g16
g171
sbatp8279
Rp8280
(dp8281
g16
VROOT
p8282
sbasg176
(icmyPackage
CorE
p8283
(dp8284
g179
(lp8285
(I0
I1
tp8286
a(I0
I15
tp8287
asg183
g5
(g6
g7
(lp8288
g7713
ag7720
ag7727
ag7837
atp8289
Rp8290
(dp8291
g16
g194
sbsbsg184
(icmyPackage
CorE
p8292
(dp8293
g179
(lp8294
(I0
I17
tp8295
a(I0
I43
tp8296
asg183
g5
(g6
g7
(lp8297
g7908
ag7941
ag7964
ag7974
ag7981
ag8005
ag8012
ag8029
ag8037
ag8044
ag8061
ag8068
ag8075
ag8081
ag8087
atp8298
Rp8299
(dp8300
g16
g194
sbsbsg195
(icmyPackage
pattern
p8301
(dp8302
g198
I15
sg199
I0
sg200
(lp8303
(lp8304
S'since'
p8305
aa(lp8306
g4048
aasg205
(lp8307
I3
aI1
aI1
asg207
(lp8308
S'But, since the herpes virus does not always show its symptoms, prevention is not fool proof.'
p8309
asg210
I78
sg211
(lp8310
(lp8311
a(lp8312
S'&C@NCTime@'
p8313
aa(lp8314
S'&R@NCTime@'
p8315
aasbsg220
(lp8316
(isxpPackage
sxpSent
p8317
(dp8318
g224
(lp8319
I17
asg226
VSince our hypothesis is that the more similar the dialog histories of the two inputs are, the more similar aspects of topic transtions occur for them, we propose a sub-sequence kernel [ 11 ] to map the data into a new feature space defined based on the similarity of each pair of history sequences as follows
p8320
sg228
I5
sg210
I42
sg229
I15
sbasba(icmyPackage
CELink
p8321
(dp8322
g3
(lp8323
g5
(g6
g7
(lp8324
g5
(g6
g7
(lp8325
g5
(g6
g7
(lp8326
g5
(g6
g7
(lp8327
VSince
p8328
atp8329
Rp8330
(dp8331
g16
VIN
p8332
sbag5
(g6
g7
(lp8333
g5
(g6
g7
(lp8334
g5
(g6
g7
(lp8335
Vthis
p8336
atp8337
Rp8338
(dp8339
g16
VDT
p8340
sbag5
(g6
g7
(lp8341
Vconstructed
p8342
atp8343
Rp8344
(dp8345
g16
VJJ
p8346
sbag5
(g6
g7
(lp8347
Vtree
p8348
atp8349
Rp8350
(dp8351
g16
VNN
p8352
sbag5
(g6
g7
(lp8353
Vstructure
p8354
atp8355
Rp8356
(dp8357
g16
VNN
p8358
sbatp8359
Rp8360
(dp8361
g16
VNP
p8362
sbag5
(g6
g7
(lp8363
g5
(g6
g7
(lp8364
Vrepresents
p8365
atp8366
Rp8367
(dp8368
g16
VVBZ
p8369
sbag5
(g6
g7
(lp8370
g5
(g6
g7
(lp8371
g5
(g6
g7
(lp8372
Vsemantic
p8373
atp8374
Rp8375
(dp8376
g16
VNN
p8377
sbatp8378
Rp8379
(dp8380
g16
VNP
p8381
sbag5
(g6
g7
(lp8382
g376
atp8383
Rp8384
(dp8385
g16
g376
sbag5
(g6
g7
(lp8386
g5
(g6
g7
(lp8387
Vdiscourse
p8388
atp8389
Rp8390
(dp8391
g16
VNN
p8392
sbatp8393
Rp8394
(dp8395
g16
VNP
p8396
sbag5
(g6
g7
(lp8397
g376
atp8398
Rp8399
(dp8400
g16
g376
sbag5
(g6
g7
(lp8401
Vand
p8402
atp8403
Rp8404
(dp8405
g16
VCC
p8406
sbag5
(g6
g7
(lp8407
g5
(g6
g7
(lp8408
g5
(g6
g7
(lp8409
Vstructural
p8410
atp8411
Rp8412
(dp8413
g16
VJJ
p8414
sbag5
(g6
g7
(lp8415
Vinformation
p8416
atp8417
Rp8418
(dp8419
g16
VNN
p8420
sbatp8421
Rp8422
(dp8423
g16
VNP
p8424
sbag5
(g6
g7
(lp8425
g5
(g6
g7
(lp8426
Vextracted
p8427
atp8428
Rp8429
(dp8430
g16
VVBN
p8431
sbag5
(g6
g7
(lp8432
g5
(g6
g7
(lp8433
Vfrom
p8434
atp8435
Rp8436
(dp8437
g16
VIN
p8438
sbag5
(g6
g7
(lp8439
g5
(g6
g7
(lp8440
Vthe
p8441
atp8442
Rp8443
(dp8444
g16
VDT
p8445
sbag5
(g6
g7
(lp8446
Vsimilar
p8447
atp8448
Rp8449
(dp8450
g16
VJJ
p8451
sbag5
(g6
g7
(lp8452
VWikipedia
p8453
atp8454
Rp8455
(dp8456
g16
VNNP
p8457
sbag5
(g6
g7
(lp8458
Vparagraphs
p8459
atp8460
Rp8461
(dp8462
g16
VNNS
p8463
sbatp8464
Rp8465
(dp8466
g16
VNP
p8467
sbatp8468
Rp8469
(dp8470
g16
VPP
p8471
sbag5
(g6
g7
(lp8472
g5
(g6
g7
(lp8473
Vto
p8474
atp8475
Rp8476
(dp8477
g16
VTO
p8478
sbag5
(g6
g7
(lp8479
g5
(g6
g7
(lp8480
Veach
p8481
atp8482
Rp8483
(dp8484
g16
VDT
p8485
sbag5
(g6
g7
(lp8486
Vgiven
p8487
atp8488
Rp8489
(dp8490
g16
VVBN
p8491
sbag5
(g6
g7
(lp8492
Vinstance
p8493
atp8494
Rp8495
(dp8496
g16
VNN
p8497
sbatp8498
Rp8499
(dp8500
g16
VNP
p8501
sbatp8502
Rp8503
(dp8504
g16
VPP
p8505
sbatp8506
Rp8507
(dp8508
g16
VVP
p8509
sbatp8510
Rp8511
(dp8512
g16
VNP
p8513
sbatp8514
Rp8515
(dp8516
g16
VNP
p8517
sbatp8518
Rp8519
(dp8520
g16
VVP
p8521
sbatp8522
Rp8523
(dp8524
g16
g171
sbatp8525
Rp8526
(dp8527
g16
VSBAR
p8528
sbag5
(g6
g7
(lp8529
g376
atp8530
Rp8531
(dp8532
g16
g376
sbag5
(g6
g7
(lp8533
g5
(g6
g7
(lp8534
Vwe
p8535
atp8536
Rp8537
(dp8538
g16
VPRP
p8539
sbatp8540
Rp8541
(dp8542
g16
VNP
p8543
sbag5
(g6
g7
(lp8544
g5
(g6
g7
(lp8545
Vcan
p8546
atp8547
Rp8548
(dp8549
g16
VMD
p8550
sbag5
(g6
g7
(lp8551
g5
(g6
g7
(lp8552
Vexplore
p8553
atp8554
Rp8555
(dp8556
g16
VVB
p8557
sbag5
(g6
g7
(lp8558
g5
(g6
g7
(lp8559
Vthese
p8560
atp8561
Rp8562
(dp8563
g16
VDT
p8564
sbag5
(g6
g7
(lp8565
g5
(g6
g7
(lp8566
Vmore
p8567
atp8568
Rp8569
(dp8570
g16
VRBR
p8571
sbag5
(g6
g7
(lp8572
Venriched
p8573
atp8574
Rp8575
(dp8576
g16
VJJ
p8577
sbatp8578
Rp8579
(dp8580
g16
VADJP
p8581
sbag5
(g6
g7
(lp8582
Vfeatures
p8583
atp8584
Rp8585
(dp8586
g16
VNNS
p8587
sbatp8588
Rp8589
(dp8590
g16
VNP
p8591
sbag5
(g6
g7
(lp8592
g5
(g6
g7
(lp8593
g5
(g6
g7
(lp8594
Vto
p8595
atp8596
Rp8597
(dp8598
g16
VTO
p8599
sbag5
(g6
g7
(lp8600
g5
(g6
g7
(lp8601
Vbuild
p8602
atp8603
Rp8604
(dp8605
g16
VVB
p8606
sbag5
(g6
g7
(lp8607
g5
(g6
g7
(lp8608
Vthe
p8609
atp8610
Rp8611
(dp8612
g16
VDT
p8613
sbag5
(g6
g7
(lp8614
Vtopic
p8615
atp8616
Rp8617
(dp8618
g16
VNN
p8619
sbag5
(g6
g7
(lp8620
Vtracking
p8621
atp8622
Rp8623
(dp8624
g16
VNN
p8625
sbag5
(g6
g7
(lp8626
Vmodel
p8627
atp8628
Rp8629
(dp8630
g16
VNN
p8631
sbatp8632
Rp8633
(dp8634
g16
VNP
p8635
sbag5
(g6
g7
(lp8636
g5
(g6
g7
(lp8637
g5
(g6
g7
(lp8638
Vusing
p8639
atp8640
Rp8641
(dp8642
g16
VVBG
p8643
sbag5
(g6
g7
(lp8644
g5
(g6
g7
(lp8645
g307
atp8646
Rp8647
(dp8648
g16
VDT
p8649
sbag5
(g6
g7
(lp8650
Vsubset
p8651
atp8652
Rp8653
(dp8654
g16
VNN
p8655
sbag5
(g6
g7
(lp8656
Vtree
p8657
atp8658
Rp8659
(dp8660
g16
VNN
p8661
sbag5
(g6
g7
(lp8662
Vkernel
p8663
atp8664
Rp8665
(dp8666
g16
VNN
p8667
sbatp8668
Rp8669
(dp8670
g16
VNP
p8671
sbag5
(g6
g7
(lp8672
g5
(g6
g7
(lp8673
g5
(g6
g7
(lp8674
V-LSB-
p8675
atp8676
Rp8677
(dp8678
g16
VVBG
p8679
sbag5
(g6
g7
(lp8680
g5
(g6
g7
(lp8681
g5
(g6
g7
(lp8682
V5
p8683
atp8684
Rp8685
(dp8686
g16
VCD
p8687
sbag5
(g6
g7
(lp8688
V-RSB-
p8689
atp8690
Rp8691
(dp8692
g16
VNNS
p8693
sbatp8694
Rp8695
(dp8696
g16
VNP
p8697
sbag5
(g6
g7
(lp8698
g5
(g6
g7
(lp8699
g5
(g6
g7
(lp8700
Vwhich
p8701
atp8702
Rp8703
(dp8704
g16
VWDT
p8705
sbatp8706
Rp8707
(dp8708
g16
VWHNP
p8709
sbag5
(g6
g7
(lp8710
g5
(g6
g7
(lp8711
g5
(g6
g7
(lp8712
Vcomputes
p8713
atp8714
Rp8715
(dp8716
g16
VVBZ
p8717
sbag5
(g6
g7
(lp8718
g5
(g6
g7
(lp8719
g5
(g6
g7
(lp8720
Vthe
p8721
atp8722
Rp8723
(dp8724
g16
VDT
p8725
sbag5
(g6
g7
(lp8726
Vsimilarity
p8727
atp8728
Rp8729
(dp8730
g16
VNN
p8731
sbatp8732
Rp8733
(dp8734
g16
VNP
p8735
sbag5
(g6
g7
(lp8736
g5
(g6
g7
(lp8737
Vbetween
p8738
atp8739
Rp8740
(dp8741
g16
VIN
p8742
sbag5
(g6
g7
(lp8743
g5
(g6
g7
(lp8744
g5
(g6
g7
(lp8745
Veach
p8746
atp8747
Rp8748
(dp8749
g16
VDT
p8750
sbag5
(g6
g7
(lp8751
Vpair
p8752
atp8753
Rp8754
(dp8755
g16
VNN
p8756
sbatp8757
Rp8758
(dp8759
g16
VNP
p8760
sbag5
(g6
g7
(lp8761
g5
(g6
g7
(lp8762
Vof
p8763
atp8764
Rp8765
(dp8766
g16
VIN
p8767
sbag5
(g6
g7
(lp8768
g5
(g6
g7
(lp8769
g5
(g6
g7
(lp8770
Vtrees
p8771
atp8772
Rp8773
(dp8774
g16
VNNS
p8775
sbatp8776
Rp8777
(dp8778
g16
VNP
p8779
sbag5
(g6
g7
(lp8780
g5
(g6
g7
(lp8781
Vin
p8782
atp8783
Rp8784
(dp8785
g16
VIN
p8786
sbag5
(g6
g7
(lp8787
g5
(g6
g7
(lp8788
Vthe
p8789
atp8790
Rp8791
(dp8792
g16
VDT
p8793
sbag5
(g6
g7
(lp8794
Vfeature
p8795
atp8796
Rp8797
(dp8798
g16
VNN
p8799
sbag5
(g6
g7
(lp8800
Vspace
p8801
atp8802
Rp8803
(dp8804
g16
VNN
p8805
sbatp8806
Rp8807
(dp8808
g16
VNP
p8809
sbatp8810
Rp8811
(dp8812
g16
VPP
p8813
sbatp8814
Rp8815
(dp8816
g16
VNP
p8817
sbatp8818
Rp8819
(dp8820
g16
VPP
p8821
sbatp8822
Rp8823
(dp8824
g16
VNP
p8825
sbatp8826
Rp8827
(dp8828
g16
VPP
p8829
sbatp8830
Rp8831
(dp8832
g16
VNP
p8833
sbatp8834
Rp8835
(dp8836
g16
VVP
p8837
sbatp8838
Rp8839
(dp8840
g16
g171
sbatp8841
Rp8842
(dp8843
g16
VSBAR
p8844
sbatp8845
Rp8846
(dp8847
g16
VNP
p8848
sbatp8849
Rp8850
(dp8851
g16
VVP
p8852
sbatp8853
Rp8854
(dp8855
g16
g171
sbatp8856
Rp8857
(dp8858
g16
VVP
p8859
sbatp8860
Rp8861
(dp8862
g16
g171
sbag5
(g6
g7
(lp8863
g5
(g6
g7
(lp8864
Vas
p8865
atp8866
Rp8867
(dp8868
g16
VIN
p8869
sbag5
(g6
g7
(lp8870
g5
(g6
g7
(lp8871
g5
(g6
g7
(lp8872
Vfollows
p8873
atp8874
Rp8875
(dp8876
g16
VVBZ
p8877
sbatp8878
Rp8879
(dp8880
g16
VVP
p8881
sbatp8882
Rp8883
(dp8884
g16
g171
sbatp8885
Rp8886
(dp8887
g16
VSBAR
p8888
sbatp8889
Rp8890
(dp8891
g16
VVP
p8892
sbatp8893
Rp8894
(dp8895
g16
VVP
p8896
sbatp8897
Rp8898
(dp8899
g16
g171
sbatp8900
Rp8901
(dp8902
g16
VVP
p8903
sbatp8904
Rp8905
(dp8906
g16
VVP
p8907
sbatp8908
Rp8909
(dp8910
g16
g171
sbatp8911
Rp8912
(dp8913
g16
VROOT
p8914
sbasg176
(icmyPackage
CorE
p8915
(dp8916
g179
(lp8917
(I0
I1
tp8918
a(I0
I6
tp8919
asg183
g5
(g6
g7
(lp8920
g8360
ag8367
ag8379
atp8921
Rp8922
(dp8923
g16
g194
sbsbsg184
(icmyPackage
CorE
p8924
(dp8925
g179
(lp8926
(I0
I8
tp8927
a(I0
I56
tp8928
asg183
g5
(g6
g7
(lp8929
g8394
ag8399
ag8404
ag8511
ag8531
ag8541
ag8548
ag8555
ag8589
ag8597
ag8604
ag8633
ag8641
ag8669
ag8677
ag8695
ag8707
ag8715
ag8733
ag8740
ag8758
ag8765
ag8777
ag8784
ag8791
ag8797
atp8930
Rp8931
(dp8932
g16
g194
sbsbsg195
g8301
sg220
(lp8933
(isxpPackage
sxpSent
p8934
(dp8935
g224
(lp8936
I18
asg226
VSince this constructed tree structure represents semantic, discourse, and structural information extracted from the similar Wikipedia paragraphs to each given instance, we can explore these more enriched features to build the topic tracking model using a subset tree kernel [ 5 ] which computes the similarity between each pair of trees in the feature space as follows
p8937
sg228
I6
sg210
I50
sg229
I19
sbasba(icmyPackage
CELink
p8938
(dp8939
g3
(lp8940
g5
(g6
g7
(lp8941
g5
(g6
g7
(lp8942
g5
(g6
g7
(lp8943
g5
(g6
g7
(lp8944
VIn
p8945
atp8946
Rp8947
(dp8948
g16
VIN
p8949
sbag5
(g6
g7
(lp8950
g5
(g6
g7
(lp8951
Vthis
p8952
atp8953
Rp8954
(dp8955
g16
VDT
p8956
sbag5
(g6
g7
(lp8957
Vwork
p8958
atp8959
Rp8960
(dp8961
g16
VNN
p8962
sbatp8963
Rp8964
(dp8965
g16
VNP
p8966
sbatp8967
Rp8968
(dp8969
g16
VPP
p8970
sbag5
(g6
g7
(lp8971
g376
atp8972
Rp8973
(dp8974
g16
g376
sbag5
(g6
g7
(lp8975
g5
(g6
g7
(lp8976
g307
atp8977
Rp8978
(dp8979
g16
VDT
p8980
sbag5
(g6
g7
(lp8981
Vcomposite
p8982
atp8983
Rp8984
(dp8985
g16
VJJ
p8986
sbag5
(g6
g7
(lp8987
Vkernel
p8988
atp8989
Rp8990
(dp8991
g16
VNN
p8992
sbatp8993
Rp8994
(dp8995
g16
VNP
p8996
sbag5
(g6
g7
(lp8997
g5
(g6
g7
(lp8998
Vis
p8999
atp9000
Rp9001
(dp9002
g16
VVBZ
p9003
sbag5
(g6
g7
(lp9004
g5
(g6
g7
(lp9005
Vdefined
p9006
atp9007
Rp9008
(dp9009
g16
VVBN
p9010
sbag5
(g6
g7
(lp9011
g5
(g6
g7
(lp9012
Vby
p9013
atp9014
Rp9015
(dp9016
g16
VIN
p9017
sbag5
(g6
g7
(lp9018
g5
(g6
g7
(lp9019
g5
(g6
g7
(lp9020
Vcombining
p9021
atp9022
Rp9023
(dp9024
g16
VVBG
p9025
sbag5
(g6
g7
(lp9026
g5
(g6
g7
(lp9027
g5
(g6
g7
(lp9028
g5
(g6
g7
(lp9029
Vthe
p9030
atp9031
Rp9032
(dp9033
g16
VDT
p9034
sbag5
(g6
g7
(lp9035
Vindividual
p9036
atp9037
Rp9038
(dp9039
g16
VJJ
p9040
sbag5
(g6
g7
(lp9041
Vkernels
p9042
atp9043
Rp9044
(dp9045
g16
VNNS
p9046
sbatp9047
Rp9048
(dp9049
g16
VNP
p9050
sbag5
(g6
g7
(lp9051
g5
(g6
g7
(lp9052
Vincluding
p9053
atp9054
Rp9055
(dp9056
g16
VVBG
p9057
sbag5
(g6
g7
(lp9058
g5
(g6
g7
(lp9059
Vhistory
p9060
atp9061
Rp9062
(dp9063
g16
VNN
p9064
sbag5
(g6
g7
(lp9065
Vsequence
p9066
atp9067
Rp9068
(dp9069
g16
VNN
p9070
sbag5
(g6
g7
(lp9071
Vand
p9072
atp9073
Rp9074
(dp9075
g16
VCC
p9076
sbag5
(g6
g7
(lp9077
Vdomain
p9078
atp9079
Rp9080
(dp9081
g16
VNN
p9082
sbag5
(g6
g7
(lp9083
Vcontext
p9084
atp9085
Rp9086
(dp9087
g16
VNN
p9088
sbag5
(g6
g7
(lp9089
Vtree
p9090
atp9091
Rp9092
(dp9093
g16
VNN
p9094
sbag5
(g6
g7
(lp9095
Vkernels
p9096
atp9097
Rp9098
(dp9099
g16
VNNS
p9100
sbatp9101
Rp9102
(dp9103
g16
VNP
p9104
sbatp9105
Rp9106
(dp9107
g16
VPP
p9108
sbatp9109
Rp9110
(dp9111
g16
VNP
p9112
sbag5
(g6
g7
(lp9113
g376
atp9114
Rp9115
(dp9116
g16
g376
sbag5
(g6
g7
(lp9117
g5
(g6
g7
(lp9118
Vas
p9119
atp9120
Rp9121
(dp9122
g16
VRB
p9123
sbag5
(g6
g7
(lp9124
Vwell
p9125
atp9126
Rp9127
(dp9128
g16
VRB
p9129
sbag5
(g6
g7
(lp9130
Vas
p9131
atp9132
Rp9133
(dp9134
g16
VIN
p9135
sbatp9136
Rp9137
(dp9138
g16
VCONJP
p9139
sbag5
(g6
g7
(lp9140
g5
(g6
g7
(lp9141
g5
(g6
g7
(lp9142
Vthe
p9143
atp9144
Rp9145
(dp9146
g16
VDT
p9147
sbag5
(g6
g7
(lp9148
Vlinear
p9149
atp9150
Rp9151
(dp9152
g16
VJJ
p9153
sbag5
(g6
g7
(lp9154
Vkernel
p9155
atp9156
Rp9157
(dp9158
g16
VNN
p9159
sbatp9160
Rp9161
(dp9162
g16
VNP
p9163
sbag5
(g6
g7
(lp9164
g5
(g6
g7
(lp9165
Vbetween
p9166
atp9167
Rp9168
(dp9169
g16
VIN
p9170
sbag5
(g6
g7
(lp9171
g5
(g6
g7
(lp9172
g5
(g6
g7
(lp9173
Vthe
p9174
atp9175
Rp9176
(dp9177
g16
VDT
p9178
sbag5
(g6
g7
(lp9179
Vvectors
p9180
atp9181
Rp9182
(dp9183
g16
VNNS
p9184
sbatp9185
Rp9186
(dp9187
g16
VNP
p9188
sbag5
(g6
g7
(lp9189
g5
(g6
g7
(lp9190
Vrepresenting
p9191
atp9192
Rp9193
(dp9194
g16
VVBG
p9195
sbag5
(g6
g7
(lp9196
g5
(g6
g7
(lp9197
g5
(g6
g7
(lp9198
g5
(g6
g7
(lp9199
Vfundamental
p9200
atp9201
Rp9202
(dp9203
g16
VJJ
p9204
sbag5
(g6
g7
(lp9205
Vfeatures
p9206
atp9207
Rp9208
(dp9209
g16
VNNS
p9210
sbatp9211
Rp9212
(dp9213
g16
VNP
p9214
sbag5
(g6
g7
(lp9215
g5
(g6
g7
(lp9216
Vextracted
p9217
atp9218
Rp9219
(dp9220
g16
VVBN
p9221
sbag5
(g6
g7
(lp9222
g5
(g6
g7
(lp9223
Vfrom
p9224
atp9225
Rp9226
(dp9227
g16
VIN
p9228
sbag5
(g6
g7
(lp9229
g5
(g6
g7
(lp9230
g5
(g6
g7
(lp9231
Vthe
p9232
atp9233
Rp9234
(dp9235
g16
VDT
p9236
sbag5
(g6
g7
(lp9237
Vutterances
p9238
atp9239
Rp9240
(dp9241
g16
VNNS
p9242
sbatp9243
Rp9244
(dp9245
g16
VNP
p9246
sbag5
(g6
g7
(lp9247
g5
(g6
g7
(lp9248
Vthemselves
p9249
atp9250
Rp9251
(dp9252
g16
VPRP
p9253
sbatp9254
Rp9255
(dp9256
g16
VADVP
p9257
sbatp9258
Rp9259
(dp9260
g16
VNP
p9261
sbatp9262
Rp9263
(dp9264
g16
VPP
p9265
sbatp9266
Rp9267
(dp9268
g16
VVP
p9269
sbatp9270
Rp9271
(dp9272
g16
VNP
p9273
sbag5
(g6
g7
(lp9274
Vand
p9275
atp9276
Rp9277
(dp9278
g16
VCC
p9279
sbag5
(g6
g7
(lp9280
g5
(g6
g7
(lp9281
g5
(g6
g7
(lp9282
Vthe
p9283
atp9284
Rp9285
(dp9286
g16
VDT
p9287
sbag5
(g6
g7
(lp9288
Vresults
p9289
atp9290
Rp9291
(dp9292
g16
VNNS
p9293
sbatp9294
Rp9295
(dp9296
g16
VNP
p9297
sbag5
(g6
g7
(lp9298
g5
(g6
g7
(lp9299
Vof
p9300
atp9301
Rp9302
(dp9303
g16
VIN
p9304
sbag5
(g6
g7
(lp9305
g5
(g6
g7
(lp9306
Vlinguistic
p9307
atp9308
Rp9309
(dp9310
g16
VJJ
p9311
sbag5
(g6
g7
(lp9312
Vpreprocessors
p9313
atp9314
Rp9315
(dp9316
g16
VNNS
p9317
sbatp9318
Rp9319
(dp9320
g16
VNP
p9321
sbatp9322
Rp9323
(dp9324
g16
VPP
p9325
sbatp9326
Rp9327
(dp9328
g16
VNP
p9329
sbatp9330
Rp9331
(dp9332
g16
VNP
p9333
sbatp9334
Rp9335
(dp9336
g16
VVP
p9337
sbatp9338
Rp9339
(dp9340
g16
VNP
p9341
sbatp9342
Rp9343
(dp9344
g16
VPP
p9345
sbatp9346
Rp9347
(dp9348
g16
VNP
p9349
sbatp9350
Rp9351
(dp9352
g16
VNP
p9353
sbatp9354
Rp9355
(dp9356
g16
VVP
p9357
sbatp9358
Rp9359
(dp9360
g16
g171
sbatp9361
Rp9362
(dp9363
g16
VPP
p9364
sbatp9365
Rp9366
(dp9367
g16
VVP
p9368
sbatp9369
Rp9370
(dp9371
g16
VVP
p9372
sbatp9373
Rp9374
(dp9375
g16
g171
sbatp9376
Rp9377
(dp9378
g16
VROOT
p9379
sbasg176
(icmyPackage
CorE
p9380
(dp9381
g179
(lp9382
(I0
I10
tp9383
a(I0
I45
tp9384
asg183
g9359
sbsg184
(icmyPackage
CorE
p9385
(dp9386
g179
(lp9387
(I0
I0
tp9388
a(I0
I8
tp9389
asg183
g5
(g6
g7
(lp9390
g8968
ag8973
ag8994
ag9001
ag9008
atp9391
Rp9392
(dp9393
g16
g194
sbsbsg195
g2675
sg220
(lp9394
(isxpPackage
sxpSent
p9395
(dp9396
g224
(lp9397
I19
asg226
VIn this work, a composite kernel is defined by combining the individual kernels including history sequence and domain context tree kernels, as well as the linear kernel between the vectors representing fundamental features extracted from the utterances themselves and the results of linguistic preprocessors
p9398
sg228
I7
sg210
I52
sg229
I21
sbasba(icmyPackage
CELink
p9399
(dp9400
g3
(lp9401
g5
(g6
g7
(lp9402
g5
(g6
g7
(lp9403
g5
(g6
g7
(lp9404
g5
(g6
g7
(lp9405
VSince
p9406
atp9407
Rp9408
(dp9409
g16
VIN
p9410
sbag5
(g6
g7
(lp9411
g5
(g6
g7
(lp9412
g5
(g6
g7
(lp9413
Vwe
p9414
atp9415
Rp9416
(dp9417
g16
VPRP
p9418
sbatp9419
Rp9420
(dp9421
g16
VNP
p9422
sbag5
(g6
g7
(lp9423
g5
(g6
g7
(lp9424
Vaim
p9425
atp9426
Rp9427
(dp9428
g16
VVBP
p9429
sbag5
(g6
g7
(lp9430
g5
(g6
g7
(lp9431
Vat
p9432
atp9433
Rp9434
(dp9435
g16
VIN
p9436
sbag5
(g6
g7
(lp9437
g5
(g6
g7
(lp9438
g5
(g6
g7
(lp9439
Vdeveloping
p9440
atp9441
Rp9442
(dp9443
g16
VVBG
p9444
sbag5
(g6
g7
(lp9445
g5
(g6
g7
(lp9446
g5
(g6
g7
(lp9447
Vthe
p9448
atp9449
Rp9450
(dp9451
g16
VDT
p9452
sbag5
(g6
g7
(lp9453
Vsystem
p9454
atp9455
Rp9456
(dp9457
g16
VNN
p9458
sbatp9459
Rp9460
(dp9461
g16
VNP
p9462
sbag5
(g6
g7
(lp9463
g5
(g6
g7
(lp9464
g5
(g6
g7
(lp9465
Vwhich
p9466
atp9467
Rp9468
(dp9469
g16
VWDT
p9470
sbatp9471
Rp9472
(dp9473
g16
VWHNP
p9474
sbag5
(g6
g7
(lp9475
g5
(g6
g7
(lp9476
g5
(g6
g7
(lp9477
Vacts
p9478
atp9479
Rp9480
(dp9481
g16
VVBZ
p9482
sbag5
(g6
g7
(lp9483
g5
(g6
g7
(lp9484
Vas
p9485
atp9486
Rp9487
(dp9488
g16
VIN
p9489
sbag5
(g6
g7
(lp9490
g5
(g6
g7
(lp9491
g5
(g6
g7
(lp9492
g307
atp9493
Rp9494
(dp9495
g16
VDT
p9496
sbag5
(g6
g7
(lp9497
Vguide
p9498
atp9499
Rp9500
(dp9501
g16
VNN
p9502
sbatp9503
Rp9504
(dp9505
g16
VNP
p9506
sbag5
(g6
g7
(lp9507
g5
(g6
g7
(lp9508
Vcommunicating
p9509
atp9510
Rp9511
(dp9512
g16
VVBG
p9513
sbag5
(g6
g7
(lp9514
g5
(g6
g7
(lp9515
Vwith
p9516
atp9517
Rp9518
(dp9519
g16
VIN
p9520
sbag5
(g6
g7
(lp9521
g5
(g6
g7
(lp9522
Vtourist
p9523
atp9524
Rp9525
(dp9526
g16
VNN
p9527
sbag5
(g6
g7
(lp9528
Vusers
p9529
atp9530
Rp9531
(dp9532
g16
VNNS
p9533
sbatp9534
Rp9535
(dp9536
g16
VNP
p9537
sbatp9538
Rp9539
(dp9540
g16
VPP
p9541
sbatp9542
Rp9543
(dp9544
g16
VVP
p9545
sbatp9546
Rp9547
(dp9548
g16
VNP
p9549
sbatp9550
Rp9551
(dp9552
g16
VPP
p9553
sbatp9554
Rp9555
(dp9556
g16
VVP
p9557
sbatp9558
Rp9559
(dp9560
g16
g171
sbatp9561
Rp9562
(dp9563
g16
VSBAR
p9564
sbatp9565
Rp9566
(dp9567
g16
VNP
p9568
sbatp9569
Rp9570
(dp9571
g16
VVP
p9572
sbatp9573
Rp9574
(dp9575
g16
g171
sbatp9576
Rp9577
(dp9578
g16
VPP
p9579
sbatp9580
Rp9581
(dp9582
g16
VVP
p9583
sbatp9584
Rp9585
(dp9586
g16
g171
sbatp9587
Rp9588
(dp9589
g16
VSBAR
p9590
sbag5
(g6
g7
(lp9591
g376
atp9592
Rp9593
(dp9594
g16
g376
sbag5
(g6
g7
(lp9595
g5
(g6
g7
(lp9596
g5
(g6
g7
(lp9597
Van
p9598
atp9599
Rp9600
(dp9601
g16
VDT
p9602
sbag5
(g6
g7
(lp9603
Vinstance
p9604
atp9605
Rp9606
(dp9607
g16
VNN
p9608
sbatp9609
Rp9610
(dp9611
g16
VNP
p9612
sbag5
(g6
g7
(lp9613
g5
(g6
g7
(lp9614
Vfor
p9615
atp9616
Rp9617
(dp9618
g16
VIN
p9619
sbag5
(g6
g7
(lp9620
g5
(g6
g7
(lp9621
g5
(g6
g7
(lp9622
Vboth
p9623
atp9624
Rp9625
(dp9626
g16
VDT
p9627
sbag5
(g6
g7
(lp9628
Vtraining
p9629
atp9630
Rp9631
(dp9632
g16
VNN
p9633
sbag5
(g6
g7
(lp9634
Vand
p9635
atp9636
Rp9637
(dp9638
g16
VCC
p9639
sbag5
(g6
g7
(lp9640
Vprediction
p9641
atp9642
Rp9643
(dp9644
g16
VNN
p9645
sbatp9646
Rp9647
(dp9648
g16
VNP
p9649
sbag5
(g6
g7
(lp9650
g5
(g6
g7
(lp9651
Vof
p9652
atp9653
Rp9654
(dp9655
g16
VIN
p9656
sbag5
(g6
g7
(lp9657
g5
(g6
g7
(lp9658
Vtopic
p9659
atp9660
Rp9661
(dp9662
g16
VNN
p9663
sbag5
(g6
g7
(lp9664
Vtransition
p9665
atp9666
Rp9667
(dp9668
g16
VNN
p9669
sbatp9670
Rp9671
(dp9672
g16
VNP
p9673
sbatp9674
Rp9675
(dp9676
g16
VPP
p9677
sbatp9678
Rp9679
(dp9680
g16
VNP
p9681
sbatp9682
Rp9683
(dp9684
g16
VPP
p9685
sbatp9686
Rp9687
(dp9688
g16
VNP
p9689
sbag5
(g6
g7
(lp9690
g5
(g6
g7
(lp9691
Vwas
p9692
atp9693
Rp9694
(dp9695
g16
VVBD
p9696
sbag5
(g6
g7
(lp9697
g5
(g6
g7
(lp9698
Vcreated
p9699
atp9700
Rp9701
(dp9702
g16
VVBN
p9703
sbag5
(g6
g7
(lp9704
g5
(g6
g7
(lp9705
Vfor
p9706
atp9707
Rp9708
(dp9709
g16
VIN
p9710
sbag5
(g6
g7
(lp9711
g5
(g6
g7
(lp9712
g5
(g6
g7
(lp9713
Veach
p9714
atp9715
Rp9716
(dp9717
g16
VDT
p9718
sbag5
(g6
g7
(lp9719
Vturn
p9720
atp9721
Rp9722
(dp9723
g16
VNN
p9724
sbatp9725
Rp9726
(dp9727
g16
VNP
p9728
sbag5
(g6
g7
(lp9729
g5
(g6
g7
(lp9730
Vof
p9731
atp9732
Rp9733
(dp9734
g16
VIN
p9735
sbag5
(g6
g7
(lp9736
g5
(g6
g7
(lp9737
Vtourists
p9738
atp9739
Rp9740
(dp9741
g16
VNNS
p9742
sbatp9743
Rp9744
(dp9745
g16
VNP
p9746
sbatp9747
Rp9748
(dp9749
g16
VPP
p9750
sbatp9751
Rp9752
(dp9753
g16
VNP
p9754
sbatp9755
Rp9756
(dp9757
g16
VPP
p9758
sbatp9759
Rp9760
(dp9761
g16
VVP
p9762
sbatp9763
Rp9764
(dp9765
g16
VVP
p9766
sbatp9767
Rp9768
(dp9769
g16
g171
sbatp9770
Rp9771
(dp9772
g16
VROOT
p9773
sbasg176
(icmyPackage
CorE
p9774
(dp9775
g179
(lp9776
(I0
I1
tp9777
a(I0
I15
tp9778
asg183
g9585
sbsg184
(icmyPackage
CorE
p9779
(dp9780
g179
(lp9781
(I0
I17
tp9782
a(I0
I33
tp9783
asg183
g5
(g6
g7
(lp9784
g9687
ag9764
atp9785
Rp9786
(dp9787
g16
g194
sbsbsg195
g8301
sg220
(lp9788
(isxpPackage
sxpSent
p9789
(dp9790
g224
(lp9791
I20
asg226
VSince we aim at developing the system which acts as a guide communicating with tourist users, an instance for both training and prediction of topic transition was created for each turn of tourists
p9792
sg228
I8
sg210
I58
sg229
I24
sbasba(icmyPackage
CELink
p9793
(dp9794
g3
(lp9795
g5
(g6
g7
(lp9796
g5
(g6
g7
(lp9797
g5
(g6
g7
(lp9798
g5
(g6
g7
(lp9799
VThen
p9800
atp9801
Rp9802
(dp9803
g16
VRB
p9804
sbatp9805
Rp9806
(dp9807
g16
VADVP
p9808
sbag5
(g6
g7
(lp9809
g376
atp9810
Rp9811
(dp9812
g16
g376
sbag5
(g6
g7
(lp9813
g5
(g6
g7
(lp9814
g5
(g6
g7
(lp9815
Vthe
p9816
atp9817
Rp9818
(dp9819
g16
VDT
p9820
sbag5
(g6
g7
(lp9821
Vhistory
p9822
atp9823
Rp9824
(dp9825
g16
VNN
p9826
sbag5
(g6
g7
(lp9827
Vsequence
p9828
atp9829
Rp9830
(dp9831
g16
VNN
p9832
sbatp9833
Rp9834
(dp9835
g16
VNP
p9836
sbag5
(g6
g7
(lp9837
Vand
p9838
atp9839
Rp9840
(dp9841
g16
VCC
p9842
sbag5
(g6
g7
(lp9843
g5
(g6
g7
(lp9844
g5
(g6
g7
(lp9845
Vtree
p9846
atp9847
Rp9848
(dp9849
g16
VNN
p9850
sbag5
(g6
g7
(lp9851
Vcontext
p9852
atp9853
Rp9854
(dp9855
g16
VNN
p9856
sbag5
(g6
g7
(lp9857
Vstructures
p9858
atp9859
Rp9860
(dp9861
g16
VNNS
p9862
sbatp9863
Rp9864
(dp9865
g16
VNP
p9866
sbag5
(g6
g7
(lp9867
g5
(g6
g7
(lp9868
Vfor
p9869
atp9870
Rp9871
(dp9872
g16
VIN
p9873
sbag5
(g6
g7
(lp9874
g5
(g6
g7
(lp9875
Vour
p9876
atp9877
Rp9878
(dp9879
g16
VPRP$
p9880
sbag5
(g6
g7
(lp9881
Vcomposite
p9882
atp9883
Rp9884
(dp9885
g16
VJJ
p9886
sbag5
(g6
g7
(lp9887
Vkernel
p9888
atp9889
Rp9890
(dp9891
g16
VNN
p9892
sbatp9893
Rp9894
(dp9895
g16
VNP
p9896
sbatp9897
Rp9898
(dp9899
g16
VPP
p9900
sbatp9901
Rp9902
(dp9903
g16
VNP
p9904
sbatp9905
Rp9906
(dp9907
g16
VNP
p9908
sbag5
(g6
g7
(lp9909
g5
(g6
g7
(lp9910
Vwere
p9911
atp9912
Rp9913
(dp9914
g16
VVBD
p9915
sbag5
(g6
g7
(lp9916
g5
(g6
g7
(lp9917
Vconstructed
p9918
atp9919
Rp9920
(dp9921
g16
VVBN
p9922
sbag5
(g6
g7
(lp9923
g5
(g6
g7
(lp9924
Vbased
p9925
atp9926
Rp9927
(dp9928
g16
VVBN
p9929
sbag5
(g6
g7
(lp9930
g5
(g6
g7
(lp9931
Von
p9932
atp9933
Rp9934
(dp9935
g16
VIN
p9936
sbag5
(g6
g7
(lp9937
g5
(g6
g7
(lp9938
g5
(g6
g7
(lp9939
V3,155
p9940
atp9941
Rp9942
(dp9943
g16
VCD
p9944
sbag5
(g6
g7
(lp9945
Varticles
p9946
atp9947
Rp9948
(dp9949
g16
VNNS
p9950
sbatp9951
Rp9952
(dp9953
g16
VNP
p9954
sbag5
(g6
g7
(lp9955
g5
(g6
g7
(lp9956
Vrelated
p9957
atp9958
Rp9959
(dp9960
g16
VVBN
p9961
sbag5
(g6
g7
(lp9962
g5
(g6
g7
(lp9963
Vto
p9964
atp9965
Rp9966
(dp9967
g16
VTO
p9968
sbag5
(g6
g7
(lp9969
g5
(g6
g7
(lp9970
g5
(g6
g7
(lp9971
VSingapore
p9972
atp9973
Rp9974
(dp9975
g16
VNNP
p9976
sbatp9977
Rp9978
(dp9979
g16
VNP
p9980
sbag5
(g6
g7
(lp9981
g5
(g6
g7
(lp9982
Vcollected
p9983
atp9984
Rp9985
(dp9986
g16
VVBN
p9987
sbag5
(g6
g7
(lp9988
g5
(g6
g7
(lp9989
Vfrom
p9990
atp9991
Rp9992
(dp9993
g16
VIN
p9994
sbag5
(g6
g7
(lp9995
g5
(g6
g7
(lp9996
g5
(g6
g7
(lp9997
VWikipedia
p9998
atp9999
Rp10000
(dp10001
g16
VNNP
p10002
sbag5
(g6
g7
(lp10003
Vdatabase
p10004
atp10005
Rp10006
(dp10007
g16
VNN
p10008
sbag5
(g6
g7
(lp10009
Vdump
p10010
atp10011
Rp10012
(dp10013
g16
VNN
p10014
sbatp10015
Rp10016
(dp10017
g16
VNP
p10018
sbag5
(g6
g7
(lp10019
g5
(g6
g7
(lp10020
Vas
p10021
atp10022
Rp10023
(dp10024
g16
VRB
p10025
sbag5
(g6
g7
(lp10026
Vof
p10027
atp10028
Rp10029
(dp10030
g16
VIN
p10031
sbag5
(g6
g7
(lp10032
g5
(g6
g7
(lp10033
VFebruary
p10034
atp10035
Rp10036
(dp10037
g16
VNNP
p10038
sbag5
(g6
g7
(lp10039
V2013
p10040
atp10041
Rp10042
(dp10043
g16
VCD
p10044
sbatp10045
Rp10046
(dp10047
g16
VNP
p10048
sbatp10049
Rp10050
(dp10051
g16
VPP
p10052
sbatp10053
Rp10054
(dp10055
g16
VNP
p10056
sbatp10057
Rp10058
(dp10059
g16
VPP
p10060
sbatp10061
Rp10062
(dp10063
g16
VVP
p10064
sbatp10065
Rp10066
(dp10067
g16
VNP
p10068
sbatp10069
Rp10070
(dp10071
g16
VPP
p10072
sbatp10073
Rp10074
(dp10075
g16
VVP
p10076
sbatp10077
Rp10078
(dp10079
g16
VNP
p10080
sbatp10081
Rp10082
(dp10083
g16
VPP
p10084
sbatp10085
Rp10086
(dp10087
g16
VPP
p10088
sbatp10089
Rp10090
(dp10091
g16
VVP
p10092
sbatp10093
Rp10094
(dp10095
g16
VVP
p10096
sbatp10097
Rp10098
(dp10099
g16
g171
sbatp10100
Rp10101
(dp10102
g16
VROOT
p10103
sbag5
(g6
g7
(lp10104
g5
(g6
g7
(lp10105
g5
(g6
g7
(lp10106
g5
(g6
g7
(lp10107
VFor
p10108
atp10109
Rp10110
(dp10111
g16
VIN
p10112
sbag5
(g6
g7
(lp10113
g5
(g6
g7
(lp10114
Vthe
p10115
atp10116
Rp10117
(dp10118
g16
VDT
p10119
sbag5
(g6
g7
(lp10120
Vlinear
p10121
atp10122
Rp10123
(dp10124
g16
VJJ
p10125
sbag5
(g6
g7
(lp10126
Vkernel
p10127
atp10128
Rp10129
(dp10130
g16
VNN
p10131
sbag5
(g6
g7
(lp10132
Vbaseline
p10133
atp10134
Rp10135
(dp10136
g16
VNN
p10137
sbatp10138
Rp10139
(dp10140
g16
VNP
p10141
sbatp10142
Rp10143
(dp10144
g16
VPP
p10145
sbag5
(g6
g7
(lp10146
g376
atp10147
Rp10148
(dp10149
g16
g376
sbag5
(g6
g7
(lp10150
g5
(g6
g7
(lp10151
Vwe
p10152
atp10153
Rp10154
(dp10155
g16
VPRP
p10156
sbatp10157
Rp10158
(dp10159
g16
VNP
p10160
sbag5
(g6
g7
(lp10161
g5
(g6
g7
(lp10162
Vused
p10163
atp10164
Rp10165
(dp10166
g16
VVBD
p10167
sbag5
(g6
g7
(lp10168
g5
(g6
g7
(lp10169
g5
(g6
g7
(lp10170
g5
(g6
g7
(lp10171
Vthe
p10172
atp10173
Rp10174
(dp10175
g16
VDT
p10176
sbag5
(g6
g7
(lp10177
Vfollowing
p10178
atp10179
Rp10180
(dp10181
g16
VNN
p10182
sbatp10183
Rp10184
(dp10185
g16
VNP
p10186
sbag5
(g6
g7
(lp10187
g5
(g6
g7
(lp10188
Vfeatures
p10189
atp10190
Rp10191
(dp10192
g16
VVBZ
p10193
sbag5
(g6
g7
(lp10194
g5
(g6
g7
(lp10195
g5
(g6
g7
(lp10196
Vn-gram
p10197
atp10198
Rp10199
(dp10200
g16
VJJ
p10201
sbag5
(g6
g7
(lp10202
Vwords
p10203
atp10204
Rp10205
(dp10206
g16
VNNS
p10207
sbatp10208
Rp10209
(dp10210
g16
VNP
p10211
sbag5
(g6
g7
(lp10212
g376
atp10213
Rp10214
(dp10215
g16
g376
sbag5
(g6
g7
(lp10216
g5
(g6
g7
(lp10217
Vprevious
p10218
atp10219
Rp10220
(dp10221
g16
VJJ
p10222
sbag5
(g6
g7
(lp10223
Vsystem
p10224
atp10225
Rp10226
(dp10227
g16
VNN
p10228
sbag5
(g6
g7
(lp10229
Vactions
p10230
atp10231
Rp10232
(dp10233
g16
VNNS
p10234
sbatp10235
Rp10236
(dp10237
g16
VNP
p10238
sbag5
(g6
g7
(lp10239
g376
atp10240
Rp10241
(dp10242
g16
g376
sbag5
(g6
g7
(lp10243
Vand
p10244
atp10245
Rp10246
(dp10247
g16
VCC
p10248
sbag5
(g6
g7
(lp10249
g5
(g6
g7
(lp10250
g5
(g6
g7
(lp10251
Vcurrent
p10252
atp10253
Rp10254
(dp10255
g16
VJJ
p10256
sbag5
(g6
g7
(lp10257
Vuser
p10258
atp10259
Rp10260
(dp10261
g16
VNN
p10262
sbag5
(g6
g7
(lp10263
Vacts
p10264
atp10265
Rp10266
(dp10267
g16
VNNS
p10268
sbatp10269
Rp10270
(dp10271
g16
VNP
p10272
sbag5
(g6
g7
(lp10273
g5
(g6
g7
(lp10274
g5
(g6
g7
(lp10275
Vwhich
p10276
atp10277
Rp10278
(dp10279
g16
VWDT
p10280
sbatp10281
Rp10282
(dp10283
g16
VWHNP
p10284
sbag5
(g6
g7
(lp10285
g5
(g6
g7
(lp10286
g5
(g6
g7
(lp10287
Vwere
p10288
atp10289
Rp10290
(dp10291
g16
VVBD
p10292
sbag5
(g6
g7
(lp10293
g5
(g6
g7
(lp10294
Vmanually
p10295
atp10296
Rp10297
(dp10298
g16
VRB
p10299
sbatp10300
Rp10301
(dp10302
g16
VADVP
p10303
sbag5
(g6
g7
(lp10304
g5
(g6
g7
(lp10305
Vannotated
p10306
atp10307
Rp10308
(dp10309
g16
VJJ
p10310
sbatp10311
Rp10312
(dp10313
g16
VADJP
p10314
sbatp10315
Rp10316
(dp10317
g16
VVP
p10318
sbatp10319
Rp10320
(dp10321
g16
g171
sbatp10322
Rp10323
(dp10324
g16
VSBAR
p10325
sbatp10326
Rp10327
(dp10328
g16
VNP
p10329
sbatp10330
Rp10331
(dp10332
g16
VNP
p10333
sbatp10334
Rp10335
(dp10336
g16
VVP
p10337
sbatp10338
Rp10339
(dp10340
g16
g171
sbatp10341
Rp10342
(dp10343
g16
VSBAR
p10344
sbatp10345
Rp10346
(dp10347
g16
VVP
p10348
sbatp10349
Rp10350
(dp10351
g16
g171
sbatp10352
Rp10353
(dp10354
g16
VROOT
p10355
sbasg176
(icmyPackage
CorE
p10356
(dp10357
g179
(lp10358
(I0
I28
tp10359
a(I1
I24
tp10360
asg183
g5
(g6
g7
(lp10361
g10029
ag10046
ag10143
ag10148
ag10158
ag10165
ag10184
ag10191
ag10209
ag10214
ag10236
ag10241
ag10246
ag10270
ag10282
ag10290
ag10301
atp10362
Rp10363
(dp10364
g16
g194
sbsbsg184
(icmyPackage
CorE
p10365
(dp10366
g179
(lp10367
(I0
I0
tp10368
a(I0
I26
tp10369
asg183
g5
(g6
g7
(lp10370
g9806
ag9811
ag9906
ag9913
ag9920
ag9927
ag9934
ag9952
ag9959
ag9966
ag9978
ag9985
ag9992
ag10016
atp10371
Rp10372
(dp10373
g16
g194
sbsbsg195
g784
sg220
(lp10374
(isxpPackage
sxpSent
p10375
(dp10376
g224
(lp10377
I21
asg226
VThen, the history sequence and tree context structures for our composite kernel were constructed based on 3,155 articles related to Singapore collected from Wikipedia database dump as of February 2013
p10378
sg228
I8
sg210
I61
sg229
I25
sba(isxpPackage
sxpSent
p10379
(dp10380
g224
(lp10381
I21
asg226
VFor the linear kernel baseline, we used the following features n-gram words, previous system actions, and current user acts which were manually annotated
p10382
sg228
I8
sg210
I62
sg229
I25
sbasba(icmyPackage
CELink
p10383
(dp10384
g3
(lp10385
g5
(g6
g7
(lp10386
g5
(g6
g7
(lp10387
g5
(g6
g7
(lp10388
g5
(g6
g7
(lp10389
VFinally
p10390
atp10391
Rp10392
(dp10393
g16
VRB
p10394
sbatp10395
Rp10396
(dp10397
g16
VADVP
p10398
sbag5
(g6
g7
(lp10399
g376
atp10400
Rp10401
(dp10402
g16
g376
sbag5
(g6
g7
(lp10403
g5
(g6
g7
(lp10404
V8,318
p10405
atp10406
Rp10407
(dp10408
g16
VCD
p10409
sbag5
(g6
g7
(lp10410
Vinstances
p10411
atp10412
Rp10413
(dp10414
g16
VNNS
p10415
sbatp10416
Rp10417
(dp10418
g16
VNP
p10419
sbag5
(g6
g7
(lp10420
g5
(g6
g7
(lp10421
Vwere
p10422
atp10423
Rp10424
(dp10425
g16
VVBD
p10426
sbag5
(g6
g7
(lp10427
g5
(g6
g7
(lp10428
Vused
p10429
atp10430
Rp10431
(dp10432
g16
VVBN
p10433
sbag5
(g6
g7
(lp10434
g5
(g6
g7
(lp10435
Vfor
p10436
atp10437
Rp10438
(dp10439
g16
VIN
p10440
sbag5
(g6
g7
(lp10441
g5
(g6
g7
(lp10442
g5
(g6
g7
(lp10443
Vtraining
p10444
atp10445
Rp10446
(dp10447
g16
VVBG
p10448
sbag5
(g6
g7
(lp10449
g5
(g6
g7
(lp10450
Vthe
p10451
atp10452
Rp10453
(dp10454
g16
VDT
p10455
sbag5
(g6
g7
(lp10456
Vmodel
p10457
atp10458
Rp10459
(dp10460
g16
VNN
p10461
sbatp10462
Rp10463
(dp10464
g16
VNP
p10465
sbatp10466
Rp10467
(dp10468
g16
VVP
p10469
sbatp10470
Rp10471
(dp10472
g16
g171
sbatp10473
Rp10474
(dp10475
g16
VPP
p10476
sbatp10477
Rp10478
(dp10479
g16
VVP
p10480
sbatp10481
Rp10482
(dp10483
g16
VVP
p10484
sbatp10485
Rp10486
(dp10487
g16
g171
sbatp10488
Rp10489
(dp10490
g16
VROOT
p10491
sbasg176
(icmyPackage
CorE
p10492
(dp10493
g179
(lp10494
(I0
I7
tp10495
a(I0
I9
tp10496
asg183
g10471
sbsg184
(icmyPackage
CorE
p10497
(dp10498
g179
(lp10499
(I0
I0
tp10500
a(I0
I5
tp10501
asg183
g5
(g6
g7
(lp10502
g10396
ag10401
ag10417
ag10424
ag10431
atp10503
Rp10504
(dp10505
g16
g194
sbsbsg195
g2223
sg220
(lp10506
(isxpPackage
sxpSent
p10507
(dp10508
g224
(lp10509
I22
asg226
VFinally, 8,318 instances were used for training the model
p10510
sg228
I8
sg210
I63
sg229
I25
sbasba(icmyPackage
CELink
p10511
(dp10512
g3
(lp10513
g5
(g6
g7
(lp10514
g5
(g6
g7
(lp10515
g5
(g6
g7
(lp10516
g5
(g6
g7
(lp10517
VWe
p10518
atp10519
Rp10520
(dp10521
g16
VPRP
p10522
sbatp10523
Rp10524
(dp10525
g16
VNP
p10526
sbag5
(g6
g7
(lp10527
g5
(g6
g7
(lp10528
Vtrained
p10529
atp10530
Rp10531
(dp10532
g16
VJJ
p10533
sbag5
(g6
g7
(lp10534
g5
(g6
g7
(lp10535
g5
(g6
g7
(lp10536
Vthe
p10537
atp10538
Rp10539
(dp10540
g16
VDT
p10541
sbag5
(g6
g7
(lp10542
VSVM
p10543
atp10544
Rp10545
(dp10546
g16
VNNP
p10547
sbag5
(g6
g7
(lp10548
Vmodels
p10549
atp10550
Rp10551
(dp10552
g16
VNNS
p10553
sbatp10554
Rp10555
(dp10556
g16
VNP
p10557
sbag5
(g6
g7
(lp10558
g5
(g6
g7
(lp10559
Vusing
p10560
atp10561
Rp10562
(dp10563
g16
VVBG
p10564
sbag5
(g6
g7
(lp10565
g5
(g6
g7
(lp10566
g5
(g6
g7
(lp10567
VSVM
p10568
atp10569
Rp10570
(dp10571
g16
VNNP
p10572
sbatp10573
Rp10574
(dp10575
g16
VNP
p10576
sbag5
(g6
g7
(lp10577
g5
(g6
g7
(lp10578
Vlight
p10579
atp10580
Rp10581
(dp10582
g16
VVB
p10583
sbag5
(g6
g7
(lp10584
g5
(g6
g7
(lp10585
g5
(g6
g7
(lp10586
g462
atp10587
Rp10588
(dp10589
g16
VCD
p10590
sbag5
(g6
g7
(lp10591
g462
atp10592
Rp10593
(dp10594
g16
VCD
p10595
sbatp10596
Rp10597
(dp10598
g16
VQP
p10599
sbag5
(g6
g7
(lp10600
Vhttp://svmlight.joachims.org/
p10601
atp10602
Rp10603
(dp10604
g16
VJJ
p10605
sbag5
(g6
g7
(lp10606
g5
(g6
g7
(lp10607
V-LSB-
p10608
atp10609
Rp10610
(dp10611
g16
VCD
p10612
sbag5
(g6
g7
(lp10613
V7
p10614
atp10615
Rp10616
(dp10617
g16
VCD
p10618
sbatp10619
Rp10620
(dp10621
g16
VQP
p10622
sbag5
(g6
g7
(lp10623
V-RSB-
p10624
atp10625
Rp10626
(dp10627
g16
VNNS
p10628
sbatp10629
Rp10630
(dp10631
g16
VNP
p10632
sbag5
(g6
g7
(lp10633
g5
(g6
g7
(lp10634
Vwith
p10635
atp10636
Rp10637
(dp10638
g16
VIN
p10639
sbag5
(g6
g7
(lp10640
g5
(g6
g7
(lp10641
g5
(g6
g7
(lp10642
Vthe
p10643
atp10644
Rp10645
(dp10646
g16
VDT
p10647
sbag5
(g6
g7
(lp10648
Vfollowing
p10649
atp10650
Rp10651
(dp10652
g16
VJJ
p10653
sbag5
(g6
g7
(lp10654
Vfive
p10655
atp10656
Rp10657
(dp10658
g16
VCD
p10659
sbag5
(g6
g7
(lp10660
Vdifferent
p10661
atp10662
Rp10663
(dp10664
g16
VJJ
p10665
sbag5
(g6
g7
(lp10666
Vcombinations
p10667
atp10668
Rp10669
(dp10670
g16
VNNS
p10671
sbatp10672
Rp10673
(dp10674
g16
VNP
p10675
sbag5
(g6
g7
(lp10676
g5
(g6
g7
(lp10677
Vof
p10678
atp10679
Rp10680
(dp10681
g16
VIN
p10682
sbag5
(g6
g7
(lp10683
g5
(g6
g7
(lp10684
Vkernels
p10685
atp10686
Rp10687
(dp10688
g16
VNNS
p10689
sbatp10690
Rp10691
(dp10692
g16
VNP
p10693
sbatp10694
Rp10695
(dp10696
g16
VPP
p10697
sbatp10698
Rp10699
(dp10700
g16
VNP
p10701
sbatp10702
Rp10703
(dp10704
g16
VPP
p10705
sbatp10706
Rp10707
(dp10708
g16
VVP
p10709
sbatp10710
Rp10711
(dp10712
g16
g171
sbatp10713
Rp10714
(dp10715
g16
VVP
p10716
sbatp10717
Rp10718
(dp10719
g16
g171
sbatp10720
Rp10721
(dp10722
g16
VVP
p10723
sbatp10724
Rp10725
(dp10726
g16
g171
sbatp10727
Rp10728
(dp10729
g16
VROOT
p10730
sbag5
(g6
g7
(lp10731
g5
(g6
g7
(lp10732
g5
(g6
g7
(lp10733
g5
(g6
g7
(lp10734
VK
p10735
atp10736
Rp10737
(dp10738
g16
VNNP
p10739
sbatp10740
Rp10741
(dp10742
g16
VNP
p10743
sbag5
(g6
g7
(lp10744
g5
(g6
g7
(lp10745
Vl
p10746
atp10747
Rp10748
(dp10749
g16
VNN
p10750
sbatp10751
Rp10752
(dp10753
g16
VNP
p10754
sbag5
(g6
g7
(lp10755
g5
(g6
g7
(lp10756
Vonly
p10757
atp10758
Rp10759
(dp10760
g16
VRB
p10761
sbatp10762
Rp10763
(dp10764
g16
VADVP
p10765
sbag5
(g6
g7
(lp10766
g376
atp10767
Rp10768
(dp10769
g16
g376
sbag5
(g6
g7
(lp10770
g5
(g6
g7
(lp10771
g5
(g6
g7
(lp10772
g5
(g6
g7
(lp10773
g5
(g6
g7
(lp10774
g10735
atp10775
Rp10776
(dp10777
g16
VNNP
p10778
sbag5
(g6
g7
(lp10779
g10746
atp10780
Rp10781
(dp10782
g16
VNNP
p10783
sbatp10784
Rp10785
(dp10786
g16
VNP
p10787
sbag5
(g6
g7
(lp10788
g5
(g6
g7
(lp10789
Vwith
p10790
atp10791
Rp10792
(dp10793
g16
VIN
p10794
sbag5
(g6
g7
(lp10795
g5
(g6
g7
(lp10796
g5
(g6
g7
(lp10797
g939
atp10798
Rp10799
(dp10800
g16
VNNP
p10801
sbag5
(g6
g7
(lp10802
g945
atp10803
Rp10804
(dp10805
g16
VPOS
p10806
sbatp10807
Rp10808
(dp10809
g16
VNP
p10810
sbag5
(g6
g7
(lp10811
V\u005c
p10812
atp10813
Rp10814
(dp10815
g16
VJJ
p10816
sbag5
(g6
g7
(lp10817
Vud835
p10818
atp10819
Rp10820
(dp10821
g16
VNNS
p10822
sbag5
(g6
g7
(lp10823
g945
atp10824
Rp10825
(dp10826
g16
V''
p10827
sbag5
(g6
g7
(lp10828
g939
atp10829
Rp10830
(dp10831
g16
VNN
p10832
sbatp10833
Rp10834
(dp10835
g16
VNP
p10836
sbatp10837
Rp10838
(dp10839
g16
VPP
p10840
sbag5
(g6
g7
(lp10841
g945
atp10842
Rp10843
(dp10844
g16
VPOS
p10845
sbatp10846
Rp10847
(dp10848
g16
VNP
p10849
sbag5
(g6
g7
(lp10850
V\u005c
p10851
atp10852
Rp10853
(dp10854
g16
VNNP
p10855
sbag5
(g6
g7
(lp10856
Vudcab
p10857
atp10858
Rp10859
(dp10860
g16
VNNP
p10861
sbag5
(g6
g7
(lp10862
g945
atp10863
Rp10864
(dp10865
g16
V''
p10866
sbatp10867
Rp10868
(dp10869
g16
VNP
p10870
sbag5
(g6
g7
(lp10871
g5
(g6
g7
(lp10872
Vas
p10873
atp10874
Rp10875
(dp10876
g16
VIN
p10877
sbag5
(g6
g7
(lp10878
g5
(g6
g7
(lp10879
g5
(g6
g7
(lp10880
Vfeatures
p10881
atp10882
Rp10883
(dp10884
g16
VNNS
p10885
sbatp10886
Rp10887
(dp10888
g16
VNP
p10889
sbag5
(g6
g7
(lp10890
g376
atp10891
Rp10892
(dp10893
g16
g376
sbag5
(g6
g7
(lp10894
g5
(g6
g7
(lp10895
g10735
atp10896
Rp10897
(dp10898
g16
VNNP
p10899
sbag5
(g6
g7
(lp10900
g10746
atp10901
Rp10902
(dp10903
g16
VNNP
p10904
sbag5
(g6
g7
(lp10905
V+
p10906
atp10907
Rp10908
(dp10909
g16
VNNP
p10910
sbag5
(g6
g7
(lp10911
g10735
atp10912
Rp10913
(dp10914
g16
VNNP
p10915
sbag5
(g6
g7
(lp10916
g976
atp10917
Rp10918
(dp10919
g16
VNNP
p10920
sbatp10921
Rp10922
(dp10923
g16
VNP
p10924
sbag5
(g6
g7
(lp10925
g376
atp10926
Rp10927
(dp10928
g16
g376
sbag5
(g6
g7
(lp10929
g5
(g6
g7
(lp10930
g10735
atp10931
Rp10932
(dp10933
g16
VNNP
p10934
sbag5
(g6
g7
(lp10935
g10746
atp10936
Rp10937
(dp10938
g16
VNNP
p10939
sbag5
(g6
g7
(lp10940
g10906
atp10941
Rp10942
(dp10943
g16
VNNP
p10944
sbag5
(g6
g7
(lp10945
g10735
atp10946
Rp10947
(dp10948
g16
VNNP
p10949
sbag5
(g6
g7
(lp10950
g3402
atp10951
Rp10952
(dp10953
g16
VNNP
p10954
sbatp10955
Rp10956
(dp10957
g16
VNP
p10958
sbag5
(g6
g7
(lp10959
g376
atp10960
Rp10961
(dp10962
g16
g376
sbag5
(g6
g7
(lp10963
Vand
p10964
atp10965
Rp10966
(dp10967
g16
VCC
p10968
sbag5
(g6
g7
(lp10969
g5
(g6
g7
(lp10970
g10735
atp10971
Rp10972
(dp10973
g16
VNNP
p10974
sbag5
(g6
g7
(lp10975
g10746
atp10976
Rp10977
(dp10978
g16
VNNP
p10979
sbag5
(g6
g7
(lp10980
g10906
atp10981
Rp10982
(dp10983
g16
VNNP
p10984
sbag5
(g6
g7
(lp10985
g10735
atp10986
Rp10987
(dp10988
g16
VNNP
p10989
sbatp10990
Rp10991
(dp10992
g16
VNP
p10993
sbatp10994
Rp10995
(dp10996
g16
VNP
p10997
sbatp10998
Rp10999
(dp11000
g16
VPP
p11001
sbatp11002
Rp11003
(dp11004
g16
VNP
p11005
sbag5
(g6
g7
(lp11006
g5
(g6
g7
(lp11007
g976
atp11008
Rp11009
(dp11010
g16
VVBZ
p11011
sbag5
(g6
g7
(lp11012
g5
(g6
g7
(lp11013
g10906
atp11014
Rp11015
(dp11016
g16
VVBG
p11017
sbag5
(g6
g7
(lp11018
g5
(g6
g7
(lp11019
g10735
atp11020
Rp11021
(dp11022
g16
VNNP
p11023
sbag5
(g6
g7
(lp11024
g3402
atp11025
Rp11026
(dp11027
g16
VNNP
p11028
sbatp11029
Rp11030
(dp11031
g16
VNP
p11032
sbatp11033
Rp11034
(dp11035
g16
VVP
p11036
sbatp11037
Rp11038
(dp11039
g16
VVP
p11040
sbatp11041
Rp11042
(dp11043
g16
g171
sbatp11044
Rp11045
(dp11046
g16
VROOT
p11047
sbasg176
(icmyPackage
CorE
p11048
(dp11049
g179
(lp11050
(I1
I18
tp11051
a(I1
I38
tp11052
asg183
g5
(g6
g7
(lp11053
g10995
ag11009
ag11015
atp11054
Rp11055
(dp11056
g16
g194
sbsbsg184
(icmyPackage
CorE
p11057
(dp11058
g179
(lp11059
(I0
I1
tp11060
a(I1
I16
tp11061
asg183
g5
(g6
g7
(lp11062
g10721
ag10741
ag10752
ag10763
ag10768
ag10868
atp11063
Rp11064
(dp11065
g16
g194
sbsbsg195
g784
sg220
(lp11066
(isxpPackage
sxpSent
p11067
(dp11068
g224
(lp11069
I23
asg226
VWe trained the SVM models using SVM light 1 1 http://svmlight.joachims.org/ [ 7 ] with the following five different combinations of kernels
p11070
sg228
I8
sg210
I64
sg229
I26
sba(isxpPackage
sxpSent
p11071
(dp11072
g224
(lp11073
I23
asg226
VK l only, K l with u'\u005cud835' u'\u005cudcab' as features, K l + K s , K l + K t , and K l + K s + K t
p11074
sg228
I8
sg210
I65
sg229
I26
sbasba(icmyPackage
CELink
p11075
(dp11076
g3
(lp11077
g5
(g6
g7
(lp11078
g5
(g6
g7
(lp11079
g5
(g6
g7
(lp11080
g5
(g6
g7
(lp11081
g5
(g6
g7
(lp11082
VWhen
p11083
atp11084
Rp11085
(dp11086
g16
VWRB
p11087
sbag5
(g6
g7
(lp11088
Vjust
p11089
atp11090
Rp11091
(dp11092
g16
VRB
p11093
sbatp11094
Rp11095
(dp11096
g16
VWHADVP
p11097
sbag5
(g6
g7
(lp11098
g5
(g6
g7
(lp11099
g5
(g6
g7
(lp11100
Vthe
p11101
atp11102
Rp11103
(dp11104
g16
VDT
p11105
sbag5
(g6
g7
(lp11106
Vparagraph
p11107
atp11108
Rp11109
(dp11110
g16
VNN
p11111
sbag5
(g6
g7
(lp11112
VIDs
p11113
atp11114
Rp11115
(dp11116
g16
VNN
p11117
sbatp11118
Rp11119
(dp11120
g16
VNP
p11121
sbag5
(g6
g7
(lp11122
g5
(g6
g7
(lp11123
Vwere
p11124
atp11125
Rp11126
(dp11127
g16
VVBD
p11128
sbag5
(g6
g7
(lp11129
g5
(g6
g7
(lp11130
Vincluded
p11131
atp11132
Rp11133
(dp11134
g16
VVBN
p11135
sbag5
(g6
g7
(lp11136
g5
(g6
g7
(lp11137
Vas
p11138
atp11139
Rp11140
(dp11141
g16
VIN
p11142
sbag5
(g6
g7
(lp11143
g5
(g6
g7
(lp11144
Vadditional
p11145
atp11146
Rp11147
(dp11148
g16
VJJ
p11149
sbag5
(g6
g7
(lp11150
Vfeatures
p11151
atp11152
Rp11153
(dp11154
g16
VNNS
p11155
sbatp11156
Rp11157
(dp11158
g16
VNP
p11159
sbatp11160
Rp11161
(dp11162
g16
VPP
p11163
sbatp11164
Rp11165
(dp11166
g16
VVP
p11167
sbatp11168
Rp11169
(dp11170
g16
VVP
p11171
sbatp11172
Rp11173
(dp11174
g16
g171
sbatp11175
Rp11176
(dp11177
g16
VSBAR
p11178
sbag5
(g6
g7
(lp11179
g376
atp11180
Rp11181
(dp11182
g16
g376
sbag5
(g6
g7
(lp11183
g5
(g6
g7
(lp11184
Vit
p11185
atp11186
Rp11187
(dp11188
g16
VPRP
p11189
sbatp11190
Rp11191
(dp11192
g16
VNP
p11193
sbag5
(g6
g7
(lp11194
g5
(g6
g7
(lp11195
Vfailed
p11196
atp11197
Rp11198
(dp11199
g16
VVBD
p11200
sbag5
(g6
g7
(lp11201
g5
(g6
g7
(lp11202
g5
(g6
g7
(lp11203
Vto
p11204
atp11205
Rp11206
(dp11207
g16
VTO
p11208
sbag5
(g6
g7
(lp11209
g5
(g6
g7
(lp11210
Vimprove
p11211
atp11212
Rp11213
(dp11214
g16
VVB
p11215
sbag5
(g6
g7
(lp11216
g5
(g6
g7
(lp11217
Vthe
p11218
atp11219
Rp11220
(dp11221
g16
VDT
p11222
sbag5
(g6
g7
(lp11223
Vperformances
p11224
atp11225
Rp11226
(dp11227
g16
VNNS
p11228
sbatp11229
Rp11230
(dp11231
g16
VNP
p11232
sbag5
(g6
g7
(lp11233
g5
(g6
g7
(lp11234
Vfrom
p11235
atp11236
Rp11237
(dp11238
g16
VIN
p11239
sbag5
(g6
g7
(lp11240
g5
(g6
g7
(lp11241
Vthe
p11242
atp11243
Rp11244
(dp11245
g16
VDT
p11246
sbag5
(g6
g7
(lp11247
Vbaseline
p11248
atp11249
Rp11250
(dp11251
g16
VNN
p11252
sbatp11253
Rp11254
(dp11255
g16
VNP
p11256
sbatp11257
Rp11258
(dp11259
g16
VPP
p11260
sbag5
(g6
g7
(lp11261
g5
(g6
g7
(lp11262
Vwithout
p11263
atp11264
Rp11265
(dp11266
g16
VIN
p11267
sbag5
(g6
g7
(lp11268
g5
(g6
g7
(lp11269
Vany
p11270
atp11271
Rp11272
(dp11273
g16
VDT
p11274
sbag5
(g6
g7
(lp11275
Vexternal
p11276
atp11277
Rp11278
(dp11279
g16
VJJ
p11280
sbag5
(g6
g7
(lp11281
Vfeatures
p11282
atp11283
Rp11284
(dp11285
g16
VNNS
p11286
sbatp11287
Rp11288
(dp11289
g16
VNP
p11290
sbatp11291
Rp11292
(dp11293
g16
VPP
p11294
sbatp11295
Rp11296
(dp11297
g16
VVP
p11298
sbatp11299
Rp11300
(dp11301
g16
VVP
p11302
sbatp11303
Rp11304
(dp11305
g16
g171
sbatp11306
Rp11307
(dp11308
g16
VVP
p11309
sbatp11310
Rp11311
(dp11312
g16
g171
sbatp11313
Rp11314
(dp11315
g16
VROOT
p11316
sbasg176
(icmyPackage
CorE
p11317
(dp11318
g179
(lp11319
(I0
I8
tp11320
a(I0
I23
tp11321
asg183
g5
(g6
g7
(lp11322
g11157
ag11181
ag11191
ag11307
atp11323
Rp11324
(dp11325
g16
g194
sbsbsg184
(icmyPackage
CorE
p11326
(dp11327
g179
(lp11328
(I0
I1
tp11329
a(I0
I6
tp11330
asg183
g5
(g6
g7
(lp11331
g11091
ag11119
ag11126
ag11133
atp11332
Rp11333
(dp11334
g16
g194
sbsbsg195
g784
sg220
(lp11335
(isxpPackage
sxpSent
p11336
(dp11337
g224
(lp11338
I24
asg226
VWhen just the paragraph IDs were included as additional features, it failed to improve the performances from the baseline without any external features
p11339
sg228
I8
sg210
I69
sg229
I27
sbasba(icmyPackage
CELink
p11340
(dp11341
g3
(lp11342
g5
(g6
g7
(lp11343
g5
(g6
g7
(lp11344
g5
(g6
g7
(lp11345
g5
(g6
g7
(lp11346
g5
(g6
g7
(lp11347
VThe
p11348
atp11349
Rp11350
(dp11351
g16
VDT
p11352
sbag5
(g6
g7
(lp11353
Verror
p11354
atp11355
Rp11356
(dp11357
g16
VNN
p11358
sbag5
(g6
g7
(lp11359
Vdistributions
p11360
atp11361
Rp11362
(dp11363
g16
VNNS
p11364
sbatp11365
Rp11366
(dp11367
g16
VNP
p11368
sbag5
(g6
g7
(lp11369
g5
(g6
g7
(lp11370
Vin
p11371
atp11372
Rp11373
(dp11374
g16
VIN
p11375
sbag5
(g6
g7
(lp11376
g5
(g6
g7
(lp11377
VFigure
p11378
atp11379
Rp11380
(dp11381
g16
VNNP
p11382
sbag5
(g6
g7
(lp11383
g4213
atp11384
Rp11385
(dp11386
g16
VCD
p11387
sbatp11388
Rp11389
(dp11390
g16
VNP
p11391
sbatp11392
Rp11393
(dp11394
g16
VPP
p11395
sbatp11396
Rp11397
(dp11398
g16
VNP
p11399
sbag5
(g6
g7
(lp11400
g5
(g6
g7
(lp11401
Vindicate
p11402
atp11403
Rp11404
(dp11405
g16
VVBP
p11406
sbag5
(g6
g7
(lp11407
g5
(g6
g7
(lp11408
Vthat
p11409
atp11410
Rp11411
(dp11412
g16
VIN
p11413
sbag5
(g6
g7
(lp11414
g5
(g6
g7
(lp11415
g5
(g6
g7
(lp11416
Vthese
p11417
atp11418
Rp11419
(dp11420
g16
VDT
p11421
sbag5
(g6
g7
(lp11422
Vperformance
p11423
atp11424
Rp11425
(dp11426
g16
VNN
p11427
sbag5
(g6
g7
(lp11428
Vimprovements
p11429
atp11430
Rp11431
(dp11432
g16
VNNS
p11433
sbatp11434
Rp11435
(dp11436
g16
VNP
p11437
sbag5
(g6
g7
(lp11438
g5
(g6
g7
(lp11439
Vwere
p11440
atp11441
Rp11442
(dp11443
g16
VVBD
p11444
sbag5
(g6
g7
(lp11445
g5
(g6
g7
(lp11446
Vachieved
p11447
atp11448
Rp11449
(dp11450
g16
VVBN
p11451
sbag5
(g6
g7
(lp11452
g5
(g6
g7
(lp11453
Vby
p11454
atp11455
Rp11456
(dp11457
g16
VIN
p11458
sbag5
(g6
g7
(lp11459
g5
(g6
g7
(lp11460
g5
(g6
g7
(lp11461
Vresolving
p11462
atp11463
Rp11464
(dp11465
g16
VVBG
p11466
sbag5
(g6
g7
(lp11467
g5
(g6
g7
(lp11468
Vthe
p11469
atp11470
Rp11471
(dp11472
g16
VDT
p11473
sbag5
(g6
g7
(lp11474
Verrors
p11475
atp11476
Rp11477
(dp11478
g16
VNNS
p11479
sbatp11480
Rp11481
(dp11482
g16
VNP
p11483
sbag5
(g6
g7
(lp11484
g5
(g6
g7
(lp11485
g5
(g6
g7
(lp11486
Vnot
p11487
atp11488
Rp11489
(dp11490
g16
VRB
p11491
sbag5
(g6
g7
(lp11492
Vonly
p11493
atp11494
Rp11495
(dp11496
g16
VJJ
p11497
sbatp11498
Rp11499
(dp11500
g16
VCONJP
p11501
sbag5
(g6
g7
(lp11502
g5
(g6
g7
(lp11503
Von
p11504
atp11505
Rp11506
(dp11507
g16
VIN
p11508
sbag5
(g6
g7
(lp11509
g5
(g6
g7
(lp11510
Vuser-initiative
p11511
atp11512
Rp11513
(dp11514
g16
VJJ
p11515
sbag5
(g6
g7
(lp11516
Vtopic
p11517
atp11518
Rp11519
(dp11520
g16
VNN
p11521
sbag5
(g6
g7
(lp11522
Vtransitions
p11523
atp11524
Rp11525
(dp11526
g16
VNNS
p11527
sbatp11528
Rp11529
(dp11530
g16
VNP
p11531
sbatp11532
Rp11533
(dp11534
g16
VPP
p11535
sbag5
(g6
g7
(lp11536
g376
atp11537
Rp11538
(dp11539
g16
g376
sbag5
(g6
g7
(lp11540
g5
(g6
g7
(lp11541
Vbut
p11542
atp11543
Rp11544
(dp11545
g16
VCC
p11546
sbag5
(g6
g7
(lp11547
Valso
p11548
atp11549
Rp11550
(dp11551
g16
VRB
p11552
sbatp11553
Rp11554
(dp11555
g16
VCONJP
p11556
sbag5
(g6
g7
(lp11557
g5
(g6
g7
(lp11558
Von
p11559
atp11560
Rp11561
(dp11562
g16
VIN
p11563
sbag5
(g6
g7
(lp11564
g5
(g6
g7
(lp11565
g5
(g6
g7
(lp11566
Vsystem-initiative
p11567
atp11568
Rp11569
(dp11570
g16
VJJ
p11571
sbag5
(g6
g7
(lp11572
Vcases
p11573
atp11574
Rp11575
(dp11576
g16
VNNS
p11577
sbatp11578
Rp11579
(dp11580
g16
VNP
p11581
sbag5
(g6
g7
(lp11582
g376
atp11583
Rp11584
(dp11585
g16
g376
sbag5
(g6
g7
(lp11586
g5
(g6
g7
(lp11587
g5
(g6
g7
(lp11588
Vwhich
p11589
atp11590
Rp11591
(dp11592
g16
VWDT
p11593
sbatp11594
Rp11595
(dp11596
g16
VWHNP
p11597
sbag5
(g6
g7
(lp11598
g5
(g6
g7
(lp11599
g5
(g6
g7
(lp11600
Vimplies
p11601
atp11602
Rp11603
(dp11604
g16
VVBZ
p11605
sbag5
(g6
g7
(lp11606
g5
(g6
g7
(lp11607
g5
(g6
g7
(lp11608
g5
(g6
g7
(lp11609
Vthe
p11610
atp11611
Rp11612
(dp11613
g16
VDT
p11614
sbag5
(g6
g7
(lp11615
Veffectiveness
p11616
atp11617
Rp11618
(dp11619
g16
VNN
p11620
sbatp11621
Rp11622
(dp11623
g16
VNP
p11624
sbag5
(g6
g7
(lp11625
g5
(g6
g7
(lp11626
Vof
p11627
atp11628
Rp11629
(dp11630
g16
VIN
p11631
sbag5
(g6
g7
(lp11632
g5
(g6
g7
(lp11633
g5
(g6
g7
(lp11634
Vthe
p11635
atp11636
Rp11637
(dp11638
g16
VDT
p11639
sbag5
(g6
g7
(lp11640
Vstructured
p11641
atp11642
Rp11643
(dp11644
g16
VJJ
p11645
sbag5
(g6
g7
(lp11646
Vknowledge
p11647
atp11648
Rp11649
(dp11650
g16
VNN
p11651
sbatp11652
Rp11653
(dp11654
g16
VNP
p11655
sbag5
(g6
g7
(lp11656
g5
(g6
g7
(lp11657
Vfrom
p11658
atp11659
Rp11660
(dp11661
g16
VIN
p11662
sbag5
(g6
g7
(lp11663
g5
(g6
g7
(lp11664
VWikipedia
p11665
atp11666
Rp11667
(dp11668
g16
VNNP
p11669
sbatp11670
Rp11671
(dp11672
g16
VNP
p11673
sbatp11674
Rp11675
(dp11676
g16
VPP
p11677
sbatp11678
Rp11679
(dp11680
g16
VNP
p11681
sbatp11682
Rp11683
(dp11684
g16
VPP
p11685
sbatp11686
Rp11687
(dp11688
g16
VNP
p11689
sbag5
(g6
g7
(lp11690
g5
(g6
g7
(lp11691
Vto
p11692
atp11693
Rp11694
(dp11695
g16
VTO
p11696
sbag5
(g6
g7
(lp11697
g5
(g6
g7
(lp11698
Vtrack
p11699
atp11700
Rp11701
(dp11702
g16
VVB
p11703
sbag5
(g6
g7
(lp11704
g5
(g6
g7
(lp11705
Vthe
p11706
atp11707
Rp11708
(dp11709
g16
VDT
p11710
sbag5
(g6
g7
(lp11711
Vtopics
p11712
atp11713
Rp11714
(dp11715
g16
VNNS
p11716
sbatp11717
Rp11718
(dp11719
g16
VNP
p11720
sbag5
(g6
g7
(lp11721
g5
(g6
g7
(lp11722
Vin
p11723
atp11724
Rp11725
(dp11726
g16
VIN
p11727
sbag5
(g6
g7
(lp11728
g5
(g6
g7
(lp11729
Vmixed-initiative
p11730
atp11731
Rp11732
(dp11733
g16
VJJ
p11734
sbag5
(g6
g7
(lp11735
Vdialogs
p11736
atp11737
Rp11738
(dp11739
g16
VNNS
p11740
sbatp11741
Rp11742
(dp11743
g16
VNP
p11744
sbatp11745
Rp11746
(dp11747
g16
VPP
p11748
sbatp11749
Rp11750
(dp11751
g16
VVP
p11752
sbatp11753
Rp11754
(dp11755
g16
VVP
p11756
sbatp11757
Rp11758
(dp11759
g16
g171
sbatp11760
Rp11761
(dp11762
g16
VVP
p11763
sbatp11764
Rp11765
(dp11766
g16
g171
sbatp11767
Rp11768
(dp11769
g16
VSBAR
p11770
sbatp11771
Rp11772
(dp11773
g16
VNP
p11774
sbatp11775
Rp11776
(dp11777
g16
VPP
p11778
sbatp11779
Rp11780
(dp11781
g16
VPP
p11782
sbatp11783
Rp11784
(dp11785
g16
VVP
p11786
sbatp11787
Rp11788
(dp11789
g16
g171
sbatp11790
Rp11791
(dp11792
g16
VPP
p11793
sbatp11794
Rp11795
(dp11796
g16
VVP
p11797
sbatp11798
Rp11799
(dp11800
g16
VVP
p11801
sbatp11802
Rp11803
(dp11804
g16
g171
sbatp11805
Rp11806
(dp11807
g16
VSBAR
p11808
sbatp11809
Rp11810
(dp11811
g16
VVP
p11812
sbatp11813
Rp11814
(dp11815
g16
g171
sbatp11816
Rp11817
(dp11818
g16
VROOT
p11819
sbasg176
(icmyPackage
CorE
p11820
(dp11821
g179
(lp11822
(I0
I14
tp11823
a(I0
I46
tp11824
asg183
g11788
sbsg184
(icmyPackage
CorE
p11825
(dp11826
g179
(lp11827
(I0
I0
tp11828
a(I0
I12
tp11829
asg183
g5
(g6
g7
(lp11830
g11397
ag11404
ag11411
ag11435
ag11442
ag11449
atp11831
Rp11832
(dp11833
g16
g194
sbsbsg195
g2675
sg220
(lp11834
(isxpPackage
sxpSent
p11835
(dp11836
g224
(lp11837
I25
asg226
VThe error distributions in Figure 4 indicate that these performance improvements were achieved by resolving the errors not only on user-initiative topic transitions, but also on system-initiative cases, which implies the effectiveness of the structured knowledge from Wikipedia to track the topics in mixed-initiative dialogs
p11838
sg228
I8
sg210
I73
sg229
I28
sbasba(icmyPackage
CELink
p11839
(dp11840
g3
(lp11841
g5
(g6
g7
(lp11842
g5
(g6
g7
(lp11843
g5
(g6
g7
(lp11844
g5
(g6
g7
(lp11845
VThis
p11846
atp11847
Rp11848
(dp11849
g16
VDT
p11850
sbag5
(g6
g7
(lp11851
Vpaper
p11852
atp11853
Rp11854
(dp11855
g16
VNN
p11856
sbatp11857
Rp11858
(dp11859
g16
VNP
p11860
sbag5
(g6
g7
(lp11861
g5
(g6
g7
(lp11862
Vpresented
p11863
atp11864
Rp11865
(dp11866
g16
VVBD
p11867
sbag5
(g6
g7
(lp11868
g5
(g6
g7
(lp11869
g307
atp11870
Rp11871
(dp11872
g16
VDT
p11873
sbag5
(g6
g7
(lp11874
Vcomposite
p11875
atp11876
Rp11877
(dp11878
g16
VJJ
p11879
sbag5
(g6
g7
(lp11880
Vkernel
p11881
atp11882
Rp11883
(dp11884
g16
VNN
p11885
sbag5
(g6
g7
(lp11886
Vapproach
p11887
atp11888
Rp11889
(dp11890
g16
VNN
p11891
sbatp11892
Rp11893
(dp11894
g16
VNP
p11895
sbag5
(g6
g7
(lp11896
g5
(g6
g7
(lp11897
Vfor
p11898
atp11899
Rp11900
(dp11901
g16
VIN
p11902
sbag5
(g6
g7
(lp11903
g5
(g6
g7
(lp11904
g5
(g6
g7
(lp11905
Vdialog
p11906
atp11907
Rp11908
(dp11909
g16
VVBG
p11910
sbag5
(g6
g7
(lp11911
g5
(g6
g7
(lp11912
Vtopic
p11913
atp11914
Rp11915
(dp11916
g16
VNN
p11917
sbag5
(g6
g7
(lp11918
Vtracking
p11919
atp11920
Rp11921
(dp11922
g16
VNN
p11923
sbatp11924
Rp11925
(dp11926
g16
VNP
p11927
sbatp11928
Rp11929
(dp11930
g16
VVP
p11931
sbatp11932
Rp11933
(dp11934
g16
g171
sbatp11935
Rp11936
(dp11937
g16
VPP
p11938
sbatp11939
Rp11940
(dp11941
g16
VVP
p11942
sbatp11943
Rp11944
(dp11945
g16
g171
sbatp11946
Rp11947
(dp11948
g16
VROOT
p11949
sbasg176
(icmyPackage
CorE
p11950
(dp11951
g179
(lp11952
(I0
I8
tp11953
a(I0
I10
tp11954
asg183
g11933
sbsg184
(icmyPackage
CorE
p11955
(dp11956
g179
(lp11957
(I0
I0
tp11958
a(I0
I6
tp11959
asg183
g5
(g6
g7
(lp11960
g11858
ag11865
ag11893
atp11961
Rp11962
(dp11963
g16
g194
sbsbsg195
g2223
sg220
(lp11964
(isxpPackage
sxpSent
p11965
(dp11966
g224
(lp11967
I26
asg226
VThis paper presented a composite kernel approach for dialog topic tracking
p11968
sg228
I9
sg210
I74
sg229
I29
sbasba.