(lp0
(icmyPackage
CELink
p1
(dp2
S'PTreelst'
p3
(lp4
ccopy_reg
_reconstructor
p5
(cnltk.tree
Tree
p6
c__builtin__
list
p7
(lp8
g5
(g6
g7
(lp9
g5
(g6
g7
(lp10
g5
(g6
g7
(lp11
VOur
p12
atp13
Rp14
(dp15
S'_label'
p16
VPRP$
p17
sbag5
(g6
g7
(lp18
Vanalysis
p19
atp20
Rp21
(dp22
g16
VNN
p23
sbatp24
Rp25
(dp26
g16
VNP
p27
sbag5
(g6
g7
(lp28
g5
(g6
g7
(lp29
Vis
p30
atp31
Rp32
(dp33
g16
VVBZ
p34
sbag5
(g6
g7
(lp35
g5
(g6
g7
(lp36
Vbased
p37
atp38
Rp39
(dp40
g16
VVBN
p41
sbag5
(g6
g7
(lp42
g5
(g6
g7
(lp43
Von
p44
atp45
Rp46
(dp47
g16
VIN
p48
sbag5
(g6
g7
(lp49
g5
(g6
g7
(lp50
g5
(g6
g7
(lp51
Vmanual
p52
atp53
Rp54
(dp55
g16
VJJ
p56
sbag5
(g6
g7
(lp57
Vevaluations
p58
atp59
Rp60
(dp61
g16
VNNS
p62
sbatp63
Rp64
(dp65
g16
VNP
p66
sbag5
(g6
g7
(lp67
g5
(g6
g7
(lp68
Vof
p69
atp70
Rp71
(dp72
g16
VIN
p73
sbag5
(g6
g7
(lp74
g5
(g6
g7
(lp75
g5
(g6
g7
(lp76
Vtranslations
p77
atp78
Rp79
(dp80
g16
VNNS
p81
sbatp82
Rp83
(dp84
g16
VNP
p85
sbag5
(g6
g7
(lp86
g5
(g6
g7
(lp87
Vof
p88
atp89
Rp90
(dp91
g16
VIN
p92
sbag5
(g6
g7
(lp93
g5
(g6
g7
(lp94
Vnews
p95
atp96
Rp97
(dp98
g16
VNN
p99
sbatp100
Rp101
(dp102
g16
VNP
p103
sbatp104
Rp105
(dp106
g16
VPP
p107
sbatp108
Rp109
(dp110
g16
VNP
p111
sbatp112
Rp113
(dp114
g16
VPP
p115
sbatp116
Rp117
(dp118
g16
VNP
p119
sbatp120
Rp121
(dp122
g16
VPP
p123
sbag5
(g6
g7
(lp124
g5
(g6
g7
(lp125
Vfrom
p126
atp127
Rp128
(dp129
g16
VIN
p130
sbag5
(g6
g7
(lp131
g5
(g6
g7
(lp132
VChinese
p133
atp134
Rp135
(dp136
g16
VNNP
p137
sbag5
(g6
g7
(lp138
Vand
p139
atp140
Rp141
(dp142
g16
VCC
p143
sbag5
(g6
g7
(lp144
VArabic
p145
atp146
Rp147
(dp148
g16
VNNP
p149
sbatp150
Rp151
(dp152
g16
VNP
p153
sbatp154
Rp155
(dp156
g16
VPP
p157
sbag5
(g6
g7
(lp158
g5
(g6
g7
(lp159
Vto
p160
atp161
Rp162
(dp163
g16
VTO
p164
sbag5
(g6
g7
(lp165
g5
(g6
g7
(lp166
VEnglish
p167
atp168
Rp169
(dp170
g16
VNNP
p171
sbatp172
Rp173
(dp174
g16
VNP
p175
sbatp176
Rp177
(dp178
g16
VPP
p179
sbatp180
Rp181
(dp182
g16
VVP
p183
sbatp184
Rp185
(dp186
g16
VVP
p187
sbatp188
Rp189
(dp190
g16
VS
p191
sbatp192
Rp193
(dp194
g16
VROOT
p195
sbasS'cause'
p196
(icmyPackage
CorE
p197
(dp198
S'span'
p199
(lp200
(I0
I5
tp201
a(I0
I16
tp202
asS'PTree'
p203
g5
(g6
g7
(lp204
g117
ag155
ag177
atp205
Rp206
(dp207
g16
S'ROOT'
p208
sbsbsS'effect'
p209
(icmyPackage
CorE
p210
(dp211
g199
(lp212
(I0
I0
tp213
a(I0
I1
tp214
asg203
g25
sbsS'pt'
p215
(icmyPackage
pattern
p216
(dp217
S'pfreq'
p218
I0
sS'moresent'
p219
I0
sS'main_token'
p220
(lp221
(lp222
S'based'
p223
aS'on'
p224
aasS'ptype'
p225
(lp226
I4
aI1
aI3
asS'cases'
p227
(lp228
S'The time of the subsequent synchronization intervals is based on the time that this command is initiated.'
p229
asS'id'
p230
I115
sS'constraints'
p231
(lp232
(lp233
S'&V-ing/&NP@R@'
p234
aS'(&Clause@R@)'
p235
aS'&BE'
p236
aS'(&ADV)'
p237
aa(lp238
S'&NP@C@'
p239
aS'(&Clause@C@)'
p240
aasbsS'sInfo'
p241
(lp242
(isxpPackage
sxpSent
p243
(dp244
S'sysCEidlst'
p245
(lp246
I0
asS'sentence_text'
p247
VOur analysis is based on manual evaluations of translations of news from Chinese and Arabic to English
p248
sS'id_sec'
p249
I1
sg230
I1
sS'id_para'
p250
I0
sbasba(icmyPackage
CELink
p251
(dp252
g3
(lp253
g5
(g6
g7
(lp254
g5
(g6
g7
(lp255
g5
(g6
g7
(lp256
g5
(g6
g7
(lp257
g5
(g6
g7
(lp258
VAlso
p259
atp260
Rp261
(dp262
g16
VRB
p263
sbatp264
Rp265
(dp266
g16
VADVP
p267
sbag5
(g6
g7
(lp268
Vrelated
p269
atp270
Rp271
(dp272
g16
VVBN
p273
sbag5
(g6
g7
(lp274
g5
(g6
g7
(lp275
Vto
p276
atp277
Rp278
(dp279
g16
VTO
p280
sbag5
(g6
g7
(lp281
g5
(g6
g7
(lp282
Vlower
p283
atp284
Rp285
(dp286
g16
VJJR
p287
sbag5
(g6
g7
(lp288
Vtranslation
p289
atp290
Rp291
(dp292
g16
VNN
p293
sbag5
(g6
g7
(lp294
Vquality
p295
atp296
Rp297
(dp298
g16
VNN
p299
sbatp300
Rp301
(dp302
g16
VNP
p303
sbatp304
Rp305
(dp306
g16
VPP
p307
sbatp308
Rp309
(dp310
g16
VVP
p311
sbag5
(g6
g7
(lp312
g5
(g6
g7
(lp313
Vis
p314
atp315
Rp316
(dp317
g16
VVBZ
p318
sbatp319
Rp320
(dp321
g16
VVP
p322
sbag5
(g6
g7
(lp323
g5
(g6
g7
(lp324
Vthe
p325
atp326
Rp327
(dp328
g16
VDT
p329
sbag5
(g6
g7
(lp330
Vneed
p331
atp332
Rp333
(dp334
g16
VNN
p335
sbag5
(g6
g7
(lp336
g5
(g6
g7
(lp337
g5
(g6
g7
(lp338
Vto
p339
atp340
Rp341
(dp342
g16
VTO
p343
sbag5
(g6
g7
(lp344
g5
(g6
g7
(lp345
Vemploy
p346
atp347
Rp348
(dp349
g16
VVB
p350
sbag5
(g6
g7
(lp351
g5
(g6
g7
(lp352
g5
(g6
g7
(lp353
g5
(g6
g7
(lp354
Vmultiple
p355
atp356
Rp357
(dp358
g16
VJJ
p359
sbag5
(g6
g7
(lp360
Vexplicit
p361
atp362
Rp363
(dp364
g16
VJJ
p365
sbag5
(g6
g7
(lp366
Vdiscourse
p367
atp368
Rp369
(dp370
g16
VNN
p371
sbag5
(g6
g7
(lp372
Vconnectives
p373
atp374
Rp375
(dp376
g16
VNNS
p377
sbatp378
Rp379
(dp380
g16
VNP
p381
sbag5
(g6
g7
(lp382
g5
(g6
g7
(lp383
V-LRB-
p384
atp385
Rp386
(dp387
g16
V-LRB-
p388
sbag5
(g6
g7
(lp389
g5
(g6
g7
(lp390
Vbecause
p391
atp392
Rp393
(dp394
g16
VIN
p395
sbag5
(g6
g7
(lp396
g5
(g6
g7
(lp397
V,
p398
atp399
Rp400
(dp401
g16
g398
sbag5
(g6
g7
(lp402
g5
(g6
g7
(lp403
Vbut
p404
atp405
Rp406
(dp407
g16
VCC
p408
sbatp409
Rp410
(dp411
g16
VADVP
p412
sbag5
(g6
g7
(lp413
g398
atp414
Rp415
(dp416
g16
g398
sbag5
(g6
g7
(lp417
g5
(g6
g7
(lp418
Vetc.
p419
atp420
Rp421
(dp422
g16
VVBZ
p423
sbatp424
Rp425
(dp426
g16
VVP
p427
sbatp428
Rp429
(dp430
g16
g191
sbatp431
Rp432
(dp433
g16
VSBAR
p434
sbag5
(g6
g7
(lp435
V-RRB-
p436
atp437
Rp438
(dp439
g16
V-RRB-
p440
sbatp441
Rp442
(dp443
g16
VPRN
p444
sbatp445
Rp446
(dp447
g16
VNP
p448
sbag5
(g6
g7
(lp449
g398
atp450
Rp451
(dp452
g16
g398
sbag5
(g6
g7
(lp453
g5
(g6
g7
(lp454
Vas
p455
atp456
Rp457
(dp458
g16
VRB
p459
sbag5
(g6
g7
(lp460
Vwell
p461
atp462
Rp463
(dp464
g16
VRB
p465
sbag5
(g6
g7
(lp466
Vas
p467
atp468
Rp469
(dp470
g16
VIN
p471
sbatp472
Rp473
(dp474
g16
VCONJP
p475
sbag5
(g6
g7
(lp476
g5
(g6
g7
(lp477
g5
(g6
g7
(lp478
Vthe
p479
atp480
Rp481
(dp482
g16
VDT
p483
sbag5
(g6
g7
(lp484
Vpresence
p485
atp486
Rp487
(dp488
g16
VNN
p489
sbatp490
Rp491
(dp492
g16
VNP
p493
sbag5
(g6
g7
(lp494
g5
(g6
g7
(lp495
Vof
p496
atp497
Rp498
(dp499
g16
VIN
p500
sbag5
(g6
g7
(lp501
g5
(g6
g7
(lp502
g5
(g6
g7
(lp503
Vambiguous
p504
atp505
Rp506
(dp507
g16
VJJ
p508
sbag5
(g6
g7
(lp509
Vdiscourse
p510
atp511
Rp512
(dp513
g16
VNN
p514
sbag5
(g6
g7
(lp515
Vconnectives
p516
atp517
Rp518
(dp519
g16
VNNS
p520
sbatp521
Rp522
(dp523
g16
VNP
p524
sbag5
(g6
g7
(lp525
g5
(g6
g7
(lp526
Vin
p527
atp528
Rp529
(dp530
g16
VIN
p531
sbag5
(g6
g7
(lp532
g5
(g6
g7
(lp533
Vthe
p534
atp535
Rp536
(dp537
g16
VDT
p538
sbag5
(g6
g7
(lp539
VEnglish
p540
atp541
Rp542
(dp543
g16
VJJ
p544
sbag5
(g6
g7
(lp545
Vtranslation
p546
atp547
Rp548
(dp549
g16
VNN
p550
sbatp551
Rp552
(dp553
g16
VNP
p554
sbatp555
Rp556
(dp557
g16
VPP
p558
sbatp559
Rp560
(dp561
g16
VNP
p562
sbatp563
Rp564
(dp565
g16
VPP
p566
sbatp567
Rp568
(dp569
g16
VNP
p570
sbatp571
Rp572
(dp573
g16
VNP
p574
sbatp575
Rp576
(dp577
g16
VVP
p578
sbatp579
Rp580
(dp581
g16
VVP
p582
sbatp583
Rp584
(dp585
g16
g191
sbatp586
Rp587
(dp588
g16
VNP
p589
sbatp590
Rp591
(dp592
g16
VSINV
p593
sbatp594
Rp595
(dp596
g16
VROOT
p597
sbasg196
(icmyPackage
CorE
p598
(dp599
g199
(lp600
(I0
I17
tp601
a(I0
I20
tp602
asg203
g429
sbsg209
(icmyPackage
CorE
p603
(dp604
g199
(lp605
(I0
I0
tp606
a(I0
I15
tp607
asg203
g5
(g6
g7
(lp608
g309
ag320
ag327
ag333
ag341
ag348
ag379
ag386
atp609
Rp610
(dp611
g16
g208
sbsbsg215
(icmyPackage
pattern
p612
(dp613
g218
I407
sg219
I1
sg220
(lp614
(lp615
S'because'
p616
aasg225
(lp617
I3
aI1
aI1
asg227
(lp618
S'It ends up in burnout and less production, because we inevitably run out of energy.'
p619
asg230
I76
sg231
(lp620
(lp621
S'&R'
p622
aS'(,)'
p623
aS'(&ADV)'
p624
aa(lp625
S'&C'
p626
aasbsg241
(lp627
(isxpPackage
sxpSent
p628
(dp629
g245
(lp630
I1
asg247
VAlso related to lower translation quality is the need to employ multiple explicit discourse connectives ( because, but , etc.), as well as the presence of ambiguous discourse connectives in the English translation
p631
sg249
I1
sg230
I3
sg250
I0
sbasba(icmyPackage
CELink
p632
(dp633
g3
(lp634
g5
(g6
g7
(lp635
g5
(g6
g7
(lp636
g5
(g6
g7
(lp637
g5
(g6
g7
(lp638
VDiscourse
p639
atp640
Rp641
(dp642
g16
VJJ
p643
sbag5
(g6
g7
(lp644
Vstructure
p645
atp646
Rp647
(dp648
g16
VNN
p649
sbatp650
Rp651
(dp652
g16
VNP
p653
sbag5
(g6
g7
(lp654
g5
(g6
g7
(lp655
Vhas
p656
atp657
Rp658
(dp659
g16
VVBZ
p660
sbag5
(g6
g7
(lp661
g5
(g6
g7
(lp662
Vlargely
p663
atp664
Rp665
(dp666
g16
VRB
p667
sbatp668
Rp669
(dp670
g16
VADVP
p671
sbag5
(g6
g7
(lp672
g5
(g6
g7
(lp673
Vbeen
p674
atp675
Rp676
(dp677
g16
VVBN
p678
sbag5
(g6
g7
(lp679
g5
(g6
g7
(lp680
Vconsidered
p681
atp682
Rp683
(dp684
g16
VVBN
p685
sbag5
(g6
g7
(lp686
g5
(g6
g7
(lp687
g5
(g6
g7
(lp688
Virrelevant
p689
atp690
Rp691
(dp692
g16
VJJ
p693
sbag5
(g6
g7
(lp694
g5
(g6
g7
(lp695
Vto
p696
atp697
Rp698
(dp699
g16
VTO
p700
sbag5
(g6
g7
(lp701
g5
(g6
g7
(lp702
VMT
p703
atp704
Rp705
(dp706
g16
VNNP
p707
sbatp708
Rp709
(dp710
g16
VNP
p711
sbatp712
Rp713
(dp714
g16
VPP
p715
sbatp716
Rp717
(dp718
g16
VADJP
p719
sbag5
(g6
g7
(lp720
g398
atp721
Rp722
(dp723
g16
g398
sbag5
(g6
g7
(lp724
g5
(g6
g7
(lp725
Vmostly
p726
atp727
Rp728
(dp729
g16
VRB
p730
sbag5
(g6
g7
(lp731
Vdue
p732
atp733
Rp734
(dp735
g16
VJJ
p736
sbatp737
Rp738
(dp739
g16
VADJP
p740
sbag5
(g6
g7
(lp741
g5
(g6
g7
(lp742
Vto
p743
atp744
Rp745
(dp746
g16
VTO
p747
sbag5
(g6
g7
(lp748
g5
(g6
g7
(lp749
Vthe
p750
atp751
Rp752
(dp753
g16
VDT
p754
sbag5
(g6
g7
(lp755
Vassumption
p756
atp757
Rp758
(dp759
g16
VNN
p760
sbatp761
Rp762
(dp763
g16
VNP
p764
sbatp765
Rp766
(dp767
g16
VPP
p768
sbatp769
Rp770
(dp771
g16
VADJP
p772
sbag5
(g6
g7
(lp773
g5
(g6
g7
(lp774
Vthat
p775
atp776
Rp777
(dp778
g16
VIN
p779
sbag5
(g6
g7
(lp780
g5
(g6
g7
(lp781
g5
(g6
g7
(lp782
Vdiscourse
p783
atp784
Rp785
(dp786
g16
VNN
p787
sbag5
(g6
g7
(lp788
Vanalysis
p789
atp790
Rp791
(dp792
g16
VNN
p793
sbatp794
Rp795
(dp796
g16
VNP
p797
sbag5
(g6
g7
(lp798
g5
(g6
g7
(lp799
Vis
p800
atp801
Rp802
(dp803
g16
VVBZ
p804
sbag5
(g6
g7
(lp805
g5
(g6
g7
(lp806
Vneeded
p807
atp808
Rp809
(dp810
g16
VVBN
p811
sbag5
(g6
g7
(lp812
g5
(g6
g7
(lp813
g5
(g6
g7
(lp814
Vto
p815
atp816
Rp817
(dp818
g16
VTO
p819
sbag5
(g6
g7
(lp820
g5
(g6
g7
(lp821
Vinterpret
p822
atp823
Rp824
(dp825
g16
VVB
p826
sbag5
(g6
g7
(lp827
g5
(g6
g7
(lp828
Vmulti-sentential
p829
atp830
Rp831
(dp832
g16
VJJ
p833
sbag5
(g6
g7
(lp834
Vtext
p835
atp836
Rp837
(dp838
g16
VNN
p839
sbatp840
Rp841
(dp842
g16
VNP
p843
sbag5
(g6
g7
(lp844
g5
(g6
g7
(lp845
Vwhile
p846
atp847
Rp848
(dp849
g16
VIN
p850
sbag5
(g6
g7
(lp851
g5
(g6
g7
(lp852
g5
(g6
g7
(lp853
Vstatistical
p854
atp855
Rp856
(dp857
g16
VJJ
p858
sbag5
(g6
g7
(lp859
VMT
p860
atp861
Rp862
(dp863
g16
VNNP
p864
sbag5
(g6
g7
(lp865
Vsystems
p866
atp867
Rp868
(dp869
g16
VNNS
p870
sbatp871
Rp872
(dp873
g16
VNP
p874
sbag5
(g6
g7
(lp875
g5
(g6
g7
(lp876
Vare
p877
atp878
Rp879
(dp880
g16
VVBP
p881
sbag5
(g6
g7
(lp882
g5
(g6
g7
(lp883
Vtrained
p884
atp885
Rp886
(dp887
g16
VJJ
p888
sbag5
(g6
g7
(lp889
g5
(g6
g7
(lp890
g5
(g6
g7
(lp891
Vto
p892
atp893
Rp894
(dp895
g16
VTO
p896
sbag5
(g6
g7
(lp897
g5
(g6
g7
(lp898
Vtranslate
p899
atp900
Rp901
(dp902
g16
VVB
p903
sbag5
(g6
g7
(lp904
g5
(g6
g7
(lp905
g5
(g6
g7
(lp906
Va
p907
atp908
Rp909
(dp910
g16
VDT
p911
sbag5
(g6
g7
(lp912
Vsingle
p913
atp914
Rp915
(dp916
g16
VJJ
p917
sbag5
(g6
g7
(lp918
Vsentence
p919
atp920
Rp921
(dp922
g16
VNN
p923
sbatp924
Rp925
(dp926
g16
VNP
p927
sbag5
(g6
g7
(lp928
g5
(g6
g7
(lp929
Vin
p930
atp931
Rp932
(dp933
g16
VIN
p934
sbag5
(g6
g7
(lp935
g5
(g6
g7
(lp936
Vone
p937
atp938
Rp939
(dp940
g16
VCD
p941
sbag5
(g6
g7
(lp942
Vlanguage
p943
atp944
Rp945
(dp946
g16
VNN
p947
sbatp948
Rp949
(dp950
g16
VNP
p951
sbatp952
Rp953
(dp954
g16
VPP
p955
sbatp956
Rp957
(dp958
g16
VNP
p959
sbag5
(g6
g7
(lp960
g5
(g6
g7
(lp961
Vinto
p962
atp963
Rp964
(dp965
g16
VIN
p966
sbag5
(g6
g7
(lp967
g5
(g6
g7
(lp968
g5
(g6
g7
(lp969
g907
atp970
Rp971
(dp972
g16
VDT
p973
sbag5
(g6
g7
(lp974
Vsingle
p975
atp976
Rp977
(dp978
g16
VJJ
p979
sbag5
(g6
g7
(lp980
Vsentence
p981
atp982
Rp983
(dp984
g16
VNN
p985
sbatp986
Rp987
(dp988
g16
VNP
p989
sbag5
(g6
g7
(lp990
g5
(g6
g7
(lp991
Vin
p992
atp993
Rp994
(dp995
g16
VIN
p996
sbag5
(g6
g7
(lp997
g5
(g6
g7
(lp998
Vanother
p999
atp1000
Rp1001
(dp1002
g16
VDT
p1003
sbatp1004
Rp1005
(dp1006
g16
VNP
p1007
sbatp1008
Rp1009
(dp1010
g16
VPP
p1011
sbatp1012
Rp1013
(dp1014
g16
VNP
p1015
sbatp1016
Rp1017
(dp1018
g16
VPP
p1019
sbatp1020
Rp1021
(dp1022
g16
VVP
p1023
sbatp1024
Rp1025
(dp1026
g16
VVP
p1027
sbatp1028
Rp1029
(dp1030
g16
g191
sbatp1031
Rp1032
(dp1033
g16
VADJP
p1034
sbatp1035
Rp1036
(dp1037
g16
VVP
p1038
sbatp1039
Rp1040
(dp1041
g16
g191
sbatp1042
Rp1043
(dp1044
g16
VSBAR
p1045
sbatp1046
Rp1047
(dp1048
g16
VVP
p1049
sbatp1050
Rp1051
(dp1052
g16
VVP
p1053
sbatp1054
Rp1055
(dp1056
g16
g191
sbatp1057
Rp1058
(dp1059
g16
VVP
p1060
sbatp1061
Rp1062
(dp1063
g16
VVP
p1064
sbatp1065
Rp1066
(dp1067
g16
g191
sbatp1068
Rp1069
(dp1070
g16
VSBAR
p1071
sbatp1072
Rp1073
(dp1074
g16
VVP
p1075
sbatp1076
Rp1077
(dp1078
g16
VVP
p1079
sbatp1080
Rp1081
(dp1082
g16
VVP
p1083
sbatp1084
Rp1085
(dp1086
g16
g191
sbatp1087
Rp1088
(dp1089
g16
VROOT
p1090
sbasg196
(icmyPackage
CorE
p1091
(dp1092
g199
(lp1093
(I0
I13
tp1094
a(I0
I17
tp1095
asg203
g5
(g6
g7
(lp1096
g762
ag777
ag795
atp1097
Rp1098
(dp1099
g16
g208
sbsbsg209
(icmyPackage
CorE
p1100
(dp1101
g199
(lp1102
(I0
I18
tp1103
a(I0
I43
tp1104
asg203
g1062
sbsg215
(icmyPackage
pattern
p1105
(dp1106
g218
I0
sg219
I0
sg220
(lp1107
(lp1108
S'due'
p1109
aS'to'
p1110
aasg225
(lp1111
I2
aI1
aI1
asg227
(lp1112
S'Due to limitations in size and legal rules, our efforts did not blossom'
p1113
asg230
I71
sg231
(lp1114
(lp1115
a(lp1116
S'&NP@C@'
p1117
aS'(,)'
p1118
aS'&R'
p1119
aasbsg241
(lp1120
(isxpPackage
sxpSent
p1121
(dp1122
g245
(lp1123
I2
asg247
VDiscourse structure has largely been considered irrelevant to MT, mostly due to the assumption that discourse analysis is needed to interpret multi-sentential text while statistical MT systems are trained to translate a single sentence in one language into a single sentence in another
p1124
sg249
I2
sg230
I8
sg250
I2
sbasba(icmyPackage
CELink
p1125
(dp1126
g3
(lp1127
g5
(g6
g7
(lp1128
g5
(g6
g7
(lp1129
g5
(g6
g7
(lp1130
g5
(g6
g7
(lp1131
VSimilarly
p1132
atp1133
Rp1134
(dp1135
g16
VRB
p1136
sbatp1137
Rp1138
(dp1139
g16
VADVP
p1140
sbag5
(g6
g7
(lp1141
g5
(g6
g7
(lp1142
g5
(g6
g7
(lp1143
Vdiscourse
p1144
atp1145
Rp1146
(dp1147
g16
VNN
p1148
sbatp1149
Rp1150
(dp1151
g16
VNP
p1152
sbag5
(g6
g7
(lp1153
g5
(g6
g7
(lp1154
g5
(g6
g7
(lp1155
g5
(g6
g7
(lp1156
g5
(g6
g7
(lp1157
Vconnectives
p1158
atp1159
Rp1160
(dp1161
g16
VVBZ
p1162
sbag5
(g6
g7
(lp1163
g5
(g6
g7
(lp1164
Vlike
p1165
atp1166
Rp1167
(dp1168
g16
VIN
p1169
sbag5
(g6
g7
(lp1170
Vbecause
p1171
atp1172
Rp1173
(dp1174
g16
VRB
p1175
sbatp1176
Rp1177
(dp1178
g16
VPP
p1179
sbatp1180
Rp1181
(dp1182
g16
VVP
p1183
sbag5
(g6
g7
(lp1184
g398
atp1185
Rp1186
(dp1187
g16
g398
sbag5
(g6
g7
(lp1188
Vbut
p1189
atp1190
Rp1191
(dp1192
g16
VCC
p1193
sbag5
(g6
g7
(lp1194
g398
atp1195
Rp1196
(dp1197
g16
g398
sbag5
(g6
g7
(lp1198
g5
(g6
g7
(lp1199
Vsince
p1200
atp1201
Rp1202
(dp1203
g16
VIN
p1204
sbag5
(g6
g7
(lp1205
Vand
p1206
atp1207
Rp1208
(dp1209
g16
VCC
p1210
sbag5
(g6
g7
(lp1211
Vwhile
p1212
atp1213
Rp1214
(dp1215
g16
VIN
p1216
sbag5
(g6
g7
(lp1217
g5
(g6
g7
(lp1218
g5
(g6
g7
(lp1219
g5
(g6
g7
(lp1220
Voften
p1221
atp1222
Rp1223
(dp1224
g16
VRB
p1225
sbag5
(g6
g7
(lp1226
Vrelate
p1227
atp1228
Rp1229
(dp1230
g16
VJJ
p1231
sbatp1232
Rp1233
(dp1234
g16
VADJP
p1235
sbag5
(g6
g7
(lp1236
Vinformation
p1237
atp1238
Rp1239
(dp1240
g16
VNN
p1241
sbatp1242
Rp1243
(dp1244
g16
VNP
p1245
sbag5
(g6
g7
(lp1246
g5
(g6
g7
(lp1247
Vexpressed
p1248
atp1249
Rp1250
(dp1251
g16
VVBD
p1252
sbag5
(g6
g7
(lp1253
g5
(g6
g7
(lp1254
Vin
p1255
atp1256
Rp1257
(dp1258
g16
VIN
p1259
sbag5
(g6
g7
(lp1260
g5
(g6
g7
(lp1261
Vsimple
p1262
atp1263
Rp1264
(dp1265
g16
VJJ
p1266
sbag5
(g6
g7
(lp1267
Vsentential
p1268
atp1269
Rp1270
(dp1271
g16
VJJ
p1272
sbag5
(g6
g7
(lp1273
Vclauses
p1274
atp1275
Rp1276
(dp1277
g16
VNNS
p1278
sbatp1279
Rp1280
(dp1281
g16
VNP
p1282
sbatp1283
Rp1284
(dp1285
g16
VPP
p1286
sbatp1287
Rp1288
(dp1289
g16
VVP
p1290
sbatp1291
Rp1292
(dp1293
g16
g191
sbatp1294
Rp1295
(dp1296
g16
VSBAR
p1297
sbatp1298
Rp1299
(dp1300
g16
VVP
p1301
sbatp1302
Rp1303
(dp1304
g16
g191
sbatp1305
Rp1306
(dp1307
g16
VSBAR
p1308
sbatp1309
Rp1310
(dp1311
g16
VNP
p1312
sbatp1313
Rp1314
(dp1315
g16
VFRAG
p1316
sbatp1317
Rp1318
(dp1319
g16
VROOT
p1320
sbasg196
(icmyPackage
CorE
p1321
(dp1322
g199
(lp1323
(I0
I9
tp1324
a(I0
I17
tp1325
asg203
g5
(g6
g7
(lp1326
g1208
ag1214
ag1243
ag1250
ag1257
ag1264
ag1270
atp1327
Rp1328
(dp1329
g16
g208
sbsbsg209
(icmyPackage
CorE
p1330
(dp1331
g199
(lp1332
(I0
I0
tp1333
a(I0
I6
tp1334
asg203
g5
(g6
g7
(lp1335
g1138
ag1150
ag1181
ag1186
ag1191
atp1336
Rp1337
(dp1338
g16
g208
sbsbsg215
(icmyPackage
pattern
p1339
(dp1340
g218
I23
sg219
I1
sg220
(lp1341
(lp1342
S'since'
p1343
aasg225
(lp1344
I3
aI1
aI1
asg227
(lp1345
S'This is one of the simplest cases since the surface is so thin.'
p1346
aS'He could not answer the question, since he had not made up his mind.'
p1347
aS'That manager has been a basket case here since his wife left him.'
p1348
asg230
I79
sg231
(lp1349
(lp1350
S'&R@NCTime@'
p1351
aS'(,)'
p1352
aa(lp1353
S'&C@NCTime@'
p1354
aasbsg241
(lp1355
(isxpPackage
sxpSent
p1356
(dp1357
g245
(lp1358
I3
aI4
asg247
VSimilarly discourse connectives like because, but, since and while often relate information expressed in simple sentential clauses
p1359
sg249
I2
sg230
I12
sg250
I3
sbasba(icmyPackage
CELink
p1360
(dp1361
g3
(lp1362
g1337
asg196
(icmyPackage
CorE
p1363
(dp1364
g199
(lp1365
(I0
I5
tp1366
a(I0
I6
tp1367
asg203
g5
(g6
g7
(lp1368
g1186
ag1191
atp1369
Rp1370
(dp1371
g16
g208
sbsbsg209
(icmyPackage
CorE
p1372
(dp1373
g199
(lp1374
(I0
I0
tp1375
a(I0
I3
tp1376
asg203
g5
(g6
g7
(lp1377
g1138
ag1150
ag1160
ag1167
atp1378
Rp1379
(dp1380
g16
g208
sbsbsg215
g612
sg241
(lp1381
g1356
asba(icmyPackage
CELink
p1382
(dp1383
g3
(lp1384
g5
(g6
g7
(lp1385
g5
(g6
g7
(lp1386
g5
(g6
g7
(lp1387
g5
(g6
g7
(lp1388
VBy
p1389
atp1390
Rp1391
(dp1392
g16
VIN
p1393
sbag5
(g6
g7
(lp1394
g5
(g6
g7
(lp1395
g5
(g6
g7
(lp1396
Vcomparing
p1397
atp1398
Rp1399
(dp1400
g16
VVBG
p1401
sbag5
(g6
g7
(lp1402
g5
(g6
g7
(lp1403
VMT
p1404
atp1405
Rp1406
(dp1407
g16
VNNP
p1408
sbag5
(g6
g7
(lp1409
Voutput
p1410
atp1411
Rp1412
(dp1413
g16
VNN
p1414
sbatp1415
Rp1416
(dp1417
g16
VNP
p1418
sbag5
(g6
g7
(lp1419
g5
(g6
g7
(lp1420
Vwith
p1421
atp1422
Rp1423
(dp1424
g16
VIN
p1425
sbag5
(g6
g7
(lp1426
g5
(g6
g7
(lp1427
Vpost-edited
p1428
atp1429
Rp1430
(dp1431
g16
VJJ
p1432
sbag5
(g6
g7
(lp1433
Vreferences
p1434
atp1435
Rp1436
(dp1437
g16
VNNS
p1438
sbatp1439
Rp1440
(dp1441
g16
VNP
p1442
sbatp1443
Rp1444
(dp1445
g16
VPP
p1446
sbatp1447
Rp1448
(dp1449
g16
VVP
p1450
sbatp1451
Rp1452
(dp1453
g16
g191
sbatp1454
Rp1455
(dp1456
g16
VPP
p1457
sbag5
(g6
g7
(lp1458
g398
atp1459
Rp1460
(dp1461
g16
g398
sbag5
(g6
g7
(lp1462
g5
(g6
g7
(lp1463
VHTER
p1464
atp1465
Rp1466
(dp1467
g16
VNNP
p1468
sbatp1469
Rp1470
(dp1471
g16
VNP
p1472
sbag5
(g6
g7
(lp1473
g5
(g6
g7
(lp1474
Vprovides
p1475
atp1476
Rp1477
(dp1478
g16
VVBZ
p1479
sbag5
(g6
g7
(lp1480
g5
(g6
g7
(lp1481
g5
(g6
g7
(lp1482
g5
(g6
g7
(lp1483
Vmore
p1484
atp1485
Rp1486
(dp1487
g16
VRBR
p1488
sbag5
(g6
g7
(lp1489
Vreliable
p1490
atp1491
Rp1492
(dp1493
g16
VJJ
p1494
sbatp1495
Rp1496
(dp1497
g16
VADJP
p1498
sbag5
(g6
g7
(lp1499
Vestimates
p1500
atp1501
Rp1502
(dp1503
g16
VNNS
p1504
sbatp1505
Rp1506
(dp1507
g16
VNP
p1508
sbag5
(g6
g7
(lp1509
g5
(g6
g7
(lp1510
Vof
p1511
atp1512
Rp1513
(dp1514
g16
VIN
p1515
sbag5
(g6
g7
(lp1516
g5
(g6
g7
(lp1517
Vtranslation
p1518
atp1519
Rp1520
(dp1521
g16
VNN
p1522
sbag5
(g6
g7
(lp1523
Vquality
p1524
atp1525
Rp1526
(dp1527
g16
VNN
p1528
sbatp1529
Rp1530
(dp1531
g16
VNP
p1532
sbatp1533
Rp1534
(dp1535
g16
VPP
p1536
sbatp1537
Rp1538
(dp1539
g16
VNP
p1540
sbag5
(g6
g7
(lp1541
g5
(g6
g7
(lp1542
Vthan
p1543
atp1544
Rp1545
(dp1546
g16
VIN
p1547
sbag5
(g6
g7
(lp1548
g5
(g6
g7
(lp1549
g5
(g6
g7
(lp1550
Vusing
p1551
atp1552
Rp1553
(dp1554
g16
VVBG
p1555
sbag5
(g6
g7
(lp1556
g5
(g6
g7
(lp1557
Vtranslated
p1558
atp1559
Rp1560
(dp1561
g16
VJJ
p1562
sbag5
(g6
g7
(lp1563
Vreferences
p1564
atp1565
Rp1566
(dp1567
g16
VNNS
p1568
sbatp1569
Rp1570
(dp1571
g16
VNP
p1572
sbatp1573
Rp1574
(dp1575
g16
VVP
p1576
sbatp1577
Rp1578
(dp1579
g16
g191
sbatp1580
Rp1581
(dp1582
g16
VPP
p1583
sbag5
(g6
g7
(lp1584
g398
atp1585
Rp1586
(dp1587
g16
g398
sbag5
(g6
g7
(lp1588
g5
(g6
g7
(lp1589
Vespecially
p1590
atp1591
Rp1592
(dp1593
g16
VRB
p1594
sbatp1595
Rp1596
(dp1597
g16
VADVP
p1598
sbag5
(g6
g7
(lp1599
g5
(g6
g7
(lp1600
Vat
p1601
atp1602
Rp1603
(dp1604
g16
VIN
p1605
sbag5
(g6
g7
(lp1606
g5
(g6
g7
(lp1607
Vthe
p1608
atp1609
Rp1610
(dp1611
g16
VDT
p1612
sbag5
(g6
g7
(lp1613
Vsegment
p1614
atp1615
Rp1616
(dp1617
g16
VNN
p1618
sbag5
(g6
g7
(lp1619
Vlevel
p1620
atp1621
Rp1622
(dp1623
g16
VNN
p1624
sbatp1625
Rp1626
(dp1627
g16
VNP
p1628
sbatp1629
Rp1630
(dp1631
g16
VPP
p1632
sbatp1633
Rp1634
(dp1635
g16
VVP
p1636
sbatp1637
Rp1638
(dp1639
g16
g191
sbatp1640
Rp1641
(dp1642
g16
VROOT
p1643
sbasg196
(icmyPackage
CorE
p1644
(dp1645
g199
(lp1646
(I0
I1
tp1647
a(I0
I6
tp1648
asg203
g1452
sbsg209
(icmyPackage
CorE
p1649
(dp1650
g199
(lp1651
(I0
I7
tp1652
a(I0
I25
tp1653
asg203
g5
(g6
g7
(lp1654
g1460
ag1470
ag1634
atp1655
Rp1656
(dp1657
g16
g208
sbsbsg215
(icmyPackage
pattern
p1658
(dp1659
g218
I0
sg219
I0
sg220
(lp1660
(lp1661
(lp1662
S'by'
p1663
aS'through'
p1664
aaasg225
(lp1665
I2
aI1
aI1
asg227
(lp1666
S'By extracting comments and comparisons of the cited articles and then organizing them according to the time of publication discovers and displays how the area has developed as a research literature.'
p1667
asg230
I67
sg231
(lp1668
(lp1669
a(lp1670
S'&V-ing@C@'
p1671
aS'&R'
p1672
aasbsg241
(lp1673
(isxpPackage
sxpSent
p1674
(dp1675
g245
(lp1676
I5
asg247
VBy comparing MT output with post-edited references, HTER provides more reliable estimates of translation quality than using translated references, especially at the segment level
p1677
sg249
I3
sg230
I16
sg250
I5
sbasba(icmyPackage
CELink
p1678
(dp1679
g3
(lp1680
g5
(g6
g7
(lp1681
g5
(g6
g7
(lp1682
g5
(g6
g7
(lp1683
g5
(g6
g7
(lp1684
VFor
p1685
atp1686
Rp1687
(dp1688
g16
VIN
p1689
sbag5
(g6
g7
(lp1690
g5
(g6
g7
(lp1691
g5
(g6
g7
(lp1692
Vdiscourse
p1693
atp1694
Rp1695
(dp1696
g16
VNN
p1697
sbag5
(g6
g7
(lp1698
Vfactors
p1699
atp1700
Rp1701
(dp1702
g16
VNNS
p1703
sbatp1704
Rp1705
(dp1706
g16
VNP
p1707
sbag5
(g6
g7
(lp1708
g5
(g6
g7
(lp1709
g5
(g6
g7
(lp1710
Vthat
p1711
atp1712
Rp1713
(dp1714
g16
VWDT
p1715
sbatp1716
Rp1717
(dp1718
g16
VWHNP
p1719
sbag5
(g6
g7
(lp1720
g5
(g6
g7
(lp1721
g5
(g6
g7
(lp1722
Vare
p1723
atp1724
Rp1725
(dp1726
g16
VVBP
p1727
sbag5
(g6
g7
(lp1728
g5
(g6
g7
(lp1729
g5
(g6
g7
(lp1730
Vsignificant
p1731
atp1732
Rp1733
(dp1734
g16
VJJ
p1735
sbag5
(g6
g7
(lp1736
g5
(g6
g7
(lp1737
Vat
p1738
atp1739
Rp1740
(dp1741
g16
VIN
p1742
sbag5
(g6
g7
(lp1743
g5
(g6
g7
(lp1744
Vthe
p1745
atp1746
Rp1747
(dp1748
g16
VDT
p1749
sbag5
(g6
g7
(lp1750
g5
(g6
g7
(lp1751
V95
p1752
atp1753
Rp1754
(dp1755
g16
VCD
p1756
sbag5
(g6
g7
(lp1757
V%
p1758
atp1759
Rp1760
(dp1761
g16
VNN
p1762
sbatp1763
Rp1764
(dp1765
g16
VADJP
p1766
sbag5
(g6
g7
(lp1767
Vconfidence
p1768
atp1769
Rp1770
(dp1771
g16
VNN
p1772
sbag5
(g6
g7
(lp1773
Vlevel
p1774
atp1775
Rp1776
(dp1777
g16
VNN
p1778
sbatp1779
Rp1780
(dp1781
g16
VNP
p1782
sbatp1783
Rp1784
(dp1785
g16
VPP
p1786
sbatp1787
Rp1788
(dp1789
g16
VADJP
p1790
sbag5
(g6
g7
(lp1791
Vor
p1792
atp1793
Rp1794
(dp1795
g16
VCC
p1796
sbag5
(g6
g7
(lp1797
g5
(g6
g7
(lp1798
Vhigher
p1799
atp1800
Rp1801
(dp1802
g16
VJJR
p1803
sbatp1804
Rp1805
(dp1806
g16
VADJP
p1807
sbatp1808
Rp1809
(dp1810
g16
VADJP
p1811
sbag5
(g6
g7
(lp1812
g5
(g6
g7
(lp1813
Vaccording
p1814
atp1815
Rp1816
(dp1817
g16
VVBG
p1818
sbag5
(g6
g7
(lp1819
g5
(g6
g7
(lp1820
Vto
p1821
atp1822
Rp1823
(dp1824
g16
VTO
p1825
sbag5
(g6
g7
(lp1826
g5
(g6
g7
(lp1827
Vthe
p1828
atp1829
Rp1830
(dp1831
g16
VDT
p1832
sbag5
(g6
g7
(lp1833
VANOVA
p1834
atp1835
Rp1836
(dp1837
g16
VNNP
p1838
sbag5
(g6
g7
(lp1839
Vanalysis
p1840
atp1841
Rp1842
(dp1843
g16
VNN
p1844
sbatp1845
Rp1846
(dp1847
g16
VNP
p1848
sbatp1849
Rp1850
(dp1851
g16
VPP
p1852
sbatp1853
Rp1854
(dp1855
g16
VPP
p1856
sbatp1857
Rp1858
(dp1859
g16
VVP
p1860
sbatp1861
Rp1862
(dp1863
g16
g191
sbatp1864
Rp1865
(dp1866
g16
VSBAR
p1867
sbatp1868
Rp1869
(dp1870
g16
VNP
p1871
sbatp1872
Rp1873
(dp1874
g16
VPP
p1875
sbag5
(g6
g7
(lp1876
g398
atp1877
Rp1878
(dp1879
g16
g398
sbag5
(g6
g7
(lp1880
g5
(g6
g7
(lp1881
Vwe
p1882
atp1883
Rp1884
(dp1885
g16
VPRP
p1886
sbatp1887
Rp1888
(dp1889
g16
VNP
p1890
sbag5
(g6
g7
(lp1891
g5
(g6
g7
(lp1892
Vprovide
p1893
atp1894
Rp1895
(dp1896
g16
VVBP
p1897
sbag5
(g6
g7
(lp1898
g5
(g6
g7
(lp1899
g5
(g6
g7
(lp1900
Vdetailed
p1901
atp1902
Rp1903
(dp1904
g16
VJJ
p1905
sbag5
(g6
g7
(lp1906
Vbreakdown
p1907
atp1908
Rp1909
(dp1910
g16
VNN
p1911
sbatp1912
Rp1913
(dp1914
g16
VNP
p1915
sbag5
(g6
g7
(lp1916
g5
(g6
g7
(lp1917
Vof
p1918
atp1919
Rp1920
(dp1921
g16
VIN
p1922
sbag5
(g6
g7
(lp1923
g5
(g6
g7
(lp1924
g5
(g6
g7
(lp1925
Vthe
p1926
atp1927
Rp1928
(dp1929
g16
VDT
p1930
sbag5
(g6
g7
(lp1931
Vsystem
p1932
atp1933
Rp1934
(dp1935
g16
VNN
p1936
sbag5
(g6
g7
(lp1937
VHTER
p1938
atp1939
Rp1940
(dp1941
g16
VNN
p1942
sbatp1943
Rp1944
(dp1945
g16
VNP
p1946
sbag5
(g6
g7
(lp1947
g5
(g6
g7
(lp1948
Vfor
p1949
atp1950
Rp1951
(dp1952
g16
VIN
p1953
sbag5
(g6
g7
(lp1954
g5
(g6
g7
(lp1955
g5
(g6
g7
(lp1956
Veach
p1957
atp1958
Rp1959
(dp1960
g16
VDT
p1961
sbag5
(g6
g7
(lp1962
Vvalue
p1963
atp1964
Rp1965
(dp1966
g16
VNN
p1967
sbatp1968
Rp1969
(dp1970
g16
VNP
p1971
sbag5
(g6
g7
(lp1972
g5
(g6
g7
(lp1973
Vof
p1974
atp1975
Rp1976
(dp1977
g16
VIN
p1978
sbag5
(g6
g7
(lp1979
g5
(g6
g7
(lp1980
Vthe
p1981
atp1982
Rp1983
(dp1984
g16
VDT
p1985
sbag5
(g6
g7
(lp1986
Vdiscourse
p1987
atp1988
Rp1989
(dp1990
g16
VNN
p1991
sbag5
(g6
g7
(lp1992
Vfactor
p1993
atp1994
Rp1995
(dp1996
g16
VNN
p1997
sbatp1998
Rp1999
(dp2000
g16
VNP
p2001
sbatp2002
Rp2003
(dp2004
g16
VPP
p2005
sbatp2006
Rp2007
(dp2008
g16
VNP
p2009
sbatp2010
Rp2011
(dp2012
g16
VPP
p2013
sbatp2014
Rp2015
(dp2016
g16
VNP
p2017
sbatp2018
Rp2019
(dp2020
g16
VPP
p2021
sbatp2022
Rp2023
(dp2024
g16
VNP
p2025
sbatp2026
Rp2027
(dp2028
g16
VVP
p2029
sbatp2030
Rp2031
(dp2032
g16
g191
sbatp2033
Rp2034
(dp2035
g16
VROOT
p2036
sbasg196
(icmyPackage
CorE
p2037
(dp2038
g199
(lp2039
(I0
I16
tp2040
a(I0
I18
tp2041
asg203
g1846
sbsg209
(icmyPackage
CorE
p2042
(dp2043
g199
(lp2044
(I0
I20
tp2045
a(I0
I34
tp2046
asg203
g5
(g6
g7
(lp2047
g1888
ag2027
atp2048
Rp2049
(dp2050
g16
g208
sbsbsg215
(icmyPackage
pattern
p2051
(dp2052
g218
I0
sg219
I0
sg220
(lp2053
(lp2054
S'according'
p2055
aS'to'
p2056
aa(lp2057
S','
p2058
aasg225
(lp2059
I2
aI1
aI1
asg227
(lp2060
S'According to the efficiency principle and regional principle, the radius of the network should be small.'
p2061
asg230
I56
sg231
(lp2062
(lp2063
a(lp2064
S'&NP@C@'
p2065
aa(lp2066
S'&R'
p2067
aasbsg241
(lp2068
(isxpPackage
sxpSent
p2069
(dp2070
g245
(lp2071
I6
asg247
VFor discourse factors that are significant at the 95% confidence level or higher according to the ANOVA analysis, we provide detailed breakdown of the system HTER for each value of the discourse factor
p2072
sg249
I3
sg230
I25
sg250
I7
sbasba(icmyPackage
CELink
p2073
(dp2074
g3
(lp2075
g5
(g6
g7
(lp2076
g5
(g6
g7
(lp2077
g5
(g6
g7
(lp2078
g5
(g6
g7
(lp2079
VIn
p2080
atp2081
Rp2082
(dp2083
g16
VIN
p2084
sbag5
(g6
g7
(lp2085
g5
(g6
g7
(lp2086
Vthis
p2087
atp2088
Rp2089
(dp2090
g16
VDT
p2091
sbag5
(g6
g7
(lp2092
Vpaper
p2093
atp2094
Rp2095
(dp2096
g16
VNN
p2097
sbatp2098
Rp2099
(dp2100
g16
VNP
p2101
sbatp2102
Rp2103
(dp2104
g16
VPP
p2105
sbag5
(g6
g7
(lp2106
g5
(g6
g7
(lp2107
Vwe
p2108
atp2109
Rp2110
(dp2111
g16
VPRP
p2112
sbatp2113
Rp2114
(dp2115
g16
VNP
p2116
sbag5
(g6
g7
(lp2117
g5
(g6
g7
(lp2118
Vdo
p2119
atp2120
Rp2121
(dp2122
g16
VVBP
p2123
sbag5
(g6
g7
(lp2124
Vnot
p2125
atp2126
Rp2127
(dp2128
g16
VRB
p2129
sbag5
(g6
g7
(lp2130
g5
(g6
g7
(lp2131
g5
(g6
g7
(lp2132
Vcompare
p2133
atp2134
Rp2135
(dp2136
g16
VVB
p2137
sbag5
(g6
g7
(lp2138
g5
(g6
g7
(lp2139
g5
(g6
g7
(lp2140
Vthe
p2141
atp2142
Rp2143
(dp2144
g16
VDT
p2145
sbag5
(g6
g7
(lp2146
Vperformance
p2147
atp2148
Rp2149
(dp2150
g16
VNN
p2151
sbatp2152
Rp2153
(dp2154
g16
VNP
p2155
sbag5
(g6
g7
(lp2156
g5
(g6
g7
(lp2157
Vof
p2158
atp2159
Rp2160
(dp2161
g16
VIN
p2162
sbag5
(g6
g7
(lp2163
g5
(g6
g7
(lp2164
Vindividual
p2165
atp2166
Rp2167
(dp2168
g16
VJJ
p2169
sbag5
(g6
g7
(lp2170
Vsystems
p2171
atp2172
Rp2173
(dp2174
g16
VNNS
p2175
sbatp2176
Rp2177
(dp2178
g16
VNP
p2179
sbatp2180
Rp2181
(dp2182
g16
VPP
p2183
sbatp2184
Rp2185
(dp2186
g16
VNP
p2187
sbatp2188
Rp2189
(dp2190
g16
VVP
p2191
sbag5
(g6
g7
(lp2192
g398
atp2193
Rp2194
(dp2195
g16
g398
sbag5
(g6
g7
(lp2196
g5
(g6
g7
(lp2197
Vbut
p2198
atp2199
Rp2200
(dp2201
g16
VCC
p2202
sbag5
(g6
g7
(lp2203
Vinstead
p2204
atp2205
Rp2206
(dp2207
g16
VRB
p2208
sbatp2209
Rp2210
(dp2211
g16
VCONJP
p2212
sbag5
(g6
g7
(lp2213
g5
(g6
g7
(lp2214
Vseek
p2215
atp2216
Rp2217
(dp2218
g16
VVB
p2219
sbag5
(g6
g7
(lp2220
g5
(g6
g7
(lp2221
g5
(g6
g7
(lp2222
Vto
p2223
atp2224
Rp2225
(dp2226
g16
VTO
p2227
sbag5
(g6
g7
(lp2228
g5
(g6
g7
(lp2229
Vunderstand
p2230
atp2231
Rp2232
(dp2233
g16
VVB
p2234
sbag5
(g6
g7
(lp2235
g5
(g6
g7
(lp2236
Vif
p2237
atp2238
Rp2239
(dp2240
g16
VIN
p2241
sbag5
(g6
g7
(lp2242
g5
(g6
g7
(lp2243
g5
(g6
g7
(lp2244
g907
atp2245
Rp2246
(dp2247
g16
VDT
p2248
sbag5
(g6
g7
(lp2249
Vdiscourse
p2250
atp2251
Rp2252
(dp2253
g16
VNN
p2254
sbag5
(g6
g7
(lp2255
Vphenomena
p2256
atp2257
Rp2258
(dp2259
g16
VNNS
p2260
sbatp2261
Rp2262
(dp2263
g16
VNP
p2264
sbag5
(g6
g7
(lp2265
g5
(g6
g7
(lp2266
Vis
p2267
atp2268
Rp2269
(dp2270
g16
VVBZ
p2271
sbag5
(g6
g7
(lp2272
g5
(g6
g7
(lp2273
Vproblematic
p2274
atp2275
Rp2276
(dp2277
g16
VJJ
p2278
sbag5
(g6
g7
(lp2279
g5
(g6
g7
(lp2280
Vacross
p2281
atp2282
Rp2283
(dp2284
g16
VIN
p2285
sbag5
(g6
g7
(lp2286
g5
(g6
g7
(lp2287
Vsystems
p2288
atp2289
Rp2290
(dp2291
g16
VNNS
p2292
sbatp2293
Rp2294
(dp2295
g16
VNP
p2296
sbatp2297
Rp2298
(dp2299
g16
VPP
p2300
sbatp2301
Rp2302
(dp2303
g16
VADJP
p2304
sbatp2305
Rp2306
(dp2307
g16
VVP
p2308
sbatp2309
Rp2310
(dp2311
g16
g191
sbatp2312
Rp2313
(dp2314
g16
VSBAR
p2315
sbatp2316
Rp2317
(dp2318
g16
VVP
p2319
sbatp2320
Rp2321
(dp2322
g16
VVP
p2323
sbatp2324
Rp2325
(dp2326
g16
g191
sbatp2327
Rp2328
(dp2329
g16
VVP
p2330
sbatp2331
Rp2332
(dp2333
g16
VVP
p2334
sbatp2335
Rp2336
(dp2337
g16
VVP
p2338
sbatp2339
Rp2340
(dp2341
g16
g191
sbatp2342
Rp2343
(dp2344
g16
VROOT
p2345
sbasg196
(icmyPackage
CorE
p2346
(dp2347
g199
(lp2348
(I0
I19
tp2349
a(I0
I25
tp2350
asg203
g2310
sbsg209
(icmyPackage
CorE
p2351
(dp2352
g199
(lp2353
(I0
I0
tp2354
a(I0
I17
tp2355
asg203
g5
(g6
g7
(lp2356
g2103
ag2114
ag2121
ag2127
ag2189
ag2194
ag2210
ag2217
ag2225
ag2232
atp2357
Rp2358
(dp2359
g16
g208
sbsbsg215
(icmyPackage
pattern
p2360
(dp2361
g218
I0
sg219
I0
sg220
(lp2362
(lp2363
S'if'
p2364
aasg225
(lp2365
I1
aI1
aI1
asg227
(lp2366
S'An effective knowledge flow network enables a research team to be very powerful in generating new knowledge if every node can innovate and output new knowledge to appropriate members.'
p2367
asg230
I14
sg231
(lp2368
(lp2369
S'&R@Complete@'
p2370
aa(lp2371
S'&C@Complete@'
p2372
aasbsg241
(lp2373
(isxpPackage
sxpSent
p2374
(dp2375
g245
(lp2376
I7
asg247
VIn this paper we do not compare the performance of individual systems, but instead seek to understand if a discourse phenomena is problematic across systems
p2377
sg249
I3
sg230
I26
sg250
I8
sbasba(icmyPackage
CELink
p2378
(dp2379
g3
(lp2380
g5
(g6
g7
(lp2381
g5
(g6
g7
(lp2382
g5
(g6
g7
(lp2383
g5
(g6
g7
(lp2384
g5
(g6
g7
(lp2385
V2
p2386
atp2387
Rp2388
(dp2389
g16
VCD
p2390
sbag5
(g6
g7
(lp2391
g2386
atp2392
Rp2393
(dp2394
g16
VCD
p2395
sbatp2396
Rp2397
(dp2398
g16
VNP
p2399
sbag5
(g6
g7
(lp2400
VFor
p2401
atp2402
Rp2403
(dp2404
g16
VIN
p2405
sbag5
(g6
g7
(lp2406
g5
(g6
g7
(lp2407
g5
(g6
g7
(lp2408
Vthe
p2409
atp2410
Rp2411
(dp2412
g16
VDT
p2413
sbag5
(g6
g7
(lp2414
Vreaders
p2415
atp2416
Rp2417
(dp2418
g16
VNNS
p2419
sbatp2420
Rp2421
(dp2422
g16
VNP
p2423
sbag5
(g6
g7
(lp2424
g5
(g6
g7
(lp2425
Vwith
p2426
atp2427
Rp2428
(dp2429
g16
VIN
p2430
sbag5
(g6
g7
(lp2431
g5
(g6
g7
(lp2432
g5
(g6
g7
(lp2433
Vkeen
p2434
atp2435
Rp2436
(dp2437
g16
VJJ
p2438
sbag5
(g6
g7
(lp2439
Vinterest
p2440
atp2441
Rp2442
(dp2443
g16
VNN
p2444
sbatp2445
Rp2446
(dp2447
g16
VNP
p2448
sbag5
(g6
g7
(lp2449
g5
(g6
g7
(lp2450
Vin
p2451
atp2452
Rp2453
(dp2454
g16
VIN
p2455
sbag5
(g6
g7
(lp2456
g5
(g6
g7
(lp2457
Vsystem
p2458
atp2459
Rp2460
(dp2461
g16
VNN
p2462
sbag5
(g6
g7
(lp2463
Vcomparison
p2464
atp2465
Rp2466
(dp2467
g16
VNN
p2468
sbatp2469
Rp2470
(dp2471
g16
VNP
p2472
sbatp2473
Rp2474
(dp2475
g16
VPP
p2476
sbatp2477
Rp2478
(dp2479
g16
VNP
p2480
sbatp2481
Rp2482
(dp2483
g16
VPP
p2484
sbatp2485
Rp2486
(dp2487
g16
VNP
p2488
sbatp2489
Rp2490
(dp2491
g16
VPP
p2492
sbag5
(g6
g7
(lp2493
g398
atp2494
Rp2495
(dp2496
g16
g398
sbag5
(g6
g7
(lp2497
g5
(g6
g7
(lp2498
Vwe
p2499
atp2500
Rp2501
(dp2502
g16
VPRP
p2503
sbatp2504
Rp2505
(dp2506
g16
VNP
p2507
sbag5
(g6
g7
(lp2508
g5
(g6
g7
(lp2509
Vnote
p2510
atp2511
Rp2512
(dp2513
g16
VVBP
p2514
sbag5
(g6
g7
(lp2515
g5
(g6
g7
(lp2516
Vthat
p2517
atp2518
Rp2519
(dp2520
g16
VIN
p2521
sbag5
(g6
g7
(lp2522
g5
(g6
g7
(lp2523
g5
(g6
g7
(lp2524
Vaccording
p2525
atp2526
Rp2527
(dp2528
g16
VVBG
p2529
sbag5
(g6
g7
(lp2530
g5
(g6
g7
(lp2531
Vto
p2532
atp2533
Rp2534
(dp2535
g16
VTO
p2536
sbag5
(g6
g7
(lp2537
g5
(g6
g7
(lp2538
g5
(g6
g7
(lp2539
VANOVA
p2540
atp2541
Rp2542
(dp2543
g16
VNNP
p2544
sbag5
(g6
g7
(lp2545
Vnone
p2546
atp2547
Rp2548
(dp2549
g16
VNN
p2550
sbatp2551
Rp2552
(dp2553
g16
VNP
p2554
sbag5
(g6
g7
(lp2555
g5
(g6
g7
(lp2556
Vof
p2557
atp2558
Rp2559
(dp2560
g16
VIN
p2561
sbag5
(g6
g7
(lp2562
g5
(g6
g7
(lp2563
g5
(g6
g7
(lp2564
Vthe
p2565
atp2566
Rp2567
(dp2568
g16
VDT
p2569
sbag5
(g6
g7
(lp2570
Vdifferences
p2571
atp2572
Rp2573
(dp2574
g16
VNNS
p2575
sbatp2576
Rp2577
(dp2578
g16
VNP
p2579
sbag5
(g6
g7
(lp2580
g5
(g6
g7
(lp2581
Vin
p2582
atp2583
Rp2584
(dp2585
g16
VIN
p2586
sbag5
(g6
g7
(lp2587
g5
(g6
g7
(lp2588
g5
(g6
g7
(lp2589
Vsystem
p2590
atp2591
Rp2592
(dp2593
g16
VNN
p2594
sbag5
(g6
g7
(lp2595
Vperformance
p2596
atp2597
Rp2598
(dp2599
g16
VNN
p2600
sbatp2601
Rp2602
(dp2603
g16
VNP
p2604
sbag5
(g6
g7
(lp2605
g5
(g6
g7
(lp2606
Von
p2607
atp2608
Rp2609
(dp2610
g16
VIN
p2611
sbag5
(g6
g7
(lp2612
g5
(g6
g7
(lp2613
Vthis
p2614
atp2615
Rp2616
(dp2617
g16
VDT
p2618
sbatp2619
Rp2620
(dp2621
g16
VNP
p2622
sbatp2623
Rp2624
(dp2625
g16
VPP
p2626
sbatp2627
Rp2628
(dp2629
g16
VNP
p2630
sbatp2631
Rp2632
(dp2633
g16
VPP
p2634
sbatp2635
Rp2636
(dp2637
g16
VNP
p2638
sbatp2639
Rp2640
(dp2641
g16
VPP
p2642
sbatp2643
Rp2644
(dp2645
g16
VNP
p2646
sbatp2647
Rp2648
(dp2649
g16
VPP
p2650
sbatp2651
Rp2652
(dp2653
g16
VPP
p2654
sbag5
(g6
g7
(lp2655
g5
(g6
g7
(lp2656
Vdata
p2657
atp2658
Rp2659
(dp2660
g16
VNNS
p2661
sbatp2662
Rp2663
(dp2664
g16
VNP
p2665
sbag5
(g6
g7
(lp2666
g5
(g6
g7
(lp2667
Vis
p2668
atp2669
Rp2670
(dp2671
g16
VVBZ
p2672
sbag5
(g6
g7
(lp2673
g5
(g6
g7
(lp2674
Vstatistically
p2675
atp2676
Rp2677
(dp2678
g16
VRB
p2679
sbag5
(g6
g7
(lp2680
Vsignificant
p2681
atp2682
Rp2683
(dp2684
g16
VJJ
p2685
sbatp2686
Rp2687
(dp2688
g16
VADJP
p2689
sbatp2690
Rp2691
(dp2692
g16
VVP
p2693
sbatp2694
Rp2695
(dp2696
g16
g191
sbatp2697
Rp2698
(dp2699
g16
VSBAR
p2700
sbatp2701
Rp2702
(dp2703
g16
VVP
p2704
sbatp2705
Rp2706
(dp2707
g16
g191
sbatp2708
Rp2709
(dp2710
g16
VROOT
p2711
sbasg196
(icmyPackage
CorE
p2712
(dp2713
g199
(lp2714
(I0
I17
tp2715
a(I0
I27
tp2716
asg203
g5
(g6
g7
(lp2717
g2644
ag2663
atp2718
Rp2719
(dp2720
g16
g208
sbsbsg209
(icmyPackage
CorE
p2721
(dp2722
g199
(lp2723
(I0
I0
tp2724
a(I0
I14
tp2725
asg203
g5
(g6
g7
(lp2726
g2490
ag2495
ag2505
ag2512
ag2519
atp2727
Rp2728
(dp2729
g16
g208
sbsbsg215
(icmyPackage
pattern
p2730
(dp2731
g218
I0
sg219
I0
sg220
(lp2732
(lp2733
S'according'
p2734
aS'to'
p2735
aasg225
(lp2736
I2
aI1
aI1
asg227
(lp2737
S'There could be different ways to arrange pictures in displays but picture should be selected according to the core sentences and arranged near the core sentences according to the semantic locality principle.'
p2738
asg230
I55
sg231
(lp2739
(lp2740
S'&R'
p2741
aS'(,)'
p2742
aa(lp2743
S'&NP@C@'
p2744
aasbsg241
(lp2745
(isxpPackage
sxpSent
p2746
(dp2747
g245
(lp2748
I8
asg247
V2 2 For the readers with keen interest in system comparison, we note that according to ANOVA none of the differences in system performance on this data is statistically significant
p2749
sg249
I3
sg230
I27
sg250
I8
sbasba(icmyPackage
CELink
p2750
(dp2751
g3
(lp2752
g5
(g6
g7
(lp2753
g5
(g6
g7
(lp2754
g5
(g6
g7
(lp2755
g5
(g6
g7
(lp2756
VIt
p2757
atp2758
Rp2759
(dp2760
g16
VPRP
p2761
sbatp2762
Rp2763
(dp2764
g16
VNP
p2765
sbag5
(g6
g7
(lp2766
g5
(g6
g7
(lp2767
Vstands
p2768
atp2769
Rp2770
(dp2771
g16
VVBZ
p2772
sbag5
(g6
g7
(lp2773
g5
(g6
g7
(lp2774
g5
(g6
g7
(lp2775
Vto
p2776
atp2777
Rp2778
(dp2779
g16
VTO
p2780
sbag5
(g6
g7
(lp2781
g5
(g6
g7
(lp2782
Vreason
p2783
atp2784
Rp2785
(dp2786
g16
VVB
p2787
sbag5
(g6
g7
(lp2788
g5
(g6
g7
(lp2789
Vthat
p2790
atp2791
Rp2792
(dp2793
g16
VIN
p2794
sbag5
(g6
g7
(lp2795
g5
(g6
g7
(lp2796
g5
(g6
g7
(lp2797
g5
(g6
g7
(lp2798
Vlong
p2799
atp2800
Rp2801
(dp2802
g16
VJJ
p2803
sbag5
(g6
g7
(lp2804
Vsentences
p2805
atp2806
Rp2807
(dp2808
g16
VNNS
p2809
sbatp2810
Rp2811
(dp2812
g16
VNP
p2813
sbag5
(g6
g7
(lp2814
g5
(g6
g7
(lp2815
Vwill
p2816
atp2817
Rp2818
(dp2819
g16
VMD
p2820
sbag5
(g6
g7
(lp2821
g5
(g6
g7
(lp2822
Vbe
p2823
atp2824
Rp2825
(dp2826
g16
VVB
p2827
sbag5
(g6
g7
(lp2828
g5
(g6
g7
(lp2829
Vharder
p2830
atp2831
Rp2832
(dp2833
g16
VJJR
p2834
sbatp2835
Rp2836
(dp2837
g16
VADJP
p2838
sbag5
(g6
g7
(lp2839
g5
(g6
g7
(lp2840
g5
(g6
g7
(lp2841
Vto
p2842
atp2843
Rp2844
(dp2845
g16
VTO
p2846
sbag5
(g6
g7
(lp2847
g5
(g6
g7
(lp2848
Vprocess
p2849
atp2850
Rp2851
(dp2852
g16
VVB
p2853
sbag5
(g6
g7
(lp2854
g5
(g6
g7
(lp2855
Vautomatically
p2856
atp2857
Rp2858
(dp2859
g16
VRB
p2860
sbatp2861
Rp2862
(dp2863
g16
VADVP
p2864
sbatp2865
Rp2866
(dp2867
g16
VVP
p2868
sbatp2869
Rp2870
(dp2871
g16
VVP
p2872
sbatp2873
Rp2874
(dp2875
g16
g191
sbatp2876
Rp2877
(dp2878
g16
VVP
p2879
sbatp2880
Rp2881
(dp2882
g16
VVP
p2883
sbatp2884
Rp2885
(dp2886
g16
g191
sbag5
(g6
g7
(lp2887
Vand
p2888
atp2889
Rp2890
(dp2891
g16
VCC
p2892
sbag5
(g6
g7
(lp2893
g5
(g6
g7
(lp2894
g5
(g6
g7
(lp2895
Vthis
p2896
atp2897
Rp2898
(dp2899
g16
VDT
p2900
sbag5
(g6
g7
(lp2901
Vreasoning
p2902
atp2903
Rp2904
(dp2905
g16
VNN
p2906
sbatp2907
Rp2908
(dp2909
g16
VNP
p2910
sbag5
(g6
g7
(lp2911
g5
(g6
g7
(lp2912
Vhas
p2913
atp2914
Rp2915
(dp2916
g16
VVBZ
p2917
sbag5
(g6
g7
(lp2918
g5
(g6
g7
(lp2919
Vmotivated
p2920
atp2921
Rp2922
(dp2923
g16
VVBN
p2924
sbag5
(g6
g7
(lp2925
g5
(g6
g7
(lp2926
Vthe
p2927
atp2928
Rp2929
(dp2930
g16
VDT
p2931
sbag5
(g6
g7
(lp2932
Vfirst
p2933
atp2934
Rp2935
(dp2936
g16
VJJ
p2937
sbag5
(g6
g7
(lp2938
Vapproaches
p2939
atp2940
Rp2941
(dp2942
g16
VNNS
p2943
sbatp2944
Rp2945
(dp2946
g16
VNP
p2947
sbag5
(g6
g7
(lp2948
g5
(g6
g7
(lp2949
Vto
p2950
atp2951
Rp2952
(dp2953
g16
VTO
p2954
sbag5
(g6
g7
(lp2955
g5
(g6
g7
(lp2956
Vtext
p2957
atp2958
Rp2959
(dp2960
g16
VNN
p2961
sbag5
(g6
g7
(lp2962
Vsimplification
p2963
atp2964
Rp2965
(dp2966
g16
VNN
p2967
sbag5
(g6
g7
(lp2968
V-LSB-
p2969
atp2970
Rp2971
(dp2972
g16
VNNP
p2973
sbag5
(g6
g7
(lp2974
V3
p2975
atp2976
Rp2977
(dp2978
g16
VNNP
p2979
sbag5
(g6
g7
(lp2980
V-RSB-
p2981
atp2982
Rp2983
(dp2984
g16
VNNP
p2985
sbatp2986
Rp2987
(dp2988
g16
VNP
p2989
sbatp2990
Rp2991
(dp2992
g16
VPP
p2993
sbatp2994
Rp2995
(dp2996
g16
VVP
p2997
sbatp2998
Rp2999
(dp3000
g16
VVP
p3001
sbatp3002
Rp3003
(dp3004
g16
g191
sbatp3005
Rp3006
(dp3007
g16
g191
sbatp3008
Rp3009
(dp3010
g16
VSBAR
p3011
sbatp3012
Rp3013
(dp3014
g16
VVP
p3015
sbatp3016
Rp3017
(dp3018
g16
VVP
p3019
sbatp3020
Rp3021
(dp3022
g16
g191
sbatp3023
Rp3024
(dp3025
g16
VVP
p3026
sbatp3027
Rp3028
(dp3029
g16
g191
sbatp3030
Rp3031
(dp3032
g16
VROOT
p3033
sbag5
(g6
g7
(lp3034
g5
(g6
g7
(lp3035
g5
(g6
g7
(lp3036
VSo
p3037
atp3038
Rp3039
(dp3040
g16
VRB
p3041
sbag5
(g6
g7
(lp3042
g5
(g6
g7
(lp3043
Vbefore
p3044
atp3045
Rp3046
(dp3047
g16
VIN
p3048
sbag5
(g6
g7
(lp3049
g5
(g6
g7
(lp3050
g5
(g6
g7
(lp3051
Vturning
p3052
atp3053
Rp3054
(dp3055
g16
VVBG
p3056
sbag5
(g6
g7
(lp3057
g5
(g6
g7
(lp3058
Vto
p3059
atp3060
Rp3061
(dp3062
g16
VTO
p3063
sbag5
(g6
g7
(lp3064
g5
(g6
g7
(lp3065
g5
(g6
g7
(lp3066
Vthe
p3067
atp3068
Rp3069
(dp3070
g16
VDT
p3071
sbag5
(g6
g7
(lp3072
Vanalysis
p3073
atp3074
Rp3075
(dp3076
g16
VNN
p3077
sbatp3078
Rp3079
(dp3080
g16
VNP
p3081
sbag5
(g6
g7
(lp3082
g5
(g6
g7
(lp3083
Vof
p3084
atp3085
Rp3086
(dp3087
g16
VIN
p3088
sbag5
(g6
g7
(lp3089
g5
(g6
g7
(lp3090
Vdiscourse
p3091
atp3092
Rp3093
(dp3094
g16
VNN
p3095
sbag5
(g6
g7
(lp3096
Vphenomena
p3097
atp3098
Rp3099
(dp3100
g16
VNNS
p3101
sbatp3102
Rp3103
(dp3104
g16
VNP
p3105
sbatp3106
Rp3107
(dp3108
g16
VPP
p3109
sbatp3110
Rp3111
(dp3112
g16
VNP
p3113
sbatp3114
Rp3115
(dp3116
g16
VPP
p3117
sbatp3118
Rp3119
(dp3120
g16
VVP
p3121
sbatp3122
Rp3123
(dp3124
g16
g191
sbatp3125
Rp3126
(dp3127
g16
VPP
p3128
sbag5
(g6
g7
(lp3129
g398
atp3130
Rp3131
(dp3132
g16
g398
sbag5
(g6
g7
(lp3133
g5
(g6
g7
(lp3134
Vwe
p3135
atp3136
Rp3137
(dp3138
g16
VPRP
p3139
sbatp3140
Rp3141
(dp3142
g16
VNP
p3143
sbag5
(g6
g7
(lp3144
g5
(g6
g7
(lp3145
Vexamine
p3146
atp3147
Rp3148
(dp3149
g16
VVBP
p3150
sbag5
(g6
g7
(lp3151
g5
(g6
g7
(lp3152
g5
(g6
g7
(lp3153
Vthe
p3154
atp3155
Rp3156
(dp3157
g16
VDT
p3158
sbag5
(g6
g7
(lp3159
Vcorrelation
p3160
atp3161
Rp3162
(dp3163
g16
VNN
p3164
sbatp3165
Rp3166
(dp3167
g16
VNP
p3168
sbag5
(g6
g7
(lp3169
g5
(g6
g7
(lp3170
Vbetween
p3171
atp3172
Rp3173
(dp3174
g16
VIN
p3175
sbag5
(g6
g7
(lp3176
g5
(g6
g7
(lp3177
g5
(g6
g7
(lp3178
Vtranslation
p3179
atp3180
Rp3181
(dp3182
g16
VNN
p3183
sbag5
(g6
g7
(lp3184
Vquality
p3185
atp3186
Rp3187
(dp3188
g16
VNN
p3189
sbatp3190
Rp3191
(dp3192
g16
VNP
p3193
sbag5
(g6
g7
(lp3194
Vand
p3195
atp3196
Rp3197
(dp3198
g16
VCC
p3199
sbag5
(g6
g7
(lp3200
g5
(g6
g7
(lp3201
Vsentence
p3202
atp3203
Rp3204
(dp3205
g16
VNN
p3206
sbag5
(g6
g7
(lp3207
Vlength
p3208
atp3209
Rp3210
(dp3211
g16
VNN
p3212
sbatp3213
Rp3214
(dp3215
g16
VNP
p3216
sbatp3217
Rp3218
(dp3219
g16
VNP
p3220
sbatp3221
Rp3222
(dp3223
g16
VPP
p3224
sbatp3225
Rp3226
(dp3227
g16
VNP
p3228
sbatp3229
Rp3230
(dp3231
g16
VVP
p3232
sbatp3233
Rp3234
(dp3235
g16
g191
sbatp3236
Rp3237
(dp3238
g16
VROOT
p3239
sbasg196
(icmyPackage
CorE
p3240
(dp3241
g199
(lp3242
(I0
I0
tp3243
a(I0
I26
tp3244
asg203
g3031
sbsg209
(icmyPackage
CorE
p3245
(dp3246
g199
(lp3247
(I1
I1
tp3248
a(I1
I19
tp3249
asg203
g5
(g6
g7
(lp3250
g3126
ag3131
ag3141
ag3230
atp3251
Rp3252
(dp3253
g16
g208
sbsbsg215
(icmyPackage
pattern
p3254
(dp3255
g218
I265
sg219
I1
sg220
(lp3256
(lp3257
S'so'
p3258
aasg225
(lp3259
I1
aI1
aI1
asg227
(lp3260
S'It was not long before he saw me looking at him, and so he began to move.'
p3261
asg230
I0
sg231
(lp3262
(lp3263
S'&C'
p3264
aS'(,/;/./--)'
p3265
aS'(&AND)'
p3266
aa(lp3267
S'(-far)'
p3268
aS'(,)'
p3269
aS'&R'
p3270
aasbsg241
(lp3271
(isxpPackage
sxpSent
p3272
(dp3273
g245
(lp3274
I9
asg247
VIt stands to reason that long sentences will be harder to process automatically and this reasoning has motivated the first approaches to text simplification [ 3 ]
p3275
sg249
I4
sg230
I29
sg250
I9
sba(isxpPackage
sxpSent
p3276
(dp3277
g245
(lp3278
I9
asg247
VSo before turning to the analysis of discourse phenomena, we examine the correlation between translation quality and sentence length
p3279
sg249
I4
sg230
I30
sg250
I9
sbasba(icmyPackage
CELink
p3280
(dp3281
g3
(lp3282
g5
(g6
g7
(lp3283
g5
(g6
g7
(lp3284
g5
(g6
g7
(lp3285
g5
(g6
g7
(lp3286
g5
(g6
g7
(lp3287
VA
p3288
atp3289
Rp3290
(dp3291
g16
VDT
p3292
sbag5
(g6
g7
(lp3293
Vstrong
p3294
atp3295
Rp3296
(dp3297
g16
VJJ
p3298
sbag5
(g6
g7
(lp3299
Vcorrelation
p3300
atp3301
Rp3302
(dp3303
g16
VNN
p3304
sbatp3305
Rp3306
(dp3307
g16
VNP
p3308
sbag5
(g6
g7
(lp3309
g5
(g6
g7
(lp3310
Vbetween
p3311
atp3312
Rp3313
(dp3314
g16
VIN
p3315
sbag5
(g6
g7
(lp3316
g5
(g6
g7
(lp3317
Vthe
p3318
atp3319
Rp3320
(dp3321
g16
VDT
p3322
sbag5
(g6
g7
(lp3323
Vtwo
p3324
atp3325
Rp3326
(dp3327
g16
VCD
p3328
sbatp3329
Rp3330
(dp3331
g16
VNP
p3332
sbatp3333
Rp3334
(dp3335
g16
VPP
p3336
sbatp3337
Rp3338
(dp3339
g16
VNP
p3340
sbag5
(g6
g7
(lp3341
g5
(g6
g7
(lp3342
Vwould
p3343
atp3344
Rp3345
(dp3346
g16
VMD
p3347
sbag5
(g6
g7
(lp3348
g5
(g6
g7
(lp3349
Vcall
p3350
atp3351
Rp3352
(dp3353
g16
VVB
p3354
sbag5
(g6
g7
(lp3355
g5
(g6
g7
(lp3356
Vfor
p3357
atp3358
Rp3359
(dp3360
g16
VIN
p3361
sbag5
(g6
g7
(lp3362
g5
(g6
g7
(lp3363
g5
(g6
g7
(lp3364
Vrevival
p3365
atp3366
Rp3367
(dp3368
g16
VNN
p3369
sbatp3370
Rp3371
(dp3372
g16
VNP
p3373
sbag5
(g6
g7
(lp3374
g5
(g6
g7
(lp3375
Vof
p3376
atp3377
Rp3378
(dp3379
g16
VIN
p3380
sbag5
(g6
g7
(lp3381
g5
(g6
g7
(lp3382
g5
(g6
g7
(lp3383
Vinterest
p3384
atp3385
Rp3386
(dp3387
g16
VNN
p3388
sbatp3389
Rp3390
(dp3391
g16
VNP
p3392
sbag5
(g6
g7
(lp3393
g5
(g6
g7
(lp3394
Vin
p3395
atp3396
Rp3397
(dp3398
g16
VIN
p3399
sbag5
(g6
g7
(lp3400
g5
(g6
g7
(lp3401
Vtext
p3402
atp3403
Rp3404
(dp3405
g16
VNN
p3406
sbag5
(g6
g7
(lp3407
Vsimplification
p3408
atp3409
Rp3410
(dp3411
g16
VNN
p3412
sbatp3413
Rp3414
(dp3415
g16
VNP
p3416
sbatp3417
Rp3418
(dp3419
g16
VPP
p3420
sbatp3421
Rp3422
(dp3423
g16
VNP
p3424
sbatp3425
Rp3426
(dp3427
g16
VPP
p3428
sbatp3429
Rp3430
(dp3431
g16
VNP
p3432
sbatp3433
Rp3434
(dp3435
g16
VPP
p3436
sbag5
(g6
g7
(lp3437
g5
(g6
g7
(lp3438
g5
(g6
g7
(lp3439
Vwhere
p3440
atp3441
Rp3442
(dp3443
g16
VWRB
p3444
sbatp3445
Rp3446
(dp3447
g16
VWHADVP
p3448
sbag5
(g6
g7
(lp3449
g5
(g6
g7
(lp3450
g5
(g6
g7
(lp3451
g5
(g6
g7
(lp3452
Vsyntactically
p3453
atp3454
Rp3455
(dp3456
g16
VRB
p3457
sbag5
(g6
g7
(lp3458
Vcomplex
p3459
atp3460
Rp3461
(dp3462
g16
VJJ
p3463
sbatp3464
Rp3465
(dp3466
g16
VADJP
p3467
sbag5
(g6
g7
(lp3468
Vsentences
p3469
atp3470
Rp3471
(dp3472
g16
VNNS
p3473
sbatp3474
Rp3475
(dp3476
g16
VNP
p3477
sbag5
(g6
g7
(lp3478
g5
(g6
g7
(lp3479
Vare
p3480
atp3481
Rp3482
(dp3483
g16
VVBP
p3484
sbag5
(g6
g7
(lp3485
g5
(g6
g7
(lp3486
Vtransformed
p3487
atp3488
Rp3489
(dp3490
g16
VVBN
p3491
sbag5
(g6
g7
(lp3492
g5
(g6
g7
(lp3493
Vinto
p3494
atp3495
Rp3496
(dp3497
g16
VIN
p3498
sbag5
(g6
g7
(lp3499
g5
(g6
g7
(lp3500
Vseveral
p3501
atp3502
Rp3503
(dp3504
g16
VJJ
p3505
sbag5
(g6
g7
(lp3506
Vshorter
p3507
atp3508
Rp3509
(dp3510
g16
VJJR
p3511
sbag5
(g6
g7
(lp3512
Vsentences
p3513
atp3514
Rp3515
(dp3516
g16
VNNS
p3517
sbatp3518
Rp3519
(dp3520
g16
VNP
p3521
sbatp3522
Rp3523
(dp3524
g16
VPP
p3525
sbag5
(g6
g7
(lp3526
g5
(g6
g7
(lp3527
Vas
p3528
atp3529
Rp3530
(dp3531
g16
VIN
p3532
sbag5
(g6
g7
(lp3533
g5
(g6
g7
(lp3534
g907
atp3535
Rp3536
(dp3537
g16
VDT
p3538
sbag5
(g6
g7
(lp3539
Vpreprocessing
p3540
atp3541
Rp3542
(dp3543
g16
VVBG
p3544
sbag5
(g6
g7
(lp3545
Vstep
p3546
atp3547
Rp3548
(dp3549
g16
VNN
p3550
sbatp3551
Rp3552
(dp3553
g16
VNP
p3554
sbatp3555
Rp3556
(dp3557
g16
VPP
p3558
sbatp3559
Rp3560
(dp3561
g16
VVP
p3562
sbatp3563
Rp3564
(dp3565
g16
VVP
p3566
sbatp3567
Rp3568
(dp3569
g16
g191
sbatp3570
Rp3571
(dp3572
g16
VSBAR
p3573
sbatp3574
Rp3575
(dp3576
g16
VVP
p3577
sbatp3578
Rp3579
(dp3580
g16
VVP
p3581
sbatp3582
Rp3583
(dp3584
g16
g191
sbatp3585
Rp3586
(dp3587
g16
VROOT
p3588
sbag5
(g6
g7
(lp3589
g5
(g6
g7
(lp3590
g5
(g6
g7
(lp3591
g5
(g6
g7
(lp3592
VWe
p3593
atp3594
Rp3595
(dp3596
g16
VPRP
p3597
sbatp3598
Rp3599
(dp3600
g16
VNP
p3601
sbag5
(g6
g7
(lp3602
g5
(g6
g7
(lp3603
Vfind
p3604
atp3605
Rp3606
(dp3607
g16
VVBP
p3608
sbag5
(g6
g7
(lp3609
g5
(g6
g7
(lp3610
Vhowever
p3611
atp3612
Rp3613
(dp3614
g16
VRB
p3615
sbatp3616
Rp3617
(dp3618
g16
VADVP
p3619
sbag5
(g6
g7
(lp3620
g5
(g6
g7
(lp3621
Vthat
p3622
atp3623
Rp3624
(dp3625
g16
VIN
p3626
sbag5
(g6
g7
(lp3627
g5
(g6
g7
(lp3628
g5
(g6
g7
(lp3629
Vno
p3630
atp3631
Rp3632
(dp3633
g16
VDT
p3634
sbag5
(g6
g7
(lp3635
Vstrong
p3636
atp3637
Rp3638
(dp3639
g16
VJJ
p3640
sbag5
(g6
g7
(lp3641
Vrelationship
p3642
atp3643
Rp3644
(dp3645
g16
VNN
p3646
sbatp3647
Rp3648
(dp3649
g16
VNP
p3650
sbag5
(g6
g7
(lp3651
g5
(g6
g7
(lp3652
Vexists
p3653
atp3654
Rp3655
(dp3656
g16
VVBZ
p3657
sbag5
(g6
g7
(lp3658
g5
(g6
g7
(lp3659
Vbetween
p3660
atp3661
Rp3662
(dp3663
g16
VIN
p3664
sbag5
(g6
g7
(lp3665
g5
(g6
g7
(lp3666
Vthe
p3667
atp3668
Rp3669
(dp3670
g16
VDT
p3671
sbag5
(g6
g7
(lp3672
Vtwo
p3673
atp3674
Rp3675
(dp3676
g16
VCD
p3677
sbatp3678
Rp3679
(dp3680
g16
VNP
p3681
sbatp3682
Rp3683
(dp3684
g16
VPP
p3685
sbag5
(g6
g7
(lp3686
g398
atp3687
Rp3688
(dp3689
g16
g398
sbag5
(g6
g7
(lp3690
g5
(g6
g7
(lp3691
Vas
p3692
atp3693
Rp3694
(dp3695
g16
VIN
p3696
sbag5
(g6
g7
(lp3697
g5
(g6
g7
(lp3698
g5
(g6
g7
(lp3699
Vshown
p3700
atp3701
Rp3702
(dp3703
g16
VVBN
p3704
sbag5
(g6
g7
(lp3705
g5
(g6
g7
(lp3706
Vby
p3707
atp3708
Rp3709
(dp3710
g16
VIN
p3711
sbag5
(g6
g7
(lp3712
g5
(g6
g7
(lp3713
g5
(g6
g7
(lp3714
g5
(g6
g7
(lp3715
Vthe
p3716
atp3717
Rp3718
(dp3719
g16
VDT
p3720
sbag5
(g6
g7
(lp3721
Vcorrelation
p3722
atp3723
Rp3724
(dp3725
g16
VNN
p3726
sbag5
(g6
g7
(lp3727
Vcoefficients
p3728
atp3729
Rp3730
(dp3731
g16
VNNS
p3732
sbatp3733
Rp3734
(dp3735
g16
VNP
p3736
sbag5
(g6
g7
(lp3737
g5
(g6
g7
(lp3738
Vbetween
p3739
atp3740
Rp3741
(dp3742
g16
VIN
p3743
sbag5
(g6
g7
(lp3744
g5
(g6
g7
(lp3745
VHTER
p3746
atp3747
Rp3748
(dp3749
g16
VJJ
p3750
sbag5
(g6
g7
(lp3751
Vvalues
p3752
atp3753
Rp3754
(dp3755
g16
VNNS
p3756
sbatp3757
Rp3758
(dp3759
g16
VNP
p3760
sbatp3761
Rp3762
(dp3763
g16
VPP
p3764
sbatp3765
Rp3766
(dp3767
g16
VNP
p3768
sbag5
(g6
g7
(lp3769
Vand
p3770
atp3771
Rp3772
(dp3773
g16
VCC
p3774
sbag5
(g6
g7
(lp3775
g5
(g6
g7
(lp3776
g5
(g6
g7
(lp3777
Vthe
p3778
atp3779
Rp3780
(dp3781
g16
VDT
p3782
sbag5
(g6
g7
(lp3783
Vnumber
p3784
atp3785
Rp3786
(dp3787
g16
VNN
p3788
sbatp3789
Rp3790
(dp3791
g16
VNP
p3792
sbag5
(g6
g7
(lp3793
g5
(g6
g7
(lp3794
Vof
p3795
atp3796
Rp3797
(dp3798
g16
VIN
p3799
sbag5
(g6
g7
(lp3800
g5
(g6
g7
(lp3801
g5
(g6
g7
(lp3802
Vwords
p3803
atp3804
Rp3805
(dp3806
g16
VNNS
p3807
sbatp3808
Rp3809
(dp3810
g16
VNP
p3811
sbag5
(g6
g7
(lp3812
g5
(g6
g7
(lp3813
Vin
p3814
atp3815
Rp3816
(dp3817
g16
VIN
p3818
sbag5
(g6
g7
(lp3819
g5
(g6
g7
(lp3820
g5
(g6
g7
(lp3821
Veach
p3822
atp3823
Rp3824
(dp3825
g16
VDT
p3826
sbag5
(g6
g7
(lp3827
Vsegment
p3828
atp3829
Rp3830
(dp3831
g16
VNN
p3832
sbatp3833
Rp3834
(dp3835
g16
VNP
p3836
sbag5
(g6
g7
(lp3837
g5
(g6
g7
(lp3838
Vin
p3839
atp3840
Rp3841
(dp3842
g16
VIN
p3843
sbag5
(g6
g7
(lp3844
g5
(g6
g7
(lp3845
VTable
p3846
atp3847
Rp3848
(dp3849
g16
VNNP
p3850
sbag5
(g6
g7
(lp3851
V1
p3852
atp3853
Rp3854
(dp3855
g16
VCD
p3856
sbatp3857
Rp3858
(dp3859
g16
VNP
p3860
sbatp3861
Rp3862
(dp3863
g16
VPP
p3864
sbatp3865
Rp3866
(dp3867
g16
VNP
p3868
sbatp3869
Rp3870
(dp3871
g16
VPP
p3872
sbatp3873
Rp3874
(dp3875
g16
VNP
p3876
sbatp3877
Rp3878
(dp3879
g16
VPP
p3880
sbatp3881
Rp3882
(dp3883
g16
VNP
p3884
sbatp3885
Rp3886
(dp3887
g16
VNP
p3888
sbatp3889
Rp3890
(dp3891
g16
VPP
p3892
sbatp3893
Rp3894
(dp3895
g16
VVP
p3896
sbatp3897
Rp3898
(dp3899
g16
g191
sbatp3900
Rp3901
(dp3902
g16
VSBAR
p3903
sbatp3904
Rp3905
(dp3906
g16
VVP
p3907
sbatp3908
Rp3909
(dp3910
g16
g191
sbatp3911
Rp3912
(dp3913
g16
VSBAR
p3914
sbatp3915
Rp3916
(dp3917
g16
VVP
p3918
sbatp3919
Rp3920
(dp3921
g16
g191
sbatp3922
Rp3923
(dp3924
g16
VROOT
p3925
sbasg196
(icmyPackage
CorE
p3926
(dp3927
g199
(lp3928
(I0
I26
tp3929
a(I1
I30
tp3930
asg203
g5
(g6
g7
(lp3931
g3552
ag3599
ag3606
ag3617
ag3624
ag3648
ag3655
ag3683
ag3688
ag3694
ag3702
ag3709
ag3766
ag3772
ag3790
ag3797
ag3809
ag3816
ag3834
ag3841
ag3848
atp3932
Rp3933
(dp3934
g16
g208
sbsbsg209
(icmyPackage
CorE
p3935
(dp3936
g199
(lp3937
(I0
I0
tp3938
a(I0
I24
tp3939
asg203
g5
(g6
g7
(lp3940
g3338
ag3345
ag3352
ag3434
ag3446
ag3475
ag3482
ag3489
ag3523
atp3941
Rp3942
(dp3943
g16
g208
sbsbsg215
(icmyPackage
pattern
p3944
(dp3945
g218
I26
sg219
I1
sg220
(lp3946
(lp3947
S'as'
p3948
aasg225
(lp3949
I3
aI1
aI1
asg227
(lp3950
S'You do not need to worry about the operation, as the software is very easy to use.'
p3951
asg230
I80
sg231
(lp3952
(lp3953
S'&R@Complete@'
p3954
aS'(,)'
p3955
aS'(-such/-same/-seem/-regard/-regards/-regarded/-view/-views/-viewed/-denote/-denoted/-denotes)'
p3956
aa(lp3957
S'(-if/-follow/-follows/-&adv)'
p3958
aS'&C@Complete@'
p3959
aasbsg241
(lp3960
(isxpPackage
sxpSent
p3961
(dp3962
g245
(lp3963
I10
asg247
VA strong correlation between the two would call for revival of interest in text simplification where syntactically complex sentences are transformed into several shorter sentences as a preprocessing step
p3964
sg249
I4
sg230
I31
sg250
I9
sba(isxpPackage
sxpSent
p3965
(dp3966
g245
(lp3967
I10
asg247
VWe find however that no strong relationship exists between the two, as shown by the correlation coefficients between HTER values and the number of words in each segment in Table 1
p3968
sg249
I4
sg230
I32
sg250
I10
sbasba(icmyPackage
CELink
p3969
(dp3970
g3
(lp3971
g5
(g6
g7
(lp3972
g5
(g6
g7
(lp3973
g5
(g6
g7
(lp3974
g5
(g6
g7
(lp3975
g5
(g6
g7
(lp3976
VNext
p3977
atp3978
Rp3979
(dp3980
g16
VNNP
p3981
sbatp3982
Rp3983
(dp3984
g16
VNP
p3985
sbag5
(g6
g7
(lp3986
g5
(g6
g7
(lp3987
g5
(g6
g7
(lp3988
g5
(g6
g7
(lp3989
Vwe
p3990
atp3991
Rp3992
(dp3993
g16
VPRP
p3994
sbatp3995
Rp3996
(dp3997
g16
VNP
p3998
sbag5
(g6
g7
(lp3999
g5
(g6
g7
(lp4000
Vexamine
p4001
atp4002
Rp4003
(dp4004
g16
VVBP
p4005
sbag5
(g6
g7
(lp4006
g5
(g6
g7
(lp4007
Vif
p4008
atp4009
Rp4010
(dp4011
g16
VIN
p4012
sbag5
(g6
g7
(lp4013
g5
(g6
g7
(lp4014
g5
(g6
g7
(lp4015
g5
(g6
g7
(lp4016
g5
(g6
g7
(lp4017
g5
(g6
g7
(lp4018
Vsentence
p4019
atp4020
Rp4021
(dp4022
g16
VNN
p4023
sbag5
(g6
g7
(lp4024
Vu
p4025
atp4026
Rp4027
(dp4028
g16
VNN
p4029
sbag5
(g6
g7
(lp4030
V'
p4031
atp4032
Rp4033
(dp4034
g16
VPOS
p4035
sbatp4036
Rp4037
(dp4038
g16
VNP
p4039
sbag5
(g6
g7
(lp4040
V\u005c
p4041
atp4042
Rp4043
(dp4044
g16
VJJ
p4045
sbag5
(g6
g7
(lp4046
Vu2013
p4047
atp4048
Rp4049
(dp4050
g16
VNNS
p4051
sbag5
(g6
g7
(lp4052
g4031
atp4053
Rp4054
(dp4055
g16
VPOS
p4056
sbatp4057
Rp4058
(dp4059
g16
VNP
p4060
sbag5
(g6
g7
(lp4061
Vdiscourse
p4062
atp4063
Rp4064
(dp4065
g16
VNN
p4066
sbag5
(g6
g7
(lp4067
Vdivergence
p4068
atp4069
Rp4070
(dp4071
g16
VNN
p4072
sbatp4073
Rp4074
(dp4075
g16
VNP
p4076
sbag5
(g6
g7
(lp4077
g5
(g6
g7
(lp4078
Vbetween
p4079
atp4080
Rp4081
(dp4082
g16
VIN
p4083
sbag5
(g6
g7
(lp4084
g5
(g6
g7
(lp4085
g5
(g6
g7
(lp4086
Vlanguages
p4087
atp4088
Rp4089
(dp4090
g16
VNNS
p4091
sbatp4092
Rp4093
(dp4094
g16
VNP
p4095
sbag5
(g6
g7
(lp4096
Vand
p4097
atp4098
Rp4099
(dp4100
g16
VCC
p4101
sbag5
(g6
g7
(lp4102
g5
(g6
g7
(lp4103
g5
(g6
g7
(lp4104
Vthe
p4105
atp4106
Rp4107
(dp4108
g16
VDT
p4109
sbag5
(g6
g7
(lp4110
Vpresence
p4111
atp4112
Rp4113
(dp4114
g16
VNN
p4115
sbatp4116
Rp4117
(dp4118
g16
VNP
p4119
sbag5
(g6
g7
(lp4120
g5
(g6
g7
(lp4121
Vof
p4122
atp4123
Rp4124
(dp4125
g16
VIN
p4126
sbag5
(g6
g7
(lp4127
g5
(g6
g7
(lp4128
g5
(g6
g7
(lp4129
V-LRB-
p4130
atp4131
Rp4132
(dp4133
g16
V-LRB-
p4134
sbag5
(g6
g7
(lp4135
g5
(g6
g7
(lp4136
Vambiguous
p4137
atp4138
Rp4139
(dp4140
g16
VJJ
p4141
sbatp4142
Rp4143
(dp4144
g16
VNP
p4145
sbag5
(g6
g7
(lp4146
V-RRB-
p4147
atp4148
Rp4149
(dp4150
g16
V-RRB-
p4151
sbatp4152
Rp4153
(dp4154
g16
VPRN
p4155
sbag5
(g6
g7
(lp4156
Vdiscourse
p4157
atp4158
Rp4159
(dp4160
g16
VNN
p4161
sbag5
(g6
g7
(lp4162
Vconnectives
p4163
atp4164
Rp4165
(dp4166
g16
VNNS
p4167
sbatp4168
Rp4169
(dp4170
g16
VNP
p4171
sbatp4172
Rp4173
(dp4174
g16
VPP
p4175
sbatp4176
Rp4177
(dp4178
g16
VNP
p4179
sbatp4180
Rp4181
(dp4182
g16
VNP
p4183
sbatp4184
Rp4185
(dp4186
g16
VPP
p4187
sbatp4188
Rp4189
(dp4190
g16
VNP
p4191
sbag5
(g6
g7
(lp4192
g5
(g6
g7
(lp4193
Vwould
p4194
atp4195
Rp4196
(dp4197
g16
VMD
p4198
sbag5
(g6
g7
(lp4199
g5
(g6
g7
(lp4200
Vbe
p4201
atp4202
Rp4203
(dp4204
g16
VVB
p4205
sbag5
(g6
g7
(lp4206
g5
(g6
g7
(lp4207
Vmore
p4208
atp4209
Rp4210
(dp4211
g16
VRBR
p4212
sbag5
(g6
g7
(lp4213
Vindicative
p4214
atp4215
Rp4216
(dp4217
g16
VJJ
p4218
sbatp4219
Rp4220
(dp4221
g16
VADJP
p4222
sbatp4223
Rp4224
(dp4225
g16
VVP
p4226
sbatp4227
Rp4228
(dp4229
g16
VVP
p4230
sbatp4231
Rp4232
(dp4233
g16
g191
sbatp4234
Rp4235
(dp4236
g16
VSBAR
p4237
sbatp4238
Rp4239
(dp4240
g16
VVP
p4241
sbatp4242
Rp4243
(dp4244
g16
g191
sbatp4245
Rp4246
(dp4247
g16
VSBAR
p4248
sbatp4249
Rp4250
(dp4251
g16
VNP
p4252
sbag5
(g6
g7
(lp4253
g5
(g6
g7
(lp4254
Vof
p4255
atp4256
Rp4257
(dp4258
g16
VIN
p4259
sbag5
(g6
g7
(lp4260
g5
(g6
g7
(lp4261
Vthe
p4262
atp4263
Rp4264
(dp4265
g16
VDT
p4266
sbag5
(g6
g7
(lp4267
Vexpected
p4268
atp4269
Rp4270
(dp4271
g16
VVBN
p4272
sbag5
(g6
g7
(lp4273
Vtranslation
p4274
atp4275
Rp4276
(dp4277
g16
VNN
p4278
sbag5
(g6
g7
(lp4279
Vquality
p4280
atp4281
Rp4282
(dp4283
g16
VNN
p4284
sbatp4285
Rp4286
(dp4287
g16
VNP
p4288
sbatp4289
Rp4290
(dp4291
g16
VPP
p4292
sbatp4293
Rp4294
(dp4295
g16
VNP
p4296
sbatp4297
Rp4298
(dp4299
g16
VROOT
p4300
sbasg196
(icmyPackage
CorE
p4301
(dp4302
g199
(lp4303
(I0
I4
tp4304
a(I0
I30
tp4305
asg203
g5
(g6
g7
(lp4306
g4232
ag4257
ag4264
ag4270
ag4276
atp4307
Rp4308
(dp4309
g16
g208
sbsbsg209
(icmyPackage
CorE
p4310
(dp4311
g199
(lp4312
(I0
I1
tp4313
a(I0
I2
tp4314
asg203
g5
(g6
g7
(lp4315
g3996
ag4003
atp4316
Rp4317
(dp4318
g16
g208
sbsbsg215
g2360
sg241
(lp4319
(isxpPackage
sxpSent
p4320
(dp4321
g245
(lp4322
I11
asg247
VNext we examine if sentence u'\u005cu2013' discourse divergence between languages and the presence of (ambiguous) discourse connectives would be more indicative of the expected translation quality
p4323
sg249
I4
sg230
I33
sg250
I11
sbasba(icmyPackage
CELink
p4324
(dp4325
g3
(lp4326
g5
(g6
g7
(lp4327
g5
(g6
g7
(lp4328
g5
(g6
g7
(lp4329
g5
(g6
g7
(lp4330
g5
(g6
g7
(lp4331
VChinese
p4332
atp4333
Rp4334
(dp4335
g16
VNNP
p4336
sbatp4337
Rp4338
(dp4339
g16
VNP
p4340
sbag5
(g6
g7
(lp4341
g5
(g6
g7
(lp4342
Vis
p4343
atp4344
Rp4345
(dp4346
g16
VVBZ
p4347
sbag5
(g6
g7
(lp4348
g5
(g6
g7
(lp4349
Vknown
p4350
atp4351
Rp4352
(dp4353
g16
VVBN
p4354
sbag5
(g6
g7
(lp4355
g5
(g6
g7
(lp4356
Vfor
p4357
atp4358
Rp4359
(dp4360
g16
VIN
p4361
sbag5
(g6
g7
(lp4362
g5
(g6
g7
(lp4363
g5
(g6
g7
(lp4364
Vsentences
p4365
atp4366
Rp4367
(dp4368
g16
VNNS
p4369
sbatp4370
Rp4371
(dp4372
g16
VNP
p4373
sbag5
(g6
g7
(lp4374
g5
(g6
g7
(lp4375
Vof
p4376
atp4377
Rp4378
(dp4379
g16
VIN
p4380
sbag5
(g6
g7
(lp4381
g5
(g6
g7
(lp4382
Vthis
p4383
atp4384
Rp4385
(dp4386
g16
VDT
p4387
sbag5
(g6
g7
(lp4388
Vkind
p4389
atp4390
Rp4391
(dp4392
g16
VNN
p4393
sbatp4394
Rp4395
(dp4396
g16
VNP
p4397
sbatp4398
Rp4399
(dp4400
g16
VPP
p4401
sbatp4402
Rp4403
(dp4404
g16
VNP
p4405
sbatp4406
Rp4407
(dp4408
g16
VPP
p4409
sbatp4410
Rp4411
(dp4412
g16
VVP
p4413
sbatp4414
Rp4415
(dp4416
g16
VVP
p4417
sbatp4418
Rp4419
(dp4420
g16
g191
sbag5
(g6
g7
(lp4421
V;
p4422
atp4423
Rp4424
(dp4425
g16
V:
p4426
sbag5
(g6
g7
(lp4427
g5
(g6
g7
(lp4428
g5
(g6
g7
(lp4429
Vfor
p4430
atp4431
Rp4432
(dp4433
g16
VIN
p4434
sbag5
(g6
g7
(lp4435
g5
(g6
g7
(lp4436
Vexample
p4437
atp4438
Rp4439
(dp4440
g16
VNN
p4441
sbatp4442
Rp4443
(dp4444
g16
VNP
p4445
sbatp4446
Rp4447
(dp4448
g16
VPP
p4449
sbag5
(g6
g7
(lp4450
g398
atp4451
Rp4452
(dp4453
g16
g398
sbag5
(g6
g7
(lp4454
g5
(g6
g7
(lp4455
g5
(g6
g7
(lp4456
Vthe
p4457
atp4458
Rp4459
(dp4460
g16
VDT
p4461
sbag5
(g6
g7
(lp4462
Vusage
p4463
atp4464
Rp4465
(dp4466
g16
VNN
p4467
sbatp4468
Rp4469
(dp4470
g16
VNP
p4471
sbag5
(g6
g7
(lp4472
g5
(g6
g7
(lp4473
Vof
p4474
atp4475
Rp4476
(dp4477
g16
VIN
p4478
sbag5
(g6
g7
(lp4479
g5
(g6
g7
(lp4480
Vpunctuation
p4481
atp4482
Rp4483
(dp4484
g16
VNN
p4485
sbatp4486
Rp4487
(dp4488
g16
VNP
p4489
sbatp4490
Rp4491
(dp4492
g16
VPP
p4493
sbatp4494
Rp4495
(dp4496
g16
VNP
p4497
sbag5
(g6
g7
(lp4498
g5
(g6
g7
(lp4499
Vis
p4500
atp4501
Rp4502
(dp4503
g16
VVBZ
p4504
sbag5
(g6
g7
(lp4505
g5
(g6
g7
(lp4506
Vvery
p4507
atp4508
Rp4509
(dp4510
g16
VRB
p4511
sbag5
(g6
g7
(lp4512
Vdifferent
p4513
atp4514
Rp4515
(dp4516
g16
VJJ
p4517
sbag5
(g6
g7
(lp4518
g5
(g6
g7
(lp4519
Vin
p4520
atp4521
Rp4522
(dp4523
g16
VIN
p4524
sbag5
(g6
g7
(lp4525
g5
(g6
g7
(lp4526
g5
(g6
g7
(lp4527
VChinese
p4528
atp4529
Rp4530
(dp4531
g16
VNNP
p4532
sbatp4533
Rp4534
(dp4535
g16
VNP
p4536
sbag5
(g6
g7
(lp4537
g5
(g6
g7
(lp4538
Vin
p4539
atp4540
Rp4541
(dp4542
g16
VIN
p4543
sbag5
(g6
g7
(lp4544
g5
(g6
g7
(lp4545
Vthe
p4546
atp4547
Rp4548
(dp4549
g16
VDT
p4550
sbag5
(g6
g7
(lp4551
Vsense
p4552
atp4553
Rp4554
(dp4555
g16
VNN
p4556
sbatp4557
Rp4558
(dp4559
g16
VNP
p4560
sbatp4561
Rp4562
(dp4563
g16
VPP
p4564
sbatp4565
Rp4566
(dp4567
g16
VNP
p4568
sbatp4569
Rp4570
(dp4571
g16
VPP
p4572
sbatp4573
Rp4574
(dp4575
g16
VADJP
p4576
sbag5
(g6
g7
(lp4577
g5
(g6
g7
(lp4578
Vthat
p4579
atp4580
Rp4581
(dp4582
g16
VIN
p4583
sbag5
(g6
g7
(lp4584
g5
(g6
g7
(lp4585
g5
(g6
g7
(lp4586
g907
atp4587
Rp4588
(dp4589
g16
VDT
p4590
sbag5
(g6
g7
(lp4591
Vcomma
p4592
atp4593
Rp4594
(dp4595
g16
VNN
p4596
sbatp4597
Rp4598
(dp4599
g16
VNP
p4600
sbag5
(g6
g7
(lp4601
g5
(g6
g7
(lp4602
Vcan
p4603
atp4604
Rp4605
(dp4606
g16
VMD
p4607
sbag5
(g6
g7
(lp4608
g5
(g6
g7
(lp4609
Vsometimes
p4610
atp4611
Rp4612
(dp4613
g16
VRB
p4614
sbatp4615
Rp4616
(dp4617
g16
VADVP
p4618
sbag5
(g6
g7
(lp4619
g5
(g6
g7
(lp4620
Vfunction
p4621
atp4622
Rp4623
(dp4624
g16
VVB
p4625
sbag5
(g6
g7
(lp4626
g5
(g6
g7
(lp4627
Vas
p4628
atp4629
Rp4630
(dp4631
g16
VIN
p4632
sbag5
(g6
g7
(lp4633
g5
(g6
g7
(lp4634
g5
(g6
g7
(lp4635
g907
atp4636
Rp4637
(dp4638
g16
VDT
p4639
sbag5
(g6
g7
(lp4640
Vfull
p4641
atp4642
Rp4643
(dp4644
g16
VJJ
p4645
sbag5
(g6
g7
(lp4646
Vstop
p4647
atp4648
Rp4649
(dp4650
g16
VNN
p4651
sbatp4652
Rp4653
(dp4654
g16
VNP
p4655
sbag5
(g6
g7
(lp4656
g5
(g6
g7
(lp4657
Vin
p4658
atp4659
Rp4660
(dp4661
g16
VIN
p4662
sbag5
(g6
g7
(lp4663
g5
(g6
g7
(lp4664
VEnglish
p4665
atp4666
Rp4667
(dp4668
g16
VNNP
p4669
sbatp4670
Rp4671
(dp4672
g16
VNP
p4673
sbatp4674
Rp4675
(dp4676
g16
VPP
p4677
sbatp4678
Rp4679
(dp4680
g16
VNP
p4681
sbatp4682
Rp4683
(dp4684
g16
VPP
p4685
sbag5
(g6
g7
(lp4686
g398
atp4687
Rp4688
(dp4689
g16
g398
sbag5
(g6
g7
(lp4690
g5
(g6
g7
(lp4691
g5
(g6
g7
(lp4692
Vmotivating
p4693
atp4694
Rp4695
(dp4696
g16
VVBG
p4697
sbag5
(g6
g7
(lp4698
g5
(g6
g7
(lp4699
g5
(g6
g7
(lp4700
g907
atp4701
Rp4702
(dp4703
g16
VDT
p4704
sbag5
(g6
g7
(lp4705
Vseries
p4706
atp4707
Rp4708
(dp4709
g16
VNN
p4710
sbatp4711
Rp4712
(dp4713
g16
VNP
p4714
sbag5
(g6
g7
(lp4715
g5
(g6
g7
(lp4716
Vof
p4717
atp4718
Rp4719
(dp4720
g16
VIN
p4721
sbag5
(g6
g7
(lp4722
g5
(g6
g7
(lp4723
Vdisambiguation
p4724
atp4725
Rp4726
(dp4727
g16
VNN
p4728
sbag5
(g6
g7
(lp4729
Vtasks
p4730
atp4731
Rp4732
(dp4733
g16
VNNS
p4734
sbatp4735
Rp4736
(dp4737
g16
VNP
p4738
sbatp4739
Rp4740
(dp4741
g16
VPP
p4742
sbag5
(g6
g7
(lp4743
g5
(g6
g7
(lp4744
g5
(g6
g7
(lp4745
V-LSB-
p4746
atp4747
Rp4748
(dp4749
g16
VNNP
p4750
sbag5
(g6
g7
(lp4751
V7
p4752
atp4753
Rp4754
(dp4755
g16
VCD
p4756
sbag5
(g6
g7
(lp4757
g398
atp4758
Rp4759
(dp4760
g16
g398
sbag5
(g6
g7
(lp4761
V20
p4762
atp4763
Rp4764
(dp4765
g16
VCD
p4766
sbatp4767
Rp4768
(dp4769
g16
VNP
p4770
sbag5
(g6
g7
(lp4771
g398
atp4772
Rp4773
(dp4774
g16
g398
sbag5
(g6
g7
(lp4775
g5
(g6
g7
(lp4776
V19
p4777
atp4778
Rp4779
(dp4780
g16
VCD
p4781
sbag5
(g6
g7
(lp4782
V-RSB-
p4783
atp4784
Rp4785
(dp4786
g16
VNNS
p4787
sbatp4788
Rp4789
(dp4790
g16
VNP
p4791
sbatp4792
Rp4793
(dp4794
g16
VNP
p4795
sbatp4796
Rp4797
(dp4798
g16
VNP
p4799
sbatp4800
Rp4801
(dp4802
g16
VVP
p4803
sbatp4804
Rp4805
(dp4806
g16
g191
sbatp4807
Rp4808
(dp4809
g16
VVP
p4810
sbatp4811
Rp4812
(dp4813
g16
VVP
p4814
sbatp4815
Rp4816
(dp4817
g16
g191
sbatp4818
Rp4819
(dp4820
g16
VSBAR
p4821
sbatp4822
Rp4823
(dp4824
g16
VVP
p4825
sbatp4826
Rp4827
(dp4828
g16
g191
sbatp4829
Rp4830
(dp4831
g16
g191
sbatp4832
Rp4833
(dp4834
g16
VROOT
p4835
sbag5
(g6
g7
(lp4836
g5
(g6
g7
(lp4837
g5
(g6
g7
(lp4838
g5
(g6
g7
(lp4839
g5
(g6
g7
(lp4840
VSpecial
p4841
atp4842
Rp4843
(dp4844
g16
VJJ
p4845
sbag5
(g6
g7
(lp4846
Vhandling
p4847
atp4848
Rp4849
(dp4850
g16
VNN
p4851
sbatp4852
Rp4853
(dp4854
g16
VNP
p4855
sbag5
(g6
g7
(lp4856
g5
(g6
g7
(lp4857
Vof
p4858
atp4859
Rp4860
(dp4861
g16
VIN
p4862
sbag5
(g6
g7
(lp4863
g5
(g6
g7
(lp4864
Vlong
p4865
atp4866
Rp4867
(dp4868
g16
VJJ
p4869
sbag5
(g6
g7
(lp4870
VChinese
p4871
atp4872
Rp4873
(dp4874
g16
VJJ
p4875
sbag5
(g6
g7
(lp4876
Vsentences
p4877
atp4878
Rp4879
(dp4880
g16
VNNS
p4881
sbatp4882
Rp4883
(dp4884
g16
VNP
p4885
sbatp4886
Rp4887
(dp4888
g16
VPP
p4889
sbatp4890
Rp4891
(dp4892
g16
VNP
p4893
sbag5
(g6
g7
(lp4894
g5
(g6
g7
(lp4895
Vwere
p4896
atp4897
Rp4898
(dp4899
g16
VVBD
p4900
sbag5
(g6
g7
(lp4901
g5
(g6
g7
(lp4902
Valso
p4903
atp4904
Rp4905
(dp4906
g16
VRB
p4907
sbatp4908
Rp4909
(dp4910
g16
VADVP
p4911
sbag5
(g6
g7
(lp4912
g5
(g6
g7
(lp4913
Vshown
p4914
atp4915
Rp4916
(dp4917
g16
VVBN
p4918
sbag5
(g6
g7
(lp4919
g5
(g6
g7
(lp4920
g5
(g6
g7
(lp4921
Vto
p4922
atp4923
Rp4924
(dp4925
g16
VTO
p4926
sbag5
(g6
g7
(lp4927
g5
(g6
g7
(lp4928
Vimprove
p4929
atp4930
Rp4931
(dp4932
g16
VVB
p4933
sbag5
(g6
g7
(lp4934
g5
(g6
g7
(lp4935
g5
(g6
g7
(lp4936
Vmachine
p4937
atp4938
Rp4939
(dp4940
g16
VNN
p4941
sbag5
(g6
g7
(lp4942
Vtranslation
p4943
atp4944
Rp4945
(dp4946
g16
VNN
p4947
sbatp4948
Rp4949
(dp4950
g16
VNP
p4951
sbag5
(g6
g7
(lp4952
g5
(g6
g7
(lp4953
g5
(g6
g7
(lp4954
V-LSB-
p4955
atp4956
Rp4957
(dp4958
g16
VNNP
p4959
sbag5
(g6
g7
(lp4960
V8
p4961
atp4962
Rp4963
(dp4964
g16
VCD
p4965
sbag5
(g6
g7
(lp4966
g398
atp4967
Rp4968
(dp4969
g16
g398
sbag5
(g6
g7
(lp4970
V21
p4971
atp4972
Rp4973
(dp4974
g16
VCD
p4975
sbatp4976
Rp4977
(dp4978
g16
VNP
p4979
sbag5
(g6
g7
(lp4980
V-RSB-
p4981
atp4982
Rp4983
(dp4984
g16
VJJ
p4985
sbatp4986
Rp4987
(dp4988
g16
VADJP
p4989
sbatp4990
Rp4991
(dp4992
g16
VNP
p4993
sbatp4994
Rp4995
(dp4996
g16
VVP
p4997
sbatp4998
Rp4999
(dp5000
g16
VVP
p5001
sbatp5002
Rp5003
(dp5004
g16
g191
sbatp5005
Rp5006
(dp5007
g16
VVP
p5008
sbatp5009
Rp5010
(dp5011
g16
VVP
p5012
sbatp5013
Rp5014
(dp5015
g16
g191
sbatp5016
Rp5017
(dp5018
g16
VROOT
p5019
sbasg196
(icmyPackage
CorE
p5020
(dp5021
g199
(lp5022
(I0
I31
tp5023
a(I1
I17
tp5024
asg203
g5
(g6
g7
(lp5025
g4679
ag4688
ag4805
ag5017
atp5026
Rp5027
(dp5028
g16
g208
sbsbsg209
(icmyPackage
CorE
p5029
(dp5030
g199
(lp5031
(I0
I4
tp5032
a(I0
I29
tp5033
asg203
g5
(g6
g7
(lp5034
g4403
ag4424
ag4447
ag4452
ag4495
ag4502
ag4574
ag4581
ag4598
ag4605
ag4616
ag4623
atp5035
Rp5036
(dp5037
g16
g208
sbsbsg215
g3944
sg241
(lp5038
(isxpPackage
sxpSent
p5039
(dp5040
g245
(lp5041
I12
asg247
VChinese is known for sentences of this kind; for example, the usage of punctuation is very different in Chinese in the sense that a comma can sometimes function as a full stop in English, motivating a series of disambiguation tasks [ 7 , 20 , 19 ]
p5042
sg249
I5
sg230
I35
sg250
I12
sba(isxpPackage
sxpSent
p5043
(dp5044
g245
(lp5045
I12
asg247
VSpecial handling of long Chinese sentences were also shown to improve machine translation [ 8 , 21 ]
p5046
sg249
I5
sg230
I36
sg250
I12
sbasba(icmyPackage
CELink
p5047
(dp5048
g3
(lp5049
g5
(g6
g7
(lp5050
g5
(g6
g7
(lp5051
g5
(g6
g7
(lp5052
g5
(g6
g7
(lp5053
g5
(g6
g7
(lp5054
VTo
p5055
atp5056
Rp5057
(dp5058
g16
VTO
p5059
sbag5
(g6
g7
(lp5060
g5
(g6
g7
(lp5061
Vinvestigate
p5062
atp5063
Rp5064
(dp5065
g16
VVB
p5066
sbag5
(g6
g7
(lp5067
g5
(g6
g7
(lp5068
g5
(g6
g7
(lp5069
g5
(g6
g7
(lp5070
Vthe
p5071
atp5072
Rp5073
(dp5074
g16
VDT
p5075
sbag5
(g6
g7
(lp5076
Vprevalence
p5077
atp5078
Rp5079
(dp5080
g16
VNN
p5081
sbatp5082
Rp5083
(dp5084
g16
VNP
p5085
sbag5
(g6
g7
(lp5086
g5
(g6
g7
(lp5087
Vof
p5088
atp5089
Rp5090
(dp5091
g16
VIN
p5092
sbag5
(g6
g7
(lp5093
g5
(g6
g7
(lp5094
g5
(g6
g7
(lp5095
Vsentences
p5096
atp5097
Rp5098
(dp5099
g16
VNNS
p5100
sbatp5101
Rp5102
(dp5103
g16
VNP
p5104
sbag5
(g6
g7
(lp5105
g5
(g6
g7
(lp5106
Vin
p5107
atp5108
Rp5109
(dp5110
g16
VIN
p5111
sbag5
(g6
g7
(lp5112
g5
(g6
g7
(lp5113
Vthe
p5114
atp5115
Rp5116
(dp5117
g16
VDT
p5118
sbag5
(g6
g7
(lp5119
Vsource
p5120
atp5121
Rp5122
(dp5123
g16
VNN
p5124
sbag5
(g6
g7
(lp5125
Vlanguage
p5126
atp5127
Rp5128
(dp5129
g16
VNN
p5130
sbatp5131
Rp5132
(dp5133
g16
VNP
p5134
sbatp5135
Rp5136
(dp5137
g16
VPP
p5138
sbatp5139
Rp5140
(dp5141
g16
VNP
p5142
sbatp5143
Rp5144
(dp5145
g16
VPP
p5146
sbatp5147
Rp5148
(dp5149
g16
VNP
p5150
sbag5
(g6
g7
(lp5151
g5
(g6
g7
(lp5152
V-LRB-
p5153
atp5154
Rp5155
(dp5156
g16
V-LRB-
p5157
sbag5
(g6
g7
(lp5158
g5
(g6
g7
(lp5159
g5
(g6
g7
(lp5160
VChinese
p5161
atp5162
Rp5163
(dp5164
g16
VNNP
p5165
sbag5
(g6
g7
(lp5166
Vand
p5167
atp5168
Rp5169
(dp5170
g16
VCC
p5171
sbag5
(g6
g7
(lp5172
VArabic
p5173
atp5174
Rp5175
(dp5176
g16
VNNP
p5177
sbatp5178
Rp5179
(dp5180
g16
VNP
p5181
sbag5
(g6
g7
(lp5182
g5
(g6
g7
(lp5183
Vin
p5184
atp5185
Rp5186
(dp5187
g16
VIN
p5188
sbag5
(g6
g7
(lp5189
g5
(g6
g7
(lp5190
Vour
p5191
atp5192
Rp5193
(dp5194
g16
VPRP$
p5195
sbag5
(g6
g7
(lp5196
Vcase
p5197
atp5198
Rp5199
(dp5200
g16
VNN
p5201
sbatp5202
Rp5203
(dp5204
g16
VNP
p5205
sbatp5206
Rp5207
(dp5208
g16
VPP
p5209
sbatp5210
Rp5211
(dp5212
g16
VNP
p5213
sbag5
(g6
g7
(lp5214
V-RRB-
p5215
atp5216
Rp5217
(dp5218
g16
V-RRB-
p5219
sbatp5220
Rp5221
(dp5222
g16
VPRN
p5223
sbag5
(g6
g7
(lp5224
g5
(g6
g7
(lp5225
g5
(g6
g7
(lp5226
Vthat
p5227
atp5228
Rp5229
(dp5230
g16
VWDT
p5231
sbatp5232
Rp5233
(dp5234
g16
VWHNP
p5235
sbag5
(g6
g7
(lp5236
g5
(g6
g7
(lp5237
g5
(g6
g7
(lp5238
Vdo
p5239
atp5240
Rp5241
(dp5242
g16
VVBP
p5243
sbag5
(g6
g7
(lp5244
Vnot
p5245
atp5246
Rp5247
(dp5248
g16
VRB
p5249
sbag5
(g6
g7
(lp5250
g5
(g6
g7
(lp5251
Vconfirm
p5252
atp5253
Rp5254
(dp5255
g16
VVB
p5256
sbag5
(g6
g7
(lp5257
g5
(g6
g7
(lp5258
Vto
p5259
atp5260
Rp5261
(dp5262
g16
VTO
p5263
sbag5
(g6
g7
(lp5264
g5
(g6
g7
(lp5265
g5
(g6
g7
(lp5266
Vthe
p5267
atp5268
Rp5269
(dp5270
g16
VDT
p5271
sbag5
(g6
g7
(lp5272
Vnotion
p5273
atp5274
Rp5275
(dp5276
g16
VNN
p5277
sbatp5278
Rp5279
(dp5280
g16
VNP
p5281
sbag5
(g6
g7
(lp5282
g5
(g6
g7
(lp5283
Vof
p5284
atp5285
Rp5286
(dp5287
g16
VIN
p5288
sbag5
(g6
g7
(lp5289
g5
(g6
g7
(lp5290
g5
(g6
g7
(lp5291
Vsentence
p5292
atp5293
Rp5294
(dp5295
g16
VNN
p5296
sbatp5297
Rp5298
(dp5299
g16
VNP
p5300
sbag5
(g6
g7
(lp5301
g5
(g6
g7
(lp5302
Vin
p5303
atp5304
Rp5305
(dp5306
g16
VIN
p5307
sbag5
(g6
g7
(lp5308
g5
(g6
g7
(lp5309
g5
(g6
g7
(lp5310
Vthe
p5311
atp5312
Rp5313
(dp5314
g16
VDT
p5315
sbag5
(g6
g7
(lp5316
Vtarget
p5317
atp5318
Rp5319
(dp5320
g16
VNN
p5321
sbag5
(g6
g7
(lp5322
Vlanguage
p5323
atp5324
Rp5325
(dp5326
g16
VNN
p5327
sbatp5328
Rp5329
(dp5330
g16
VNP
p5331
sbag5
(g6
g7
(lp5332
g5
(g6
g7
(lp5333
V-LRB-
p5334
atp5335
Rp5336
(dp5337
g16
V-LRB-
p5338
sbag5
(g6
g7
(lp5339
g5
(g6
g7
(lp5340
g5
(g6
g7
(lp5341
VEnglish
p5342
atp5343
Rp5344
(dp5345
g16
VNNP
p5346
sbatp5347
Rp5348
(dp5349
g16
VNP
p5350
sbag5
(g6
g7
(lp5351
g5
(g6
g7
(lp5352
Vfor
p5353
atp5354
Rp5355
(dp5356
g16
VIN
p5357
sbag5
(g6
g7
(lp5358
g5
(g6
g7
(lp5359
g5
(g6
g7
(lp5360
Vthe
p5361
atp5362
Rp5363
(dp5364
g16
VDT
p5365
sbag5
(g6
g7
(lp5366
Vpurposes
p5367
atp5368
Rp5369
(dp5370
g16
VNNS
p5371
sbatp5372
Rp5373
(dp5374
g16
VNP
p5375
sbag5
(g6
g7
(lp5376
g5
(g6
g7
(lp5377
Vof
p5378
atp5379
Rp5380
(dp5381
g16
VIN
p5382
sbag5
(g6
g7
(lp5383
g5
(g6
g7
(lp5384
Vthis
p5385
atp5386
Rp5387
(dp5388
g16
VDT
p5389
sbag5
(g6
g7
(lp5390
Vstudy
p5391
atp5392
Rp5393
(dp5394
g16
VNN
p5395
sbatp5396
Rp5397
(dp5398
g16
VNP
p5399
sbatp5400
Rp5401
(dp5402
g16
VPP
p5403
sbatp5404
Rp5405
(dp5406
g16
VNP
p5407
sbatp5408
Rp5409
(dp5410
g16
VPP
p5411
sbatp5412
Rp5413
(dp5414
g16
VNP
p5415
sbag5
(g6
g7
(lp5416
V-RRB-
p5417
atp5418
Rp5419
(dp5420
g16
V-RRB-
p5421
sbatp5422
Rp5423
(dp5424
g16
VPRN
p5425
sbatp5426
Rp5427
(dp5428
g16
VNP
p5429
sbatp5430
Rp5431
(dp5432
g16
VPP
p5433
sbatp5434
Rp5435
(dp5436
g16
VNP
p5437
sbatp5438
Rp5439
(dp5440
g16
VPP
p5441
sbatp5442
Rp5443
(dp5444
g16
VNP
p5445
sbatp5446
Rp5447
(dp5448
g16
VPP
p5449
sbatp5450
Rp5451
(dp5452
g16
VVP
p5453
sbatp5454
Rp5455
(dp5456
g16
VVP
p5457
sbatp5458
Rp5459
(dp5460
g16
g191
sbatp5461
Rp5462
(dp5463
g16
VSBAR
p5464
sbatp5465
Rp5466
(dp5467
g16
VNP
p5468
sbatp5469
Rp5470
(dp5471
g16
VVP
p5472
sbatp5473
Rp5474
(dp5475
g16
VVP
p5476
sbatp5477
Rp5478
(dp5479
g16
g191
sbag5
(g6
g7
(lp5480
g398
atp5481
Rp5482
(dp5483
g16
g398
sbag5
(g6
g7
(lp5484
g5
(g6
g7
(lp5485
Vwe
p5486
atp5487
Rp5488
(dp5489
g16
VPRP
p5490
sbatp5491
Rp5492
(dp5493
g16
VNP
p5494
sbag5
(g6
g7
(lp5495
g5
(g6
g7
(lp5496
Vseparate
p5497
atp5498
Rp5499
(dp5500
g16
VVBP
p5501
sbag5
(g6
g7
(lp5502
g5
(g6
g7
(lp5503
g5
(g6
g7
(lp5504
Vthe
p5505
atp5506
Rp5507
(dp5508
g16
VDT
p5509
sbag5
(g6
g7
(lp5510
Vtranslation
p5511
atp5512
Rp5513
(dp5514
g16
VNN
p5515
sbag5
(g6
g7
(lp5516
Vsegments
p5517
atp5518
Rp5519
(dp5520
g16
VNNS
p5521
sbatp5522
Rp5523
(dp5524
g16
VNP
p5525
sbag5
(g6
g7
(lp5526
g5
(g6
g7
(lp5527
Vin
p5528
atp5529
Rp5530
(dp5531
g16
VIN
p5532
sbag5
(g6
g7
(lp5533
g5
(g6
g7
(lp5534
Vthe
p5535
atp5536
Rp5537
(dp5538
g16
VDT
p5539
sbag5
(g6
g7
(lp5540
Vsource
p5541
atp5542
Rp5543
(dp5544
g16
VNN
p5545
sbag5
(g6
g7
(lp5546
Vlanguage
p5547
atp5548
Rp5549
(dp5550
g16
VNN
p5551
sbatp5552
Rp5553
(dp5554
g16
VNP
p5555
sbatp5556
Rp5557
(dp5558
g16
VPP
p5559
sbatp5560
Rp5561
(dp5562
g16
VNP
p5563
sbag5
(g6
g7
(lp5564
g5
(g6
g7
(lp5565
Vinto
p5566
atp5567
Rp5568
(dp5569
g16
VIN
p5570
sbag5
(g6
g7
(lp5571
g5
(g6
g7
(lp5572
g5
(g6
g7
(lp5573
Vtwo
p5574
atp5575
Rp5576
(dp5577
g16
VCD
p5578
sbag5
(g6
g7
(lp5579
Vclasses
p5580
atp5581
Rp5582
(dp5583
g16
VNNS
p5584
sbatp5585
Rp5586
(dp5587
g16
VNP
p5588
sbag5
(g6
g7
(lp5589
g5
(g6
g7
(lp5590
g5
(g6
g7
(lp5591
g5
(g6
g7
(lp5592
g907
atp5593
Rp5594
(dp5595
g16
VDT
p5596
sbag5
(g6
g7
(lp5597
Vsource
p5598
atp5599
Rp5600
(dp5601
g16
VNN
p5602
sbag5
(g6
g7
(lp5603
Vsentence
p5604
atp5605
Rp5606
(dp5607
g16
VNN
p5608
sbatp5609
Rp5610
(dp5611
g16
VNP
p5612
sbag5
(g6
g7
(lp5613
g5
(g6
g7
(lp5614
Vis
p5615
atp5616
Rp5617
(dp5618
g16
VVBZ
p5619
sbag5
(g6
g7
(lp5620
g5
(g6
g7
(lp5621
Vconsidered
p5622
atp5623
Rp5624
(dp5625
g16
VVBN
p5626
sbag5
(g6
g7
(lp5627
g5
(g6
g7
(lp5628
V1-1
p5629
atp5630
Rp5631
(dp5632
g16
VCD
p5633
sbatp5634
Rp5635
(dp5636
g16
VNP
p5637
sbag5
(g6
g7
(lp5638
g5
(g6
g7
(lp5639
Vif
p5640
atp5641
Rp5642
(dp5643
g16
VIN
p5644
sbag5
(g6
g7
(lp5645
g5
(g6
g7
(lp5646
g5
(g6
g7
(lp5647
Vthe
p5648
atp5649
Rp5650
(dp5651
g16
VDT
p5652
sbag5
(g6
g7
(lp5653
Vreference
p5654
atp5655
Rp5656
(dp5657
g16
VNN
p5658
sbag5
(g6
g7
(lp5659
Vtranslation
p5660
atp5661
Rp5662
(dp5663
g16
VNN
p5664
sbatp5665
Rp5666
(dp5667
g16
VNP
p5668
sbag5
(g6
g7
(lp5669
g5
(g6
g7
(lp5670
g5
(g6
g7
(lp5671
Vconsists
p5672
atp5673
Rp5674
(dp5675
g16
VVBZ
p5676
sbag5
(g6
g7
(lp5677
g5
(g6
g7
(lp5678
Vof
p5679
atp5680
Rp5681
(dp5682
g16
VIN
p5683
sbag5
(g6
g7
(lp5684
g5
(g6
g7
(lp5685
Vexactly
p5686
atp5687
Rp5688
(dp5689
g16
VRB
p5690
sbag5
(g6
g7
(lp5691
Vone
p5692
atp5693
Rp5694
(dp5695
g16
VCD
p5696
sbag5
(g6
g7
(lp5697
Vsentence
p5698
atp5699
Rp5700
(dp5701
g16
VNN
p5702
sbatp5703
Rp5704
(dp5705
g16
VNP
p5706
sbatp5707
Rp5708
(dp5709
g16
VPP
p5710
sbatp5711
Rp5712
(dp5713
g16
VVP
p5714
sbag5
(g6
g7
(lp5715
g398
atp5716
Rp5717
(dp5718
g16
g398
sbag5
(g6
g7
(lp5719
Vand
p5720
atp5721
Rp5722
(dp5723
g16
VCC
p5724
sbag5
(g6
g7
(lp5725
g5
(g6
g7
(lp5726
g5
(g6
g7
(lp5727
V1-many
p5728
atp5729
Rp5730
(dp5731
g16
VJJ
p5732
sbatp5733
Rp5734
(dp5735
g16
VADJP
p5736
sbag5
(g6
g7
(lp5737
g5
(g6
g7
(lp5738
Vif
p5739
atp5740
Rp5741
(dp5742
g16
VIN
p5743
sbag5
(g6
g7
(lp5744
g5
(g6
g7
(lp5745
g5
(g6
g7
(lp5746
Vthe
p5747
atp5748
Rp5749
(dp5750
g16
VDT
p5751
sbag5
(g6
g7
(lp5752
Vreference
p5753
atp5754
Rp5755
(dp5756
g16
VNN
p5757
sbatp5758
Rp5759
(dp5760
g16
VNP
p5761
sbag5
(g6
g7
(lp5762
g5
(g6
g7
(lp5763
Vcontains
p5764
atp5765
Rp5766
(dp5767
g16
VVBZ
p5768
sbag5
(g6
g7
(lp5769
g5
(g6
g7
(lp5770
g5
(g6
g7
(lp5771
Vmore
p5772
atp5773
Rp5774
(dp5775
g16
VJJR
p5776
sbag5
(g6
g7
(lp5777
Vthan
p5778
atp5779
Rp5780
(dp5781
g16
VIN
p5782
sbag5
(g6
g7
(lp5783
Vone
p5784
atp5785
Rp5786
(dp5787
g16
VCD
p5788
sbatp5789
Rp5790
(dp5791
g16
VQP
p5792
sbag5
(g6
g7
(lp5793
Vsentence
p5794
atp5795
Rp5796
(dp5797
g16
VNN
p5798
sbatp5799
Rp5800
(dp5801
g16
VNP
p5802
sbatp5803
Rp5804
(dp5805
g16
VVP
p5806
sbatp5807
Rp5808
(dp5809
g16
g191
sbatp5810
Rp5811
(dp5812
g16
VSBAR
p5813
sbatp5814
Rp5815
(dp5816
g16
VVP
p5817
sbatp5818
Rp5819
(dp5820
g16
VVP
p5821
sbatp5822
Rp5823
(dp5824
g16
g191
sbatp5825
Rp5826
(dp5827
g16
VSBAR
p5828
sbatp5829
Rp5830
(dp5831
g16
VVP
p5832
sbatp5833
Rp5834
(dp5835
g16
VVP
p5836
sbatp5837
Rp5838
(dp5839
g16
g191
sbatp5840
Rp5841
(dp5842
g16
VSBAR
p5843
sbatp5844
Rp5845
(dp5846
g16
VNP
p5847
sbatp5848
Rp5849
(dp5850
g16
VPP
p5851
sbatp5852
Rp5853
(dp5854
g16
VVP
p5855
sbatp5856
Rp5857
(dp5858
g16
g191
sbatp5859
Rp5860
(dp5861
g16
VROOT
p5862
sbasg196
(icmyPackage
CorE
p5863
(dp5864
g199
(lp5865
(I0
I60
tp5866
a(I0
I78
tp5867
asg203
g5823
sbsg209
(icmyPackage
CorE
p5868
(dp5869
g199
(lp5870
(I0
I0
tp5871
a(I0
I58
tp5872
asg203
g5
(g6
g7
(lp5873
g5478
ag5482
ag5492
ag5499
ag5561
ag5568
ag5586
ag5610
ag5617
ag5624
ag5635
atp5874
Rp5875
(dp5876
g16
g208
sbsbsg215
g2360
sg241
(lp5877
(isxpPackage
sxpSent
p5878
(dp5879
g245
(lp5880
I13
asg247
VTo investigate the prevalence of sentences in the source language (Chinese and Arabic in our case) that do not confirm to the notion of sentence in the target language (English for the purposes of this study), we separate the translation segments in the source language into two classes a source sentence is considered 1-1 if the reference translation consists of exactly one sentence, and 1-many if the reference contains more than one sentence
p5881
sg249
I5
sg230
I37
sg250
I13
sbasba(icmyPackage
CELink
p5882
(dp5883
g3
(lp5884
g5
(g6
g7
(lp5885
g5
(g6
g7
(lp5886
g5
(g6
g7
(lp5887
g5
(g6
g7
(lp5888
VWe
p5889
atp5890
Rp5891
(dp5892
g16
VPRP
p5893
sbatp5894
Rp5895
(dp5896
g16
VNP
p5897
sbag5
(g6
g7
(lp5898
g5
(g6
g7
(lp5899
Vconducted
p5900
atp5901
Rp5902
(dp5903
g16
VVBD
p5904
sbag5
(g6
g7
(lp5905
g5
(g6
g7
(lp5906
VANOVA
p5907
atp5908
Rp5909
(dp5910
g16
VNNP
p5911
sbatp5912
Rp5913
(dp5914
g16
VNP
p5915
sbag5
(g6
g7
(lp5916
g5
(g6
g7
(lp5917
Von
p5918
atp5919
Rp5920
(dp5921
g16
VIN
p5922
sbag5
(g6
g7
(lp5923
g5
(g6
g7
(lp5924
VHTER
p5925
atp5926
Rp5927
(dp5928
g16
VNNP
p5929
sbatp5930
Rp5931
(dp5932
g16
VNP
p5933
sbatp5934
Rp5935
(dp5936
g16
VPP
p5937
sbag5
(g6
g7
(lp5938
g398
atp5939
Rp5940
(dp5941
g16
g398
sbag5
(g6
g7
(lp5942
g5
(g6
g7
(lp5943
Vseparately
p5944
atp5945
Rp5946
(dp5947
g16
VRB
p5948
sbag5
(g6
g7
(lp5949
g5
(g6
g7
(lp5950
Vfor
p5951
atp5952
Rp5953
(dp5954
g16
VIN
p5955
sbag5
(g6
g7
(lp5956
g5
(g6
g7
(lp5957
Veach
p5958
atp5959
Rp5960
(dp5961
g16
VDT
p5962
sbag5
(g6
g7
(lp5963
Vlanguage
p5964
atp5965
Rp5966
(dp5967
g16
VNN
p5968
sbatp5969
Rp5970
(dp5971
g16
VNP
p5972
sbatp5973
Rp5974
(dp5975
g16
VPP
p5976
sbatp5977
Rp5978
(dp5979
g16
VADVP
p5980
sbag5
(g6
g7
(lp5981
g398
atp5982
Rp5983
(dp5984
g16
g398
sbag5
(g6
g7
(lp5985
g5
(g6
g7
(lp5986
Vwith
p5987
atp5988
Rp5989
(dp5990
g16
VIN
p5991
sbag5
(g6
g7
(lp5992
g5
(g6
g7
(lp5993
g5
(g6
g7
(lp5994
g5
(g6
g7
(lp5995
Vtype
p5996
atp5997
Rp5998
(dp5999
g16
VNN
p6000
sbatp6001
Rp6002
(dp6003
g16
VNP
p6004
sbag5
(g6
g7
(lp6005
g5
(g6
g7
(lp6006
Vof
p6007
atp6008
Rp6009
(dp6010
g16
VIN
p6011
sbag5
(g6
g7
(lp6012
g5
(g6
g7
(lp6013
g5
(g6
g7
(lp6014
g5
(g6
g7
(lp6015
Vsegment
p6016
atp6017
Rp6018
(dp6019
g16
VNN
p6020
sbatp6021
Rp6022
(dp6023
g16
VNP
p6024
sbag5
(g6
g7
(lp6025
g5
(g6
g7
(lp6026
V-LRB-
p6027
atp6028
Rp6029
(dp6030
g16
V-LRB-
p6031
sbag5
(g6
g7
(lp6032
g5
(g6
g7
(lp6033
V1-1
p6034
atp6035
Rp6036
(dp6037
g16
VJJ
p6038
sbag5
(g6
g7
(lp6039
Vor
p6040
atp6041
Rp6042
(dp6043
g16
VCC
p6044
sbag5
(g6
g7
(lp6045
V1-many
p6046
atp6047
Rp6048
(dp6049
g16
VJJ
p6050
sbatp6051
Rp6052
(dp6053
g16
VNP
p6054
sbag5
(g6
g7
(lp6055
V-RRB-
p6056
atp6057
Rp6058
(dp6059
g16
V-RRB-
p6060
sbatp6061
Rp6062
(dp6063
g16
VPRN
p6064
sbatp6065
Rp6066
(dp6067
g16
VNP
p6068
sbag5
(g6
g7
(lp6069
g5
(g6
g7
(lp6070
Vas
p6071
atp6072
Rp6073
(dp6074
g16
VIN
p6075
sbag5
(g6
g7
(lp6076
g5
(g6
g7
(lp6077
Vthe
p6078
atp6079
Rp6080
(dp6081
g16
VDT
p6082
sbag5
(g6
g7
(lp6083
Vindependent
p6084
atp6085
Rp6086
(dp6087
g16
VJJ
p6088
sbag5
(g6
g7
(lp6089
Vvariable
p6090
atp6091
Rp6092
(dp6093
g16
VNN
p6094
sbatp6095
Rp6096
(dp6097
g16
VNP
p6098
sbatp6099
Rp6100
(dp6101
g16
VPP
p6102
sbatp6103
Rp6104
(dp6105
g16
VNP
p6106
sbatp6107
Rp6108
(dp6109
g16
VPP
p6110
sbatp6111
Rp6112
(dp6113
g16
VNP
p6114
sbag5
(g6
g7
(lp6115
Vand
p6116
atp6117
Rp6118
(dp6119
g16
VCC
p6120
sbag5
(g6
g7
(lp6121
g5
(g6
g7
(lp6122
g5
(g6
g7
(lp6123
Vsystems
p6124
atp6125
Rp6126
(dp6127
g16
VNNS
p6128
sbatp6129
Rp6130
(dp6131
g16
VNP
p6132
sbag5
(g6
g7
(lp6133
g5
(g6
g7
(lp6134
Vtreated
p6135
atp6136
Rp6137
(dp6138
g16
VVBN
p6139
sbag5
(g6
g7
(lp6140
g5
(g6
g7
(lp6141
Vas
p6142
atp6143
Rp6144
(dp6145
g16
VIN
p6146
sbag5
(g6
g7
(lp6147
g5
(g6
g7
(lp6148
Vsubjects
p6149
atp6150
Rp6151
(dp6152
g16
VNNS
p6153
sbatp6154
Rp6155
(dp6156
g16
VNP
p6157
sbatp6158
Rp6159
(dp6160
g16
VPP
p6161
sbatp6162
Rp6163
(dp6164
g16
VVP
p6165
sbatp6166
Rp6167
(dp6168
g16
VNP
p6169
sbatp6170
Rp6171
(dp6172
g16
VNP
p6173
sbatp6174
Rp6175
(dp6176
g16
VPP
p6177
sbatp6178
Rp6179
(dp6180
g16
VVP
p6181
sbatp6182
Rp6183
(dp6184
g16
g191
sbatp6185
Rp6186
(dp6187
g16
VROOT
p6188
sbasg196
(icmyPackage
CorE
p6189
(dp6190
g199
(lp6191
(I0
I21
tp6192
a(I0
I27
tp6193
asg203
g5
(g6
g7
(lp6194
g6096
ag6118
ag6130
ag6137
ag6144
atp6195
Rp6196
(dp6197
g16
g208
sbsbsg209
(icmyPackage
CorE
p6198
(dp6199
g199
(lp6200
(I0
I0
tp6201
a(I0
I19
tp6202
asg203
g5
(g6
g7
(lp6203
g5895
ag5902
ag5913
ag5935
ag5940
ag5978
ag5983
ag5989
ag6002
ag6009
ag6066
atp6204
Rp6205
(dp6206
g16
g208
sbsbsg215
g3944
sg241
(lp6207
(isxpPackage
sxpSent
p6208
(dp6209
g245
(lp6210
I14
asg247
VWe conducted ANOVA on HTER, separately for each language, with type of segment (1-1 or 1-many) as the independent variable and systems treated as subjects
p6211
sg249
I5
sg230
I46
sg250
I18
sbasba(icmyPackage
CELink
p6212
(dp6213
g3
(lp6214
g5
(g6
g7
(lp6215
g5
(g6
g7
(lp6216
g5
(g6
g7
(lp6217
g5
(g6
g7
(lp6218
VOnce
p6219
atp6220
Rp6221
(dp6222
g16
VIN
p6223
sbag5
(g6
g7
(lp6224
g5
(g6
g7
(lp6225
g5
(g6
g7
(lp6226
V1-many
p6227
atp6228
Rp6229
(dp6230
g16
VJJ
p6231
sbag5
(g6
g7
(lp6232
Vsegments
p6233
atp6234
Rp6235
(dp6236
g16
VNNS
p6237
sbatp6238
Rp6239
(dp6240
g16
VNP
p6241
sbag5
(g6
g7
(lp6242
g5
(g6
g7
(lp6243
Vare
p6244
atp6245
Rp6246
(dp6247
g16
VVBP
p6248
sbag5
(g6
g7
(lp6249
g5
(g6
g7
(lp6250
Videntified
p6251
atp6252
Rp6253
(dp6254
g16
VVBN
p6255
sbatp6256
Rp6257
(dp6258
g16
VVP
p6259
sbatp6260
Rp6261
(dp6262
g16
VVP
p6263
sbatp6264
Rp6265
(dp6266
g16
g191
sbatp6267
Rp6268
(dp6269
g16
VSBAR
p6270
sbag5
(g6
g7
(lp6271
g398
atp6272
Rp6273
(dp6274
g16
g398
sbag5
(g6
g7
(lp6275
g5
(g6
g7
(lp6276
Vsource-side
p6277
atp6278
Rp6279
(dp6280
g16
VJJ
p6281
sbag5
(g6
g7
(lp6282
Vtext
p6283
atp6284
Rp6285
(dp6286
g16
VNN
p6287
sbag5
(g6
g7
(lp6288
Vsimplification
p6289
atp6290
Rp6291
(dp6292
g16
VNN
p6293
sbag5
(g6
g7
(lp6294
Vtechniques
p6295
atp6296
Rp6297
(dp6298
g16
VNNS
p6299
sbatp6300
Rp6301
(dp6302
g16
VNP
p6303
sbag5
(g6
g7
(lp6304
g5
(g6
g7
(lp6305
Vmay
p6306
atp6307
Rp6308
(dp6309
g16
VMD
p6310
sbag5
(g6
g7
(lp6311
g5
(g6
g7
(lp6312
Vbe
p6313
atp6314
Rp6315
(dp6316
g16
VVB
p6317
sbag5
(g6
g7
(lp6318
g5
(g6
g7
(lp6319
Vdeveloped
p6320
atp6321
Rp6322
(dp6323
g16
VVBN
p6324
sbag5
(g6
g7
(lp6325
g5
(g6
g7
(lp6326
g5
(g6
g7
(lp6327
V-LSB-
p6328
atp6329
Rp6330
(dp6331
g16
VVBG
p6332
sbag5
(g6
g7
(lp6333
g5
(g6
g7
(lp6334
V17
p6335
atp6336
Rp6337
(dp6338
g16
VCD
p6339
sbag5
(g6
g7
(lp6340
V-RSB-
p6341
atp6342
Rp6343
(dp6344
g16
VNNS
p6345
sbatp6346
Rp6347
(dp6348
g16
VNP
p6349
sbag5
(g6
g7
(lp6350
g5
(g6
g7
(lp6351
g5
(g6
g7
(lp6352
Vto
p6353
atp6354
Rp6355
(dp6356
g16
VTO
p6357
sbag5
(g6
g7
(lp6358
g5
(g6
g7
(lp6359
Vimprove
p6360
atp6361
Rp6362
(dp6363
g16
VVB
p6364
sbag5
(g6
g7
(lp6365
g5
(g6
g7
(lp6366
Vtranslation
p6367
atp6368
Rp6369
(dp6370
g16
VNN
p6371
sbag5
(g6
g7
(lp6372
Vquality
p6373
atp6374
Rp6375
(dp6376
g16
VNN
p6377
sbatp6378
Rp6379
(dp6380
g16
VNP
p6381
sbatp6382
Rp6383
(dp6384
g16
VVP
p6385
sbatp6386
Rp6387
(dp6388
g16
VVP
p6389
sbatp6390
Rp6391
(dp6392
g16
g191
sbatp6393
Rp6394
(dp6395
g16
VVP
p6396
sbatp6397
Rp6398
(dp6399
g16
g191
sbatp6400
Rp6401
(dp6402
g16
VVP
p6403
sbatp6404
Rp6405
(dp6406
g16
VVP
p6407
sbatp6408
Rp6409
(dp6410
g16
VVP
p6411
sbatp6412
Rp6413
(dp6414
g16
g191
sbatp6415
Rp6416
(dp6417
g16
VROOT
p6418
sbasg196
(icmyPackage
CorE
p6419
(dp6420
g199
(lp6421
(I0
I1
tp6422
a(I0
I4
tp6423
asg203
g6265
sbsg209
(icmyPackage
CorE
p6424
(dp6425
g199
(lp6426
(I0
I6
tp6427
a(I0
I19
tp6428
asg203
g5
(g6
g7
(lp6429
g6301
ag6409
atp6430
Rp6431
(dp6432
g16
g208
sbsbsg215
(icmyPackage
pattern
p6433
(dp6434
g218
I0
sg219
I0
sg220
(lp6435
(lp6436
(lp6437
S'if'
p6438
aS'once'
p6439
aaa(lp6440
g2058
aasg225
(lp6441
I1
aI1
aI1
asg227
(lp6442
S'If some light and mobile detection devices can be invented in the future, many new applications can be imagined, for example, people can get some services while thinking.'
p6443
asg230
I15
sg231
(lp6444
(lp6445
a(lp6446
S'&C@Complete@'
p6447
aa(lp6448
S'&R@Complete@'
p6449
aasbsg241
(lp6450
(isxpPackage
sxpSent
p6451
(dp6452
g245
(lp6453
I15
asg247
VOnce 1-many segments are identified, source-side text simplification techniques may be developed [ 17 ] to improve translation quality
p6454
sg249
I5
sg230
I53
sg250
I19
sbasba(icmyPackage
CELink
p6455
(dp6456
g3
(lp6457
g5
(g6
g7
(lp6458
g5
(g6
g7
(lp6459
g5
(g6
g7
(lp6460
g5
(g6
g7
(lp6461
VFor
p6462
atp6463
Rp6464
(dp6465
g16
VIN
p6466
sbag5
(g6
g7
(lp6467
g5
(g6
g7
(lp6468
g5
(g6
g7
(lp6469
Vexample
p6470
atp6471
Rp6472
(dp6473
g16
VNN
p6474
sbatp6475
Rp6476
(dp6477
g16
VNP
p6478
sbag5
(g6
g7
(lp6479
g398
atp6480
Rp6481
(dp6482
g16
g398
sbag5
(g6
g7
(lp6483
g5
(g6
g7
(lp6484
Vwhile
p6485
atp6486
Rp6487
(dp6488
g16
VIN
p6489
sbag5
(g6
g7
(lp6490
g5
(g6
g7
(lp6491
g5
(g6
g7
(lp6492
Vcan
p6493
atp6494
Rp6495
(dp6496
g16
VMD
p6497
sbag5
(g6
g7
(lp6498
g5
(g6
g7
(lp6499
Vsignal
p6500
atp6501
Rp6502
(dp6503
g16
VVB
p6504
sbag5
(g6
g7
(lp6505
g5
(g6
g7
(lp6506
g5
(g6
g7
(lp6507
Veither
p6508
atp6509
Rp6510
(dp6511
g16
VDT
p6512
sbag5
(g6
g7
(lp6513
Vcomparison
p6514
atp6515
Rp6516
(dp6517
g16
VNN
p6518
sbatp6519
Rp6520
(dp6521
g16
VNP
p6522
sbag5
(g6
g7
(lp6523
Vor
p6524
atp6525
Rp6526
(dp6527
g16
VCC
p6528
sbag5
(g6
g7
(lp6529
g5
(g6
g7
(lp6530
Vtemporal
p6531
atp6532
Rp6533
(dp6534
g16
VJJ
p6535
sbag5
(g6
g7
(lp6536
Vrelations
p6537
atp6538
Rp6539
(dp6540
g16
VNNS
p6541
sbatp6542
Rp6543
(dp6544
g16
VNP
p6545
sbatp6546
Rp6547
(dp6548
g16
VNP
p6549
sbatp6550
Rp6551
(dp6552
g16
VVP
p6553
sbatp6554
Rp6555
(dp6556
g16
VVP
p6557
sbatp6558
Rp6559
(dp6560
g16
g191
sbatp6561
Rp6562
(dp6563
g16
VSBAR
p6564
sbatp6565
Rp6566
(dp6567
g16
VNP
p6568
sbatp6569
Rp6570
(dp6571
g16
VPP
p6572
sbag5
(g6
g7
(lp6573
Vand
p6574
atp6575
Rp6576
(dp6577
g16
VCC
p6578
sbag5
(g6
g7
(lp6579
g5
(g6
g7
(lp6580
Vsince
p6581
atp6582
Rp6583
(dp6584
g16
VIN
p6585
sbag5
(g6
g7
(lp6586
g5
(g6
g7
(lp6587
g5
(g6
g7
(lp6588
Vcan
p6589
atp6590
Rp6591
(dp6592
g16
VMD
p6593
sbag5
(g6
g7
(lp6594
g5
(g6
g7
(lp6595
Vsignal
p6596
atp6597
Rp6598
(dp6599
g16
VVB
p6600
sbag5
(g6
g7
(lp6601
g5
(g6
g7
(lp6602
g5
(g6
g7
(lp6603
Veither
p6604
atp6605
Rp6606
(dp6607
g16
VDT
p6608
sbag5
(g6
g7
(lp6609
Vcontingency
p6610
atp6611
Rp6612
(dp6613
g16
VNN
p6614
sbatp6615
Rp6616
(dp6617
g16
VNP
p6618
sbag5
(g6
g7
(lp6619
Vor
p6620
atp6621
Rp6622
(dp6623
g16
VCC
p6624
sbag5
(g6
g7
(lp6625
g5
(g6
g7
(lp6626
Vtemporal
p6627
atp6628
Rp6629
(dp6630
g16
VJJ
p6631
sbatp6632
Rp6633
(dp6634
g16
VNP
p6635
sbatp6636
Rp6637
(dp6638
g16
VNP
p6639
sbatp6640
Rp6641
(dp6642
g16
VVP
p6643
sbatp6644
Rp6645
(dp6646
g16
VVP
p6647
sbatp6648
Rp6649
(dp6650
g16
g191
sbatp6651
Rp6652
(dp6653
g16
VSBAR
p6654
sbatp6655
Rp6656
(dp6657
g16
VUCP
p6658
sbatp6659
Rp6660
(dp6661
g16
VROOT
p6662
sbasg196
(icmyPackage
CorE
p6663
(dp6664
g199
(lp6665
(I0
I13
tp6666
a(I0
I18
tp6667
asg203
g6649
sbsg209
(icmyPackage
CorE
p6668
(dp6669
g199
(lp6670
(I0
I2
tp6671
a(I0
I11
tp6672
asg203
g5
(g6
g7
(lp6673
g6481
ag6562
ag6576
atp6674
Rp6675
(dp6676
g16
g208
sbsbsg215
g1339
sg241
(lp6677
(isxpPackage
sxpSent
p6678
(dp6679
g245
(lp6680
I16
asg247
VFor example, while can signal either comparison or temporal relations and since can signal either contingency or temporal
p6681
sg249
I8
sg230
I66
sg250
I23
sbasba(icmyPackage
CELink
p6682
(dp6683
g3
(lp6684
g5
(g6
g7
(lp6685
g5
(g6
g7
(lp6686
g5
(g6
g7
(lp6687
g5
(g6
g7
(lp6688
VThis
p6689
atp6690
Rp6691
(dp6692
g16
VDT
p6693
sbag5
(g6
g7
(lp6694
Vanalysis
p6695
atp6696
Rp6697
(dp6698
g16
VNN
p6699
sbatp6700
Rp6701
(dp6702
g16
VNP
p6703
sbag5
(g6
g7
(lp6704
g5
(g6
g7
(lp6705
Vgives
p6706
atp6707
Rp6708
(dp6709
g16
VVBZ
p6710
sbag5
(g6
g7
(lp6711
g5
(g6
g7
(lp6712
Vlower
p6713
atp6714
Rp6715
(dp6716
g16
VRBR
p6717
sbag5
(g6
g7
(lp6718
Vbound
p6719
atp6720
Rp6721
(dp6722
g16
VVBN
p6723
sbag5
(g6
g7
(lp6724
g5
(g6
g7
(lp6725
Von
p6726
atp6727
Rp6728
(dp6729
g16
VIN
p6730
sbag5
(g6
g7
(lp6731
g5
(g6
g7
(lp6732
g5
(g6
g7
(lp6733
Vthe
p6734
atp6735
Rp6736
(dp6737
g16
VDT
p6738
sbag5
(g6
g7
(lp6739
Vtranslation
p6740
atp6741
Rp6742
(dp6743
g16
VNN
p6744
sbag5
(g6
g7
(lp6745
Vquality
p6746
atp6747
Rp6748
(dp6749
g16
VNN
p6750
sbag5
(g6
g7
(lp6751
Vdegradation
p6752
atp6753
Rp6754
(dp6755
g16
VNN
p6756
sbatp6757
Rp6758
(dp6759
g16
VNP
p6760
sbag5
(g6
g7
(lp6761
g5
(g6
g7
(lp6762
Vassociated
p6763
atp6764
Rp6765
(dp6766
g16
VVBN
p6767
sbag5
(g6
g7
(lp6768
g5
(g6
g7
(lp6769
Vwith
p6770
atp6771
Rp6772
(dp6773
g16
VIN
p6774
sbag5
(g6
g7
(lp6775
g5
(g6
g7
(lp6776
Vdiscourse
p6777
atp6778
Rp6779
(dp6780
g16
VNN
p6781
sbag5
(g6
g7
(lp6782
Vphenomena
p6783
atp6784
Rp6785
(dp6786
g16
VNNS
p6787
sbatp6788
Rp6789
(dp6790
g16
VNP
p6791
sbatp6792
Rp6793
(dp6794
g16
VPP
p6795
sbag5
(g6
g7
(lp6796
g5
(g6
g7
(lp6797
Vas
p6798
atp6799
Rp6800
(dp6801
g16
VIN
p6802
sbag5
(g6
g7
(lp6803
g5
(g6
g7
(lp6804
g5
(g6
g7
(lp6805
Vit
p6806
atp6807
Rp6808
(dp6809
g16
VPRP
p6810
sbatp6811
Rp6812
(dp6813
g16
VNP
p6814
sbag5
(g6
g7
(lp6815
g5
(g6
g7
(lp6816
Vdoes
p6817
atp6818
Rp6819
(dp6820
g16
VVBZ
p6821
sbag5
(g6
g7
(lp6822
Vnot
p6823
atp6824
Rp6825
(dp6826
g16
VRB
p6827
sbag5
(g6
g7
(lp6828
g5
(g6
g7
(lp6829
Vcapture
p6830
atp6831
Rp6832
(dp6833
g16
VVB
p6834
sbag5
(g6
g7
(lp6835
g5
(g6
g7
(lp6836
g5
(g6
g7
(lp6837
Vproblems
p6838
atp6839
Rp6840
(dp6841
g16
VNNS
p6842
sbatp6843
Rp6844
(dp6845
g16
VNP
p6846
sbag5
(g6
g7
(lp6847
g5
(g6
g7
(lp6848
Varising
p6849
atp6850
Rp6851
(dp6852
g16
VVBG
p6853
sbag5
(g6
g7
(lp6854
g5
(g6
g7
(lp6855
Vfrom
p6856
atp6857
Rp6858
(dp6859
g16
VIN
p6860
sbag5
(g6
g7
(lp6861
g5
(g6
g7
(lp6862
g5
(g6
g7
(lp6863
Vconnective
p6864
atp6865
Rp6866
(dp6867
g16
VJJ
p6868
sbag5
(g6
g7
(lp6869
Vambiguity
p6870
atp6871
Rp6872
(dp6873
g16
VNNS
p6874
sbatp6875
Rp6876
(dp6877
g16
VNP
p6878
sbag5
(g6
g7
(lp6879
g5
(g6
g7
(lp6880
Von
p6881
atp6882
Rp6883
(dp6884
g16
VIN
p6885
sbag5
(g6
g7
(lp6886
g5
(g6
g7
(lp6887
Vthe
p6888
atp6889
Rp6890
(dp6891
g16
VDT
p6892
sbag5
(g6
g7
(lp6893
Vsource
p6894
atp6895
Rp6896
(dp6897
g16
VNN
p6898
sbag5
(g6
g7
(lp6899
Vside
p6900
atp6901
Rp6902
(dp6903
g16
VNN
p6904
sbatp6905
Rp6906
(dp6907
g16
VNP
p6908
sbatp6909
Rp6910
(dp6911
g16
VPP
p6912
sbatp6913
Rp6914
(dp6915
g16
VNP
p6916
sbatp6917
Rp6918
(dp6919
g16
VPP
p6920
sbatp6921
Rp6922
(dp6923
g16
VVP
p6924
sbatp6925
Rp6926
(dp6927
g16
VNP
p6928
sbatp6929
Rp6930
(dp6931
g16
VVP
p6932
sbatp6933
Rp6934
(dp6935
g16
VVP
p6936
sbatp6937
Rp6938
(dp6939
g16
g191
sbatp6940
Rp6941
(dp6942
g16
VSBAR
p6943
sbatp6944
Rp6945
(dp6946
g16
VVP
p6947
sbatp6948
Rp6949
(dp6950
g16
VNP
p6951
sbatp6952
Rp6953
(dp6954
g16
VPP
p6955
sbatp6956
Rp6957
(dp6958
g16
VADJP
p6959
sbatp6960
Rp6961
(dp6962
g16
VVP
p6963
sbatp6964
Rp6965
(dp6966
g16
g191
sbatp6967
Rp6968
(dp6969
g16
VROOT
p6970
sbasg196
(icmyPackage
CorE
p6971
(dp6972
g199
(lp6973
(I0
I15
tp6974
a(I0
I27
tp6975
asg203
g6938
sbsg209
(icmyPackage
CorE
p6976
(dp6977
g199
(lp6978
(I0
I0
tp6979
a(I0
I13
tp6980
asg203
g5
(g6
g7
(lp6981
g6701
ag6708
ag6715
ag6721
ag6728
ag6758
ag6765
ag6793
atp6982
Rp6983
(dp6984
g16
g208
sbsbsg215
g3944
sg241
(lp6985
(isxpPackage
sxpSent
p6986
(dp6987
g245
(lp6988
I17
asg247
VThis analysis gives lower bound on the translation quality degradation associated with discourse phenomena as it does not capture problems arising from connective ambiguity on the source side
p6989
sg249
I8
sg230
I70
sg250
I23
sbasba(icmyPackage
CELink
p6990
(dp6991
g3
(lp6992
g5
(g6
g7
(lp6993
g5
(g6
g7
(lp6994
g5
(g6
g7
(lp6995
g5
(g6
g7
(lp6996
g5
(g6
g7
(lp6997
VWe
p6998
atp6999
Rp7000
(dp7001
g16
VPRP
p7002
sbatp7003
Rp7004
(dp7005
g16
VNP
p7006
sbag5
(g6
g7
(lp7007
g5
(g6
g7
(lp7008
Vbase
p7009
atp7010
Rp7011
(dp7012
g16
VVB
p7013
sbag5
(g6
g7
(lp7014
g5
(g6
g7
(lp7015
g5
(g6
g7
(lp7016
Vour
p7017
atp7018
Rp7019
(dp7020
g16
VPRP$
p7021
sbag5
(g6
g7
(lp7022
Vclassification
p7023
atp7024
Rp7025
(dp7026
g16
VNN
p7027
sbatp7028
Rp7029
(dp7030
g16
VNP
p7031
sbag5
(g6
g7
(lp7032
g5
(g6
g7
(lp7033
Vof
p7034
atp7035
Rp7036
(dp7037
g16
VIN
p7038
sbag5
(g6
g7
(lp7039
g5
(g6
g7
(lp7040
Vdiscourse
p7041
atp7042
Rp7043
(dp7044
g16
VNN
p7045
sbag5
(g6
g7
(lp7046
Vconnectives
p7047
atp7048
Rp7049
(dp7050
g16
VNNS
p7051
sbatp7052
Rp7053
(dp7054
g16
VNP
p7055
sbatp7056
Rp7057
(dp7058
g16
VPP
p7059
sbatp7060
Rp7061
(dp7062
g16
VNP
p7063
sbag5
(g6
g7
(lp7064
g5
(g6
g7
(lp7065
Vinto
p7066
atp7067
Rp7068
(dp7069
g16
VIN
p7070
sbag5
(g6
g7
(lp7071
g5
(g6
g7
(lp7072
Vambiguous
p7073
atp7074
Rp7075
(dp7076
g16
VJJ
p7077
sbatp7078
Rp7079
(dp7080
g16
VNP
p7081
sbatp7082
Rp7083
(dp7084
g16
VPP
p7085
sbatp7086
Rp7087
(dp7088
g16
VVP
p7089
sbatp7090
Rp7091
(dp7092
g16
VFRAG
p7093
sbag5
(g6
g7
(lp7094
Vor
p7095
atp7096
Rp7097
(dp7098
g16
VCC
p7099
sbag5
(g6
g7
(lp7100
g5
(g6
g7
(lp7101
Vnot
p7102
atp7103
Rp7104
(dp7105
g16
VRB
p7106
sbag5
(g6
g7
(lp7107
g5
(g6
g7
(lp7108
Vaccording
p7109
atp7110
Rp7111
(dp7112
g16
VVBG
p7113
sbag5
(g6
g7
(lp7114
g5
(g6
g7
(lp7115
Vto
p7116
atp7117
Rp7118
(dp7119
g16
VTO
p7120
sbag5
(g6
g7
(lp7121
g5
(g6
g7
(lp7122
g5
(g6
g7
(lp7123
Vthe
p7124
atp7125
Rp7126
(dp7127
g16
VDT
p7128
sbag5
(g6
g7
(lp7129
Vdistribution
p7130
atp7131
Rp7132
(dp7133
g16
VNN
p7134
sbatp7135
Rp7136
(dp7137
g16
VNP
p7138
sbag5
(g6
g7
(lp7139
g5
(g6
g7
(lp7140
Vof
p7141
atp7142
Rp7143
(dp7144
g16
VIN
p7145
sbag5
(g6
g7
(lp7146
g5
(g6
g7
(lp7147
g5
(g6
g7
(lp7148
Vtheir
p7149
atp7150
Rp7151
(dp7152
g16
VPRP$
p7153
sbag5
(g6
g7
(lp7154
Vsenses
p7155
atp7156
Rp7157
(dp7158
g16
VNNS
p7159
sbatp7160
Rp7161
(dp7162
g16
VNP
p7163
sbag5
(g6
g7
(lp7164
g5
(g6
g7
(lp7165
Vin
p7166
atp7167
Rp7168
(dp7169
g16
VIN
p7170
sbag5
(g6
g7
(lp7171
g5
(g6
g7
(lp7172
Vthe
p7173
atp7174
Rp7175
(dp7176
g16
VDT
p7177
sbag5
(g6
g7
(lp7178
VPDTB
p7179
atp7180
Rp7181
(dp7182
g16
VNNP
p7183
sbatp7184
Rp7185
(dp7186
g16
VNP
p7187
sbatp7188
Rp7189
(dp7190
g16
VPP
p7191
sbatp7192
Rp7193
(dp7194
g16
VNP
p7195
sbatp7196
Rp7197
(dp7198
g16
VPP
p7199
sbatp7200
Rp7201
(dp7202
g16
VNP
p7203
sbatp7204
Rp7205
(dp7206
g16
VPP
p7207
sbatp7208
Rp7209
(dp7210
g16
VPP
p7211
sbatp7212
Rp7213
(dp7214
g16
VFRAG
p7215
sbatp7216
Rp7217
(dp7218
g16
VFRAG
p7219
sbatp7220
Rp7221
(dp7222
g16
VROOT
p7223
sbasg196
(icmyPackage
CorE
p7224
(dp7225
g199
(lp7226
(I0
I13
tp7227
a(I0
I20
tp7228
asg203
g7201
sbsg209
(icmyPackage
CorE
p7229
(dp7230
g199
(lp7231
(I0
I1
tp7232
a(I0
I10
tp7233
asg203
g5
(g6
g7
(lp7234
g7087
ag7097
ag7104
atp7235
Rp7236
(dp7237
g16
g208
sbsbsg215
g2730
sg241
(lp7238
(isxpPackage
sxpSent
p7239
(dp7240
g245
(lp7241
I18
asg247
VWe base our classification of discourse connectives into ambiguous or not according to the distribution of their senses in the PDTB
p7242
sg249
I8
sg230
I71
sg250
I24
sbasba(icmyPackage
CELink
p7243
(dp7244
g3
(lp7245
g5
(g6
g7
(lp7246
g5
(g6
g7
(lp7247
g5
(g6
g7
(lp7248
g5
(g6
g7
(lp7249
VWe
p7250
atp7251
Rp7252
(dp7253
g16
VPRP
p7254
sbatp7255
Rp7256
(dp7257
g16
VNP
p7258
sbag5
(g6
g7
(lp7259
g5
(g6
g7
(lp7260
Vcall
p7261
atp7262
Rp7263
(dp7264
g16
VVBP
p7265
sbag5
(g6
g7
(lp7266
g5
(g6
g7
(lp7267
g907
atp7268
Rp7269
(dp7270
g16
VDT
p7271
sbag5
(g6
g7
(lp7272
Vconnective
p7273
atp7274
Rp7275
(dp7276
g16
VJJ
p7277
sbag5
(g6
g7
(lp7278
Vambiguous
p7279
atp7280
Rp7281
(dp7282
g16
VJJ
p7283
sbatp7284
Rp7285
(dp7286
g16
VNP
p7287
sbag5
(g6
g7
(lp7288
g5
(g6
g7
(lp7289
Vif
p7290
atp7291
Rp7292
(dp7293
g16
VIN
p7294
sbag5
(g6
g7
(lp7295
g5
(g6
g7
(lp7296
g5
(g6
g7
(lp7297
g5
(g6
g7
(lp7298
Vits
p7299
atp7300
Rp7301
(dp7302
g16
VPRP$
p7303
sbag5
(g6
g7
(lp7304
g5
(g6
g7
(lp7305
Vmost
p7306
atp7307
Rp7308
(dp7309
g16
VRBS
p7310
sbag5
(g6
g7
(lp7311
Vfrequent
p7312
atp7313
Rp7314
(dp7315
g16
VJJ
p7316
sbatp7317
Rp7318
(dp7319
g16
VADJP
p7320
sbag5
(g6
g7
(lp7321
Vsense
p7322
atp7323
Rp7324
(dp7325
g16
VNN
p7326
sbatp7327
Rp7328
(dp7329
g16
VNP
p7330
sbag5
(g6
g7
(lp7331
g5
(g6
g7
(lp7332
Vamong
p7333
atp7334
Rp7335
(dp7336
g16
VIN
p7337
sbag5
(g6
g7
(lp7338
g5
(g6
g7
(lp7339
Vcomparison
p7340
atp7341
Rp7342
(dp7343
g16
VNN
p7344
sbag5
(g6
g7
(lp7345
g398
atp7346
Rp7347
(dp7348
g16
g398
sbag5
(g6
g7
(lp7349
Vcontingency
p7350
atp7351
Rp7352
(dp7353
g16
VNN
p7354
sbag5
(g6
g7
(lp7355
g398
atp7356
Rp7357
(dp7358
g16
g398
sbag5
(g6
g7
(lp7359
Vexpansion
p7360
atp7361
Rp7362
(dp7363
g16
VNN
p7364
sbag5
(g6
g7
(lp7365
g398
atp7366
Rp7367
(dp7368
g16
g398
sbag5
(g6
g7
(lp7369
Vtemporal
p7370
atp7371
Rp7372
(dp7373
g16
VFW
p7374
sbatp7375
Rp7376
(dp7377
g16
VNP
p7378
sbatp7379
Rp7380
(dp7381
g16
VPP
p7382
sbatp7383
Rp7384
(dp7385
g16
VNP
p7386
sbag5
(g6
g7
(lp7387
g5
(g6
g7
(lp7388
Vaccounts
p7389
atp7390
Rp7391
(dp7392
g16
VVBZ
p7393
sbag5
(g6
g7
(lp7394
g5
(g6
g7
(lp7395
Vfor
p7396
atp7397
Rp7398
(dp7399
g16
VIN
p7400
sbag5
(g6
g7
(lp7401
g5
(g6
g7
(lp7402
g5
(g6
g7
(lp7403
g5
(g6
g7
(lp7404
Vless
p7405
atp7406
Rp7407
(dp7408
g16
VJJR
p7409
sbag5
(g6
g7
(lp7410
Vthan
p7411
atp7412
Rp7413
(dp7414
g16
VIN
p7415
sbag5
(g6
g7
(lp7416
V80
p7417
atp7418
Rp7419
(dp7420
g16
VCD
p7421
sbatp7422
Rp7423
(dp7424
g16
VQP
p7425
sbag5
(g6
g7
(lp7426
g1758
atp7427
Rp7428
(dp7429
g16
VNN
p7430
sbatp7431
Rp7432
(dp7433
g16
VNP
p7434
sbag5
(g6
g7
(lp7435
g5
(g6
g7
(lp7436
Vof
p7437
atp7438
Rp7439
(dp7440
g16
VIN
p7441
sbag5
(g6
g7
(lp7442
g5
(g6
g7
(lp7443
g5
(g6
g7
(lp7444
Voccurrence
p7445
atp7446
Rp7447
(dp7448
g16
VNN
p7449
sbatp7450
Rp7451
(dp7452
g16
VNP
p7453
sbag5
(g6
g7
(lp7454
g5
(g6
g7
(lp7455
Vof
p7456
atp7457
Rp7458
(dp7459
g16
VIN
p7460
sbag5
(g6
g7
(lp7461
g5
(g6
g7
(lp7462
g5
(g6
g7
(lp7463
Vthat
p7464
atp7465
Rp7466
(dp7467
g16
VDT
p7468
sbag5
(g6
g7
(lp7469
Vconnective
p7470
atp7471
Rp7472
(dp7473
g16
VNN
p7474
sbatp7475
Rp7476
(dp7477
g16
VNP
p7478
sbag5
(g6
g7
(lp7479
g5
(g6
g7
(lp7480
Vin
p7481
atp7482
Rp7483
(dp7484
g16
VIN
p7485
sbag5
(g6
g7
(lp7486
g5
(g6
g7
(lp7487
Vthe
p7488
atp7489
Rp7490
(dp7491
g16
VDT
p7492
sbag5
(g6
g7
(lp7493
VPDTB
p7494
atp7495
Rp7496
(dp7497
g16
VNNP
p7498
sbatp7499
Rp7500
(dp7501
g16
VNP
p7502
sbatp7503
Rp7504
(dp7505
g16
VPP
p7506
sbatp7507
Rp7508
(dp7509
g16
VNP
p7510
sbatp7511
Rp7512
(dp7513
g16
VPP
p7514
sbatp7515
Rp7516
(dp7517
g16
VNP
p7518
sbatp7519
Rp7520
(dp7521
g16
VPP
p7522
sbatp7523
Rp7524
(dp7525
g16
VNP
p7526
sbatp7527
Rp7528
(dp7529
g16
VPP
p7530
sbatp7531
Rp7532
(dp7533
g16
VVP
p7534
sbatp7535
Rp7536
(dp7537
g16
g191
sbatp7538
Rp7539
(dp7540
g16
VSBAR
p7541
sbatp7542
Rp7543
(dp7544
g16
VVP
p7545
sbatp7546
Rp7547
(dp7548
g16
g191
sbatp7549
Rp7550
(dp7551
g16
VROOT
p7552
sbasg196
(icmyPackage
CorE
p7553
(dp7554
g199
(lp7555
(I0
I6
tp7556
a(I0
I31
tp7557
asg203
g7536
sbsg209
(icmyPackage
CorE
p7558
(dp7559
g199
(lp7560
(I0
I0
tp7561
a(I0
I4
tp7562
asg203
g5
(g6
g7
(lp7563
g7256
ag7263
ag7285
atp7564
Rp7565
(dp7566
g16
g208
sbsbsg215
g2360
sg241
(lp7567
(isxpPackage
sxpSent
p7568
(dp7569
g245
(lp7570
I19
asg247
VWe call a connective ambiguous if its most frequent sense among comparison, contingency, expansion, temporal accounts for less than 80% of occurrence of that connective in the PDTB
p7571
sg249
I8
sg230
I72
sg250
I24
sbasba(icmyPackage
CELink
p7572
(dp7573
g3
(lp7574
g5
(g6
g7
(lp7575
g5
(g6
g7
(lp7576
g5
(g6
g7
(lp7577
g5
(g6
g7
(lp7578
g5
(g6
g7
(lp7579
g5
(g6
g7
(lp7580
V4
p7581
atp7582
Rp7583
(dp7584
g16
VCD
p7585
sbag5
(g6
g7
(lp7586
g7581
atp7587
Rp7588
(dp7589
g16
VCD
p7590
sbatp7591
Rp7592
(dp7593
g16
VQP
p7594
sbatp7595
Rp7596
(dp7597
g16
VNP
p7598
sbag5
(g6
g7
(lp7599
g5
(g6
g7
(lp7600
g5
(g6
g7
(lp7601
g5
(g6
g7
(lp7602
VThe
p7603
atp7604
Rp7605
(dp7606
g16
VDT
p7607
sbag5
(g6
g7
(lp7608
Vambiguous
p7609
atp7610
Rp7611
(dp7612
g16
VJJ
p7613
sbag5
(g6
g7
(lp7614
Vconnectives
p7615
atp7616
Rp7617
(dp7618
g16
VNNS
p7619
sbatp7620
Rp7621
(dp7622
g16
VNP
p7623
sbag5
(g6
g7
(lp7624
g5
(g6
g7
(lp7625
Vare
p7626
atp7627
Rp7628
(dp7629
g16
VVBP
p7630
sbag5
(g6
g7
(lp7631
g5
(g6
g7
(lp7632
Vas
p7633
atp7634
Rp7635
(dp7636
g16
VIN
p7637
sbatp7638
Rp7639
(dp7640
g16
VPP
p7641
sbag5
(g6
g7
(lp7642
g398
atp7643
Rp7644
(dp7645
g16
g398
sbag5
(g6
g7
(lp7646
g5
(g6
g7
(lp7647
Vas
p7648
atp7649
Rp7650
(dp7651
g16
VRB
p7652
sbag5
(g6
g7
(lp7653
Vif
p7654
atp7655
Rp7656
(dp7657
g16
VIN
p7658
sbag5
(g6
g7
(lp7659
g5
(g6
g7
(lp7660
g5
(g6
g7
(lp7661
g5
(g6
g7
(lp7662
g398
atp7663
Rp7664
(dp7665
g16
g398
sbag5
(g6
g7
(lp7666
g5
(g6
g7
(lp7667
Vas
p7668
atp7669
Rp7670
(dp7671
g16
VRB
p7672
sbag5
(g6
g7
(lp7673
Vlong
p7674
atp7675
Rp7676
(dp7677
g16
VRB
p7678
sbag5
(g6
g7
(lp7679
Vas
p7680
atp7681
Rp7682
(dp7683
g16
VRB
p7684
sbatp7685
Rp7686
(dp7687
g16
VADVP
p7688
sbag5
(g6
g7
(lp7689
g398
atp7690
Rp7691
(dp7692
g16
g398
sbatp7693
Rp7694
(dp7695
g16
VPRN
p7696
sbag5
(g6
g7
(lp7697
g5
(g6
g7
(lp7698
Vas
p7699
atp7700
Rp7701
(dp7702
g16
VIN
p7703
sbag5
(g6
g7
(lp7704
g5
(g6
g7
(lp7705
Vthough
p7706
atp7707
Rp7708
(dp7709
g16
VRB
p7710
sbatp7711
Rp7712
(dp7713
g16
VADVP
p7714
sbatp7715
Rp7716
(dp7717
g16
VPP
p7718
sbatp7719
Rp7720
(dp7721
g16
VVP
p7722
sbatp7723
Rp7724
(dp7725
g16
g191
sbatp7726
Rp7727
(dp7728
g16
VSBAR
p7729
sbatp7730
Rp7731
(dp7732
g16
VVP
p7733
sbatp7734
Rp7735
(dp7736
g16
g191
sbatp7737
Rp7738
(dp7739
g16
VSBAR
p7740
sbatp7741
Rp7742
(dp7743
g16
VNP
p7744
sbag5
(g6
g7
(lp7745
g398
atp7746
Rp7747
(dp7748
g16
g398
sbag5
(g6
g7
(lp7749
g5
(g6
g7
(lp7750
Vfinally
p7751
atp7752
Rp7753
(dp7754
g16
VRB
p7755
sbatp7756
Rp7757
(dp7758
g16
VADVP
p7759
sbag5
(g6
g7
(lp7760
g398
atp7761
Rp7762
(dp7763
g16
g398
sbag5
(g6
g7
(lp7764
g5
(g6
g7
(lp7765
Vif
p7766
atp7767
Rp7768
(dp7769
g16
VIN
p7770
sbag5
(g6
g7
(lp7771
Vand
p7772
atp7773
Rp7774
(dp7775
g16
VCC
p7776
sbag5
(g6
g7
(lp7777
g5
(g6
g7
(lp7778
Vwhen
p7779
atp7780
Rp7781
(dp7782
g16
VWRB
p7783
sbatp7784
Rp7785
(dp7786
g16
VWHADVP
p7787
sbag5
(g6
g7
(lp7788
g5
(g6
g7
(lp7789
g398
atp7790
Rp7791
(dp7792
g16
g398
sbag5
(g6
g7
(lp7793
g5
(g6
g7
(lp7794
Vin
p7795
atp7796
Rp7797
(dp7798
g16
VIN
p7799
sbag5
(g6
g7
(lp7800
g5
(g6
g7
(lp7801
Vthe
p7802
atp7803
Rp7804
(dp7805
g16
VDT
p7806
sbag5
(g6
g7
(lp7807
Vend
p7808
atp7809
Rp7810
(dp7811
g16
VNN
p7812
sbatp7813
Rp7814
(dp7815
g16
VNP
p7816
sbatp7817
Rp7818
(dp7819
g16
VPP
p7820
sbag5
(g6
g7
(lp7821
g398
atp7822
Rp7823
(dp7824
g16
g398
sbag5
(g6
g7
(lp7825
g5
(g6
g7
(lp7826
Vin
p7827
atp7828
Rp7829
(dp7830
g16
VIN
p7831
sbag5
(g6
g7
(lp7832
g5
(g6
g7
(lp7833
Vturn
p7834
atp7835
Rp7836
(dp7837
g16
VNN
p7838
sbatp7839
Rp7840
(dp7841
g16
VNP
p7842
sbatp7843
Rp7844
(dp7845
g16
VPP
p7846
sbag5
(g6
g7
(lp7847
g398
atp7848
Rp7849
(dp7850
g16
g398
sbag5
(g6
g7
(lp7851
g5
(g6
g7
(lp7852
Vlest
p7853
atp7854
Rp7855
(dp7856
g16
VVBZ
p7857
sbatp7858
Rp7859
(dp7860
g16
VVP
p7861
sbatp7862
Rp7863
(dp7864
g16
g191
sbatp7865
Rp7866
(dp7867
g16
VSBAR
p7868
sbag5
(g6
g7
(lp7869
g398
atp7870
Rp7871
(dp7872
g16
g398
sbag5
(g6
g7
(lp7873
g5
(g6
g7
(lp7874
Vmeanwhile
p7875
atp7876
Rp7877
(dp7878
g16
VRB
p7879
sbatp7880
Rp7881
(dp7882
g16
VADVP
p7883
sbag5
(g6
g7
(lp7884
g398
atp7885
Rp7886
(dp7887
g16
g398
sbag5
(g6
g7
(lp7888
g5
(g6
g7
(lp7889
g5
(g6
g7
(lp7890
Vmuch
p7891
atp7892
Rp7893
(dp7894
g16
VRB
p7895
sbag5
(g6
g7
(lp7896
Vas
p7897
atp7898
Rp7899
(dp7900
g16
VRB
p7901
sbatp7902
Rp7903
(dp7904
g16
VNP
p7905
sbag5
(g6
g7
(lp7906
g398
atp7907
Rp7908
(dp7909
g16
g398
sbag5
(g6
g7
(lp7910
g5
(g6
g7
(lp7911
g5
(g6
g7
(lp7912
Vneither
p7913
atp7914
Rp7915
(dp7916
g16
VDT
p7917
sbag5
(g6
g7
(lp7918
g4025
atp7919
Rp7920
(dp7921
g16
VNN
p7922
sbag5
(g6
g7
(lp7923
g4031
atp7924
Rp7925
(dp7926
g16
VPOS
p7927
sbatp7928
Rp7929
(dp7930
g16
VNP
p7931
sbag5
(g6
g7
(lp7932
V\u005c
p7933
atp7934
Rp7935
(dp7936
g16
VJJ
p7937
sbag5
(g6
g7
(lp7938
Vu2026
p7939
atp7940
Rp7941
(dp7942
g16
VNNS
p7943
sbag5
(g6
g7
(lp7944
g4031
atp7945
Rp7946
(dp7947
g16
VPOS
p7948
sbatp7949
Rp7950
(dp7951
g16
VNP
p7952
sbatp7953
Rp7954
(dp7955
g16
VNP
p7956
sbag5
(g6
g7
(lp7957
g5
(g6
g7
(lp7958
Vnor
p7959
atp7960
Rp7961
(dp7962
g16
VVBZ
p7963
sbag5
(g6
g7
(lp7964
g398
atp7965
Rp7966
(dp7967
g16
g398
sbag5
(g6
g7
(lp7968
g5
(g6
g7
(lp7969
Vnow
p7970
atp7971
Rp7972
(dp7973
g16
VRB
p7974
sbag5
(g6
g7
(lp7975
Vthat
p7976
atp7977
Rp7978
(dp7979
g16
VIN
p7980
sbag5
(g6
g7
(lp7981
g5
(g6
g7
(lp7982
g5
(g6
g7
(lp7983
g5
(g6
g7
(lp7984
g398
atp7985
Rp7986
(dp7987
g16
g398
sbag5
(g6
g7
(lp7988
g5
(g6
g7
(lp7989
Vrather
p7990
atp7991
Rp7992
(dp7993
g16
VRB
p7994
sbatp7995
Rp7996
(dp7997
g16
VADVP
p7998
sbag5
(g6
g7
(lp7999
g398
atp8000
Rp8001
(dp8002
g16
g398
sbatp8003
Rp8004
(dp8005
g16
VPRN
p8006
sbag5
(g6
g7
(lp8007
g5
(g6
g7
(lp8008
Vsince
p8009
atp8010
Rp8011
(dp8012
g16
VIN
p8013
sbatp8014
Rp8015
(dp8016
g16
VPP
p8017
sbatp8018
Rp8019
(dp8020
g16
VVP
p8021
sbatp8022
Rp8023
(dp8024
g16
g191
sbatp8025
Rp8026
(dp8027
g16
VSBAR
p8028
sbag5
(g6
g7
(lp8029
g398
atp8030
Rp8031
(dp8032
g16
g398
sbag5
(g6
g7
(lp8033
g5
(g6
g7
(lp8034
Vultimately
p8035
atp8036
Rp8037
(dp8038
g16
VRB
p8039
sbatp8040
Rp8041
(dp8042
g16
VADVP
p8043
sbag5
(g6
g7
(lp8044
g398
atp8045
Rp8046
(dp8047
g16
g398
sbag5
(g6
g7
(lp8048
g5
(g6
g7
(lp8049
Vwhen
p8050
atp8051
Rp8052
(dp8053
g16
VWRB
p8054
sbatp8055
Rp8056
(dp8057
g16
VADVP
p8058
sbag5
(g6
g7
(lp8059
g398
atp8060
Rp8061
(dp8062
g16
g398
sbag5
(g6
g7
(lp8063
g5
(g6
g7
(lp8064
g5
(g6
g7
(lp8065
g5
(g6
g7
(lp8066
Vwhen
p8067
atp8068
Rp8069
(dp8070
g16
VWRB
p8071
sbatp8072
Rp8073
(dp8074
g16
VWHADVP
p8075
sbag5
(g6
g7
(lp8076
Vand
p8077
atp8078
Rp8079
(dp8080
g16
VCC
p8081
sbag5
(g6
g7
(lp8082
Vif
p8083
atp8084
Rp8085
(dp8086
g16
VIN
p8087
sbatp8088
Rp8089
(dp8090
g16
VUCP
p8091
sbatp8092
Rp8093
(dp8094
g16
g191
sbag5
(g6
g7
(lp8095
g398
atp8096
Rp8097
(dp8098
g16
g398
sbag5
(g6
g7
(lp8099
g5
(g6
g7
(lp8100
Vwhile
p8101
atp8102
Rp8103
(dp8104
g16
VIN
p8105
sbatp8106
Rp8107
(dp8108
g16
VPP
p8109
sbatp8110
Rp8111
(dp8112
g16
VVP
p8113
sbatp8114
Rp8115
(dp8116
g16
g191
sbatp8117
Rp8118
(dp8119
g16
VROOT
p8120
sbag5
(g6
g7
(lp8121
g5
(g6
g7
(lp8122
g5
(g6
g7
(lp8123
g5
(g6
g7
(lp8124
VIn
p8125
atp8126
Rp8127
(dp8128
g16
VIN
p8129
sbag5
(g6
g7
(lp8130
g5
(g6
g7
(lp8131
g5
(g6
g7
(lp8132
Vthe
p8133
atp8134
Rp8135
(dp8136
g16
VDT
p8137
sbag5
(g6
g7
(lp8138
VANOVA
p8139
atp8140
Rp8141
(dp8142
g16
VNNP
p8143
sbag5
(g6
g7
(lp8144
Vtests
p8145
atp8146
Rp8147
(dp8148
g16
VNNS
p8149
sbatp8150
Rp8151
(dp8152
g16
VNP
p8153
sbag5
(g6
g7
(lp8154
g5
(g6
g7
(lp8155
Vfor
p8156
atp8157
Rp8158
(dp8159
g16
VIN
p8160
sbag5
(g6
g7
(lp8161
g5
(g6
g7
(lp8162
Veach
p8163
atp8164
Rp8165
(dp8166
g16
VDT
p8167
sbag5
(g6
g7
(lp8168
Vlanguage
p8169
atp8170
Rp8171
(dp8172
g16
VNN
p8173
sbatp8174
Rp8175
(dp8176
g16
VNP
p8177
sbatp8178
Rp8179
(dp8180
g16
VPP
p8181
sbatp8182
Rp8183
(dp8184
g16
VNP
p8185
sbatp8186
Rp8187
(dp8188
g16
VPP
p8189
sbag5
(g6
g7
(lp8190
g398
atp8191
Rp8192
(dp8193
g16
g398
sbag5
(g6
g7
(lp8194
g5
(g6
g7
(lp8195
Vwe
p8196
atp8197
Rp8198
(dp8199
g16
VPRP
p8200
sbatp8201
Rp8202
(dp8203
g16
VNP
p8204
sbag5
(g6
g7
(lp8205
g5
(g6
g7
(lp8206
Vcompared
p8207
atp8208
Rp8209
(dp8210
g16
VVBD
p8211
sbag5
(g6
g7
(lp8212
g5
(g6
g7
(lp8213
g5
(g6
g7
(lp8214
Vthe
p8215
atp8216
Rp8217
(dp8218
g16
VDT
p8219
sbag5
(g6
g7
(lp8220
Vquality
p8221
atp8222
Rp8223
(dp8224
g16
VNN
p8225
sbatp8226
Rp8227
(dp8228
g16
VNP
p8229
sbag5
(g6
g7
(lp8230
g5
(g6
g7
(lp8231
Vof
p8232
atp8233
Rp8234
(dp8235
g16
VIN
p8236
sbag5
(g6
g7
(lp8237
g5
(g6
g7
(lp8238
g5
(g6
g7
(lp8239
Vsegments
p8240
atp8241
Rp8242
(dp8243
g16
VNNS
p8244
sbatp8245
Rp8246
(dp8247
g16
VNP
p8248
sbag5
(g6
g7
(lp8249
g5
(g6
g7
(lp8250
g5
(g6
g7
(lp8251
Vwhich
p8252
atp8253
Rp8254
(dp8255
g16
VWDT
p8256
sbatp8257
Rp8258
(dp8259
g16
VWHNP
p8260
sbag5
(g6
g7
(lp8261
g5
(g6
g7
(lp8262
g5
(g6
g7
(lp8263
Vcontained
p8264
atp8265
Rp8266
(dp8267
g16
VVBD
p8268
sbag5
(g6
g7
(lp8269
g5
(g6
g7
(lp8270
Van
p8271
atp8272
Rp8273
(dp8274
g16
VDT
p8275
sbag5
(g6
g7
(lp8276
Vambiguous
p8277
atp8278
Rp8279
(dp8280
g16
VJJ
p8281
sbag5
(g6
g7
(lp8282
Vconnective
p8283
atp8284
Rp8285
(dp8286
g16
VNN
p8287
sbatp8288
Rp8289
(dp8290
g16
VNP
p8291
sbag5
(g6
g7
(lp8292
g5
(g6
g7
(lp8293
Vin
p8294
atp8295
Rp8296
(dp8297
g16
VIN
p8298
sbag5
(g6
g7
(lp8299
g5
(g6
g7
(lp8300
Vthe
p8301
atp8302
Rp8303
(dp8304
g16
VDT
p8305
sbag5
(g6
g7
(lp8306
Vreference
p8307
atp8308
Rp8309
(dp8310
g16
VNN
p8311
sbatp8312
Rp8313
(dp8314
g16
VNP
p8315
sbatp8316
Rp8317
(dp8318
g16
VPP
p8319
sbag5
(g6
g7
(lp8320
g5
(g6
g7
(lp8321
Vwith
p8322
atp8323
Rp8324
(dp8325
g16
VIN
p8326
sbag5
(g6
g7
(lp8327
g5
(g6
g7
(lp8328
g5
(g6
g7
(lp8329
Vthose
p8330
atp8331
Rp8332
(dp8333
g16
VDT
p8334
sbatp8335
Rp8336
(dp8337
g16
VNP
p8338
sbag5
(g6
g7
(lp8339
g5
(g6
g7
(lp8340
g5
(g6
g7
(lp8341
Vthat
p8342
atp8343
Rp8344
(dp8345
g16
VWDT
p8346
sbatp8347
Rp8348
(dp8349
g16
VWHNP
p8350
sbag5
(g6
g7
(lp8351
g5
(g6
g7
(lp8352
g5
(g6
g7
(lp8353
Vdo
p8354
atp8355
Rp8356
(dp8357
g16
VVBP
p8358
sbag5
(g6
g7
(lp8359
Vnot
p8360
atp8361
Rp8362
(dp8363
g16
VRB
p8364
sbatp8365
Rp8366
(dp8367
g16
VVP
p8368
sbatp8369
Rp8370
(dp8371
g16
g191
sbatp8372
Rp8373
(dp8374
g16
VSBAR
p8375
sbatp8376
Rp8377
(dp8378
g16
VNP
p8379
sbatp8380
Rp8381
(dp8382
g16
VPP
p8383
sbatp8384
Rp8385
(dp8386
g16
VVP
p8387
sbatp8388
Rp8389
(dp8390
g16
g191
sbatp8391
Rp8392
(dp8393
g16
VSBAR
p8394
sbatp8395
Rp8396
(dp8397
g16
VNP
p8398
sbatp8399
Rp8400
(dp8401
g16
VPP
p8402
sbatp8403
Rp8404
(dp8405
g16
VNP
p8406
sbag5
(g6
g7
(lp8407
g398
atp8408
Rp8409
(dp8410
g16
g398
sbag5
(g6
g7
(lp8411
g5
(g6
g7
(lp8412
Vwith
p8413
atp8414
Rp8415
(dp8416
g16
VIN
p8417
sbag5
(g6
g7
(lp8418
g5
(g6
g7
(lp8419
g5
(g6
g7
(lp8420
Vsystems
p8421
atp8422
Rp8423
(dp8424
g16
VNNS
p8425
sbatp8426
Rp8427
(dp8428
g16
VNP
p8429
sbag5
(g6
g7
(lp8430
g5
(g6
g7
(lp8431
Vtreated
p8432
atp8433
Rp8434
(dp8435
g16
VVBN
p8436
sbag5
(g6
g7
(lp8437
g5
(g6
g7
(lp8438
Vas
p8439
atp8440
Rp8441
(dp8442
g16
VIN
p8443
sbag5
(g6
g7
(lp8444
g5
(g6
g7
(lp8445
Vsubjects
p8446
atp8447
Rp8448
(dp8449
g16
VNNS
p8450
sbatp8451
Rp8452
(dp8453
g16
VNP
p8454
sbatp8455
Rp8456
(dp8457
g16
VPP
p8458
sbatp8459
Rp8460
(dp8461
g16
VVP
p8462
sbatp8463
Rp8464
(dp8465
g16
VNP
p8466
sbatp8467
Rp8468
(dp8469
g16
VPP
p8470
sbatp8471
Rp8472
(dp8473
g16
VVP
p8474
sbatp8475
Rp8476
(dp8477
g16
g191
sbatp8478
Rp8479
(dp8480
g16
VROOT
p8481
sbasg196
(icmyPackage
CorE
p8482
(dp8483
g199
(lp8484
(I0
I52
tp8485
a(I1
I31
tp8486
asg203
g5
(g6
g7
(lp8487
g8031
ag8041
ag8046
ag8056
ag8061
ag8093
ag8097
ag8107
ag8187
ag8192
ag8202
ag8209
ag8404
ag8409
ag8415
ag8427
ag8434
ag8441
atp8488
Rp8489
(dp8490
g16
g208
sbsbsg209
(icmyPackage
CorE
p8491
(dp8492
g199
(lp8493
(I0
I27
tp8494
a(I0
I49
tp8495
asg203
g5
(g6
g7
(lp8496
g7823
ag7844
ag7849
ag7859
ag7871
ag7881
ag7886
ag7954
ag7961
ag7966
ag7972
ag7978
ag7986
ag7996
atp8497
Rp8498
(dp8499
g16
g208
sbsbsg215
g1339
sg241
(lp8500
(isxpPackage
sxpSent
p8501
(dp8502
g245
(lp8503
I20
asg247
V4 4 The ambiguous connectives are as, as if, as long as, as though, finally, if and when, in the end, in turn, lest, meanwhile, much as, neither u'\u005cu2026' nor, now that, rather, since, ultimately, when, when and if, while
p8504
sg249
I8
sg230
I74
sg250
I24
sba(isxpPackage
sxpSent
p8505
(dp8506
g245
(lp8507
I20
asg247
VIn the ANOVA tests for each language, we compared the quality of segments which contained an ambiguous connective in the reference with those that do not, with systems treated as subjects
p8508
sg249
I8
sg230
I75
sg250
I25
sbasba(icmyPackage
CELink
p8509
(dp8510
g3
(lp8511
g5
(g6
g7
(lp8512
g5
(g6
g7
(lp8513
g5
(g6
g7
(lp8514
g5
(g6
g7
(lp8515
V-LSB-
p8516
atp8517
Rp8518
(dp8519
g16
VNNP
p8520
sbag5
(g6
g7
(lp8521
Vref
p8522
atp8523
Rp8524
(dp8525
g16
VNNP
p8526
sbatp8527
Rp8528
(dp8529
g16
VNP
p8530
sbag5
(g6
g7
(lp8531
g5
(g6
g7
(lp8532
V-RSB-
p8533
atp8534
Rp8535
(dp8536
g16
VVBD
p8537
sbag5
(g6
g7
(lp8538
g5
(g6
g7
(lp8539
g5
(g6
g7
(lp8540
g5
(g6
g7
(lp8541
VStill
p8542
atp8543
Rp8544
(dp8545
g16
VRB
p8546
sbag5
(g6
g7
(lp8547
Vsome
p8548
atp8549
Rp8550
(dp8551
g16
VDT
p8552
sbag5
(g6
g7
(lp8553
Vothers
p8554
atp8555
Rp8556
(dp8557
g16
VNNS
p8558
sbatp8559
Rp8560
(dp8561
g16
VNP
p8562
sbag5
(g6
g7
(lp8563
g5
(g6
g7
(lp8564
Vcan
p8565
atp8566
Rp8567
(dp8568
g16
VMD
p8569
sbag5
(g6
g7
(lp8570
g5
(g6
g7
(lp8571
g5
(g6
g7
(lp8572
Vreceive
p8573
atp8574
Rp8575
(dp8576
g16
VVB
p8577
sbag5
(g6
g7
(lp8578
g5
(g6
g7
(lp8579
g5
(g6
g7
(lp8580
Vfurther
p8581
atp8582
Rp8583
(dp8584
g16
VJJ
p8585
sbag5
(g6
g7
(lp8586
Vprofessional
p8587
atp8588
Rp8589
(dp8590
g16
VJJ
p8591
sbag5
(g6
g7
(lp8592
Vgame
p8593
atp8594
Rp8595
(dp8596
g16
VNN
p8597
sbag5
(g6
g7
(lp8598
Vtraining
p8599
atp8600
Rp8601
(dp8602
g16
VNN
p8603
sbatp8604
Rp8605
(dp8606
g16
VNP
p8607
sbag5
(g6
g7
(lp8608
g5
(g6
g7
(lp8609
Vin
p8610
atp8611
Rp8612
(dp8613
g16
VIN
p8614
sbag5
(g6
g7
(lp8615
g5
(g6
g7
(lp8616
Vuniversities
p8617
atp8618
Rp8619
(dp8620
g16
VNNS
p8621
sbatp8622
Rp8623
(dp8624
g16
VNP
p8625
sbatp8626
Rp8627
(dp8628
g16
VPP
p8629
sbatp8630
Rp8631
(dp8632
g16
VNP
p8633
sbatp8634
Rp8635
(dp8636
g16
VVP
p8637
sbag5
(g6
g7
(lp8638
Vand
p8639
atp8640
Rp8641
(dp8642
g16
VCC
p8643
sbag5
(g6
g7
(lp8644
g5
(g6
g7
(lp8645
g5
(g6
g7
(lp8646
Vlater
p8647
atp8648
Rp8649
(dp8650
g16
VRBR
p8651
sbatp8652
Rp8653
(dp8654
g16
VADVP
p8655
sbag5
(g6
g7
(lp8656
g5
(g6
g7
(lp8657
V-LRB-
p8658
atp8659
Rp8660
(dp8661
g16
V-LRB-
p8662
sbag5
(g6
g7
(lp8663
g5
(g6
g7
(lp8664
VTemporal
p8665
atp8666
Rp8667
(dp8668
g16
VNNP
p8669
sbatp8670
Rp8671
(dp8672
g16
VNP
p8673
sbag5
(g6
g7
(lp8674
V-RRB-
p8675
atp8676
Rp8677
(dp8678
g16
V-RRB-
p8679
sbatp8680
Rp8681
(dp8682
g16
VPRN
p8683
sbatp8684
Rp8685
(dp8686
g16
VADVP
p8687
sbag5
(g6
g7
(lp8688
g5
(g6
g7
(lp8689
Vbe
p8690
atp8691
Rp8692
(dp8693
g16
VVB
p8694
sbag5
(g6
g7
(lp8695
g5
(g6
g7
(lp8696
Vemployed
p8697
atp8698
Rp8699
(dp8700
g16
VVBN
p8701
sbag5
(g6
g7
(lp8702
g5
(g6
g7
(lp8703
Vas
p8704
atp8705
Rp8706
(dp8707
g16
VIN
p8708
sbag5
(g6
g7
(lp8709
g5
(g6
g7
(lp8710
Vtechnical
p8711
atp8712
Rp8713
(dp8714
g16
VJJ
p8715
sbag5
(g6
g7
(lp8716
Vconsultants
p8717
atp8718
Rp8719
(dp8720
g16
VNNS
p8721
sbatp8722
Rp8723
(dp8724
g16
VNP
p8725
sbatp8726
Rp8727
(dp8728
g16
VPP
p8729
sbag5
(g6
g7
(lp8730
g5
(g6
g7
(lp8731
Vby
p8732
atp8733
Rp8734
(dp8735
g16
VIN
p8736
sbag5
(g6
g7
(lp8737
g5
(g6
g7
(lp8738
g5
(g6
g7
(lp8739
Vlarge
p8740
atp8741
Rp8742
(dp8743
g16
VJJ
p8744
sbag5
(g6
g7
(lp8745
Vgame
p8746
atp8747
Rp8748
(dp8749
g16
VNN
p8750
sbag5
(g6
g7
(lp8751
Vmanufacturers
p8752
atp8753
Rp8754
(dp8755
g16
VNNS
p8756
sbatp8757
Rp8758
(dp8759
g16
VNP
p8760
sbag5
(g6
g7
(lp8761
g398
atp8762
Rp8763
(dp8764
g16
g398
sbag5
(g6
g7
(lp8765
g5
(g6
g7
(lp8766
Vetc
p8767
atp8768
Rp8769
(dp8770
g16
VFW
p8771
sbatp8772
Rp8773
(dp8774
g16
VNP
p8775
sbatp8776
Rp8777
(dp8778
g16
VNP
p8779
sbatp8780
Rp8781
(dp8782
g16
VPP
p8783
sbatp8784
Rp8785
(dp8786
g16
VVP
p8787
sbatp8788
Rp8789
(dp8790
g16
VVP
p8791
sbatp8792
Rp8793
(dp8794
g16
VVP
p8795
sbatp8796
Rp8797
(dp8798
g16
VVP
p8799
sbatp8800
Rp8801
(dp8802
g16
g191
sbatp8803
Rp8804
(dp8805
g16
VSBAR
p8806
sbatp8807
Rp8808
(dp8809
g16
VVP
p8810
sbatp8811
Rp8812
(dp8813
g16
g191
sbatp8814
Rp8815
(dp8816
g16
VROOT
p8817
sbag5
(g6
g7
(lp8818
g5
(g6
g7
(lp8819
g5
(g6
g7
(lp8820
g5
(g6
g7
(lp8821
V-LSB-
p8822
atp8823
Rp8824
(dp8825
g16
VVBG
p8826
sbag5
(g6
g7
(lp8827
g5
(g6
g7
(lp8828
Vsys
p8829
atp8830
Rp8831
(dp8832
g16
VNN
p8833
sbatp8834
Rp8835
(dp8836
g16
VNP
p8837
sbatp8838
Rp8839
(dp8840
g16
VVP
p8841
sbag5
(g6
g7
(lp8842
g5
(g6
g7
(lp8843
V-RSB-
p8844
atp8845
Rp8846
(dp8847
g16
VVBD
p8848
sbag5
(g6
g7
(lp8849
g5
(g6
g7
(lp8850
g5
(g6
g7
(lp8851
g5
(g6
g7
(lp8852
VSome
p8853
atp8854
Rp8855
(dp8856
g16
VDT
p8857
sbag5
(g6
g7
(lp8858
Vpeople
p8859
atp8860
Rp8861
(dp8862
g16
VNNS
p8863
sbatp8864
Rp8865
(dp8866
g16
VNP
p8867
sbag5
(g6
g7
(lp8868
g5
(g6
g7
(lp8869
Vmay
p8870
atp8871
Rp8872
(dp8873
g16
VMD
p8874
sbag5
(g6
g7
(lp8875
g5
(g6
g7
(lp8876
Vgo
p8877
atp8878
Rp8879
(dp8880
g16
VVB
p8881
sbag5
(g6
g7
(lp8882
g5
(g6
g7
(lp8883
Vto
p8884
atp8885
Rp8886
(dp8887
g16
VTO
p8888
sbag5
(g6
g7
(lp8889
g5
(g6
g7
(lp8890
Vthe
p8891
atp8892
Rp8893
(dp8894
g16
VDT
p8895
sbag5
(g6
g7
(lp8896
Vuniversity
p8897
atp8898
Rp8899
(dp8900
g16
VNN
p8901
sbag5
(g6
g7
(lp8902
Vgames
p8903
atp8904
Rp8905
(dp8906
g16
VNNS
p8907
sbatp8908
Rp8909
(dp8910
g16
VNP
p8911
sbatp8912
Rp8913
(dp8914
g16
VPP
p8915
sbatp8916
Rp8917
(dp8918
g16
VVP
p8919
sbatp8920
Rp8921
(dp8922
g16
VVP
p8923
sbatp8924
Rp8925
(dp8926
g16
g191
sbatp8927
Rp8928
(dp8929
g16
VSBAR
p8930
sbatp8931
Rp8932
(dp8933
g16
VVP
p8934
sbag5
(g6
g7
(lp8935
g5
(g6
g7
(lp8936
g5
(g6
g7
(lp8937
Vprofessional
p8938
atp8939
Rp8940
(dp8941
g16
VJJ
p8942
sbag5
(g6
g7
(lp8943
Veducation
p8944
atp8945
Rp8946
(dp8947
g16
VNN
p8948
sbatp8949
Rp8950
(dp8951
g16
VNP
p8952
sbag5
(g6
g7
(lp8953
g398
atp8954
Rp8955
(dp8956
g16
g398
sbag5
(g6
g7
(lp8957
g5
(g6
g7
(lp8958
g5
(g6
g7
(lp8959
Vwhich
p8960
atp8961
Rp8962
(dp8963
g16
VWDT
p8964
sbatp8965
Rp8966
(dp8967
g16
VWHNP
p8968
sbag5
(g6
g7
(lp8969
g5
(g6
g7
(lp8970
g5
(g6
g7
(lp8971
Vis
p8972
atp8973
Rp8974
(dp8975
g16
VVBZ
p8976
sbag5
(g6
g7
(lp8977
g5
(g6
g7
(lp8978
Vappointed
p8979
atp8980
Rp8981
(dp8982
g16
VVBN
p8983
sbag5
(g6
g7
(lp8984
g5
(g6
g7
(lp8985
Vas
p8986
atp8987
Rp8988
(dp8989
g16
VIN
p8990
sbag5
(g6
g7
(lp8991
g5
(g6
g7
(lp8992
g5
(g6
g7
(lp8993
Vthe
p8994
atp8995
Rp8996
(dp8997
g16
VDT
p8998
sbag5
(g6
g7
(lp8999
Vbig
p9000
atp9001
Rp9002
(dp9003
g16
VJJ
p9004
sbag5
(g6
g7
(lp9005
Vgame
p9006
atp9007
Rp9008
(dp9009
g16
VNN
p9010
sbag5
(g6
g7
(lp9011
Vmanufacturers
p9012
atp9013
Rp9014
(dp9015
g16
VNNS
p9016
sbatp9017
Rp9018
(dp9019
g16
VNP
p9020
sbag5
(g6
g7
(lp9021
g5
(g6
g7
(lp9022
Vsuch
p9023
atp9024
Rp9025
(dp9026
g16
VJJ
p9027
sbag5
(g6
g7
(lp9028
Vas
p9029
atp9030
Rp9031
(dp9032
g16
VIN
p9033
sbag5
(g6
g7
(lp9034
g5
(g6
g7
(lp9035
Vtechnical
p9036
atp9037
Rp9038
(dp9039
g16
VJJ
p9040
sbag5
(g6
g7
(lp9041
Vadvisers
p9042
atp9043
Rp9044
(dp9045
g16
VNNS
p9046
sbatp9047
Rp9048
(dp9049
g16
VNP
p9050
sbatp9051
Rp9052
(dp9053
g16
VPP
p9054
sbatp9055
Rp9056
(dp9057
g16
VNP
p9058
sbatp9059
Rp9060
(dp9061
g16
VPP
p9062
sbatp9063
Rp9064
(dp9065
g16
VVP
p9066
sbatp9067
Rp9068
(dp9069
g16
VVP
p9070
sbatp9071
Rp9072
(dp9073
g16
g191
sbatp9074
Rp9075
(dp9076
g16
VSBAR
p9077
sbatp9078
Rp9079
(dp9080
g16
VNP
p9081
sbatp9082
Rp9083
(dp9084
g16
VSINV
p9085
sbatp9086
Rp9087
(dp9088
g16
VROOT
p9089
sbasg196
(icmyPackage
CorE
p9090
(dp9091
g199
(lp9092
(I0
I22
tp9093
a(I1
I24
tp9094
asg203
g5
(g6
g7
(lp9095
g8723
ag8781
ag8839
ag8932
ag8950
ag8955
ag8966
ag8974
ag8981
ag8988
ag9018
ag9025
ag9031
ag9038
atp9096
Rp9097
(dp9098
g16
g208
sbsbsg209
(icmyPackage
CorE
p9099
(dp9100
g199
(lp9101
(I0
I0
tp9102
a(I0
I20
tp9103
asg203
g5
(g6
g7
(lp9104
g8528
ag8535
ag8560
ag8567
ag8635
ag8641
ag8685
ag8692
ag8699
atp9105
Rp9106
(dp9107
g16
g208
sbsbsg215
g3944
sg241
(lp9108
(isxpPackage
sxpSent
p9109
(dp9110
g245
(lp9111
I21
asg247
V[ ref ] Still some others can receive further professional game training in universities and later ( Temporal ) be employed as technical consultants by large game manufacturers, etc
p9112
sg249
I10
sg230
I93
sg250
I32
sba(isxpPackage
sxpSent
p9113
(dp9114
g245
(lp9115
I21
aI22
asg247
V[ sys ] Some people may go to the university games professional education, which is appointed as the big game manufacturers such as technical advisers
p9116
sg249
I10
sg230
I94
sg250
I33
sbasba(icmyPackage
CELink
p9117
(dp9118
g3
(lp9119
g9087
asg196
(icmyPackage
CorE
p9120
(dp9121
g199
(lp9122
(I0
I0
tp9123
a(I0
I1
tp9124
asg203
g8839
sbsg209
(icmyPackage
CorE
p9125
(dp9126
g199
(lp9127
(I0
I2
tp9128
a(I0
I13
tp9129
asg203
g5
(g6
g7
(lp9130
g8932
ag8950
ag8955
atp9131
Rp9132
(dp9133
g16
g208
sbsbsg215
(icmyPackage
pattern
p9134
(dp9135
g218
I30
sg219
I0
sg220
(lp9136
sg225
(lp9137
I3
aI2
aI1
asg227
(lp9138
S'Being over here we tend to be a bit isolated.'
p9139
aS'Not being sure of the word, he turned it up in the dictionary.'
p9140
asg230
I81
sg231
(lp9141
(lp9142
S'&V-ing@C@'
p9143
aS'(,)'
p9144
aS'&R@Complete@'
p9145
aasbsg241
(lp9146
g9113
asba(icmyPackage
CELink
p9147
(dp9148
g3
(lp9149
g5
(g6
g7
(lp9150
g5
(g6
g7
(lp9151
g5
(g6
g7
(lp9152
g5
(g6
g7
(lp9153
V-LSB-
p9154
atp9155
Rp9156
(dp9157
g16
VVB
p9158
sbag5
(g6
g7
(lp9159
g5
(g6
g7
(lp9160
Vedited
p9161
atp9162
Rp9163
(dp9164
g16
VJJ
p9165
sbag5
(g6
g7
(lp9166
V-RSB-
p9167
atp9168
Rp9169
(dp9170
g16
VNNS
p9171
sbatp9172
Rp9173
(dp9174
g16
VNP
p9175
sbag5
(g6
g7
(lp9176
g5
(g6
g7
(lp9177
g5
(g6
g7
(lp9178
g5
(g6
g7
(lp9179
VSome
p9180
atp9181
Rp9182
(dp9183
g16
VDT
p9184
sbag5
(g6
g7
(lp9185
Vpeople
p9186
atp9187
Rp9188
(dp9189
g16
VNNS
p9190
sbatp9191
Rp9192
(dp9193
g16
VNP
p9194
sbag5
(g6
g7
(lp9195
g5
(g6
g7
(lp9196
Vmay
p9197
atp9198
Rp9199
(dp9200
g16
VMD
p9201
sbag5
(g6
g7
(lp9202
g5
(g6
g7
(lp9203
Vgo
p9204
atp9205
Rp9206
(dp9207
g16
VVB
p9208
sbag5
(g6
g7
(lp9209
g5
(g6
g7
(lp9210
Vto
p9211
atp9212
Rp9213
(dp9214
g16
VTO
p9215
sbag5
(g6
g7
(lp9216
g5
(g6
g7
(lp9217
Vuniversity
p9218
atp9219
Rp9220
(dp9221
g16
VNN
p9222
sbatp9223
Rp9224
(dp9225
g16
VNP
p9226
sbatp9227
Rp9228
(dp9229
g16
VPP
p9230
sbag5
(g6
g7
(lp9231
g5
(g6
g7
(lp9232
g5
(g6
g7
(lp9233
Vto
p9234
atp9235
Rp9236
(dp9237
g16
VTO
p9238
sbag5
(g6
g7
(lp9239
g5
(g6
g7
(lp9240
g5
(g6
g7
(lp9241
Vreceive
p9242
atp9243
Rp9244
(dp9245
g16
VVB
p9246
sbag5
(g6
g7
(lp9247
g5
(g6
g7
(lp9248
Vprofessional
p9249
atp9250
Rp9251
(dp9252
g16
VJJ
p9253
sbag5
(g6
g7
(lp9254
Vgame
p9255
atp9256
Rp9257
(dp9258
g16
VNN
p9259
sbag5
(g6
g7
(lp9260
Veducation
p9261
atp9262
Rp9263
(dp9264
g16
VNN
p9265
sbatp9266
Rp9267
(dp9268
g16
VNP
p9269
sbatp9270
Rp9271
(dp9272
g16
VVP
p9273
sbag5
(g6
g7
(lp9274
g398
atp9275
Rp9276
(dp9277
g16
g398
sbag5
(g6
g7
(lp9278
Vand
p9279
atp9280
Rp9281
(dp9282
g16
VCC
p9283
sbag5
(g6
g7
(lp9284
g5
(g6
g7
(lp9285
g5
(g6
g7
(lp9286
Vlater
p9287
atp9288
Rp9289
(dp9290
g16
VRBR
p9291
sbatp9292
Rp9293
(dp9294
g16
VADVP
p9295
sbag5
(g6
g7
(lp9296
g5
(g6
g7
(lp9297
V-LRB-
p9298
atp9299
Rp9300
(dp9301
g16
V-LRB-
p9302
sbag5
(g6
g7
(lp9303
g5
(g6
g7
(lp9304
VTemporal
p9305
atp9306
Rp9307
(dp9308
g16
VNNP
p9309
sbatp9310
Rp9311
(dp9312
g16
VNP
p9313
sbag5
(g6
g7
(lp9314
V-RRB-
p9315
atp9316
Rp9317
(dp9318
g16
V-RRB-
p9319
sbatp9320
Rp9321
(dp9322
g16
VPRN
p9323
sbatp9324
Rp9325
(dp9326
g16
VADVP
p9327
sbag5
(g6
g7
(lp9328
g5
(g6
g7
(lp9329
Vbe
p9330
atp9331
Rp9332
(dp9333
g16
VVB
p9334
sbag5
(g6
g7
(lp9335
g5
(g6
g7
(lp9336
Vappointed
p9337
atp9338
Rp9339
(dp9340
g16
VVBN
p9341
sbag5
(g6
g7
(lp9342
g5
(g6
g7
(lp9343
Vby
p9344
atp9345
Rp9346
(dp9347
g16
VIN
p9348
sbag5
(g6
g7
(lp9349
g5
(g6
g7
(lp9350
g5
(g6
g7
(lp9351
Vthe
p9352
atp9353
Rp9354
(dp9355
g16
VDT
p9356
sbag5
(g6
g7
(lp9357
Vbig
p9358
atp9359
Rp9360
(dp9361
g16
VJJ
p9362
sbag5
(g6
g7
(lp9363
Vgame
p9364
atp9365
Rp9366
(dp9367
g16
VNN
p9368
sbag5
(g6
g7
(lp9369
Vmanufacturers
p9370
atp9371
Rp9372
(dp9373
g16
VNNS
p9374
sbatp9375
Rp9376
(dp9377
g16
VNP
p9378
sbag5
(g6
g7
(lp9379
g5
(g6
g7
(lp9380
Vas
p9381
atp9382
Rp9383
(dp9384
g16
VIN
p9385
sbag5
(g6
g7
(lp9386
g5
(g6
g7
(lp9387
Vtechnical
p9388
atp9389
Rp9390
(dp9391
g16
VJJ
p9392
sbag5
(g6
g7
(lp9393
Vadvisers
p9394
atp9395
Rp9396
(dp9397
g16
VNNS
p9398
sbatp9399
Rp9400
(dp9401
g16
VNP
p9402
sbatp9403
Rp9404
(dp9405
g16
VPP
p9406
sbatp9407
Rp9408
(dp9409
g16
VNP
p9410
sbatp9411
Rp9412
(dp9413
g16
VPP
p9414
sbatp9415
Rp9416
(dp9417
g16
VVP
p9418
sbatp9419
Rp9420
(dp9421
g16
VVP
p9422
sbatp9423
Rp9424
(dp9425
g16
VVP
p9426
sbatp9427
Rp9428
(dp9429
g16
VVP
p9430
sbatp9431
Rp9432
(dp9433
g16
g191
sbatp9434
Rp9435
(dp9436
g16
VVP
p9437
sbatp9438
Rp9439
(dp9440
g16
VVP
p9441
sbatp9442
Rp9443
(dp9444
g16
g191
sbatp9445
Rp9446
(dp9447
g16
VSBAR
p9448
sbatp9449
Rp9450
(dp9451
g16
VVP
p9452
sbatp9453
Rp9454
(dp9455
g16
g191
sbatp9456
Rp9457
(dp9458
g16
VROOT
p9459
sbag5
(g6
g7
(lp9460
g5
(g6
g7
(lp9461
g5
(g6
g7
(lp9462
g5
(g6
g7
(lp9463
VThe
p9464
atp9465
Rp9466
(dp9467
g16
VDT
p9468
sbag5
(g6
g7
(lp9469
Vsystem
p9470
atp9471
Rp9472
(dp9473
g16
VNN
p9474
sbatp9475
Rp9476
(dp9477
g16
VNP
p9478
sbag5
(g6
g7
(lp9479
g5
(g6
g7
(lp9480
Vfails
p9481
atp9482
Rp9483
(dp9484
g16
VVBZ
p9485
sbag5
(g6
g7
(lp9486
g5
(g6
g7
(lp9487
g5
(g6
g7
(lp9488
Vto
p9489
atp9490
Rp9491
(dp9492
g16
VTO
p9493
sbag5
(g6
g7
(lp9494
g5
(g6
g7
(lp9495
Vtranslate
p9496
atp9497
Rp9498
(dp9499
g16
VVB
p9500
sbag5
(g6
g7
(lp9501
g5
(g6
g7
(lp9502
g5
(g6
g7
(lp9503
g5
(g6
g7
(lp9504
Vthe
p9505
atp9506
Rp9507
(dp9508
g16
VDT
p9509
sbag5
(g6
g7
(lp9510
Vdiscourse
p9511
atp9512
Rp9513
(dp9514
g16
VNN
p9515
sbag5
(g6
g7
(lp9516
Vconnective
p9517
atp9518
Rp9519
(dp9520
g16
VNN
p9521
sbatp9522
Rp9523
(dp9524
g16
VNP
p9525
sbag5
(g6
g7
(lp9526
V-LCB-
p9527
atp9528
Rp9529
(dp9530
g16
V-LRB-
p9531
sbag5
(g6
g7
(lp9532
g5
(g6
g7
(lp9533
VCJK
p9534
atp9535
Rp9536
(dp9537
g16
VNNP
p9538
sbag5
(g6
g7
(lp9539
V*
p9540
atp9541
Rp9542
(dp9543
g16
VNNP
p9544
sbatp9545
Rp9546
(dp9547
g16
VNP
p9548
sbag5
(g6
g7
(lp9549
V-RCB-
p9550
atp9551
Rp9552
(dp9553
g16
V-RRB-
p9554
sbatp9555
Rp9556
(dp9557
g16
VNP
p9558
sbag5
(g6
g7
(lp9559
g5
(g6
g7
(lp9560
g5
(g6
g7
(lp9561
VUTF8gbsn
p9562
atp9563
Rp9564
(dp9565
g16
VVBG
p9566
sbag5
(g6
g7
(lp9567
g5
(g6
g7
(lp9568
g5
(g6
g7
(lp9569
g5
(g6
g7
(lp9570
g4025
atp9571
Rp9572
(dp9573
g16
VNNP
p9574
sbag5
(g6
g7
(lp9575
g4031
atp9576
Rp9577
(dp9578
g16
VPOS
p9579
sbatp9580
Rp9581
(dp9582
g16
VNP
p9583
sbag5
(g6
g7
(lp9584
V\u005c
p9585
atp9586
Rp9587
(dp9588
g16
VJJ
p9589
sbag5
(g6
g7
(lp9590
g5
(g6
g7
(lp9591
Vu201c
p9592
atp9593
Rp9594
(dp9595
g16
VNNP
p9596
sbag5
(g6
g7
(lp9597
g4031
atp9598
Rp9599
(dp9600
g16
VPOS
p9601
sbatp9602
Rp9603
(dp9604
g16
VNP
p9605
sbag5
(g6
g7
(lp9606
g4025
atp9607
Rp9608
(dp9609
g16
VNN
p9610
sbag5
(g6
g7
(lp9611
g4031
atp9612
Rp9613
(dp9614
g16
V''
p9615
sbatp9616
Rp9617
(dp9618
g16
VNP
p9619
sbag5
(g6
g7
(lp9620
g5
(g6
g7
(lp9621
g5
(g6
g7
(lp9622
V\u005c
p9623
atp9624
Rp9625
(dp9626
g16
VRB
p9627
sbag5
(g6
g7
(lp9628
Vu201d
p9629
atp9630
Rp9631
(dp9632
g16
VJJ
p9633
sbag5
(g6
g7
(lp9634
g4031
atp9635
Rp9636
(dp9637
g16
V''
p9638
sbatp9639
Rp9640
(dp9641
g16
VADJP
p9642
sbag5
(g6
g7
(lp9643
g5
(g6
g7
(lp9644
V-LRB-
p9645
atp9646
Rp9647
(dp9648
g16
V-LRB-
p9649
sbag5
(g6
g7
(lp9650
g5
(g6
g7
(lp9651
Vlater
p9652
atp9653
Rp9654
(dp9655
g16
VRB
p9656
sbatp9657
Rp9658
(dp9659
g16
VADVP
p9660
sbag5
(g6
g7
(lp9661
V-RRB-
p9662
atp9663
Rp9664
(dp9665
g16
V-RRB-
p9666
sbatp9667
Rp9668
(dp9669
g16
VPRN
p9670
sbatp9671
Rp9672
(dp9673
g16
VADJP
p9674
sbatp9675
Rp9676
(dp9677
g16
VNP
p9678
sbatp9679
Rp9680
(dp9681
g16
VVP
p9682
sbag5
(g6
g7
(lp9683
g398
atp9684
Rp9685
(dp9686
g16
g398
sbag5
(g6
g7
(lp9687
g5
(g6
g7
(lp9688
Vleading
p9689
atp9690
Rp9691
(dp9692
g16
VVBG
p9693
sbag5
(g6
g7
(lp9694
g5
(g6
g7
(lp9695
Vto
p9696
atp9697
Rp9698
(dp9699
g16
VTO
p9700
sbag5
(g6
g7
(lp9701
g5
(g6
g7
(lp9702
g5
(g6
g7
(lp9703
g907
atp9704
Rp9705
(dp9706
g16
VDT
p9707
sbag5
(g6
g7
(lp9708
Vprobable
p9709
atp9710
Rp9711
(dp9712
g16
VJJ
p9713
sbag5
(g6
g7
(lp9714
Vmisinterpretation
p9715
atp9716
Rp9717
(dp9718
g16
VNN
p9719
sbatp9720
Rp9721
(dp9722
g16
VNP
p9723
sbag5
(g6
g7
(lp9724
g5
(g6
g7
(lp9725
Vbetween
p9726
atp9727
Rp9728
(dp9729
g16
VIN
p9730
sbag5
(g6
g7
(lp9731
g5
(g6
g7
(lp9732
g5
(g6
g7
(lp9733
Vreceiving
p9734
atp9735
Rp9736
(dp9737
g16
VVBG
p9738
sbag5
(g6
g7
(lp9739
g5
(g6
g7
(lp9740
Veducation
p9741
atp9742
Rp9743
(dp9744
g16
VNN
p9745
sbatp9746
Rp9747
(dp9748
g16
VNP
p9749
sbatp9750
Rp9751
(dp9752
g16
VVP
p9753
sbatp9754
Rp9755
(dp9756
g16
g191
sbatp9757
Rp9758
(dp9759
g16
VPP
p9760
sbatp9761
Rp9762
(dp9763
g16
VNP
p9764
sbatp9765
Rp9766
(dp9767
g16
VPP
p9768
sbatp9769
Rp9770
(dp9771
g16
VVP
p9772
sbag5
(g6
g7
(lp9773
Vand
p9774
atp9775
Rp9776
(dp9777
g16
VCC
p9778
sbag5
(g6
g7
(lp9779
g5
(g6
g7
(lp9780
Vbeing
p9781
atp9782
Rp9783
(dp9784
g16
VVBG
p9785
sbag5
(g6
g7
(lp9786
g5
(g6
g7
(lp9787
Vappointed
p9788
atp9789
Rp9790
(dp9791
g16
VVBN
p9792
sbag5
(g6
g7
(lp9793
g5
(g6
g7
(lp9794
Vas
p9795
atp9796
Rp9797
(dp9798
g16
VIN
p9799
sbag5
(g6
g7
(lp9800
g5
(g6
g7
(lp9801
Vtechnical
p9802
atp9803
Rp9804
(dp9805
g16
VJJ
p9806
sbag5
(g6
g7
(lp9807
Vadvisors
p9808
atp9809
Rp9810
(dp9811
g16
VNNS
p9812
sbatp9813
Rp9814
(dp9815
g16
VNP
p9816
sbatp9817
Rp9818
(dp9819
g16
VPP
p9820
sbatp9821
Rp9822
(dp9823
g16
VVP
p9824
sbatp9825
Rp9826
(dp9827
g16
VVP
p9828
sbatp9829
Rp9830
(dp9831
g16
VVP
p9832
sbatp9833
Rp9834
(dp9835
g16
VNP
p9836
sbatp9837
Rp9838
(dp9839
g16
VVP
p9840
sbatp9841
Rp9842
(dp9843
g16
VVP
p9844
sbatp9845
Rp9846
(dp9847
g16
g191
sbatp9848
Rp9849
(dp9850
g16
VVP
p9851
sbatp9852
Rp9853
(dp9854
g16
g191
sbatp9855
Rp9856
(dp9857
g16
VROOT
p9858
sbasg196
(icmyPackage
CorE
p9859
(dp9860
g199
(lp9861
(I0
I28
tp9862
a(I1
I35
tp9863
asg203
g5
(g6
g7
(lp9864
g9400
ag9476
ag9483
ag9491
ag9498
ag9556
ag9680
ag9685
ag9770
ag9776
atp9865
Rp9866
(dp9867
g16
g208
sbsbsg209
(icmyPackage
CorE
p9868
(dp9869
g199
(lp9870
(I0
I1
tp9871
a(I0
I26
tp9872
asg203
g5
(g6
g7
(lp9873
g9173
ag9192
ag9199
ag9206
ag9228
ag9236
ag9271
ag9276
ag9281
ag9325
ag9332
ag9339
ag9346
ag9376
atp9874
Rp9875
(dp9876
g16
g208
sbsbsg215
g3944
sg241
(lp9877
(isxpPackage
sxpSent
p9878
(dp9879
g245
(lp9880
I23
asg247
V[ edited ] Some people may go to university to receive professional game education, and later ( Temporal ) be appointed by the big game manufacturers as technical advisers
p9881
sg249
I10
sg230
I95
sg250
I34
sba(isxpPackage
sxpSent
p9882
(dp9883
g245
(lp9884
I23
asg247
VThe system fails to translate the discourse connective {CJK*} UTF8gbsn u'\u005cu201c'  u'\u005cu201d' (later), leading to a probable misinterpretation between receiving education and being appointed as technical advisors
p9885
sg249
I10
sg230
I96
sg250
I35
sbasba(icmyPackage
CELink
p9886
(dp9887
g3
(lp9888
g5
(g6
g7
(lp9889
g5
(g6
g7
(lp9890
g5
(g6
g7
(lp9891
g5
(g6
g7
(lp9892
VDue
p9893
atp9894
Rp9895
(dp9896
g16
VJJ
p9897
sbag5
(g6
g7
(lp9898
Vto
p9899
atp9900
Rp9901
(dp9902
g16
VTO
p9903
sbag5
(g6
g7
(lp9904
g5
(g6
g7
(lp9905
g5
(g6
g7
(lp9906
Vthe
p9907
atp9908
Rp9909
(dp9910
g16
VDT
p9911
sbag5
(g6
g7
(lp9912
Vlack
p9913
atp9914
Rp9915
(dp9916
g16
VNN
p9917
sbatp9918
Rp9919
(dp9920
g16
VNP
p9921
sbag5
(g6
g7
(lp9922
g5
(g6
g7
(lp9923
Vof
p9924
atp9925
Rp9926
(dp9927
g16
VIN
p9928
sbag5
(g6
g7
(lp9929
g5
(g6
g7
(lp9930
Vreliable
p9931
atp9932
Rp9933
(dp9934
g16
VJJ
p9935
sbag5
(g6
g7
(lp9936
Vtools
p9937
atp9938
Rp9939
(dp9940
g16
VNNS
p9941
sbag5
(g6
g7
(lp9942
Vand
p9943
atp9944
Rp9945
(dp9946
g16
VCC
p9947
sbag5
(g6
g7
(lp9948
Vresources
p9949
atp9950
Rp9951
(dp9952
g16
VNNS
p9953
sbatp9954
Rp9955
(dp9956
g16
VNP
p9957
sbatp9958
Rp9959
(dp9960
g16
VPP
p9961
sbatp9962
Rp9963
(dp9964
g16
VNP
p9965
sbatp9966
Rp9967
(dp9968
g16
VPP
p9969
sbag5
(g6
g7
(lp9970
g398
atp9971
Rp9972
(dp9973
g16
g398
sbag5
(g6
g7
(lp9974
g5
(g6
g7
(lp9975
Vwe
p9976
atp9977
Rp9978
(dp9979
g16
VPRP
p9980
sbatp9981
Rp9982
(dp9983
g16
VNP
p9984
sbag5
(g6
g7
(lp9985
g5
(g6
g7
(lp9986
Vapproximate
p9987
atp9988
Rp9989
(dp9990
g16
VVBD
p9991
sbag5
(g6
g7
(lp9992
g5
(g6
g7
(lp9993
g5
(g6
g7
(lp9994
Vmismatches
p9995
atp9996
Rp9997
(dp9998
g16
VNNS
p9999
sbatp10000
Rp10001
(dp10002
g16
VNP
p10003
sbag5
(g6
g7
(lp10004
g5
(g6
g7
(lp10005
Vbetween
p10006
atp10007
Rp10008
(dp10009
g16
VIN
p10010
sbag5
(g6
g7
(lp10011
g5
(g6
g7
(lp10012
Vdiscourse
p10013
atp10014
Rp10015
(dp10016
g16
VNN
p10017
sbag5
(g6
g7
(lp10018
Vexpressions
p10019
atp10020
Rp10021
(dp10022
g16
VNNS
p10023
sbatp10024
Rp10025
(dp10026
g16
VNP
p10027
sbatp10028
Rp10029
(dp10030
g16
VPP
p10031
sbatp10032
Rp10033
(dp10034
g16
VNP
p10035
sbag5
(g6
g7
(lp10036
g5
(g6
g7
(lp10037
Vin
p10038
atp10039
Rp10040
(dp10041
g16
VIN
p10042
sbag5
(g6
g7
(lp10043
g5
(g6
g7
(lp10044
g5
(g6
g7
(lp10045
Vthe
p10046
atp10047
Rp10048
(dp10049
g16
VDT
p10050
sbag5
(g6
g7
(lp10051
Vsource
p10052
atp10053
Rp10054
(dp10055
g16
VNN
p10056
sbag5
(g6
g7
(lp10057
Vand
p10058
atp10059
Rp10060
(dp10061
g16
VCC
p10062
sbag5
(g6
g7
(lp10063
VMT
p10064
atp10065
Rp10066
(dp10067
g16
VNN
p10068
sbag5
(g6
g7
(lp10069
Voutput
p10070
atp10071
Rp10072
(dp10073
g16
VNN
p10074
sbatp10075
Rp10076
(dp10077
g16
VNP
p10078
sbag5
(g6
g7
(lp10079
g5
(g6
g7
(lp10080
Vusing
p10081
atp10082
Rp10083
(dp10084
g16
VVBG
p10085
sbag5
(g6
g7
(lp10086
g5
(g6
g7
(lp10087
Vdiscourse-related
p10088
atp10089
Rp10090
(dp10091
g16
VJJ
p10092
sbag5
(g6
g7
(lp10093
Vedits
p10094
atp10095
Rp10096
(dp10097
g16
VNNS
p10098
sbatp10099
Rp10100
(dp10101
g16
VNP
p10102
sbatp10103
Rp10104
(dp10105
g16
VVP
p10106
sbatp10107
Rp10108
(dp10109
g16
VNP
p10110
sbatp10111
Rp10112
(dp10113
g16
VPP
p10114
sbatp10115
Rp10116
(dp10117
g16
VVP
p10118
sbatp10119
Rp10120
(dp10121
g16
g191
sbatp10122
Rp10123
(dp10124
g16
VROOT
p10125
sbasg196
(icmyPackage
CorE
p10126
(dp10127
g199
(lp10128
(I0
I2
tp10129
a(I0
I8
tp10130
asg203
g9963
sbsg209
(icmyPackage
CorE
p10131
(dp10132
g199
(lp10133
(I0
I10
tp10134
a(I0
I24
tp10135
asg203
g5
(g6
g7
(lp10136
g9982
ag10116
atp10137
Rp10138
(dp10139
g16
g208
sbsbsg215
g1105
sg241
(lp10140
(isxpPackage
sxpSent
p10141
(dp10142
g245
(lp10143
I24
asg247
VDue to the lack of reliable tools and resources, we approximate mismatches between discourse expressions in the source and MT output using discourse-related edits
p10144
sg249
I10
sg230
I97
sg250
I36
sbasba(icmyPackage
CELink
p10145
(dp10146
g3
(lp10147
g5
(g6
g7
(lp10148
g5
(g6
g7
(lp10149
g5
(g6
g7
(lp10150
g5
(g6
g7
(lp10151
VObviously
p10152
atp10153
Rp10154
(dp10155
g16
VRB
p10156
sbatp10157
Rp10158
(dp10159
g16
VADVP
p10160
sbag5
(g6
g7
(lp10161
g398
atp10162
Rp10163
(dp10164
g16
g398
sbag5
(g6
g7
(lp10165
g5
(g6
g7
(lp10166
g5
(g6
g7
(lp10167
Vthe
p10168
atp10169
Rp10170
(dp10171
g16
VDT
p10172
sbag5
(g6
g7
(lp10173
Vmismatch
p10174
atp10175
Rp10176
(dp10177
g16
VNN
p10178
sbatp10179
Rp10180
(dp10181
g16
VNP
p10182
sbag5
(g6
g7
(lp10183
g5
(g6
g7
(lp10184
Vin
p10185
atp10186
Rp10187
(dp10188
g16
VIN
p10189
sbag5
(g6
g7
(lp10190
g5
(g6
g7
(lp10191
g5
(g6
g7
(lp10192
Vimplicit/explicit
p10193
atp10194
Rp10195
(dp10196
g16
VJJ
p10197
sbag5
(g6
g7
(lp10198
Vexpression
p10199
atp10200
Rp10201
(dp10202
g16
VNN
p10203
sbatp10204
Rp10205
(dp10206
g16
VNP
p10207
sbag5
(g6
g7
(lp10208
g5
(g6
g7
(lp10209
Vof
p10210
atp10211
Rp10212
(dp10213
g16
VIN
p10214
sbag5
(g6
g7
(lp10215
g5
(g6
g7
(lp10216
Vdiscourse
p10217
atp10218
Rp10219
(dp10220
g16
VNN
p10221
sbag5
(g6
g7
(lp10222
Vrelation
p10223
atp10224
Rp10225
(dp10226
g16
VNN
p10227
sbatp10228
Rp10229
(dp10230
g16
VNP
p10231
sbatp10232
Rp10233
(dp10234
g16
VPP
p10235
sbatp10236
Rp10237
(dp10238
g16
VNP
p10239
sbatp10240
Rp10241
(dp10242
g16
VPP
p10243
sbatp10244
Rp10245
(dp10246
g16
VNP
p10247
sbag5
(g6
g7
(lp10248
g5
(g6
g7
(lp10249
Vis
p10250
atp10251
Rp10252
(dp10253
g16
VVBZ
p10254
sbag5
(g6
g7
(lp10255
g5
(g6
g7
(lp10256
Vrelated
p10257
atp10258
Rp10259
(dp10260
g16
VVBN
p10261
sbag5
(g6
g7
(lp10262
g5
(g6
g7
(lp10263
Vto
p10264
atp10265
Rp10266
(dp10267
g16
VTO
p10268
sbag5
(g6
g7
(lp10269
g5
(g6
g7
(lp10270
g5
(g6
g7
(lp10271
Vthe
p10272
atp10273
Rp10274
(dp10275
g16
VDT
p10276
sbag5
(g6
g7
(lp10277
Vfirst
p10278
atp10279
Rp10280
(dp10281
g16
VJJ
p10282
sbag5
(g6
g7
(lp10283
Vproblem
p10284
atp10285
Rp10286
(dp10287
g16
VNN
p10288
sbatp10289
Rp10290
(dp10291
g16
VNP
p10292
sbag5
(g6
g7
(lp10293
g5
(g6
g7
(lp10294
g5
(g6
g7
(lp10295
g5
(g6
g7
(lp10296
Vwe
p10297
atp10298
Rp10299
(dp10300
g16
VPRP
p10301
sbatp10302
Rp10303
(dp10304
g16
VNP
p10305
sbag5
(g6
g7
(lp10306
g5
(g6
g7
(lp10307
Vstudied
p10308
atp10309
Rp10310
(dp10311
g16
VVBD
p10312
sbag5
(g6
g7
(lp10313
g5
(g6
g7
(lp10314
g398
atp10315
Rp10316
(dp10317
g16
g398
sbag5
(g6
g7
(lp10318
g5
(g6
g7
(lp10319
Vi.e.
p10320
atp10321
Rp10322
(dp10323
g16
VUH
p10324
sbatp10325
Rp10326
(dp10327
g16
VINTJ
p10328
sbag5
(g6
g7
(lp10329
g398
atp10330
Rp10331
(dp10332
g16
g398
sbatp10333
Rp10334
(dp10335
g16
VPRN
p10336
sbatp10337
Rp10338
(dp10339
g16
VVP
p10340
sbatp10341
Rp10342
(dp10343
g16
g191
sbatp10344
Rp10345
(dp10346
g16
VSBAR
p10347
sbatp10348
Rp10349
(dp10350
g16
VNP
p10351
sbatp10352
Rp10353
(dp10354
g16
VPP
p10355
sbatp10356
Rp10357
(dp10358
g16
VADJP
p10359
sbag5
(g6
g7
(lp10360
g398
atp10361
Rp10362
(dp10363
g16
g398
sbag5
(g6
g7
(lp10364
g5
(g6
g7
(lp10365
Vif
p10366
atp10367
Rp10368
(dp10369
g16
VIN
p10370
sbag5
(g6
g7
(lp10371
g5
(g6
g7
(lp10372
g5
(g6
g7
(lp10373
Vthe
p10374
atp10375
Rp10376
(dp10377
g16
VDT
p10378
sbag5
(g6
g7
(lp10379
Vsource
p10380
atp10381
Rp10382
(dp10383
g16
VNN
p10384
sbag5
(g6
g7
(lp10385
Vsegment
p10386
atp10387
Rp10388
(dp10389
g16
VNN
p10390
sbatp10391
Rp10392
(dp10393
g16
VNP
p10394
sbag5
(g6
g7
(lp10395
g5
(g6
g7
(lp10396
Vis
p10397
atp10398
Rp10399
(dp10400
g16
VVBZ
p10401
sbag5
(g6
g7
(lp10402
g5
(g6
g7
(lp10403
Vtranslated
p10404
atp10405
Rp10406
(dp10407
g16
VVBN
p10408
sbag5
(g6
g7
(lp10409
g5
(g6
g7
(lp10410
Vinto
p10411
atp10412
Rp10413
(dp10414
g16
VIN
p10415
sbag5
(g6
g7
(lp10416
g5
(g6
g7
(lp10417
Vone
p10418
atp10419
Rp10420
(dp10421
g16
VCD
p10422
sbag5
(g6
g7
(lp10423
Vor
p10424
atp10425
Rp10426
(dp10427
g16
VCC
p10428
sbag5
(g6
g7
(lp10429
Vmultiple
p10430
atp10431
Rp10432
(dp10433
g16
VJJ
p10434
sbag5
(g6
g7
(lp10435
Vsentences
p10436
atp10437
Rp10438
(dp10439
g16
VNNS
p10440
sbatp10441
Rp10442
(dp10443
g16
VNP
p10444
sbatp10445
Rp10446
(dp10447
g16
VPP
p10448
sbag5
(g6
g7
(lp10449
g5
(g6
g7
(lp10450
Vin
p10451
atp10452
Rp10453
(dp10454
g16
VIN
p10455
sbag5
(g6
g7
(lp10456
g5
(g6
g7
(lp10457
VEnglish
p10458
atp10459
Rp10460
(dp10461
g16
VNNP
p10462
sbatp10463
Rp10464
(dp10465
g16
VNP
p10466
sbatp10467
Rp10468
(dp10469
g16
VPP
p10470
sbag5
(g6
g7
(lp10471
g398
atp10472
Rp10473
(dp10474
g16
g398
sbag5
(g6
g7
(lp10475
g5
(g6
g7
(lp10476
Vsince
p10477
atp10478
Rp10479
(dp10480
g16
VIN
p10481
sbag5
(g6
g7
(lp10482
g5
(g6
g7
(lp10483
g5
(g6
g7
(lp10484
g5
(g6
g7
(lp10485
Vdiscourse
p10486
atp10487
Rp10488
(dp10489
g16
VNN
p10490
sbag5
(g6
g7
(lp10491
Vrelations
p10492
atp10493
Rp10494
(dp10495
g16
VNNS
p10496
sbatp10497
Rp10498
(dp10499
g16
VNP
p10500
sbag5
(g6
g7
(lp10501
g5
(g6
g7
(lp10502
Vbetween
p10503
atp10504
Rp10505
(dp10506
g16
VIN
p10507
sbag5
(g6
g7
(lp10508
g5
(g6
g7
(lp10509
Vadjacent
p10510
atp10511
Rp10512
(dp10513
g16
VJJ
p10514
sbag5
(g6
g7
(lp10515
Vsentences
p10516
atp10517
Rp10518
(dp10519
g16
VNNS
p10520
sbatp10521
Rp10522
(dp10523
g16
VNP
p10524
sbatp10525
Rp10526
(dp10527
g16
VPP
p10528
sbatp10529
Rp10530
(dp10531
g16
VNP
p10532
sbag5
(g6
g7
(lp10533
g5
(g6
g7
(lp10534
Vare
p10535
atp10536
Rp10537
(dp10538
g16
VVBP
p10539
sbag5
(g6
g7
(lp10540
g5
(g6
g7
(lp10541
g5
(g6
g7
(lp10542
Vmore
p10543
atp10544
Rp10545
(dp10546
g16
VRBR
p10547
sbag5
(g6
g7
(lp10548
Voften
p10549
atp10550
Rp10551
(dp10552
g16
VRB
p10553
sbatp10554
Rp10555
(dp10556
g16
VADVP
p10557
sbag5
(g6
g7
(lp10558
Vimplicit
p10559
atp10560
Rp10561
(dp10562
g16
VVB
p10563
sbag5
(g6
g7
(lp10564
V-LRB-
p10565
atp10566
Rp10567
(dp10568
g16
V-LRB-
p10569
sbag5
(g6
g7
(lp10570
g5
(g6
g7
(lp10571
Vthan
p10572
atp10573
Rp10574
(dp10575
g16
VIN
p10576
sbag5
(g6
g7
(lp10577
g5
(g6
g7
(lp10578
Vintra-sentence
p10579
atp10580
Rp10581
(dp10582
g16
VJJ
p10583
sbag5
(g6
g7
(lp10584
Vones
p10585
atp10586
Rp10587
(dp10588
g16
VNNS
p10589
sbatp10590
Rp10591
(dp10592
g16
VNP
p10593
sbatp10594
Rp10595
(dp10596
g16
VPP
p10597
sbatp10598
Rp10599
(dp10600
g16
VVP
p10601
sbatp10602
Rp10603
(dp10604
g16
VVP
p10605
sbatp10606
Rp10607
(dp10608
g16
g191
sbatp10609
Rp10610
(dp10611
g16
VSBAR
p10612
sbatp10613
Rp10614
(dp10615
g16
VVP
p10616
sbatp10617
Rp10618
(dp10619
g16
VVP
p10620
sbatp10621
Rp10622
(dp10623
g16
g191
sbatp10624
Rp10625
(dp10626
g16
VSBAR
p10627
sbatp10628
Rp10629
(dp10630
g16
VVP
p10631
sbatp10632
Rp10633
(dp10634
g16
g191
sbatp10635
Rp10636
(dp10637
g16
VROOT
p10638
sbasg196
(icmyPackage
CorE
p10639
(dp10640
g199
(lp10641
(I0
I37
tp10642
a(I0
I49
tp10643
asg203
g10607
sbsg209
(icmyPackage
CorE
p10644
(dp10645
g199
(lp10646
(I0
I0
tp10647
a(I0
I34
tp10648
asg203
g5
(g6
g7
(lp10649
g10158
ag10163
ag10245
ag10252
ag10357
ag10362
ag10368
ag10392
ag10399
ag10406
ag10446
ag10468
atp10650
Rp10651
(dp10652
g16
g208
sbsbsg215
g1339
sg241
(lp10653
(isxpPackage
sxpSent
p10654
(dp10655
g245
(lp10656
I25
aI26
aI27
asg247
VObviously, the mismatch in implicit/explicit expression of discourse relation is related to the first problem we studied, i.e.,, if the source segment is translated into one or multiple sentences in English, since discourse relations between adjacent sentences are more often implicit (than intra-sentence ones
p10657
sg249
I10
sg230
I104
sg250
I37
sbasba(icmyPackage
CELink
p10658
(dp10659
g3
(lp10660
g10651
asg196
(icmyPackage
CorE
p10661
(dp10662
g199
(lp10663
(I0
I23
tp10664
a(I0
I34
tp10665
asg203
g5
(g6
g7
(lp10666
g10392
ag10399
ag10406
ag10446
ag10468
atp10667
Rp10668
(dp10669
g16
g208
sbsbsg209
(icmyPackage
CorE
p10670
(dp10671
g199
(lp10672
(I0
I0
tp10673
a(I0
I21
tp10674
asg203
g5
(g6
g7
(lp10675
g10158
ag10163
ag10245
ag10252
ag10357
ag10362
atp10676
Rp10677
(dp10678
g16
g208
sbsbsg215
g2360
sg241
(lp10679
g10654
asba(icmyPackage
CELink
p10680
(dp10681
g3
(lp10682
g10636
ag5
(g6
g7
(lp10683
g5
(g6
g7
(lp10684
g5
(g6
g7
(lp10685
g5
(g6
g7
(lp10686
VFor
p10687
atp10688
Rp10689
(dp10690
g16
VIN
p10691
sbag5
(g6
g7
(lp10692
g5
(g6
g7
(lp10693
Vthis
p10694
atp10695
Rp10696
(dp10697
g16
VDT
p10698
sbag5
(g6
g7
(lp10699
Vreason
p10700
atp10701
Rp10702
(dp10703
g16
VNN
p10704
sbatp10705
Rp10706
(dp10707
g16
VNP
p10708
sbatp10709
Rp10710
(dp10711
g16
VPP
p10712
sbag5
(g6
g7
(lp10713
g5
(g6
g7
(lp10714
Vwe
p10715
atp10716
Rp10717
(dp10718
g16
VPRP
p10719
sbatp10720
Rp10721
(dp10722
g16
VNP
p10723
sbag5
(g6
g7
(lp10724
g5
(g6
g7
(lp10725
Vperformed
p10726
atp10727
Rp10728
(dp10729
g16
VVBD
p10730
sbag5
(g6
g7
(lp10731
g5
(g6
g7
(lp10732
g5
(g6
g7
(lp10733
g907
atp10734
Rp10735
(dp10736
g16
VDT
p10737
sbag5
(g6
g7
(lp10738
VWilcoxon
p10739
atp10740
Rp10741
(dp10742
g16
VNNP
p10743
sbag5
(g6
g7
(lp10744
Vrank
p10745
atp10746
Rp10747
(dp10748
g16
VNN
p10749
sbag5
(g6
g7
(lp10750
Vsum
p10751
atp10752
Rp10753
(dp10754
g16
VNN
p10755
sbag5
(g6
g7
(lp10756
Vtest
p10757
atp10758
Rp10759
(dp10760
g16
VNN
p10761
sbatp10762
Rp10763
(dp10764
g16
VNP
p10765
sbag5
(g6
g7
(lp10766
g5
(g6
g7
(lp10767
Vfor
p10768
atp10769
Rp10770
(dp10771
g16
VIN
p10772
sbag5
(g6
g7
(lp10773
g5
(g6
g7
(lp10774
g5
(g6
g7
(lp10775
Vthe
p10776
atp10777
Rp10778
(dp10779
g16
VDT
p10780
sbag5
(g6
g7
(lp10781
Vtranslation
p10782
atp10783
Rp10784
(dp10785
g16
VNN
p10786
sbag5
(g6
g7
(lp10787
Vquality
p10788
atp10789
Rp10790
(dp10791
g16
VNN
p10792
sbatp10793
Rp10794
(dp10795
g16
VNP
p10796
sbag5
(g6
g7
(lp10797
g5
(g6
g7
(lp10798
Vof
p10799
atp10800
Rp10801
(dp10802
g16
VIN
p10803
sbag5
(g6
g7
(lp10804
g5
(g6
g7
(lp10805
Vsegments
p10806
atp10807
Rp10808
(dp10809
g16
VNNS
p10810
sbatp10811
Rp10812
(dp10813
g16
VNP
p10814
sbatp10815
Rp10816
(dp10817
g16
VPP
p10818
sbatp10819
Rp10820
(dp10821
g16
VNP
p10822
sbatp10823
Rp10824
(dp10825
g16
VPP
p10826
sbatp10827
Rp10828
(dp10829
g16
VNP
p10830
sbag5
(g6
g7
(lp10831
g5
(g6
g7
(lp10832
Vwith
p10833
atp10834
Rp10835
(dp10836
g16
VIN
p10837
sbag5
(g6
g7
(lp10838
g5
(g6
g7
(lp10839
g5
(g6
g7
(lp10840
Vdiscourse
p10841
atp10842
Rp10843
(dp10844
g16
VNN
p10845
sbag5
(g6
g7
(lp10846
Vmismatch
p10847
atp10848
Rp10849
(dp10850
g16
VNN
p10851
sbatp10852
Rp10853
(dp10854
g16
VNP
p10855
sbag5
(g6
g7
(lp10856
g5
(g6
g7
(lp10857
Vconditioned
p10858
atp10859
Rp10860
(dp10861
g16
VVBN
p10862
sbag5
(g6
g7
(lp10863
g5
(g6
g7
(lp10864
Von
p10865
atp10866
Rp10867
(dp10868
g16
VIN
p10869
sbag5
(g6
g7
(lp10870
g5
(g6
g7
(lp10871
Vwhether
p10872
atp10873
Rp10874
(dp10875
g16
VIN
p10876
sbag5
(g6
g7
(lp10877
g5
(g6
g7
(lp10878
g5
(g6
g7
(lp10879
Vthe
p10880
atp10881
Rp10882
(dp10883
g16
VDT
p10884
sbag5
(g6
g7
(lp10885
Vsegment
p10886
atp10887
Rp10888
(dp10889
g16
VNN
p10890
sbatp10891
Rp10892
(dp10893
g16
VNP
p10894
sbag5
(g6
g7
(lp10895
g5
(g6
g7
(lp10896
Vwas
p10897
atp10898
Rp10899
(dp10900
g16
VVBD
p10901
sbag5
(g6
g7
(lp10902
g5
(g6
g7
(lp10903
g5
(g6
g7
(lp10904
V1-1
p10905
atp10906
Rp10907
(dp10908
g16
VCD
p10909
sbatp10910
Rp10911
(dp10912
g16
VNP
p10913
sbag5
(g6
g7
(lp10914
Vor
p10915
atp10916
Rp10917
(dp10918
g16
VCC
p10919
sbag5
(g6
g7
(lp10920
g5
(g6
g7
(lp10921
V1-many
p10922
atp10923
Rp10924
(dp10925
g16
VJJ
p10926
sbatp10927
Rp10928
(dp10929
g16
VADJP
p10930
sbatp10931
Rp10932
(dp10933
g16
VUCP
p10934
sbatp10935
Rp10936
(dp10937
g16
VVP
p10938
sbatp10939
Rp10940
(dp10941
g16
g191
sbatp10942
Rp10943
(dp10944
g16
VSBAR
p10945
sbatp10946
Rp10947
(dp10948
g16
VPP
p10949
sbatp10950
Rp10951
(dp10952
g16
VVP
p10953
sbatp10954
Rp10955
(dp10956
g16
VNP
p10957
sbatp10958
Rp10959
(dp10960
g16
VPP
p10961
sbatp10962
Rp10963
(dp10964
g16
VVP
p10965
sbatp10966
Rp10967
(dp10968
g16
g191
sbatp10969
Rp10970
(dp10971
g16
VROOT
p10972
sbasg196
(icmyPackage
CorE
p10973
(dp10974
g199
(lp10975
(I0
I0
tp10976
a(I0
I49
tp10977
asg203
g10636
sbsg209
(icmyPackage
CorE
p10978
(dp10979
g199
(lp10980
(I1
I3
tp10981
a(I1
I27
tp10982
asg203
g5
(g6
g7
(lp10983
g10721
ag10963
atp10984
Rp10985
(dp10986
g16
g208
sbsbsg215
(icmyPackage
pattern
p10987
(dp10988
g218
I7
sg219
I1
sg220
(lp10989
(lp10990
S'for'
p10991
aa(lp10992
(lp10993
S'reason'
p10994
aS'reasons'
p10995
aaasg225
(lp10996
I1
aI1
aI2
asg227
(lp10997
S"Its sweet notes have restored many to health, and for this reason it is often called 'the sick one's comforter'."
p10998
asg230
I17
sg231
(lp10999
(lp11000
S'&C'
p11001
aS'(,/;/./--)'
p11002
aS'(&AND)'
p11003
aa(lp11004
S'(&this)'
p11005
aa(lp11006
S'(,/that)'
p11007
aS'&R'
p11008
aasbsg241
(lp11009
g10654
a(isxpPackage
sxpSent
p11010
(dp11011
g245
(lp11012
I27
asg247
VFor this reason we performed a Wilcoxon rank sum test for the translation quality of segments with discourse mismatch conditioned on whether the segment was 1-1 or 1-many
p11013
sg249
I10
sg230
I105
sg250
I37
sbasba.