(lp0
(icmyPackage
CELink
p1
(dp2
S'PTreelst'
p3
(lp4
ccopy_reg
_reconstructor
p5
(cnltk.tree
Tree
p6
c__builtin__
list
p7
(lp8
g5
(g6
g7
(lp9
g5
(g6
g7
(lp10
g5
(g6
g7
(lp11
g5
(g6
g7
(lp12
VPredicates
p13
atp14
Rp15
(dp16
S'_label'
p17
VNNS
p18
sbatp19
Rp20
(dp21
g17
VNP
p22
sbag5
(g6
g7
(lp23
g5
(g6
g7
(lp24
Vsuch
p25
atp26
Rp27
(dp28
g17
VJJ
p29
sbag5
(g6
g7
(lp30
Vas
p31
atp32
Rp33
(dp34
g17
VIN
p35
sbag5
(g6
g7
(lp36
g5
(g6
g7
(lp37
g5
(g6
g7
(lp38
g5
(g6
g7
(lp39
Vthinks
p40
atp41
Rp42
(dp43
g17
VVBZ
p44
sbatp45
Rp46
(dp47
g17
VVP
p48
sbag5
(g6
g7
(lp49
V,
p50
atp51
Rp52
(dp53
g17
g50
sbag5
(g6
g7
(lp54
g5
(g6
g7
(lp55
Vclaims
p56
atp57
Rp58
(dp59
g17
VVBZ
p60
sbatp61
Rp62
(dp63
g17
VVP
p64
sbag5
(g6
g7
(lp65
g50
atp66
Rp67
(dp68
g17
g50
sbag5
(g6
g7
(lp69
Vand
p70
atp71
Rp72
(dp73
g17
VCC
p74
sbag5
(g6
g7
(lp75
g5
(g6
g7
(lp76
Vadmits
p77
atp78
Rp79
(dp80
g17
VVBZ
p81
sbatp82
Rp83
(dp84
g17
VVP
p85
sbatp86
Rp87
(dp88
g17
VVP
p89
sbag5
(g6
g7
(lp90
g5
(g6
g7
(lp91
Voffer
p92
atp93
Rp94
(dp95
g17
VNN
p96
sbatp97
Rp98
(dp99
g17
VNP
p100
sbag5
(g6
g7
(lp101
g5
(g6
g7
(lp102
g5
(g6
g7
(lp103
Va
p104
atp105
Rp106
(dp107
g17
VDT
p108
sbag5
(g6
g7
(lp109
Vrange
p110
atp111
Rp112
(dp113
g17
VNN
p114
sbatp115
Rp116
(dp117
g17
VNP
p118
sbag5
(g6
g7
(lp119
g5
(g6
g7
(lp120
Vof
p121
atp122
Rp123
(dp124
g17
VIN
p125
sbag5
(g6
g7
(lp126
g5
(g6
g7
(lp127
g5
(g6
g7
(lp128
Voptions
p129
atp130
Rp131
(dp132
g17
VNNS
p133
sbatp134
Rp135
(dp136
g17
VNP
p137
sbag5
(g6
g7
(lp138
g5
(g6
g7
(lp139
Vfor
p140
atp141
Rp142
(dp143
g17
VIN
p144
sbag5
(g6
g7
(lp145
g5
(g6
g7
(lp146
g5
(g6
g7
(lp147
Vframing
p148
atp149
Rp150
(dp151
g17
VNN
p152
sbatp153
Rp154
(dp155
g17
VNP
p156
sbag5
(g6
g7
(lp157
g5
(g6
g7
(lp158
Vquoted
p159
atp160
Rp161
(dp162
g17
VVBN
p163
sbag5
(g6
g7
(lp164
g5
(g6
g7
(lp165
Vcontent
p166
atp167
Rp168
(dp169
g17
VJJ
p170
sbatp171
Rp172
(dp173
g17
VADJP
p174
sbag5
(g6
g7
(lp175
g5
(g6
g7
(lp176
Vaccording
p177
atp178
Rp179
(dp180
g17
VVBG
p181
sbag5
(g6
g7
(lp182
g5
(g6
g7
(lp183
Vto
p184
atp185
Rp186
(dp187
g17
VTO
p188
sbag5
(g6
g7
(lp189
g5
(g6
g7
(lp190
g5
(g6
g7
(lp191
Vthe
p192
atp193
Rp194
(dp195
g17
VDT
p196
sbag5
(g6
g7
(lp197
Vauthor
p198
atp199
Rp200
(dp201
g17
VNN
p202
sbag5
(g6
g7
(lp203
Vu
p204
atp205
Rp206
(dp207
g17
VNN
p208
sbag5
(g6
g7
(lp209
V'
p210
atp211
Rp212
(dp213
g17
VPOS
p214
sbatp215
Rp216
(dp217
g17
VNP
p218
sbag5
(g6
g7
(lp219
V\u005c
p220
atp221
Rp222
(dp223
g17
VJJ
p224
sbag5
(g6
g7
(lp225
Vu2019
p226
atp227
Rp228
(dp229
g17
VNNS
p230
sbatp231
Rp232
(dp233
g17
VNP
p234
sbatp235
Rp236
(dp237
g17
VPP
p238
sbatp239
Rp240
(dp241
g17
VPP
p242
sbatp243
Rp244
(dp245
g17
VVP
p246
sbatp247
Rp248
(dp249
g17
VNP
p250
sbatp251
Rp252
(dp253
g17
VPP
p254
sbag5
(g6
g7
(lp255
g210
atp256
Rp257
(dp258
g17
V''
p259
sbatp260
Rp261
(dp262
g17
VNP
p263
sbatp264
Rp265
(dp266
g17
VPP
p267
sbatp268
Rp269
(dp270
g17
VNP
p271
sbatp272
Rp273
(dp274
g17
VSQ
p275
sbatp276
Rp277
(dp278
g17
VPP
p279
sbatp280
Rp281
(dp282
g17
VNP
p283
sbag5
(g6
g7
(lp284
g5
(g6
g7
(lp285
Vs
p286
atp287
Rp288
(dp289
g17
VVBZ
p290
sbag5
(g6
g7
(lp291
g5
(g6
g7
(lp292
g5
(g6
g7
(lp293
Vown
p294
atp295
Rp296
(dp297
g17
VJJ
p298
sbag5
(g6
g7
(lp299
Vperceptions
p300
atp301
Rp302
(dp303
g17
VNNS
p304
sbatp305
Rp306
(dp307
g17
VNP
p308
sbag5
(g6
g7
(lp309
g5
(g6
g7
(lp310
Vof
p311
atp312
Rp313
(dp314
g17
VIN
p315
sbag5
(g6
g7
(lp316
g5
(g6
g7
(lp317
Vits
p318
atp319
Rp320
(dp321
g17
VPRP$
p322
sbag5
(g6
g7
(lp323
Vcredibility
p324
atp325
Rp326
(dp327
g17
VNN
p328
sbatp329
Rp330
(dp331
g17
VNP
p332
sbatp333
Rp334
(dp335
g17
VPP
p336
sbatp337
Rp338
(dp339
g17
VNP
p340
sbatp341
Rp342
(dp343
g17
VVP
p344
sbatp345
Rp346
(dp347
g17
VS
p348
sbatp349
Rp350
(dp351
g17
VROOT
p352
sbasS'cause'
p353
(icmyPackage
CorE
p354
(dp355
S'span'
p356
(lp357
(I0
I20
tp358
a(I0
I25
tp359
asS'PTree'
p360
g232
sbsS'effect'
p361
(icmyPackage
CorE
p362
(dp363
g356
(lp364
(I0
I0
tp365
a(I0
I17
tp366
asg360
g5
(g6
g7
(lp367
g20
ag27
ag33
ag87
ag98
ag116
ag123
ag135
ag142
ag154
ag161
ag172
atp368
Rp369
(dp370
g17
S'ROOT'
p371
sbsbsS'pt'
p372
(icmyPackage
pattern
p373
(dp374
S'pfreq'
p375
I0
sS'moresent'
p376
I0
sS'main_token'
p377
(lp378
(lp379
S'according'
p380
aS'to'
p381
aasS'ptype'
p382
(lp383
I2
aI1
aI1
asS'cases'
p384
(lp385
S'There could be different ways to arrange pictures in displays but picture should be selected according to the core sentences and arranged near the core sentences according to the semantic locality principle.'
p386
asS'id'
p387
I55
sS'constraints'
p388
(lp389
(lp390
S'&R'
p391
aS'(,)'
p392
aa(lp393
S'&NP@C@'
p394
aasbsS'sInfo'
p395
(lp396
(isxpPackage
sxpSent
p397
(dp398
S'sysCEidlst'
p399
(lp400
I0
asS'sentence_text'
p401
VPredicates such as thinks , claims , and admits offer a range of options for framing quoted content according to the author u'\u005cu2019' s own perceptions of its credibility
p402
sS'id_sec'
p403
I1
sg387
I1
sS'id_para'
p404
I0
sbasba(icmyPackage
CELink
p405
(dp406
g3
(lp407
g5
(g6
g7
(lp408
g5
(g6
g7
(lp409
g5
(g6
g7
(lp410
g5
(g6
g7
(lp411
VContemporary
p412
atp413
Rp414
(dp415
g17
VNNP
p416
sbag5
(g6
g7
(lp417
Vjournalism
p418
atp419
Rp420
(dp421
g17
VNN
p422
sbatp423
Rp424
(dp425
g17
VNP
p426
sbag5
(g6
g7
(lp427
g5
(g6
g7
(lp428
Vis
p429
atp430
Rp431
(dp432
g17
VVBZ
p433
sbag5
(g6
g7
(lp434
g5
(g6
g7
(lp435
Vincreasingly
p436
atp437
Rp438
(dp439
g17
VRB
p440
sbatp441
Rp442
(dp443
g17
VADVP
p444
sbag5
(g6
g7
(lp445
g5
(g6
g7
(lp446
Vconducted
p447
atp448
Rp449
(dp450
g17
VVBN
p451
sbag5
(g6
g7
(lp452
g5
(g6
g7
(lp453
Vthrough
p454
atp455
Rp456
(dp457
g17
VIN
p458
sbag5
(g6
g7
(lp459
g5
(g6
g7
(lp460
Vsocial
p461
atp462
Rp463
(dp464
g17
VJJ
p465
sbag5
(g6
g7
(lp466
Vmedia
p467
atp468
Rp469
(dp470
g17
VNNS
p471
sbag5
(g6
g7
(lp472
Vservices
p473
atp474
Rp475
(dp476
g17
VNNS
p477
sbatp478
Rp479
(dp480
g17
VNP
p481
sbatp482
Rp483
(dp484
g17
VPP
p485
sbag5
(g6
g7
(lp486
g5
(g6
g7
(lp487
Vlike
p488
atp489
Rp490
(dp491
g17
VIN
p492
sbag5
(g6
g7
(lp493
g5
(g6
g7
(lp494
g5
(g6
g7
(lp495
VTwitter
p496
atp497
Rp498
(dp499
g17
VNNP
p500
sbag5
(g6
g7
(lp501
V-LSB-
p502
atp503
Rp504
(dp505
g17
VNNP
p506
sbag5
(g6
g7
(lp507
V9
p508
atp509
Rp510
(dp511
g17
VCD
p512
sbag5
(g6
g7
(lp513
g50
atp514
Rp515
(dp516
g17
g50
sbag5
(g6
g7
(lp517
V6
p518
atp519
Rp520
(dp521
g17
VCD
p522
sbatp523
Rp524
(dp525
g17
VNP
p526
sbag5
(g6
g7
(lp527
g5
(g6
g7
(lp528
V-RSB-
p529
atp530
Rp531
(dp532
g17
VVBN
p533
sbatp534
Rp535
(dp536
g17
VVP
p537
sbatp538
Rp539
(dp540
g17
VNP
p541
sbatp542
Rp543
(dp544
g17
VPP
p545
sbatp546
Rp547
(dp548
g17
VVP
p549
sbatp550
Rp551
(dp552
g17
VVP
p553
sbatp554
Rp555
(dp556
g17
g348
sbatp557
Rp558
(dp559
g17
VROOT
p560
sbag5
(g6
g7
(lp561
g5
(g6
g7
(lp562
g5
(g6
g7
(lp563
g5
(g6
g7
(lp564
VAs
p565
atp566
Rp567
(dp568
g17
VIN
p569
sbag5
(g6
g7
(lp570
g5
(g6
g7
(lp571
g5
(g6
g7
(lp572
Vevents
p573
atp574
Rp575
(dp576
g17
VNNS
p577
sbatp578
Rp579
(dp580
g17
VNP
p581
sbag5
(g6
g7
(lp582
g5
(g6
g7
(lp583
Vunfold
p584
atp585
Rp586
(dp587
g17
VVB
p588
sbatp589
Rp590
(dp591
g17
VVP
p592
sbatp593
Rp594
(dp595
g17
g348
sbatp596
Rp597
(dp598
g17
VSBAR
p599
sbag5
(g6
g7
(lp600
g50
atp601
Rp602
(dp603
g17
g50
sbag5
(g6
g7
(lp604
g5
(g6
g7
(lp605
g5
(g6
g7
(lp606
Vjournalists
p607
atp608
Rp609
(dp610
g17
VNNS
p611
sbatp612
Rp613
(dp614
g17
VNP
p615
sbag5
(g6
g7
(lp616
Vand
p617
atp618
Rp619
(dp620
g17
VCC
p621
sbag5
(g6
g7
(lp622
g5
(g6
g7
(lp623
Vpolitical
p624
atp625
Rp626
(dp627
g17
VJJ
p628
sbag5
(g6
g7
(lp629
Vcommentators
p630
atp631
Rp632
(dp633
g17
VNNS
p634
sbatp635
Rp636
(dp637
g17
VNP
p638
sbatp639
Rp640
(dp641
g17
VNP
p642
sbag5
(g6
g7
(lp643
g5
(g6
g7
(lp644
g5
(g6
g7
(lp645
Vuse
p646
atp647
Rp648
(dp649
g17
VVBP
p650
sbag5
(g6
g7
(lp651
g5
(g6
g7
(lp652
g5
(g6
g7
(lp653
Vquotes
p654
atp655
Rp656
(dp657
g17
VNNS
p658
sbatp659
Rp660
(dp661
g17
VNP
p662
sbag5
(g6
g7
(lp663
g5
(g6
g7
(lp664
g5
(g6
g7
(lp665
g5
(g6
g7
(lp666
g5
(g6
g7
(lp667
g204
atp668
Rp669
(dp670
g17
VNNP
p671
sbag5
(g6
g7
(lp672
g210
atp673
Rp674
(dp675
g17
VPOS
p676
sbatp677
Rp678
(dp679
g17
VNP
p680
sbag5
(g6
g7
(lp681
V\u005c
p682
atp683
Rp684
(dp685
g17
VNN
p686
sbag5
(g6
g7
(lp687
Vu2014
p688
atp689
Rp690
(dp691
g17
VNN
p692
sbag5
(g6
g7
(lp693
g210
atp694
Rp695
(dp696
g17
V''
p697
sbatp698
Rp699
(dp700
g17
VNP
p701
sbag5
(g6
g7
(lp702
g5
(g6
g7
(lp703
Voften
p704
atp705
Rp706
(dp707
g17
VRB
p708
sbatp709
Rp710
(dp711
g17
VADVP
p712
sbatp713
Rp714
(dp715
g17
VNP
p716
sbag5
(g6
g7
(lp717
g5
(g6
g7
(lp718
g5
(g6
g7
(lp719
Vindirect
p720
atp721
Rp722
(dp723
g17
VJJ
p724
sbag5
(g6
g7
(lp725
g204
atp726
Rp727
(dp728
g17
VNN
p729
sbag5
(g6
g7
(lp730
g210
atp731
Rp732
(dp733
g17
VPOS
p734
sbatp735
Rp736
(dp737
g17
VNP
p738
sbag5
(g6
g7
(lp739
V\u005c
p740
atp741
Rp742
(dp743
g17
VJJ
p744
sbag5
(g6
g7
(lp745
Vu2014
p746
atp747
Rp748
(dp749
g17
VNN
p750
sbag5
(g6
g7
(lp751
g210
atp752
Rp753
(dp754
g17
V''
p755
sbag5
(g6
g7
(lp756
g5
(g6
g7
(lp757
g5
(g6
g7
(lp758
Vto
p759
atp760
Rp761
(dp762
g17
VTO
p763
sbag5
(g6
g7
(lp764
g5
(g6
g7
(lp765
Vconvey
p766
atp767
Rp768
(dp769
g17
VVB
p770
sbag5
(g6
g7
(lp771
g5
(g6
g7
(lp772
g5
(g6
g7
(lp773
Vpotentially
p774
atp775
Rp776
(dp777
g17
VRB
p778
sbag5
(g6
g7
(lp779
Vuncertain
p780
atp781
Rp782
(dp783
g17
VJJ
p784
sbatp785
Rp786
(dp787
g17
VADJP
p788
sbag5
(g6
g7
(lp789
Vinformation
p790
atp791
Rp792
(dp793
g17
VNN
p794
sbatp795
Rp796
(dp797
g17
VNP
p798
sbatp799
Rp800
(dp801
g17
VVP
p802
sbatp803
Rp804
(dp805
g17
VVP
p806
sbatp807
Rp808
(dp809
g17
g348
sbatp810
Rp811
(dp812
g17
VNP
p813
sbatp814
Rp815
(dp816
g17
VPP
p817
sbatp818
Rp819
(dp820
g17
VNP
p821
sbatp822
Rp823
(dp824
g17
VVP
p825
sbag5
(g6
g7
(lp826
Vand
p827
atp828
Rp829
(dp830
g17
VCC
p831
sbag5
(g6
g7
(lp832
g5
(g6
g7
(lp833
Vclaims
p834
atp835
Rp836
(dp837
g17
VVBZ
p838
sbag5
(g6
g7
(lp839
g5
(g6
g7
(lp840
Vfrom
p841
atp842
Rp843
(dp844
g17
VIN
p845
sbag5
(g6
g7
(lp846
g5
(g6
g7
(lp847
g5
(g6
g7
(lp848
Vtheir
p849
atp850
Rp851
(dp852
g17
VPRP$
p853
sbag5
(g6
g7
(lp854
Vsources
p855
atp856
Rp857
(dp858
g17
VNNS
p859
sbag5
(g6
g7
(lp860
Vand
p861
atp862
Rp863
(dp864
g17
VCC
p865
sbag5
(g6
g7
(lp866
Vinformants
p867
atp868
Rp869
(dp870
g17
VNNS
p871
sbatp872
Rp873
(dp874
g17
VNP
p875
sbag5
(g6
g7
(lp876
g50
atp877
Rp878
(dp879
g17
g50
sbag5
(g6
g7
(lp880
g5
(g6
g7
(lp881
Ve.g
p882
atp883
Rp884
(dp885
g17
VNN
p886
sbatp887
Rp888
(dp889
g17
VNP
p890
sbatp891
Rp892
(dp893
g17
VNP
p894
sbatp895
Rp896
(dp897
g17
VPP
p898
sbatp899
Rp900
(dp901
g17
VVP
p902
sbatp903
Rp904
(dp905
g17
VVP
p906
sbatp907
Rp908
(dp909
g17
g348
sbatp910
Rp911
(dp912
g17
VROOT
p913
sbasg353
(icmyPackage
CorE
p914
(dp915
g356
(lp916
(I1
I1
tp917
a(I1
I35
tp918
asg360
g5
(g6
g7
(lp919
g594
ag602
ag640
ag904
atp920
Rp921
(dp922
g17
g371
sbsbsg361
(icmyPackage
CorE
p923
(dp924
g356
(lp925
(I0
I0
tp926
a(I0
I15
tp927
asg360
g558
sbsg372
(icmyPackage
pattern
p928
(dp929
g375
I26
sg376
I1
sg377
(lp930
(lp931
S'as'
p932
aasg382
(lp933
I3
aI1
aI1
asg384
(lp934
S'You do not need to worry about the operation, as the software is very easy to use.'
p935
asg387
I80
sg388
(lp936
(lp937
S'&R@Complete@'
p938
aS'(,)'
p939
aS'(-such/-same/-seem/-regard/-regards/-regarded/-view/-views/-viewed/-denote/-denoted/-denotes)'
p940
aa(lp941
S'(-if/-follow/-follows/-&adv)'
p942
aS'&C@Complete@'
p943
aasbsg395
(lp944
(isxpPackage
sxpSent
p945
(dp946
g399
(lp947
I1
asg401
VContemporary journalism is increasingly conducted through social media services like Twitter [ 9 , 6 ]
p948
sg403
I2
sg387
I6
sg404
I1
sba(isxpPackage
sxpSent
p949
(dp950
g399
(lp951
I1
asg401
VAs events unfold, journalists and political commentators use quotes u'\u005cu2014' often indirect u'\u005cu2014' to convey potentially uncertain information and claims from their sources and informants, e.g
p952
sg403
I2
sg387
I7
sg404
I1
sbasba(icmyPackage
CELink
p953
(dp954
g3
(lp955
g5
(g6
g7
(lp956
g5
(g6
g7
(lp957
g5
(g6
g7
(lp958
g5
(g6
g7
(lp959
g5
(g6
g7
(lp960
VDetecting
p961
atp962
Rp963
(dp964
g17
VVBG
p965
sbatp966
Rp967
(dp968
g17
VVP
p969
sbatp970
Rp971
(dp972
g17
g348
sbag5
(g6
g7
(lp973
Vand
p974
atp975
Rp976
(dp977
g17
VCC
p978
sbag5
(g6
g7
(lp979
g5
(g6
g7
(lp980
g5
(g6
g7
(lp981
g5
(g6
g7
(lp982
Vreasoning
p983
atp984
Rp985
(dp986
g17
VNN
p987
sbatp988
Rp989
(dp990
g17
VNP
p991
sbag5
(g6
g7
(lp992
g5
(g6
g7
(lp993
Vabout
p994
atp995
Rp996
(dp997
g17
VIN
p998
sbag5
(g6
g7
(lp999
g5
(g6
g7
(lp1000
g5
(g6
g7
(lp1001
Vthe
p1002
atp1003
Rp1004
(dp1005
g17
VDT
p1006
sbag5
(g6
g7
(lp1007
Vcertainty
p1008
atp1009
Rp1010
(dp1011
g17
VNN
p1012
sbatp1013
Rp1014
(dp1015
g17
VNP
p1016
sbag5
(g6
g7
(lp1017
g5
(g6
g7
(lp1018
Vof
p1019
atp1020
Rp1021
(dp1022
g17
VIN
p1023
sbag5
(g6
g7
(lp1024
g5
(g6
g7
(lp1025
Vpropositional
p1026
atp1027
Rp1028
(dp1029
g17
VJJ
p1030
sbag5
(g6
g7
(lp1031
Vcontent
p1032
atp1033
Rp1034
(dp1035
g17
VNN
p1036
sbatp1037
Rp1038
(dp1039
g17
VNP
p1040
sbatp1041
Rp1042
(dp1043
g17
VPP
p1044
sbatp1045
Rp1046
(dp1047
g17
VNP
p1048
sbatp1049
Rp1050
(dp1051
g17
VPP
p1052
sbatp1053
Rp1054
(dp1055
g17
VNP
p1056
sbag5
(g6
g7
(lp1057
g5
(g6
g7
(lp1058
Vhas
p1059
atp1060
Rp1061
(dp1062
g17
VVBZ
p1063
sbag5
(g6
g7
(lp1064
g5
(g6
g7
(lp1065
Vbeen
p1066
atp1067
Rp1068
(dp1069
g17
VVBN
p1070
sbag5
(g6
g7
(lp1071
g5
(g6
g7
(lp1072
Videntified
p1073
atp1074
Rp1075
(dp1076
g17
VVBN
p1077
sbag5
(g6
g7
(lp1078
g5
(g6
g7
(lp1079
Vas
p1080
atp1081
Rp1082
(dp1083
g17
VIN
p1084
sbag5
(g6
g7
(lp1085
g5
(g6
g7
(lp1086
g5
(g6
g7
(lp1087
g104
atp1088
Rp1089
(dp1090
g17
VDT
p1091
sbag5
(g6
g7
(lp1092
Vkey
p1093
atp1094
Rp1095
(dp1096
g17
VJJ
p1097
sbag5
(g6
g7
(lp1098
Vtask
p1099
atp1100
Rp1101
(dp1102
g17
VNN
p1103
sbatp1104
Rp1105
(dp1106
g17
VNP
p1107
sbag5
(g6
g7
(lp1108
g5
(g6
g7
(lp1109
Vfor
p1110
atp1111
Rp1112
(dp1113
g17
VIN
p1114
sbag5
(g6
g7
(lp1115
g5
(g6
g7
(lp1116
Vinformation
p1117
atp1118
Rp1119
(dp1120
g17
VNN
p1121
sbag5
(g6
g7
(lp1122
Vextraction
p1123
atp1124
Rp1125
(dp1126
g17
VNN
p1127
sbatp1128
Rp1129
(dp1130
g17
VNP
p1131
sbatp1132
Rp1133
(dp1134
g17
VPP
p1135
sbatp1136
Rp1137
(dp1138
g17
VNP
p1139
sbatp1140
Rp1141
(dp1142
g17
VPP
p1143
sbatp1144
Rp1145
(dp1146
g17
VVP
p1147
sbatp1148
Rp1149
(dp1150
g17
VVP
p1151
sbatp1152
Rp1153
(dp1154
g17
VVP
p1155
sbatp1156
Rp1157
(dp1158
g17
g348
sbag5
(g6
g7
(lp1159
g50
atp1160
Rp1161
(dp1162
g17
g50
sbag5
(g6
g7
(lp1163
Vand
p1164
atp1165
Rp1166
(dp1167
g17
VCC
p1168
sbag5
(g6
g7
(lp1169
g5
(g6
g7
(lp1170
Vis
p1171
atp1172
Rp1173
(dp1174
g17
VVBZ
p1175
sbag5
(g6
g7
(lp1176
g5
(g6
g7
(lp1177
Vnow
p1178
atp1179
Rp1180
(dp1181
g17
VRB
p1182
sbatp1183
Rp1184
(dp1185
g17
VADVP
p1186
sbag5
(g6
g7
(lp1187
g5
(g6
g7
(lp1188
Vsupported
p1189
atp1190
Rp1191
(dp1192
g17
VVBN
p1193
sbag5
(g6
g7
(lp1194
g5
(g6
g7
(lp1195
Vby
p1196
atp1197
Rp1198
(dp1199
g17
VIN
p1200
sbag5
(g6
g7
(lp1201
g5
(g6
g7
(lp1202
g5
(g6
g7
(lp1203
Vthe
p1204
atp1205
Rp1206
(dp1207
g17
VDT
p1208
sbag5
(g6
g7
(lp1209
VFactBank
p1210
atp1211
Rp1212
(dp1213
g17
VNNP
p1214
sbag5
(g6
g7
(lp1215
Vcorpus
p1216
atp1217
Rp1218
(dp1219
g17
VNN
p1220
sbatp1221
Rp1222
(dp1223
g17
VNP
p1224
sbag5
(g6
g7
(lp1225
g5
(g6
g7
(lp1226
Vof
p1227
atp1228
Rp1229
(dp1230
g17
VIN
p1231
sbag5
(g6
g7
(lp1232
g5
(g6
g7
(lp1233
g5
(g6
g7
(lp1234
Vannotations
p1235
atp1236
Rp1237
(dp1238
g17
VNNS
p1239
sbatp1240
Rp1241
(dp1242
g17
VNP
p1243
sbag5
(g6
g7
(lp1244
g5
(g6
g7
(lp1245
Vfor
p1246
atp1247
Rp1248
(dp1249
g17
VIN
p1250
sbag5
(g6
g7
(lp1251
g5
(g6
g7
(lp1252
Vnewstext
p1253
atp1254
Rp1255
(dp1256
g17
VJJ
p1257
sbag5
(g6
g7
(lp1258
V-LSB-
p1259
atp1260
Rp1261
(dp1262
g17
VNNP
p1263
sbag5
(g6
g7
(lp1264
V14
p1265
atp1266
Rp1267
(dp1268
g17
VCD
p1269
sbag5
(g6
g7
(lp1270
V-RSB-
p1271
atp1272
Rp1273
(dp1274
g17
VNNS
p1275
sbatp1276
Rp1277
(dp1278
g17
VNP
p1279
sbatp1280
Rp1281
(dp1282
g17
VPP
p1283
sbatp1284
Rp1285
(dp1286
g17
VNP
p1287
sbatp1288
Rp1289
(dp1290
g17
VPP
p1291
sbatp1292
Rp1293
(dp1294
g17
VNP
p1295
sbatp1296
Rp1297
(dp1298
g17
VPP
p1299
sbatp1300
Rp1301
(dp1302
g17
VVP
p1303
sbatp1304
Rp1305
(dp1306
g17
VSQ
p1307
sbatp1308
Rp1309
(dp1310
g17
g348
sbatp1311
Rp1312
(dp1313
g17
VROOT
p1314
sbasg353
(icmyPackage
CorE
p1315
(dp1316
g356
(lp1317
(I0
I13
tp1318
a(I0
I33
tp1319
asg360
g5
(g6
g7
(lp1320
g1137
ag1161
ag1166
ag1173
ag1184
ag1191
ag1198
ag1222
ag1229
ag1241
ag1248
ag1255
ag1261
ag1267
atp1321
Rp1322
(dp1323
g17
g371
sbsbsg361
(icmyPackage
CorE
p1324
(dp1325
g356
(lp1326
(I0
I0
tp1327
a(I0
I11
tp1328
asg360
g5
(g6
g7
(lp1329
g971
ag976
ag1054
ag1061
ag1068
ag1075
atp1330
Rp1331
(dp1332
g17
g371
sbsbsg372
g928
sg395
(lp1333
(isxpPackage
sxpSent
p1334
(dp1335
g399
(lp1336
I2
asg401
VDetecting and reasoning about the certainty of propositional content has been identified as a key task for information extraction, and is now supported by the FactBank corpus of annotations for newstext [ 14 ]
p1337
sg403
I2
sg387
I11
sg404
I3
sbasba(icmyPackage
CELink
p1338
(dp1339
g3
(lp1340
g5
(g6
g7
(lp1341
g5
(g6
g7
(lp1342
g5
(g6
g7
(lp1343
g5
(g6
g7
(lp1344
VThis
p1345
atp1346
Rp1347
(dp1348
g17
VDT
p1349
sbag5
(g6
g7
(lp1350
Vdataset
p1351
atp1352
Rp1353
(dp1354
g17
VNN
p1355
sbatp1356
Rp1357
(dp1358
g17
VNP
p1359
sbag5
(g6
g7
(lp1360
g5
(g6
g7
(lp1361
Vwas
p1362
atp1363
Rp1364
(dp1365
g17
VVBD
p1366
sbag5
(g6
g7
(lp1367
g5
(g6
g7
(lp1368
Vannotated
p1369
atp1370
Rp1371
(dp1372
g17
VVBN
p1373
sbag5
(g6
g7
(lp1374
g5
(g6
g7
(lp1375
Vby
p1376
atp1377
Rp1378
(dp1379
g17
VIN
p1380
sbag5
(g6
g7
(lp1381
g5
(g6
g7
(lp1382
VMechanical
p1383
atp1384
Rp1385
(dp1386
g17
VNNP
p1387
sbag5
(g6
g7
(lp1388
VTurk
p1389
atp1390
Rp1391
(dp1392
g17
VNNP
p1393
sbag5
(g6
g7
(lp1394
Vworkers
p1395
atp1396
Rp1397
(dp1398
g17
VNNS
p1399
sbag5
(g6
g7
(lp1400
g5
(g6
g7
(lp1401
g5
(g6
g7
(lp1402
Vwho
p1403
atp1404
Rp1405
(dp1406
g17
VWP
p1407
sbatp1408
Rp1409
(dp1410
g17
VWHNP
p1411
sbag5
(g6
g7
(lp1412
g5
(g6
g7
(lp1413
g5
(g6
g7
(lp1414
Vgave
p1415
atp1416
Rp1417
(dp1418
g17
VVBD
p1419
sbag5
(g6
g7
(lp1420
g5
(g6
g7
(lp1421
Vratings
p1422
atp1423
Rp1424
(dp1425
g17
VNNS
p1426
sbatp1427
Rp1428
(dp1429
g17
VNP
p1430
sbag5
(g6
g7
(lp1431
g5
(g6
g7
(lp1432
Vfor
p1433
atp1434
Rp1435
(dp1436
g17
VIN
p1437
sbag5
(g6
g7
(lp1438
g5
(g6
g7
(lp1439
g5
(g6
g7
(lp1440
Vthe
p1441
atp1442
Rp1443
(dp1444
g17
VDT
p1445
sbag5
(g6
g7
(lp1446
Vfactuality
p1447
atp1448
Rp1449
(dp1450
g17
VNN
p1451
sbatp1452
Rp1453
(dp1454
g17
VNP
p1455
sbag5
(g6
g7
(lp1456
g5
(g6
g7
(lp1457
Vof
p1458
atp1459
Rp1460
(dp1461
g17
VIN
p1462
sbag5
(g6
g7
(lp1463
g5
(g6
g7
(lp1464
Vthe
p1465
atp1466
Rp1467
(dp1468
g17
VDT
p1469
sbag5
(g6
g7
(lp1470
Vscoped
p1471
atp1472
Rp1473
(dp1474
g17
VJJ
p1475
sbag5
(g6
g7
(lp1476
Vclaims
p1477
atp1478
Rp1479
(dp1480
g17
VNNS
p1481
sbatp1482
Rp1483
(dp1484
g17
VNP
p1485
sbatp1486
Rp1487
(dp1488
g17
VPP
p1489
sbatp1490
Rp1491
(dp1492
g17
VNP
p1493
sbatp1494
Rp1495
(dp1496
g17
VPP
p1497
sbag5
(g6
g7
(lp1498
g5
(g6
g7
(lp1499
Vin
p1500
atp1501
Rp1502
(dp1503
g17
VIN
p1504
sbag5
(g6
g7
(lp1505
g5
(g6
g7
(lp1506
Veach
p1507
atp1508
Rp1509
(dp1510
g17
VDT
p1511
sbag5
(g6
g7
(lp1512
VTwitter
p1513
atp1514
Rp1515
(dp1516
g17
VNNP
p1517
sbag5
(g6
g7
(lp1518
Vmessage
p1519
atp1520
Rp1521
(dp1522
g17
VNN
p1523
sbatp1524
Rp1525
(dp1526
g17
VNP
p1527
sbatp1528
Rp1529
(dp1530
g17
VPP
p1531
sbatp1532
Rp1533
(dp1534
g17
VVP
p1535
sbatp1536
Rp1537
(dp1538
g17
g348
sbatp1539
Rp1540
(dp1541
g17
VSBAR
p1542
sbatp1543
Rp1544
(dp1545
g17
VNP
p1546
sbatp1547
Rp1548
(dp1549
g17
VPP
p1550
sbatp1551
Rp1552
(dp1553
g17
VVP
p1554
sbatp1555
Rp1556
(dp1557
g17
VVP
p1558
sbatp1559
Rp1560
(dp1561
g17
g348
sbatp1562
Rp1563
(dp1564
g17
VROOT
p1565
sbag5
(g6
g7
(lp1566
g5
(g6
g7
(lp1567
g5
(g6
g7
(lp1568
g5
(g6
g7
(lp1569
g5
(g6
g7
(lp1570
VThis
p1571
atp1572
Rp1573
(dp1574
g17
VDT
p1575
sbatp1576
Rp1577
(dp1578
g17
VNP
p1579
sbatp1580
Rp1581
(dp1582
g17
VFRAG
p1583
sbag5
(g6
g7
(lp1584
g5
(g6
g7
(lp1585
Venables
p1586
atp1587
Rp1588
(dp1589
g17
VVBZ
p1590
sbag5
(g6
g7
(lp1591
g5
(g6
g7
(lp1592
g5
(g6
g7
(lp1593
Vus
p1594
atp1595
Rp1596
(dp1597
g17
VPRP
p1598
sbatp1599
Rp1600
(dp1601
g17
VNP
p1602
sbag5
(g6
g7
(lp1603
g5
(g6
g7
(lp1604
Vto
p1605
atp1606
Rp1607
(dp1608
g17
VTO
p1609
sbag5
(g6
g7
(lp1610
g5
(g6
g7
(lp1611
Vbuild
p1612
atp1613
Rp1614
(dp1615
g17
VVB
p1616
sbag5
(g6
g7
(lp1617
g5
(g6
g7
(lp1618
g5
(g6
g7
(lp1619
g104
atp1620
Rp1621
(dp1622
g17
VDT
p1623
sbag5
(g6
g7
(lp1624
Vpredictive
p1625
atp1626
Rp1627
(dp1628
g17
VJJ
p1629
sbag5
(g6
g7
(lp1630
Vmodel
p1631
atp1632
Rp1633
(dp1634
g17
VNN
p1635
sbatp1636
Rp1637
(dp1638
g17
VNP
p1639
sbag5
(g6
g7
(lp1640
g5
(g6
g7
(lp1641
Vof
p1642
atp1643
Rp1644
(dp1645
g17
VIN
p1646
sbag5
(g6
g7
(lp1647
g5
(g6
g7
(lp1648
Vthe
p1649
atp1650
Rp1651
(dp1652
g17
VDT
p1653
sbag5
(g6
g7
(lp1654
Vfactuality
p1655
atp1656
Rp1657
(dp1658
g17
VJJ
p1659
sbag5
(g6
g7
(lp1660
Vannotations
p1661
atp1662
Rp1663
(dp1664
g17
VNNS
p1665
sbatp1666
Rp1667
(dp1668
g17
VNP
p1669
sbatp1670
Rp1671
(dp1672
g17
VPP
p1673
sbatp1674
Rp1675
(dp1676
g17
VNP
p1677
sbag5
(g6
g7
(lp1678
g50
atp1679
Rp1680
(dp1681
g17
g50
sbag5
(g6
g7
(lp1682
g5
(g6
g7
(lp1683
Vwith
p1684
atp1685
Rp1686
(dp1687
g17
VIN
p1688
sbag5
(g6
g7
(lp1689
g5
(g6
g7
(lp1690
g5
(g6
g7
(lp1691
Vthe
p1692
atp1693
Rp1694
(dp1695
g17
VDT
p1696
sbag5
(g6
g7
(lp1697
Vgoal
p1698
atp1699
Rp1700
(dp1701
g17
VNN
p1702
sbatp1703
Rp1704
(dp1705
g17
VNP
p1706
sbag5
(g6
g7
(lp1707
g5
(g6
g7
(lp1708
Vof
p1709
atp1710
Rp1711
(dp1712
g17
VIN
p1713
sbag5
(g6
g7
(lp1714
g5
(g6
g7
(lp1715
g5
(g6
g7
(lp1716
Vdetermining
p1717
atp1718
Rp1719
(dp1720
g17
VVBG
p1721
sbag5
(g6
g7
(lp1722
g5
(g6
g7
(lp1723
g5
(g6
g7
(lp1724
Vthe
p1725
atp1726
Rp1727
(dp1728
g17
VDT
p1729
sbag5
(g6
g7
(lp1730
Vfull
p1731
atp1732
Rp1733
(dp1734
g17
VJJ
p1735
sbag5
(g6
g7
(lp1736
Vset
p1737
atp1738
Rp1739
(dp1740
g17
VNN
p1741
sbatp1742
Rp1743
(dp1744
g17
VNP
p1745
sbag5
(g6
g7
(lp1746
g5
(g6
g7
(lp1747
Vof
p1748
atp1749
Rp1750
(dp1751
g17
VIN
p1752
sbag5
(g6
g7
(lp1753
g5
(g6
g7
(lp1754
Vrelevant
p1755
atp1756
Rp1757
(dp1758
g17
VJJ
p1759
sbag5
(g6
g7
(lp1760
Vfactors
p1761
atp1762
Rp1763
(dp1764
g17
VNNS
p1765
sbatp1766
Rp1767
(dp1768
g17
VNP
p1769
sbatp1770
Rp1771
(dp1772
g17
VPP
p1773
sbag5
(g6
g7
(lp1774
g50
atp1775
Rp1776
(dp1777
g17
g50
sbag5
(g6
g7
(lp1778
g5
(g6
g7
(lp1779
Vincluding
p1780
atp1781
Rp1782
(dp1783
g17
VVBG
p1784
sbag5
(g6
g7
(lp1785
g5
(g6
g7
(lp1786
g5
(g6
g7
(lp1787
Vthe
p1788
atp1789
Rp1790
(dp1791
g17
VDT
p1792
sbag5
(g6
g7
(lp1793
Vpredicate
p1794
atp1795
Rp1796
(dp1797
g17
VNN
p1798
sbatp1799
Rp1800
(dp1801
g17
VNP
p1802
sbag5
(g6
g7
(lp1803
g50
atp1804
Rp1805
(dp1806
g17
g50
sbag5
(g6
g7
(lp1807
g5
(g6
g7
(lp1808
Vthe
p1809
atp1810
Rp1811
(dp1812
g17
VDT
p1813
sbag5
(g6
g7
(lp1814
Vsource
p1815
atp1816
Rp1817
(dp1818
g17
VNN
p1819
sbatp1820
Rp1821
(dp1822
g17
VNP
p1823
sbag5
(g6
g7
(lp1824
g50
atp1825
Rp1826
(dp1827
g17
g50
sbag5
(g6
g7
(lp1828
g5
(g6
g7
(lp1829
Vthe
p1830
atp1831
Rp1832
(dp1833
g17
VDT
p1834
sbag5
(g6
g7
(lp1835
Vjournalist
p1836
atp1837
Rp1838
(dp1839
g17
VNN
p1840
sbatp1841
Rp1842
(dp1843
g17
VNP
p1844
sbag5
(g6
g7
(lp1845
g50
atp1846
Rp1847
(dp1848
g17
g50
sbag5
(g6
g7
(lp1849
Vand
p1850
atp1851
Rp1852
(dp1853
g17
VCC
p1854
sbag5
(g6
g7
(lp1855
g5
(g6
g7
(lp1856
g5
(g6
g7
(lp1857
Vthe
p1858
atp1859
Rp1860
(dp1861
g17
VDT
p1862
sbag5
(g6
g7
(lp1863
Vcontent
p1864
atp1865
Rp1866
(dp1867
g17
VNN
p1868
sbatp1869
Rp1870
(dp1871
g17
VNP
p1872
sbag5
(g6
g7
(lp1873
g5
(g6
g7
(lp1874
Vof
p1875
atp1876
Rp1877
(dp1878
g17
VIN
p1879
sbag5
(g6
g7
(lp1880
g5
(g6
g7
(lp1881
Vthe
p1882
atp1883
Rp1884
(dp1885
g17
VDT
p1886
sbag5
(g6
g7
(lp1887
Vclaim
p1888
atp1889
Rp1890
(dp1891
g17
VNN
p1892
sbatp1893
Rp1894
(dp1895
g17
VNP
p1896
sbatp1897
Rp1898
(dp1899
g17
VPP
p1900
sbatp1901
Rp1902
(dp1903
g17
VNP
p1904
sbatp1905
Rp1906
(dp1907
g17
VNP
p1908
sbatp1909
Rp1910
(dp1911
g17
VPP
p1912
sbatp1913
Rp1914
(dp1915
g17
VNP
p1916
sbatp1917
Rp1918
(dp1919
g17
VVP
p1920
sbatp1921
Rp1922
(dp1923
g17
g348
sbatp1924
Rp1925
(dp1926
g17
VPP
p1927
sbatp1928
Rp1929
(dp1930
g17
VNP
p1931
sbatp1932
Rp1933
(dp1934
g17
VPP
p1935
sbatp1936
Rp1937
(dp1938
g17
VVP
p1939
sbatp1940
Rp1941
(dp1942
g17
VVP
p1943
sbatp1944
Rp1945
(dp1946
g17
g348
sbatp1947
Rp1948
(dp1949
g17
VVP
p1950
sbag5
(g6
g7
(lp1951
g5
(g6
g7
(lp1952
Vitself
p1953
atp1954
Rp1955
(dp1956
g17
VPRP
p1957
sbatp1958
Rp1959
(dp1960
g17
VNP
p1961
sbatp1962
Rp1963
(dp1964
g17
VSINV
p1965
sbatp1966
Rp1967
(dp1968
g17
VROOT
p1969
sbasg353
(icmyPackage
CorE
p1970
(dp1971
g356
(lp1972
(I0
I0
tp1973
a(I0
I21
tp1974
asg360
g1563
sbsg361
(icmyPackage
CorE
p1975
(dp1976
g356
(lp1977
(I1
I2
tp1978
a(I1
I40
tp1979
asg360
g1945
sbsg372
(icmyPackage
pattern
p1980
(dp1981
g375
I0
sg376
I1
sg377
(lp1982
(lp1983
(lp1984
S'enable'
p1985
aS'enables'
p1986
aS'enabled'
p1987
aaasg382
(lp1988
I4
aI1
aI1
asg384
(lp1989
S'Ontology helps explain representation and establish the links between representations. This enables summarization systems to use more general or specific concepts in summary.'
p1990
asg387
I91
sg388
(lp1991
(lp1992
S'&C'
p1993
aS'(,/./;/--)'
p1994
aS'&this'
p1995
aS'(&adj)'
p1996
aS'(&N)'
p1997
aS'(&CAN/have/has/had)'
p1998
aS'(&ADV)'
p1999
aa(lp2000
S'&NP@R@'
p2001
aS'&TODO@R@'
p2002
aasbsg395
(lp2003
(isxpPackage
sxpSent
p2004
(dp2005
g399
(lp2006
I3
asg401
VThis dataset was annotated by Mechanical Turk workers who gave ratings for the factuality of the scoped claims in each Twitter message
p2007
sg403
I2
sg387
I16
sg404
I4
sba(isxpPackage
sxpSent
p2008
(dp2009
g399
(lp2010
I3
asg401
VThis enables us to build a predictive model of the factuality annotations, with the goal of determining the full set of relevant factors, including the predicate, the source, the journalist, and the content of the claim itself
p2011
sg403
I2
sg387
I17
sg404
I4
sbasba(icmyPackage
CELink
p2012
(dp2013
g3
(lp2014
g5
(g6
g7
(lp2015
g5
(g6
g7
(lp2016
g5
(g6
g7
(lp2017
g5
(g6
g7
(lp2018
g5
(g6
g7
(lp2019
VOur
p2020
atp2021
Rp2022
(dp2023
g17
VPRP$
p2024
sbag5
(g6
g7
(lp2025
Vinterest
p2026
atp2027
Rp2028
(dp2029
g17
VNN
p2030
sbatp2031
Rp2032
(dp2033
g17
VNP
p2034
sbag5
(g6
g7
(lp2035
g5
(g6
g7
(lp2036
Vin
p2037
atp2038
Rp2039
(dp2040
g17
VIN
p2041
sbag5
(g6
g7
(lp2042
g5
(g6
g7
(lp2043
Vthis
p2044
atp2045
Rp2046
(dp2047
g17
VDT
p2048
sbag5
(g6
g7
(lp2049
Vtext
p2050
atp2051
Rp2052
(dp2053
g17
VNN
p2054
sbatp2055
Rp2056
(dp2057
g17
VNP
p2058
sbatp2059
Rp2060
(dp2061
g17
VPP
p2062
sbatp2063
Rp2064
(dp2065
g17
VNP
p2066
sbag5
(g6
g7
(lp2067
g5
(g6
g7
(lp2068
Vis
p2069
atp2070
Rp2071
(dp2072
g17
VVBZ
p2073
sbag5
(g6
g7
(lp2074
g5
(g6
g7
(lp2075
Vspecifically
p2076
atp2077
Rp2078
(dp2079
g17
VRB
p2080
sbatp2081
Rp2082
(dp2083
g17
VADVP
p2084
sbag5
(g6
g7
(lp2085
g5
(g6
g7
(lp2086
g5
(g6
g7
(lp2087
Vin
p2088
atp2089
Rp2090
(dp2091
g17
VRB
p2092
sbatp2093
Rp2094
(dp2095
g17
VADVP
p2096
sbag5
(g6
g7
(lp2097
Vquoted
p2098
atp2099
Rp2100
(dp2101
g17
VVBN
p2102
sbag5
(g6
g7
(lp2103
g5
(g6
g7
(lp2104
g5
(g6
g7
(lp2105
g5
(g6
g7
(lp2106
Vcontent
p2107
atp2108
Rp2109
(dp2110
g17
VNN
p2111
sbag5
(g6
g7
(lp2112
g204
atp2113
Rp2114
(dp2115
g17
VNN
p2116
sbag5
(g6
g7
(lp2117
g210
atp2118
Rp2119
(dp2120
g17
VPOS
p2121
sbatp2122
Rp2123
(dp2124
g17
VNP
p2125
sbag5
(g6
g7
(lp2126
V\u005c
p2127
atp2128
Rp2129
(dp2130
g17
VJJ
p2131
sbag5
(g6
g7
(lp2132
Vu2014
p2133
atp2134
Rp2135
(dp2136
g17
VNNS
p2137
sbatp2138
Rp2139
(dp2140
g17
VNP
p2141
sbag5
(g6
g7
(lp2142
g210
atp2143
Rp2144
(dp2145
g17
V''
p2146
sbag5
(g6
g7
(lp2147
g5
(g6
g7
(lp2148
Vincluding
p2149
atp2150
Rp2151
(dp2152
g17
VVBG
p2153
sbag5
(g6
g7
(lp2154
g5
(g6
g7
(lp2155
g5
(g6
g7
(lp2156
g5
(g6
g7
(lp2157
g5
(g6
g7
(lp2158
g204
atp2159
Rp2160
(dp2161
g17
VNNP
p2162
sbag5
(g6
g7
(lp2163
g210
atp2164
Rp2165
(dp2166
g17
VPOS
p2167
sbatp2168
Rp2169
(dp2170
g17
VNP
p2171
sbag5
(g6
g7
(lp2172
V\u005c
p2173
atp2174
Rp2175
(dp2176
g17
VJJ
p2177
sbag5
(g6
g7
(lp2178
Vu201c
p2179
atp2180
Rp2181
(dp2182
g17
VNNS
p2183
sbag5
(g6
g7
(lp2184
g210
atp2185
Rp2186
(dp2187
g17
VPOS
p2188
sbatp2189
Rp2190
(dp2191
g17
VNP
p2192
sbag5
(g6
g7
(lp2193
Vindirect
p2194
atp2195
Rp2196
(dp2197
g17
VJJ
p2198
sbag5
(g6
g7
(lp2199
g204
atp2200
Rp2201
(dp2202
g17
VNN
p2203
sbatp2204
Rp2205
(dp2206
g17
VNP
p2207
sbag5
(g6
g7
(lp2208
g210
atp2209
Rp2210
(dp2211
g17
V''
p2212
sbag5
(g6
g7
(lp2213
g5
(g6
g7
(lp2214
V\u005c
p2215
atp2216
Rp2217
(dp2218
g17
VVBG
p2219
sbag5
(g6
g7
(lp2220
g5
(g6
g7
(lp2221
g5
(g6
g7
(lp2222
Vu201d
p2223
atp2224
Rp2225
(dp2226
g17
VNNP
p2227
sbag5
(g6
g7
(lp2228
g210
atp2229
Rp2230
(dp2231
g17
VPOS
p2232
sbatp2233
Rp2234
(dp2235
g17
VNP
p2236
sbag5
(g6
g7
(lp2237
Vquotes
p2238
atp2239
Rp2240
(dp2241
g17
VNNS
p2242
sbatp2243
Rp2244
(dp2245
g17
VNP
p2246
sbatp2247
Rp2248
(dp2249
g17
VVP
p2250
sbatp2251
Rp2252
(dp2253
g17
VNP
p2254
sbatp2255
Rp2256
(dp2257
g17
VPP
p2258
sbag5
(g6
g7
(lp2259
g50
atp2260
Rp2261
(dp2262
g17
g50
sbag5
(g6
g7
(lp2263
g5
(g6
g7
(lp2264
g5
(g6
g7
(lp2265
Vwhich
p2266
atp2267
Rp2268
(dp2269
g17
VWDT
p2270
sbatp2271
Rp2272
(dp2273
g17
VWHNP
p2274
sbag5
(g6
g7
(lp2275
g5
(g6
g7
(lp2276
g5
(g6
g7
(lp2277
Vmay
p2278
atp2279
Rp2280
(dp2281
g17
VMD
p2282
sbag5
(g6
g7
(lp2283
g5
(g6
g7
(lp2284
Vinclude
p2285
atp2286
Rp2287
(dp2288
g17
VVB
p2289
sbag5
(g6
g7
(lp2290
g5
(g6
g7
(lp2291
Vparaphrased
p2292
atp2293
Rp2294
(dp2295
g17
VJJ
p2296
sbag5
(g6
g7
(lp2297
Vquotations
p2298
atp2299
Rp2300
(dp2301
g17
VNNS
p2302
sbatp2303
Rp2304
(dp2305
g17
VNP
p2306
sbag5
(g6
g7
(lp2307
g50
atp2308
Rp2309
(dp2310
g17
g50
sbag5
(g6
g7
(lp2311
g5
(g6
g7
(lp2312
Vas
p2313
atp2314
Rp2315
(dp2316
g17
VIN
p2317
sbag5
(g6
g7
(lp2318
Vin
p2319
atp2320
Rp2321
(dp2322
g17
VIN
p2323
sbag5
(g6
g7
(lp2324
g5
(g6
g7
(lp2325
g5
(g6
g7
(lp2326
Vthe
p2327
atp2328
Rp2329
(dp2330
g17
VDT
p2331
sbag5
(g6
g7
(lp2332
Vexamples
p2333
atp2334
Rp2335
(dp2336
g17
VNNS
p2337
sbatp2338
Rp2339
(dp2340
g17
VNP
p2341
sbag5
(g6
g7
(lp2342
g5
(g6
g7
(lp2343
Vin
p2344
atp2345
Rp2346
(dp2347
g17
VIN
p2348
sbag5
(g6
g7
(lp2349
g5
(g6
g7
(lp2350
VFigure
p2351
atp2352
Rp2353
(dp2354
g17
VNNP
p2355
sbag5
(g6
g7
(lp2356
V1
p2357
atp2358
Rp2359
(dp2360
g17
VCD
p2361
sbatp2362
Rp2363
(dp2364
g17
VNP
p2365
sbatp2366
Rp2367
(dp2368
g17
VPP
p2369
sbatp2370
Rp2371
(dp2372
g17
VNP
p2373
sbatp2374
Rp2375
(dp2376
g17
VPP
p2377
sbatp2378
Rp2379
(dp2380
g17
VVP
p2381
sbatp2382
Rp2383
(dp2384
g17
VVP
p2385
sbatp2386
Rp2387
(dp2388
g17
g348
sbatp2389
Rp2390
(dp2391
g17
VSBAR
p2392
sbatp2393
Rp2394
(dp2395
g17
VNP
p2396
sbatp2397
Rp2398
(dp2399
g17
VVP
p2400
sbatp2401
Rp2402
(dp2403
g17
VVP
p2404
sbatp2405
Rp2406
(dp2407
g17
g348
sbatp2408
Rp2409
(dp2410
g17
VROOT
p2411
sbag5
(g6
g7
(lp2412
g5
(g6
g7
(lp2413
g5
(g6
g7
(lp2414
g5
(g6
g7
(lp2415
VWhile
p2416
atp2417
Rp2418
(dp2419
g17
VIN
p2420
sbag5
(g6
g7
(lp2421
g5
(g6
g7
(lp2422
g5
(g6
g7
(lp2423
g5
(g6
g7
(lp2424
Vlabeled
p2425
atp2426
Rp2427
(dp2428
g17
VJJ
p2429
sbag5
(g6
g7
(lp2430
Vdatasets
p2431
atp2432
Rp2433
(dp2434
g17
VNNS
p2435
sbatp2436
Rp2437
(dp2438
g17
VNP
p2439
sbag5
(g6
g7
(lp2440
g5
(g6
g7
(lp2441
Vfor
p2442
atp2443
Rp2444
(dp2445
g17
VIN
p2446
sbag5
(g6
g7
(lp2447
g5
(g6
g7
(lp2448
Vsuch
p2449
atp2450
Rp2451
(dp2452
g17
VJJ
p2453
sbag5
(g6
g7
(lp2454
Vquotes
p2455
atp2456
Rp2457
(dp2458
g17
VNNS
p2459
sbatp2460
Rp2461
(dp2462
g17
VNP
p2463
sbatp2464
Rp2465
(dp2466
g17
VPP
p2467
sbatp2468
Rp2469
(dp2470
g17
VNP
p2471
sbag5
(g6
g7
(lp2472
g5
(g6
g7
(lp2473
Vhave
p2474
atp2475
Rp2476
(dp2477
g17
VVBP
p2478
sbag5
(g6
g7
(lp2479
g5
(g6
g7
(lp2480
Vbeen
p2481
atp2482
Rp2483
(dp2484
g17
VVBN
p2485
sbag5
(g6
g7
(lp2486
g5
(g6
g7
(lp2487
Vcreated
p2488
atp2489
Rp2490
(dp2491
g17
VVBN
p2492
sbag5
(g6
g7
(lp2493
g5
(g6
g7
(lp2494
g5
(g6
g7
(lp2495
g5
(g6
g7
(lp2496
V-LSB-
p2497
atp2498
Rp2499
(dp2500
g17
VNNP
p2501
sbag5
(g6
g7
(lp2502
V12
p2503
atp2504
Rp2505
(dp2506
g17
VCD
p2507
sbag5
(g6
g7
(lp2508
g50
atp2509
Rp2510
(dp2511
g17
g50
sbag5
(g6
g7
(lp2512
V13
p2513
atp2514
Rp2515
(dp2516
g17
VCD
p2517
sbatp2518
Rp2519
(dp2520
g17
VNP
p2521
sbag5
(g6
g7
(lp2522
V-RSB-
p2523
atp2524
Rp2525
(dp2526
g17
VJJ
p2527
sbatp2528
Rp2529
(dp2530
g17
VADJP
p2531
sbatp2532
Rp2533
(dp2534
g17
g348
sbatp2535
Rp2536
(dp2537
g17
VVP
p2538
sbatp2539
Rp2540
(dp2541
g17
VVP
p2542
sbatp2543
Rp2544
(dp2545
g17
VVP
p2546
sbatp2547
Rp2548
(dp2549
g17
g348
sbatp2550
Rp2551
(dp2552
g17
VSBAR
p2553
sbag5
(g6
g7
(lp2554
g50
atp2555
Rp2556
(dp2557
g17
g50
sbag5
(g6
g7
(lp2558
g5
(g6
g7
(lp2559
Vthese
p2560
atp2561
Rp2562
(dp2563
g17
VDT
p2564
sbatp2565
Rp2566
(dp2567
g17
VNP
p2568
sbag5
(g6
g7
(lp2569
g5
(g6
g7
(lp2570
Vare
p2571
atp2572
Rp2573
(dp2574
g17
VVBP
p2575
sbag5
(g6
g7
(lp2576
Vnot
p2577
atp2578
Rp2579
(dp2580
g17
VRB
p2581
sbag5
(g6
g7
(lp2582
g5
(g6
g7
(lp2583
Vfreely
p2584
atp2585
Rp2586
(dp2587
g17
VRB
p2588
sbag5
(g6
g7
(lp2589
Vavailable
p2590
atp2591
Rp2592
(dp2593
g17
VJJ
p2594
sbag5
(g6
g7
(lp2595
g5
(g6
g7
(lp2596
Vat
p2597
atp2598
Rp2599
(dp2600
g17
VIN
p2601
sbag5
(g6
g7
(lp2602
g5
(g6
g7
(lp2603
Vpresent
p2604
atp2605
Rp2606
(dp2607
g17
VJJ
p2608
sbatp2609
Rp2610
(dp2611
g17
VADJP
p2612
sbatp2613
Rp2614
(dp2615
g17
VPP
p2616
sbatp2617
Rp2618
(dp2619
g17
VADJP
p2620
sbatp2621
Rp2622
(dp2623
g17
VVP
p2624
sbatp2625
Rp2626
(dp2627
g17
g348
sbatp2628
Rp2629
(dp2630
g17
VROOT
p2631
sbasg353
(icmyPackage
CorE
p2632
(dp2633
g356
(lp2634
(I0
I36
tp2635
a(I1
I20
tp2636
asg360
g5
(g6
g7
(lp2637
g2321
ag2371
ag2551
ag2556
ag2566
ag2573
ag2579
ag2586
ag2592
ag2599
atp2638
Rp2639
(dp2640
g17
g371
sbsbsg361
(icmyPackage
CorE
p2641
(dp2642
g356
(lp2643
(I0
I0
tp2644
a(I0
I33
tp2645
asg360
g5
(g6
g7
(lp2646
g2064
ag2071
ag2082
ag2094
ag2100
ag2139
ag2144
ag2256
ag2261
ag2272
ag2280
ag2287
ag2304
atp2647
Rp2648
(dp2649
g17
g371
sbsbsg372
g928
sg395
(lp2650
(isxpPackage
sxpSent
p2651
(dp2652
g399
(lp2653
I4
asg401
VOur interest in this text is specifically in quoted content u'\u005cu2014' including u'\u005cu201c' indirect u'\u005cu201d' quotes, which may include paraphrased quotations, as in the examples in Figure 1
p2654
sg403
I3
sg387
I24
sg404
I6
sba(isxpPackage
sxpSent
p2655
(dp2656
g399
(lp2657
I4
asg401
VWhile labeled datasets for such quotes have been created [ 12 , 13 ] , these are not freely available at present
p2658
sg403
I3
sg387
I25
sg404
I6
sbasba(icmyPackage
CELink
p2659
(dp2660
g3
(lp2661
g5
(g6
g7
(lp2662
g5
(g6
g7
(lp2663
g5
(g6
g7
(lp2664
g5
(g6
g7
(lp2665
VIn
p2666
atp2667
Rp2668
(dp2669
g17
VIN
p2670
sbag5
(g6
g7
(lp2671
g5
(g6
g7
(lp2672
Vany
p2673
atp2674
Rp2675
(dp2676
g17
VDT
p2677
sbag5
(g6
g7
(lp2678
Vcase
p2679
atp2680
Rp2681
(dp2682
g17
VNN
p2683
sbatp2684
Rp2685
(dp2686
g17
VNP
p2687
sbatp2688
Rp2689
(dp2690
g17
VPP
p2691
sbag5
(g6
g7
(lp2692
g50
atp2693
Rp2694
(dp2695
g17
g50
sbag5
(g6
g7
(lp2696
g5
(g6
g7
(lp2697
g5
(g6
g7
(lp2698
Vthe
p2699
atp2700
Rp2701
(dp2702
g17
VDT
p2703
sbag5
(g6
g7
(lp2704
Vrelevance
p2705
atp2706
Rp2707
(dp2708
g17
VNN
p2709
sbatp2710
Rp2711
(dp2712
g17
VNP
p2713
sbag5
(g6
g7
(lp2714
g5
(g6
g7
(lp2715
Vof
p2716
atp2717
Rp2718
(dp2719
g17
VIN
p2720
sbag5
(g6
g7
(lp2721
g5
(g6
g7
(lp2722
Vthese
p2723
atp2724
Rp2725
(dp2726
g17
VDT
p2727
sbag5
(g6
g7
(lp2728
g5
(g6
g7
(lp2729
Vdatasets
p2730
atp2731
Rp2732
(dp2733
g17
VJJ
p2734
sbag5
(g6
g7
(lp2735
g5
(g6
g7
(lp2736
Vto
p2737
atp2738
Rp2739
(dp2740
g17
VTO
p2741
sbag5
(g6
g7
(lp2742
g5
(g6
g7
(lp2743
VTwitter
p2744
atp2745
Rp2746
(dp2747
g17
VNNP
p2748
sbatp2749
Rp2750
(dp2751
g17
VNP
p2752
sbatp2753
Rp2754
(dp2755
g17
VPP
p2756
sbatp2757
Rp2758
(dp2759
g17
VADJP
p2760
sbag5
(g6
g7
(lp2761
Vtext
p2762
atp2763
Rp2764
(dp2765
g17
VNN
p2766
sbatp2767
Rp2768
(dp2769
g17
VNP
p2770
sbatp2771
Rp2772
(dp2773
g17
VPP
p2774
sbatp2775
Rp2776
(dp2777
g17
VNP
p2778
sbag5
(g6
g7
(lp2779
g5
(g6
g7
(lp2780
Vis
p2781
atp2782
Rp2783
(dp2784
g17
VVBZ
p2785
sbag5
(g6
g7
(lp2786
g5
(g6
g7
(lp2787
Vcurrently
p2788
atp2789
Rp2790
(dp2791
g17
VRB
p2792
sbatp2793
Rp2794
(dp2795
g17
VADVP
p2796
sbag5
(g6
g7
(lp2797
g5
(g6
g7
(lp2798
Vunproven
p2799
atp2800
Rp2801
(dp2802
g17
VJJ
p2803
sbatp2804
Rp2805
(dp2806
g17
VADJP
p2807
sbatp2808
Rp2809
(dp2810
g17
VVP
p2811
sbatp2812
Rp2813
(dp2814
g17
g348
sbatp2815
Rp2816
(dp2817
g17
VROOT
p2818
sbag5
(g6
g7
(lp2819
g5
(g6
g7
(lp2820
g5
(g6
g7
(lp2821
g5
(g6
g7
(lp2822
VTherefore
p2823
atp2824
Rp2825
(dp2826
g17
VRB
p2827
sbatp2828
Rp2829
(dp2830
g17
VADVP
p2831
sbag5
(g6
g7
(lp2832
g50
atp2833
Rp2834
(dp2835
g17
g50
sbag5
(g6
g7
(lp2836
g5
(g6
g7
(lp2837
Vrather
p2838
atp2839
Rp2840
(dp2841
g17
VRB
p2842
sbag5
(g6
g7
(lp2843
Vthan
p2844
atp2845
Rp2846
(dp2847
g17
VIN
p2848
sbag5
(g6
g7
(lp2849
g5
(g6
g7
(lp2850
g5
(g6
g7
(lp2851
Vtrain
p2852
atp2853
Rp2854
(dp2855
g17
VVBG
p2856
sbag5
(g6
g7
(lp2857
g5
(g6
g7
(lp2858
g104
atp2859
Rp2860
(dp2861
g17
VDT
p2862
sbag5
(g6
g7
(lp2863
Vsupervised
p2864
atp2865
Rp2866
(dp2867
g17
VJJ
p2868
sbag5
(g6
g7
(lp2869
Vmodel
p2870
atp2871
Rp2872
(dp2873
g17
VNN
p2874
sbatp2875
Rp2876
(dp2877
g17
VNP
p2878
sbag5
(g6
g7
(lp2879
g5
(g6
g7
(lp2880
g5
(g6
g7
(lp2881
Vto
p2882
atp2883
Rp2884
(dp2885
g17
VTO
p2886
sbag5
(g6
g7
(lp2887
g5
(g6
g7
(lp2888
Vdetect
p2889
atp2890
Rp2891
(dp2892
g17
VVB
p2893
sbag5
(g6
g7
(lp2894
g5
(g6
g7
(lp2895
Vquotations
p2896
atp2897
Rp2898
(dp2899
g17
VNNS
p2900
sbatp2901
Rp2902
(dp2903
g17
VNP
p2904
sbatp2905
Rp2906
(dp2907
g17
VVP
p2908
sbatp2909
Rp2910
(dp2911
g17
VVP
p2912
sbatp2913
Rp2914
(dp2915
g17
g348
sbatp2916
Rp2917
(dp2918
g17
VVP
p2919
sbatp2920
Rp2921
(dp2922
g17
g348
sbatp2923
Rp2924
(dp2925
g17
VPP
p2926
sbag5
(g6
g7
(lp2927
g50
atp2928
Rp2929
(dp2930
g17
g50
sbag5
(g6
g7
(lp2931
g5
(g6
g7
(lp2932
Vwe
p2933
atp2934
Rp2935
(dp2936
g17
VPRP
p2937
sbatp2938
Rp2939
(dp2940
g17
VNP
p2941
sbag5
(g6
g7
(lp2942
g5
(g6
g7
(lp2943
Vapply
p2944
atp2945
Rp2946
(dp2947
g17
VVBP
p2948
sbag5
(g6
g7
(lp2949
g5
(g6
g7
(lp2950
g104
atp2951
Rp2952
(dp2953
g17
VDT
p2954
sbag5
(g6
g7
(lp2955
Vsimple
p2956
atp2957
Rp2958
(dp2959
g17
VJJ
p2960
sbag5
(g6
g7
(lp2961
Vdependency-based
p2962
atp2963
Rp2964
(dp2965
g17
VJJ
p2966
sbag5
(g6
g7
(lp2967
Vheuristic
p2968
atp2969
Rp2970
(dp2971
g17
VNN
p2972
sbatp2973
Rp2974
(dp2975
g17
VNP
p2976
sbatp2977
Rp2978
(dp2979
g17
VVP
p2980
sbatp2981
Rp2982
(dp2983
g17
g348
sbatp2984
Rp2985
(dp2986
g17
VROOT
p2987
sbasg353
(icmyPackage
CorE
p2988
(dp2989
g356
(lp2990
(I0
I0
tp2991
a(I0
I14
tp2992
asg360
g2816
sbsg361
(icmyPackage
CorE
p2993
(dp2994
g356
(lp2995
(I1
I2
tp2996
a(I1
I17
tp2997
asg360
g5
(g6
g7
(lp2998
g2924
ag2929
ag2939
ag2978
atp2999
Rp3000
(dp3001
g17
g371
sbsbsg372
(icmyPackage
pattern
p3002
(dp3003
g375
I62
sg376
I1
sg377
(lp3004
(lp3005
S'therefore'
p3006
aasg382
(lp3007
I1
aI1
aI1
asg384
(lp3008
S'He never lies; therefore, everyone likes to make friends with him.'
p3009
asg387
I1
sg388
(lp3010
(lp3011
S'&C'
p3012
aS'(,/;/./--)'
p3013
aS'(&AND)'
p3014
aa(lp3015
S'(,)'
p3016
aS'&R'
p3017
aasbsg395
(lp3018
(isxpPackage
sxpSent
p3019
(dp3020
g399
(lp3021
I5
asg401
VIn any case, the relevance of these datasets to Twitter text is currently unproven
p3022
sg403
I3
sg387
I26
sg404
I6
sba(isxpPackage
sxpSent
p3023
(dp3024
g399
(lp3025
I5
asg401
VTherefore, rather than train a supervised model to detect quotations, we apply a simple dependency-based heuristic
p3026
sg403
I3
sg387
I27
sg404
I6
sbasba(icmyPackage
CELink
p3027
(dp3028
g3
(lp3029
g5
(g6
g7
(lp3030
g5
(g6
g7
(lp3031
g5
(g6
g7
(lp3032
g5
(g6
g7
(lp3033
VWe
p3034
atp3035
Rp3036
(dp3037
g17
VPRP
p3038
sbatp3039
Rp3040
(dp3041
g17
VNP
p3042
sbag5
(g6
g7
(lp3043
g5
(g6
g7
(lp3044
Vuse
p3045
atp3046
Rp3047
(dp3048
g17
VVBP
p3049
sbag5
(g6
g7
(lp3050
g5
(g6
g7
(lp3051
g5
(g6
g7
(lp3052
g5
(g6
g7
(lp3053
g5
(g6
g7
(lp3054
g104
atp3055
Rp3056
(dp3057
g17
VDT
p3058
sbag5
(g6
g7
(lp3059
Vcombination
p3060
atp3061
Rp3062
(dp3063
g17
VNN
p3064
sbatp3065
Rp3066
(dp3067
g17
VNP
p3068
sbag5
(g6
g7
(lp3069
g5
(g6
g7
(lp3070
Vof
p3071
atp3072
Rp3073
(dp3074
g17
VIN
p3075
sbag5
(g6
g7
(lp3076
g5
(g6
g7
(lp3077
Vregular
p3078
atp3079
Rp3080
(dp3081
g17
VJJ
p3082
sbag5
(g6
g7
(lp3083
g5
(g6
g7
(lp3084
Vexpressions
p3085
atp3086
Rp3087
(dp3088
g17
VJJ
p3089
sbag5
(g6
g7
(lp3090
Vand
p3091
atp3092
Rp3093
(dp3094
g17
VCC
p3095
sbag5
(g6
g7
(lp3096
Vdependency
p3097
atp3098
Rp3099
(dp3100
g17
VNN
p3101
sbatp3102
Rp3103
(dp3104
g17
VUCP
p3105
sbag5
(g6
g7
(lp3106
Vrules
p3107
atp3108
Rp3109
(dp3110
g17
VNNS
p3111
sbag5
(g6
g7
(lp3112
g5
(g6
g7
(lp3113
g5
(g6
g7
(lp3114
Vto
p3115
atp3116
Rp3117
(dp3118
g17
VTO
p3119
sbag5
(g6
g7
(lp3120
g5
(g6
g7
(lp3121
Vcapture
p3122
atp3123
Rp3124
(dp3125
g17
VVB
p3126
sbag5
(g6
g7
(lp3127
g5
(g6
g7
(lp3128
g5
(g6
g7
(lp3129
Vexpressions
p3130
atp3131
Rp3132
(dp3133
g17
VNNS
p3134
sbatp3135
Rp3136
(dp3137
g17
VNP
p3138
sbag5
(g6
g7
(lp3139
g5
(g6
g7
(lp3140
Vof
p3141
atp3142
Rp3143
(dp3144
g17
VIN
p3145
sbag5
(g6
g7
(lp3146
g5
(g6
g7
(lp3147
g5
(g6
g7
(lp3148
Vthe
p3149
atp3150
Rp3151
(dp3152
g17
VDT
p3153
sbag5
(g6
g7
(lp3154
Vtype
p3155
atp3156
Rp3157
(dp3158
g17
VNN
p3159
sbag5
(g6
g7
(lp3160
g204
atp3161
Rp3162
(dp3163
g17
VNN
p3164
sbag5
(g6
g7
(lp3165
g210
atp3166
Rp3167
(dp3168
g17
VPOS
p3169
sbatp3170
Rp3171
(dp3172
g17
VNP
p3173
sbag5
(g6
g7
(lp3174
V\u005c
p3175
atp3176
Rp3177
(dp3178
g17
VJJ
p3179
sbag5
(g6
g7
(lp3180
Vu201c
p3181
atp3182
Rp3183
(dp3184
g17
VNNS
p3185
sbag5
(g6
g7
(lp3186
g210
atp3187
Rp3188
(dp3189
g17
V''
p3190
sbag5
(g6
g7
(lp3191
Vclaim
p3192
atp3193
Rp3194
(dp3195
g17
VNN
p3196
sbatp3197
Rp3198
(dp3199
g17
VNP
p3200
sbatp3201
Rp3202
(dp3203
g17
VPP
p3204
sbatp3205
Rp3206
(dp3207
g17
VNP
p3208
sbag5
(g6
g7
(lp3209
g50
atp3210
Rp3211
(dp3212
g17
g50
sbag5
(g6
g7
(lp3213
g5
(g6
g7
(lp3214
Vaccording
p3215
atp3216
Rp3217
(dp3218
g17
VVBG
p3219
sbag5
(g6
g7
(lp3220
g5
(g6
g7
(lp3221
Vto
p3222
atp3223
Rp3224
(dp3225
g17
VTO
p3226
sbag5
(g6
g7
(lp3227
g5
(g6
g7
(lp3228
g5
(g6
g7
(lp3229
g5
(g6
g7
(lp3230
Vsource
p3231
atp3232
Rp3233
(dp3234
g17
VNN
p3235
sbag5
(g6
g7
(lp3236
g204
atp3237
Rp3238
(dp3239
g17
VNN
p3240
sbag5
(g6
g7
(lp3241
g210
atp3242
Rp3243
(dp3244
g17
VPOS
p3245
sbatp3246
Rp3247
(dp3248
g17
VNP
p3249
sbag5
(g6
g7
(lp3250
V\u005c
p3251
atp3252
Rp3253
(dp3254
g17
VNN
p3255
sbag5
(g6
g7
(lp3256
Vu201d
p3257
atp3258
Rp3259
(dp3260
g17
VNN
p3261
sbag5
(g6
g7
(lp3262
g210
atp3263
Rp3264
(dp3265
g17
V''
p3266
sbatp3267
Rp3268
(dp3269
g17
VNP
p3270
sbag5
(g6
g7
(lp3271
g5
(g6
g7
(lp3272
VSpecifically
p3273
atp3274
Rp3275
(dp3276
g17
VRB
p3277
sbatp3278
Rp3279
(dp3280
g17
VADVP
p3281
sbatp3282
Rp3283
(dp3284
g17
VNP
p3285
sbatp3286
Rp3287
(dp3288
g17
VPP
p3289
sbatp3290
Rp3291
(dp3292
g17
VPP
p3293
sbag5
(g6
g7
(lp3294
g50
atp3295
Rp3296
(dp3297
g17
g50
sbag5
(g6
g7
(lp3298
g5
(g6
g7
(lp3299
g5
(g6
g7
(lp3300
Vthe
p3301
atp3302
Rp3303
(dp3304
g17
VDT
p3305
sbag5
(g6
g7
(lp3306
VPCOMP
p3307
atp3308
Rp3309
(dp3310
g17
VNNP
p3311
sbag5
(g6
g7
(lp3312
Vpath
p3313
atp3314
Rp3315
(dp3316
g17
VNN
p3317
sbatp3318
Rp3319
(dp3320
g17
VNP
p3321
sbag5
(g6
g7
(lp3322
Vfrom
p3323
atp3324
Rp3325
(dp3326
g17
VIN
p3327
sbag5
(g6
g7
(lp3328
g5
(g6
g7
(lp3329
Vaccording
p3330
atp3331
Rp3332
(dp3333
g17
VVBG
p3334
sbatp3335
Rp3336
(dp3337
g17
VPP
p3338
sbatp3339
Rp3340
(dp3341
g17
VPP
p3342
sbatp3343
Rp3344
(dp3345
g17
VVP
p3346
sbatp3347
Rp3348
(dp3349
g17
VVP
p3350
sbatp3351
Rp3352
(dp3353
g17
g348
sbatp3354
Rp3355
(dp3356
g17
VNP
p3357
sbatp3358
Rp3359
(dp3360
g17
VPP
p3361
sbatp3362
Rp3363
(dp3364
g17
VNP
p3365
sbag5
(g6
g7
(lp3366
g5
(g6
g7
(lp3367
Vis
p3368
atp3369
Rp3370
(dp3371
g17
VVBZ
p3372
sbag5
(g6
g7
(lp3373
g5
(g6
g7
(lp3374
Vsearched
p3375
atp3376
Rp3377
(dp3378
g17
VVBN
p3379
sbag5
(g6
g7
(lp3380
g5
(g6
g7
(lp3381
Vfor
p3382
atp3383
Rp3384
(dp3385
g17
VIN
p3386
sbag5
(g6
g7
(lp3387
g5
(g6
g7
(lp3388
Vthe
p3389
atp3390
Rp3391
(dp3392
g17
VDT
p3393
sbag5
(g6
g7
(lp3394
Vpattern
p3395
atp3396
Rp3397
(dp3398
g17
VNN
p3399
sbatp3400
Rp3401
(dp3402
g17
VNP
p3403
sbatp3404
Rp3405
(dp3406
g17
VPP
p3407
sbag5
(g6
g7
(lp3408
g5
(g6
g7
(lp3409
Vaccording
p3410
atp3411
Rp3412
(dp3413
g17
VVBG
p3414
sbag5
(g6
g7
(lp3415
g5
(g6
g7
(lp3416
Vto
p3417
atp3418
Rp3419
(dp3420
g17
VTO
p3421
sbag5
(g6
g7
(lp3422
g5
(g6
g7
(lp3423
V*
p3424
atp3425
Rp3426
(dp3427
g17
VNNP
p3428
sbatp3429
Rp3430
(dp3431
g17
VNP
p3432
sbatp3433
Rp3434
(dp3435
g17
VPP
p3436
sbatp3437
Rp3438
(dp3439
g17
VPP
p3440
sbatp3441
Rp3442
(dp3443
g17
VVP
p3444
sbatp3445
Rp3446
(dp3447
g17
VVP
p3448
sbatp3449
Rp3450
(dp3451
g17
g348
sbatp3452
Rp3453
(dp3454
g17
VSBAR
p3455
sbatp3456
Rp3457
(dp3458
g17
VVP
p3459
sbatp3460
Rp3461
(dp3462
g17
g348
sbatp3463
Rp3464
(dp3465
g17
VROOT
p3466
sbasg353
(icmyPackage
CorE
p3467
(dp3468
g356
(lp3469
(I0
I25
tp3470
a(I0
I31
tp3471
asg360
g3283
sbsg361
(icmyPackage
CorE
p3472
(dp3473
g356
(lp3474
(I0
I33
tp3475
a(I0
I45
tp3476
asg360
g5
(g6
g7
(lp3477
g3340
ag3446
atp3478
Rp3479
(dp3480
g17
g371
sbsbsg372
(icmyPackage
pattern
p3481
(dp3482
g375
I0
sg376
I0
sg377
(lp3483
(lp3484
S'according'
p3485
aS'to'
p3486
aa(lp3487
S','
p3488
aasg382
(lp3489
I2
aI1
aI1
asg384
(lp3490
S'According to the efficiency principle and regional principle, the radius of the network should be small.'
p3491
asg387
I56
sg388
(lp3492
(lp3493
a(lp3494
S'&NP@C@'
p3495
aa(lp3496
S'&R'
p3497
aasbsg395
(lp3498
(isxpPackage
sxpSent
p3499
(dp3500
g399
(lp3501
I6
aI7
asg401
VWe use a combination of regular expressions and dependency rules to capture expressions of the type u'\u005cu201c' claim , according to source u'\u005cu201d' Specifically, the PCOMP path from according is searched for the pattern according to *
p3502
sg403
I3
sg387
I37
sg404
I9
sbasba(icmyPackage
CELink
p3503
(dp3504
g3
(lp3505
g3479
asg353
(icmyPackage
CorE
p3506
(dp3507
g356
(lp3508
(I0
I12
tp3509
ag3509
asg360
g3430
sbsg361
(icmyPackage
CorE
p3510
(dp3511
g356
(lp3512
(I0
I0
tp3513
a(I0
I9
tp3514
asg360
g5
(g6
g7
(lp3515
g3340
ag3370
ag3377
ag3405
atp3516
Rp3517
(dp3518
g17
g371
sbsbsg372
g373
sg395
(lp3519
g3499
asba(icmyPackage
CELink
p3520
(dp3521
g3
(lp3522
g5
(g6
g7
(lp3523
g5
(g6
g7
(lp3524
g5
(g6
g7
(lp3525
g5
(g6
g7
(lp3526
g5
(g6
g7
(lp3527
g5
(g6
g7
(lp3528
VThis
p3529
atp3530
Rp3531
(dp3532
g17
VDT
p3533
sbag5
(g6
g7
(lp3534
Vheuristic
p3535
atp3536
Rp3537
(dp3538
g17
VNN
p3539
sbag5
(g6
g7
(lp3540
Vpipeline
p3541
atp3542
Rp3543
(dp3544
g17
VNN
p3545
sbatp3546
Rp3547
(dp3548
g17
VNP
p3549
sbag5
(g6
g7
(lp3550
g5
(g6
g7
(lp3551
Vmay
p3552
atp3553
Rp3554
(dp3555
g17
VMD
p3556
sbag5
(g6
g7
(lp3557
g5
(g6
g7
(lp3558
Vmiss
p3559
atp3560
Rp3561
(dp3562
g17
VVB
p3563
sbag5
(g6
g7
(lp3564
g5
(g6
g7
(lp3565
Vmany
p3566
atp3567
Rp3568
(dp3569
g17
VJJ
p3570
sbag5
(g6
g7
(lp3571
Vrelevant
p3572
atp3573
Rp3574
(dp3575
g17
VJJ
p3576
sbag5
(g6
g7
(lp3577
Vtweets
p3578
atp3579
Rp3580
(dp3581
g17
VNNS
p3582
sbatp3583
Rp3584
(dp3585
g17
VNP
p3586
sbatp3587
Rp3588
(dp3589
g17
VVP
p3590
sbatp3591
Rp3592
(dp3593
g17
VVP
p3594
sbatp3595
Rp3596
(dp3597
g17
g348
sbag5
(g6
g7
(lp3598
g50
atp3599
Rp3600
(dp3601
g17
g50
sbag5
(g6
g7
(lp3602
Vbut
p3603
atp3604
Rp3605
(dp3606
g17
VCC
p3607
sbag5
(g6
g7
(lp3608
g5
(g6
g7
(lp3609
g5
(g6
g7
(lp3610
Vsince
p3611
atp3612
Rp3613
(dp3614
g17
VIN
p3615
sbag5
(g6
g7
(lp3616
g5
(g6
g7
(lp3617
g5
(g6
g7
(lp3618
Vthe
p3619
atp3620
Rp3621
(dp3622
g17
VDT
p3623
sbag5
(g6
g7
(lp3624
Voverall
p3625
atp3626
Rp3627
(dp3628
g17
VJJ
p3629
sbag5
(g6
g7
(lp3630
Vvolume
p3631
atp3632
Rp3633
(dp3634
g17
VNN
p3635
sbatp3636
Rp3637
(dp3638
g17
VNP
p3639
sbag5
(g6
g7
(lp3640
g5
(g6
g7
(lp3641
Vis
p3642
atp3643
Rp3644
(dp3645
g17
VVBZ
p3646
sbag5
(g6
g7
(lp3647
g5
(g6
g7
(lp3648
Vhigh
p3649
atp3650
Rp3651
(dp3652
g17
VJJ
p3653
sbatp3654
Rp3655
(dp3656
g17
VADJP
p3657
sbatp3658
Rp3659
(dp3660
g17
VVP
p3661
sbatp3662
Rp3663
(dp3664
g17
g348
sbatp3665
Rp3666
(dp3667
g17
VSBAR
p3668
sbag5
(g6
g7
(lp3669
g50
atp3670
Rp3671
(dp3672
g17
g50
sbag5
(g6
g7
(lp3673
g5
(g6
g7
(lp3674
Vwe
p3675
atp3676
Rp3677
(dp3678
g17
VPRP
p3679
sbatp3680
Rp3681
(dp3682
g17
VNP
p3683
sbag5
(g6
g7
(lp3684
g5
(g6
g7
(lp3685
Vprioritize
p3686
atp3687
Rp3688
(dp3689
g17
VVBP
p3690
sbag5
(g6
g7
(lp3691
g5
(g6
g7
(lp3692
Vprecision
p3693
atp3694
Rp3695
(dp3696
g17
VNN
p3697
sbatp3698
Rp3699
(dp3700
g17
VNP
p3701
sbatp3702
Rp3703
(dp3704
g17
VVP
p3705
sbatp3706
Rp3707
(dp3708
g17
g348
sbatp3709
Rp3710
(dp3711
g17
g348
sbatp3712
Rp3713
(dp3714
g17
VFRAG
p3715
sbatp3716
Rp3717
(dp3718
g17
VROOT
p3719
sbasg353
(icmyPackage
CorE
p3720
(dp3721
g356
(lp3722
(I0
I11
tp3723
a(I0
I15
tp3724
asg360
g3663
sbsg361
(icmyPackage
CorE
p3725
(dp3726
g356
(lp3727
(I0
I17
tp3728
a(I0
I19
tp3729
asg360
g5
(g6
g7
(lp3730
g3681
ag3703
atp3731
Rp3732
(dp3733
g17
g371
sbsbsg372
(icmyPackage
pattern
p3734
(dp3735
g375
I15
sg376
I0
sg377
(lp3736
(lp3737
S'since'
p3738
aa(lp3739
g3488
aasg382
(lp3740
I3
aI1
aI1
asg384
(lp3741
S'But, since the herpes virus does not always show its symptoms, prevention is not fool proof.'
p3742
asg387
I78
sg388
(lp3743
(lp3744
a(lp3745
S'&C@NCTime@'
p3746
aa(lp3747
S'&R@NCTime@'
p3748
aasbsg395
(lp3749
(isxpPackage
sxpSent
p3750
(dp3751
g399
(lp3752
I8
asg401
VThis heuristic pipeline may miss many relevant tweets, but since the overall volume is high, we prioritize precision
p3753
sg403
I3
sg387
I42
sg404
I11
sbasba(icmyPackage
CELink
p3754
(dp3755
g3
(lp3756
g5
(g6
g7
(lp3757
g5
(g6
g7
(lp3758
g5
(g6
g7
(lp3759
g5
(g6
g7
(lp3760
g5
(g6
g7
(lp3761
VTo
p3762
atp3763
Rp3764
(dp3765
g17
VTO
p3766
sbag5
(g6
g7
(lp3767
g5
(g6
g7
(lp3768
Vensure
p3769
atp3770
Rp3771
(dp3772
g17
VVB
p3773
sbag5
(g6
g7
(lp3774
g5
(g6
g7
(lp3775
g5
(g6
g7
(lp3776
Vquality
p3777
atp3778
Rp3779
(dp3780
g17
VNN
p3781
sbag5
(g6
g7
(lp3782
Vcontrol
p3783
atp3784
Rp3785
(dp3786
g17
VNN
p3787
sbatp3788
Rp3789
(dp3790
g17
VNP
p3791
sbag5
(g6
g7
(lp3792
g5
(g6
g7
(lp3793
g5
(g6
g7
(lp3794
g5
(g6
g7
(lp3795
Vwe
p3796
atp3797
Rp3798
(dp3799
g17
VPRP
p3800
sbatp3801
Rp3802
(dp3803
g17
VNP
p3804
sbag5
(g6
g7
(lp3805
g5
(g6
g7
(lp3806
Vrequired
p3807
atp3808
Rp3809
(dp3810
g17
VVBD
p3811
sbag5
(g6
g7
(lp3812
g5
(g6
g7
(lp3813
g5
(g6
g7
(lp3814
Vthe
p3815
atp3816
Rp3817
(dp3818
g17
VDT
p3819
sbag5
(g6
g7
(lp3820
VTurkers
p3821
atp3822
Rp3823
(dp3824
g17
VNNPS
p3825
sbatp3826
Rp3827
(dp3828
g17
VNP
p3829
sbag5
(g6
g7
(lp3830
g5
(g6
g7
(lp3831
Vto
p3832
atp3833
Rp3834
(dp3835
g17
VTO
p3836
sbag5
(g6
g7
(lp3837
g5
(g6
g7
(lp3838
Vhave
p3839
atp3840
Rp3841
(dp3842
g17
VVB
p3843
sbag5
(g6
g7
(lp3844
g5
(g6
g7
(lp3845
g5
(g6
g7
(lp3846
Vat
p3847
atp3848
Rp3849
(dp3850
g17
VIN
p3851
sbag5
(g6
g7
(lp3852
Vleast
p3853
atp3854
Rp3855
(dp3856
g17
VJJS
p3857
sbag5
(g6
g7
(lp3858
V85
p3859
atp3860
Rp3861
(dp3862
g17
VCD
p3863
sbatp3864
Rp3865
(dp3866
g17
VQP
p3867
sbag5
(g6
g7
(lp3868
V%
p3869
atp3870
Rp3871
(dp3872
g17
VNN
p3873
sbatp3874
Rp3875
(dp3876
g17
VNP
p3877
sbag5
(g6
g7
(lp3878
g5
(g6
g7
(lp3879
Vhit
p3880
atp3881
Rp3882
(dp3883
g17
VVBN
p3884
sbag5
(g6
g7
(lp3885
g5
(g6
g7
(lp3886
Vapproval
p3887
atp3888
Rp3889
(dp3890
g17
VNN
p3891
sbag5
(g6
g7
(lp3892
Vrating
p3893
atp3894
Rp3895
(dp3896
g17
VNN
p3897
sbatp3898
Rp3899
(dp3900
g17
VNP
p3901
sbatp3902
Rp3903
(dp3904
g17
VVP
p3905
sbatp3906
Rp3907
(dp3908
g17
VVP
p3909
sbatp3910
Rp3911
(dp3912
g17
VVP
p3913
sbatp3914
Rp3915
(dp3916
g17
g348
sbatp3917
Rp3918
(dp3919
g17
VVP
p3920
sbatp3921
Rp3922
(dp3923
g17
g348
sbatp3924
Rp3925
(dp3926
g17
VSBAR
p3927
sbatp3928
Rp3929
(dp3930
g17
VNP
p3931
sbatp3932
Rp3933
(dp3934
g17
VVP
p3935
sbatp3936
Rp3937
(dp3938
g17
VVP
p3939
sbatp3940
Rp3941
(dp3942
g17
g348
sbag5
(g6
g7
(lp3943
Vand
p3944
atp3945
Rp3946
(dp3947
g17
VCC
p3948
sbag5
(g6
g7
(lp3949
g5
(g6
g7
(lp3950
Vto
p3951
atp3952
Rp3953
(dp3954
g17
VTO
p3955
sbag5
(g6
g7
(lp3956
g5
(g6
g7
(lp3957
Vreside
p3958
atp3959
Rp3960
(dp3961
g17
VVB
p3962
sbag5
(g6
g7
(lp3963
g5
(g6
g7
(lp3964
Vin
p3965
atp3966
Rp3967
(dp3968
g17
VIN
p3969
sbag5
(g6
g7
(lp3970
g5
(g6
g7
(lp3971
Vthe
p3972
atp3973
Rp3974
(dp3975
g17
VDT
p3976
sbag5
(g6
g7
(lp3977
VUnited
p3978
atp3979
Rp3980
(dp3981
g17
VNNP
p3982
sbag5
(g6
g7
(lp3983
VStates
p3984
atp3985
Rp3986
(dp3987
g17
VNNPS
p3988
sbatp3989
Rp3990
(dp3991
g17
VNP
p3992
sbatp3993
Rp3994
(dp3995
g17
VPP
p3996
sbag5
(g6
g7
(lp3997
g50
atp3998
Rp3999
(dp4000
g17
g50
sbag5
(g6
g7
(lp4001
g5
(g6
g7
(lp4002
Vbecause
p4003
atp4004
Rp4005
(dp4006
g17
VIN
p4007
sbag5
(g6
g7
(lp4008
g5
(g6
g7
(lp4009
g5
(g6
g7
(lp4010
g5
(g6
g7
(lp4011
Vthe
p4012
atp4013
Rp4014
(dp4015
g17
VDT
p4016
sbag5
(g6
g7
(lp4017
VTwitter
p4018
atp4019
Rp4020
(dp4021
g17
VNNP
p4022
sbag5
(g6
g7
(lp4023
Vmessages
p4024
atp4025
Rp4026
(dp4027
g17
VNNS
p4028
sbatp4029
Rp4030
(dp4031
g17
VNP
p4032
sbag5
(g6
g7
(lp4033
g5
(g6
g7
(lp4034
Vin
p4035
atp4036
Rp4037
(dp4038
g17
VIN
p4039
sbag5
(g6
g7
(lp4040
g5
(g6
g7
(lp4041
Vour
p4042
atp4043
Rp4044
(dp4045
g17
VPRP$
p4046
sbag5
(g6
g7
(lp4047
Vdataset
p4048
atp4049
Rp4050
(dp4051
g17
VNN
p4052
sbatp4053
Rp4054
(dp4055
g17
VNP
p4056
sbatp4057
Rp4058
(dp4059
g17
VPP
p4060
sbatp4061
Rp4062
(dp4063
g17
VNP
p4064
sbag5
(g6
g7
(lp4065
g5
(g6
g7
(lp4066
Vwere
p4067
atp4068
Rp4069
(dp4070
g17
VVBD
p4071
sbag5
(g6
g7
(lp4072
g5
(g6
g7
(lp4073
Vrelated
p4074
atp4075
Rp4076
(dp4077
g17
VVBN
p4078
sbag5
(g6
g7
(lp4079
g5
(g6
g7
(lp4080
Vto
p4081
atp4082
Rp4083
(dp4084
g17
VTO
p4085
sbag5
(g6
g7
(lp4086
g5
(g6
g7
(lp4087
VAmerican
p4088
atp4089
Rp4090
(dp4091
g17
VJJ
p4092
sbag5
(g6
g7
(lp4093
Vpolitics
p4094
atp4095
Rp4096
(dp4097
g17
VNNS
p4098
sbatp4099
Rp4100
(dp4101
g17
VNP
p4102
sbatp4103
Rp4104
(dp4105
g17
VPP
p4106
sbatp4107
Rp4108
(dp4109
g17
VVP
p4110
sbatp4111
Rp4112
(dp4113
g17
VVP
p4114
sbatp4115
Rp4116
(dp4117
g17
g348
sbatp4118
Rp4119
(dp4120
g17
VSBAR
p4121
sbatp4122
Rp4123
(dp4124
g17
VVP
p4125
sbatp4126
Rp4127
(dp4128
g17
VPP
p4129
sbatp4130
Rp4131
(dp4132
g17
VX
p4133
sbatp4134
Rp4135
(dp4136
g17
VROOT
p4137
sbasg353
(icmyPackage
CorE
p4138
(dp4139
g356
(lp4140
(I0
I26
tp4141
a(I0
I36
tp4142
asg360
g4116
sbsg361
(icmyPackage
CorE
p4143
(dp4144
g356
(lp4145
(I0
I0
tp4146
a(I0
I23
tp4147
asg360
g5
(g6
g7
(lp4148
g3941
ag3946
ag3953
ag3960
ag3994
atp4149
Rp4150
(dp4151
g17
g371
sbsbsg372
(icmyPackage
pattern
p4152
(dp4153
g375
I407
sg376
I1
sg377
(lp4154
(lp4155
S'because'
p4156
aasg382
(lp4157
I3
aI1
aI1
asg384
(lp4158
S'It ends up in burnout and less production, because we inevitably run out of energy.'
p4159
asg387
I76
sg388
(lp4160
(lp4161
S'&R'
p4162
aS'(,)'
p4163
aS'(&ADV)'
p4164
aa(lp4165
S'&C'
p4166
aasbsg395
(lp4167
(isxpPackage
sxpSent
p4168
(dp4169
g399
(lp4170
I9
asg401
VTo ensure quality control we required the Turkers to have at least 85% hit approval rating and to reside in the United States, because the Twitter messages in our dataset were related to American politics
p4171
sg403
I4
sg387
I49
sg404
I13
sbasba(icmyPackage
CELink
p4172
(dp4173
g3
(lp4174
g5
(g6
g7
(lp4175
g5
(g6
g7
(lp4176
g5
(g6
g7
(lp4177
g5
(g6
g7
(lp4178
VThe
p4179
atp4180
Rp4181
(dp4182
g17
VDT
p4183
sbag5
(g6
g7
(lp4184
Vratings
p4185
atp4186
Rp4187
(dp4188
g17
VNNS
p4189
sbatp4190
Rp4191
(dp4192
g17
VNP
p4193
sbag5
(g6
g7
(lp4194
g5
(g6
g7
(lp4195
Vwere
p4196
atp4197
Rp4198
(dp4199
g17
VVBD
p4200
sbag5
(g6
g7
(lp4201
g5
(g6
g7
(lp4202
Vbased
p4203
atp4204
Rp4205
(dp4206
g17
VVBN
p4207
sbag5
(g6
g7
(lp4208
g5
(g6
g7
(lp4209
Von
p4210
atp4211
Rp4212
(dp4213
g17
VIN
p4214
sbag5
(g6
g7
(lp4215
g5
(g6
g7
(lp4216
g5
(g6
g7
(lp4217
g104
atp4218
Rp4219
(dp4220
g17
VDT
p4221
sbag5
(g6
g7
(lp4222
V5-point
p4223
atp4224
Rp4225
(dp4226
g17
VJJ
p4227
sbag5
(g6
g7
(lp4228
VLikert
p4229
atp4230
Rp4231
(dp4232
g17
VNNP
p4233
sbag5
(g6
g7
(lp4234
Vscale
p4235
atp4236
Rp4237
(dp4238
g17
VNN
p4239
sbatp4240
Rp4241
(dp4242
g17
VNP
p4243
sbag5
(g6
g7
(lp4244
g5
(g6
g7
(lp4245
Vranging
p4246
atp4247
Rp4248
(dp4249
g17
VVBG
p4250
sbag5
(g6
g7
(lp4251
g5
(g6
g7
(lp4252
Vfrom
p4253
atp4254
Rp4255
(dp4256
g17
VIN
p4257
sbag5
(g6
g7
(lp4258
g5
(g6
g7
(lp4259
g5
(g6
g7
(lp4260
g204
atp4261
Rp4262
(dp4263
g17
VNNP
p4264
sbag5
(g6
g7
(lp4265
g210
atp4266
Rp4267
(dp4268
g17
VPOS
p4269
sbatp4270
Rp4271
(dp4272
g17
VNP
p4273
sbag5
(g6
g7
(lp4274
g5
(g6
g7
(lp4275
V\u005c
p4276
atp4277
Rp4278
(dp4279
g17
VNNP
p4280
sbag5
(g6
g7
(lp4281
Vu201c
p4282
atp4283
Rp4284
(dp4285
g17
VNNP
p4286
sbag5
(g6
g7
(lp4287
g210
atp4288
Rp4289
(dp4290
g17
VPOS
p4291
sbatp4292
Rp4293
(dp4294
g17
VNP
p4295
sbag5
(g6
g7
(lp4296
V-LSB-
p4297
atp4298
Rp4299
(dp4300
g17
VNNP
p4301
sbag5
(g6
g7
(lp4302
V-2
p4303
atp4304
Rp4305
(dp4306
g17
VNNP
p4307
sbatp4308
Rp4309
(dp4310
g17
VNP
p4311
sbatp4312
Rp4313
(dp4314
g17
VPP
p4315
sbag5
(g6
g7
(lp4316
g5
(g6
g7
(lp4317
g5
(g6
g7
(lp4318
g5
(g6
g7
(lp4319
V-RSB-
p4320
atp4321
Rp4322
(dp4323
g17
VVBG
p4324
sbag5
(g6
g7
(lp4325
g5
(g6
g7
(lp4326
VCertainly
p4327
atp4328
Rp4329
(dp4330
g17
VRB
p4331
sbatp4332
Rp4333
(dp4334
g17
VADVP
p4335
sbag5
(g6
g7
(lp4336
g5
(g6
g7
(lp4337
g5
(g6
g7
(lp4338
g5
(g6
g7
(lp4339
VFalse
p4340
atp4341
Rp4342
(dp4343
g17
VNNP
p4344
sbag5
(g6
g7
(lp4345
g204
atp4346
Rp4347
(dp4348
g17
VNNP
p4349
sbag5
(g6
g7
(lp4350
g210
atp4351
Rp4352
(dp4353
g17
VPOS
p4354
sbatp4355
Rp4356
(dp4357
g17
VNP
p4358
sbag5
(g6
g7
(lp4359
V\u005c
p4360
atp4361
Rp4362
(dp4363
g17
VNN
p4364
sbag5
(g6
g7
(lp4365
Vu201d
p4366
atp4367
Rp4368
(dp4369
g17
VNN
p4370
sbag5
(g6
g7
(lp4371
g210
atp4372
Rp4373
(dp4374
g17
V''
p4375
sbatp4376
Rp4377
(dp4378
g17
VNP
p4379
sbag5
(g6
g7
(lp4380
g5
(g6
g7
(lp4381
Vto
p4382
atp4383
Rp4384
(dp4385
g17
VTO
p4386
sbag5
(g6
g7
(lp4387
g5
(g6
g7
(lp4388
g5
(g6
g7
(lp4389
g5
(g6
g7
(lp4390
g5
(g6
g7
(lp4391
g204
atp4392
Rp4393
(dp4394
g17
VNNP
p4395
sbag5
(g6
g7
(lp4396
g210
atp4397
Rp4398
(dp4399
g17
VPOS
p4400
sbatp4401
Rp4402
(dp4403
g17
VNP
p4404
sbag5
(g6
g7
(lp4405
V\u005c
p4406
atp4407
Rp4408
(dp4409
g17
VJJ
p4410
sbag5
(g6
g7
(lp4411
Vu201c
p4412
atp4413
Rp4414
(dp4415
g17
VNNS
p4416
sbag5
(g6
g7
(lp4417
g210
atp4418
Rp4419
(dp4420
g17
VPOS
p4421
sbatp4422
Rp4423
(dp4424
g17
VNP
p4425
sbag5
(g6
g7
(lp4426
g5
(g6
g7
(lp4427
V-LSB-
p4428
atp4429
Rp4430
(dp4431
g17
VCD
p4432
sbag5
(g6
g7
(lp4433
V2
p4434
atp4435
Rp4436
(dp4437
g17
VCD
p4438
sbatp4439
Rp4440
(dp4441
g17
VQP
p4442
sbag5
(g6
g7
(lp4443
V-RSB-
p4444
atp4445
Rp4446
(dp4447
g17
VNN
p4448
sbatp4449
Rp4450
(dp4451
g17
VNP
p4452
sbag5
(g6
g7
(lp4453
g5
(g6
g7
(lp4454
g5
(g6
g7
(lp4455
VCertainly
p4456
atp4457
Rp4458
(dp4459
g17
VRB
p4460
sbatp4461
Rp4462
(dp4463
g17
VADVP
p4464
sbag5
(g6
g7
(lp4465
g5
(g6
g7
(lp4466
g5
(g6
g7
(lp4467
VTrue
p4468
atp4469
Rp4470
(dp4471
g17
VNNP
p4472
sbag5
(g6
g7
(lp4473
g204
atp4474
Rp4475
(dp4476
g17
VNNP
p4477
sbag5
(g6
g7
(lp4478
g210
atp4479
Rp4480
(dp4481
g17
VPOS
p4482
sbatp4483
Rp4484
(dp4485
g17
VNP
p4486
sbag5
(g6
g7
(lp4487
V\u005c
p4488
atp4489
Rp4490
(dp4491
g17
VJJ
p4492
sbag5
(g6
g7
(lp4493
Vu201d
p4494
atp4495
Rp4496
(dp4497
g17
VNNS
p4498
sbatp4499
Rp4500
(dp4501
g17
VNP
p4502
sbatp4503
Rp4504
(dp4505
g17
VRRC
p4506
sbatp4507
Rp4508
(dp4509
g17
VNP
p4510
sbatp4511
Rp4512
(dp4513
g17
VPP
p4514
sbatp4515
Rp4516
(dp4517
g17
VNP
p4518
sbag5
(g6
g7
(lp4519
g210
atp4520
Rp4521
(dp4522
g17
V''
p4523
sbatp4524
Rp4525
(dp4526
g17
VVP
p4527
sbag5
(g6
g7
(lp4528
Vand
p4529
atp4530
Rp4531
(dp4532
g17
VCC
p4533
sbag5
(g6
g7
(lp4534
g5
(g6
g7
(lp4535
Vallowing
p4536
atp4537
Rp4538
(dp4539
g17
VVBG
p4540
sbag5
(g6
g7
(lp4541
g5
(g6
g7
(lp4542
Vfor
p4543
atp4544
Rp4545
(dp4546
g17
VIN
p4547
sbag5
(g6
g7
(lp4548
g5
(g6
g7
(lp4549
g5
(g6
g7
(lp4550
g5
(g6
g7
(lp4551
g204
atp4552
Rp4553
(dp4554
g17
VNNP
p4555
sbag5
(g6
g7
(lp4556
g210
atp4557
Rp4558
(dp4559
g17
VPOS
p4560
sbatp4561
Rp4562
(dp4563
g17
VNP
p4564
sbag5
(g6
g7
(lp4565
V\u005c
p4566
atp4567
Rp4568
(dp4569
g17
VJJ
p4570
sbag5
(g6
g7
(lp4571
Vu201c
p4572
atp4573
Rp4574
(dp4575
g17
VNNS
p4576
sbag5
(g6
g7
(lp4577
g210
atp4578
Rp4579
(dp4580
g17
VPOS
p4581
sbatp4582
Rp4583
(dp4584
g17
VNP
p4585
sbag5
(g6
g7
(lp4586
V-LSB-
p4587
atp4588
Rp4589
(dp4590
g17
VNNP
p4591
sbag5
(g6
g7
(lp4592
V0
p4593
atp4594
Rp4595
(dp4596
g17
VNNP
p4597
sbag5
(g6
g7
(lp4598
V-RSB-
p4599
atp4600
Rp4601
(dp4602
g17
VNNP
p4603
sbatp4604
Rp4605
(dp4606
g17
VNP
p4607
sbatp4608
Rp4609
(dp4610
g17
VPP
p4611
sbatp4612
Rp4613
(dp4614
g17
VVP
p4615
sbag5
(g6
g7
(lp4616
g5
(g6
g7
(lp4617
g5
(g6
g7
(lp4618
VUncertain
p4619
atp4620
Rp4621
(dp4622
g17
VNNP
p4623
sbag5
(g6
g7
(lp4624
g204
atp4625
Rp4626
(dp4627
g17
VNNP
p4628
sbag5
(g6
g7
(lp4629
g210
atp4630
Rp4631
(dp4632
g17
VPOS
p4633
sbatp4634
Rp4635
(dp4636
g17
VNP
p4637
sbag5
(g6
g7
(lp4638
V\u005c
p4639
atp4640
Rp4641
(dp4642
g17
VNNP
p4643
sbag5
(g6
g7
(lp4644
Vu201d
p4645
atp4646
Rp4647
(dp4648
g17
VNNP
p4649
sbag5
(g6
g7
(lp4650
g210
atp4651
Rp4652
(dp4653
g17
V''
p4654
sbatp4655
Rp4656
(dp4657
g17
VNP
p4658
sbatp4659
Rp4660
(dp4661
g17
VVP
p4662
sbatp4663
Rp4664
(dp4665
g17
g348
sbatp4666
Rp4667
(dp4668
g17
VVP
p4669
sbatp4670
Rp4671
(dp4672
g17
VNP
p4673
sbatp4674
Rp4675
(dp4676
g17
VPP
p4677
sbatp4678
Rp4679
(dp4680
g17
VVP
p4681
sbatp4682
Rp4683
(dp4684
g17
VVP
p4685
sbatp4686
Rp4687
(dp4688
g17
g348
sbatp4689
Rp4690
(dp4691
g17
VROOT
p4692
sbasg353
(icmyPackage
CorE
p4693
(dp4694
g356
(lp4695
(I0
I5
tp4696
a(I0
I58
tp4697
asg360
g4671
sbsg361
(icmyPackage
CorE
p4698
(dp4699
g356
(lp4700
(I0
I0
tp4701
a(I0
I1
tp4702
asg360
g4191
sbsg372
(icmyPackage
pattern
p4703
(dp4704
g375
I0
sg376
I0
sg377
(lp4705
(lp4706
S'based'
p4707
aS'on'
p4708
aasg382
(lp4709
I4
aI1
aI3
asg384
(lp4710
S'The time of the subsequent synchronization intervals is based on the time that this command is initiated.'
p4711
asg387
I115
sg388
(lp4712
(lp4713
S'&V-ing/&NP@R@'
p4714
aS'(&Clause@R@)'
p4715
aS'&BE'
p4716
aS'(&ADV)'
p4717
aa(lp4718
S'&NP@C@'
p4719
aS'(&Clause@C@)'
p4720
aasbsg395
(lp4721
(isxpPackage
sxpSent
p4722
(dp4723
g399
(lp4724
I10
asg401
VThe ratings were based on a 5-point Likert scale ranging from u'\u005cu201c' [-2] Certainly False u'\u005cu201d' to u'\u005cu201c' [2] Certainly True u'\u005cu201d' and allowing for u'\u005cu201c' [0] Uncertain u'\u005cu201d'
p4725
sg403
I4
sg387
I51
sg404
I13
sbasba(icmyPackage
CELink
p4726
(dp4727
g3
(lp4728
g5
(g6
g7
(lp4729
g5
(g6
g7
(lp4730
g5
(g6
g7
(lp4731
g5
(g6
g7
(lp4732
VWe
p4733
atp4734
Rp4735
(dp4736
g17
VPRP
p4737
sbatp4738
Rp4739
(dp4740
g17
VNP
p4741
sbag5
(g6
g7
(lp4742
g5
(g6
g7
(lp4743
g5
(g6
g7
(lp4744
Valso
p4745
atp4746
Rp4747
(dp4748
g17
VRB
p4749
sbatp4750
Rp4751
(dp4752
g17
VADVP
p4753
sbag5
(g6
g7
(lp4754
Vallowed
p4755
atp4756
Rp4757
(dp4758
g17
VVBD
p4759
sbag5
(g6
g7
(lp4760
g5
(g6
g7
(lp4761
Vfor
p4762
atp4763
Rp4764
(dp4765
g17
VIN
p4766
sbag5
(g6
g7
(lp4767
g5
(g6
g7
(lp4768
g5
(g6
g7
(lp4769
g204
atp4770
Rp4771
(dp4772
g17
VNNP
p4773
sbag5
(g6
g7
(lp4774
g210
atp4775
Rp4776
(dp4777
g17
VPOS
p4778
sbatp4779
Rp4780
(dp4781
g17
VNP
p4782
sbag5
(g6
g7
(lp4783
V\u005c
p4784
atp4785
Rp4786
(dp4787
g17
VJJ
p4788
sbag5
(g6
g7
(lp4789
Vu201c
p4790
atp4791
Rp4792
(dp4793
g17
VNNS
p4794
sbatp4795
Rp4796
(dp4797
g17
VNP
p4798
sbatp4799
Rp4800
(dp4801
g17
VPP
p4802
sbag5
(g6
g7
(lp4803
g210
atp4804
Rp4805
(dp4806
g17
V``
p4807
sbag5
(g6
g7
(lp4808
g5
(g6
g7
(lp4809
VNot
p4810
atp4811
Rp4812
(dp4813
g17
VRB
p4814
sbag5
(g6
g7
(lp4815
g5
(g6
g7
(lp4816
VApplicable
p4817
atp4818
Rp4819
(dp4820
g17
VNNP
p4821
sbag5
(g6
g7
(lp4822
g204
atp4823
Rp4824
(dp4825
g17
VNNP
p4826
sbatp4827
Rp4828
(dp4829
g17
VNP
p4830
sbatp4831
Rp4832
(dp4833
g17
VFRAG
p4834
sbag5
(g6
g7
(lp4835
g210
atp4836
Rp4837
(dp4838
g17
V''
p4839
sbag5
(g6
g7
(lp4840
g5
(g6
g7
(lp4841
g5
(g6
g7
(lp4842
V\u005c
p4843
atp4844
Rp4845
(dp4846
g17
VNNP
p4847
sbag5
(g6
g7
(lp4848
Vu201d
p4849
atp4850
Rp4851
(dp4852
g17
VNNP
p4853
sbag5
(g6
g7
(lp4854
g210
atp4855
Rp4856
(dp4857
g17
VPOS
p4858
sbatp4859
Rp4860
(dp4861
g17
VNP
p4862
sbag5
(g6
g7
(lp4863
Voption
p4864
atp4865
Rp4866
(dp4867
g17
VNN
p4868
sbag5
(g6
g7
(lp4869
g5
(g6
g7
(lp4870
g5
(g6
g7
(lp4871
Vto
p4872
atp4873
Rp4874
(dp4875
g17
VTO
p4876
sbag5
(g6
g7
(lp4877
g5
(g6
g7
(lp4878
Vcapture
p4879
atp4880
Rp4881
(dp4882
g17
VVB
p4883
sbag5
(g6
g7
(lp4884
g5
(g6
g7
(lp4885
Vratings
p4886
atp4887
Rp4888
(dp4889
g17
VNNS
p4890
sbatp4891
Rp4892
(dp4893
g17
VNP
p4894
sbag5
(g6
g7
(lp4895
g5
(g6
g7
(lp4896
g5
(g6
g7
(lp4897
g5
(g6
g7
(lp4898
Vwhere
p4899
atp4900
Rp4901
(dp4902
g17
VWRB
p4903
sbatp4904
Rp4905
(dp4906
g17
VWHADVP
p4907
sbag5
(g6
g7
(lp4908
g5
(g6
g7
(lp4909
g5
(g6
g7
(lp4910
Vthe
p4911
atp4912
Rp4913
(dp4914
g17
VDT
p4915
sbag5
(g6
g7
(lp4916
VTurkers
p4917
atp4918
Rp4919
(dp4920
g17
VNNPS
p4921
sbatp4922
Rp4923
(dp4924
g17
VNP
p4925
sbag5
(g6
g7
(lp4926
g5
(g6
g7
(lp4927
Vdid
p4928
atp4929
Rp4930
(dp4931
g17
VVBD
p4932
sbag5
(g6
g7
(lp4933
Vnot
p4934
atp4935
Rp4936
(dp4937
g17
VRB
p4938
sbag5
(g6
g7
(lp4939
g5
(g6
g7
(lp4940
Vhave
p4941
atp4942
Rp4943
(dp4944
g17
VVB
p4945
sbag5
(g6
g7
(lp4946
g5
(g6
g7
(lp4947
g5
(g6
g7
(lp4948
Vsufficient
p4949
atp4950
Rp4951
(dp4952
g17
VJJ
p4953
sbag5
(g6
g7
(lp4954
Vknowledge
p4955
atp4956
Rp4957
(dp4958
g17
VNN
p4959
sbatp4960
Rp4961
(dp4962
g17
VNP
p4963
sbag5
(g6
g7
(lp4964
g5
(g6
g7
(lp4965
Vabout
p4966
atp4967
Rp4968
(dp4969
g17
VIN
p4970
sbag5
(g6
g7
(lp4971
g5
(g6
g7
(lp4972
Vthe
p4973
atp4974
Rp4975
(dp4976
g17
VDT
p4977
sbag5
(g6
g7
(lp4978
Vstatement
p4979
atp4980
Rp4981
(dp4982
g17
VNN
p4983
sbatp4984
Rp4985
(dp4986
g17
VNP
p4987
sbatp4988
Rp4989
(dp4990
g17
VPP
p4991
sbatp4992
Rp4993
(dp4994
g17
VNP
p4995
sbatp4996
Rp4997
(dp4998
g17
VVP
p4999
sbatp5000
Rp5001
(dp5002
g17
VVP
p5003
sbatp5004
Rp5005
(dp5006
g17
g348
sbatp5007
Rp5008
(dp5009
g17
VSBAR
p5010
sbag5
(g6
g7
(lp5011
Vor
p5012
atp5013
Rp5014
(dp5015
g17
VCC
p5016
sbag5
(g6
g7
(lp5017
g5
(g6
g7
(lp5018
Vif
p5019
atp5020
Rp5021
(dp5022
g17
VIN
p5023
sbag5
(g6
g7
(lp5024
g5
(g6
g7
(lp5025
g5
(g6
g7
(lp5026
Vthe
p5027
atp5028
Rp5029
(dp5030
g17
VDT
p5031
sbag5
(g6
g7
(lp5032
Vstatement
p5033
atp5034
Rp5035
(dp5036
g17
VNN
p5037
sbatp5038
Rp5039
(dp5040
g17
VNP
p5041
sbag5
(g6
g7
(lp5042
g5
(g6
g7
(lp5043
Vwas
p5044
atp5045
Rp5046
(dp5047
g17
VVBD
p5048
sbag5
(g6
g7
(lp5049
Vnot
p5050
atp5051
Rp5052
(dp5053
g17
VRB
p5054
sbag5
(g6
g7
(lp5055
g5
(g6
g7
(lp5056
Vreally
p5057
atp5058
Rp5059
(dp5060
g17
VRB
p5061
sbatp5062
Rp5063
(dp5064
g17
VADVP
p5065
sbag5
(g6
g7
(lp5066
g5
(g6
g7
(lp5067
g104
atp5068
Rp5069
(dp5070
g17
VDT
p5071
sbag5
(g6
g7
(lp5072
Vclaim
p5073
atp5074
Rp5075
(dp5076
g17
VNN
p5077
sbatp5078
Rp5079
(dp5080
g17
VNP
p5081
sbatp5082
Rp5083
(dp5084
g17
VVP
p5085
sbatp5086
Rp5087
(dp5088
g17
g348
sbatp5089
Rp5090
(dp5091
g17
VSBAR
p5092
sbatp5093
Rp5094
(dp5095
g17
VSBAR
p5096
sbatp5097
Rp5098
(dp5099
g17
VVP
p5100
sbatp5101
Rp5102
(dp5103
g17
VVP
p5104
sbatp5105
Rp5106
(dp5107
g17
g348
sbatp5108
Rp5109
(dp5110
g17
VNP
p5111
sbatp5112
Rp5113
(dp5114
g17
VVP
p5115
sbatp5116
Rp5117
(dp5118
g17
g348
sbatp5119
Rp5120
(dp5121
g17
VROOT
p5122
sbasg353
(icmyPackage
CorE
p5123
(dp5124
g356
(lp5125
(I0
I33
tp5126
a(I0
I39
tp5127
asg360
g5087
sbsg361
(icmyPackage
CorE
p5128
(dp5129
g356
(lp5130
(I0
I0
tp5131
a(I0
I31
tp5132
asg360
g5
(g6
g7
(lp5133
g4739
ag4751
ag4757
ag4800
ag4805
ag4832
ag4837
ag4860
ag4866
ag4874
ag4881
ag4892
ag5008
ag5014
atp5134
Rp5135
(dp5136
g17
g371
sbsbsg372
(icmyPackage
pattern
p5137
(dp5138
g375
I0
sg376
I0
sg377
(lp5139
(lp5140
S'if'
p5141
aasg382
(lp5142
I1
aI1
aI1
asg384
(lp5143
S'An effective knowledge flow network enables a research team to be very powerful in generating new knowledge if every node can innovate and output new knowledge to appropriate members.'
p5144
asg387
I14
sg388
(lp5145
(lp5146
S'&R@Complete@'
p5147
aa(lp5148
S'&C@Complete@'
p5149
aasbsg395
(lp5150
(isxpPackage
sxpSent
p5151
(dp5152
g399
(lp5153
I11
asg401
VWe also allowed for u'\u005cu201c' Not Applicable u'\u005cu201d' option to capture ratings where the Turkers did not have sufficient knowledge about the statement or if the statement was not really a claim
p5154
sg403
I4
sg387
I52
sg404
I13
sbasba(icmyPackage
CELink
p5155
(dp5156
g3
(lp5157
g5
(g6
g7
(lp5158
g5
(g6
g7
(lp5159
g5
(g6
g7
(lp5160
g5
(g6
g7
(lp5161
g5
(g6
g7
(lp5162
VHaving
p5163
atp5164
Rp5165
(dp5166
g17
VVBG
p5167
sbag5
(g6
g7
(lp5168
g5
(g6
g7
(lp5169
Vobtained
p5170
atp5171
Rp5172
(dp5173
g17
VVBN
p5174
sbag5
(g6
g7
(lp5175
g5
(g6
g7
(lp5176
g5
(g6
g7
(lp5177
g104
atp5178
Rp5179
(dp5180
g17
VDT
p5181
sbag5
(g6
g7
(lp5182
Vcorpus
p5183
atp5184
Rp5185
(dp5186
g17
VNN
p5187
sbatp5188
Rp5189
(dp5190
g17
VNP
p5191
sbag5
(g6
g7
(lp5192
g5
(g6
g7
(lp5193
Vof
p5194
atp5195
Rp5196
(dp5197
g17
VIN
p5198
sbag5
(g6
g7
(lp5199
g5
(g6
g7
(lp5200
Vfactuality
p5201
atp5202
Rp5203
(dp5204
g17
VJJ
p5205
sbag5
(g6
g7
(lp5206
Vratings
p5207
atp5208
Rp5209
(dp5210
g17
VNNS
p5211
sbatp5212
Rp5213
(dp5214
g17
VNP
p5215
sbatp5216
Rp5217
(dp5218
g17
VPP
p5219
sbatp5220
Rp5221
(dp5222
g17
VNP
p5223
sbatp5224
Rp5225
(dp5226
g17
VVP
p5227
sbatp5228
Rp5229
(dp5230
g17
VVP
p5231
sbatp5232
Rp5233
(dp5234
g17
g348
sbag5
(g6
g7
(lp5235
g50
atp5236
Rp5237
(dp5238
g17
g50
sbag5
(g6
g7
(lp5239
g5
(g6
g7
(lp5240
Vwe
p5241
atp5242
Rp5243
(dp5244
g17
VPRP
p5245
sbatp5246
Rp5247
(dp5248
g17
VNP
p5249
sbag5
(g6
g7
(lp5250
g5
(g6
g7
(lp5251
Vnow
p5252
atp5253
Rp5254
(dp5255
g17
VRB
p5256
sbatp5257
Rp5258
(dp5259
g17
VADVP
p5260
sbag5
(g6
g7
(lp5261
g5
(g6
g7
(lp5262
Vmodel
p5263
atp5264
Rp5265
(dp5266
g17
VVBZ
p5267
sbag5
(g6
g7
(lp5268
g5
(g6
g7
(lp5269
g5
(g6
g7
(lp5270
Vthe
p5271
atp5272
Rp5273
(dp5274
g17
VDT
p5275
sbag5
(g6
g7
(lp5276
Vfactors
p5277
atp5278
Rp5279
(dp5280
g17
VNNS
p5281
sbatp5282
Rp5283
(dp5284
g17
VNP
p5285
sbag5
(g6
g7
(lp5286
g5
(g6
g7
(lp5287
g5
(g6
g7
(lp5288
Vthat
p5289
atp5290
Rp5291
(dp5292
g17
VWDT
p5293
sbatp5294
Rp5295
(dp5296
g17
VWHNP
p5297
sbag5
(g6
g7
(lp5298
g5
(g6
g7
(lp5299
g5
(g6
g7
(lp5300
Vdrive
p5301
atp5302
Rp5303
(dp5304
g17
VVBP
p5305
sbag5
(g6
g7
(lp5306
g5
(g6
g7
(lp5307
Vthese
p5308
atp5309
Rp5310
(dp5311
g17
VDT
p5312
sbag5
(g6
g7
(lp5313
Vratings
p5314
atp5315
Rp5316
(dp5317
g17
VNNS
p5318
sbatp5319
Rp5320
(dp5321
g17
VNP
p5322
sbatp5323
Rp5324
(dp5325
g17
VVP
p5326
sbatp5327
Rp5328
(dp5329
g17
g348
sbatp5330
Rp5331
(dp5332
g17
VSBAR
p5333
sbatp5334
Rp5335
(dp5336
g17
VNP
p5337
sbatp5338
Rp5339
(dp5340
g17
VVP
p5341
sbatp5342
Rp5343
(dp5344
g17
g348
sbatp5345
Rp5346
(dp5347
g17
VROOT
p5348
sbasg353
(icmyPackage
CorE
p5349
(dp5350
g356
(lp5351
(I0
I0
tp5352
a(I0
I6
tp5353
asg360
g5233
sbsg361
(icmyPackage
CorE
p5354
(dp5355
g356
(lp5356
(I0
I8
tp5357
a(I0
I16
tp5358
asg360
g5
(g6
g7
(lp5359
g5247
ag5258
ag5339
atp5360
Rp5361
(dp5362
g17
g371
sbsbsg372
(icmyPackage
pattern
p5363
(dp5364
g375
I30
sg376
I0
sg377
(lp5365
sg382
(lp5366
I3
aI2
aI1
asg384
(lp5367
S'Being over here we tend to be a bit isolated.'
p5368
aS'Not being sure of the word, he turned it up in the dictionary.'
p5369
asg387
I81
sg388
(lp5370
(lp5371
S'&V-ing@C@'
p5372
aS'(,)'
p5373
aS'&R@Complete@'
p5374
aasbsg395
(lp5375
(isxpPackage
sxpSent
p5376
(dp5377
g399
(lp5378
I12
asg401
VHaving obtained a corpus of factuality ratings, we now model the factors that drive these ratings
p5379
sg403
I5
sg387
I57
sg404
I15
sbasba(icmyPackage
CELink
p5380
(dp5381
g3
(lp5382
g5
(g6
g7
(lp5383
g5
(g6
g7
(lp5384
g5
(g6
g7
(lp5385
g5
(g6
g7
(lp5386
VThese
p5387
atp5388
Rp5389
(dp5390
g17
VDT
p5391
sbag5
(g6
g7
(lp5392
Vfeatures
p5393
atp5394
Rp5395
(dp5396
g17
VNNS
p5397
sbatp5398
Rp5399
(dp5400
g17
VNP
p5401
sbag5
(g6
g7
(lp5402
g5
(g6
g7
(lp5403
Vare
p5404
atp5405
Rp5406
(dp5407
g17
VVBP
p5408
sbag5
(g6
g7
(lp5409
g5
(g6
g7
(lp5410
Vused
p5411
atp5412
Rp5413
(dp5414
g17
VVBN
p5415
sbag5
(g6
g7
(lp5416
g5
(g6
g7
(lp5417
Vas
p5418
atp5419
Rp5420
(dp5421
g17
VIN
p5422
sbag5
(g6
g7
(lp5423
g5
(g6
g7
(lp5424
g5
(g6
g7
(lp5425
Vpredictors
p5426
atp5427
Rp5428
(dp5429
g17
VNNS
p5430
sbatp5431
Rp5432
(dp5433
g17
VNP
p5434
sbag5
(g6
g7
(lp5435
g5
(g6
g7
(lp5436
Vin
p5437
atp5438
Rp5439
(dp5440
g17
VIN
p5441
sbag5
(g6
g7
(lp5442
g5
(g6
g7
(lp5443
g5
(g6
g7
(lp5444
g104
atp5445
Rp5446
(dp5447
g17
VDT
p5448
sbag5
(g6
g7
(lp5449
Vseries
p5450
atp5451
Rp5452
(dp5453
g17
VNN
p5454
sbatp5455
Rp5456
(dp5457
g17
VNP
p5458
sbag5
(g6
g7
(lp5459
g5
(g6
g7
(lp5460
Vof
p5461
atp5462
Rp5463
(dp5464
g17
VIN
p5465
sbag5
(g6
g7
(lp5466
g5
(g6
g7
(lp5467
g5
(g6
g7
(lp5468
Vlinear
p5469
atp5470
Rp5471
(dp5472
g17
VJJ
p5473
sbag5
(g6
g7
(lp5474
Vridge
p5475
atp5476
Rp5477
(dp5478
g17
VNN
p5479
sbag5
(g6
g7
(lp5480
Vregressions
p5481
atp5482
Rp5483
(dp5484
g17
VNNS
p5485
sbatp5486
Rp5487
(dp5488
g17
VNP
p5489
sbag5
(g6
g7
(lp5490
g50
atp5491
Rp5492
(dp5493
g17
g50
sbag5
(g6
g7
(lp5494
g5
(g6
g7
(lp5495
g5
(g6
g7
(lp5496
Vwhere
p5497
atp5498
Rp5499
(dp5500
g17
VWRB
p5501
sbatp5502
Rp5503
(dp5504
g17
VWHADVP
p5505
sbag5
(g6
g7
(lp5506
g5
(g6
g7
(lp5507
g5
(g6
g7
(lp5508
Vthe
p5509
atp5510
Rp5511
(dp5512
g17
VDT
p5513
sbag5
(g6
g7
(lp5514
Vdependent
p5515
atp5516
Rp5517
(dp5518
g17
VJJ
p5519
sbag5
(g6
g7
(lp5520
Vvariable
p5521
atp5522
Rp5523
(dp5524
g17
VNN
p5525
sbatp5526
Rp5527
(dp5528
g17
VNP
p5529
sbag5
(g6
g7
(lp5530
g5
(g6
g7
(lp5531
Vis
p5532
atp5533
Rp5534
(dp5535
g17
VVBZ
p5536
sbag5
(g6
g7
(lp5537
g5
(g6
g7
(lp5538
Vthe
p5539
atp5540
Rp5541
(dp5542
g17
VDT
p5543
sbag5
(g6
g7
(lp5544
Vmean
p5545
atp5546
Rp5547
(dp5548
g17
VJJ
p5549
sbag5
(g6
g7
(lp5550
Vcertainty
p5551
atp5552
Rp5553
(dp5554
g17
VNN
p5555
sbag5
(g6
g7
(lp5556
Vrating
p5557
atp5558
Rp5559
(dp5560
g17
VNN
p5561
sbatp5562
Rp5563
(dp5564
g17
VNP
p5565
sbatp5566
Rp5567
(dp5568
g17
VVP
p5569
sbatp5570
Rp5571
(dp5572
g17
g348
sbatp5573
Rp5574
(dp5575
g17
VSBAR
p5576
sbatp5577
Rp5578
(dp5579
g17
VNP
p5580
sbatp5581
Rp5582
(dp5583
g17
VPP
p5584
sbatp5585
Rp5586
(dp5587
g17
VNP
p5588
sbatp5589
Rp5590
(dp5591
g17
VPP
p5592
sbatp5593
Rp5594
(dp5595
g17
VNP
p5596
sbatp5597
Rp5598
(dp5599
g17
VPP
p5600
sbatp5601
Rp5602
(dp5603
g17
VVP
p5604
sbatp5605
Rp5606
(dp5607
g17
VVP
p5608
sbatp5609
Rp5610
(dp5611
g17
g348
sbatp5612
Rp5613
(dp5614
g17
VROOT
p5615
sbag5
(g6
g7
(lp5616
g5
(g6
g7
(lp5617
g5
(g6
g7
(lp5618
g5
(g6
g7
(lp5619
VWe
p5620
atp5621
Rp5622
(dp5623
g17
VPRP
p5624
sbatp5625
Rp5626
(dp5627
g17
VNP
p5628
sbag5
(g6
g7
(lp5629
g5
(g6
g7
(lp5630
g5
(g6
g7
(lp5631
Vthrow
p5632
atp5633
Rp5634
(dp5635
g17
VVBP
p5636
sbag5
(g6
g7
(lp5637
g5
(g6
g7
(lp5638
Vout
p5639
atp5640
Rp5641
(dp5642
g17
VRP
p5643
sbatp5644
Rp5645
(dp5646
g17
VPRT
p5647
sbag5
(g6
g7
(lp5648
g5
(g6
g7
(lp5649
g5
(g6
g7
(lp5650
Vtweets
p5651
atp5652
Rp5653
(dp5654
g17
VNNS
p5655
sbatp5656
Rp5657
(dp5658
g17
VNP
p5659
sbag5
(g6
g7
(lp5660
g5
(g6
g7
(lp5661
g5
(g6
g7
(lp5662
Vthat
p5663
atp5664
Rp5665
(dp5666
g17
VWDT
p5667
sbatp5668
Rp5669
(dp5670
g17
VWHNP
p5671
sbag5
(g6
g7
(lp5672
g5
(g6
g7
(lp5673
g5
(g6
g7
(lp5674
Vwere
p5675
atp5676
Rp5677
(dp5678
g17
VVBD
p5679
sbag5
(g6
g7
(lp5680
g5
(g6
g7
(lp5681
Vrated
p5682
atp5683
Rp5684
(dp5685
g17
VVBN
p5686
sbag5
(g6
g7
(lp5687
g5
(g6
g7
(lp5688
Vas
p5689
atp5690
Rp5691
(dp5692
g17
VIN
p5693
sbag5
(g6
g7
(lp5694
g5
(g6
g7
(lp5695
g5
(g6
g7
(lp5696
g5
(g6
g7
(lp5697
g204
atp5698
Rp5699
(dp5700
g17
VNNP
p5701
sbag5
(g6
g7
(lp5702
g210
atp5703
Rp5704
(dp5705
g17
VPOS
p5706
sbatp5707
Rp5708
(dp5709
g17
VNP
p5710
sbag5
(g6
g7
(lp5711
V\u005c
p5712
atp5713
Rp5714
(dp5715
g17
VJJ
p5716
sbag5
(g6
g7
(lp5717
Vu201c
p5718
atp5719
Rp5720
(dp5721
g17
VNNS
p5722
sbag5
(g6
g7
(lp5723
g210
atp5724
Rp5725
(dp5726
g17
VPOS
p5727
sbatp5728
Rp5729
(dp5730
g17
VNP
p5731
sbag5
(g6
g7
(lp5732
g5
(g6
g7
(lp5733
Vnot
p5734
atp5735
Rp5736
(dp5737
g17
VRB
p5738
sbag5
(g6
g7
(lp5739
Vapplicable
p5740
atp5741
Rp5742
(dp5743
g17
VJJ
p5744
sbatp5745
Rp5746
(dp5747
g17
VADJP
p5748
sbag5
(g6
g7
(lp5749
g5
(g6
g7
(lp5750
g204
atp5751
Rp5752
(dp5753
g17
VNNP
p5754
sbag5
(g6
g7
(lp5755
g210
atp5756
Rp5757
(dp5758
g17
VPOS
p5759
sbatp5760
Rp5761
(dp5762
g17
VNP
p5763
sbag5
(g6
g7
(lp5764
V\u005c
p5765
atp5766
Rp5767
(dp5768
g17
VJJ
p5769
sbag5
(g6
g7
(lp5770
Vu201d
p5771
atp5772
Rp5773
(dp5774
g17
VNN
p5775
sbatp5776
Rp5777
(dp5778
g17
VNP
p5779
sbatp5780
Rp5781
(dp5782
g17
VPP
p5783
sbag5
(g6
g7
(lp5784
g210
atp5785
Rp5786
(dp5787
g17
V''
p5788
sbag5
(g6
g7
(lp5789
g5
(g6
g7
(lp5790
Vby
p5791
atp5792
Rp5793
(dp5794
g17
VIN
p5795
sbag5
(g6
g7
(lp5796
g5
(g6
g7
(lp5797
g5
(g6
g7
(lp5798
g104
atp5799
Rp5800
(dp5801
g17
VDT
p5802
sbag5
(g6
g7
(lp5803
Vmajority
p5804
atp5805
Rp5806
(dp5807
g17
VNN
p5808
sbatp5809
Rp5810
(dp5811
g17
VNP
p5812
sbag5
(g6
g7
(lp5813
g5
(g6
g7
(lp5814
Vof
p5815
atp5816
Rp5817
(dp5818
g17
VIN
p5819
sbag5
(g6
g7
(lp5820
g5
(g6
g7
(lp5821
Vraters
p5822
atp5823
Rp5824
(dp5825
g17
VNNS
p5826
sbatp5827
Rp5828
(dp5829
g17
VNP
p5830
sbatp5831
Rp5832
(dp5833
g17
VPP
p5834
sbatp5835
Rp5836
(dp5837
g17
VNP
p5838
sbatp5839
Rp5840
(dp5841
g17
VPP
p5842
sbatp5843
Rp5844
(dp5845
g17
VVP
p5846
sbatp5847
Rp5848
(dp5849
g17
VVP
p5850
sbatp5851
Rp5852
(dp5853
g17
g348
sbatp5854
Rp5855
(dp5856
g17
VSBAR
p5857
sbatp5858
Rp5859
(dp5860
g17
VNP
p5861
sbatp5862
Rp5863
(dp5864
g17
VVP
p5865
sbag5
(g6
g7
(lp5866
g50
atp5867
Rp5868
(dp5869
g17
g50
sbag5
(g6
g7
(lp5870
Vbut
p5871
atp5872
Rp5873
(dp5874
g17
VCC
p5875
sbag5
(g6
g7
(lp5876
g5
(g6
g7
(lp5877
g5
(g6
g7
(lp5878
Votherwise
p5879
atp5880
Rp5881
(dp5882
g17
VRB
p5883
sbatp5884
Rp5885
(dp5886
g17
VADVP
p5887
sbag5
(g6
g7
(lp5888
Vignore
p5889
atp5890
Rp5891
(dp5892
g17
VVBP
p5893
sbag5
(g6
g7
(lp5894
g5
(g6
g7
(lp5895
g5
(g6
g7
(lp5896
g5
(g6
g7
(lp5897
g204
atp5898
Rp5899
(dp5900
g17
VNNP
p5901
sbag5
(g6
g7
(lp5902
g210
atp5903
Rp5904
(dp5905
g17
VPOS
p5906
sbatp5907
Rp5908
(dp5909
g17
VNP
p5910
sbag5
(g6
g7
(lp5911
V\u005c
p5912
atp5913
Rp5914
(dp5915
g17
VNN
p5916
sbatp5917
Rp5918
(dp5919
g17
VNP
p5920
sbag5
(g6
g7
(lp5921
g5
(g6
g7
(lp5922
g5
(g6
g7
(lp5923
g5
(g6
g7
(lp5924
Vu201c
p5925
atp5926
Rp5927
(dp5928
g17
VNNP
p5929
sbag5
(g6
g7
(lp5930
g210
atp5931
Rp5932
(dp5933
g17
VPOS
p5934
sbatp5935
Rp5936
(dp5937
g17
VNP
p5938
sbag5
(g6
g7
(lp5939
g5
(g6
g7
(lp5940
Vnot
p5941
atp5942
Rp5943
(dp5944
g17
VRB
p5945
sbag5
(g6
g7
(lp5946
Vapplicable
p5947
atp5948
Rp5949
(dp5950
g17
VJJ
p5951
sbatp5952
Rp5953
(dp5954
g17
VADJP
p5955
sbag5
(g6
g7
(lp5956
g204
atp5957
Rp5958
(dp5959
g17
VNN
p5960
sbag5
(g6
g7
(lp5961
g210
atp5962
Rp5963
(dp5964
g17
V''
p5965
sbatp5966
Rp5967
(dp5968
g17
VNP
p5969
sbag5
(g6
g7
(lp5970
g5
(g6
g7
(lp5971
g5
(g6
g7
(lp5972
g5
(g6
g7
(lp5973
V\u005c
p5974
atp5975
Rp5976
(dp5977
g17
VNNP
p5978
sbag5
(g6
g7
(lp5979
Vu201d
p5980
atp5981
Rp5982
(dp5983
g17
VNNP
p5984
sbag5
(g6
g7
(lp5985
g210
atp5986
Rp5987
(dp5988
g17
VPOS
p5989
sbatp5990
Rp5991
(dp5992
g17
VNP
p5993
sbag5
(g6
g7
(lp5994
Vratings
p5995
atp5996
Rp5997
(dp5998
g17
VNNS
p5999
sbatp6000
Rp6001
(dp6002
g17
VNP
p6003
sbag5
(g6
g7
(lp6004
g5
(g6
g7
(lp6005
Vof
p6006
atp6007
Rp6008
(dp6009
g17
VIN
p6010
sbag5
(g6
g7
(lp6011
g5
(g6
g7
(lp6012
Vthe
p6013
atp6014
Rp6015
(dp6016
g17
VDT
p6017
sbag5
(g6
g7
(lp6018
Vremaining
p6019
atp6020
Rp6021
(dp6022
g17
VVBG
p6023
sbag5
(g6
g7
(lp6024
Vtweets
p6025
atp6026
Rp6027
(dp6028
g17
VNNS
p6029
sbatp6030
Rp6031
(dp6032
g17
VNP
p6033
sbatp6034
Rp6035
(dp6036
g17
VPP
p6037
sbatp6038
Rp6039
(dp6040
g17
VNP
p6041
sbatp6042
Rp6043
(dp6044
g17
VPP
p6045
sbatp6046
Rp6047
(dp6048
g17
VNP
p6049
sbatp6050
Rp6051
(dp6052
g17
VVP
p6053
sbatp6054
Rp6055
(dp6056
g17
VVP
p6057
sbatp6058
Rp6059
(dp6060
g17
g348
sbatp6061
Rp6062
(dp6063
g17
VROOT
p6064
sbasg353
(icmyPackage
CorE
p6065
(dp6066
g356
(lp6067
(I0
I5
tp6068
a(I1
I40
tp6069
asg360
g5
(g6
g7
(lp6070
g5594
ag5626
ag5863
ag5868
ag5873
ag5885
ag5891
ag5918
ag5967
ag5991
atp6071
Rp6072
(dp6073
g17
g371
sbsbsg361
(icmyPackage
CorE
p6074
(dp6075
g356
(lp6076
(I0
I0
tp6077
a(I0
I3
tp6078
asg360
g5
(g6
g7
(lp6079
g5399
ag5406
ag5413
atp6080
Rp6081
(dp6082
g17
g371
sbsbsg372
g928
sg395
(lp6083
(isxpPackage
sxpSent
p6084
(dp6085
g399
(lp6086
I13
asg401
VThese features are used as predictors in a series of linear ridge regressions, where the dependent variable is the mean certainty rating
p6087
sg403
I6
sg387
I65
sg404
I22
sba(isxpPackage
sxpSent
p6088
(dp6089
g399
(lp6090
I13
aI14
asg401
VWe throw out tweets that were rated as u'\u005cu201c' not applicable u'\u005cu201d' by a majority of raters, but otherwise ignore u'\u005cu201c' not applicable u'\u005cu201d' ratings of the remaining tweets
p6091
sg403
I6
sg387
I66
sg404
I22
sbasba(icmyPackage
CELink
p6092
(dp6093
g3
(lp6094
g6062
asg353
(icmyPackage
CorE
p6095
(dp6096
g356
(lp6097
(I0
I8
tp6098
a(I0
I40
tp6099
asg360
g5
(g6
g7
(lp6100
g5777
ag5786
ag5840
ag5868
ag5873
ag5885
ag5891
ag5918
ag5967
ag5991
atp6101
Rp6102
(dp6103
g17
g371
sbsbsg361
(icmyPackage
CorE
p6104
(dp6105
g356
(lp6106
(I0
I0
tp6107
a(I0
I6
tp6108
asg360
g5
(g6
g7
(lp6109
g5626
ag5634
ag5645
ag5657
ag5669
ag5677
ag5684
atp6110
Rp6111
(dp6112
g17
g371
sbsbsg372
g928
sg395
(lp6113
g6088
asba(icmyPackage
CELink
p6114
(dp6115
g3
(lp6116
g5
(g6
g7
(lp6117
g5
(g6
g7
(lp6118
g5
(g6
g7
(lp6119
g5
(g6
g7
(lp6120
VWe
p6121
atp6122
Rp6123
(dp6124
g17
VPRP
p6125
sbatp6126
Rp6127
(dp6128
g17
VNP
p6129
sbag5
(g6
g7
(lp6130
g5
(g6
g7
(lp6131
Vperformed
p6132
atp6133
Rp6134
(dp6135
g17
VVBD
p6136
sbag5
(g6
g7
(lp6137
g5
(g6
g7
(lp6138
g5
(g6
g7
(lp6139
Vanother
p6140
atp6141
Rp6142
(dp6143
g17
VDT
p6144
sbag5
(g6
g7
(lp6145
Vset
p6146
atp6147
Rp6148
(dp6149
g17
VNN
p6150
sbatp6151
Rp6152
(dp6153
g17
VNP
p6154
sbag5
(g6
g7
(lp6155
g5
(g6
g7
(lp6156
Vof
p6157
atp6158
Rp6159
(dp6160
g17
VIN
p6161
sbag5
(g6
g7
(lp6162
g5
(g6
g7
(lp6163
Vlinear
p6164
atp6165
Rp6166
(dp6167
g17
VJJ
p6168
sbag5
(g6
g7
(lp6169
Vregressions
p6170
atp6171
Rp6172
(dp6173
g17
VNNS
p6174
sbatp6175
Rp6176
(dp6177
g17
VNP
p6178
sbatp6179
Rp6180
(dp6181
g17
VPP
p6182
sbatp6183
Rp6184
(dp6185
g17
VNP
p6186
sbag5
(g6
g7
(lp6187
g50
atp6188
Rp6189
(dp6190
g17
g50
sbag5
(g6
g7
(lp6191
g5
(g6
g7
(lp6192
g5
(g6
g7
(lp6193
Vagain
p6194
atp6195
Rp6196
(dp6197
g17
VRB
p6198
sbatp6199
Rp6200
(dp6201
g17
VADVP
p6202
sbag5
(g6
g7
(lp6203
g5
(g6
g7
(lp6204
Vusing
p6205
atp6206
Rp6207
(dp6208
g17
VVBG
p6209
sbag5
(g6
g7
(lp6210
g5
(g6
g7
(lp6211
Vthe
p6212
atp6213
Rp6214
(dp6215
g17
VDT
p6216
sbag5
(g6
g7
(lp6217
Vmean
p6218
atp6219
Rp6220
(dp6221
g17
VJJ
p6222
sbag5
(g6
g7
(lp6223
Vcertainty
p6224
atp6225
Rp6226
(dp6227
g17
VNN
p6228
sbag5
(g6
g7
(lp6229
Vrating
p6230
atp6231
Rp6232
(dp6233
g17
VNN
p6234
sbatp6235
Rp6236
(dp6237
g17
VNP
p6238
sbag5
(g6
g7
(lp6239
g5
(g6
g7
(lp6240
Vas
p6241
atp6242
Rp6243
(dp6244
g17
VIN
p6245
sbag5
(g6
g7
(lp6246
g5
(g6
g7
(lp6247
Vthe
p6248
atp6249
Rp6250
(dp6251
g17
VDT
p6252
sbag5
(g6
g7
(lp6253
Vdependent
p6254
atp6255
Rp6256
(dp6257
g17
VJJ
p6258
sbag5
(g6
g7
(lp6259
Vvariable
p6260
atp6261
Rp6262
(dp6263
g17
VNN
p6264
sbatp6265
Rp6266
(dp6267
g17
VNP
p6268
sbatp6269
Rp6270
(dp6271
g17
VPP
p6272
sbatp6273
Rp6274
(dp6275
g17
VVP
p6276
sbatp6277
Rp6278
(dp6279
g17
g348
sbatp6280
Rp6281
(dp6282
g17
VVP
p6283
sbatp6284
Rp6285
(dp6286
g17
g348
sbatp6287
Rp6288
(dp6289
g17
VROOT
p6290
sbag5
(g6
g7
(lp6291
g5
(g6
g7
(lp6292
g5
(g6
g7
(lp6293
g5
(g6
g7
(lp6294
VIn
p6295
atp6296
Rp6297
(dp6298
g17
VIN
p6299
sbag5
(g6
g7
(lp6300
g5
(g6
g7
(lp6301
Vthis
p6302
atp6303
Rp6304
(dp6305
g17
VDT
p6306
sbag5
(g6
g7
(lp6307
Vcase
p6308
atp6309
Rp6310
(dp6311
g17
VNN
p6312
sbatp6313
Rp6314
(dp6315
g17
VNP
p6316
sbatp6317
Rp6318
(dp6319
g17
VPP
p6320
sbag5
(g6
g7
(lp6321
g50
atp6322
Rp6323
(dp6324
g17
g50
sbag5
(g6
g7
(lp6325
g5
(g6
g7
(lp6326
Vthere
p6327
atp6328
Rp6329
(dp6330
g17
VEX
p6331
sbatp6332
Rp6333
(dp6334
g17
VNP
p6335
sbag5
(g6
g7
(lp6336
g5
(g6
g7
(lp6337
Vwas
p6338
atp6339
Rp6340
(dp6341
g17
VVBD
p6342
sbag5
(g6
g7
(lp6343
g5
(g6
g7
(lp6344
Vno
p6345
atp6346
Rp6347
(dp6348
g17
VDT
p6349
sbag5
(g6
g7
(lp6350
Vtraining/test
p6351
atp6352
Rp6353
(dp6354
g17
VJJ
p6355
sbag5
(g6
g7
(lp6356
Vsplit
p6357
atp6358
Rp6359
(dp6360
g17
VNN
p6361
sbatp6362
Rp6363
(dp6364
g17
VNP
p6365
sbag5
(g6
g7
(lp6366
g50
atp6367
Rp6368
(dp6369
g17
g50
sbag5
(g6
g7
(lp6370
g5
(g6
g7
(lp6371
Vso
p6372
atp6373
Rp6374
(dp6375
g17
VIN
p6376
sbag5
(g6
g7
(lp6377
g5
(g6
g7
(lp6378
g5
(g6
g7
(lp6379
g5
(g6
g7
(lp6380
Vconfidence
p6381
atp6382
Rp6383
(dp6384
g17
VNN
p6385
sbag5
(g6
g7
(lp6386
Vintervals
p6387
atp6388
Rp6389
(dp6390
g17
VNNS
p6391
sbatp6392
Rp6393
(dp6394
g17
VNP
p6395
sbag5
(g6
g7
(lp6396
g5
(g6
g7
(lp6397
Von
p6398
atp6399
Rp6400
(dp6401
g17
VIN
p6402
sbag5
(g6
g7
(lp6403
g5
(g6
g7
(lp6404
Vthe
p6405
atp6406
Rp6407
(dp6408
g17
VDT
p6409
sbag5
(g6
g7
(lp6410
Vresulting
p6411
atp6412
Rp6413
(dp6414
g17
VVBG
p6415
sbag5
(g6
g7
(lp6416
Vparameters
p6417
atp6418
Rp6419
(dp6420
g17
VNNS
p6421
sbatp6422
Rp6423
(dp6424
g17
VNP
p6425
sbatp6426
Rp6427
(dp6428
g17
VPP
p6429
sbatp6430
Rp6431
(dp6432
g17
VNP
p6433
sbag5
(g6
g7
(lp6434
g5
(g6
g7
(lp6435
Vare
p6436
atp6437
Rp6438
(dp6439
g17
VVBP
p6440
sbag5
(g6
g7
(lp6441
g5
(g6
g7
(lp6442
Vcomputed
p6443
atp6444
Rp6445
(dp6446
g17
VVBN
p6447
sbag5
(g6
g7
(lp6448
g5
(g6
g7
(lp6449
g5
(g6
g7
(lp6450
Vusing
p6451
atp6452
Rp6453
(dp6454
g17
VVBG
p6455
sbag5
(g6
g7
(lp6456
g5
(g6
g7
(lp6457
Vthe
p6458
atp6459
Rp6460
(dp6461
g17
VDT
p6462
sbag5
(g6
g7
(lp6463
Vanalytic
p6464
atp6465
Rp6466
(dp6467
g17
VJJ
p6468
sbag5
(g6
g7
(lp6469
Vclosed
p6470
atp6471
Rp6472
(dp6473
g17
VJJ
p6474
sbag5
(g6
g7
(lp6475
Vform
p6476
atp6477
Rp6478
(dp6479
g17
VNN
p6480
sbatp6481
Rp6482
(dp6483
g17
VNP
p6484
sbatp6485
Rp6486
(dp6487
g17
VVP
p6488
sbatp6489
Rp6490
(dp6491
g17
g348
sbatp6492
Rp6493
(dp6494
g17
VVP
p6495
sbatp6496
Rp6497
(dp6498
g17
VVP
p6499
sbatp6500
Rp6501
(dp6502
g17
g348
sbatp6503
Rp6504
(dp6505
g17
VSBAR
p6506
sbatp6507
Rp6508
(dp6509
g17
VVP
p6510
sbatp6511
Rp6512
(dp6513
g17
g348
sbatp6514
Rp6515
(dp6516
g17
VROOT
p6517
sbasg353
(icmyPackage
CorE
p6518
(dp6519
g356
(lp6520
(I0
I15
tp6521
a(I1
I22
tp6522
asg360
g5
(g6
g7
(lp6523
g6266
ag6318
ag6323
ag6333
ag6340
ag6363
ag6368
ag6374
ag6431
ag6438
ag6445
ag6453
ag6460
ag6466
ag6472
atp6524
Rp6525
(dp6526
g17
g371
sbsbsg361
(icmyPackage
CorE
p6527
(dp6528
g356
(lp6529
(I0
I0
tp6530
a(I0
I13
tp6531
asg360
g5
(g6
g7
(lp6532
g6127
ag6134
ag6184
ag6189
ag6200
ag6207
ag6236
atp6533
Rp6534
(dp6535
g17
g371
sbsbsg372
g928
sg395
(lp6536
(isxpPackage
sxpSent
p6537
(dp6538
g399
(lp6539
I15
asg401
VWe performed another set of linear regressions, again using the mean certainty rating as the dependent variable
p6540
sg403
I7
sg387
I82
sg404
I26
sba(isxpPackage
sxpSent
p6541
(dp6542
g399
(lp6543
I15
aI16
asg401
VIn this case, there was no training/test split, so confidence intervals on the resulting parameters are computed using the analytic closed form
p6544
sg403
I7
sg387
I83
sg404
I26
sbasba(icmyPackage
CELink
p6545
(dp6546
g3
(lp6547
g6515
asg353
(icmyPackage
CorE
p6548
(dp6549
g356
(lp6550
(I0
I0
tp6551
a(I0
I8
tp6552
asg360
g5
(g6
g7
(lp6553
g6318
ag6323
ag6333
ag6340
ag6363
atp6554
Rp6555
(dp6556
g17
g371
sbsbsg361
(icmyPackage
CorE
p6557
(dp6558
g356
(lp6559
(I0
I11
tp6560
a(I0
I23
tp6561
asg360
g6501
sbsg372
(icmyPackage
pattern
p6562
(dp6563
g375
I265
sg376
I1
sg377
(lp6564
(lp6565
S'so'
p6566
aasg382
(lp6567
I1
aI1
aI1
asg384
(lp6568
S'It was not long before he saw me looking at him, and so he began to move.'
p6569
asg387
I0
sg388
(lp6570
(lp6571
S'&C'
p6572
aS'(,/;/./--)'
p6573
aS'(&AND)'
p6574
aa(lp6575
S'(-far)'
p6576
aS'(,)'
p6577
aS'&R'
p6578
aasbsg395
(lp6579
g6541
asba(icmyPackage
CELink
p6580
(dp6581
g3
(lp6582
g5
(g6
g7
(lp6583
g5
(g6
g7
(lp6584
g5
(g6
g7
(lp6585
g5
(g6
g7
(lp6586
g5
(g6
g7
(lp6587
VThe
p6588
atp6589
Rp6590
(dp6591
g17
VDT
p6592
sbag5
(g6
g7
(lp6593
Vcues
p6594
atp6595
Rp6596
(dp6597
g17
VNNS
p6598
sbatp6599
Rp6600
(dp6601
g17
VNP
p6602
sbag5
(g6
g7
(lp6603
g5
(g6
g7
(lp6604
g5
(g6
g7
(lp6605
Vthat
p6606
atp6607
Rp6608
(dp6609
g17
VWDT
p6610
sbatp6611
Rp6612
(dp6613
g17
VWHNP
p6614
sbag5
(g6
g7
(lp6615
g5
(g6
g7
(lp6616
g5
(g6
g7
(lp6617
Vgive
p6618
atp6619
Rp6620
(dp6621
g17
VVBP
p6622
sbag5
(g6
g7
(lp6623
g5
(g6
g7
(lp6624
Vthe
p6625
atp6626
Rp6627
(dp6628
g17
VDT
p6629
sbag5
(g6
g7
(lp6630
Vhighest
p6631
atp6632
Rp6633
(dp6634
g17
VJJS
p6635
sbag5
(g6
g7
(lp6636
Vfactuality
p6637
atp6638
Rp6639
(dp6640
g17
VNN
p6641
sbatp6642
Rp6643
(dp6644
g17
VNP
p6645
sbag5
(g6
g7
(lp6646
g5
(g6
g7
(lp6647
Vcoefficients
p6648
atp6649
Rp6650
(dp6651
g17
VNNS
p6652
sbatp6653
Rp6654
(dp6655
g17
VNP
p6656
sbatp6657
Rp6658
(dp6659
g17
VVP
p6660
sbatp6661
Rp6662
(dp6663
g17
g348
sbatp6664
Rp6665
(dp6666
g17
VSBAR
p6667
sbatp6668
Rp6669
(dp6670
g17
VNP
p6671
sbag5
(g6
g7
(lp6672
g5
(g6
g7
(lp6673
Vare
p6674
atp6675
Rp6676
(dp6677
g17
VVBP
p6678
sbag5
(g6
g7
(lp6679
g5
(g6
g7
(lp6680
g5
(g6
g7
(lp6681
Vlearn
p6682
atp6683
Rp6684
(dp6685
g17
VVB
p6686
sbag5
(g6
g7
(lp6687
Vand
p6688
atp6689
Rp6690
(dp6691
g17
VCC
p6692
sbag5
(g6
g7
(lp6693
Vadmit
p6694
atp6695
Rp6696
(dp6697
g17
VVB
p6698
sbag5
(g6
g7
(lp6699
g50
atp6700
Rp6701
(dp6702
g17
g50
sbag5
(g6
g7
(lp6703
g5
(g6
g7
(lp6704
g5
(g6
g7
(lp6705
Vwhich
p6706
atp6707
Rp6708
(dp6709
g17
VWDT
p6710
sbatp6711
Rp6712
(dp6713
g17
VWHNP
p6714
sbag5
(g6
g7
(lp6715
g5
(g6
g7
(lp6716
g5
(g6
g7
(lp6717
Vare
p6718
atp6719
Rp6720
(dp6721
g17
VVBP
p6722
sbag5
(g6
g7
(lp6723
g5
(g6
g7
(lp6724
Vlabeled
p6725
atp6726
Rp6727
(dp6728
g17
VVBN
p6729
sbag5
(g6
g7
(lp6730
g5
(g6
g7
(lp6731
Vas
p6732
atp6733
Rp6734
(dp6735
g17
VIN
p6736
sbag5
(g6
g7
(lp6737
g5
(g6
g7
(lp6738
g5
(g6
g7
(lp6739
Vpredicates
p6740
atp6741
Rp6742
(dp6743
g17
VNNS
p6744
sbatp6745
Rp6746
(dp6747
g17
VNP
p6748
sbag5
(g6
g7
(lp6749
g5
(g6
g7
(lp6750
Vof
p6751
atp6752
Rp6753
(dp6754
g17
VIN
p6755
sbag5
(g6
g7
(lp6756
g5
(g6
g7
(lp6757
Vknowledge
p6758
atp6759
Rp6760
(dp6761
g17
VNN
p6762
sbatp6763
Rp6764
(dp6765
g17
VNP
p6766
sbatp6767
Rp6768
(dp6769
g17
VPP
p6770
sbatp6771
Rp6772
(dp6773
g17
VNP
p6774
sbatp6775
Rp6776
(dp6777
g17
VPP
p6778
sbatp6779
Rp6780
(dp6781
g17
VVP
p6782
sbatp6783
Rp6784
(dp6785
g17
VVP
p6786
sbatp6787
Rp6788
(dp6789
g17
g348
sbatp6790
Rp6791
(dp6792
g17
VSBAR
p6793
sbatp6794
Rp6795
(dp6796
g17
VVP
p6797
sbatp6798
Rp6799
(dp6800
g17
g348
sbatp6801
Rp6802
(dp6803
g17
VVP
p6804
sbatp6805
Rp6806
(dp6807
g17
g348
sbatp6808
Rp6809
(dp6810
g17
VROOT
p6811
sbag5
(g6
g7
(lp6812
g5
(g6
g7
(lp6813
g5
(g6
g7
(lp6814
g5
(g6
g7
(lp6815
VThese
p6816
atp6817
Rp6818
(dp6819
g17
VDT
p6820
sbag5
(g6
g7
(lp6821
Vcues
p6822
atp6823
Rp6824
(dp6825
g17
VNNS
p6826
sbatp6827
Rp6828
(dp6829
g17
VNP
p6830
sbag5
(g6
g7
(lp6831
g5
(g6
g7
(lp6832
Vcarry
p6833
atp6834
Rp6835
(dp6836
g17
VVBP
p6837
sbag5
(g6
g7
(lp6838
g5
(g6
g7
(lp6839
g5
(g6
g7
(lp6840
g104
atp6841
Rp6842
(dp6843
g17
VDT
p6844
sbag5
(g6
g7
(lp6845
Vsubstantial
p6846
atp6847
Rp6848
(dp6849
g17
VJJ
p6850
sbag5
(g6
g7
(lp6851
Vamount
p6852
atp6853
Rp6854
(dp6855
g17
VNN
p6856
sbatp6857
Rp6858
(dp6859
g17
VNP
p6860
sbag5
(g6
g7
(lp6861
g5
(g6
g7
(lp6862
Vof
p6863
atp6864
Rp6865
(dp6866
g17
VIN
p6867
sbag5
(g6
g7
(lp6868
g5
(g6
g7
(lp6869
Vframing
p6870
atp6871
Rp6872
(dp6873
g17
VNN
p6874
sbatp6875
Rp6876
(dp6877
g17
VNP
p6878
sbatp6879
Rp6880
(dp6881
g17
VPP
p6882
sbatp6883
Rp6884
(dp6885
g17
VNP
p6886
sbag5
(g6
g7
(lp6887
g50
atp6888
Rp6889
(dp6890
g17
g50
sbag5
(g6
g7
(lp6891
g5
(g6
g7
(lp6892
Vas
p6893
atp6894
Rp6895
(dp6896
g17
VIN
p6897
sbag5
(g6
g7
(lp6898
g5
(g6
g7
(lp6899
g5
(g6
g7
(lp6900
Vthey
p6901
atp6902
Rp6903
(dp6904
g17
VPRP
p6905
sbatp6906
Rp6907
(dp6908
g17
VNP
p6909
sbag5
(g6
g7
(lp6910
g5
(g6
g7
(lp6911
Vpurport
p6912
atp6913
Rp6914
(dp6915
g17
VVBP
p6916
sbag5
(g6
g7
(lp6917
g5
(g6
g7
(lp6918
g5
(g6
g7
(lp6919
Vto
p6920
atp6921
Rp6922
(dp6923
g17
VTO
p6924
sbag5
(g6
g7
(lp6925
g5
(g6
g7
(lp6926
Vdescribe
p6927
atp6928
Rp6929
(dp6930
g17
VVB
p6931
sbag5
(g6
g7
(lp6932
g5
(g6
g7
(lp6933
g5
(g6
g7
(lp6934
Vthe
p6935
atp6936
Rp6937
(dp6938
g17
VDT
p6939
sbag5
(g6
g7
(lp6940
Vprivate
p6941
atp6942
Rp6943
(dp6944
g17
VJJ
p6945
sbag5
(g6
g7
(lp6946
Vmental
p6947
atp6948
Rp6949
(dp6950
g17
VJJ
p6951
sbag5
(g6
g7
(lp6952
Vstate
p6953
atp6954
Rp6955
(dp6956
g17
VNN
p6957
sbatp6958
Rp6959
(dp6960
g17
VNP
p6961
sbag5
(g6
g7
(lp6962
g5
(g6
g7
(lp6963
Vof
p6964
atp6965
Rp6966
(dp6967
g17
VIN
p6968
sbag5
(g6
g7
(lp6969
g5
(g6
g7
(lp6970
Vthe
p6971
atp6972
Rp6973
(dp6974
g17
VDT
p6975
sbag5
(g6
g7
(lp6976
Vsource
p6977
atp6978
Rp6979
(dp6980
g17
VNN
p6981
sbatp6982
Rp6983
(dp6984
g17
VNP
p6985
sbatp6986
Rp6987
(dp6988
g17
VPP
p6989
sbatp6990
Rp6991
(dp6992
g17
VNP
p6993
sbatp6994
Rp6995
(dp6996
g17
VVP
p6997
sbatp6998
Rp6999
(dp7000
g17
VVP
p7001
sbatp7002
Rp7003
(dp7004
g17
g348
sbatp7005
Rp7006
(dp7007
g17
VVP
p7008
sbatp7009
Rp7010
(dp7011
g17
g348
sbatp7012
Rp7013
(dp7014
g17
VSBAR
p7015
sbatp7016
Rp7017
(dp7018
g17
VVP
p7019
sbatp7020
Rp7021
(dp7022
g17
g348
sbatp7023
Rp7024
(dp7025
g17
VROOT
p7026
sbasg353
(icmyPackage
CorE
p7027
(dp7028
g356
(lp7029
(I0
I17
tp7030
a(I1
I8
tp7031
asg360
g5
(g6
g7
(lp7032
g6772
ag6828
ag6835
ag6884
ag6889
atp7033
Rp7034
(dp7035
g17
g371
sbsbsg361
(icmyPackage
CorE
p7036
(dp7037
g356
(lp7038
(I0
I0
tp7039
a(I0
I15
tp7040
asg360
g5
(g6
g7
(lp7041
g6669
ag6676
ag6684
ag6690
ag6696
ag6701
ag6712
ag6720
ag6727
atp7042
Rp7043
(dp7044
g17
g371
sbsbsg372
g928
sg395
(lp7045
(isxpPackage
sxpSent
p7046
(dp7047
g399
(lp7048
I17
asg401
VThe cues that give the highest factuality coefficients are learn and admit , which are labeled as predicates of knowledge
p7049
sg403
I7
sg387
I86
sg404
I27
sba(isxpPackage
sxpSent
p7050
(dp7051
g399
(lp7052
I17
aI18
asg401
VThese cues carry a substantial amount of framing, as they purport to describe the private mental state of the source
p7053
sg403
I7
sg387
I87
sg404
I27
sbasba(icmyPackage
CELink
p7054
(dp7055
g3
(lp7056
g7024
asg353
(icmyPackage
CorE
p7057
(dp7058
g356
(lp7059
(I0
I10
tp7060
a(I0
I20
tp7061
asg360
g7010
sbsg361
(icmyPackage
CorE
p7062
(dp7063
g356
(lp7064
(I0
I0
tp7065
a(I0
I7
tp7066
asg360
g5
(g6
g7
(lp7067
g6828
ag6835
ag6884
atp7068
Rp7069
(dp7070
g17
g371
sbsbsg372
g928
sg395
(lp7071
g7050
asba(icmyPackage
CELink
p7072
(dp7073
g3
(lp7074
g5
(g6
g7
(lp7075
g5
(g6
g7
(lp7076
g5
(g6
g7
(lp7077
g5
(g6
g7
(lp7078
g5
(g6
g7
(lp7079
VThe
p7080
atp7081
Rp7082
(dp7083
g17
VDT
p7084
sbag5
(g6
g7
(lp7085
Vword
p7086
atp7087
Rp7088
(dp7089
g17
VNN
p7090
sbag5
(g6
g7
(lp7091
Vadmit
p7092
atp7093
Rp7094
(dp7095
g17
VNN
p7096
sbatp7097
Rp7098
(dp7099
g17
VNP
p7100
sbag5
(g6
g7
(lp7101
g5
(g6
g7
(lp7102
Voften
p7103
atp7104
Rp7105
(dp7106
g17
VRB
p7107
sbatp7108
Rp7109
(dp7110
g17
VADVP
p7111
sbag5
(g6
g7
(lp7112
g5
(g6
g7
(lp7113
Vapplies
p7114
atp7115
Rp7116
(dp7117
g17
VVBZ
p7118
sbag5
(g6
g7
(lp7119
g5
(g6
g7
(lp7120
Vto
p7121
atp7122
Rp7123
(dp7124
g17
VTO
p7125
sbag5
(g6
g7
(lp7126
g5
(g6
g7
(lp7127
g5
(g6
g7
(lp7128
Vstatements
p7129
atp7130
Rp7131
(dp7132
g17
VNNS
p7133
sbatp7134
Rp7135
(dp7136
g17
VNP
p7137
sbag5
(g6
g7
(lp7138
g5
(g6
g7
(lp7139
g5
(g6
g7
(lp7140
Vthat
p7141
atp7142
Rp7143
(dp7144
g17
VWDT
p7145
sbatp7146
Rp7147
(dp7148
g17
VWHNP
p7149
sbag5
(g6
g7
(lp7150
g5
(g6
g7
(lp7151
g5
(g6
g7
(lp7152
Vare
p7153
atp7154
Rp7155
(dp7156
g17
VVBP
p7157
sbag5
(g6
g7
(lp7158
g5
(g6
g7
(lp7159
Vperceived
p7160
atp7161
Rp7162
(dp7163
g17
VVBN
p7164
sbag5
(g6
g7
(lp7165
g5
(g6
g7
(lp7166
Vas
p7167
atp7168
Rp7169
(dp7170
g17
VIN
p7171
sbag5
(g6
g7
(lp7172
g5
(g6
g7
(lp7173
g5
(g6
g7
(lp7174
Vdamaging
p7175
atp7176
Rp7177
(dp7178
g17
VVBG
p7179
sbag5
(g6
g7
(lp7180
g5
(g6
g7
(lp7181
Vto
p7182
atp7183
Rp7184
(dp7185
g17
VTO
p7186
sbag5
(g6
g7
(lp7187
g5
(g6
g7
(lp7188
Vthe
p7189
atp7190
Rp7191
(dp7192
g17
VDT
p7193
sbag5
(g6
g7
(lp7194
Vsource
p7195
atp7196
Rp7197
(dp7198
g17
VNN
p7199
sbatp7200
Rp7201
(dp7202
g17
VNP
p7203
sbatp7204
Rp7205
(dp7206
g17
VPP
p7207
sbatp7208
Rp7209
(dp7210
g17
VVP
p7211
sbatp7212
Rp7213
(dp7214
g17
g348
sbatp7215
Rp7216
(dp7217
g17
VPP
p7218
sbatp7219
Rp7220
(dp7221
g17
VVP
p7222
sbatp7223
Rp7224
(dp7225
g17
VVP
p7226
sbatp7227
Rp7228
(dp7229
g17
g348
sbatp7230
Rp7231
(dp7232
g17
VSBAR
p7233
sbag5
(g6
g7
(lp7234
g50
atp7235
Rp7236
(dp7237
g17
g50
sbag5
(g6
g7
(lp7238
g5
(g6
g7
(lp7239
Vsuch
p7240
atp7241
Rp7242
(dp7243
g17
VJJ
p7244
sbag5
(g6
g7
(lp7245
Vas
p7246
atp7247
Rp7248
(dp7249
g17
VIN
p7250
sbag5
(g6
g7
(lp7251
g5
(g6
g7
(lp7252
g5
(g6
g7
(lp7253
VBill
p7254
atp7255
Rp7256
(dp7257
g17
VNNP
p7258
sbag5
(g6
g7
(lp7259
VGates
p7260
atp7261
Rp7262
(dp7263
g17
VNNP
p7264
sbatp7265
Rp7266
(dp7267
g17
VNP
p7268
sbag5
(g6
g7
(lp7269
g5
(g6
g7
(lp7270
g5
(g6
g7
(lp7271
g5
(g6
g7
(lp7272
Vadmits
p7273
atp7274
Rp7275
(dp7276
g17
VVBZ
p7277
sbag5
(g6
g7
(lp7278
g5
(g6
g7
(lp7279
g5
(g6
g7
(lp7280
g5
(g6
g7
(lp7281
VControl-Alt-Delete
p7282
atp7283
Rp7284
(dp7285
g17
VNNP
p7286
sbatp7287
Rp7288
(dp7289
g17
VNP
p7290
sbag5
(g6
g7
(lp7291
g5
(g6
g7
(lp7292
Vwas
p7293
atp7294
Rp7295
(dp7296
g17
VVBD
p7297
sbag5
(g6
g7
(lp7298
g5
(g6
g7
(lp7299
g104
atp7300
Rp7301
(dp7302
g17
VDT
p7303
sbag5
(g6
g7
(lp7304
Vmistake
p7305
atp7306
Rp7307
(dp7308
g17
VNN
p7309
sbatp7310
Rp7311
(dp7312
g17
VNP
p7313
sbatp7314
Rp7315
(dp7316
g17
VVP
p7317
sbatp7318
Rp7319
(dp7320
g17
g348
sbatp7321
Rp7322
(dp7323
g17
VSBAR
p7324
sbatp7325
Rp7326
(dp7327
g17
VVP
p7328
sbatp7329
Rp7330
(dp7331
g17
g348
sbatp7332
Rp7333
(dp7334
g17
VSBAR
p7335
sbatp7336
Rp7337
(dp7338
g17
VNP
p7339
sbatp7340
Rp7341
(dp7342
g17
VPP
p7343
sbatp7344
Rp7345
(dp7346
g17
VNP
p7347
sbatp7348
Rp7349
(dp7350
g17
VPP
p7351
sbatp7352
Rp7353
(dp7354
g17
VVP
p7355
sbatp7356
Rp7357
(dp7358
g17
g348
sbag5
(g6
g7
(lp7359
V;
p7360
atp7361
Rp7362
(dp7363
g17
V:
p7364
sbag5
(g6
g7
(lp7365
g5
(g6
g7
(lp7366
g5
(g6
g7
(lp7367
Vsince
p7368
atp7369
Rp7370
(dp7371
g17
VIN
p7372
sbag5
(g6
g7
(lp7373
g5
(g6
g7
(lp7374
g5
(g6
g7
(lp7375
Vthere
p7376
atp7377
Rp7378
(dp7379
g17
VEX
p7380
sbatp7381
Rp7382
(dp7383
g17
VNP
p7384
sbag5
(g6
g7
(lp7385
g5
(g6
g7
(lp7386
Vcan
p7387
atp7388
Rp7389
(dp7390
g17
VMD
p7391
sbag5
(g6
g7
(lp7392
g5
(g6
g7
(lp7393
Vbe
p7394
atp7395
Rp7396
(dp7397
g17
VVB
p7398
sbag5
(g6
g7
(lp7399
g5
(g6
g7
(lp7400
g5
(g6
g7
(lp7401
Vno
p7402
atp7403
Rp7404
(dp7405
g17
VDT
p7406
sbag5
(g6
g7
(lp7407
Vself-interest
p7408
atp7409
Rp7410
(dp7411
g17
VNN
p7412
sbatp7413
Rp7414
(dp7415
g17
VNP
p7416
sbag5
(g6
g7
(lp7417
g5
(g6
g7
(lp7418
Vbehind
p7419
atp7420
Rp7421
(dp7422
g17
VIN
p7423
sbag5
(g6
g7
(lp7424
g5
(g6
g7
(lp7425
Vsuch
p7426
atp7427
Rp7428
(dp7429
g17
VJJ
p7430
sbag5
(g6
g7
(lp7431
Vstatements
p7432
atp7433
Rp7434
(dp7435
g17
VNNS
p7436
sbatp7437
Rp7438
(dp7439
g17
VNP
p7440
sbatp7441
Rp7442
(dp7443
g17
VPP
p7444
sbatp7445
Rp7446
(dp7447
g17
VNP
p7448
sbatp7449
Rp7450
(dp7451
g17
VVP
p7452
sbatp7453
Rp7454
(dp7455
g17
VVP
p7456
sbatp7457
Rp7458
(dp7459
g17
g348
sbatp7460
Rp7461
(dp7462
g17
VSBAR
p7463
sbag5
(g6
g7
(lp7464
g50
atp7465
Rp7466
(dp7467
g17
g50
sbag5
(g6
g7
(lp7468
g5
(g6
g7
(lp7469
Vthey
p7470
atp7471
Rp7472
(dp7473
g17
VPRP
p7474
sbatp7475
Rp7476
(dp7477
g17
VNP
p7478
sbag5
(g6
g7
(lp7479
g5
(g6
g7
(lp7480
Vmay
p7481
atp7482
Rp7483
(dp7484
g17
VMD
p7485
sbag5
(g6
g7
(lp7486
g5
(g6
g7
(lp7487
Vbe
p7488
atp7489
Rp7490
(dp7491
g17
VVB
p7492
sbag5
(g6
g7
(lp7493
g5
(g6
g7
(lp7494
Vperceived
p7495
atp7496
Rp7497
(dp7498
g17
VVBN
p7499
sbag5
(g6
g7
(lp7500
g5
(g6
g7
(lp7501
Vas
p7502
atp7503
Rp7504
(dp7505
g17
VRB
p7506
sbag5
(g6
g7
(lp7507
Vmore
p7508
atp7509
Rp7510
(dp7511
g17
VRBR
p7512
sbag5
(g6
g7
(lp7513
Vlikely
p7514
atp7515
Rp7516
(dp7517
g17
VJJ
p7518
sbag5
(g6
g7
(lp7519
g5
(g6
g7
(lp7520
g5
(g6
g7
(lp7521
Vto
p7522
atp7523
Rp7524
(dp7525
g17
VTO
p7526
sbag5
(g6
g7
(lp7527
g5
(g6
g7
(lp7528
Vbe
p7529
atp7530
Rp7531
(dp7532
g17
VVB
p7533
sbag5
(g6
g7
(lp7534
g5
(g6
g7
(lp7535
Vtrue
p7536
atp7537
Rp7538
(dp7539
g17
VJJ
p7540
sbatp7541
Rp7542
(dp7543
g17
VADJP
p7544
sbatp7545
Rp7546
(dp7547
g17
VVP
p7548
sbatp7549
Rp7550
(dp7551
g17
VVP
p7552
sbatp7553
Rp7554
(dp7555
g17
g348
sbatp7556
Rp7557
(dp7558
g17
VADJP
p7559
sbatp7560
Rp7561
(dp7562
g17
VVP
p7563
sbatp7564
Rp7565
(dp7566
g17
VVP
p7567
sbatp7568
Rp7569
(dp7570
g17
VVP
p7571
sbatp7572
Rp7573
(dp7574
g17
g348
sbatp7575
Rp7576
(dp7577
g17
g348
sbatp7578
Rp7579
(dp7580
g17
VROOT
p7581
sbasg353
(icmyPackage
CorE
p7582
(dp7583
g356
(lp7584
(I0
I27
tp7585
a(I0
I34
tp7586
asg360
g7458
sbsg361
(icmyPackage
CorE
p7587
(dp7588
g356
(lp7589
(I0
I36
tp7590
a(I0
I45
tp7591
asg360
g5
(g6
g7
(lp7592
g7476
ag7569
atp7593
Rp7594
(dp7595
g17
g371
sbsbsg372
g3734
sg395
(lp7596
(isxpPackage
sxpSent
p7597
(dp7598
g399
(lp7599
I19
asg401
VThe word admit often applies to statements that are perceived as damaging to the source, such as Bill Gates admits Control-Alt-Delete was a mistake ; since there can be no self-interest behind such statements, they may be perceived as more likely to be true
p7600
sg403
I7
sg387
I88
sg404
I27
sbasba(icmyPackage
CELink
p7601
(dp7602
g3
(lp7603
g5
(g6
g7
(lp7604
g5
(g6
g7
(lp7605
g5
(g6
g7
(lp7606
g5
(g6
g7
(lp7607
g5
(g6
g7
(lp7608
g5
(g6
g7
(lp7609
VThe
p7610
atp7611
Rp7612
(dp7613
g17
VDT
p7614
sbag5
(g6
g7
(lp7615
Vwords
p7616
atp7617
Rp7618
(dp7619
g17
VNNS
p7620
sbatp7621
Rp7622
(dp7623
g17
VNP
p7624
sbag5
(g6
g7
(lp7625
g5
(g6
g7
(lp7626
Vsuggest
p7627
atp7628
Rp7629
(dp7630
g17
VVBP
p7631
sbag5
(g6
g7
(lp7632
g50
atp7633
Rp7634
(dp7635
g17
g50
sbag5
(g6
g7
(lp7636
Vthink
p7637
atp7638
Rp7639
(dp7640
g17
VVBP
p7641
sbag5
(g6
g7
(lp7642
g50
atp7643
Rp7644
(dp7645
g17
g50
sbag5
(g6
g7
(lp7646
Vand
p7647
atp7648
Rp7649
(dp7650
g17
VCC
p7651
sbag5
(g6
g7
(lp7652
Vbelieve
p7653
atp7654
Rp7655
(dp7656
g17
VVBP
p7657
sbag5
(g6
g7
(lp7658
g5
(g6
g7
(lp7659
Valso
p7660
atp7661
Rp7662
(dp7663
g17
VRB
p7664
sbag5
(g6
g7
(lp7665
Vpurport
p7666
atp7667
Rp7668
(dp7669
g17
VNNS
p7670
sbag5
(g6
g7
(lp7671
g5
(g6
g7
(lp7672
g5
(g6
g7
(lp7673
Vto
p7674
atp7675
Rp7676
(dp7677
g17
VTO
p7678
sbag5
(g6
g7
(lp7679
g5
(g6
g7
(lp7680
Vdescribe
p7681
atp7682
Rp7683
(dp7684
g17
VVB
p7685
sbag5
(g6
g7
(lp7686
g5
(g6
g7
(lp7687
g5
(g6
g7
(lp7688
Vthe
p7689
atp7690
Rp7691
(dp7692
g17
VDT
p7693
sbag5
(g6
g7
(lp7694
Vprivate
p7695
atp7696
Rp7697
(dp7698
g17
VJJ
p7699
sbag5
(g6
g7
(lp7700
Vmental
p7701
atp7702
Rp7703
(dp7704
g17
VJJ
p7705
sbag5
(g6
g7
(lp7706
Vstate
p7707
atp7708
Rp7709
(dp7710
g17
VNN
p7711
sbatp7712
Rp7713
(dp7714
g17
VNP
p7715
sbag5
(g6
g7
(lp7716
g5
(g6
g7
(lp7717
Vof
p7718
atp7719
Rp7720
(dp7721
g17
VIN
p7722
sbag5
(g6
g7
(lp7723
g5
(g6
g7
(lp7724
Vthe
p7725
atp7726
Rp7727
(dp7728
g17
VDT
p7729
sbag5
(g6
g7
(lp7730
Vsource
p7731
atp7732
Rp7733
(dp7734
g17
VNN
p7735
sbatp7736
Rp7737
(dp7738
g17
VNP
p7739
sbatp7740
Rp7741
(dp7742
g17
VPP
p7743
sbatp7744
Rp7745
(dp7746
g17
VNP
p7747
sbatp7748
Rp7749
(dp7750
g17
VVP
p7751
sbatp7752
Rp7753
(dp7754
g17
VVP
p7755
sbatp7756
Rp7757
(dp7758
g17
g348
sbatp7759
Rp7760
(dp7761
g17
VNP
p7762
sbatp7763
Rp7764
(dp7765
g17
VVP
p7766
sbatp7767
Rp7768
(dp7769
g17
g348
sbag5
(g6
g7
(lp7770
g50
atp7771
Rp7772
(dp7773
g17
g50
sbag5
(g6
g7
(lp7774
Vbut
p7775
atp7776
Rp7777
(dp7778
g17
VCC
p7779
sbag5
(g6
g7
(lp7780
g5
(g6
g7
(lp7781
g5
(g6
g7
(lp7782
Vtheir
p7783
atp7784
Rp7785
(dp7786
g17
VPRP$
p7787
sbag5
(g6
g7
(lp7788
Vframing
p7789
atp7790
Rp7791
(dp7792
g17
VNN
p7793
sbag5
(g6
g7
(lp7794
Vfunction
p7795
atp7796
Rp7797
(dp7798
g17
VNN
p7799
sbatp7800
Rp7801
(dp7802
g17
VNP
p7803
sbag5
(g6
g7
(lp7804
g5
(g6
g7
(lp7805
Vis
p7806
atp7807
Rp7808
(dp7809
g17
VVBZ
p7810
sbag5
(g6
g7
(lp7811
g5
(g6
g7
(lp7812
g5
(g6
g7
(lp7813
Vthe
p7814
atp7815
Rp7816
(dp7817
g17
VDT
p7818
sbag5
(g6
g7
(lp7819
Vopposite
p7820
atp7821
Rp7822
(dp7823
g17
VNN
p7824
sbatp7825
Rp7826
(dp7827
g17
VNP
p7828
sbag5
(g6
g7
(lp7829
g5
(g6
g7
(lp7830
Vof
p7831
atp7832
Rp7833
(dp7834
g17
VIN
p7835
sbag5
(g6
g7
(lp7836
g5
(g6
g7
(lp7837
g5
(g6
g7
(lp7838
Vthe
p7839
atp7840
Rp7841
(dp7842
g17
VDT
p7843
sbag5
(g6
g7
(lp7844
Vpredicates
p7845
atp7846
Rp7847
(dp7848
g17
VNNS
p7849
sbatp7850
Rp7851
(dp7852
g17
VNP
p7853
sbag5
(g6
g7
(lp7854
g5
(g6
g7
(lp7855
Vof
p7856
atp7857
Rp7858
(dp7859
g17
VIN
p7860
sbag5
(g6
g7
(lp7861
g5
(g6
g7
(lp7862
Vknowledge
p7863
atp7864
Rp7865
(dp7866
g17
VNN
p7867
sbatp7868
Rp7869
(dp7870
g17
VNP
p7871
sbatp7872
Rp7873
(dp7874
g17
VPP
p7875
sbatp7876
Rp7877
(dp7878
g17
VNP
p7879
sbatp7880
Rp7881
(dp7882
g17
VPP
p7883
sbag5
(g6
g7
(lp7884
g5
(g6
g7
(lp7885
g5
(g6
g7
(lp7886
g5
(g6
g7
(lp7887
Vthey
p7888
atp7889
Rp7890
(dp7891
g17
VPRP
p7892
sbatp7893
Rp7894
(dp7895
g17
VNP
p7896
sbag5
(g6
g7
(lp7897
g5
(g6
g7
(lp7898
Vimply
p7899
atp7900
Rp7901
(dp7902
g17
VVBP
p7903
sbag5
(g6
g7
(lp7904
g5
(g6
g7
(lp7905
Vthat
p7906
atp7907
Rp7908
(dp7909
g17
VIN
p7910
sbag5
(g6
g7
(lp7911
g5
(g6
g7
(lp7912
g5
(g6
g7
(lp7913
Vit
p7914
atp7915
Rp7916
(dp7917
g17
VPRP
p7918
sbatp7919
Rp7920
(dp7921
g17
VNP
p7922
sbag5
(g6
g7
(lp7923
g5
(g6
g7
(lp7924
Vis
p7925
atp7926
Rp7927
(dp7928
g17
VVBZ
p7929
sbag5
(g6
g7
(lp7930
g5
(g6
g7
(lp7931
Vimportant
p7932
atp7933
Rp7934
(dp7935
g17
VJJ
p7936
sbag5
(g6
g7
(lp7937
g5
(g6
g7
(lp7938
g5
(g6
g7
(lp7939
Vto
p7940
atp7941
Rp7942
(dp7943
g17
VTO
p7944
sbag5
(g6
g7
(lp7945
g5
(g6
g7
(lp7946
Vmark
p7947
atp7948
Rp7949
(dp7950
g17
VVB
p7951
sbag5
(g6
g7
(lp7952
g5
(g6
g7
(lp7953
Vthe
p7954
atp7955
Rp7956
(dp7957
g17
VDT
p7958
sbag5
(g6
g7
(lp7959
Vclaim
p7960
atp7961
Rp7962
(dp7963
g17
VNN
p7964
sbatp7965
Rp7966
(dp7967
g17
VNP
p7968
sbag5
(g6
g7
(lp7969
g5
(g6
g7
(lp7970
Vas
p7971
atp7972
Rp7973
(dp7974
g17
VIN
p7975
sbag5
(g6
g7
(lp7976
g5
(g6
g7
(lp7977
g5
(g6
g7
(lp7978
g5
(g6
g7
(lp7979
g5
(g6
g7
(lp7980
Vthe
p7981
atp7982
Rp7983
(dp7984
g17
VDT
p7985
sbag5
(g6
g7
(lp7986
Vsource
p7987
atp7988
Rp7989
(dp7990
g17
VNN
p7991
sbag5
(g6
g7
(lp7992
g204
atp7993
Rp7994
(dp7995
g17
VNN
p7996
sbag5
(g6
g7
(lp7997
g210
atp7998
Rp7999
(dp8000
g17
VPOS
p8001
sbatp8002
Rp8003
(dp8004
g17
VNP
p8005
sbag5
(g6
g7
(lp8006
V\u005c
p8007
atp8008
Rp8009
(dp8010
g17
VJJ
p8011
sbag5
(g6
g7
(lp8012
Vu2019
p8013
atp8014
Rp8015
(dp8016
g17
VNNS
p8017
sbag5
(g6
g7
(lp8018
g210
atp8019
Rp8020
(dp8021
g17
VPOS
p8022
sbatp8023
Rp8024
(dp8025
g17
VNP
p8026
sbag5
(g6
g7
(lp8027
g286
atp8028
Rp8029
(dp8030
g17
VVBN
p8031
sbag5
(g6
g7
(lp8032
Vbelief
p8033
atp8034
Rp8035
(dp8036
g17
VNN
p8037
sbatp8038
Rp8039
(dp8040
g17
VNP
p8041
sbag5
(g6
g7
(lp8042
g50
atp8043
Rp8044
(dp8045
g17
g50
sbag5
(g6
g7
(lp8046
Vand
p8047
atp8048
Rp8049
(dp8050
g17
VCC
p8051
sbag5
(g6
g7
(lp8052
g5
(g6
g7
(lp8053
Vnot
p8054
atp8055
Rp8056
(dp8057
g17
VRB
p8058
sbag5
(g6
g7
(lp8059
g104
atp8060
Rp8061
(dp8062
g17
VDT
p8063
sbag5
(g6
g7
(lp8064
Vwidely-accepted
p8065
atp8066
Rp8067
(dp8068
g17
VJJ
p8069
sbag5
(g6
g7
(lp8070
Vfact
p8071
atp8072
Rp8073
(dp8074
g17
VNN
p8075
sbatp8076
Rp8077
(dp8078
g17
VNP
p8079
sbatp8080
Rp8081
(dp8082
g17
VNP
p8083
sbatp8084
Rp8085
(dp8086
g17
VPP
p8087
sbatp8088
Rp8089
(dp8090
g17
VVP
p8091
sbatp8092
Rp8093
(dp8094
g17
VVP
p8095
sbatp8096
Rp8097
(dp8098
g17
g348
sbatp8099
Rp8100
(dp8101
g17
VADJP
p8102
sbatp8103
Rp8104
(dp8105
g17
VVP
p8106
sbatp8107
Rp8108
(dp8109
g17
g348
sbatp8110
Rp8111
(dp8112
g17
VSBAR
p8113
sbatp8114
Rp8115
(dp8116
g17
VVP
p8117
sbatp8118
Rp8119
(dp8120
g17
g348
sbatp8121
Rp8122
(dp8123
g17
VSBAR
p8124
sbatp8125
Rp8126
(dp8127
g17
VNP
p8128
sbatp8129
Rp8130
(dp8131
g17
VVP
p8132
sbatp8133
Rp8134
(dp8135
g17
g348
sbatp8136
Rp8137
(dp8138
g17
g348
sbatp8139
Rp8140
(dp8141
g17
VFRAG
p8142
sbatp8143
Rp8144
(dp8145
g17
VROOT
p8146
sbag5
(g6
g7
(lp8147
g5
(g6
g7
(lp8148
g5
(g6
g7
(lp8149
g5
(g6
g7
(lp8150
VFor
p8151
atp8152
Rp8153
(dp8154
g17
VIN
p8155
sbag5
(g6
g7
(lp8156
g5
(g6
g7
(lp8157
Vexample
p8158
atp8159
Rp8160
(dp8161
g17
VNN
p8162
sbatp8163
Rp8164
(dp8165
g17
VNP
p8166
sbatp8167
Rp8168
(dp8169
g17
VPP
p8170
sbag5
(g6
g7
(lp8171
g50
atp8172
Rp8173
(dp8174
g17
g50
sbag5
(g6
g7
(lp8175
g5
(g6
g7
(lp8176
VMubarak
p8177
atp8178
Rp8179
(dp8180
g17
VNNP
p8181
sbatp8182
Rp8183
(dp8184
g17
VNP
p8185
sbag5
(g6
g7
(lp8186
g5
(g6
g7
(lp8187
Vclearly
p8188
atp8189
Rp8190
(dp8191
g17
VRB
p8192
sbatp8193
Rp8194
(dp8195
g17
VADVP
p8196
sbag5
(g6
g7
(lp8197
g5
(g6
g7
(lp8198
Vbelieves
p8199
atp8200
Rp8201
(dp8202
g17
VVBZ
p8203
sbag5
(g6
g7
(lp8204
g5
(g6
g7
(lp8205
g5
(g6
g7
(lp8206
g5
(g6
g7
(lp8207
Vhe
p8208
atp8209
Rp8210
(dp8211
g17
VPRP
p8212
sbatp8213
Rp8214
(dp8215
g17
VNP
p8216
sbag5
(g6
g7
(lp8217
g5
(g6
g7
(lp8218
Vhas
p8219
atp8220
Rp8221
(dp8222
g17
VVBZ
p8223
sbag5
(g6
g7
(lp8224
g5
(g6
g7
(lp8225
g5
(g6
g7
(lp8226
g5
(g6
g7
(lp8227
Vthe
p8228
atp8229
Rp8230
(dp8231
g17
VDT
p8232
sbag5
(g6
g7
(lp8233
Vmilitary
p8234
atp8235
Rp8236
(dp8237
g17
VJJ
p8238
sbag5
(g6
g7
(lp8239
Vleadership
p8240
atp8241
Rp8242
(dp8243
g17
VNN
p8244
sbag5
(g6
g7
(lp8245
g204
atp8246
Rp8247
(dp8248
g17
VNN
p8249
sbag5
(g6
g7
(lp8250
g210
atp8251
Rp8252
(dp8253
g17
VPOS
p8254
sbatp8255
Rp8256
(dp8257
g17
VNP
p8258
sbag5
(g6
g7
(lp8259
V\u005c
p8260
atp8261
Rp8262
(dp8263
g17
VJJ
p8264
sbag5
(g6
g7
(lp8265
Vu2019
p8266
atp8267
Rp8268
(dp8269
g17
VNNS
p8270
sbag5
(g6
g7
(lp8271
g210
atp8272
Rp8273
(dp8274
g17
VPOS
p8275
sbatp8276
Rp8277
(dp8278
g17
VNP
p8279
sbag5
(g6
g7
(lp8280
g286
atp8281
Rp8282
(dp8283
g17
VJJ
p8284
sbag5
(g6
g7
(lp8285
Vsupport
p8286
atp8287
Rp8288
(dp8289
g17
VNN
p8290
sbatp8291
Rp8292
(dp8293
g17
VNP
p8294
sbatp8295
Rp8296
(dp8297
g17
VVP
p8298
sbatp8299
Rp8300
(dp8301
g17
g348
sbatp8302
Rp8303
(dp8304
g17
VSBAR
p8305
sbatp8306
Rp8307
(dp8308
g17
VVP
p8309
sbatp8310
Rp8311
(dp8312
g17
g348
sbatp8313
Rp8314
(dp8315
g17
VROOT
p8316
sbasg353
(icmyPackage
CorE
p8317
(dp8318
g356
(lp8319
(I0
I43
tp8320
a(I1
I16
tp8321
asg360
g5
(g6
g7
(lp8322
g8081
ag8168
ag8173
ag8183
ag8194
ag8201
ag8214
ag8221
ag8277
ag8282
atp8323
Rp8324
(dp8325
g17
g371
sbsbsg361
(icmyPackage
CorE
p8326
(dp8327
g356
(lp8328
(I0
I12
tp8329
a(I0
I41
tp8330
asg360
g5
(g6
g7
(lp8331
g7745
ag7772
ag7777
ag7801
ag7808
ag7826
ag7881
ag7894
ag7901
ag7908
ag7920
ag7927
ag7934
ag7942
ag7949
ag7966
atp8332
Rp8333
(dp8334
g17
g371
sbsbsg372
g928
sg395
(lp8335
(isxpPackage
sxpSent
p8336
(dp8337
g399
(lp8338
I20
asg401
VThe words suggest , think , and believe also purport to describe the private mental state of the source, but their framing function is the opposite of the predicates of knowledge they imply that it is important to mark the claim as the source u'\u005cu2019' s belief, and not a widely-accepted fact
p8339
sg403
I7
sg387
I90
sg404
I28
sba(isxpPackage
sxpSent
p8340
(dp8341
g399
(lp8342
I20
asg401
VFor example, Mubarak clearly believes he has the military leadership u'\u005cu2019' s support
p8343
sg403
I7
sg387
I91
sg404
I28
sbasba(icmyPackage
CELink
p8344
(dp8345
g3
(lp8346
g5
(g6
g7
(lp8347
g5
(g6
g7
(lp8348
g5
(g6
g7
(lp8349
g5
(g6
g7
(lp8350
g5
(g6
g7
(lp8351
VBoth
p8352
atp8353
Rp8354
(dp8355
g17
VDT
p8356
sbatp8357
Rp8358
(dp8359
g17
VNP
p8360
sbag5
(g6
g7
(lp8361
g5
(g6
g7
(lp8362
Vaccording
p8363
atp8364
Rp8365
(dp8366
g17
VVBG
p8367
sbag5
(g6
g7
(lp8368
g5
(g6
g7
(lp8369
Vand
p8370
atp8371
Rp8372
(dp8373
g17
VNNP
p8374
sbag5
(g6
g7
(lp8375
Vreport
p8376
atp8377
Rp8378
(dp8379
g17
VNN
p8380
sbatp8381
Rp8382
(dp8383
g17
VNP
p8384
sbatp8385
Rp8386
(dp8387
g17
VPP
p8388
sbatp8389
Rp8390
(dp8391
g17
VNP
p8392
sbag5
(g6
g7
(lp8393
g5
(g6
g7
(lp8394
Vare
p8395
atp8396
Rp8397
(dp8398
g17
VVBP
p8399
sbag5
(g6
g7
(lp8400
g5
(g6
g7
(lp8401
Voften
p8402
atp8403
Rp8404
(dp8405
g17
VRB
p8406
sbatp8407
Rp8408
(dp8409
g17
VADVP
p8410
sbag5
(g6
g7
(lp8411
g5
(g6
g7
(lp8412
Vused
p8413
atp8414
Rp8415
(dp8416
g17
VVBN
p8417
sbag5
(g6
g7
(lp8418
g5
(g6
g7
(lp8419
Vin
p8420
atp8421
Rp8422
(dp8423
g17
VIN
p8424
sbag5
(g6
g7
(lp8425
g5
(g6
g7
(lp8426
Vconjunction
p8427
atp8428
Rp8429
(dp8430
g17
VNN
p8431
sbatp8432
Rp8433
(dp8434
g17
VNP
p8435
sbatp8436
Rp8437
(dp8438
g17
VPP
p8439
sbag5
(g6
g7
(lp8440
g5
(g6
g7
(lp8441
Vwith
p8442
atp8443
Rp8444
(dp8445
g17
VIN
p8446
sbag5
(g6
g7
(lp8447
g5
(g6
g7
(lp8448
g5
(g6
g7
(lp8449
Vimpersonal
p8450
atp8451
Rp8452
(dp8453
g17
VJJ
p8454
sbag5
(g6
g7
(lp8455
Vand
p8456
atp8457
Rp8458
(dp8459
g17
VCC
p8460
sbag5
(g6
g7
(lp8461
Vinstitutional
p8462
atp8463
Rp8464
(dp8465
g17
VJJ
p8466
sbag5
(g6
g7
(lp8467
Vsources
p8468
atp8469
Rp8470
(dp8471
g17
VNNS
p8472
sbatp8473
Rp8474
(dp8475
g17
VNP
p8476
sbag5
(g6
g7
(lp8477
g50
atp8478
Rp8479
(dp8480
g17
g50
sbag5
(g6
g7
(lp8481
g5
(g6
g7
(lp8482
Ve.g.
p8483
atp8484
Rp8485
(dp8486
g17
VNNP
p8487
sbatp8488
Rp8489
(dp8490
g17
VNP
p8491
sbag5
(g6
g7
(lp8492
g50
atp8493
Rp8494
(dp8495
g17
g50
sbatp8496
Rp8497
(dp8498
g17
VNP
p8499
sbatp8500
Rp8501
(dp8502
g17
VPP
p8503
sbag5
(g6
g7
(lp8504
g5
(g6
g7
(lp8505
g50
atp8506
Rp8507
(dp8508
g17
g50
sbag5
(g6
g7
(lp8509
g5
(g6
g7
(lp8510
g5
(g6
g7
(lp8511
VCuccinelli
p8512
atp8513
Rp8514
(dp8515
g17
VNNP
p8516
sbatp8517
Rp8518
(dp8519
g17
VNP
p8520
sbag5
(g6
g7
(lp8521
g5
(g6
g7
(lp8522
Vtrails
p8523
atp8524
Rp8525
(dp8526
g17
VVBZ
p8527
sbag5
(g6
g7
(lp8528
g5
(g6
g7
(lp8529
VMcAuliffe
p8530
atp8531
Rp8532
(dp8533
g17
VNNP
p8534
sbatp8535
Rp8536
(dp8537
g17
VNP
p8538
sbag5
(g6
g7
(lp8539
g5
(g6
g7
(lp8540
Vby
p8541
atp8542
Rp8543
(dp8544
g17
VIN
p8545
sbag5
(g6
g7
(lp8546
g5
(g6
g7
(lp8547
V24
p8548
atp8549
Rp8550
(dp8551
g17
VCD
p8552
sbag5
(g6
g7
(lp8553
Vpoints
p8554
atp8555
Rp8556
(dp8557
g17
VNNS
p8558
sbatp8559
Rp8560
(dp8561
g17
VNP
p8562
sbatp8563
Rp8564
(dp8565
g17
VPP
p8566
sbatp8567
Rp8568
(dp8569
g17
VVP
p8570
sbatp8571
Rp8572
(dp8573
g17
g348
sbag5
(g6
g7
(lp8574
g50
atp8575
Rp8576
(dp8577
g17
g50
sbatp8578
Rp8579
(dp8580
g17
VPRN
p8581
sbag5
(g6
g7
(lp8582
g5
(g6
g7
(lp8583
Vaccording
p8584
atp8585
Rp8586
(dp8587
g17
VVBG
p8588
sbag5
(g6
g7
(lp8589
g5
(g6
g7
(lp8590
Vto
p8591
atp8592
Rp8593
(dp8594
g17
VTO
p8595
sbag5
(g6
g7
(lp8596
g5
(g6
g7
(lp8597
g104
atp8598
Rp8599
(dp8600
g17
VDT
p8601
sbag5
(g6
g7
(lp8602
Vnew
p8603
atp8604
Rp8605
(dp8606
g17
VJJ
p8607
sbag5
(g6
g7
(lp8608
Vpoll
p8609
atp8610
Rp8611
(dp8612
g17
VNN
p8613
sbatp8614
Rp8615
(dp8616
g17
VNP
p8617
sbatp8618
Rp8619
(dp8620
g17
VPP
p8621
sbatp8622
Rp8623
(dp8624
g17
VPP
p8625
sbatp8626
Rp8627
(dp8628
g17
VVP
p8629
sbatp8630
Rp8631
(dp8632
g17
VVP
p8633
sbatp8634
Rp8635
(dp8636
g17
g348
sbatp8637
Rp8638
(dp8639
g17
VROOT
p8640
sbasg353
(icmyPackage
CorE
p8641
(dp8642
g356
(lp8643
(I0
I27
tp8644
a(I0
I29
tp8645
asg360
g8615
sbsg361
(icmyPackage
CorE
p8646
(dp8647
g356
(lp8648
(I0
I0
tp8649
a(I0
I23
tp8650
asg360
g5
(g6
g7
(lp8651
g8390
ag8397
ag8408
ag8415
ag8437
ag8501
ag8507
ag8572
atp8652
Rp8653
(dp8654
g17
g371
sbsbsg372
g373
sg395
(lp8655
(isxpPackage
sxpSent
p8656
(dp8657
g399
(lp8658
I21
asg401
VBoth according and report are often used in conjunction with impersonal and institutional sources, e.g.,, Cuccinelli trails McAuliffe by 24 points , according to a new poll
p8659
sg403
I7
sg387
I94
sg404
I29
sbasba(icmyPackage
CELink
p8660
(dp8661
g3
(lp8662
g5
(g6
g7
(lp8663
g5
(g6
g7
(lp8664
g5
(g6
g7
(lp8665
g5
(g6
g7
(lp8666
VIn
p8667
atp8668
Rp8669
(dp8670
g17
VIN
p8671
sbag5
(g6
g7
(lp8672
g5
(g6
g7
(lp8673
Vthis
p8674
atp8675
Rp8676
(dp8677
g17
VDT
p8678
sbag5
(g6
g7
(lp8679
Vcase
p8680
atp8681
Rp8682
(dp8683
g17
VNN
p8684
sbatp8685
Rp8686
(dp8687
g17
VNP
p8688
sbatp8689
Rp8690
(dp8691
g17
VPP
p8692
sbag5
(g6
g7
(lp8693
g50
atp8694
Rp8695
(dp8696
g17
g50
sbag5
(g6
g7
(lp8697
g5
(g6
g7
(lp8698
g5
(g6
g7
(lp8699
Vthe
p8700
atp8701
Rp8702
(dp8703
g17
VDT
p8704
sbag5
(g6
g7
(lp8705
Vfact
p8706
atp8707
Rp8708
(dp8709
g17
VNN
p8710
sbatp8711
Rp8712
(dp8713
g17
VNP
p8714
sbag5
(g6
g7
(lp8715
g5
(g6
g7
(lp8716
Vthat
p8717
atp8718
Rp8719
(dp8720
g17
VIN
p8721
sbag5
(g6
g7
(lp8722
g5
(g6
g7
(lp8723
g5
(g6
g7
(lp8724
Vthe
p8725
atp8726
Rp8727
(dp8728
g17
VDT
p8729
sbag5
(g6
g7
(lp8730
Vpredicate
p8731
atp8732
Rp8733
(dp8734
g17
VNN
p8735
sbatp8736
Rp8737
(dp8738
g17
VNP
p8739
sbag5
(g6
g7
(lp8740
g5
(g6
g7
(lp8741
Vindicates
p8742
atp8743
Rp8744
(dp8745
g17
VVBZ
p8746
sbag5
(g6
g7
(lp8747
g5
(g6
g7
(lp8748
g5
(g6
g7
(lp8749
g5
(g6
g7
(lp8750
g104
atp8751
Rp8752
(dp8753
g17
VDT
p8754
sbag5
(g6
g7
(lp8755
Vreport
p8756
atp8757
Rp8758
(dp8759
g17
VNN
p8760
sbatp8761
Rp8762
(dp8763
g17
VNP
p8764
sbag5
(g6
g7
(lp8765
g5
(g6
g7
(lp8766
Vis
p8767
atp8768
Rp8769
(dp8770
g17
VVBZ
p8771
sbag5
(g6
g7
(lp8772
Vnot
p8773
atp8774
Rp8775
(dp8776
g17
VRB
p8777
sbag5
(g6
g7
(lp8778
g5
(g6
g7
(lp8779
Venough
p8780
atp8781
Rp8782
(dp8783
g17
VJJ
p8784
sbag5
(g6
g7
(lp8785
g5
(g6
g7
(lp8786
g5
(g6
g7
(lp8787
Vto
p8788
atp8789
Rp8790
(dp8791
g17
VTO
p8792
sbag5
(g6
g7
(lp8793
g5
(g6
g7
(lp8794
Vdetermine
p8795
atp8796
Rp8797
(dp8798
g17
VVB
p8799
sbag5
(g6
g7
(lp8800
g5
(g6
g7
(lp8801
g5
(g6
g7
(lp8802
Vthe
p8803
atp8804
Rp8805
(dp8806
g17
VDT
p8807
sbag5
(g6
g7
(lp8808
Vframing
p8809
atp8810
Rp8811
(dp8812
g17
VJJ
p8813
sbag5
(g6
g7
(lp8814
Vdifferent
p8815
atp8816
Rp8817
(dp8818
g17
VJJ
p8819
sbag5
(g6
g7
(lp8820
Vsorts
p8821
atp8822
Rp8823
(dp8824
g17
VNNS
p8825
sbatp8826
Rp8827
(dp8828
g17
VNP
p8829
sbag5
(g6
g7
(lp8830
g5
(g6
g7
(lp8831
Vof
p8832
atp8833
Rp8834
(dp8835
g17
VIN
p8836
sbag5
(g6
g7
(lp8837
g5
(g6
g7
(lp8838
Vreports
p8839
atp8840
Rp8841
(dp8842
g17
VNNS
p8843
sbatp8844
Rp8845
(dp8846
g17
VNP
p8847
sbatp8848
Rp8849
(dp8850
g17
VPP
p8851
sbatp8852
Rp8853
(dp8854
g17
VNP
p8855
sbatp8856
Rp8857
(dp8858
g17
VVP
p8859
sbatp8860
Rp8861
(dp8862
g17
VVP
p8863
sbatp8864
Rp8865
(dp8866
g17
g348
sbatp8867
Rp8868
(dp8869
g17
VADJP
p8870
sbatp8871
Rp8872
(dp8873
g17
VVP
p8874
sbatp8875
Rp8876
(dp8877
g17
g348
sbatp8878
Rp8879
(dp8880
g17
VSBAR
p8881
sbatp8882
Rp8883
(dp8884
g17
VVP
p8885
sbatp8886
Rp8887
(dp8888
g17
g348
sbatp8889
Rp8890
(dp8891
g17
VSBAR
p8892
sbatp8893
Rp8894
(dp8895
g17
VNP
p8896
sbag5
(g6
g7
(lp8897
g5
(g6
g7
(lp8898
Vcarry
p8899
atp8900
Rp8901
(dp8902
g17
VVBP
p8903
sbag5
(g6
g7
(lp8904
g5
(g6
g7
(lp8905
g5
(g6
g7
(lp8906
g5
(g6
g7
(lp8907
Vradically
p8908
atp8909
Rp8910
(dp8911
g17
VRB
p8912
sbag5
(g6
g7
(lp8913
Vdifferent
p8914
atp8915
Rp8916
(dp8917
g17
VJJ
p8918
sbatp8919
Rp8920
(dp8921
g17
VADJP
p8922
sbag5
(g6
g7
(lp8923
Vperceptions
p8924
atp8925
Rp8926
(dp8927
g17
VNNS
p8928
sbatp8929
Rp8930
(dp8931
g17
VNP
p8932
sbag5
(g6
g7
(lp8933
g5
(g6
g7
(lp8934
Vof
p8935
atp8936
Rp8937
(dp8938
g17
VIN
p8939
sbag5
(g6
g7
(lp8940
g5
(g6
g7
(lp8941
Vfactuality
p8942
atp8943
Rp8944
(dp8945
g17
VNN
p8946
sbatp8947
Rp8948
(dp8949
g17
VNP
p8950
sbatp8951
Rp8952
(dp8953
g17
VPP
p8954
sbatp8955
Rp8956
(dp8957
g17
VNP
p8958
sbatp8959
Rp8960
(dp8961
g17
VVP
p8962
sbatp8963
Rp8964
(dp8965
g17
g348
sbatp8966
Rp8967
(dp8968
g17
VROOT
p8969
sbasg353
(icmyPackage
CorE
p8970
(dp8971
g356
(lp8972
(I0
I4
tp8973
a(I0
I8
tp8974
asg360
g5
(g6
g7
(lp8975
g8712
ag8719
ag8737
atp8976
Rp8977
(dp8978
g17
g371
sbsbsg361
(icmyPackage
CorE
p8979
(dp8980
g356
(lp8981
(I0
I10
tp8982
a(I0
I28
tp8983
asg360
g5
(g6
g7
(lp8984
g8879
ag8960
atp8985
Rp8986
(dp8987
g17
g371
sbsbsg372
(icmyPackage
pattern
p8988
(dp8989
g375
I0
sg376
I0
sg377
(lp8990
(lp8991
(lp8992
S'indicate'
p8993
aS'indicates'
p8994
aS'indicated'
p8995
aS'realize'
p8996
aS'realizes'
p8997
aS'realized'
p8998
aS'ensure'
p8999
aS'ensures'
p9000
aS'ensured'
p9001
aS'imply'
p9002
aS'implies'
p9003
aS'implied'
p9004
aaasg382
(lp9005
I4
aI1
aI1
asg384
(lp9006
S'The basic characteristics and principles of language use and understanding indicate the following dimensions for evaluating a summarization'
p9007
asg387
I88
sg388
(lp9008
(lp9009
S'&NP@C@'
p9010
aS'(&Clause@C@)'
p9011
aa(lp9012
S'&NP@R@'
p9013
aS'(&Clause@R@)'
p9014
aasbsg395
(lp9015
(isxpPackage
sxpSent
p9016
(dp9017
g399
(lp9018
I22
asg401
VIn this case, the fact that the predicate indicates a report is not enough to determine the framing different sorts of reports carry radically different perceptions of factuality
p9019
sg403
I7
sg387
I96
sg404
I29
sbasba(icmyPackage
CELink
p9020
(dp9021
g3
(lp9022
g5
(g6
g7
(lp9023
g5
(g6
g7
(lp9024
g5
(g6
g7
(lp9025
g5
(g6
g7
(lp9026
g5
(g6
g7
(lp9027
VThe
p9028
atp9029
Rp9030
(dp9031
g17
VDT
p9032
sbag5
(g6
g7
(lp9033
Vsearch
p9034
atp9035
Rp9036
(dp9037
g17
VNN
p9038
sbatp9039
Rp9040
(dp9041
g17
VNP
p9042
sbag5
(g6
g7
(lp9043
g5
(g6
g7
(lp9044
Vfor
p9045
atp9046
Rp9047
(dp9048
g17
VIN
p9049
sbag5
(g6
g7
(lp9050
g5
(g6
g7
(lp9051
g5
(g6
g7
(lp9052
Vreliable
p9053
atp9054
Rp9055
(dp9056
g17
VJJ
p9057
sbag5
(g6
g7
(lp9058
Vsignals
p9059
atp9060
Rp9061
(dp9062
g17
VNNS
p9063
sbatp9064
Rp9065
(dp9066
g17
VNP
p9067
sbag5
(g6
g7
(lp9068
g5
(g6
g7
(lp9069
Vof
p9070
atp9071
Rp9072
(dp9073
g17
VIN
p9074
sbag5
(g6
g7
(lp9075
g5
(g6
g7
(lp9076
g5
(g6
g7
(lp9077
Vinformation
p9078
atp9079
Rp9080
(dp9081
g17
VNN
p9082
sbag5
(g6
g7
(lp9083
Vcredibility
p9084
atp9085
Rp9086
(dp9087
g17
VNN
p9088
sbatp9089
Rp9090
(dp9091
g17
VNP
p9092
sbag5
(g6
g7
(lp9093
g5
(g6
g7
(lp9094
Vin
p9095
atp9096
Rp9097
(dp9098
g17
VIN
p9099
sbag5
(g6
g7
(lp9100
g5
(g6
g7
(lp9101
Vsocial
p9102
atp9103
Rp9104
(dp9105
g17
VJJ
p9106
sbag5
(g6
g7
(lp9107
Vmedia
p9108
atp9109
Rp9110
(dp9111
g17
VNNS
p9112
sbatp9113
Rp9114
(dp9115
g17
VNP
p9116
sbatp9117
Rp9118
(dp9119
g17
VPP
p9120
sbatp9121
Rp9122
(dp9123
g17
VNP
p9124
sbatp9125
Rp9126
(dp9127
g17
VPP
p9128
sbatp9129
Rp9130
(dp9131
g17
VNP
p9132
sbatp9133
Rp9134
(dp9135
g17
VPP
p9136
sbatp9137
Rp9138
(dp9139
g17
VNP
p9140
sbag5
(g6
g7
(lp9141
g5
(g6
g7
(lp9142
Vhas
p9143
atp9144
Rp9145
(dp9146
g17
VVBZ
p9147
sbag5
(g6
g7
(lp9148
g5
(g6
g7
(lp9149
Vled
p9150
atp9151
Rp9152
(dp9153
g17
VVBN
p9154
sbag5
(g6
g7
(lp9155
g5
(g6
g7
(lp9156
Vto
p9157
atp9158
Rp9159
(dp9160
g17
VTO
p9161
sbag5
(g6
g7
(lp9162
g5
(g6
g7
(lp9163
g5
(g6
g7
(lp9164
Vthe
p9165
atp9166
Rp9167
(dp9168
g17
VDT
p9169
sbag5
(g6
g7
(lp9170
Vconstruction
p9171
atp9172
Rp9173
(dp9174
g17
VNN
p9175
sbatp9176
Rp9177
(dp9178
g17
VNP
p9179
sbag5
(g6
g7
(lp9180
g5
(g6
g7
(lp9181
Vof
p9182
atp9183
Rp9184
(dp9185
g17
VIN
p9186
sbag5
(g6
g7
(lp9187
g5
(g6
g7
(lp9188
Vautomatic
p9189
atp9190
Rp9191
(dp9192
g17
VJJ
p9193
sbag5
(g6
g7
(lp9194
Vclassifiers
p9195
atp9196
Rp9197
(dp9198
g17
VNNS
p9199
sbatp9200
Rp9201
(dp9202
g17
VNP
p9203
sbatp9204
Rp9205
(dp9206
g17
VPP
p9207
sbatp9208
Rp9209
(dp9210
g17
VNP
p9211
sbatp9212
Rp9213
(dp9214
g17
VPP
p9215
sbag5
(g6
g7
(lp9216
g5
(g6
g7
(lp9217
g5
(g6
g7
(lp9218
Vto
p9219
atp9220
Rp9221
(dp9222
g17
VTO
p9223
sbag5
(g6
g7
(lp9224
g5
(g6
g7
(lp9225
Videntify
p9226
atp9227
Rp9228
(dp9229
g17
VVB
p9230
sbag5
(g6
g7
(lp9231
g5
(g6
g7
(lp9232
Vcredible
p9233
atp9234
Rp9235
(dp9236
g17
VJJ
p9237
sbag5
(g6
g7
(lp9238
Vtweets
p9239
atp9240
Rp9241
(dp9242
g17
VNNS
p9243
sbatp9244
Rp9245
(dp9246
g17
VNP
p9247
sbag5
(g6
g7
(lp9248
g5
(g6
g7
(lp9249
g5
(g6
g7
(lp9250
V-LSB-
p9251
atp9252
Rp9253
(dp9254
g17
VVBG
p9255
sbag5
(g6
g7
(lp9256
g5
(g6
g7
(lp9257
g4434
atp9258
Rp9259
(dp9260
g17
VCD
p9261
sbag5
(g6
g7
(lp9262
V-RSB-
p9263
atp9264
Rp9265
(dp9266
g17
VNNS
p9267
sbatp9268
Rp9269
(dp9270
g17
VNP
p9271
sbatp9272
Rp9273
(dp9274
g17
VVP
p9275
sbatp9276
Rp9277
(dp9278
g17
g348
sbatp9279
Rp9280
(dp9281
g17
VVP
p9282
sbatp9283
Rp9284
(dp9285
g17
VVP
p9286
sbatp9287
Rp9288
(dp9289
g17
g348
sbatp9290
Rp9291
(dp9292
g17
VVP
p9293
sbatp9294
Rp9295
(dp9296
g17
VVP
p9297
sbatp9298
Rp9299
(dp9300
g17
g348
sbatp9301
Rp9302
(dp9303
g17
VROOT
p9304
sbasg353
(icmyPackage
CorE
p9305
(dp9306
g356
(lp9307
(I0
I0
tp9308
a(I0
I10
tp9309
asg360
g9138
sbsg361
(icmyPackage
CorE
p9310
(dp9311
g356
(lp9312
(I0
I14
tp9313
a(I0
I25
tp9314
asg360
g5
(g6
g7
(lp9315
g9209
ag9288
atp9316
Rp9317
(dp9318
g17
g371
sbsbsg372
(icmyPackage
pattern
p9319
(dp9320
g375
I0
sg376
I0
sg377
(lp9321
(lp9322
(lp9323
S'lead'
p9324
aS'leads'
p9325
aS'led'
p9326
aaS'to'
p9327
aasg382
(lp9328
I4
aI1
aI1
asg384
(lp9329
S'Multi-disciplinary study will lead to breakthrough in sciences, technologies, engineering and philosophy.'
p9330
asg387
I86
sg388
(lp9331
(lp9332
S'&V-ing/&NP@C@'
p9333
aS'(&CAN/have/has/had)'
p9334
aa(lp9335
S'&NP@R@'
p9336
aS'(&Clause@R@)'
p9337
aasbsg395
(lp9338
(isxpPackage
sxpSent
p9339
(dp9340
g399
(lp9341
I23
asg401
VThe search for reliable signals of information credibility in social media has led to the construction of automatic classifiers to identify credible tweets [ 2 ]
p9342
sg403
I8
sg387
I108
sg404
I31
sbasba(icmyPackage
CELink
p9343
(dp9344
g3
(lp9345
g5
(g6
g7
(lp9346
g5
(g6
g7
(lp9347
g5
(g6
g7
(lp9348
g5
(g6
g7
(lp9349
g5
(g6
g7
(lp9350
VThis
p9351
atp9352
Rp9353
(dp9354
g17
VDT
p9355
sbag5
(g6
g7
(lp9356
Vresult
p9357
atp9358
Rp9359
(dp9360
g17
VNN
p9361
sbatp9362
Rp9363
(dp9364
g17
VNP
p9365
sbag5
(g6
g7
(lp9366
g5
(g6
g7
(lp9367
Vis
p9368
atp9369
Rp9370
(dp9371
g17
VVBZ
p9372
sbag5
(g6
g7
(lp9373
g5
(g6
g7
(lp9374
Vobtained
p9375
atp9376
Rp9377
(dp9378
g17
VVBN
p9379
sbag5
(g6
g7
(lp9380
g5
(g6
g7
(lp9381
Vfrom
p9382
atp9383
Rp9384
(dp9385
g17
VIN
p9386
sbag5
(g6
g7
(lp9387
g5
(g6
g7
(lp9388
g5
(g6
g7
(lp9389
Vreal
p9390
atp9391
Rp9392
(dp9393
g17
VJJ
p9394
sbag5
(g6
g7
(lp9395
Vtweets
p9396
atp9397
Rp9398
(dp9399
g17
VNNS
p9400
sbatp9401
Rp9402
(dp9403
g17
VNP
p9404
sbag5
(g6
g7
(lp9405
g5
(g6
g7
(lp9406
Vwritten
p9407
atp9408
Rp9409
(dp9410
g17
VVBN
p9411
sbag5
(g6
g7
(lp9412
g5
(g6
g7
(lp9413
Vby
p9414
atp9415
Rp9416
(dp9417
g17
VIN
p9418
sbag5
(g6
g7
(lp9419
g5
(g6
g7
(lp9420
Vjournalists
p9421
atp9422
Rp9423
(dp9424
g17
VNNS
p9425
sbatp9426
Rp9427
(dp9428
g17
VNP
p9429
sbatp9430
Rp9431
(dp9432
g17
VPP
p9433
sbatp9434
Rp9435
(dp9436
g17
VVP
p9437
sbatp9438
Rp9439
(dp9440
g17
VNP
p9441
sbatp9442
Rp9443
(dp9444
g17
VPP
p9445
sbatp9446
Rp9447
(dp9448
g17
VVP
p9449
sbatp9450
Rp9451
(dp9452
g17
VVP
p9453
sbatp9454
Rp9455
(dp9456
g17
g348
sbag5
(g6
g7
(lp9457
g7360
atp9458
Rp9459
(dp9460
g17
g7364
sbag5
(g6
g7
(lp9461
g5
(g6
g7
(lp9462
g5
(g6
g7
(lp9463
g104
atp9464
Rp9465
(dp9466
g17
VDT
p9467
sbag5
(g6
g7
(lp9468
Vnatural
p9469
atp9470
Rp9471
(dp9472
g17
VJJ
p9473
sbag5
(g6
g7
(lp9474
Vcounterpart
p9475
atp9476
Rp9477
(dp9478
g17
VNN
p9479
sbag5
(g6
g7
(lp9480
Vstudy
p9481
atp9482
Rp9483
(dp9484
g17
VNN
p9485
sbatp9486
Rp9487
(dp9488
g17
VNP
p9489
sbag5
(g6
g7
(lp9490
g5
(g6
g7
(lp9491
Vwould
p9492
atp9493
Rp9494
(dp9495
g17
VMD
p9496
sbag5
(g6
g7
(lp9497
g5
(g6
g7
(lp9498
Vbe
p9499
atp9500
Rp9501
(dp9502
g17
VVB
p9503
sbag5
(g6
g7
(lp9504
g5
(g6
g7
(lp9505
g5
(g6
g7
(lp9506
Vto
p9507
atp9508
Rp9509
(dp9510
g17
VTO
p9511
sbag5
(g6
g7
(lp9512
g5
(g6
g7
(lp9513
g5
(g6
g7
(lp9514
Vexperimentally
p9515
atp9516
Rp9517
(dp9518
g17
VRB
p9519
sbatp9520
Rp9521
(dp9522
g17
VADVP
p9523
sbag5
(g6
g7
(lp9524
Vmanipulate
p9525
atp9526
Rp9527
(dp9528
g17
VVB
p9529
sbag5
(g6
g7
(lp9530
g5
(g6
g7
(lp9531
Vthis
p9532
atp9533
Rp9534
(dp9535
g17
VDT
p9536
sbag5
(g6
g7
(lp9537
Vframing
p9538
atp9539
Rp9540
(dp9541
g17
VNN
p9542
sbag5
(g6
g7
(lp9543
g5
(g6
g7
(lp9544
g5
(g6
g7
(lp9545
Vto
p9546
atp9547
Rp9548
(dp9549
g17
VTO
p9550
sbag5
(g6
g7
(lp9551
g5
(g6
g7
(lp9552
Vsee
p9553
atp9554
Rp9555
(dp9556
g17
VVB
p9557
sbag5
(g6
g7
(lp9558
g5
(g6
g7
(lp9559
Vif
p9560
atp9561
Rp9562
(dp9563
g17
VIN
p9564
sbag5
(g6
g7
(lp9565
g5
(g6
g7
(lp9566
g5
(g6
g7
(lp9567
Vthe
p9568
atp9569
Rp9570
(dp9571
g17
VDT
p9572
sbag5
(g6
g7
(lp9573
Vsame
p9574
atp9575
Rp9576
(dp9577
g17
VJJ
p9578
sbag5
(g6
g7
(lp9579
Vperceptions
p9580
atp9581
Rp9582
(dp9583
g17
VNNS
p9584
sbatp9585
Rp9586
(dp9587
g17
VNP
p9588
sbag5
(g6
g7
(lp9589
g5
(g6
g7
(lp9590
Vapply
p9591
atp9592
Rp9593
(dp9594
g17
VVBP
p9595
sbatp9596
Rp9597
(dp9598
g17
VVP
p9599
sbatp9600
Rp9601
(dp9602
g17
g348
sbatp9603
Rp9604
(dp9605
g17
VSBAR
p9606
sbatp9607
Rp9608
(dp9609
g17
VVP
p9610
sbatp9611
Rp9612
(dp9613
g17
VVP
p9614
sbatp9615
Rp9616
(dp9617
g17
g348
sbatp9618
Rp9619
(dp9620
g17
VNP
p9621
sbatp9622
Rp9623
(dp9624
g17
VVP
p9625
sbatp9626
Rp9627
(dp9628
g17
VVP
p9629
sbatp9630
Rp9631
(dp9632
g17
g348
sbatp9633
Rp9634
(dp9635
g17
VVP
p9636
sbatp9637
Rp9638
(dp9639
g17
VVP
p9640
sbatp9641
Rp9642
(dp9643
g17
g348
sbatp9644
Rp9645
(dp9646
g17
g348
sbatp9647
Rp9648
(dp9649
g17
VROOT
p9650
sbasg353
(icmyPackage
CorE
p9651
(dp9652
g356
(lp9653
(I0
I25
tp9654
a(I0
I28
tp9655
asg360
g9601
sbsg361
(icmyPackage
CorE
p9656
(dp9657
g356
(lp9658
(I0
I11
tp9659
a(I0
I23
tp9660
asg360
g5
(g6
g7
(lp9661
g9487
ag9494
ag9501
ag9509
ag9521
ag9527
ag9534
ag9540
ag9548
ag9555
atp9662
Rp9663
(dp9664
g17
g371
sbsbsg372
g5137
sg395
(lp9665
(isxpPackage
sxpSent
p9666
(dp9667
g399
(lp9668
I24
asg401
VThis result is obtained from real tweets written by journalists; a natural counterpart study would be to experimentally manipulate this framing to see if the same perceptions apply
p9669
sg403
I11
sg387
I111
sg404
I32
sbasba(icmyPackage
CELink
p9670
(dp9671
g3
(lp9672
g5
(g6
g7
(lp9673
g5
(g6
g7
(lp9674
g5
(g6
g7
(lp9675
g5
(g6
g7
(lp9676
VAnother
p9677
atp9678
Rp9679
(dp9680
g17
VDT
p9681
sbag5
(g6
g7
(lp9682
Vfuture
p9683
atp9684
Rp9685
(dp9686
g17
VJJ
p9687
sbag5
(g6
g7
(lp9688
Vdirection
p9689
atp9690
Rp9691
(dp9692
g17
VNN
p9693
sbatp9694
Rp9695
(dp9696
g17
VNP
p9697
sbag5
(g6
g7
(lp9698
g5
(g6
g7
(lp9699
Vwould
p9700
atp9701
Rp9702
(dp9703
g17
VMD
p9704
sbag5
(g6
g7
(lp9705
g5
(g6
g7
(lp9706
Vbe
p9707
atp9708
Rp9709
(dp9710
g17
VVB
p9711
sbag5
(g6
g7
(lp9712
g5
(g6
g7
(lp9713
g5
(g6
g7
(lp9714
Vto
p9715
atp9716
Rp9717
(dp9718
g17
VTO
p9719
sbag5
(g6
g7
(lp9720
g5
(g6
g7
(lp9721
Vtest
p9722
atp9723
Rp9724
(dp9725
g17
VVB
p9726
sbag5
(g6
g7
(lp9727
g5
(g6
g7
(lp9728
Vwhether
p9729
atp9730
Rp9731
(dp9732
g17
VIN
p9733
sbag5
(g6
g7
(lp9734
g5
(g6
g7
(lp9735
g5
(g6
g7
(lp9736
g5
(g6
g7
(lp9737
Vthe
p9738
atp9739
Rp9740
(dp9741
g17
VDT
p9742
sbag5
(g6
g7
(lp9743
Vdeployment
p9744
atp9745
Rp9746
(dp9747
g17
VNN
p9748
sbatp9749
Rp9750
(dp9751
g17
VNP
p9752
sbag5
(g6
g7
(lp9753
g5
(g6
g7
(lp9754
Vof
p9755
atp9756
Rp9757
(dp9758
g17
VIN
p9759
sbag5
(g6
g7
(lp9760
g5
(g6
g7
(lp9761
g5
(g6
g7
(lp9762
Vcue
p9763
atp9764
Rp9765
(dp9766
g17
VNN
p9767
sbag5
(g6
g7
(lp9768
Vwords
p9769
atp9770
Rp9771
(dp9772
g17
VNNS
p9773
sbatp9774
Rp9775
(dp9776
g17
VNP
p9777
sbag5
(g6
g7
(lp9778
g5
(g6
g7
(lp9779
Vas
p9780
atp9781
Rp9782
(dp9783
g17
VIN
p9784
sbag5
(g6
g7
(lp9785
g5
(g6
g7
(lp9786
Vframing
p9787
atp9788
Rp9789
(dp9790
g17
VNN
p9791
sbag5
(g6
g7
(lp9792
Vdevices
p9793
atp9794
Rp9795
(dp9796
g17
VNNS
p9797
sbatp9798
Rp9799
(dp9800
g17
VNP
p9801
sbatp9802
Rp9803
(dp9804
g17
VPP
p9805
sbatp9806
Rp9807
(dp9808
g17
VNP
p9809
sbatp9810
Rp9811
(dp9812
g17
VPP
p9813
sbatp9814
Rp9815
(dp9816
g17
VNP
p9817
sbag5
(g6
g7
(lp9818
g5
(g6
g7
(lp9819
Vreflects
p9820
atp9821
Rp9822
(dp9823
g17
VVBZ
p9824
sbag5
(g6
g7
(lp9825
g5
(g6
g7
(lp9826
g5
(g6
g7
(lp9827
Vthe
p9828
atp9829
Rp9830
(dp9831
g17
VDT
p9832
sbag5
(g6
g7
(lp9833
Videology
p9834
atp9835
Rp9836
(dp9837
g17
VNN
p9838
sbatp9839
Rp9840
(dp9841
g17
VNP
p9842
sbag5
(g6
g7
(lp9843
g5
(g6
g7
(lp9844
Vof
p9845
atp9846
Rp9847
(dp9848
g17
VIN
p9849
sbag5
(g6
g7
(lp9850
g5
(g6
g7
(lp9851
Vthe
p9852
atp9853
Rp9854
(dp9855
g17
VDT
p9856
sbag5
(g6
g7
(lp9857
Vjournalist
p9858
atp9859
Rp9860
(dp9861
g17
VNN
p9862
sbatp9863
Rp9864
(dp9865
g17
VNP
p9866
sbatp9867
Rp9868
(dp9869
g17
VPP
p9870
sbatp9871
Rp9872
(dp9873
g17
VNP
p9874
sbatp9875
Rp9876
(dp9877
g17
VVP
p9878
sbatp9879
Rp9880
(dp9881
g17
g348
sbatp9882
Rp9883
(dp9884
g17
VSBAR
p9885
sbatp9886
Rp9887
(dp9888
g17
VVP
p9889
sbatp9890
Rp9891
(dp9892
g17
VVP
p9893
sbatp9894
Rp9895
(dp9896
g17
g348
sbatp9897
Rp9898
(dp9899
g17
VVP
p9900
sbatp9901
Rp9902
(dp9903
g17
VVP
p9904
sbatp9905
Rp9906
(dp9907
g17
g348
sbatp9908
Rp9909
(dp9910
g17
VROOT
p9911
sbasg353
(icmyPackage
CorE
p9912
(dp9913
g356
(lp9914
(I0
I14
tp9915
a(I0
I21
tp9916
asg360
g5
(g6
g7
(lp9917
g9799
ag9876
atp9918
Rp9919
(dp9920
g17
g371
sbsbsg361
(icmyPackage
CorE
p9921
(dp9922
g356
(lp9923
(I0
I0
tp9924
a(I0
I12
tp9925
asg360
g5
(g6
g7
(lp9926
g9695
ag9702
ag9709
ag9717
ag9724
ag9731
ag9750
ag9757
ag9775
atp9927
Rp9928
(dp9929
g17
g371
sbsbsg372
g928
sg395
(lp9930
(isxpPackage
sxpSent
p9931
(dp9932
g399
(lp9933
I25
asg401
VAnother future direction would be to test whether the deployment of cue words as framing devices reflects the ideology of the journalist
p9934
sg403
I11
sg387
I112
sg404
I32
sbasba.