(lp0
(icmyPackage
CELink
p1
(dp2
S'PTreelst'
p3
(lp4
ccopy_reg
_reconstructor
p5
(cnltk.tree
Tree
p6
c__builtin__
list
p7
(lp8
g5
(g6
g7
(lp9
g5
(g6
g7
(lp10
g5
(g6
g7
(lp11
VWe
p12
atp13
Rp14
(dp15
S'_label'
p16
VPRP
p17
sbatp18
Rp19
(dp20
g16
VNP
p21
sbag5
(g6
g7
(lp22
g5
(g6
g7
(lp23
Vpropose
p24
atp25
Rp26
(dp27
g16
VVBP
p28
sbag5
(g6
g7
(lp29
g5
(g6
g7
(lp30
Va
p31
atp32
Rp33
(dp34
g16
VDT
p35
sbag5
(g6
g7
(lp36
Vnovel
p37
atp38
Rp39
(dp40
g16
VJJ
p41
sbag5
(g6
g7
(lp42
Vtext
p43
atp44
Rp45
(dp46
g16
VNN
p47
sbag5
(g6
g7
(lp48
Vnormalization
p49
atp50
Rp51
(dp52
g16
VNN
p53
sbag5
(g6
g7
(lp54
Vmodel
p55
atp56
Rp57
(dp58
g16
VNN
p59
sbatp60
Rp61
(dp62
g16
VNP
p63
sbag5
(g6
g7
(lp64
g5
(g6
g7
(lp65
Vbased
p66
atp67
Rp68
(dp69
g16
VVBN
p70
sbag5
(g6
g7
(lp71
g5
(g6
g7
(lp72
Von
p73
atp74
Rp75
(dp76
g16
VIN
p77
sbag5
(g6
g7
(lp78
g5
(g6
g7
(lp79
g5
(g6
g7
(lp80
Vlearning
p81
atp82
Rp83
(dp84
g16
VVBG
p85
sbag5
(g6
g7
(lp86
g5
(g6
g7
(lp87
Vedit
p88
atp89
Rp90
(dp91
g16
VJJ
p92
sbag5
(g6
g7
(lp93
Voperations
p94
atp95
Rp96
(dp97
g16
VNNS
p98
sbatp99
Rp100
(dp101
g16
VNP
p102
sbag5
(g6
g7
(lp103
g5
(g6
g7
(lp104
Vfrom
p105
atp106
Rp107
(dp108
g16
VIN
p109
sbag5
(g6
g7
(lp110
g5
(g6
g7
(lp111
Vlabeled
p112
atp113
Rp114
(dp115
g16
VJJ
p116
sbag5
(g6
g7
(lp117
Vdata
p118
atp119
Rp120
(dp121
g16
VNNS
p122
sbatp123
Rp124
(dp125
g16
VNP
p126
sbatp127
Rp128
(dp129
g16
VPP
p130
sbag5
(g6
g7
(lp131
g5
(g6
g7
(lp132
Vwhile
p133
atp134
Rp135
(dp136
g16
VIN
p137
sbag5
(g6
g7
(lp138
g5
(g6
g7
(lp139
g5
(g6
g7
(lp140
Vincorporating
p141
atp142
Rp143
(dp144
g16
VNNP
p145
sbatp146
Rp147
(dp148
g16
VNP
p149
sbag5
(g6
g7
(lp150
g5
(g6
g7
(lp151
Vfeatures
p152
atp153
Rp154
(dp155
g16
VVBZ
p156
sbag5
(g6
g7
(lp157
g5
(g6
g7
(lp158
Vinduced
p159
atp160
Rp161
(dp162
g16
VVBN
p163
sbag5
(g6
g7
(lp164
g5
(g6
g7
(lp165
Vfrom
p166
atp167
Rp168
(dp169
g16
VIN
p170
sbag5
(g6
g7
(lp171
g5
(g6
g7
(lp172
g5
(g6
g7
(lp173
Vunlabeled
p174
atp175
Rp176
(dp177
g16
VJJ
p178
sbag5
(g6
g7
(lp179
Vdata
p180
atp181
Rp182
(dp183
g16
VNNS
p184
sbatp185
Rp186
(dp187
g16
VNP
p188
sbag5
(g6
g7
(lp189
g5
(g6
g7
(lp190
Vvia
p191
atp192
Rp193
(dp194
g16
VIN
p195
sbag5
(g6
g7
(lp196
g5
(g6
g7
(lp197
Vcharacter-level
p198
atp199
Rp200
(dp201
g16
VJJ
p202
sbag5
(g6
g7
(lp203
Vneural
p204
atp205
Rp206
(dp207
g16
VJJ
p208
sbag5
(g6
g7
(lp209
Vtext
p210
atp211
Rp212
(dp213
g16
VNN
p214
sbag5
(g6
g7
(lp215
Vembeddings
p216
atp217
Rp218
(dp219
g16
VNNS
p220
sbatp221
Rp222
(dp223
g16
VNP
p224
sbatp225
Rp226
(dp227
g16
VPP
p228
sbatp229
Rp230
(dp231
g16
VNP
p232
sbatp233
Rp234
(dp235
g16
VPP
p236
sbatp237
Rp238
(dp239
g16
VVP
p240
sbatp241
Rp242
(dp243
g16
VVP
p244
sbatp245
Rp246
(dp247
g16
VS
p248
sbatp249
Rp250
(dp251
g16
VSBAR
p252
sbatp253
Rp254
(dp255
g16
VVP
p256
sbatp257
Rp258
(dp259
g16
g248
sbatp260
Rp261
(dp262
g16
VPP
p263
sbatp264
Rp265
(dp266
g16
VPP
p267
sbatp268
Rp269
(dp270
g16
VVP
p271
sbatp272
Rp273
(dp274
g16
g248
sbatp275
Rp276
(dp277
g16
VROOT
p278
sbasS'cause'
p279
(icmyPackage
CorE
p280
(dp281
S'span'
p282
(lp283
(I0
I9
tp284
a(I0
I26
tp285
asS'PTree'
p286
g258
sbsS'effect'
p287
(icmyPackage
CorE
p288
(dp289
g282
(lp290
(I0
I0
tp291
a(I0
I6
tp292
asg286
g5
(g6
g7
(lp293
g19
ag26
ag61
atp294
Rp295
(dp296
g16
S'ROOT'
p297
sbsbsS'pt'
p298
(icmyPackage
pattern
p299
(dp300
S'pfreq'
p301
I0
sS'moresent'
p302
I0
sS'main_token'
p303
(lp304
(lp305
S'based'
p306
aS'on'
p307
aasS'ptype'
p308
(lp309
I2
aI1
aI1
asS'cases'
p310
(lp311
S'He said he planned to announce details of legislation on Sunday based on a Republican plan that would provide a short-term solution'
p312
asS'id'
p313
I48
sS'constraints'
p314
(lp315
(lp316
S'&R'
p317
aS'(,)'
p318
aS'(&ADV)'
p319
aa(lp320
S'&V-ing/&NP@C@'
p321
aS'(&Clause@C@)'
p322
aasbsS'sInfo'
p323
(lp324
(isxpPackage
sxpSent
p325
(dp326
S'sysCEidlst'
p327
(lp328
I0
asS'sentence_text'
p329
VWe propose a novel text normalization model based on learning edit operations from labeled data while incorporating features induced from unlabeled data via character-level neural text embeddings
p330
sS'id_sec'
p331
I1
sg313
I2
sS'id_para'
p332
I0
sbasba(icmyPackage
CELink
p333
(dp334
g3
(lp335
g5
(g6
g7
(lp336
g5
(g6
g7
(lp337
g5
(g6
g7
(lp338
g5
(g6
g7
(lp339
VWhen
p340
atp341
Rp342
(dp343
g16
VWRB
p344
sbatp345
Rp346
(dp347
g16
VWHADVP
p348
sbag5
(g6
g7
(lp349
g5
(g6
g7
(lp350
g5
(g6
g7
(lp351
g5
(g6
g7
(lp352
Vrun
p353
atp354
Rp355
(dp356
g16
VVBN
p357
sbag5
(g6
g7
(lp358
g5
(g6
g7
(lp359
Von
p360
atp361
Rp362
(dp363
g16
VIN
p364
sbag5
(g6
g7
(lp365
g5
(g6
g7
(lp366
Vnew
p367
atp368
Rp369
(dp370
g16
VJJ
p371
sbag5
(g6
g7
(lp372
Vstrings
p373
atp374
Rp375
(dp376
g16
VNNS
p377
sbatp378
Rp379
(dp380
g16
VNP
p381
sbatp382
Rp383
(dp384
g16
VPP
p385
sbatp386
Rp387
(dp388
g16
VVP
p389
sbatp390
Rp391
(dp392
g16
g248
sbag5
(g6
g7
(lp393
V,
p394
atp395
Rp396
(dp397
g16
g394
sbag5
(g6
g7
(lp398
g5
(g6
g7
(lp399
g5
(g6
g7
(lp400
Vthe
p401
atp402
Rp403
(dp404
g16
VDT
p405
sbag5
(g6
g7
(lp406
Vactivations
p407
atp408
Rp409
(dp410
g16
VNNS
p411
sbatp412
Rp413
(dp414
g16
VNP
p415
sbag5
(g6
g7
(lp416
g5
(g6
g7
(lp417
Vof
p418
atp419
Rp420
(dp421
g16
VIN
p422
sbag5
(g6
g7
(lp423
g5
(g6
g7
(lp424
g5
(g6
g7
(lp425
Vthe
p426
atp427
Rp428
(dp429
g16
VDT
p430
sbag5
(g6
g7
(lp431
Vunits
p432
atp433
Rp434
(dp435
g16
VNNS
p436
sbatp437
Rp438
(dp439
g16
VNP
p440
sbag5
(g6
g7
(lp441
g5
(g6
g7
(lp442
Vin
p443
atp444
Rp445
(dp446
g16
VIN
p447
sbag5
(g6
g7
(lp448
g5
(g6
g7
(lp449
g5
(g6
g7
(lp450
Vthe
p451
atp452
Rp453
(dp454
g16
VDT
p455
sbag5
(g6
g7
(lp456
Vhidden
p457
atp458
Rp459
(dp460
g16
VVBN
p461
sbag5
(g6
g7
(lp462
Vlayer
p463
atp464
Rp465
(dp466
g16
VNN
p467
sbatp468
Rp469
(dp470
g16
VNP
p471
sbag5
(g6
g7
(lp472
g5
(g6
g7
(lp473
Vat
p474
atp475
Rp476
(dp477
g16
VIN
p478
sbag5
(g6
g7
(lp479
g5
(g6
g7
(lp480
g5
(g6
g7
(lp481
Veach
p482
atp483
Rp484
(dp485
g16
VDT
p486
sbag5
(g6
g7
(lp487
Vposition
p488
atp489
Rp490
(dp491
g16
VNN
p492
sbatp493
Rp494
(dp495
g16
VNP
p496
sbag5
(g6
g7
(lp497
g5
(g6
g7
(lp498
Vin
p499
atp500
Rp501
(dp502
g16
VIN
p503
sbag5
(g6
g7
(lp504
g5
(g6
g7
(lp505
Vthe
p506
atp507
Rp508
(dp509
g16
VDT
p510
sbag5
(g6
g7
(lp511
Vstring
p512
atp513
Rp514
(dp515
g16
VNN
p516
sbatp517
Rp518
(dp519
g16
VNP
p520
sbatp521
Rp522
(dp523
g16
VPP
p524
sbatp525
Rp526
(dp527
g16
VNP
p528
sbatp529
Rp530
(dp531
g16
VPP
p532
sbatp533
Rp534
(dp535
g16
VNP
p536
sbatp537
Rp538
(dp539
g16
VPP
p540
sbatp541
Rp542
(dp543
g16
VNP
p544
sbatp545
Rp546
(dp547
g16
VPP
p548
sbatp549
Rp550
(dp551
g16
VNP
p552
sbag5
(g6
g7
(lp553
g5
(g6
g7
(lp554
Vare
p555
atp556
Rp557
(dp558
g16
VVBP
p559
sbag5
(g6
g7
(lp560
g5
(g6
g7
(lp561
Vrecorded
p562
atp563
Rp564
(dp565
g16
VVBN
p566
sbag5
(g6
g7
(lp567
Vand
p568
atp569
Rp570
(dp571
g16
VCC
p572
sbag5
(g6
g7
(lp573
Vused
p574
atp575
Rp576
(dp577
g16
VVBN
p578
sbag5
(g6
g7
(lp579
g5
(g6
g7
(lp580
Vas
p581
atp582
Rp583
(dp584
g16
VIN
p585
sbag5
(g6
g7
(lp586
g5
(g6
g7
(lp587
g5
(g6
g7
(lp588
Vfeatures
p589
atp590
Rp591
(dp592
g16
VNNS
p593
sbatp594
Rp595
(dp596
g16
VNP
p597
sbag5
(g6
g7
(lp598
g5
(g6
g7
(lp599
Vfor
p600
atp601
Rp602
(dp603
g16
VIN
p604
sbag5
(g6
g7
(lp605
g5
(g6
g7
(lp606
g5
(g6
g7
(lp607
Vtraining
p608
atp609
Rp610
(dp611
g16
VVBG
p612
sbag5
(g6
g7
(lp613
g5
(g6
g7
(lp614
Vthe
p615
atp616
Rp617
(dp618
g16
VDT
p619
sbag5
(g6
g7
(lp620
Vstring
p621
atp622
Rp623
(dp624
g16
VNN
p625
sbag5
(g6
g7
(lp626
Vtransduction
p627
atp628
Rp629
(dp630
g16
VNN
p631
sbag5
(g6
g7
(lp632
Vmodel
p633
atp634
Rp635
(dp636
g16
VNN
p637
sbatp638
Rp639
(dp640
g16
VNP
p641
sbatp642
Rp643
(dp644
g16
VVP
p645
sbatp646
Rp647
(dp648
g16
g248
sbatp649
Rp650
(dp651
g16
VPP
p652
sbatp653
Rp654
(dp655
g16
VNP
p656
sbatp657
Rp658
(dp659
g16
VPP
p660
sbatp661
Rp662
(dp663
g16
VVP
p664
sbatp665
Rp666
(dp667
g16
VVP
p668
sbatp669
Rp670
(dp671
g16
g248
sbatp672
Rp673
(dp674
g16
VSBARQ
p675
sbatp676
Rp677
(dp678
g16
VROOT
p679
sbag5
(g6
g7
(lp680
g5
(g6
g7
(lp681
g5
(g6
g7
(lp682
g5
(g6
g7
(lp683
g5
(g6
g7
(lp684
VThe
p685
atp686
Rp687
(dp688
g16
VDT
p689
sbag5
(g6
g7
(lp690
Vprincipal
p691
atp692
Rp693
(dp694
g16
VJJ
p695
sbag5
(g6
g7
(lp696
Vcontributions
p697
atp698
Rp699
(dp700
g16
VNNS
p701
sbatp702
Rp703
(dp704
g16
VNP
p705
sbag5
(g6
g7
(lp706
g5
(g6
g7
(lp707
Vof
p708
atp709
Rp710
(dp711
g16
VIN
p712
sbag5
(g6
g7
(lp713
g5
(g6
g7
(lp714
g5
(g6
g7
(lp715
g5
(g6
g7
(lp716
Vour
p717
atp718
Rp719
(dp720
g16
VPRP$
p721
sbag5
(g6
g7
(lp722
Vwork
p723
atp724
Rp725
(dp726
g16
VNN
p727
sbatp728
Rp729
(dp730
g16
VNP
p731
sbag5
(g6
g7
(lp732
g5
(g6
g7
(lp733
Vare
p734
atp735
Rp736
(dp737
g16
VVBP
p738
sbag5
(g6
g7
(lp739
g5
(g6
g7
(lp740
Vi
p741
atp742
Rp743
(dp744
g16
VFW
p745
sbatp746
Rp747
(dp748
g16
VNP
p749
sbatp750
Rp751
(dp752
g16
VVP
p753
sbatp754
Rp755
(dp756
g16
g248
sbag5
(g6
g7
(lp757
V-RRB-
p758
atp759
Rp760
(dp761
g16
V-RRB-
p762
sbatp763
Rp764
(dp765
g16
VPRN
p766
sbag5
(g6
g7
(lp767
g5
(g6
g7
(lp768
Vwe
p769
atp770
Rp771
(dp772
g16
VPRP
p773
sbatp774
Rp775
(dp776
g16
VNP
p777
sbatp778
Rp779
(dp780
g16
VPP
p781
sbatp782
Rp783
(dp784
g16
VNP
p785
sbag5
(g6
g7
(lp786
g5
(g6
g7
(lp787
Vshow
p788
atp789
Rp790
(dp791
g16
VVBP
p792
sbag5
(g6
g7
(lp793
g5
(g6
g7
(lp794
Vthat
p795
atp796
Rp797
(dp798
g16
VIN
p799
sbag5
(g6
g7
(lp800
g5
(g6
g7
(lp801
g5
(g6
g7
(lp802
g31
atp803
Rp804
(dp805
g16
VDT
p806
sbag5
(g6
g7
(lp807
Vdiscriminative
p808
atp809
Rp810
(dp811
g16
VJJ
p812
sbag5
(g6
g7
(lp813
Vsequence
p814
atp815
Rp816
(dp817
g16
VNN
p818
sbag5
(g6
g7
(lp819
Vlabeling
p820
atp821
Rp822
(dp823
g16
VNN
p824
sbag5
(g6
g7
(lp825
Vmodel
p826
atp827
Rp828
(dp829
g16
VNN
p830
sbatp831
Rp832
(dp833
g16
VNP
p834
sbag5
(g6
g7
(lp835
g5
(g6
g7
(lp836
g5
(g6
g7
(lp837
Vis
p838
atp839
Rp840
(dp841
g16
VVBZ
p842
sbag5
(g6
g7
(lp843
g5
(g6
g7
(lp844
Vapt
p845
atp846
Rp847
(dp848
g16
VJJ
p849
sbag5
(g6
g7
(lp850
g5
(g6
g7
(lp851
Vfor
p852
atp853
Rp854
(dp855
g16
VIN
p856
sbag5
(g6
g7
(lp857
g5
(g6
g7
(lp858
Vtext
p859
atp860
Rp861
(dp862
g16
VNN
p863
sbag5
(g6
g7
(lp864
Vnormalization
p865
atp866
Rp867
(dp868
g16
VNN
p869
sbatp870
Rp871
(dp872
g16
VNP
p873
sbatp874
Rp875
(dp876
g16
VPP
p877
sbatp878
Rp879
(dp880
g16
VADJP
p881
sbatp882
Rp883
(dp884
g16
VVP
p885
sbag5
(g6
g7
(lp886
Vand
p887
atp888
Rp889
(dp890
g16
VCC
p891
sbag5
(g6
g7
(lp892
g5
(g6
g7
(lp893
Vperforms
p894
atp895
Rp896
(dp897
g16
VVBZ
p898
sbag5
(g6
g7
(lp899
g5
(g6
g7
(lp900
Vat
p901
atp902
Rp903
(dp904
g16
VIN
p905
sbag5
(g6
g7
(lp906
g5
(g6
g7
(lp907
Vstate-of-the-art
p908
atp909
Rp910
(dp911
g16
VJJ
p912
sbag5
(g6
g7
(lp913
Vlevels
p914
atp915
Rp916
(dp917
g16
VNNS
p918
sbatp919
Rp920
(dp921
g16
VNP
p922
sbatp923
Rp924
(dp925
g16
VPP
p926
sbag5
(g6
g7
(lp927
g5
(g6
g7
(lp928
Vwith
p929
atp930
Rp931
(dp932
g16
VIN
p933
sbag5
(g6
g7
(lp934
g5
(g6
g7
(lp935
g5
(g6
g7
(lp936
Vsmall
p937
atp938
Rp939
(dp940
g16
VJJ
p941
sbag5
(g6
g7
(lp942
Vamounts
p943
atp944
Rp945
(dp946
g16
VNNS
p947
sbatp948
Rp949
(dp950
g16
VNP
p951
sbag5
(g6
g7
(lp952
g5
(g6
g7
(lp953
Vof
p954
atp955
Rp956
(dp957
g16
VIN
p958
sbag5
(g6
g7
(lp959
g5
(g6
g7
(lp960
Vlabeled
p961
atp962
Rp963
(dp964
g16
VJJ
p965
sbag5
(g6
g7
(lp966
Vtraining
p967
atp968
Rp969
(dp970
g16
VNN
p971
sbag5
(g6
g7
(lp972
Vdata
p973
atp974
Rp975
(dp976
g16
VNNS
p977
sbatp978
Rp979
(dp980
g16
VNP
p981
sbatp982
Rp983
(dp984
g16
VPP
p985
sbatp986
Rp987
(dp988
g16
VNP
p989
sbatp990
Rp991
(dp992
g16
VPP
p993
sbatp994
Rp995
(dp996
g16
VVP
p997
sbatp998
Rp999
(dp1000
g16
VVP
p1001
sbag5
(g6
g7
(lp1002
V;
p1003
atp1004
Rp1005
(dp1006
g16
V:
p1007
sbag5
(g6
g7
(lp1008
g5
(g6
g7
(lp1009
g5
(g6
g7
(lp1010
V-LRB-
p1011
atp1012
Rp1013
(dp1014
g16
V-LRB-
p1015
sbag5
(g6
g7
(lp1016
g5
(g6
g7
(lp1017
Vii
p1018
atp1019
Rp1020
(dp1021
g16
VNN
p1022
sbatp1023
Rp1024
(dp1025
g16
VNP
p1026
sbag5
(g6
g7
(lp1027
V-RRB-
p1028
atp1029
Rp1030
(dp1031
g16
V-RRB-
p1032
sbatp1033
Rp1034
(dp1035
g16
VPRN
p1036
sbag5
(g6
g7
(lp1037
g5
(g6
g7
(lp1038
g5
(g6
g7
(lp1039
Vwe
p1040
atp1041
Rp1042
(dp1043
g16
VPRP
p1044
sbatp1045
Rp1046
(dp1047
g16
VNP
p1048
sbag5
(g6
g7
(lp1049
g5
(g6
g7
(lp1050
g5
(g6
g7
(lp1051
Vshow
p1052
atp1053
Rp1054
(dp1055
g16
VVBP
p1056
sbag5
(g6
g7
(lp1057
g5
(g6
g7
(lp1058
Vthat
p1059
atp1060
Rp1061
(dp1062
g16
VIN
p1063
sbag5
(g6
g7
(lp1064
g5
(g6
g7
(lp1065
g5
(g6
g7
(lp1066
Vcharacter-level
p1067
atp1068
Rp1069
(dp1070
g16
VJJ
p1071
sbag5
(g6
g7
(lp1072
Vneural
p1073
atp1074
Rp1075
(dp1076
g16
VJJ
p1077
sbag5
(g6
g7
(lp1078
Vtext
p1079
atp1080
Rp1081
(dp1082
g16
VNN
p1083
sbag5
(g6
g7
(lp1084
Vembeddings
p1085
atp1086
Rp1087
(dp1088
g16
VNNS
p1089
sbatp1090
Rp1091
(dp1092
g16
VNP
p1093
sbag5
(g6
g7
(lp1094
g5
(g6
g7
(lp1095
Vcan
p1096
atp1097
Rp1098
(dp1099
g16
VMD
p1100
sbag5
(g6
g7
(lp1101
g5
(g6
g7
(lp1102
Vbe
p1103
atp1104
Rp1105
(dp1106
g16
VVB
p1107
sbag5
(g6
g7
(lp1108
g5
(g6
g7
(lp1109
Vused
p1110
atp1111
Rp1112
(dp1113
g16
VVBN
p1114
sbag5
(g6
g7
(lp1115
g5
(g6
g7
(lp1116
g5
(g6
g7
(lp1117
Vto
p1118
atp1119
Rp1120
(dp1121
g16
VTO
p1122
sbag5
(g6
g7
(lp1123
g5
(g6
g7
(lp1124
g5
(g6
g7
(lp1125
Veffectively
p1126
atp1127
Rp1128
(dp1129
g16
VRB
p1130
sbatp1131
Rp1132
(dp1133
g16
VADVP
p1134
sbag5
(g6
g7
(lp1135
Vincorporate
p1136
atp1137
Rp1138
(dp1139
g16
VVB
p1140
sbag5
(g6
g7
(lp1141
g5
(g6
g7
(lp1142
Vinformation
p1143
atp1144
Rp1145
(dp1146
g16
VNN
p1147
sbatp1148
Rp1149
(dp1150
g16
VNP
p1151
sbag5
(g6
g7
(lp1152
g5
(g6
g7
(lp1153
Vfrom
p1154
atp1155
Rp1156
(dp1157
g16
VIN
p1158
sbag5
(g6
g7
(lp1159
g5
(g6
g7
(lp1160
Vunlabeled
p1161
atp1162
Rp1163
(dp1164
g16
VJJ
p1165
sbag5
(g6
g7
(lp1166
Vdata
p1167
atp1168
Rp1169
(dp1170
g16
VNNS
p1171
sbatp1172
Rp1173
(dp1174
g16
VNP
p1175
sbatp1176
Rp1177
(dp1178
g16
VPP
p1179
sbag5
(g6
g7
(lp1180
g5
(g6
g7
(lp1181
Vinto
p1182
atp1183
Rp1184
(dp1185
g16
VIN
p1186
sbag5
(g6
g7
(lp1187
g5
(g6
g7
(lp1188
Vthe
p1189
atp1190
Rp1191
(dp1192
g16
VDT
p1193
sbag5
(g6
g7
(lp1194
Vmodel
p1195
atp1196
Rp1197
(dp1198
g16
VNN
p1199
sbatp1200
Rp1201
(dp1202
g16
VNP
p1203
sbatp1204
Rp1205
(dp1206
g16
VPP
p1207
sbatp1208
Rp1209
(dp1210
g16
VVP
p1211
sbatp1212
Rp1213
(dp1214
g16
VVP
p1215
sbatp1216
Rp1217
(dp1218
g16
g248
sbatp1219
Rp1220
(dp1221
g16
VVP
p1222
sbatp1223
Rp1224
(dp1225
g16
VVP
p1226
sbatp1227
Rp1228
(dp1229
g16
VVP
p1230
sbatp1231
Rp1232
(dp1233
g16
g248
sbatp1234
Rp1235
(dp1236
g16
VSBAR
p1237
sbatp1238
Rp1239
(dp1240
g16
VVP
p1241
sbag5
(g6
g7
(lp1242
Vand
p1243
atp1244
Rp1245
(dp1246
g16
VCC
p1247
sbag5
(g6
g7
(lp1248
g5
(g6
g7
(lp1249
Vcan
p1250
atp1251
Rp1252
(dp1253
g16
VMD
p1254
sbag5
(g6
g7
(lp1255
g5
(g6
g7
(lp1256
Vsubstantially
p1257
atp1258
Rp1259
(dp1260
g16
VRB
p1261
sbatp1262
Rp1263
(dp1264
g16
VADVP
p1265
sbag5
(g6
g7
(lp1266
g5
(g6
g7
(lp1267
Vboost
p1268
atp1269
Rp1270
(dp1271
g16
VVB
p1272
sbag5
(g6
g7
(lp1273
g5
(g6
g7
(lp1274
Vtext
p1275
atp1276
Rp1277
(dp1278
g16
VNN
p1279
sbag5
(g6
g7
(lp1280
Vnormalization
p1281
atp1282
Rp1283
(dp1284
g16
VNN
p1285
sbag5
(g6
g7
(lp1286
Vperformance
p1287
atp1288
Rp1289
(dp1290
g16
VNN
p1291
sbatp1292
Rp1293
(dp1294
g16
VNP
p1295
sbatp1296
Rp1297
(dp1298
g16
VVP
p1299
sbatp1300
Rp1301
(dp1302
g16
VVP
p1303
sbatp1304
Rp1305
(dp1306
g16
VVP
p1307
sbatp1308
Rp1309
(dp1310
g16
g248
sbatp1311
Rp1312
(dp1313
g16
VSBAR
p1314
sbatp1315
Rp1316
(dp1317
g16
g248
sbatp1318
Rp1319
(dp1320
g16
VSBAR
p1321
sbatp1322
Rp1323
(dp1324
g16
VVP
p1325
sbatp1326
Rp1327
(dp1328
g16
g248
sbatp1329
Rp1330
(dp1331
g16
VROOT
p1332
sbasg279
(icmyPackage
CorE
p1333
(dp1334
g282
(lp1335
(I0
I26
tp1336
a(I1
I34
tp1337
asg286
g5
(g6
g7
(lp1338
g654
ag783
ag790
ag797
ag832
ag999
ag1005
atp1339
Rp1340
(dp1341
g16
g297
sbsbsg287
(icmyPackage
CorE
p1342
(dp1343
g282
(lp1344
(I0
I2
tp1345
a(I0
I24
tp1346
asg286
g5
(g6
g7
(lp1347
g383
ag396
ag550
ag557
ag564
ag570
ag576
atp1348
Rp1349
(dp1350
g16
g297
sbsbsg298
(icmyPackage
pattern
p1351
(dp1352
g301
I26
sg302
I1
sg303
(lp1353
(lp1354
S'as'
p1355
aasg308
(lp1356
I3
aI1
aI1
asg310
(lp1357
S'You do not need to worry about the operation, as the software is very easy to use.'
p1358
asg313
I80
sg314
(lp1359
(lp1360
S'&R@Complete@'
p1361
aS'(,)'
p1362
aS'(-such/-same/-seem/-regard/-regards/-regarded/-view/-views/-viewed/-denote/-denoted/-denotes)'
p1363
aa(lp1364
S'(-if/-follow/-follows/-&adv)'
p1365
aS'&C@Complete@'
p1366
aasbsg323
(lp1367
(isxpPackage
sxpSent
p1368
(dp1369
g327
(lp1370
I1
asg329
VWhen run on new strings, the activations of the units in the hidden layer at each position in the string are recorded and used as features for training the string transduction model
p1371
sg331
I2
sg313
I20
sg332
I4
sba(isxpPackage
sxpSent
p1372
(dp1373
g327
(lp1374
I1
asg329
VThe principal contributions of our work are i) we show that a discriminative sequence labeling model is apt for text normalization and performs at state-of-the-art levels with small amounts of labeled training data; (ii) we show that character-level neural text embeddings can be used to effectively incorporate information from unlabeled data into the model and can substantially boost text normalization performance
p1375
sg331
I2
sg313
I21
sg332
I5
sbasba(icmyPackage
CELink
p1376
(dp1377
g3
(lp1378
g5
(g6
g7
(lp1379
g5
(g6
g7
(lp1380
g5
(g6
g7
(lp1381
g5
(g6
g7
(lp1382
VThis
p1383
atp1384
Rp1385
(dp1386
g16
VDT
p1387
sbatp1388
Rp1389
(dp1390
g16
VNP
p1391
sbag5
(g6
g7
(lp1392
g5
(g6
g7
(lp1393
Vis
p1394
atp1395
Rp1396
(dp1397
g16
VVBZ
p1398
sbag5
(g6
g7
(lp1399
g5
(g6
g7
(lp1400
Vbecause
p1401
atp1402
Rp1403
(dp1404
g16
VIN
p1405
sbag5
(g6
g7
(lp1406
g5
(g6
g7
(lp1407
g5
(g6
g7
(lp1408
Vit
p1409
atp1410
Rp1411
(dp1412
g16
VPRP
p1413
sbatp1414
Rp1415
(dp1416
g16
VNP
p1417
sbag5
(g6
g7
(lp1418
g5
(g6
g7
(lp1419
Vis
p1420
atp1421
Rp1422
(dp1423
g16
VVBZ
p1424
sbag5
(g6
g7
(lp1425
Vnot
p1426
atp1427
Rp1428
(dp1429
g16
VRB
p1430
sbag5
(g6
g7
(lp1431
g5
(g6
g7
(lp1432
Vobvious
p1433
atp1434
Rp1435
(dp1436
g16
VJJ
p1437
sbatp1438
Rp1439
(dp1440
g16
VADJP
p1441
sbag5
(g6
g7
(lp1442
g5
(g6
g7
(lp1443
g5
(g6
g7
(lp1444
Vwhat
p1445
atp1446
Rp1447
(dp1448
g16
VWP
p1449
sbatp1450
Rp1451
(dp1452
g16
VWHNP
p1453
sbag5
(g6
g7
(lp1454
g5
(g6
g7
(lp1455
g5
(g6
g7
(lp1456
g5
(g6
g7
(lp1457
g5
(g6
g7
(lp1458
Vkind
p1459
atp1460
Rp1461
(dp1462
g16
VNN
p1463
sbatp1464
Rp1465
(dp1466
g16
VNP
p1467
sbag5
(g6
g7
(lp1468
g5
(g6
g7
(lp1469
Vof
p1470
atp1471
Rp1472
(dp1473
g16
VIN
p1474
sbag5
(g6
g7
(lp1475
g5
(g6
g7
(lp1476
Vdata
p1477
atp1478
Rp1479
(dp1480
g16
VNNS
p1481
sbatp1482
Rp1483
(dp1484
g16
VNP
p1485
sbatp1486
Rp1487
(dp1488
g16
VPP
p1489
sbatp1490
Rp1491
(dp1492
g16
VNP
p1493
sbag5
(g6
g7
(lp1494
g5
(g6
g7
(lp1495
Vcan
p1496
atp1497
Rp1498
(dp1499
g16
VMD
p1500
sbag5
(g6
g7
(lp1501
g5
(g6
g7
(lp1502
Vbe
p1503
atp1504
Rp1505
(dp1506
g16
VVB
p1507
sbag5
(g6
g7
(lp1508
g5
(g6
g7
(lp1509
Vused
p1510
atp1511
Rp1512
(dp1513
g16
VVBN
p1514
sbag5
(g6
g7
(lp1515
g5
(g6
g7
(lp1516
g5
(g6
g7
(lp1517
Vto
p1518
atp1519
Rp1520
(dp1521
g16
VTO
p1522
sbag5
(g6
g7
(lp1523
g5
(g6
g7
(lp1524
Vestimate
p1525
atp1526
Rp1527
(dp1528
g16
VVB
p1529
sbag5
(g6
g7
(lp1530
g5
(g6
g7
(lp1531
g5
(g6
g7
(lp1532
Vthe
p1533
atp1534
Rp1535
(dp1536
g16
VDT
p1537
sbag5
(g6
g7
(lp1538
Vlanguage
p1539
atp1540
Rp1541
(dp1542
g16
VNN
p1543
sbag5
(g6
g7
(lp1544
Vmodel
p1545
atp1546
Rp1547
(dp1548
g16
VNN
p1549
sbatp1550
Rp1551
(dp1552
g16
VNP
p1553
sbag5
(g6
g7
(lp1554
g5
(g6
g7
(lp1555
g5
(g6
g7
(lp1556
g5
(g6
g7
(lp1557
Vthere
p1558
atp1559
Rp1560
(dp1561
g16
VEX
p1562
sbatp1563
Rp1564
(dp1565
g16
VNP
p1566
sbag5
(g6
g7
(lp1567
g5
(g6
g7
(lp1568
Vis
p1569
atp1570
Rp1571
(dp1572
g16
VVBZ
p1573
sbag5
(g6
g7
(lp1574
g5
(g6
g7
(lp1575
g5
(g6
g7
(lp1576
g5
(g6
g7
(lp1577
Vplentiful
p1578
atp1579
Rp1580
(dp1581
g16
VJJ
p1582
sbatp1583
Rp1584
(dp1585
g16
VADJP
p1586
sbag5
(g6
g7
(lp1587
Vtext
p1588
atp1589
Rp1590
(dp1591
g16
VNN
p1592
sbatp1593
Rp1594
(dp1595
g16
VNP
p1596
sbag5
(g6
g7
(lp1597
g5
(g6
g7
(lp1598
Vfrom
p1599
atp1600
Rp1601
(dp1602
g16
VIN
p1603
sbag5
(g6
g7
(lp1604
g5
(g6
g7
(lp1605
Vthe
p1606
atp1607
Rp1608
(dp1609
g16
VDT
p1610
sbag5
(g6
g7
(lp1611
Vsource
p1612
atp1613
Rp1614
(dp1615
g16
VNN
p1616
sbag5
(g6
g7
(lp1617
Vdomain
p1618
atp1619
Rp1620
(dp1621
g16
VNN
p1622
sbatp1623
Rp1624
(dp1625
g16
VNP
p1626
sbatp1627
Rp1628
(dp1629
g16
VPP
p1630
sbatp1631
Rp1632
(dp1633
g16
VNP
p1634
sbatp1635
Rp1636
(dp1637
g16
VVP
p1638
sbatp1639
Rp1640
(dp1641
g16
g248
sbatp1642
Rp1643
(dp1644
g16
VSBAR
p1645
sbatp1646
Rp1647
(dp1648
g16
VNP
p1649
sbatp1650
Rp1651
(dp1652
g16
VVP
p1653
sbatp1654
Rp1655
(dp1656
g16
VVP
p1657
sbatp1658
Rp1659
(dp1660
g16
g248
sbatp1661
Rp1662
(dp1663
g16
VVP
p1664
sbatp1665
Rp1666
(dp1667
g16
VVP
p1668
sbatp1669
Rp1670
(dp1671
g16
VVP
p1672
sbatp1673
Rp1674
(dp1675
g16
g248
sbag5
(g6
g7
(lp1676
g394
atp1677
Rp1678
(dp1679
g16
g394
sbag5
(g6
g7
(lp1680
Vbut
p1681
atp1682
Rp1683
(dp1684
g16
VCC
p1685
sbag5
(g6
g7
(lp1686
g5
(g6
g7
(lp1687
g5
(g6
g7
(lp1688
g5
(g6
g7
(lp1689
Vlittle
p1690
atp1691
Rp1692
(dp1693
g16
VRB
p1694
sbatp1695
Rp1696
(dp1697
g16
VNP
p1698
sbag5
(g6
g7
(lp1699
g5
(g6
g7
(lp1700
Vof
p1701
atp1702
Rp1703
(dp1704
g16
VIN
p1705
sbag5
(g6
g7
(lp1706
g5
(g6
g7
(lp1707
Vit
p1708
atp1709
Rp1710
(dp1711
g16
VPRP
p1712
sbatp1713
Rp1714
(dp1715
g16
VNP
p1716
sbatp1717
Rp1718
(dp1719
g16
VPP
p1720
sbatp1721
Rp1722
(dp1723
g16
VNP
p1724
sbag5
(g6
g7
(lp1725
g5
(g6
g7
(lp1726
Vis
p1727
atp1728
Rp1729
(dp1730
g16
VVBZ
p1731
sbag5
(g6
g7
(lp1732
g5
(g6
g7
(lp1733
Vin
p1734
atp1735
Rp1736
(dp1737
g16
VIN
p1738
sbag5
(g6
g7
(lp1739
g5
(g6
g7
(lp1740
Vnormalized
p1741
atp1742
Rp1743
(dp1744
g16
VJJ
p1745
sbag5
(g6
g7
(lp1746
Vtarget
p1747
atp1748
Rp1749
(dp1750
g16
VNN
p1751
sbag5
(g6
g7
(lp1752
Vform
p1753
atp1754
Rp1755
(dp1756
g16
VNN
p1757
sbatp1758
Rp1759
(dp1760
g16
VNP
p1761
sbatp1762
Rp1763
(dp1764
g16
VPP
p1765
sbatp1766
Rp1767
(dp1768
g16
VVP
p1769
sbatp1770
Rp1771
(dp1772
g16
g248
sbatp1773
Rp1774
(dp1775
g16
g248
sbatp1776
Rp1777
(dp1778
g16
VSBAR
p1779
sbatp1780
Rp1781
(dp1782
g16
VVP
p1783
sbatp1784
Rp1785
(dp1786
g16
g248
sbatp1787
Rp1788
(dp1789
g16
VSBAR
p1790
sbatp1791
Rp1792
(dp1793
g16
VVP
p1794
sbatp1795
Rp1796
(dp1797
g16
g248
sbatp1798
Rp1799
(dp1800
g16
VROOT
p1801
sbasg279
(icmyPackage
CorE
p1802
(dp1803
g282
(lp1804
(I0
I3
tp1805
a(I0
I26
tp1806
asg286
g5
(g6
g7
(lp1807
g1415
ag1422
ag1428
ag1439
ag1451
ag1674
atp1808
Rp1809
(dp1810
g16
g297
sbsbsg287
(icmyPackage
CorE
p1811
(dp1812
g282
(lp1813
(I0
I28
tp1814
a(I0
I36
tp1815
asg286
g5
(g6
g7
(lp1816
g1683
ag1771
atp1817
Rp1818
(dp1819
g16
g297
sbsbsg298
(icmyPackage
pattern
p1820
(dp1821
g301
I18
sg302
I0
sg303
(lp1822
(lp1823
S'because'
p1824
aa(lp1825
S','
p1826
aasg308
(lp1827
I3
aI1
aI1
asg310
(lp1828
S'Because he was absent for two weeks, the other students in his class are ahead of him.'
p1829
asg313
I75
sg314
(lp1830
(lp1831
a(lp1832
S'&C'
p1833
aa(lp1834
S'&R'
p1835
aasbsg323
(lp1836
(isxpPackage
sxpSent
p1837
(dp1838
g327
(lp1839
I2
asg329
VThis is because it is not obvious what kind of data can be used to estimate the language model there is plentiful text from the source domain, but little of it is in normalized target form
p1840
sg331
I3
sg313
I26
sg332
I7
sbasba(icmyPackage
CELink
p1841
(dp1842
g3
(lp1843
g5
(g6
g7
(lp1844
g5
(g6
g7
(lp1845
g5
(g6
g7
(lp1846
g5
(g6
g7
(lp1847
VThis
p1848
atp1849
Rp1850
(dp1851
g16
VDT
p1852
sbag5
(g6
g7
(lp1853
Vadvantage
p1854
atp1855
Rp1856
(dp1857
g16
VNN
p1858
sbatp1859
Rp1860
(dp1861
g16
VNP
p1862
sbag5
(g6
g7
(lp1863
g5
(g6
g7
(lp1864
Vdoes
p1865
atp1866
Rp1867
(dp1868
g16
VVBZ
p1869
sbag5
(g6
g7
(lp1870
Vnot
p1871
atp1872
Rp1873
(dp1874
g16
VRB
p1875
sbag5
(g6
g7
(lp1876
g5
(g6
g7
(lp1877
Vhold
p1878
atp1879
Rp1880
(dp1881
g16
VVB
p1882
sbag5
(g6
g7
(lp1883
g5
(g6
g7
(lp1884
Vfor
p1885
atp1886
Rp1887
(dp1888
g16
VIN
p1889
sbag5
(g6
g7
(lp1890
g5
(g6
g7
(lp1891
Vtext
p1892
atp1893
Rp1894
(dp1895
g16
VNN
p1896
sbag5
(g6
g7
(lp1897
Vnormalization
p1898
atp1899
Rp1900
(dp1901
g16
VNN
p1902
sbatp1903
Rp1904
(dp1905
g16
VNP
p1906
sbatp1907
Rp1908
(dp1909
g16
VPP
p1910
sbatp1911
Rp1912
(dp1913
g16
VVP
p1914
sbatp1915
Rp1916
(dp1917
g16
VVP
p1918
sbatp1919
Rp1920
(dp1921
g16
g248
sbatp1922
Rp1923
(dp1924
g16
VROOT
p1925
sbag5
(g6
g7
(lp1926
g5
(g6
g7
(lp1927
g5
(g6
g7
(lp1928
g5
(g6
g7
(lp1929
VWe
p1930
atp1931
Rp1932
(dp1933
g16
VPRP
p1934
sbatp1935
Rp1936
(dp1937
g16
VNP
p1938
sbag5
(g6
g7
(lp1939
g5
(g6
g7
(lp1940
g5
(g6
g7
(lp1941
Vthus
p1942
atp1943
Rp1944
(dp1945
g16
VRB
p1946
sbatp1947
Rp1948
(dp1949
g16
VADVP
p1950
sbag5
(g6
g7
(lp1951
Vpropose
p1952
atp1953
Rp1954
(dp1955
g16
VVBP
p1956
sbag5
(g6
g7
(lp1957
g5
(g6
g7
(lp1958
Van
p1959
atp1960
Rp1961
(dp1962
g16
VDT
p1963
sbag5
(g6
g7
(lp1964
Valternative
p1965
atp1966
Rp1967
(dp1968
g16
VJJ
p1969
sbag5
(g6
g7
(lp1970
Vapproach
p1971
atp1972
Rp1973
(dp1974
g16
VNN
p1975
sbatp1976
Rp1977
(dp1978
g16
VNP
p1979
sbag5
(g6
g7
(lp1980
g5
(g6
g7
(lp1981
g5
(g6
g7
(lp1982
g5
(g6
g7
(lp1983
Vwhere
p1984
atp1985
Rp1986
(dp1987
g16
VWRB
p1988
sbatp1989
Rp1990
(dp1991
g16
VWHADVP
p1992
sbag5
(g6
g7
(lp1993
g5
(g6
g7
(lp1994
g5
(g6
g7
(lp1995
Vnormalization
p1996
atp1997
Rp1998
(dp1999
g16
VNN
p2000
sbatp2001
Rp2002
(dp2003
g16
VNP
p2004
sbag5
(g6
g7
(lp2005
g5
(g6
g7
(lp2006
Vis
p2007
atp2008
Rp2009
(dp2010
g16
VVBZ
p2011
sbag5
(g6
g7
(lp2012
g5
(g6
g7
(lp2013
Vmodeled
p2014
atp2015
Rp2016
(dp2017
g16
VVBN
p2018
sbag5
(g6
g7
(lp2019
g5
(g6
g7
(lp2020
Vdirectly
p2021
atp2022
Rp2023
(dp2024
g16
VRB
p2025
sbatp2026
Rp2027
(dp2028
g16
VADVP
p2029
sbatp2030
Rp2031
(dp2032
g16
VVP
p2033
sbatp2034
Rp2035
(dp2036
g16
VVP
p2037
sbatp2038
Rp2039
(dp2040
g16
g248
sbatp2041
Rp2042
(dp2043
g16
VSBAR
p2044
sbag5
(g6
g7
(lp2045
g394
atp2046
Rp2047
(dp2048
g16
g394
sbag5
(g6
g7
(lp2049
Vand
p2050
atp2051
Rp2052
(dp2053
g16
VCC
p2054
sbag5
(g6
g7
(lp2055
g5
(g6
g7
(lp2056
g5
(g6
g7
(lp2057
Vwhich
p2058
atp2059
Rp2060
(dp2061
g16
VWDT
p2062
sbatp2063
Rp2064
(dp2065
g16
VWHNP
p2066
sbag5
(g6
g7
(lp2067
g5
(g6
g7
(lp2068
g5
(g6
g7
(lp2069
Venables
p2070
atp2071
Rp2072
(dp2073
g16
VVBZ
p2074
sbag5
(g6
g7
(lp2075
g5
(g6
g7
(lp2076
g5
(g6
g7
(lp2077
Veasy
p2078
atp2079
Rp2080
(dp2081
g16
VJJ
p2082
sbag5
(g6
g7
(lp2083
Vincorporation
p2084
atp2085
Rp2086
(dp2087
g16
VNN
p2088
sbatp2089
Rp2090
(dp2091
g16
VNP
p2092
sbag5
(g6
g7
(lp2093
g5
(g6
g7
(lp2094
Vof
p2095
atp2096
Rp2097
(dp2098
g16
VIN
p2099
sbag5
(g6
g7
(lp2100
g5
(g6
g7
(lp2101
Vunlabeled
p2102
atp2103
Rp2104
(dp2105
g16
VJJ
p2106
sbag5
(g6
g7
(lp2107
Vdata
p2108
atp2109
Rp2110
(dp2111
g16
VNNS
p2112
sbatp2113
Rp2114
(dp2115
g16
VNP
p2116
sbatp2117
Rp2118
(dp2119
g16
VPP
p2120
sbatp2121
Rp2122
(dp2123
g16
VNP
p2124
sbag5
(g6
g7
(lp2125
g5
(g6
g7
(lp2126
Vfrom
p2127
atp2128
Rp2129
(dp2130
g16
VIN
p2131
sbag5
(g6
g7
(lp2132
g5
(g6
g7
(lp2133
Vthe
p2134
atp2135
Rp2136
(dp2137
g16
VDT
p2138
sbag5
(g6
g7
(lp2139
Vsource
p2140
atp2141
Rp2142
(dp2143
g16
VNN
p2144
sbag5
(g6
g7
(lp2145
Vdomain
p2146
atp2147
Rp2148
(dp2149
g16
VNN
p2150
sbatp2151
Rp2152
(dp2153
g16
VNP
p2154
sbatp2155
Rp2156
(dp2157
g16
VPP
p2158
sbatp2159
Rp2160
(dp2161
g16
VVP
p2162
sbatp2163
Rp2164
(dp2165
g16
g248
sbatp2166
Rp2167
(dp2168
g16
VSBAR
p2169
sbatp2170
Rp2171
(dp2172
g16
VSBAR
p2173
sbatp2174
Rp2175
(dp2176
g16
VVP
p2177
sbatp2178
Rp2179
(dp2180
g16
g248
sbatp2181
Rp2182
(dp2183
g16
VROOT
p2184
sbasg279
(icmyPackage
CorE
p2185
(dp2186
g282
(lp2187
(I0
I1
tp2188
a(I1
I0
tp2189
asg286
g5
(g6
g7
(lp2190
g1856
ag1916
ag1936
atp2191
Rp2192
(dp2193
g16
g297
sbsbsg287
(icmyPackage
CorE
p2194
(dp2195
g282
(lp2196
(I1
I2
tp2197
a(I1
I23
tp2198
asg286
g5
(g6
g7
(lp2199
g1954
ag1977
ag2171
atp2200
Rp2201
(dp2202
g16
g297
sbsbsg298
(icmyPackage
pattern
p2203
(dp2204
g301
I35
sg302
I1
sg303
(lp2205
(lp2206
S'thus'
p2207
aasg308
(lp2208
I1
aI1
aI1
asg310
(lp2209
S'Japan will be on the dark side of the Earth, and thus will lack the warming influence of the Sun.'
p2210
asg313
I2
sg314
(lp2211
(lp2212
S'&C'
p2213
aS'(,/;/./--)'
p2214
aS'(&AND)'
p2215
aa(lp2216
S'&R'
p2217
aasbsg323
(lp2218
(isxpPackage
sxpSent
p2219
(dp2220
g327
(lp2221
I3
asg329
VThis advantage does not hold for text normalization
p2222
sg331
I3
sg313
I29
sg332
I7
sba(isxpPackage
sxpSent
p2223
(dp2224
g327
(lp2225
I3
asg329
VWe thus propose an alternative approach where normalization is modeled directly, and which enables easy incorporation of unlabeled data from the source domain
p2226
sg331
I3
sg313
I30
sg332
I8
sbasba(icmyPackage
CELink
p2227
(dp2228
g3
(lp2229
g5
(g6
g7
(lp2230
g5
(g6
g7
(lp2231
g5
(g6
g7
(lp2232
g5
(g6
g7
(lp2233
VOur
p2234
atp2235
Rp2236
(dp2237
g16
VPRP$
p2238
sbag5
(g6
g7
(lp2239
Vstring
p2240
atp2241
Rp2242
(dp2243
g16
VNN
p2244
sbag5
(g6
g7
(lp2245
Vtransduction
p2246
atp2247
Rp2248
(dp2249
g16
VNN
p2250
sbag5
(g6
g7
(lp2251
Vmodel
p2252
atp2253
Rp2254
(dp2255
g16
VNN
p2256
sbatp2257
Rp2258
(dp2259
g16
VNP
p2260
sbag5
(g6
g7
(lp2261
g5
(g6
g7
(lp2262
Vworks
p2263
atp2264
Rp2265
(dp2266
g16
VVBZ
p2267
sbag5
(g6
g7
(lp2268
g5
(g6
g7
(lp2269
Vby
p2270
atp2271
Rp2272
(dp2273
g16
VIN
p2274
sbag5
(g6
g7
(lp2275
g5
(g6
g7
(lp2276
g5
(g6
g7
(lp2277
Vlearning
p2278
atp2279
Rp2280
(dp2281
g16
VVBG
p2282
sbag5
(g6
g7
(lp2283
g5
(g6
g7
(lp2284
g5
(g6
g7
(lp2285
Vthe
p2286
atp2287
Rp2288
(dp2289
g16
VDT
p2290
sbag5
(g6
g7
(lp2291
Vsequence
p2292
atp2293
Rp2294
(dp2295
g16
VNN
p2296
sbatp2297
Rp2298
(dp2299
g16
VNP
p2300
sbag5
(g6
g7
(lp2301
g5
(g6
g7
(lp2302
Vof
p2303
atp2304
Rp2305
(dp2306
g16
VIN
p2307
sbag5
(g6
g7
(lp2308
g5
(g6
g7
(lp2309
g5
(g6
g7
(lp2310
Vedits
p2311
atp2312
Rp2313
(dp2314
g16
VNNS
p2315
sbatp2316
Rp2317
(dp2318
g16
VNP
p2319
sbag5
(g6
g7
(lp2320
g5
(g6
g7
(lp2321
g5
(g6
g7
(lp2322
Vwhich
p2323
atp2324
Rp2325
(dp2326
g16
VWDT
p2327
sbatp2328
Rp2329
(dp2330
g16
VWHNP
p2331
sbag5
(g6
g7
(lp2332
g5
(g6
g7
(lp2333
g5
(g6
g7
(lp2334
Vtransform
p2335
atp2336
Rp2337
(dp2338
g16
VVB
p2339
sbag5
(g6
g7
(lp2340
g5
(g6
g7
(lp2341
Vthe
p2342
atp2343
Rp2344
(dp2345
g16
VDT
p2346
sbag5
(g6
g7
(lp2347
Vinput
p2348
atp2349
Rp2350
(dp2351
g16
VNN
p2352
sbag5
(g6
g7
(lp2353
Vstring
p2354
atp2355
Rp2356
(dp2357
g16
VNN
p2358
sbatp2359
Rp2360
(dp2361
g16
VNP
p2362
sbag5
(g6
g7
(lp2363
g5
(g6
g7
(lp2364
Vinto
p2365
atp2366
Rp2367
(dp2368
g16
VIN
p2369
sbag5
(g6
g7
(lp2370
g5
(g6
g7
(lp2371
Vthe
p2372
atp2373
Rp2374
(dp2375
g16
VDT
p2376
sbag5
(g6
g7
(lp2377
Voutput
p2378
atp2379
Rp2380
(dp2381
g16
VNN
p2382
sbag5
(g6
g7
(lp2383
Vstring
p2384
atp2385
Rp2386
(dp2387
g16
VNN
p2388
sbatp2389
Rp2390
(dp2391
g16
VNP
p2392
sbatp2393
Rp2394
(dp2395
g16
VPP
p2396
sbatp2397
Rp2398
(dp2399
g16
VVP
p2400
sbatp2401
Rp2402
(dp2403
g16
g248
sbatp2404
Rp2405
(dp2406
g16
VSBAR
p2407
sbatp2408
Rp2409
(dp2410
g16
VNP
p2411
sbatp2412
Rp2413
(dp2414
g16
VPP
p2415
sbatp2416
Rp2417
(dp2418
g16
VNP
p2419
sbatp2420
Rp2421
(dp2422
g16
VVP
p2423
sbatp2424
Rp2425
(dp2426
g16
g248
sbatp2427
Rp2428
(dp2429
g16
VPP
p2430
sbatp2431
Rp2432
(dp2433
g16
VVP
p2434
sbatp2435
Rp2436
(dp2437
g16
g248
sbatp2438
Rp2439
(dp2440
g16
VROOT
p2441
sbasg279
(icmyPackage
CorE
p2442
(dp2443
g282
(lp2444
(I0
I6
tp2445
a(I0
I19
tp2446
asg286
g2425
sbsg287
(icmyPackage
CorE
p2447
(dp2448
g282
(lp2449
(I0
I0
tp2450
a(I0
I4
tp2451
asg286
g5
(g6
g7
(lp2452
g2258
ag2265
atp2453
Rp2454
(dp2455
g16
g297
sbsbsg298
(icmyPackage
pattern
p2456
(dp2457
g301
I0
sg302
I0
sg303
(lp2458
(lp2459
(lp2460
S'by'
p2461
aS'through'
p2462
aaasg308
(lp2463
I2
aI1
aI1
asg310
(lp2464
S'The similar relation can be detected by analyzing the contents of nodes based on such approaches as the Latent Semantic Analysis (LSA) and the Vector Space Model (VSM)'
p2465
asg313
I68
sg314
(lp2466
(lp2467
S'&R@Complete@'
p2468
aa(lp2469
S'&V-ing@C@'
p2470
aasbsg323
(lp2471
(isxpPackage
sxpSent
p2472
(dp2473
g327
(lp2474
I4
asg329
VOur string transduction model works by learning the sequence of edits which transform the input string into the output string
p2475
sg331
I4
sg313
I31
sg332
I9
sbasba(icmyPackage
CELink
p2476
(dp2477
g3
(lp2478
g5
(g6
g7
(lp2479
g5
(g6
g7
(lp2480
g5
(g6
g7
(lp2481
g5
(g6
g7
(lp2482
VGiven
p2483
atp2484
Rp2485
(dp2486
g16
VVBN
p2487
sbag5
(g6
g7
(lp2488
g5
(g6
g7
(lp2489
g5
(g6
g7
(lp2490
g31
atp2491
Rp2492
(dp2493
g16
VDT
p2494
sbag5
(g6
g7
(lp2495
Vpair
p2496
atp2497
Rp2498
(dp2499
g16
VNN
p2500
sbatp2501
Rp2502
(dp2503
g16
VNP
p2504
sbag5
(g6
g7
(lp2505
g5
(g6
g7
(lp2506
Vof
p2507
atp2508
Rp2509
(dp2510
g16
VIN
p2511
sbag5
(g6
g7
(lp2512
g5
(g6
g7
(lp2513
Vstrings
p2514
atp2515
Rp2516
(dp2517
g16
VNNS
p2518
sbatp2519
Rp2520
(dp2521
g16
VNP
p2522
sbatp2523
Rp2524
(dp2525
g16
VPP
p2526
sbatp2527
Rp2528
(dp2529
g16
VNP
p2530
sbag5
(g6
g7
(lp2531
g5
(g6
g7
(lp2532
Vsuch
p2533
atp2534
Rp2535
(dp2536
g16
VJJ
p2537
sbag5
(g6
g7
(lp2538
g5
(g6
g7
(lp2539
g5
(g6
g7
(lp2540
g31
atp2541
Rp2542
(dp2543
g16
VDT
p2544
sbag5
(g6
g7
(lp2545
Vsequence
p2546
atp2547
Rp2548
(dp2549
g16
VNN
p2550
sbatp2551
Rp2552
(dp2553
g16
VNP
p2554
sbag5
(g6
g7
(lp2555
g5
(g6
g7
(lp2556
Vof
p2557
atp2558
Rp2559
(dp2560
g16
VIN
p2561
sbag5
(g6
g7
(lp2562
g5
(g6
g7
(lp2563
Vedits
p2564
atp2565
Rp2566
(dp2567
g16
VNNS
p2568
sbatp2569
Rp2570
(dp2571
g16
VNP
p2572
sbatp2573
Rp2574
(dp2575
g16
VPP
p2576
sbag5
(g6
g7
(lp2577
g5
(g6
g7
(lp2578
V-LRB-
p2579
atp2580
Rp2581
(dp2582
g16
V-LRB-
p2583
sbag5
(g6
g7
(lp2584
g5
(g6
g7
(lp2585
Vknown
p2586
atp2587
Rp2588
(dp2589
g16
VVBN
p2590
sbag5
(g6
g7
(lp2591
g5
(g6
g7
(lp2592
Vas
p2593
atp2594
Rp2595
(dp2596
g16
VIN
p2597
sbag5
(g6
g7
(lp2598
g5
(g6
g7
(lp2599
Vthe
p2600
atp2601
Rp2602
(dp2603
g16
VDT
p2604
sbag5
(g6
g7
(lp2605
Vshortest
p2606
atp2607
Rp2608
(dp2609
g16
VJJS
p2610
sbag5
(g6
g7
(lp2611
Vedit
p2612
atp2613
Rp2614
(dp2615
g16
VJJ
p2616
sbag5
(g6
g7
(lp2617
Vscript
p2618
atp2619
Rp2620
(dp2621
g16
VNN
p2622
sbatp2623
Rp2624
(dp2625
g16
VNP
p2626
sbatp2627
Rp2628
(dp2629
g16
VPP
p2630
sbatp2631
Rp2632
(dp2633
g16
VVP
p2634
sbag5
(g6
g7
(lp2635
V-RRB-
p2636
atp2637
Rp2638
(dp2639
g16
V-RRB-
p2640
sbatp2641
Rp2642
(dp2643
g16
VPRN
p2644
sbatp2645
Rp2646
(dp2647
g16
VNP
p2648
sbatp2649
Rp2650
(dp2651
g16
VPP
p2652
sbatp2653
Rp2654
(dp2655
g16
VVP
p2656
sbag5
(g6
g7
(lp2657
g5
(g6
g7
(lp2658
Vcan
p2659
atp2660
Rp2661
(dp2662
g16
VMD
p2663
sbag5
(g6
g7
(lp2664
g5
(g6
g7
(lp2665
Vbe
p2666
atp2667
Rp2668
(dp2669
g16
VVB
p2670
sbag5
(g6
g7
(lp2671
g5
(g6
g7
(lp2672
Vfound
p2673
atp2674
Rp2675
(dp2676
g16
VVBN
p2677
sbag5
(g6
g7
(lp2678
g5
(g6
g7
(lp2679
Vusing
p2680
atp2681
Rp2682
(dp2683
g16
VVBG
p2684
sbag5
(g6
g7
(lp2685
g5
(g6
g7
(lp2686
g5
(g6
g7
(lp2687
Vthe
p2688
atp2689
Rp2690
(dp2691
g16
VDT
p2692
sbag5
(g6
g7
(lp2693
VDiff
p2694
atp2695
Rp2696
(dp2697
g16
VNNP
p2698
sbag5
(g6
g7
(lp2699
Valgorithm
p2700
atp2701
Rp2702
(dp2703
g16
VNN
p2704
sbatp2705
Rp2706
(dp2707
g16
VNP
p2708
sbag5
(g6
g7
(lp2709
V-LRB-
p2710
atp2711
Rp2712
(dp2713
g16
V-LRB-
p2714
sbag5
(g6
g7
(lp2715
g5
(g6
g7
(lp2716
V22
p2717
atp2718
Rp2719
(dp2720
g16
VCD
p2721
sbatp2722
Rp2723
(dp2724
g16
VNP
p2725
sbag5
(g6
g7
(lp2726
g1003
atp2727
Rp2728
(dp2729
g16
g1007
sbatp2730
Rp2731
(dp2732
g16
VNP
p2733
sbatp2734
Rp2735
(dp2736
g16
VPP
p2737
sbatp2738
Rp2739
(dp2740
g16
VVP
p2741
sbatp2742
Rp2743
(dp2744
g16
VVP
p2745
sbatp2746
Rp2747
(dp2748
g16
VVP
p2749
sbag5
(g6
g7
(lp2750
g5
(g6
g7
(lp2751
V23
p2752
atp2753
Rp2754
(dp2755
g16
VCD
p2756
sbatp2757
Rp2758
(dp2759
g16
VNP
p2760
sbatp2761
Rp2762
(dp2763
g16
VSINV
p2764
sbatp2765
Rp2766
(dp2767
g16
VROOT
p2768
sbasg279
(icmyPackage
CorE
p2769
(dp2770
g282
(lp2771
(I0
I13
tp2772
a(I0
I27
tp2773
asg286
g5
(g6
g7
(lp2774
g2624
ag2638
ag2747
atp2775
Rp2776
(dp2777
g16
g297
sbsbsg287
(icmyPackage
CorE
p2778
(dp2779
g282
(lp2780
(I0
I1
tp2781
a(I0
I11
tp2782
asg286
g5
(g6
g7
(lp2783
g2528
ag2535
ag2552
ag2574
ag2581
ag2588
atp2784
Rp2785
(dp2786
g16
g297
sbsbsg298
g1351
sg323
(lp2787
(isxpPackage
sxpSent
p2788
(dp2789
g327
(lp2790
I5
asg329
VGiven a pair of strings such a sequence of edits (known as the shortest edit script) can be found using the Diff algorithm ( 22 ; 23
p2791
sg331
I4
sg313
I32
sg332
I9
sbasba(icmyPackage
CELink
p2792
(dp2793
g3
(lp2794
g5
(g6
g7
(lp2795
g5
(g6
g7
(lp2796
g5
(g6
g7
(lp2797
g5
(g6
g7
(lp2798
g5
(g6
g7
(lp2799
VThe
p2800
atp2801
Rp2802
(dp2803
g16
VDT
p2804
sbag5
(g6
g7
(lp2805
Vtraining
p2806
atp2807
Rp2808
(dp2809
g16
VNN
p2810
sbag5
(g6
g7
(lp2811
Vdata
p2812
atp2813
Rp2814
(dp2815
g16
VNNS
p2816
sbatp2817
Rp2818
(dp2819
g16
VNP
p2820
sbag5
(g6
g7
(lp2821
g5
(g6
g7
(lp2822
Vfor
p2823
atp2824
Rp2825
(dp2826
g16
VIN
p2827
sbag5
(g6
g7
(lp2828
g5
(g6
g7
(lp2829
Vthe
p2830
atp2831
Rp2832
(dp2833
g16
VDT
p2834
sbag5
(g6
g7
(lp2835
Vmodel
p2836
atp2837
Rp2838
(dp2839
g16
VNN
p2840
sbatp2841
Rp2842
(dp2843
g16
VNP
p2844
sbatp2845
Rp2846
(dp2847
g16
VPP
p2848
sbatp2849
Rp2850
(dp2851
g16
VNP
p2852
sbag5
(g6
g7
(lp2853
g5
(g6
g7
(lp2854
Vis
p2855
atp2856
Rp2857
(dp2858
g16
VVBZ
p2859
sbag5
(g6
g7
(lp2860
g5
(g6
g7
(lp2861
Vgenerated
p2862
atp2863
Rp2864
(dp2865
g16
VVBN
p2866
sbag5
(g6
g7
(lp2867
g5
(g6
g7
(lp2868
Vby
p2869
atp2870
Rp2871
(dp2872
g16
VIN
p2873
sbag5
(g6
g7
(lp2874
g5
(g6
g7
(lp2875
g5
(g6
g7
(lp2876
Vcomputing
p2877
atp2878
Rp2879
(dp2880
g16
VVBG
p2881
sbag5
(g6
g7
(lp2882
g5
(g6
g7
(lp2883
g5
(g6
g7
(lp2884
Vshortest
p2885
atp2886
Rp2887
(dp2888
g16
VJJS
p2889
sbag5
(g6
g7
(lp2890
Vedit
p2891
atp2892
Rp2893
(dp2894
g16
VJJ
p2895
sbatp2896
Rp2897
(dp2898
g16
VADJP
p2899
sbag5
(g6
g7
(lp2900
Vscripts
p2901
atp2902
Rp2903
(dp2904
g16
VNNS
p2905
sbatp2906
Rp2907
(dp2908
g16
VNP
p2909
sbag5
(g6
g7
(lp2910
g5
(g6
g7
(lp2911
Vfor
p2912
atp2913
Rp2914
(dp2915
g16
VIN
p2916
sbag5
(g6
g7
(lp2917
g5
(g6
g7
(lp2918
g5
(g6
g7
(lp2919
Vpairs
p2920
atp2921
Rp2922
(dp2923
g16
VNNS
p2924
sbatp2925
Rp2926
(dp2927
g16
VNP
p2928
sbag5
(g6
g7
(lp2929
g5
(g6
g7
(lp2930
Vof
p2931
atp2932
Rp2933
(dp2934
g16
VIN
p2935
sbag5
(g6
g7
(lp2936
g5
(g6
g7
(lp2937
Voriginal
p2938
atp2939
Rp2940
(dp2941
g16
VJJ
p2942
sbag5
(g6
g7
(lp2943
Vand
p2944
atp2945
Rp2946
(dp2947
g16
VCC
p2948
sbag5
(g6
g7
(lp2949
Vnormalized
p2950
atp2951
Rp2952
(dp2953
g16
VJJ
p2954
sbag5
(g6
g7
(lp2955
Vstrings
p2956
atp2957
Rp2958
(dp2959
g16
VNNS
p2960
sbatp2961
Rp2962
(dp2963
g16
VNP
p2964
sbatp2965
Rp2966
(dp2967
g16
VPP
p2968
sbatp2969
Rp2970
(dp2971
g16
VNP
p2972
sbatp2973
Rp2974
(dp2975
g16
VPP
p2976
sbatp2977
Rp2978
(dp2979
g16
VVP
p2980
sbatp2981
Rp2982
(dp2983
g16
g248
sbatp2984
Rp2985
(dp2986
g16
VPP
p2987
sbatp2988
Rp2989
(dp2990
g16
VVP
p2991
sbatp2992
Rp2993
(dp2994
g16
VVP
p2995
sbatp2996
Rp2997
(dp2998
g16
g248
sbatp2999
Rp3000
(dp3001
g16
VROOT
p3002
sbasg279
(icmyPackage
CorE
p3003
(dp3004
g282
(lp3005
(I0
I9
tp3006
a(I0
I19
tp3007
asg286
g2982
sbsg287
(icmyPackage
CorE
p3008
(dp3009
g282
(lp3010
(I0
I0
tp3011
a(I0
I7
tp3012
asg286
g5
(g6
g7
(lp3013
g2850
ag2857
ag2864
atp3014
Rp3015
(dp3016
g16
g297
sbsbsg298
g2456
sg323
(lp3017
(isxpPackage
sxpSent
p3018
(dp3019
g327
(lp3020
I6
aI7
asg329
VThe training data for the model is generated by computing shortest edit scripts for pairs of original and normalized strings
p3021
sg331
I4
sg313
I40
sg332
I14
sbasba(icmyPackage
CELink
p3022
(dp3023
g3
(lp3024
g3000
ag5
(g6
g7
(lp3025
g5
(g6
g7
(lp3026
g5
(g6
g7
(lp3027
g5
(g6
g7
(lp3028
VAs
p3029
atp3030
Rp3031
(dp3032
g16
VIN
p3033
sbag5
(g6
g7
(lp3034
g5
(g6
g7
(lp3035
g31
atp3036
Rp3037
(dp3038
g16
VDT
p3039
sbag5
(g6
g7
(lp3040
Vsequence
p3041
atp3042
Rp3043
(dp3044
g16
VNN
p3045
sbag5
(g6
g7
(lp3046
Vlabeler
p3047
atp3048
Rp3049
(dp3050
g16
VNN
p3051
sbatp3052
Rp3053
(dp3054
g16
VNP
p3055
sbatp3056
Rp3057
(dp3058
g16
VPP
p3059
sbag5
(g6
g7
(lp3060
g5
(g6
g7
(lp3061
Vwe
p3062
atp3063
Rp3064
(dp3065
g16
VPRP
p3066
sbatp3067
Rp3068
(dp3069
g16
VNP
p3070
sbag5
(g6
g7
(lp3071
g5
(g6
g7
(lp3072
Vuse
p3073
atp3074
Rp3075
(dp3076
g16
VVBP
p3077
sbag5
(g6
g7
(lp3078
g5
(g6
g7
(lp3079
g5
(g6
g7
(lp3080
VConditional
p3081
atp3082
Rp3083
(dp3084
g16
VNNP
p3085
sbatp3086
Rp3087
(dp3088
g16
VNP
p3089
sbag5
(g6
g7
(lp3090
g5
(g6
g7
(lp3091
g5
(g6
g7
(lp3092
VRandom
p3093
atp3094
Rp3095
(dp3096
g16
VRB
p3097
sbatp3098
Rp3099
(dp3100
g16
VADVP
p3101
sbag5
(g6
g7
(lp3102
VFields
p3103
atp3104
Rp3105
(dp3106
g16
VVB
p3107
sbag5
(g6
g7
(lp3108
V-LRB-
p3109
atp3110
Rp3111
(dp3112
g16
V-LRB-
p3113
sbag5
(g6
g7
(lp3114
g5
(g6
g7
(lp3115
V15
p3116
atp3117
Rp3118
(dp3119
g16
VCD
p3120
sbatp3121
Rp3122
(dp3123
g16
VNP
p3124
sbatp3125
Rp3126
(dp3127
g16
VVP
p3128
sbatp3129
Rp3130
(dp3131
g16
g248
sbatp3132
Rp3133
(dp3134
g16
VVP
p3135
sbatp3136
Rp3137
(dp3138
g16
g248
sbatp3139
Rp3140
(dp3141
g16
VROOT
p3142
sbasg279
(icmyPackage
CorE
p3143
(dp3144
g282
(lp3145
(I1
I1
tp3146
a(I1
I10
tp3147
asg286
g5
(g6
g7
(lp3148
g3053
ag3068
ag3133
atp3149
Rp3150
(dp3151
g16
g297
sbsbsg287
(icmyPackage
CorE
p3152
(dp3153
g282
(lp3154
(I0
I0
tp3155
a(I0
I19
tp3156
asg286
g3000
sbsg298
g1351
sg323
(lp3157
g3018
a(isxpPackage
sxpSent
p3158
(dp3159
g327
(lp3160
I7
asg329
VAs a sequence labeler we use Conditional Random Fields ( 15
p3161
sg331
I4
sg313
I41
sg332
I14
sbasba(icmyPackage
CELink
p3162
(dp3163
g3
(lp3164
g5
(g6
g7
(lp3165
g5
(g6
g7
(lp3166
g5
(g6
g7
(lp3167
g5
(g6
g7
(lp3168
g5
(g6
g7
(lp3169
VSimple
p3170
atp3171
Rp3172
(dp3173
g16
VNNP
p3174
sbag5
(g6
g7
(lp3175
VRecurrent
p3176
atp3177
Rp3178
(dp3179
g16
VNNP
p3180
sbag5
(g6
g7
(lp3181
VNetworks
p3182
atp3183
Rp3184
(dp3185
g16
VNNPS
p3186
sbatp3187
Rp3188
(dp3189
g16
VNP
p3190
sbag5
(g6
g7
(lp3191
g5
(g6
g7
(lp3192
V-LRB-
p3193
atp3194
Rp3195
(dp3196
g16
V-LRB-
p3197
sbag5
(g6
g7
(lp3198
g5
(g6
g7
(lp3199
VSRNs
p3200
atp3201
Rp3202
(dp3203
g16
VNNP
p3204
sbatp3205
Rp3206
(dp3207
g16
VNP
p3208
sbag5
(g6
g7
(lp3209
V-RRB-
p3210
atp3211
Rp3212
(dp3213
g16
V-RRB-
p3214
sbatp3215
Rp3216
(dp3217
g16
VPRN
p3218
sbatp3219
Rp3220
(dp3221
g16
VNP
p3222
sbag5
(g6
g7
(lp3223
g5
(g6
g7
(lp3224
Vwere
p3225
atp3226
Rp3227
(dp3228
g16
VVBD
p3229
sbag5
(g6
g7
(lp3230
g5
(g6
g7
(lp3231
Vintroduced
p3232
atp3233
Rp3234
(dp3235
g16
VVBN
p3236
sbag5
(g6
g7
(lp3237
g5
(g6
g7
(lp3238
Vby
p3239
atp3240
Rp3241
(dp3242
g16
VIN
p3243
sbag5
(g6
g7
(lp3244
g5
(g6
g7
(lp3245
g5
(g6
g7
(lp3246
VElman
p3247
atp3248
Rp3249
(dp3250
g16
VNNP
p3251
sbatp3252
Rp3253
(dp3254
g16
VNP
p3255
sbag5
(g6
g7
(lp3256
g5
(g6
g7
(lp3257
V-LRB-
p3258
atp3259
Rp3260
(dp3261
g16
V-LRB-
p3262
sbag5
(g6
g7
(lp3263
g5
(g6
g7
(lp3264
V7
p3265
atp3266
Rp3267
(dp3268
g16
VCD
p3269
sbatp3270
Rp3271
(dp3272
g16
VNP
p3273
sbag5
(g6
g7
(lp3274
V-RRB-
p3275
atp3276
Rp3277
(dp3278
g16
V-RRB-
p3279
sbatp3280
Rp3281
(dp3282
g16
VPRN
p3283
sbatp3284
Rp3285
(dp3286
g16
VNP
p3287
sbatp3288
Rp3289
(dp3290
g16
VPP
p3291
sbag5
(g6
g7
(lp3292
g5
(g6
g7
(lp3293
Vas
p3294
atp3295
Rp3296
(dp3297
g16
VIN
p3298
sbag5
(g6
g7
(lp3299
g5
(g6
g7
(lp3300
g5
(g6
g7
(lp3301
Vmodels
p3302
atp3303
Rp3304
(dp3305
g16
VNNS
p3306
sbatp3307
Rp3308
(dp3309
g16
VNP
p3310
sbag5
(g6
g7
(lp3311
g5
(g6
g7
(lp3312
Vof
p3313
atp3314
Rp3315
(dp3316
g16
VIN
p3317
sbag5
(g6
g7
(lp3318
g5
(g6
g7
(lp3319
g5
(g6
g7
(lp3320
g5
(g6
g7
(lp3321
Vtemporal
p3322
atp3323
Rp3324
(dp3325
g16
VJJ
p3326
sbag5
(g6
g7
(lp3327
g394
atp3328
Rp3329
(dp3330
g16
g394
sbag5
(g6
g7
(lp3331
Vor
p3332
atp3333
Rp3334
(dp3335
g16
VCC
p3336
sbag5
(g6
g7
(lp3337
Vsequential
p3338
atp3339
Rp3340
(dp3341
g16
VJJ
p3342
sbag5
(g6
g7
(lp3343
g394
atp3344
Rp3345
(dp3346
g16
g394
sbatp3347
Rp3348
(dp3349
g16
VADJP
p3350
sbag5
(g6
g7
(lp3351
Vstructure
p3352
atp3353
Rp3354
(dp3355
g16
VNN
p3356
sbatp3357
Rp3358
(dp3359
g16
VNP
p3360
sbag5
(g6
g7
(lp3361
g5
(g6
g7
(lp3362
Vin
p3363
atp3364
Rp3365
(dp3366
g16
VIN
p3367
sbag5
(g6
g7
(lp3368
g5
(g6
g7
(lp3369
Vdata
p3370
atp3371
Rp3372
(dp3373
g16
VNNS
p3374
sbatp3375
Rp3376
(dp3377
g16
VNP
p3378
sbatp3379
Rp3380
(dp3381
g16
VPP
p3382
sbag5
(g6
g7
(lp3383
g394
atp3384
Rp3385
(dp3386
g16
g394
sbag5
(g6
g7
(lp3387
g5
(g6
g7
(lp3388
Vincluding
p3389
atp3390
Rp3391
(dp3392
g16
VVBG
p3393
sbag5
(g6
g7
(lp3394
g5
(g6
g7
(lp3395
g5
(g6
g7
(lp3396
Vlinguistic
p3397
atp3398
Rp3399
(dp3400
g16
VJJ
p3401
sbag5
(g6
g7
(lp3402
Vdata
p3403
atp3404
Rp3405
(dp3406
g16
VNNS
p3407
sbatp3408
Rp3409
(dp3410
g16
VNP
p3411
sbag5
(g6
g7
(lp3412
g5
(g6
g7
(lp3413
g5
(g6
g7
(lp3414
V-LRB-
p3415
atp3416
Rp3417
(dp3418
g16
VCD
p3419
sbag5
(g6
g7
(lp3420
V8
p3421
atp3422
Rp3423
(dp3424
g16
VCD
p3425
sbatp3426
Rp3427
(dp3428
g16
VQP
p3429
sbatp3430
Rp3431
(dp3432
g16
VNP
p3433
sbatp3434
Rp3435
(dp3436
g16
VNP
p3437
sbatp3438
Rp3439
(dp3440
g16
VPP
p3441
sbatp3442
Rp3443
(dp3444
g16
VNP
p3445
sbatp3446
Rp3447
(dp3448
g16
VPP
p3449
sbatp3450
Rp3451
(dp3452
g16
VNP
p3453
sbatp3454
Rp3455
(dp3456
g16
VPP
p3457
sbatp3458
Rp3459
(dp3460
g16
VVP
p3461
sbatp3462
Rp3463
(dp3464
g16
VVP
p3465
sbatp3466
Rp3467
(dp3468
g16
g248
sbatp3469
Rp3470
(dp3471
g16
VROOT
p3472
sbag5
(g6
g7
(lp3473
g5
(g6
g7
(lp3474
g5
(g6
g7
(lp3475
g5
(g6
g7
(lp3476
g5
(g6
g7
(lp3477
g5
(g6
g7
(lp3478
VMore
p3479
atp3480
Rp3481
(dp3482
g16
VRBR
p3483
sbag5
(g6
g7
(lp3484
Vrecently
p3485
atp3486
Rp3487
(dp3488
g16
VRB
p3489
sbatp3490
Rp3491
(dp3492
g16
VADVP
p3493
sbag5
(g6
g7
(lp3494
VSRNs
p3495
atp3496
Rp3497
(dp3498
g16
VJJ
p3499
sbatp3500
Rp3501
(dp3502
g16
VADJP
p3503
sbatp3504
Rp3505
(dp3506
g16
VFRAG
p3507
sbag5
(g6
g7
(lp3508
g5
(g6
g7
(lp3509
Vwere
p3510
atp3511
Rp3512
(dp3513
g16
VVBD
p3514
sbag5
(g6
g7
(lp3515
g5
(g6
g7
(lp3516
g5
(g6
g7
(lp3517
Vused
p3518
atp3519
Rp3520
(dp3521
g16
VVBN
p3522
sbag5
(g6
g7
(lp3523
g5
(g6
g7
(lp3524
Vas
p3525
atp3526
Rp3527
(dp3528
g16
VIN
p3529
sbag5
(g6
g7
(lp3530
g5
(g6
g7
(lp3531
g5
(g6
g7
(lp3532
Vlanguage
p3533
atp3534
Rp3535
(dp3536
g16
VNN
p3537
sbag5
(g6
g7
(lp3538
Vmodels
p3539
atp3540
Rp3541
(dp3542
g16
VNNS
p3543
sbatp3544
Rp3545
(dp3546
g16
VNP
p3547
sbag5
(g6
g7
(lp3548
g5
(g6
g7
(lp3549
Vfor
p3550
atp3551
Rp3552
(dp3553
g16
VIN
p3554
sbag5
(g6
g7
(lp3555
g5
(g6
g7
(lp3556
Vspeech
p3557
atp3558
Rp3559
(dp3560
g16
VNN
p3561
sbag5
(g6
g7
(lp3562
Vrecognition
p3563
atp3564
Rp3565
(dp3566
g16
VNN
p3567
sbatp3568
Rp3569
(dp3570
g16
VNP
p3571
sbatp3572
Rp3573
(dp3574
g16
VPP
p3575
sbatp3576
Rp3577
(dp3578
g16
VNP
p3579
sbatp3580
Rp3581
(dp3582
g16
VPP
p3583
sbatp3584
Rp3585
(dp3586
g16
VVP
p3587
sbag5
(g6
g7
(lp3588
Vand
p3589
atp3590
Rp3591
(dp3592
g16
VCC
p3593
sbag5
(g6
g7
(lp3594
g5
(g6
g7
(lp3595
Vshown
p3596
atp3597
Rp3598
(dp3599
g16
VVBN
p3600
sbag5
(g6
g7
(lp3601
g5
(g6
g7
(lp3602
Vto
p3603
atp3604
Rp3605
(dp3606
g16
VTO
p3607
sbag5
(g6
g7
(lp3608
g5
(g6
g7
(lp3609
g5
(g6
g7
(lp3610
Voutperform
p3611
atp3612
Rp3613
(dp3614
g16
VJJ
p3615
sbag5
(g6
g7
(lp3616
Vclassical
p3617
atp3618
Rp3619
(dp3620
g16
VJJ
p3621
sbag5
(g6
g7
(lp3622
Vn-gram
p3623
atp3624
Rp3625
(dp3626
g16
VJJ
p3627
sbag5
(g6
g7
(lp3628
Vlanguage
p3629
atp3630
Rp3631
(dp3632
g16
VNN
p3633
sbag5
(g6
g7
(lp3634
Vmodels
p3635
atp3636
Rp3637
(dp3638
g16
VNNS
p3639
sbatp3640
Rp3641
(dp3642
g16
VNP
p3643
sbag5
(g6
g7
(lp3644
V-LRB-
p3645
atp3646
Rp3647
(dp3648
g16
V-LRB-
p3649
sbag5
(g6
g7
(lp3650
g5
(g6
g7
(lp3651
V19
p3652
atp3653
Rp3654
(dp3655
g16
VCD
p3656
sbatp3657
Rp3658
(dp3659
g16
VNP
p3660
sbag5
(g6
g7
(lp3661
g1003
atp3662
Rp3663
(dp3664
g16
g1007
sbatp3665
Rp3666
(dp3667
g16
VNP
p3668
sbatp3669
Rp3670
(dp3671
g16
VPP
p3672
sbatp3673
Rp3674
(dp3675
g16
VVP
p3676
sbatp3677
Rp3678
(dp3679
g16
VVP
p3680
sbatp3681
Rp3682
(dp3683
g16
VVP
p3684
sbag5
(g6
g7
(lp3685
g5
(g6
g7
(lp3686
V21
p3687
atp3688
Rp3689
(dp3690
g16
VCD
p3691
sbatp3692
Rp3693
(dp3694
g16
VNP
p3695
sbatp3696
Rp3697
(dp3698
g16
VSINV
p3699
sbatp3700
Rp3701
(dp3702
g16
VROOT
p3703
sbasg279
(icmyPackage
CorE
p3704
(dp3705
g282
(lp3706
(I0
I14
tp3707
a(I1
I21
tp3708
asg286
g5
(g6
g7
(lp3709
g3451
ag3505
ag3682
atp3710
Rp3711
(dp3712
g16
g297
sbsbsg287
(icmyPackage
CorE
p3713
(dp3714
g282
(lp3715
(I0
I0
tp3716
a(I0
I12
tp3717
asg286
g5
(g6
g7
(lp3718
g3220
ag3227
ag3234
ag3289
atp3719
Rp3720
(dp3721
g16
g297
sbsbsg298
g1351
sg323
(lp3722
(isxpPackage
sxpSent
p3723
(dp3724
g327
(lp3725
I8
asg329
VSimple Recurrent Networks (SRNs) were introduced by Elman ( 7 ) as models of temporal, or sequential, structure in data, including linguistic data ( 8
p3726
sg331
I5
sg313
I46
sg332
I16
sba(isxpPackage
sxpSent
p3727
(dp3728
g327
(lp3729
I8
aI9
asg329
VMore recently SRNs were used as language models for speech recognition and shown to outperform classical n-gram language models ( 19 ; 21
p3730
sg331
I5
sg313
I47
sg332
I16
sbasba(icmyPackage
CELink
p3731
(dp3732
g3
(lp3733
g3701
ag5
(g6
g7
(lp3734
g5
(g6
g7
(lp3735
g5
(g6
g7
(lp3736
g5
(g6
g7
(lp3737
g5
(g6
g7
(lp3738
VAnother
p3739
atp3740
Rp3741
(dp3742
g16
VDT
p3743
sbag5
(g6
g7
(lp3744
Vversion
p3745
atp3746
Rp3747
(dp3748
g16
VNN
p3749
sbatp3750
Rp3751
(dp3752
g16
VNP
p3753
sbag5
(g6
g7
(lp3754
g5
(g6
g7
(lp3755
Vof
p3756
atp3757
Rp3758
(dp3759
g16
VIN
p3760
sbag5
(g6
g7
(lp3761
g5
(g6
g7
(lp3762
Vrecurrent
p3763
atp3764
Rp3765
(dp3766
g16
VJJ
p3767
sbag5
(g6
g7
(lp3768
Vneural
p3769
atp3770
Rp3771
(dp3772
g16
VJJ
p3773
sbag5
(g6
g7
(lp3774
Vnets
p3775
atp3776
Rp3777
(dp3778
g16
VNNS
p3779
sbatp3780
Rp3781
(dp3782
g16
VNP
p3783
sbatp3784
Rp3785
(dp3786
g16
VPP
p3787
sbatp3788
Rp3789
(dp3790
g16
VNP
p3791
sbag5
(g6
g7
(lp3792
g5
(g6
g7
(lp3793
Vhas
p3794
atp3795
Rp3796
(dp3797
g16
VVBZ
p3798
sbag5
(g6
g7
(lp3799
g5
(g6
g7
(lp3800
Vbeen
p3801
atp3802
Rp3803
(dp3804
g16
VVBN
p3805
sbag5
(g6
g7
(lp3806
g5
(g6
g7
(lp3807
Vused
p3808
atp3809
Rp3810
(dp3811
g16
VVBN
p3812
sbag5
(g6
g7
(lp3813
g5
(g6
g7
(lp3814
g5
(g6
g7
(lp3815
Vto
p3816
atp3817
Rp3818
(dp3819
g16
VTO
p3820
sbag5
(g6
g7
(lp3821
g5
(g6
g7
(lp3822
Vgenerate
p3823
atp3824
Rp3825
(dp3826
g16
VVB
p3827
sbag5
(g6
g7
(lp3828
g5
(g6
g7
(lp3829
Vplausible
p3830
atp3831
Rp3832
(dp3833
g16
VJJ
p3834
sbag5
(g6
g7
(lp3835
Vtext
p3836
atp3837
Rp3838
(dp3839
g16
VNN
p3840
sbatp3841
Rp3842
(dp3843
g16
VNP
p3844
sbag5
(g6
g7
(lp3845
g5
(g6
g7
(lp3846
Vwith
p3847
atp3848
Rp3849
(dp3850
g16
VIN
p3851
sbag5
(g6
g7
(lp3852
g5
(g6
g7
(lp3853
g5
(g6
g7
(lp3854
g31
atp3855
Rp3856
(dp3857
g16
VDT
p3858
sbag5
(g6
g7
(lp3859
Vcharacter-level
p3860
atp3861
Rp3862
(dp3863
g16
VJJ
p3864
sbag5
(g6
g7
(lp3865
Vlanguage
p3866
atp3867
Rp3868
(dp3869
g16
VNN
p3870
sbatp3871
Rp3872
(dp3873
g16
VNP
p3874
sbag5
(g6
g7
(lp3875
g5
(g6
g7
(lp3876
Vmodel
p3877
atp3878
Rp3879
(dp3880
g16
VNNP
p3881
sbag5
(g6
g7
(lp3882
V-LRB-
p3883
atp3884
Rp3885
(dp3886
g16
V-LRB-
p3887
sbag5
(g6
g7
(lp3888
V24
p3889
atp3890
Rp3891
(dp3892
g16
VNNP
p3893
sbatp3894
Rp3895
(dp3896
g16
VNP
p3897
sbatp3898
Rp3899
(dp3900
g16
VNP
p3901
sbatp3902
Rp3903
(dp3904
g16
VPP
p3905
sbatp3906
Rp3907
(dp3908
g16
VVP
p3909
sbatp3910
Rp3911
(dp3912
g16
VVP
p3913
sbatp3914
Rp3915
(dp3916
g16
g248
sbatp3917
Rp3918
(dp3919
g16
VVP
p3920
sbatp3921
Rp3922
(dp3923
g16
VVP
p3924
sbatp3925
Rp3926
(dp3927
g16
VVP
p3928
sbatp3929
Rp3930
(dp3931
g16
g248
sbatp3932
Rp3933
(dp3934
g16
VROOT
p3935
sbasg279
(icmyPackage
CorE
p3936
(dp3937
g282
(lp3938
(I0
I6
tp3939
a(I1
I19
tp3940
asg286
g5
(g6
g7
(lp3941
g3577
ag3591
ag3674
ag3693
ag3933
atp3942
Rp3943
(dp3944
g16
g297
sbsbsg287
(icmyPackage
CorE
p3945
(dp3946
g282
(lp3947
(I0
I1
tp3948
a(I0
I4
tp3949
asg286
g5
(g6
g7
(lp3950
g3487
ag3497
ag3512
ag3520
atp3951
Rp3952
(dp3953
g16
g297
sbsbsg298
g1351
sg323
(lp3954
g3727
a(isxpPackage
sxpSent
p3955
(dp3956
g327
(lp3957
I9
asg329
VAnother version of recurrent neural nets has been used to generate plausible text with a character-level language model ( 24
p3958
sg331
I5
sg313
I48
sg332
I16
sbasba(icmyPackage
CELink
p3959
(dp3960
g3
(lp3961
g5
(g6
g7
(lp3962
g5
(g6
g7
(lp3963
g5
(g6
g7
(lp3964
g5
(g6
g7
(lp3965
VWe
p3966
atp3967
Rp3968
(dp3969
g16
VPRP
p3970
sbatp3971
Rp3972
(dp3973
g16
VNP
p3974
sbag5
(g6
g7
(lp3975
g5
(g6
g7
(lp3976
g5
(g6
g7
(lp3977
Vrun
p3978
atp3979
Rp3980
(dp3981
g16
VVBP
p3982
sbag5
(g6
g7
(lp3983
g5
(g6
g7
(lp3984
Vthe
p3985
atp3986
Rp3987
(dp3988
g16
VDT
p3989
sbag5
(g6
g7
(lp3990
Vtrained
p3991
atp3992
Rp3993
(dp3994
g16
VVBN
p3995
sbag5
(g6
g7
(lp3996
Vmodel
p3997
atp3998
Rp3999
(dp4000
g16
VNN
p4001
sbatp4002
Rp4003
(dp4004
g16
VNP
p4005
sbag5
(g6
g7
(lp4006
g5
(g6
g7
(lp4007
Von
p4008
atp4009
Rp4010
(dp4011
g16
VIN
p4012
sbag5
(g6
g7
(lp4013
g5
(g6
g7
(lp4014
Vnew
p4015
atp4016
Rp4017
(dp4018
g16
VJJ
p4019
sbag5
(g6
g7
(lp4020
Vtweets
p4021
atp4022
Rp4023
(dp4024
g16
VNNS
p4025
sbatp4026
Rp4027
(dp4028
g16
VNP
p4029
sbatp4030
Rp4031
(dp4032
g16
VPP
p4033
sbatp4034
Rp4035
(dp4036
g16
VVP
p4037
sbag5
(g6
g7
(lp4038
Vand
p4039
atp4040
Rp4041
(dp4042
g16
VCC
p4043
sbag5
(g6
g7
(lp4044
g5
(g6
g7
(lp4045
Vrecord
p4046
atp4047
Rp4048
(dp4049
g16
VVB
p4050
sbag5
(g6
g7
(lp4051
g5
(g6
g7
(lp4052
g5
(g6
g7
(lp4053
Vthe
p4054
atp4055
Rp4056
(dp4057
g16
VDT
p4058
sbag5
(g6
g7
(lp4059
Vactivation
p4060
atp4061
Rp4062
(dp4063
g16
VNN
p4064
sbatp4065
Rp4066
(dp4067
g16
VNP
p4068
sbag5
(g6
g7
(lp4069
g5
(g6
g7
(lp4070
Vof
p4071
atp4072
Rp4073
(dp4074
g16
VIN
p4075
sbag5
(g6
g7
(lp4076
g5
(g6
g7
(lp4077
Vthe
p4078
atp4079
Rp4080
(dp4081
g16
VDT
p4082
sbag5
(g6
g7
(lp4083
Vhidden
p4084
atp4085
Rp4086
(dp4087
g16
VJJ
p4088
sbag5
(g6
g7
(lp4089
Vlayer
p4090
atp4091
Rp4092
(dp4093
g16
VNN
p4094
sbatp4095
Rp4096
(dp4097
g16
VNP
p4098
sbatp4099
Rp4100
(dp4101
g16
VPP
p4102
sbatp4103
Rp4104
(dp4105
g16
VNP
p4106
sbag5
(g6
g7
(lp4107
g5
(g6
g7
(lp4108
Vat
p4109
atp4110
Rp4111
(dp4112
g16
VIN
p4113
sbag5
(g6
g7
(lp4114
g5
(g6
g7
(lp4115
Veach
p4116
atp4117
Rp4118
(dp4119
g16
VDT
p4120
sbag5
(g6
g7
(lp4121
Vposition
p4122
atp4123
Rp4124
(dp4125
g16
VNN
p4126
sbatp4127
Rp4128
(dp4129
g16
VNP
p4130
sbatp4131
Rp4132
(dp4133
g16
VPP
p4134
sbag5
(g6
g7
(lp4135
g5
(g6
g7
(lp4136
Vas
p4137
atp4138
Rp4139
(dp4140
g16
VIN
p4141
sbag5
(g6
g7
(lp4142
g5
(g6
g7
(lp4143
g5
(g6
g7
(lp4144
Vthe
p4145
atp4146
Rp4147
(dp4148
g16
VDT
p4149
sbag5
(g6
g7
(lp4150
Vmodel
p4151
atp4152
Rp4153
(dp4154
g16
VNN
p4155
sbatp4156
Rp4157
(dp4158
g16
VNP
p4159
sbag5
(g6
g7
(lp4160
g5
(g6
g7
(lp4161
Vpredicts
p4162
atp4163
Rp4164
(dp4165
g16
VVBZ
p4166
sbag5
(g6
g7
(lp4167
g5
(g6
g7
(lp4168
Vthe
p4169
atp4170
Rp4171
(dp4172
g16
VDT
p4173
sbag5
(g6
g7
(lp4174
Vnext
p4175
atp4176
Rp4177
(dp4178
g16
VJJ
p4179
sbag5
(g6
g7
(lp4180
Vcharacter
p4181
atp4182
Rp4183
(dp4184
g16
VNN
p4185
sbatp4186
Rp4187
(dp4188
g16
VNP
p4189
sbatp4190
Rp4191
(dp4192
g16
VVP
p4193
sbatp4194
Rp4195
(dp4196
g16
g248
sbatp4197
Rp4198
(dp4199
g16
VSBAR
p4200
sbatp4201
Rp4202
(dp4203
g16
VVP
p4204
sbatp4205
Rp4206
(dp4207
g16
VVP
p4208
sbatp4209
Rp4210
(dp4211
g16
g248
sbatp4212
Rp4213
(dp4214
g16
VROOT
p4215
sbasg279
(icmyPackage
CorE
p4216
(dp4217
g282
(lp4218
(I0
I20
tp4219
a(I0
I25
tp4220
asg286
g4195
sbsg287
(icmyPackage
CorE
p4221
(dp4222
g282
(lp4223
(I0
I0
tp4224
a(I0
I18
tp4225
asg286
g5
(g6
g7
(lp4226
g3972
ag4035
ag4041
ag4048
ag4104
ag4132
atp4227
Rp4228
(dp4229
g16
g297
sbsbsg298
g1351
sg323
(lp4230
(isxpPackage
sxpSent
p4231
(dp4232
g327
(lp4233
I10
asg329
VWe run the trained model on new tweets and record the activation of the hidden layer at each position as the model predicts the next character
p4234
sg331
I5
sg313
I61
sg332
I18
sbasba(icmyPackage
CELink
p4235
(dp4236
g3
(lp4237
g5
(g6
g7
(lp4238
g5
(g6
g7
(lp4239
g5
(g6
g7
(lp4240
g5
(g6
g7
(lp4241
VThese
p4242
atp4243
Rp4244
(dp4245
g16
VDT
p4246
sbag5
(g6
g7
(lp4247
Vactivation
p4248
atp4249
Rp4250
(dp4251
g16
VNN
p4252
sbag5
(g6
g7
(lp4253
Vvectors
p4254
atp4255
Rp4256
(dp4257
g16
VNNS
p4258
sbatp4259
Rp4260
(dp4261
g16
VNP
p4262
sbag5
(g6
g7
(lp4263
g5
(g6
g7
(lp4264
Vform
p4265
atp4266
Rp4267
(dp4268
g16
VNN
p4269
sbag5
(g6
g7
(lp4270
g5
(g6
g7
(lp4271
g5
(g6
g7
(lp4272
g5
(g6
g7
(lp4273
Vour
p4274
atp4275
Rp4276
(dp4277
g16
VPRP$
p4278
sbag5
(g6
g7
(lp4279
Vtext
p4280
atp4281
Rp4282
(dp4283
g16
VNN
p4284
sbatp4285
Rp4286
(dp4287
g16
VNP
p4288
sbag5
(g6
g7
(lp4289
g5
(g6
g7
(lp4290
Vembeddings
p4291
atp4292
Rp4293
(dp4294
g16
VVBZ
p4295
sbag5
(g6
g7
(lp4296
g5
(g6
g7
(lp4297
g5
(g6
g7
(lp4298
g5
(g6
g7
(lp4299
Vthey
p4300
atp4301
Rp4302
(dp4303
g16
VPRP
p4304
sbatp4305
Rp4306
(dp4307
g16
VNP
p4308
sbag5
(g6
g7
(lp4309
g5
(g6
g7
(lp4310
Vare
p4311
atp4312
Rp4313
(dp4314
g16
VVBP
p4315
sbag5
(g6
g7
(lp4316
g5
(g6
g7
(lp4317
Vdiscretized
p4318
atp4319
Rp4320
(dp4321
g16
VVBN
p4322
sbag5
(g6
g7
(lp4323
Vand
p4324
atp4325
Rp4326
(dp4327
g16
VCC
p4328
sbag5
(g6
g7
(lp4329
Vused
p4330
atp4331
Rp4332
(dp4333
g16
VVBN
p4334
sbag5
(g6
g7
(lp4335
g5
(g6
g7
(lp4336
Vas
p4337
atp4338
Rp4339
(dp4340
g16
VIN
p4341
sbag5
(g6
g7
(lp4342
g5
(g6
g7
(lp4343
Vinput
p4344
atp4345
Rp4346
(dp4347
g16
VNN
p4348
sbag5
(g6
g7
(lp4349
Vfeatures
p4350
atp4351
Rp4352
(dp4353
g16
VNNS
p4354
sbatp4355
Rp4356
(dp4357
g16
VNP
p4358
sbatp4359
Rp4360
(dp4361
g16
VPP
p4362
sbag5
(g6
g7
(lp4363
g5
(g6
g7
(lp4364
Vto
p4365
atp4366
Rp4367
(dp4368
g16
VTO
p4369
sbag5
(g6
g7
(lp4370
g5
(g6
g7
(lp4371
Vthe
p4372
atp4373
Rp4374
(dp4375
g16
VDT
p4376
sbag5
(g6
g7
(lp4377
Vsupervised
p4378
atp4379
Rp4380
(dp4381
g16
VJJ
p4382
sbag5
(g6
g7
(lp4383
Vsequence
p4384
atp4385
Rp4386
(dp4387
g16
VNN
p4388
sbag5
(g6
g7
(lp4389
Vlabeler
p4390
atp4391
Rp4392
(dp4393
g16
VNN
p4394
sbatp4395
Rp4396
(dp4397
g16
VNP
p4398
sbatp4399
Rp4400
(dp4401
g16
VPP
p4402
sbag5
(g6
g7
(lp4403
g5
(g6
g7
(lp4404
Vas
p4405
atp4406
Rp4407
(dp4408
g16
VIN
p4409
sbag5
(g6
g7
(lp4410
g5
(g6
g7
(lp4411
g5
(g6
g7
(lp4412
Vdescribed
p4413
atp4414
Rp4415
(dp4416
g16
VVBN
p4417
sbag5
(g6
g7
(lp4418
g5
(g6
g7
(lp4419
Vin
p4420
atp4421
Rp4422
(dp4423
g16
VIN
p4424
sbag5
(g6
g7
(lp4425
g5
(g6
g7
(lp4426
VSection
p4427
atp4428
Rp4429
(dp4430
g16
VNNP
p4431
sbag5
(g6
g7
(lp4432
V3.4
p4433
atp4434
Rp4435
(dp4436
g16
VCD
p4437
sbatp4438
Rp4439
(dp4440
g16
VNP
p4441
sbatp4442
Rp4443
(dp4444
g16
VPP
p4445
sbatp4446
Rp4447
(dp4448
g16
VVP
p4449
sbatp4450
Rp4451
(dp4452
g16
g248
sbatp4453
Rp4454
(dp4455
g16
VSBAR
p4456
sbatp4457
Rp4458
(dp4459
g16
VVP
p4460
sbatp4461
Rp4462
(dp4463
g16
VVP
p4464
sbatp4465
Rp4466
(dp4467
g16
g248
sbatp4468
Rp4469
(dp4470
g16
VSBAR
p4471
sbatp4472
Rp4473
(dp4474
g16
VVP
p4475
sbatp4476
Rp4477
(dp4478
g16
g248
sbatp4479
Rp4480
(dp4481
g16
VSBAR
p4482
sbatp4483
Rp4484
(dp4485
g16
VVP
p4486
sbatp4487
Rp4488
(dp4489
g16
g248
sbatp4490
Rp4491
(dp4492
g16
VROOT
p4493
sbag5
(g6
g7
(lp4494
g5
(g6
g7
(lp4495
g5
(g6
g7
(lp4496
g5
(g6
g7
(lp4497
VWe
p4498
atp4499
Rp4500
(dp4501
g16
VPRP
p4502
sbatp4503
Rp4504
(dp4505
g16
VNP
p4506
sbag5
(g6
g7
(lp4507
g5
(g6
g7
(lp4508
Vlimit
p4509
atp4510
Rp4511
(dp4512
g16
VVBP
p4513
sbag5
(g6
g7
(lp4514
g5
(g6
g7
(lp4515
g5
(g6
g7
(lp4516
Vthe
p4517
atp4518
Rp4519
(dp4520
g16
VDT
p4521
sbag5
(g6
g7
(lp4522
Vsize
p4523
atp4524
Rp4525
(dp4526
g16
VNN
p4527
sbatp4528
Rp4529
(dp4530
g16
VNP
p4531
sbag5
(g6
g7
(lp4532
g5
(g6
g7
(lp4533
Vof
p4534
atp4535
Rp4536
(dp4537
g16
VIN
p4538
sbag5
(g6
g7
(lp4539
g5
(g6
g7
(lp4540
Vthe
p4541
atp4542
Rp4543
(dp4544
g16
VDT
p4545
sbag5
(g6
g7
(lp4546
Vstring
p4547
atp4548
Rp4549
(dp4550
g16
VNN
p4551
sbag5
(g6
g7
(lp4552
Valphabet
p4553
atp4554
Rp4555
(dp4556
g16
VNN
p4557
sbatp4558
Rp4559
(dp4560
g16
VNP
p4561
sbatp4562
Rp4563
(dp4564
g16
VPP
p4565
sbatp4566
Rp4567
(dp4568
g16
VNP
p4569
sbag5
(g6
g7
(lp4570
g5
(g6
g7
(lp4571
Vby
p4572
atp4573
Rp4574
(dp4575
g16
VIN
p4576
sbag5
(g6
g7
(lp4577
g5
(g6
g7
(lp4578
g5
(g6
g7
(lp4579
g5
(g6
g7
(lp4580
g5
(g6
g7
(lp4581
Valways
p4582
atp4583
Rp4584
(dp4585
g16
VRB
p4586
sbatp4587
Rp4588
(dp4589
g16
VADVP
p4590
sbag5
(g6
g7
(lp4591
Vworking
p4592
atp4593
Rp4594
(dp4595
g16
VVBG
p4596
sbag5
(g6
g7
(lp4597
g5
(g6
g7
(lp4598
Vwith
p4599
atp4600
Rp4601
(dp4602
g16
VIN
p4603
sbag5
(g6
g7
(lp4604
g5
(g6
g7
(lp4605
g5
(g6
g7
(lp4606
VUTF-8
p4607
atp4608
Rp4609
(dp4610
g16
VJJ
p4611
sbag5
(g6
g7
(lp4612
Vencoded
p4613
atp4614
Rp4615
(dp4616
g16
VJJ
p4617
sbatp4618
Rp4619
(dp4620
g16
VADJP
p4621
sbag5
(g6
g7
(lp4622
Vstrings
p4623
atp4624
Rp4625
(dp4626
g16
VNNS
p4627
sbatp4628
Rp4629
(dp4630
g16
VNP
p4631
sbatp4632
Rp4633
(dp4634
g16
VPP
p4635
sbatp4636
Rp4637
(dp4638
g16
VVP
p4639
sbag5
(g6
g7
(lp4640
g394
atp4641
Rp4642
(dp4643
g16
g394
sbag5
(g6
g7
(lp4644
Vand
p4645
atp4646
Rp4647
(dp4648
g16
VCC
p4649
sbag5
(g6
g7
(lp4650
g5
(g6
g7
(lp4651
Vusing
p4652
atp4653
Rp4654
(dp4655
g16
VVBG
p4656
sbag5
(g6
g7
(lp4657
g5
(g6
g7
(lp4658
g5
(g6
g7
(lp4659
Vbytes
p4660
atp4661
Rp4662
(dp4663
g16
VNNS
p4664
sbag5
(g6
g7
(lp4665
g5
(g6
g7
(lp4666
Vrather
p4667
atp4668
Rp4669
(dp4670
g16
VRB
p4671
sbag5
(g6
g7
(lp4672
Vthan
p4673
atp4674
Rp4675
(dp4676
g16
VIN
p4677
sbatp4678
Rp4679
(dp4680
g16
VCONJP
p4681
sbag5
(g6
g7
(lp4682
Vcharacters
p4683
atp4684
Rp4685
(dp4686
g16
VNNS
p4687
sbatp4688
Rp4689
(dp4690
g16
VNP
p4691
sbag5
(g6
g7
(lp4692
g5
(g6
g7
(lp4693
Vas
p4694
atp4695
Rp4696
(dp4697
g16
VIN
p4698
sbag5
(g6
g7
(lp4699
g5
(g6
g7
(lp4700
Vbasic
p4701
atp4702
Rp4703
(dp4704
g16
VJJ
p4705
sbag5
(g6
g7
(lp4706
Vunits
p4707
atp4708
Rp4709
(dp4710
g16
VNNS
p4711
sbatp4712
Rp4713
(dp4714
g16
VNP
p4715
sbatp4716
Rp4717
(dp4718
g16
VPP
p4719
sbatp4720
Rp4721
(dp4722
g16
VNP
p4723
sbatp4724
Rp4725
(dp4726
g16
VVP
p4727
sbatp4728
Rp4729
(dp4730
g16
VVP
p4731
sbatp4732
Rp4733
(dp4734
g16
g248
sbatp4735
Rp4736
(dp4737
g16
VPP
p4738
sbatp4739
Rp4740
(dp4741
g16
VVP
p4742
sbatp4743
Rp4744
(dp4745
g16
g248
sbatp4746
Rp4747
(dp4748
g16
VROOT
p4749
sbasg279
(icmyPackage
CorE
p4750
(dp4751
g282
(lp4752
(I0
I13
tp4753
a(I1
I15
tp4754
asg286
g5
(g6
g7
(lp4755
g4356
ag4400
ag4454
ag4504
ag4511
ag4567
ag4574
ag4637
ag4642
atp4756
Rp4757
(dp4758
g16
g297
sbsbsg287
(icmyPackage
CorE
p4759
(dp4760
g282
(lp4761
(I0
I0
tp4762
a(I0
I11
tp4763
asg286
g5
(g6
g7
(lp4764
g4260
ag4267
ag4286
ag4293
ag4306
ag4313
ag4320
ag4326
ag4332
atp4765
Rp4766
(dp4767
g16
g297
sbsbsg298
g1351
sg323
(lp4768
(isxpPackage
sxpSent
p4769
(dp4770
g327
(lp4771
I11
asg329
VThese activation vectors form our text embeddings they are discretized and used as input features to the supervised sequence labeler as described in Section 3.4
p4772
sg331
I5
sg313
I62
sg332
I18
sba(isxpPackage
sxpSent
p4773
(dp4774
g327
(lp4775
I11
aI12
asg329
VWe limit the size of the string alphabet by always working with UTF-8 encoded strings, and using bytes rather than characters as basic units
p4776
sg331
I6
sg313
I63
sg332
I19
sbasba(icmyPackage
CELink
p4777
(dp4778
g3
(lp4779
g4747
asg279
(icmyPackage
CorE
p4780
(dp4781
g282
(lp4782
(I0
I9
tp4783
a(I0
I24
tp4784
asg286
g4733
sbsg287
(icmyPackage
CorE
p4785
(dp4786
g282
(lp4787
(I0
I0
tp4788
a(I0
I7
tp4789
asg286
g5
(g6
g7
(lp4790
g4504
ag4511
ag4567
atp4791
Rp4792
(dp4793
g16
g297
sbsbsg298
g2456
sg323
(lp4794
g4773
asba(icmyPackage
CELink
p4795
(dp4796
g3
(lp4797
g5
(g6
g7
(lp4798
g5
(g6
g7
(lp4799
g5
(g6
g7
(lp4800
g5
(g6
g7
(lp4801
VThe
p4802
atp4803
Rp4804
(dp4805
g16
VDT
p4806
sbag5
(g6
g7
(lp4807
Vtrained
p4808
atp4809
Rp4810
(dp4811
g16
VVBN
p4812
sbag5
(g6
g7
(lp4813
VSRN
p4814
atp4815
Rp4816
(dp4817
g16
VNN
p4818
sbag5
(g6
g7
(lp4819
Vlanguage
p4820
atp4821
Rp4822
(dp4823
g16
VNN
p4824
sbag5
(g6
g7
(lp4825
Vmodel
p4826
atp4827
Rp4828
(dp4829
g16
VNN
p4830
sbatp4831
Rp4832
(dp4833
g16
VNP
p4834
sbag5
(g6
g7
(lp4835
g5
(g6
g7
(lp4836
Vcan
p4837
atp4838
Rp4839
(dp4840
g16
VMD
p4841
sbag5
(g6
g7
(lp4842
g5
(g6
g7
(lp4843
Vbe
p4844
atp4845
Rp4846
(dp4847
g16
VVB
p4848
sbag5
(g6
g7
(lp4849
g5
(g6
g7
(lp4850
Vused
p4851
atp4852
Rp4853
(dp4854
g16
VVBN
p4855
sbag5
(g6
g7
(lp4856
g5
(g6
g7
(lp4857
g5
(g6
g7
(lp4858
Vto
p4859
atp4860
Rp4861
(dp4862
g16
VTO
p4863
sbag5
(g6
g7
(lp4864
g5
(g6
g7
(lp4865
Vgenerate
p4866
atp4867
Rp4868
(dp4869
g16
VVB
p4870
sbag5
(g6
g7
(lp4871
g5
(g6
g7
(lp4872
Vrandom
p4873
atp4874
Rp4875
(dp4876
g16
VJJ
p4877
sbag5
(g6
g7
(lp4878
Vtext
p4879
atp4880
Rp4881
(dp4882
g16
VNN
p4883
sbatp4884
Rp4885
(dp4886
g16
VNP
p4887
sbag5
(g6
g7
(lp4888
g5
(g6
g7
(lp4889
Vby
p4890
atp4891
Rp4892
(dp4893
g16
VIN
p4894
sbag5
(g6
g7
(lp4895
g5
(g6
g7
(lp4896
g5
(g6
g7
(lp4897
g5
(g6
g7
(lp4898
Vsampling
p4899
atp4900
Rp4901
(dp4902
g16
VVBG
p4903
sbag5
(g6
g7
(lp4904
g5
(g6
g7
(lp4905
Vthe
p4906
atp4907
Rp4908
(dp4909
g16
VDT
p4910
sbag5
(g6
g7
(lp4911
Vnext
p4912
atp4913
Rp4914
(dp4915
g16
VJJ
p4916
sbag5
(g6
g7
(lp4917
Vbyte
p4918
atp4919
Rp4920
(dp4921
g16
VNN
p4922
sbatp4923
Rp4924
(dp4925
g16
VNP
p4926
sbag5
(g6
g7
(lp4927
g5
(g6
g7
(lp4928
Vfrom
p4929
atp4930
Rp4931
(dp4932
g16
VIN
p4933
sbag5
(g6
g7
(lp4934
g5
(g6
g7
(lp4935
Vits
p4936
atp4937
Rp4938
(dp4939
g16
VPRP$
p4940
sbag5
(g6
g7
(lp4941
Vpredictive
p4942
atp4943
Rp4944
(dp4945
g16
VJJ
p4946
sbag5
(g6
g7
(lp4947
Vdistribution
p4948
atp4949
Rp4950
(dp4951
g16
VNN
p4952
sbatp4953
Rp4954
(dp4955
g16
VNP
p4956
sbatp4957
Rp4958
(dp4959
g16
VPP
p4960
sbatp4961
Rp4962
(dp4963
g16
VVP
p4964
sbag5
(g6
g7
(lp4965
Vand
p4966
atp4967
Rp4968
(dp4969
g16
VCC
p4970
sbag5
(g6
g7
(lp4971
g5
(g6
g7
(lp4972
Vextending
p4973
atp4974
Rp4975
(dp4976
g16
VVBG
p4977
sbag5
(g6
g7
(lp4978
g5
(g6
g7
(lp4979
Vthe
p4980
atp4981
Rp4982
(dp4983
g16
VDT
p4984
sbag5
(g6
g7
(lp4985
Vstring
p4986
atp4987
Rp4988
(dp4989
g16
VNN
p4990
sbatp4991
Rp4992
(dp4993
g16
VNP
p4994
sbag5
(g6
g7
(lp4995
g5
(g6
g7
(lp4996
Vwith
p4997
atp4998
Rp4999
(dp5000
g16
VIN
p5001
sbag5
(g6
g7
(lp5002
g5
(g6
g7
(lp5003
Vthe
p5004
atp5005
Rp5006
(dp5007
g16
VDT
p5008
sbag5
(g6
g7
(lp5009
Vresult
p5010
atp5011
Rp5012
(dp5013
g16
VNN
p5014
sbatp5015
Rp5016
(dp5017
g16
VNP
p5018
sbatp5019
Rp5020
(dp5021
g16
VPP
p5022
sbatp5023
Rp5024
(dp5025
g16
VVP
p5026
sbatp5027
Rp5028
(dp5029
g16
VVP
p5030
sbatp5031
Rp5032
(dp5033
g16
g248
sbatp5034
Rp5035
(dp5036
g16
VPP
p5037
sbatp5038
Rp5039
(dp5040
g16
VVP
p5041
sbatp5042
Rp5043
(dp5044
g16
VVP
p5045
sbatp5046
Rp5047
(dp5048
g16
g248
sbatp5049
Rp5050
(dp5051
g16
VVP
p5052
sbatp5053
Rp5054
(dp5055
g16
VVP
p5056
sbatp5057
Rp5058
(dp5059
g16
VVP
p5060
sbatp5061
Rp5062
(dp5063
g16
g248
sbatp5064
Rp5065
(dp5066
g16
VROOT
p5067
sbasg279
(icmyPackage
CorE
p5068
(dp5069
g282
(lp5070
(I0
I13
tp5071
a(I0
I27
tp5072
asg286
g5032
sbsg287
(icmyPackage
CorE
p5073
(dp5074
g282
(lp5075
(I0
I0
tp5076
a(I0
I11
tp5077
asg286
g5
(g6
g7
(lp5078
g4832
ag4839
ag4846
ag4853
ag4861
ag4868
ag4885
atp5079
Rp5080
(dp5081
g16
g297
sbsbsg298
g2456
sg323
(lp5082
(isxpPackage
sxpSent
p5083
(dp5084
g327
(lp5085
I13
asg329
VThe trained SRN language model can be used to generate random text by sampling the next byte from its predictive distribution and extending the string with the result
p5086
sg331
I7
sg313
I72
sg332
I21
sbasba(icmyPackage
CELink
p5087
(dp5088
g3
(lp5089
g5
(g6
g7
(lp5090
g5
(g6
g7
(lp5091
g5
(g6
g7
(lp5092
g5
(g6
g7
(lp5093
VIt
p5094
atp5095
Rp5096
(dp5097
g16
VPRP
p5098
sbatp5099
Rp5100
(dp5101
g16
VNP
p5102
sbag5
(g6
g7
(lp5103
g5
(g6
g7
(lp5104
Vis
p5105
atp5106
Rp5107
(dp5108
g16
VVBZ
p5109
sbag5
(g6
g7
(lp5110
g5
(g6
g7
(lp5111
Vhard
p5112
atp5113
Rp5114
(dp5115
g16
VJJ
p5116
sbag5
(g6
g7
(lp5117
g5
(g6
g7
(lp5118
g5
(g6
g7
(lp5119
Vto
p5120
atp5121
Rp5122
(dp5123
g16
VTO
p5124
sbag5
(g6
g7
(lp5125
g5
(g6
g7
(lp5126
Vinterpret
p5127
atp5128
Rp5129
(dp5130
g16
VVB
p5131
sbag5
(g6
g7
(lp5132
g5
(g6
g7
(lp5133
Vthe
p5134
atp5135
Rp5136
(dp5137
g16
VDT
p5138
sbag5
(g6
g7
(lp5139
Vresults
p5140
atp5141
Rp5142
(dp5143
g16
VNNS
p5144
sbatp5145
Rp5146
(dp5147
g16
VNP
p5148
sbag5
(g6
g7
(lp5149
g5
(g6
g7
(lp5150
Vfrom
p5151
atp5152
Rp5153
(dp5154
g16
VIN
p5155
sbag5
(g6
g7
(lp5156
g5
(g6
g7
(lp5157
VHan
p5158
atp5159
Rp5160
(dp5161
g16
VNNP
p5162
sbag5
(g6
g7
(lp5163
Vand
p5164
atp5165
Rp5166
(dp5167
g16
VCC
p5168
sbag5
(g6
g7
(lp5169
VBaldwin
p5170
atp5171
Rp5172
(dp5173
g16
VNNP
p5174
sbatp5175
Rp5176
(dp5177
g16
VNP
p5178
sbatp5179
Rp5180
(dp5181
g16
VPP
p5182
sbag5
(g6
g7
(lp5183
g5
(g6
g7
(lp5184
V-LRB-
p5185
atp5186
Rp5187
(dp5188
g16
V-LRB-
p5189
sbag5
(g6
g7
(lp5190
g5
(g6
g7
(lp5191
V12
p5192
atp5193
Rp5194
(dp5195
g16
VCD
p5196
sbatp5197
Rp5198
(dp5199
g16
VNP
p5200
sbag5
(g6
g7
(lp5201
V-RRB-
p5202
atp5203
Rp5204
(dp5205
g16
V-RRB-
p5206
sbatp5207
Rp5208
(dp5209
g16
VPRN
p5210
sbatp5211
Rp5212
(dp5213
g16
VVP
p5214
sbatp5215
Rp5216
(dp5217
g16
VVP
p5218
sbatp5219
Rp5220
(dp5221
g16
g248
sbatp5222
Rp5223
(dp5224
g16
VADJP
p5225
sbag5
(g6
g7
(lp5226
g394
atp5227
Rp5228
(dp5229
g16
g394
sbag5
(g6
g7
(lp5230
g5
(g6
g7
(lp5231
Vas
p5232
atp5233
Rp5234
(dp5235
g16
VIN
p5236
sbag5
(g6
g7
(lp5237
g5
(g6
g7
(lp5238
g5
(g6
g7
(lp5239
Vthe
p5240
atp5241
Rp5242
(dp5243
g16
VDT
p5244
sbag5
(g6
g7
(lp5245
Vevaluation
p5246
atp5247
Rp5248
(dp5249
g16
VNN
p5250
sbatp5251
Rp5252
(dp5253
g16
VNP
p5254
sbag5
(g6
g7
(lp5255
g5
(g6
g7
(lp5256
Vis
p5257
atp5258
Rp5259
(dp5260
g16
VVBZ
p5261
sbag5
(g6
g7
(lp5262
g5
(g6
g7
(lp5263
Vcarried
p5264
atp5265
Rp5266
(dp5267
g16
VVBN
p5268
sbag5
(g6
g7
(lp5269
g5
(g6
g7
(lp5270
Vout
p5271
atp5272
Rp5273
(dp5274
g16
VRP
p5275
sbatp5276
Rp5277
(dp5278
g16
VPRT
p5279
sbag5
(g6
g7
(lp5280
g5
(g6
g7
(lp5281
Vby
p5282
atp5283
Rp5284
(dp5285
g16
VIN
p5286
sbag5
(g6
g7
(lp5287
g5
(g6
g7
(lp5288
g5
(g6
g7
(lp5289
Vassuming
p5290
atp5291
Rp5292
(dp5293
g16
VVBG
p5294
sbag5
(g6
g7
(lp5295
g5
(g6
g7
(lp5296
Vthat
p5297
atp5298
Rp5299
(dp5300
g16
VIN
p5301
sbag5
(g6
g7
(lp5302
g5
(g6
g7
(lp5303
g5
(g6
g7
(lp5304
Vthe
p5305
atp5306
Rp5307
(dp5308
g16
VDT
p5309
sbag5
(g6
g7
(lp5310
Vwords
p5311
atp5312
Rp5313
(dp5314
g16
VNNS
p5315
sbag5
(g6
g7
(lp5316
g5
(g6
g7
(lp5317
g5
(g6
g7
(lp5318
Vto
p5319
atp5320
Rp5321
(dp5322
g16
VTO
p5323
sbag5
(g6
g7
(lp5324
g5
(g6
g7
(lp5325
Vbe
p5326
atp5327
Rp5328
(dp5329
g16
VVB
p5330
sbag5
(g6
g7
(lp5331
g5
(g6
g7
(lp5332
Vnormalized
p5333
atp5334
Rp5335
(dp5336
g16
VVBN
p5337
sbatp5338
Rp5339
(dp5340
g16
VVP
p5341
sbatp5342
Rp5343
(dp5344
g16
VVP
p5345
sbatp5346
Rp5347
(dp5348
g16
VVP
p5349
sbatp5350
Rp5351
(dp5352
g16
g248
sbatp5353
Rp5354
(dp5355
g16
VNP
p5356
sbag5
(g6
g7
(lp5357
g5
(g6
g7
(lp5358
Vare
p5359
atp5360
Rp5361
(dp5362
g16
VVBP
p5363
sbag5
(g6
g7
(lp5364
g5
(g6
g7
(lp5365
Vknown
p5366
atp5367
Rp5368
(dp5369
g16
VVBN
p5370
sbag5
(g6
g7
(lp5371
g5
(g6
g7
(lp5372
Vin
p5373
atp5374
Rp5375
(dp5376
g16
VIN
p5377
sbag5
(g6
g7
(lp5378
g5
(g6
g7
(lp5379
Vadvance
p5380
atp5381
Rp5382
(dp5383
g16
VNN
p5384
sbatp5385
Rp5386
(dp5387
g16
VNP
p5388
sbatp5389
Rp5390
(dp5391
g16
VPP
p5392
sbatp5393
Rp5394
(dp5395
g16
VVP
p5396
sbatp5397
Rp5398
(dp5399
g16
VVP
p5400
sbatp5401
Rp5402
(dp5403
g16
g248
sbatp5404
Rp5405
(dp5406
g16
VSBAR
p5407
sbatp5408
Rp5409
(dp5410
g16
VVP
p5411
sbatp5412
Rp5413
(dp5414
g16
g248
sbatp5415
Rp5416
(dp5417
g16
VPP
p5418
sbatp5419
Rp5420
(dp5421
g16
VVP
p5422
sbatp5423
Rp5424
(dp5425
g16
VVP
p5426
sbatp5427
Rp5428
(dp5429
g16
g248
sbatp5430
Rp5431
(dp5432
g16
VSBAR
p5433
sbatp5434
Rp5435
(dp5436
g16
VVP
p5437
sbatp5438
Rp5439
(dp5440
g16
g248
sbatp5441
Rp5442
(dp5443
g16
VROOT
p5444
sbasg279
(icmyPackage
CorE
p5445
(dp5446
g282
(lp5447
(I0
I16
tp5448
a(I0
I32
tp5449
asg286
g5428
sbsg287
(icmyPackage
CorE
p5450
(dp5451
g282
(lp5452
(I0
I0
tp5453
a(I0
I13
tp5454
asg286
g5
(g6
g7
(lp5455
g5100
ag5107
ag5223
atp5456
Rp5457
(dp5458
g16
g297
sbsbsg298
g1351
sg323
(lp5459
(isxpPackage
sxpSent
p5460
(dp5461
g327
(lp5462
I14
aI15
asg329
VIt is hard to interpret the results from Han and Baldwin ( 12 ) , as the evaluation is carried out by assuming that the words to be normalized are known in advance
p5463
sg331
I8
sg313
I81
sg332
I24
sbasba(icmyPackage
CELink
p5464
(dp5465
g3
(lp5466
g5428
asg279
(icmyPackage
CorE
p5467
(dp5468
g282
(lp5469
(I0
I6
tp5470
a(I0
I16
tp5471
asg286
g5413
sbsg287
(icmyPackage
CorE
p5472
(dp5473
g282
(lp5474
(I0
I0
tp5475
a(I0
I4
tp5476
asg286
g5
(g6
g7
(lp5477
g5252
ag5259
ag5266
ag5277
atp5478
Rp5479
(dp5480
g16
g297
sbsbsg298
g2456
sg323
(lp5481
g5460
asba(icmyPackage
CELink
p5482
(dp5483
g3
(lp5484
g5
(g6
g7
(lp5485
g5
(g6
g7
(lp5486
g5
(g6
g7
(lp5487
g5
(g6
g7
(lp5488
VNevertheless
p5489
atp5490
Rp5491
(dp5492
g16
VRB
p5493
sbatp5494
Rp5495
(dp5496
g16
VADVP
p5497
sbag5
(g6
g7
(lp5498
g394
atp5499
Rp5500
(dp5501
g16
g394
sbag5
(g6
g7
(lp5502
g5
(g6
g7
(lp5503
Vwe
p5504
atp5505
Rp5506
(dp5507
g16
VPRP
p5508
sbatp5509
Rp5510
(dp5511
g16
VNP
p5512
sbag5
(g6
g7
(lp5513
g5
(g6
g7
(lp5514
Vuse
p5515
atp5516
Rp5517
(dp5518
g16
VVBP
p5519
sbag5
(g6
g7
(lp5520
g5
(g6
g7
(lp5521
Vit
p5522
atp5523
Rp5524
(dp5525
g16
VPRP
p5526
sbatp5527
Rp5528
(dp5529
g16
VNP
p5530
sbag5
(g6
g7
(lp5531
g5
(g6
g7
(lp5532
Vhere
p5533
atp5534
Rp5535
(dp5536
g16
VRB
p5537
sbatp5538
Rp5539
(dp5540
g16
VADVP
p5541
sbag5
(g6
g7
(lp5542
g5
(g6
g7
(lp5543
Vfor
p5544
atp5545
Rp5546
(dp5547
g16
VIN
p5548
sbag5
(g6
g7
(lp5549
g5
(g6
g7
(lp5550
g5
(g6
g7
(lp5551
Vtraining
p5552
atp5553
Rp5554
(dp5555
g16
VVBG
p5556
sbag5
(g6
g7
(lp5557
Vand
p5558
atp5559
Rp5560
(dp5561
g16
VCC
p5562
sbag5
(g6
g7
(lp5563
Vevaluating
p5564
atp5565
Rp5566
(dp5567
g16
VVBG
p5568
sbag5
(g6
g7
(lp5569
g5
(g6
g7
(lp5570
Vour
p5571
atp5572
Rp5573
(dp5574
g16
VPRP$
p5575
sbag5
(g6
g7
(lp5576
Vmodel
p5577
atp5578
Rp5579
(dp5580
g16
VNN
p5581
sbatp5582
Rp5583
(dp5584
g16
VNP
p5585
sbatp5586
Rp5587
(dp5588
g16
VVP
p5589
sbatp5590
Rp5591
(dp5592
g16
g248
sbatp5593
Rp5594
(dp5595
g16
VPP
p5596
sbatp5597
Rp5598
(dp5599
g16
VVP
p5600
sbatp5601
Rp5602
(dp5603
g16
g248
sbatp5604
Rp5605
(dp5606
g16
VROOT
p5607
sbasg279
(icmyPackage
CorE
p5608
(dp5609
g282
(lp5610
(I0
I7
tp5611
a(I0
I11
tp5612
asg286
g5591
sbsg287
(icmyPackage
CorE
p5613
(dp5614
g282
(lp5615
(I0
I0
tp5616
a(I0
I5
tp5617
asg286
g5
(g6
g7
(lp5618
g5495
ag5500
ag5510
ag5517
ag5528
ag5539
atp5619
Rp5620
(dp5621
g16
g297
sbsbsg298
(icmyPackage
pattern
p5622
(dp5623
g301
I25
sg302
I0
sg303
(lp5624
(lp5625
S'for'
p5626
aasg308
(lp5627
I2
aI1
aI1
asg310
(lp5628
S'She was angry with him for being late.'
p5629
asg313
I44
sg314
(lp5630
(lp5631
S'&R'
p5632
aa(lp5633
S'&V-ing@C@'
p5634
aasbsg323
(lp5635
(isxpPackage
sxpSent
p5636
(dp5637
g327
(lp5638
I16
asg329
VNevertheless, we use it here for training and evaluating our model
p5639
sg331
I8
sg313
I87
sg332
I24
sbasba(icmyPackage
CELink
p5640
(dp5641
g3
(lp5642
g5
(g6
g7
(lp5643
g5
(g6
g7
(lp5644
g5
(g6
g7
(lp5645
g5
(g6
g7
(lp5646
g5
(g6
g7
(lp5647
VThe
p5648
atp5649
Rp5650
(dp5651
g16
VDT
p5652
sbag5
(g6
g7
(lp5653
Vsimplest
p5654
atp5655
Rp5656
(dp5657
g16
VJJS
p5658
sbag5
(g6
g7
(lp5659
Vway
p5660
atp5661
Rp5662
(dp5663
g16
VNN
p5664
sbatp5665
Rp5666
(dp5667
g16
VNP
p5668
sbag5
(g6
g7
(lp5669
g5
(g6
g7
(lp5670
g5
(g6
g7
(lp5671
g5
(g6
g7
(lp5672
Vto
p5673
atp5674
Rp5675
(dp5676
g16
VTO
p5677
sbag5
(g6
g7
(lp5678
g5
(g6
g7
(lp5679
Vnormalize
p5680
atp5681
Rp5682
(dp5683
g16
VVB
p5684
sbag5
(g6
g7
(lp5685
g5
(g6
g7
(lp5686
Vtweets
p5687
atp5688
Rp5689
(dp5690
g16
VNNS
p5691
sbatp5692
Rp5693
(dp5694
g16
VNP
p5695
sbag5
(g6
g7
(lp5696
g5
(g6
g7
(lp5697
Vwith
p5698
atp5699
Rp5700
(dp5701
g16
VIN
p5702
sbag5
(g6
g7
(lp5703
g5
(g6
g7
(lp5704
g31
atp5705
Rp5706
(dp5707
g16
VDT
p5708
sbag5
(g6
g7
(lp5709
Vstring
p5710
atp5711
Rp5712
(dp5713
g16
VNN
p5714
sbag5
(g6
g7
(lp5715
Vtransduction
p5716
atp5717
Rp5718
(dp5719
g16
VNN
p5720
sbag5
(g6
g7
(lp5721
Vmodel
p5722
atp5723
Rp5724
(dp5725
g16
VNN
p5726
sbatp5727
Rp5728
(dp5729
g16
VNP
p5730
sbatp5731
Rp5732
(dp5733
g16
VPP
p5734
sbatp5735
Rp5736
(dp5737
g16
VVP
p5738
sbatp5739
Rp5740
(dp5741
g16
VVP
p5742
sbatp5743
Rp5744
(dp5745
g16
g248
sbatp5746
Rp5747
(dp5748
g16
VSBAR
p5749
sbatp5750
Rp5751
(dp5752
g16
VNP
p5753
sbag5
(g6
g7
(lp5754
g5
(g6
g7
(lp5755
Vis
p5756
atp5757
Rp5758
(dp5759
g16
VVBZ
p5760
sbag5
(g6
g7
(lp5761
g5
(g6
g7
(lp5762
g5
(g6
g7
(lp5763
Vto
p5764
atp5765
Rp5766
(dp5767
g16
VTO
p5768
sbag5
(g6
g7
(lp5769
g5
(g6
g7
(lp5770
Vtreat
p5771
atp5772
Rp5773
(dp5774
g16
VVB
p5775
sbag5
(g6
g7
(lp5776
g5
(g6
g7
(lp5777
Vwhole
p5778
atp5779
Rp5780
(dp5781
g16
VJJ
p5782
sbag5
(g6
g7
(lp5783
Vtweets
p5784
atp5785
Rp5786
(dp5787
g16
VNNS
p5788
sbatp5789
Rp5790
(dp5791
g16
VNP
p5792
sbag5
(g6
g7
(lp5793
g5
(g6
g7
(lp5794
Vas
p5795
atp5796
Rp5797
(dp5798
g16
VIN
p5799
sbag5
(g6
g7
(lp5800
g5
(g6
g7
(lp5801
Vinput
p5802
atp5803
Rp5804
(dp5805
g16
VNN
p5806
sbag5
(g6
g7
(lp5807
Vsequences
p5808
atp5809
Rp5810
(dp5811
g16
VNNS
p5812
sbatp5813
Rp5814
(dp5815
g16
VNP
p5816
sbatp5817
Rp5818
(dp5819
g16
VPP
p5820
sbatp5821
Rp5822
(dp5823
g16
VVP
p5824
sbatp5825
Rp5826
(dp5827
g16
VVP
p5828
sbatp5829
Rp5830
(dp5831
g16
g248
sbatp5832
Rp5833
(dp5834
g16
VVP
p5835
sbatp5836
Rp5837
(dp5838
g16
g248
sbatp5839
Rp5840
(dp5841
g16
VROOT
p5842
sbag5
(g6
g7
(lp5843
g5
(g6
g7
(lp5844
g5
(g6
g7
(lp5845
g5
(g6
g7
(lp5846
VMany
p5847
atp5848
Rp5849
(dp5850
g16
VJJ
p5851
sbag5
(g6
g7
(lp5852
Vother
p5853
atp5854
Rp5855
(dp5856
g16
VJJ
p5857
sbag5
(g6
g7
(lp5858
Vtweet
p5859
atp5860
Rp5861
(dp5862
g16
VNN
p5863
sbag5
(g6
g7
(lp5864
Vnormalization
p5865
atp5866
Rp5867
(dp5868
g16
VNN
p5869
sbag5
(g6
g7
(lp5870
Vmethods
p5871
atp5872
Rp5873
(dp5874
g16
VNNS
p5875
sbatp5876
Rp5877
(dp5878
g16
VNP
p5879
sbag5
(g6
g7
(lp5880
g5
(g6
g7
(lp5881
Vwork
p5882
atp5883
Rp5884
(dp5885
g16
VVBP
p5886
sbag5
(g6
g7
(lp5887
g5
(g6
g7
(lp5888
Vin
p5889
atp5890
Rp5891
(dp5892
g16
VIN
p5893
sbag5
(g6
g7
(lp5894
g5
(g6
g7
(lp5895
g5
(g6
g7
(lp5896
g31
atp5897
Rp5898
(dp5899
g16
VDT
p5900
sbag5
(g6
g7
(lp5901
Vword-wise
p5902
atp5903
Rp5904
(dp5905
g16
VJJ
p5906
sbag5
(g6
g7
(lp5907
Vfashion
p5908
atp5909
Rp5910
(dp5911
g16
VNN
p5912
sbatp5913
Rp5914
(dp5915
g16
VNP
p5916
sbag5
(g6
g7
(lp5917
g5
(g6
g7
(lp5918
g5
(g6
g7
(lp5919
g5
(g6
g7
(lp5920
Vthey
p5921
atp5922
Rp5923
(dp5924
g16
VPRP
p5925
sbatp5926
Rp5927
(dp5928
g16
VNP
p5929
sbag5
(g6
g7
(lp5930
g5
(g6
g7
(lp5931
Vfirst
p5932
atp5933
Rp5934
(dp5935
g16
VRB
p5936
sbatp5937
Rp5938
(dp5939
g16
VADVP
p5940
sbag5
(g6
g7
(lp5941
g5
(g6
g7
(lp5942
g5
(g6
g7
(lp5943
Videntify
p5944
atp5945
Rp5946
(dp5947
g16
VVB
p5948
sbag5
(g6
g7
(lp5949
g5
(g6
g7
(lp5950
VOOV
p5951
atp5952
Rp5953
(dp5954
g16
VNNP
p5955
sbag5
(g6
g7
(lp5956
Vwords
p5957
atp5958
Rp5959
(dp5960
g16
VNNS
p5961
sbatp5962
Rp5963
(dp5964
g16
VNP
p5965
sbatp5966
Rp5967
(dp5968
g16
VVP
p5969
sbag5
(g6
g7
(lp5970
Vand
p5971
atp5972
Rp5973
(dp5974
g16
VCC
p5975
sbag5
(g6
g7
(lp5976
g5
(g6
g7
(lp5977
g5
(g6
g7
(lp5978
Vthen
p5979
atp5980
Rp5981
(dp5982
g16
VRB
p5983
sbatp5984
Rp5985
(dp5986
g16
VADVP
p5987
sbag5
(g6
g7
(lp5988
Vreplace
p5989
atp5990
Rp5991
(dp5992
g16
VVB
p5993
sbag5
(g6
g7
(lp5994
g5
(g6
g7
(lp5995
Vthem
p5996
atp5997
Rp5998
(dp5999
g16
VPRP
p6000
sbatp6001
Rp6002
(dp6003
g16
VNP
p6004
sbag5
(g6
g7
(lp6005
g5
(g6
g7
(lp6006
Vwith
p6007
atp6008
Rp6009
(dp6010
g16
VIN
p6011
sbag5
(g6
g7
(lp6012
g5
(g6
g7
(lp6013
Vnormalized
p6014
atp6015
Rp6016
(dp6017
g16
VJJ
p6018
sbag5
(g6
g7
(lp6019
Vforms
p6020
atp6021
Rp6022
(dp6023
g16
VNNS
p6024
sbatp6025
Rp6026
(dp6027
g16
VNP
p6028
sbatp6029
Rp6030
(dp6031
g16
VPP
p6032
sbatp6033
Rp6034
(dp6035
g16
VVP
p6036
sbatp6037
Rp6038
(dp6039
g16
VVP
p6040
sbatp6041
Rp6042
(dp6043
g16
g248
sbatp6044
Rp6045
(dp6046
g16
VSBAR
p6047
sbatp6048
Rp6049
(dp6050
g16
VNP
p6051
sbatp6052
Rp6053
(dp6054
g16
VPP
p6055
sbatp6056
Rp6057
(dp6058
g16
VVP
p6059
sbatp6060
Rp6061
(dp6062
g16
g248
sbatp6063
Rp6064
(dp6065
g16
VROOT
p6066
sbasg279
(icmyPackage
CorE
p6067
(dp6068
g282
(lp6069
(I0
I17
tp6070
a(I1
I20
tp6071
asg286
g5
(g6
g7
(lp6072
g5814
ag5877
ag5884
ag5891
ag5914
ag5927
ag5938
ag5967
ag5973
ag5985
ag5991
ag6002
ag6009
ag6016
atp6073
Rp6074
(dp6075
g16
g297
sbsbsg287
(icmyPackage
CorE
p6076
(dp6077
g282
(lp6078
(I0
I0
tp6079
a(I0
I15
tp6080
asg286
g5
(g6
g7
(lp6081
g5751
ag5758
ag5766
ag5773
ag5790
atp6082
Rp6083
(dp6084
g16
g297
sbsbsg298
g1351
sg323
(lp6085
(isxpPackage
sxpSent
p6086
(dp6087
g327
(lp6088
I17
asg329
VThe simplest way to normalize tweets with a string transduction model is to treat whole tweets as input sequences
p6089
sg331
I9
sg313
I91
sg332
I25
sba(isxpPackage
sxpSent
p6090
(dp6091
g327
(lp6092
I17
aI18
asg329
VMany other tweet normalization methods work in a word-wise fashion they first identify OOV words and then replace them with normalized forms
p6093
sg331
I9
sg313
I92
sg332
I25
sbasba(icmyPackage
CELink
p6094
(dp6095
g3
(lp6096
g6064
ag5
(g6
g7
(lp6097
g5
(g6
g7
(lp6098
g5
(g6
g7
(lp6099
g5
(g6
g7
(lp6100
VConsequently
p6101
atp6102
Rp6103
(dp6104
g16
VRB
p6105
sbatp6106
Rp6107
(dp6108
g16
VADVP
p6109
sbag5
(g6
g7
(lp6110
g394
atp6111
Rp6112
(dp6113
g16
g394
sbag5
(g6
g7
(lp6114
g5
(g6
g7
(lp6115
Vpublicly
p6116
atp6117
Rp6118
(dp6119
g16
VRB
p6120
sbag5
(g6
g7
(lp6121
Vavailable
p6122
atp6123
Rp6124
(dp6125
g16
VJJ
p6126
sbag5
(g6
g7
(lp6127
Vnormalization
p6128
atp6129
Rp6130
(dp6131
g16
VNN
p6132
sbag5
(g6
g7
(lp6133
Vdatasets
p6134
atp6135
Rp6136
(dp6137
g16
VNNS
p6138
sbatp6139
Rp6140
(dp6141
g16
VNP
p6142
sbag5
(g6
g7
(lp6143
g5
(g6
g7
(lp6144
Vare
p6145
atp6146
Rp6147
(dp6148
g16
VVBP
p6149
sbag5
(g6
g7
(lp6150
g5
(g6
g7
(lp6151
Vannotated
p6152
atp6153
Rp6154
(dp6155
g16
VVBG
p6156
sbag5
(g6
g7
(lp6157
g5
(g6
g7
(lp6158
Vat
p6159
atp6160
Rp6161
(dp6162
g16
VIN
p6163
sbag5
(g6
g7
(lp6164
g5
(g6
g7
(lp6165
Vword
p6166
atp6167
Rp6168
(dp6169
g16
VNN
p6170
sbag5
(g6
g7
(lp6171
Vlevel
p6172
atp6173
Rp6174
(dp6175
g16
VNN
p6176
sbatp6177
Rp6178
(dp6179
g16
VNP
p6180
sbatp6181
Rp6182
(dp6183
g16
VPP
p6184
sbatp6185
Rp6186
(dp6187
g16
VVP
p6188
sbatp6189
Rp6190
(dp6191
g16
VVP
p6192
sbatp6193
Rp6194
(dp6195
g16
g248
sbatp6196
Rp6197
(dp6198
g16
VROOT
p6199
sbasg279
(icmyPackage
CorE
p6200
(dp6201
g282
(lp6202
(I0
I0
tp6203
a(I0
I21
tp6204
asg286
g6064
sbsg287
(icmyPackage
CorE
p6205
(dp6206
g282
(lp6207
(I1
I2
tp6208
a(I1
I10
tp6209
asg286
g5
(g6
g7
(lp6210
g6140
ag6190
atp6211
Rp6212
(dp6213
g16
g297
sbsbsg298
(icmyPackage
pattern
p6214
(dp6215
g301
I9
sg302
I1
sg303
(lp6216
(lp6217
S'consequently'
p6218
aasg308
(lp6219
I1
aI1
aI1
asg310
(lp6220
S'Her mother was seriously ill. Consequently, she left school.'
p6221
asg313
I3
sg314
(lp6222
(lp6223
S'&C'
p6224
aS'(,/;/./--)'
p6225
aa(lp6226
S'(,)'
p6227
aS'&R'
p6228
aasbsg323
(lp6229
g6090
a(isxpPackage
sxpSent
p6230
(dp6231
g327
(lp6232
I18
asg329
VConsequently, publicly available normalization datasets are annotated at word level
p6233
sg331
I9
sg313
I93
sg332
I25
sbasba(icmyPackage
CELink
p6234
(dp6235
g3
(lp6236
g5
(g6
g7
(lp6237
g5
(g6
g7
(lp6238
g5
(g6
g7
(lp6239
g5
(g6
g7
(lp6240
VWe
p6241
atp6242
Rp6243
(dp6244
g16
VPRP
p6245
sbatp6246
Rp6247
(dp6248
g16
VNP
p6249
sbag5
(g6
g7
(lp6250
g5
(g6
g7
(lp6251
Vcan
p6252
atp6253
Rp6254
(dp6255
g16
VMD
p6256
sbag5
(g6
g7
(lp6257
g5
(g6
g7
(lp6258
Vemulate
p6259
atp6260
Rp6261
(dp6262
g16
VVB
p6263
sbag5
(g6
g7
(lp6264
g5
(g6
g7
(lp6265
Vthis
p6266
atp6267
Rp6268
(dp6269
g16
VDT
p6270
sbag5
(g6
g7
(lp6271
Vsetup
p6272
atp6273
Rp6274
(dp6275
g16
VNN
p6276
sbatp6277
Rp6278
(dp6279
g16
VNP
p6280
sbag5
(g6
g7
(lp6281
g5
(g6
g7
(lp6282
Vby
p6283
atp6284
Rp6285
(dp6286
g16
VIN
p6287
sbag5
(g6
g7
(lp6288
g5
(g6
g7
(lp6289
g5
(g6
g7
(lp6290
Vtraining
p6291
atp6292
Rp6293
(dp6294
g16
VVBG
p6295
sbag5
(g6
g7
(lp6296
g5
(g6
g7
(lp6297
Vthe
p6298
atp6299
Rp6300
(dp6301
g16
VDT
p6302
sbag5
(g6
g7
(lp6303
Vsequence
p6304
atp6305
Rp6306
(dp6307
g16
VNN
p6308
sbag5
(g6
g7
(lp6309
Vlabeler
p6310
atp6311
Rp6312
(dp6313
g16
VNN
p6314
sbatp6315
Rp6316
(dp6317
g16
VNP
p6318
sbag5
(g6
g7
(lp6319
g5
(g6
g7
(lp6320
g5
(g6
g7
(lp6321
Von
p6322
atp6323
Rp6324
(dp6325
g16
VIN
p6326
sbag5
(g6
g7
(lp6327
g5
(g6
g7
(lp6328
Vwords
p6329
atp6330
Rp6331
(dp6332
g16
VNNS
p6333
sbatp6334
Rp6335
(dp6336
g16
VNP
p6337
sbatp6338
Rp6339
(dp6340
g16
VPP
p6341
sbag5
(g6
g7
(lp6342
g394
atp6343
Rp6344
(dp6345
g16
g394
sbag5
(g6
g7
(lp6346
Vinstead
p6347
atp6348
Rp6349
(dp6350
g16
VRB
p6351
sbag5
(g6
g7
(lp6352
g5
(g6
g7
(lp6353
Vof
p6354
atp6355
Rp6356
(dp6357
g16
VIN
p6358
sbag5
(g6
g7
(lp6359
g5
(g6
g7
(lp6360
Vwhole
p6361
atp6362
Rp6363
(dp6364
g16
VJJ
p6365
sbag5
(g6
g7
(lp6366
Vtweets
p6367
atp6368
Rp6369
(dp6370
g16
VNNS
p6371
sbatp6372
Rp6373
(dp6374
g16
VNP
p6375
sbatp6376
Rp6377
(dp6378
g16
VPP
p6379
sbatp6380
Rp6381
(dp6382
g16
VPP
p6383
sbatp6384
Rp6385
(dp6386
g16
VVP
p6387
sbatp6388
Rp6389
(dp6390
g16
g248
sbatp6391
Rp6392
(dp6393
g16
VPP
p6394
sbatp6395
Rp6396
(dp6397
g16
VVP
p6398
sbatp6399
Rp6400
(dp6401
g16
VVP
p6402
sbatp6403
Rp6404
(dp6405
g16
g248
sbatp6406
Rp6407
(dp6408
g16
VROOT
p6409
sbasg279
(icmyPackage
CorE
p6410
(dp6411
g282
(lp6412
(I0
I6
tp6413
a(I0
I16
tp6414
asg286
g6389
sbsg287
(icmyPackage
CorE
p6415
(dp6416
g282
(lp6417
(I0
I0
tp6418
a(I0
I4
tp6419
asg286
g5
(g6
g7
(lp6420
g6247
ag6254
ag6261
ag6278
atp6421
Rp6422
(dp6423
g16
g297
sbsbsg298
g2456
sg323
(lp6424
(isxpPackage
sxpSent
p6425
(dp6426
g327
(lp6427
I19
asg329
VWe can emulate this setup by training the sequence labeler on words, instead of whole tweets
p6428
sg331
I9
sg313
I94
sg332
I25
sbasba(icmyPackage
CELink
p6429
(dp6430
g3
(lp6431
g5
(g6
g7
(lp6432
g5
(g6
g7
(lp6433
g5
(g6
g7
(lp6434
g5
(g6
g7
(lp6435
VThis
p6436
atp6437
Rp6438
(dp6439
g16
VDT
p6440
sbag5
(g6
g7
(lp6441
Vapproach
p6442
atp6443
Rp6444
(dp6445
g16
VNN
p6446
sbatp6447
Rp6448
(dp6449
g16
VNP
p6450
sbag5
(g6
g7
(lp6451
g5
(g6
g7
(lp6452
Vsacrifices
p6453
atp6454
Rp6455
(dp6456
g16
VVBZ
p6457
sbag5
(g6
g7
(lp6458
g5
(g6
g7
(lp6459
Vsome
p6460
atp6461
Rp6462
(dp6463
g16
VDT
p6464
sbag5
(g6
g7
(lp6465
Vgenerality
p6466
atp6467
Rp6468
(dp6469
g16
VNN
p6470
sbatp6471
Rp6472
(dp6473
g16
VNP
p6474
sbag5
(g6
g7
(lp6475
g394
atp6476
Rp6477
(dp6478
g16
g394
sbag5
(g6
g7
(lp6479
g5
(g6
g7
(lp6480
Vsince
p6481
atp6482
Rp6483
(dp6484
g16
VIN
p6485
sbag5
(g6
g7
(lp6486
g5
(g6
g7
(lp6487
g5
(g6
g7
(lp6488
g5
(g6
g7
(lp6489
Vtransformations
p6490
atp6491
Rp6492
(dp6493
g16
VNNS
p6494
sbatp6495
Rp6496
(dp6497
g16
VNP
p6498
sbag5
(g6
g7
(lp6499
g5
(g6
g7
(lp6500
Vinvolving
p6501
atp6502
Rp6503
(dp6504
g16
VVBG
p6505
sbag5
(g6
g7
(lp6506
g5
(g6
g7
(lp6507
Vmultiple
p6508
atp6509
Rp6510
(dp6511
g16
VJJ
p6512
sbag5
(g6
g7
(lp6513
Vwords
p6514
atp6515
Rp6516
(dp6517
g16
VNNS
p6518
sbatp6519
Rp6520
(dp6521
g16
VNP
p6522
sbatp6523
Rp6524
(dp6525
g16
VVP
p6526
sbatp6527
Rp6528
(dp6529
g16
VNP
p6530
sbag5
(g6
g7
(lp6531
g5
(g6
g7
(lp6532
Vcan
p6533
atp6534
Rp6535
(dp6536
g16
VMD
p6537
sbag5
(g6
g7
(lp6538
Vnot
p6539
atp6540
Rp6541
(dp6542
g16
VRB
p6543
sbag5
(g6
g7
(lp6544
g5
(g6
g7
(lp6545
Vbe
p6546
atp6547
Rp6548
(dp6549
g16
VVB
p6550
sbag5
(g6
g7
(lp6551
g5
(g6
g7
(lp6552
Vlearned
p6553
atp6554
Rp6555
(dp6556
g16
VVBN
p6557
sbatp6558
Rp6559
(dp6560
g16
VVP
p6561
sbatp6562
Rp6563
(dp6564
g16
VVP
p6565
sbatp6566
Rp6567
(dp6568
g16
VVP
p6569
sbatp6570
Rp6571
(dp6572
g16
g248
sbatp6573
Rp6574
(dp6575
g16
VSBAR
p6576
sbatp6577
Rp6578
(dp6579
g16
VVP
p6580
sbatp6581
Rp6582
(dp6583
g16
g248
sbatp6584
Rp6585
(dp6586
g16
VROOT
p6587
sbasg279
(icmyPackage
CorE
p6588
(dp6589
g282
(lp6590
(I0
I7
tp6591
a(I0
I14
tp6592
asg286
g6571
sbsg287
(icmyPackage
CorE
p6593
(dp6594
g282
(lp6595
(I0
I0
tp6596
a(I0
I4
tp6597
asg286
g5
(g6
g7
(lp6598
g6448
ag6455
ag6472
atp6599
Rp6600
(dp6601
g16
g297
sbsbsg298
(icmyPackage
pattern
p6602
(dp6603
g301
I23
sg302
I1
sg303
(lp6604
(lp6605
S'since'
p6606
aasg308
(lp6607
I3
aI1
aI1
asg310
(lp6608
S'This is one of the simplest cases since the surface is so thin.'
p6609
aS'He could not answer the question, since he had not made up his mind.'
p6610
aS'That manager has been a basket case here since his wife left him.'
p6611
asg313
I79
sg314
(lp6612
(lp6613
S'&R@NCTime@'
p6614
aS'(,)'
p6615
aa(lp6616
S'&C@NCTime@'
p6617
aasbsg323
(lp6618
(isxpPackage
sxpSent
p6619
(dp6620
g327
(lp6621
I20
asg329
VThis approach sacrifices some generality, since transformations involving multiple words cannot be learned
p6622
sg331
I9
sg313
I95
sg332
I25
sbasba(icmyPackage
CELink
p6623
(dp6624
g3
(lp6625
g5
(g6
g7
(lp6626
g5
(g6
g7
(lp6627
g5
(g6
g7
(lp6628
g5
(g6
g7
(lp6629
g5
(g6
g7
(lp6630
VTo
p6631
atp6632
Rp6633
(dp6634
g16
VTO
p6635
sbag5
(g6
g7
(lp6636
g5
(g6
g7
(lp6637
g5
(g6
g7
(lp6638
Vkeep
p6639
atp6640
Rp6641
(dp6642
g16
VVB
p6643
sbag5
(g6
g7
(lp6644
g5
(g6
g7
(lp6645
Vmodel
p6646
atp6647
Rp6648
(dp6649
g16
VNN
p6650
sbag5
(g6
g7
(lp6651
Vsize
p6652
atp6653
Rp6654
(dp6655
g16
VNN
p6656
sbatp6657
Rp6658
(dp6659
g16
VNP
p6660
sbag5
(g6
g7
(lp6661
g5
(g6
g7
(lp6662
Vwithin
p6663
atp6664
Rp6665
(dp6666
g16
VIN
p6667
sbag5
(g6
g7
(lp6668
g5
(g6
g7
(lp6669
g5
(g6
g7
(lp6670
Vmanageable
p6671
atp6672
Rp6673
(dp6674
g16
VJJ
p6675
sbag5
(g6
g7
(lp6676
Vlimits
p6677
atp6678
Rp6679
(dp6680
g16
VNNS
p6681
sbatp6682
Rp6683
(dp6684
g16
VNP
p6685
sbag5
(g6
g7
(lp6686
g5
(g6
g7
(lp6687
g5
(g6
g7
(lp6688
g5
(g6
g7
(lp6689
Vwe
p6690
atp6691
Rp6692
(dp6693
g16
VPRP
p6694
sbatp6695
Rp6696
(dp6697
g16
VNP
p6698
sbag5
(g6
g7
(lp6699
g5
(g6
g7
(lp6700
Vreduced
p6701
atp6702
Rp6703
(dp6704
g16
VVBD
p6705
sbag5
(g6
g7
(lp6706
g5
(g6
g7
(lp6707
g5
(g6
g7
(lp6708
Vthe
p6709
atp6710
Rp6711
(dp6712
g16
VDT
p6713
sbag5
(g6
g7
(lp6714
Vlabel
p6715
atp6716
Rp6717
(dp6718
g16
VNN
p6719
sbatp6720
Rp6721
(dp6722
g16
VNP
p6723
sbag5
(g6
g7
(lp6724
g5
(g6
g7
(lp6725
Vset
p6726
atp6727
Rp6728
(dp6729
g16
VVBN
p6730
sbag5
(g6
g7
(lp6731
g5
(g6
g7
(lp6732
Vfor
p6733
atp6734
Rp6735
(dp6736
g16
VIN
p6737
sbag5
(g6
g7
(lp6738
g5
(g6
g7
(lp6739
Vmodels
p6740
atp6741
Rp6742
(dp6743
g16
VNNS
p6744
sbag5
(g6
g7
(lp6745
Vall-words
p6746
atp6747
Rp6748
(dp6749
g16
VNNS
p6750
sbatp6751
Rp6752
(dp6753
g16
VNP
p6754
sbatp6755
Rp6756
(dp6757
g16
VPP
p6758
sbatp6759
Rp6760
(dp6761
g16
VVP
p6762
sbatp6763
Rp6764
(dp6765
g16
VNP
p6766
sbatp6767
Rp6768
(dp6769
g16
VVP
p6770
sbatp6771
Rp6772
(dp6773
g16
g248
sbatp6774
Rp6775
(dp6776
g16
VSBAR
p6777
sbatp6778
Rp6779
(dp6780
g16
VNP
p6781
sbatp6782
Rp6783
(dp6784
g16
VPP
p6785
sbatp6786
Rp6787
(dp6788
g16
VVP
p6789
sbag5
(g6
g7
(lp6790
Vand
p6791
atp6792
Rp6793
(dp6794
g16
VCC
p6795
sbag5
(g6
g7
(lp6796
g5
(g6
g7
(lp6797
Vdocument
p6798
atp6799
Rp6800
(dp6801
g16
VVB
p6802
sbag5
(g6
g7
(lp6803
g5
(g6
g7
(lp6804
Vby
p6805
atp6806
Rp6807
(dp6808
g16
VIN
p6809
sbag5
(g6
g7
(lp6810
g5
(g6
g7
(lp6811
g5
(g6
g7
(lp6812
Vreplacing
p6813
atp6814
Rp6815
(dp6816
g16
VVBG
p6817
sbag5
(g6
g7
(lp6818
g5
(g6
g7
(lp6819
g5
(g6
g7
(lp6820
Vlabels
p6821
atp6822
Rp6823
(dp6824
g16
VNNS
p6825
sbatp6826
Rp6827
(dp6828
g16
VNP
p6829
sbag5
(g6
g7
(lp6830
g5
(g6
g7
(lp6831
g5
(g6
g7
(lp6832
Vwhich
p6833
atp6834
Rp6835
(dp6836
g16
VWDT
p6837
sbatp6838
Rp6839
(dp6840
g16
VWHNP
p6841
sbag5
(g6
g7
(lp6842
g5
(g6
g7
(lp6843
g5
(g6
g7
(lp6844
Voccur
p6845
atp6846
Rp6847
(dp6848
g16
VVBP
p6849
sbag5
(g6
g7
(lp6850
g5
(g6
g7
(lp6851
g5
(g6
g7
(lp6852
g5
(g6
g7
(lp6853
Vless
p6854
atp6855
Rp6856
(dp6857
g16
VJJR
p6858
sbag5
(g6
g7
(lp6859
Vthan
p6860
atp6861
Rp6862
(dp6863
g16
VIN
p6864
sbag5
(g6
g7
(lp6865
Vtwice
p6866
atp6867
Rp6868
(dp6869
g16
VRB
p6870
sbatp6871
Rp6872
(dp6873
g16
VQP
p6874
sbatp6875
Rp6876
(dp6877
g16
VNP
p6878
sbag5
(g6
g7
(lp6879
g5
(g6
g7
(lp6880
Vin
p6881
atp6882
Rp6883
(dp6884
g16
VIN
p6885
sbag5
(g6
g7
(lp6886
g5
(g6
g7
(lp6887
Vthe
p6888
atp6889
Rp6890
(dp6891
g16
VDT
p6892
sbag5
(g6
g7
(lp6893
Vtraining
p6894
atp6895
Rp6896
(dp6897
g16
VNN
p6898
sbag5
(g6
g7
(lp6899
Vdata
p6900
atp6901
Rp6902
(dp6903
g16
VNNS
p6904
sbatp6905
Rp6906
(dp6907
g16
VNP
p6908
sbatp6909
Rp6910
(dp6911
g16
VPP
p6912
sbatp6913
Rp6914
(dp6915
g16
VNP
p6916
sbag5
(g6
g7
(lp6917
g5
(g6
g7
(lp6918
Vwith
p6919
atp6920
Rp6921
(dp6922
g16
VIN
p6923
sbag5
(g6
g7
(lp6924
g5
(g6
g7
(lp6925
Vnil
p6926
atp6927
Rp6928
(dp6929
g16
VNN
p6930
sbatp6931
Rp6932
(dp6933
g16
VNP
p6934
sbatp6935
Rp6936
(dp6937
g16
VPP
p6938
sbatp6939
Rp6940
(dp6941
g16
VVP
p6942
sbatp6943
Rp6944
(dp6945
g16
g248
sbatp6946
Rp6947
(dp6948
g16
VSBAR
p6949
sbatp6950
Rp6951
(dp6952
g16
VNP
p6953
sbatp6954
Rp6955
(dp6956
g16
VVP
p6957
sbatp6958
Rp6959
(dp6960
g16
g248
sbatp6961
Rp6962
(dp6963
g16
VPP
p6964
sbatp6965
Rp6966
(dp6967
g16
VVP
p6968
sbatp6969
Rp6970
(dp6971
g16
VVP
p6972
sbatp6973
Rp6974
(dp6975
g16
VVP
p6976
sbatp6977
Rp6978
(dp6979
g16
g248
sbatp6980
Rp6981
(dp6982
g16
VFRAG
p6983
sbatp6984
Rp6985
(dp6986
g16
VROOT
p6987
sbasg279
(icmyPackage
CorE
p6988
(dp6989
g282
(lp6990
(I0
I18
tp6991
a(I0
I30
tp6992
asg286
g6959
sbsg287
(icmyPackage
CorE
p6993
(dp6994
g282
(lp6995
(I0
I4
tp6996
a(I0
I16
tp6997
asg286
g5
(g6
g7
(lp6998
g6783
ag6793
ag6800
atp6999
Rp7000
(dp7001
g16
g297
sbsbsg298
g2456
sg323
(lp7002
(isxpPackage
sxpSent
p7003
(dp7004
g327
(lp7005
I21
asg329
VTo keep model size within manageable limits we reduced the label set for models all-words and document by replacing labels which occur less than twice in the training data with nil
p7006
sg331
I9
sg313
I104
sg332
I29
sbasba(icmyPackage
CELink
p7007
(dp7008
g3
(lp7009
g5
(g6
g7
(lp7010
g5
(g6
g7
(lp7011
g5
(g6
g7
(lp7012
g5
(g6
g7
(lp7013
VFor
p7014
atp7015
Rp7016
(dp7017
g16
VIN
p7018
sbag5
(g6
g7
(lp7019
g5
(g6
g7
(lp7020
Voov-only
p7021
atp7022
Rp7023
(dp7024
g16
VNN
p7025
sbatp7026
Rp7027
(dp7028
g16
VNP
p7029
sbatp7030
Rp7031
(dp7032
g16
VPP
p7033
sbag5
(g6
g7
(lp7034
g5
(g6
g7
(lp7035
Vwe
p7036
atp7037
Rp7038
(dp7039
g16
VPRP
p7040
sbatp7041
Rp7042
(dp7043
g16
VNP
p7044
sbag5
(g6
g7
(lp7045
g5
(g6
g7
(lp7046
Vwere
p7047
atp7048
Rp7049
(dp7050
g16
VVBD
p7051
sbag5
(g6
g7
(lp7052
g5
(g6
g7
(lp7053
Vable
p7054
atp7055
Rp7056
(dp7057
g16
VJJ
p7058
sbag5
(g6
g7
(lp7059
g5
(g6
g7
(lp7060
g5
(g6
g7
(lp7061
Vto
p7062
atp7063
Rp7064
(dp7065
g16
VTO
p7066
sbag5
(g6
g7
(lp7067
g5
(g6
g7
(lp7068
Vuse
p7069
atp7070
Rp7071
(dp7072
g16
VVB
p7073
sbag5
(g6
g7
(lp7074
g5
(g6
g7
(lp7075
Vthe
p7076
atp7077
Rp7078
(dp7079
g16
VDT
p7080
sbag5
(g6
g7
(lp7081
Vfull
p7082
atp7083
Rp7084
(dp7085
g16
VJJ
p7086
sbag5
(g6
g7
(lp7087
Vlabel
p7088
atp7089
Rp7090
(dp7091
g16
VNN
p7092
sbag5
(g6
g7
(lp7093
Vset
p7094
atp7095
Rp7096
(dp7097
g16
VNN
p7098
sbatp7099
Rp7100
(dp7101
g16
VNP
p7102
sbatp7103
Rp7104
(dp7105
g16
VVP
p7106
sbatp7107
Rp7108
(dp7109
g16
VVP
p7110
sbatp7111
Rp7112
(dp7113
g16
g248
sbatp7114
Rp7115
(dp7116
g16
VADJP
p7117
sbatp7118
Rp7119
(dp7120
g16
VVP
p7121
sbatp7122
Rp7123
(dp7124
g16
g248
sbatp7125
Rp7126
(dp7127
g16
VROOT
p7128
sbag5
(g6
g7
(lp7129
g5
(g6
g7
(lp7130
g5
(g6
g7
(lp7131
g5
(g6
g7
(lp7132
VAs
p7133
atp7134
Rp7135
(dp7136
g16
VIN
p7137
sbag5
(g6
g7
(lp7138
g5
(g6
g7
(lp7139
Vour
p7140
atp7141
Rp7142
(dp7143
g16
VPRP$
p7144
sbag5
(g6
g7
(lp7145
Vsequence
p7146
atp7147
Rp7148
(dp7149
g16
VNN
p7150
sbag5
(g6
g7
(lp7151
Vlabeling
p7152
atp7153
Rp7154
(dp7155
g16
VNN
p7156
sbag5
(g6
g7
(lp7157
Vmodel
p7158
atp7159
Rp7160
(dp7161
g16
VNN
p7162
sbatp7163
Rp7164
(dp7165
g16
VNP
p7166
sbatp7167
Rp7168
(dp7169
g16
VPP
p7170
sbag5
(g6
g7
(lp7171
g5
(g6
g7
(lp7172
Vwe
p7173
atp7174
Rp7175
(dp7176
g16
VPRP
p7177
sbatp7178
Rp7179
(dp7180
g16
VNP
p7181
sbag5
(g6
g7
(lp7182
g5
(g6
g7
(lp7183
Vuse
p7184
atp7185
Rp7186
(dp7187
g16
VVBP
p7188
sbag5
(g6
g7
(lp7189
g5
(g6
g7
(lp7190
g5
(g6
g7
(lp7191
Vthe
p7192
atp7193
Rp7194
(dp7195
g16
VDT
p7196
sbag5
(g6
g7
(lp7197
VWapiti
p7198
atp7199
Rp7200
(dp7201
g16
VNNP
p7202
sbag5
(g6
g7
(lp7203
Vimplementation
p7204
atp7205
Rp7206
(dp7207
g16
VNN
p7208
sbatp7209
Rp7210
(dp7211
g16
VNP
p7212
sbag5
(g6
g7
(lp7213
g5
(g6
g7
(lp7214
Vof
p7215
atp7216
Rp7217
(dp7218
g16
VIN
p7219
sbag5
(g6
g7
(lp7220
g5
(g6
g7
(lp7221
g5
(g6
g7
(lp7222
VConditional
p7223
atp7224
Rp7225
(dp7226
g16
VNNP
p7227
sbag5
(g6
g7
(lp7228
VRandom
p7229
atp7230
Rp7231
(dp7232
g16
VNNP
p7233
sbag5
(g6
g7
(lp7234
VFields
p7235
atp7236
Rp7237
(dp7238
g16
VNNP
p7239
sbatp7240
Rp7241
(dp7242
g16
VNP
p7243
sbag5
(g6
g7
(lp7244
g5
(g6
g7
(lp7245
V-LRB-
p7246
atp7247
Rp7248
(dp7249
g16
V-LRB-
p7250
sbag5
(g6
g7
(lp7251
g5
(g6
g7
(lp7252
V16
p7253
atp7254
Rp7255
(dp7256
g16
VCD
p7257
sbatp7258
Rp7259
(dp7260
g16
VNP
p7261
sbag5
(g6
g7
(lp7262
V-RRB-
p7263
atp7264
Rp7265
(dp7266
g16
V-RRB-
p7267
sbatp7268
Rp7269
(dp7270
g16
VPRN
p7271
sbatp7272
Rp7273
(dp7274
g16
VNP
p7275
sbatp7276
Rp7277
(dp7278
g16
VPP
p7279
sbatp7280
Rp7281
(dp7282
g16
VNP
p7283
sbag5
(g6
g7
(lp7284
g5
(g6
g7
(lp7285
Vwith
p7286
atp7287
Rp7288
(dp7289
g16
VIN
p7290
sbag5
(g6
g7
(lp7291
g5
(g6
g7
(lp7292
g5
(g6
g7
(lp7293
Vthe
p7294
atp7295
Rp7296
(dp7297
g16
VDT
p7298
sbag5
(g6
g7
(lp7299
VL-BFGS
p7300
atp7301
Rp7302
(dp7303
g16
VNNP
p7304
sbag5
(g6
g7
(lp7305
Voptimizer
p7306
atp7307
Rp7308
(dp7309
g16
VNN
p7310
sbag5
(g6
g7
(lp7311
Vand
p7312
atp7313
Rp7314
(dp7315
g16
VCC
p7316
sbag5
(g6
g7
(lp7317
Velastic
p7318
atp7319
Rp7320
(dp7321
g16
VJJ
p7322
sbag5
(g6
g7
(lp7323
Vnet
p7324
atp7325
Rp7326
(dp7327
g16
VNN
p7328
sbag5
(g6
g7
(lp7329
Vregularization
p7330
atp7331
Rp7332
(dp7333
g16
VNN
p7334
sbatp7335
Rp7336
(dp7337
g16
VNP
p7338
sbag5
(g6
g7
(lp7339
g5
(g6
g7
(lp7340
Vwith
p7341
atp7342
Rp7343
(dp7344
g16
VIN
p7345
sbag5
(g6
g7
(lp7346
g5
(g6
g7
(lp7347
Vdefault
p7348
atp7349
Rp7350
(dp7351
g16
VNN
p7352
sbag5
(g6
g7
(lp7353
Vsettings
p7354
atp7355
Rp7356
(dp7357
g16
VNNS
p7358
sbatp7359
Rp7360
(dp7361
g16
VNP
p7362
sbatp7363
Rp7364
(dp7365
g16
VPP
p7366
sbatp7367
Rp7368
(dp7369
g16
VNP
p7370
sbatp7371
Rp7372
(dp7373
g16
VPP
p7374
sbatp7375
Rp7376
(dp7377
g16
VVP
p7378
sbatp7379
Rp7380
(dp7381
g16
g248
sbatp7382
Rp7383
(dp7384
g16
VROOT
p7385
sbasg279
(icmyPackage
CorE
p7386
(dp7387
g282
(lp7388
(I1
I1
tp7389
a(I1
I15
tp7390
asg286
g5
(g6
g7
(lp7391
g7164
ag7179
ag7186
ag7210
ag7217
ag7241
ag7248
ag7259
atp7392
Rp7393
(dp7394
g16
g297
sbsbsg287
(icmyPackage
CorE
p7395
(dp7396
g282
(lp7397
(I0
I0
tp7398
a(I0
I10
tp7399
asg286
g7126
sbsg298
g1351
sg323
(lp7400
(isxpPackage
sxpSent
p7401
(dp7402
g327
(lp7403
I22
asg329
VFor oov-only we were able to use the full label set
p7404
sg331
I9
sg313
I105
sg332
I29
sba(isxpPackage
sxpSent
p7405
(dp7406
g327
(lp7407
I22
asg329
VAs our sequence labeling model we use the Wapiti implementation of Conditional Random Fields ( 16 ) with the L-BFGS optimizer and elastic net regularization with default settings
p7408
sg331
I9
sg313
I106
sg332
I29
sbasba(icmyPackage
CELink
p7409
(dp7410
g3
(lp7411
g5
(g6
g7
(lp7412
g5
(g6
g7
(lp7413
g5
(g6
g7
(lp7414
VFor
p7415
atp7416
Rp7417
(dp7418
g16
VIN
p7419
sbag5
(g6
g7
(lp7420
g5
(g6
g7
(lp7421
g5
(g6
g7
(lp7422
Vthe
p7423
atp7424
Rp7425
(dp7426
g16
VDT
p7427
sbag5
(g6
g7
(lp7428
Vn-gram
p7429
atp7430
Rp7431
(dp7432
g16
VJJ
p7433
sbag5
(g6
g7
(lp7434
V+
p7435
atp7436
Rp7437
(dp7438
g16
VJJ
p7439
sbag5
(g6
g7
(lp7440
Vsrn
p7441
atp7442
Rp7443
(dp7444
g16
VNN
p7445
sbag5
(g6
g7
(lp7446
Vfeature
p7447
atp7448
Rp7449
(dp7450
g16
VNN
p7451
sbatp7452
Rp7453
(dp7454
g16
VNP
p7455
sbag5
(g6
g7
(lp7456
g5
(g6
g7
(lp7457
Vset
p7458
atp7459
Rp7460
(dp7461
g16
VVBN
p7462
sbag5
(g6
g7
(lp7463
g5
(g6
g7
(lp7464
g5
(g6
g7
(lp7465
Vwe
p7466
atp7467
Rp7468
(dp7469
g16
VPRP
p7470
sbatp7471
Rp7472
(dp7473
g16
VNP
p7474
sbag5
(g6
g7
(lp7475
g5
(g6
g7
(lp7476
Vaugment
p7477
atp7478
Rp7479
(dp7480
g16
VVB
p7481
sbag5
(g6
g7
(lp7482
g5
(g6
g7
(lp7483
Vn-gram
p7484
atp7485
Rp7486
(dp7487
g16
VNN
p7488
sbatp7489
Rp7490
(dp7491
g16
VNP
p7492
sbag5
(g6
g7
(lp7493
g5
(g6
g7
(lp7494
Vwith
p7495
atp7496
Rp7497
(dp7498
g16
VIN
p7499
sbag5
(g6
g7
(lp7500
g5
(g6
g7
(lp7501
g5
(g6
g7
(lp7502
Vfeatures
p7503
atp7504
Rp7505
(dp7506
g16
VNNS
p7507
sbatp7508
Rp7509
(dp7510
g16
VNP
p7511
sbag5
(g6
g7
(lp7512
g5
(g6
g7
(lp7513
Vderived
p7514
atp7515
Rp7516
(dp7517
g16
VVBN
p7518
sbag5
(g6
g7
(lp7519
g5
(g6
g7
(lp7520
Vfrom
p7521
atp7522
Rp7523
(dp7524
g16
VIN
p7525
sbag5
(g6
g7
(lp7526
g5
(g6
g7
(lp7527
g5
(g6
g7
(lp7528
Vthe
p7529
atp7530
Rp7531
(dp7532
g16
VDT
p7533
sbag5
(g6
g7
(lp7534
Vactivations
p7535
atp7536
Rp7537
(dp7538
g16
VNNS
p7539
sbatp7540
Rp7541
(dp7542
g16
VNP
p7543
sbag5
(g6
g7
(lp7544
g5
(g6
g7
(lp7545
Vof
p7546
atp7547
Rp7548
(dp7549
g16
VIN
p7550
sbag5
(g6
g7
(lp7551
g5
(g6
g7
(lp7552
Vthe
p7553
atp7554
Rp7555
(dp7556
g16
VDT
p7557
sbag5
(g6
g7
(lp7558
Vhidden
p7559
atp7560
Rp7561
(dp7562
g16
VVBN
p7563
sbag5
(g6
g7
(lp7564
Vunits
p7565
atp7566
Rp7567
(dp7568
g16
VNNS
p7569
sbatp7570
Rp7571
(dp7572
g16
VNP
p7573
sbatp7574
Rp7575
(dp7576
g16
VPP
p7577
sbatp7578
Rp7579
(dp7580
g16
VNP
p7581
sbatp7582
Rp7583
(dp7584
g16
VPP
p7585
sbatp7586
Rp7587
(dp7588
g16
VVP
p7589
sbatp7590
Rp7591
(dp7592
g16
VNP
p7593
sbatp7594
Rp7595
(dp7596
g16
VPP
p7597
sbag5
(g6
g7
(lp7598
g5
(g6
g7
(lp7599
Vas
p7600
atp7601
Rp7602
(dp7603
g16
VIN
p7604
sbag5
(g6
g7
(lp7605
g5
(g6
g7
(lp7606
g5
(g6
g7
(lp7607
Vthe
p7608
atp7609
Rp7610
(dp7611
g16
VDT
p7612
sbag5
(g6
g7
(lp7613
VSRN
p7614
atp7615
Rp7616
(dp7617
g16
VNNP
p7618
sbatp7619
Rp7620
(dp7621
g16
VNP
p7622
sbag5
(g6
g7
(lp7623
g5
(g6
g7
(lp7624
Vis
p7625
atp7626
Rp7627
(dp7628
g16
VVBZ
p7629
sbag5
(g6
g7
(lp7630
g5
(g6
g7
(lp7631
Vtrying
p7632
atp7633
Rp7634
(dp7635
g16
VVBG
p7636
sbag5
(g6
g7
(lp7637
g5
(g6
g7
(lp7638
g5
(g6
g7
(lp7639
Vto
p7640
atp7641
Rp7642
(dp7643
g16
VTO
p7644
sbag5
(g6
g7
(lp7645
g5
(g6
g7
(lp7646
Vpredict
p7647
atp7648
Rp7649
(dp7650
g16
VVB
p7651
sbag5
(g6
g7
(lp7652
g5
(g6
g7
(lp7653
Vthe
p7654
atp7655
Rp7656
(dp7657
g16
VDT
p7658
sbag5
(g6
g7
(lp7659
Vcurrent
p7660
atp7661
Rp7662
(dp7663
g16
VJJ
p7664
sbag5
(g6
g7
(lp7665
Vcharacter
p7666
atp7667
Rp7668
(dp7669
g16
VNN
p7670
sbatp7671
Rp7672
(dp7673
g16
VNP
p7674
sbatp7675
Rp7676
(dp7677
g16
VVP
p7678
sbatp7679
Rp7680
(dp7681
g16
VVP
p7682
sbatp7683
Rp7684
(dp7685
g16
g248
sbatp7686
Rp7687
(dp7688
g16
VVP
p7689
sbatp7690
Rp7691
(dp7692
g16
VVP
p7693
sbatp7694
Rp7695
(dp7696
g16
g248
sbatp7697
Rp7698
(dp7699
g16
VSBAR
p7700
sbatp7701
Rp7702
(dp7703
g16
VVP
p7704
sbatp7705
Rp7706
(dp7707
g16
g248
sbatp7708
Rp7709
(dp7710
g16
VVP
p7711
sbatp7712
Rp7713
(dp7714
g16
VNP
p7715
sbatp7716
Rp7717
(dp7718
g16
VPP
p7719
sbatp7720
Rp7721
(dp7722
g16
VROOT
p7723
sbasg279
(icmyPackage
CorE
p7724
(dp7725
g282
(lp7726
(I0
I21
tp7727
a(I0
I29
tp7728
asg286
g7695
sbsg287
(icmyPackage
CorE
p7729
(dp7730
g282
(lp7731
(I0
I1
tp7732
a(I0
I19
tp7733
asg286
g5
(g6
g7
(lp7734
g7453
ag7460
ag7472
ag7479
ag7490
ag7595
atp7735
Rp7736
(dp7737
g16
g297
sbsbsg298
g1351
sg323
(lp7738
(isxpPackage
sxpSent
p7739
(dp7740
g327
(lp7741
I23
asg329
VFor the n-gram+srn feature set we augment n-gram with features derived from the activations of the hidden units as the SRN is trying to predict the current character
p7742
sg331
I10
sg313
I108
sg332
I30
sbasba(icmyPackage
CELink
p7743
(dp7744
g3
(lp7745
g5
(g6
g7
(lp7746
g5
(g6
g7
(lp7747
g5
(g6
g7
(lp7748
g5
(g6
g7
(lp7749
VFor
p7750
atp7751
Rp7752
(dp7753
g16
VIN
p7754
sbag5
(g6
g7
(lp7755
g5
(g6
g7
(lp7756
g5
(g6
g7
(lp7757
g5
(g6
g7
(lp7758
Veach
p7759
atp7760
Rp7761
(dp7762
g16
VDT
p7763
sbatp7764
Rp7765
(dp7766
g16
VNP
p7767
sbag5
(g6
g7
(lp7768
g5
(g6
g7
(lp7769
Vof
p7770
atp7771
Rp7772
(dp7773
g16
VIN
p7774
sbag5
(g6
g7
(lp7775
g5
(g6
g7
(lp7776
Vthe
p7777
atp7778
Rp7779
(dp7780
g16
VDT
p7781
sbag5
(g6
g7
(lp7782
VK
p7783
atp7784
Rp7785
(dp7786
g16
VNNP
p7787
sbatp7788
Rp7789
(dp7790
g16
VNP
p7791
sbatp7792
Rp7793
(dp7794
g16
VPP
p7795
sbatp7796
Rp7797
(dp7798
g16
VNP
p7799
sbag5
(g6
g7
(lp7800
g5
(g6
g7
(lp7801
V=
p7802
atp7803
Rp7804
(dp7805
g16
VVBG
p7806
sbag5
(g6
g7
(lp7807
g5
(g6
g7
(lp7808
g5
(g6
g7
(lp7809
V10
p7810
atp7811
Rp7812
(dp7813
g16
VCD
p7814
sbag5
(g6
g7
(lp7815
g5
(g6
g7
(lp7816
Vmost
p7817
atp7818
Rp7819
(dp7820
g16
VRBS
p7821
sbag5
(g6
g7
(lp7822
Vactive
p7823
atp7824
Rp7825
(dp7826
g16
VJJ
p7827
sbatp7828
Rp7829
(dp7830
g16
VADJP
p7831
sbag5
(g6
g7
(lp7832
Vunits
p7833
atp7834
Rp7835
(dp7836
g16
VNNS
p7837
sbatp7838
Rp7839
(dp7840
g16
VNP
p7841
sbag5
(g6
g7
(lp7842
g5
(g6
g7
(lp7843
Vout
p7844
atp7845
Rp7846
(dp7847
g16
VRB
p7848
sbag5
(g6
g7
(lp7849
Vof
p7850
atp7851
Rp7852
(dp7853
g16
VIN
p7854
sbag5
(g6
g7
(lp7855
g5
(g6
g7
(lp7856
Vtotal
p7857
atp7858
Rp7859
(dp7860
g16
VJJ
p7861
sbag5
(g6
g7
(lp7862
VJ
p7863
atp7864
Rp7865
(dp7866
g16
VNNP
p7867
sbatp7868
Rp7869
(dp7870
g16
VNP
p7871
sbatp7872
Rp7873
(dp7874
g16
VPP
p7875
sbag5
(g6
g7
(lp7876
g5
(g6
g7
(lp7877
g5
(g6
g7
(lp7878
g5
(g6
g7
(lp7879
g7802
atp7880
Rp7881
(dp7882
g16
VSYM
p7883
sbag5
(g6
g7
(lp7884
g5
(g6
g7
(lp7885
V400
p7886
atp7887
Rp7888
(dp7889
g16
VCD
p7890
sbag5
(g6
g7
(lp7891
Vhidden
p7892
atp7893
Rp7894
(dp7895
g16
VJJ
p7896
sbag5
(g6
g7
(lp7897
Vunits
p7898
atp7899
Rp7900
(dp7901
g16
VNNS
p7902
sbatp7903
Rp7904
(dp7905
g16
VNP
p7906
sbatp7907
Rp7908
(dp7909
g16
VVP
p7910
sbatp7911
Rp7912
(dp7913
g16
g248
sbatp7914
Rp7915
(dp7916
g16
VSBAR
p7917
sbatp7918
Rp7919
(dp7920
g16
VNP
p7921
sbatp7922
Rp7923
(dp7924
g16
VVP
p7925
sbatp7926
Rp7927
(dp7928
g16
g248
sbatp7929
Rp7930
(dp7931
g16
VPP
p7932
sbag5
(g6
g7
(lp7933
g394
atp7934
Rp7935
(dp7936
g16
g394
sbag5
(g6
g7
(lp7937
g5
(g6
g7
(lp7938
Vwe
p7939
atp7940
Rp7941
(dp7942
g16
VPRP
p7943
sbatp7944
Rp7945
(dp7946
g16
VNP
p7947
sbag5
(g6
g7
(lp7948
g5
(g6
g7
(lp7949
Vcreate
p7950
atp7951
Rp7952
(dp7953
g16
VVBP
p7954
sbag5
(g6
g7
(lp7955
g5
(g6
g7
(lp7956
g5
(g6
g7
(lp7957
Vfeatures
p7958
atp7959
Rp7960
(dp7961
g16
VNNS
p7962
sbatp7963
Rp7964
(dp7965
g16
VNP
p7966
sbag5
(g6
g7
(lp7967
g5
(g6
g7
(lp7968
V-LRB-
p7969
atp7970
Rp7971
(dp7972
g16
V-LRB-
p7973
sbag5
(g6
g7
(lp7974
g5
(g6
g7
(lp7975
g5
(g6
g7
(lp7976
Vf
p7977
atp7978
Rp7979
(dp7980
g16
VSYM
p7981
sbatp7982
Rp7983
(dp7984
g16
VX
p7985
sbag5
(g6
g7
(lp7986
g5
(g6
g7
(lp7987
g5
(g6
g7
(lp7988
Vu
p7989
atp7990
Rp7991
(dp7992
g16
VNNP
p7993
sbag5
(g6
g7
(lp7994
V'
p7995
atp7996
Rp7997
(dp7998
g16
VPOS
p7999
sbatp8000
Rp8001
(dp8002
g16
VNP
p8003
sbag5
(g6
g7
(lp8004
g5
(g6
g7
(lp8005
V\u005c
p8006
atp8007
Rp8008
(dp8009
g16
VVBZ
p8010
sbag5
(g6
g7
(lp8011
g5
(g6
g7
(lp8012
g5
(g6
g7
(lp8013
g5
(g6
g7
(lp8014
Vu2062
p8015
atp8016
Rp8017
(dp8018
g16
VNNP
p8019
sbag5
(g6
g7
(lp8020
g7995
atp8021
Rp8022
(dp8023
g16
VPOS
p8024
sbatp8025
Rp8026
(dp8027
g16
VNP
p8028
sbag5
(g6
g7
(lp8029
g5
(g6
g7
(lp8030
V-LRB-
p8031
atp8032
Rp8033
(dp8034
g16
V-LRB-
p8035
sbag5
(g6
g7
(lp8036
g5
(g6
g7
(lp8037
V1
p8038
atp8039
Rp8040
(dp8041
g16
VCD
p8042
sbatp8043
Rp8044
(dp8045
g16
VNP
p8046
sbag5
(g6
g7
(lp8047
V-RRB-
p8048
atp8049
Rp8050
(dp8051
g16
V-RRB-
p8052
sbatp8053
Rp8054
(dp8055
g16
VPRN
p8056
sbag5
(g6
g7
(lp8057
g7989
atp8058
Rp8059
(dp8060
g16
VNN
p8061
sbag5
(g6
g7
(lp8062
g7995
atp8063
Rp8064
(dp8065
g16
V''
p8066
sbatp8067
Rp8068
(dp8069
g16
VNP
p8070
sbag5
(g6
g7
(lp8071
g5
(g6
g7
(lp8072
V\u005c
p8073
atp8074
Rp8075
(dp8076
g16
VVBG
p8077
sbag5
(g6
g7
(lp8078
g5
(g6
g7
(lp8079
g5
(g6
g7
(lp8080
Vu2062
p8081
atp8082
Rp8083
(dp8084
g16
VNNP
p8085
sbag5
(g6
g7
(lp8086
g7995
atp8087
Rp8088
(dp8089
g16
VPOS
p8090
sbatp8091
Rp8092
(dp8093
g16
VNP
p8094
sbag5
(g6
g7
(lp8095
g7989
atp8096
Rp8097
(dp8098
g16
VNN
p8099
sbag5
(g6
g7
(lp8100
g7995
atp8101
Rp8102
(dp8103
g16
V''
p8104
sbag5
(g6
g7
(lp8105
g5
(g6
g7
(lp8106
g5
(g6
g7
(lp8107
V\u005c
p8108
atp8109
Rp8110
(dp8111
g16
VVBG
p8112
sbag5
(g6
g7
(lp8113
g5
(g6
g7
(lp8114
g5
(g6
g7
(lp8115
g5
(g6
g7
(lp8116
g5
(g6
g7
(lp8117
Vu2026
p8118
atp8119
Rp8120
(dp8121
g16
VNNP
p8122
sbag5
(g6
g7
(lp8123
g7995
atp8124
Rp8125
(dp8126
g16
VPOS
p8127
sbatp8128
Rp8129
(dp8130
g16
VNP
p8131
sbag5
(g6
g7
(lp8132
g7989
atp8133
Rp8134
(dp8135
g16
VNN
p8136
sbag5
(g6
g7
(lp8137
g7995
atp8138
Rp8139
(dp8140
g16
VPOS
p8141
sbatp8142
Rp8143
(dp8144
g16
VNP
p8145
sbag5
(g6
g7
(lp8146
V\u005c
p8147
atp8148
Rp8149
(dp8150
g16
VNNP
p8151
sbag5
(g6
g7
(lp8152
Vu2062
p8153
atp8154
Rp8155
(dp8156
g16
VNNP
p8157
sbag5
(g6
g7
(lp8158
g7995
atp8159
Rp8160
(dp8161
g16
V''
p8162
sbatp8163
Rp8164
(dp8165
g16
VNP
p8166
sbag5
(g6
g7
(lp8167
g5
(g6
g7
(lp8168
g5
(g6
g7
(lp8169
g5
(g6
g7
(lp8170
g7977
atp8171
Rp8172
(dp8173
g16
VSYM
p8174
sbatp8175
Rp8176
(dp8177
g16
VNP
p8178
sbag5
(g6
g7
(lp8179
g5
(g6
g7
(lp8180
g7989
atp8181
Rp8182
(dp8183
g16
VVBP
p8184
sbag5
(g6
g7
(lp8185
g7995
atp8186
Rp8187
(dp8188
g16
V''
p8189
sbag5
(g6
g7
(lp8190
g5
(g6
g7
(lp8191
V\u005c
p8192
atp8193
Rp8194
(dp8195
g16
VJJ
p8196
sbag5
(g6
g7
(lp8197
Vu2062
p8198
atp8199
Rp8200
(dp8201
g16
VNNS
p8202
sbatp8203
Rp8204
(dp8205
g16
VNP
p8206
sbag5
(g6
g7
(lp8207
g7995
atp8208
Rp8209
(dp8210
g16
V''
p8211
sbatp8212
Rp8213
(dp8214
g16
VVP
p8215
sbatp8216
Rp8217
(dp8218
g16
g248
sbatp8219
Rp8220
(dp8221
g16
VSBAR
p8222
sbatp8223
Rp8224
(dp8225
g16
VNP
p8226
sbatp8227
Rp8228
(dp8229
g16
VVP
p8230
sbatp8231
Rp8232
(dp8233
g16
g248
sbatp8234
Rp8235
(dp8236
g16
VNP
p8237
sbatp8238
Rp8239
(dp8240
g16
VVP
p8241
sbag5
(g6
g7
(lp8242
g5
(g6
g7
(lp8243
V-LRB-
p8244
atp8245
Rp8246
(dp8247
g16
V-LRB-
p8248
sbag5
(g6
g7
(lp8249
g5
(g6
g7
(lp8250
g7783
atp8251
Rp8252
(dp8253
g16
VNNP
p8254
sbatp8255
Rp8256
(dp8257
g16
VNP
p8258
sbag5
(g6
g7
(lp8259
V-RRB-
p8260
atp8261
Rp8262
(dp8263
g16
V-RRB-
p8264
sbatp8265
Rp8266
(dp8267
g16
VPRN
p8268
sbatp8269
Rp8270
(dp8271
g16
VNP
p8272
sbatp8273
Rp8274
(dp8275
g16
VVP
p8276
sbatp8277
Rp8278
(dp8279
g16
g248
sbatp8280
Rp8281
(dp8282
g16
VSBAR
p8283
sbag5
(g6
g7
(lp8284
V-RRB-
p8285
atp8286
Rp8287
(dp8288
g16
V-RRB-
p8289
sbatp8290
Rp8291
(dp8292
g16
VPRN
p8293
sbag5
(g6
g7
(lp8294
g5
(g6
g7
(lp8295
Vdefined
p8296
atp8297
Rp8298
(dp8299
g16
VVBN
p8300
sbag5
(g6
g7
(lp8301
g5
(g6
g7
(lp8302
Vas
p8303
atp8304
Rp8305
(dp8306
g16
VIN
p8307
sbag5
(g6
g7
(lp8308
g5
(g6
g7
(lp8309
g5
(g6
g7
(lp8310
g5
(g6
g7
(lp8311
g7977
atp8312
Rp8313
(dp8314
g16
VNNP
p8315
sbag5
(g6
g7
(lp8316
g7989
atp8317
Rp8318
(dp8319
g16
VNNP
p8320
sbag5
(g6
g7
(lp8321
g7995
atp8322
Rp8323
(dp8324
g16
VPOS
p8325
sbatp8326
Rp8327
(dp8328
g16
VNP
p8329
sbag5
(g6
g7
(lp8330
V\u005c
p8331
atp8332
Rp8333
(dp8334
g16
VNN
p8335
sbag5
(g6
g7
(lp8336
Vu2062
p8337
atp8338
Rp8339
(dp8340
g16
VNN
p8341
sbag5
(g6
g7
(lp8342
g7995
atp8343
Rp8344
(dp8345
g16
V''
p8346
sbatp8347
Rp8348
(dp8349
g16
VNP
p8350
sbag5
(g6
g7
(lp8351
g5
(g6
g7
(lp8352
V-LRB-
p8353
atp8354
Rp8355
(dp8356
g16
V-LRB-
p8357
sbag5
(g6
g7
(lp8358
g5
(g6
g7
(lp8359
Vk
p8360
atp8361
Rp8362
(dp8363
g16
VNN
p8364
sbatp8365
Rp8366
(dp8367
g16
VNP
p8368
sbag5
(g6
g7
(lp8369
V-RRB-
p8370
atp8371
Rp8372
(dp8373
g16
V-RRB-
p8374
sbatp8375
Rp8376
(dp8377
g16
VPRN
p8378
sbatp8379
Rp8380
(dp8381
g16
VNP
p8382
sbatp8383
Rp8384
(dp8385
g16
VPP
p8386
sbag5
(g6
g7
(lp8387
g5
(g6
g7
(lp8388
g5
(g6
g7
(lp8389
g7802
atp8390
Rp8391
(dp8392
g16
VSYM
p8393
sbag5
(g6
g7
(lp8394
g5
(g6
g7
(lp8395
g8038
atp8396
Rp8397
(dp8398
g16
VCD
p8399
sbatp8400
Rp8401
(dp8402
g16
VNP
p8403
sbatp8404
Rp8405
(dp8406
g16
VVP
p8407
sbatp8408
Rp8409
(dp8410
g16
g248
sbatp8411
Rp8412
(dp8413
g16
VVP
p8414
sbatp8415
Rp8416
(dp8417
g16
VNP
p8418
sbag5
(g6
g7
(lp8419
g5
(g6
g7
(lp8420
Vif
p8421
atp8422
Rp8423
(dp8424
g16
VIN
p8425
sbag5
(g6
g7
(lp8426
g5
(g6
g7
(lp8427
g5
(g6
g7
(lp8428
Vs
p8429
atp8430
Rp8431
(dp8432
g16
VPRP
p8433
sbatp8434
Rp8435
(dp8436
g16
VNP
p8437
sbag5
(g6
g7
(lp8438
g5
(g6
g7
(lp8439
Vj
p8440
atp8441
Rp8442
(dp8443
g16
VVBP
p8444
sbag5
(g6
g7
(lp8445
g5
(g6
g7
(lp8446
g5
(g6
g7
(lp8447
g5
(g6
g7
(lp8448
g7989
atp8449
Rp8450
(dp8451
g16
VNNP
p8452
sbag5
(g6
g7
(lp8453
g7995
atp8454
Rp8455
(dp8456
g16
VPOS
p8457
sbatp8458
Rp8459
(dp8460
g16
VNP
p8461
sbag5
(g6
g7
(lp8462
V\u005c
p8463
atp8464
Rp8465
(dp8466
g16
VNNP
p8467
sbag5
(g6
g7
(lp8468
Vu2062
p8469
atp8470
Rp8471
(dp8472
g16
VNNP
p8473
sbag5
(g6
g7
(lp8474
g7995
atp8475
Rp8476
(dp8477
g16
V''
p8478
sbag5
(g6
g7
(lp8479
g5
(g6
g7
(lp8480
V-LRB-
p8481
atp8482
Rp8483
(dp8484
g16
V-LRB-
p8485
sbag5
(g6
g7
(lp8486
g5
(g6
g7
(lp8487
g8360
atp8488
Rp8489
(dp8490
g16
VNN
p8491
sbatp8492
Rp8493
(dp8494
g16
VNP
p8495
sbag5
(g6
g7
(lp8496
V-RRB-
p8497
atp8498
Rp8499
(dp8500
g16
V-RRB-
p8501
sbatp8502
Rp8503
(dp8504
g16
VPRN
p8505
sbag5
(g6
g7
(lp8506
V0.5
p8507
atp8508
Rp8509
(dp8510
g16
VNN
p8511
sbatp8512
Rp8513
(dp8514
g16
VNP
p8515
sbag5
(g6
g7
(lp8516
Vand
p8517
atp8518
Rp8519
(dp8520
g16
VCC
p8521
sbag5
(g6
g7
(lp8522
g5
(g6
g7
(lp8523
g5
(g6
g7
(lp8524
g7977
atp8525
Rp8526
(dp8527
g16
VNNP
p8528
sbag5
(g6
g7
(lp8529
g7989
atp8530
Rp8531
(dp8532
g16
VNNP
p8533
sbag5
(g6
g7
(lp8534
g7995
atp8535
Rp8536
(dp8537
g16
VPOS
p8538
sbatp8539
Rp8540
(dp8541
g16
VNP
p8542
sbag5
(g6
g7
(lp8543
V\u005c
p8544
atp8545
Rp8546
(dp8547
g16
VNNP
p8548
sbag5
(g6
g7
(lp8549
Vu2062
p8550
atp8551
Rp8552
(dp8553
g16
VNNP
p8554
sbag5
(g6
g7
(lp8555
g7995
atp8556
Rp8557
(dp8558
g16
V''
p8559
sbag5
(g6
g7
(lp8560
g5
(g6
g7
(lp8561
V-LRB-
p8562
atp8563
Rp8564
(dp8565
g16
V-LRB-
p8566
sbag5
(g6
g7
(lp8567
g5
(g6
g7
(lp8568
g8360
atp8569
Rp8570
(dp8571
g16
VNN
p8572
sbatp8573
Rp8574
(dp8575
g16
VNP
p8576
sbag5
(g6
g7
(lp8577
V-RRB-
p8578
atp8579
Rp8580
(dp8581
g16
V-RRB-
p8582
sbatp8583
Rp8584
(dp8585
g16
VPRN
p8586
sbag5
(g6
g7
(lp8587
g7802
atp8588
Rp8589
(dp8590
g16
VNN
p8591
sbatp8592
Rp8593
(dp8594
g16
VNP
p8595
sbag5
(g6
g7
(lp8596
g5
(g6
g7
(lp8597
V0
p8598
atp8599
Rp8600
(dp8601
g16
VCD
p8602
sbatp8603
Rp8604
(dp8605
g16
VNP
p8606
sbatp8607
Rp8608
(dp8609
g16
VNP
p8610
sbag5
(g6
g7
(lp8611
g5
(g6
g7
(lp8612
Votherwise
p8613
atp8614
Rp8615
(dp8616
g16
VRB
p8617
sbatp8618
Rp8619
(dp8620
g16
VADVP
p8621
sbag5
(g6
g7
(lp8622
g394
atp8623
Rp8624
(dp8625
g16
g394
sbag5
(g6
g7
(lp8626
g5
(g6
g7
(lp8627
g5
(g6
g7
(lp8628
Vwhere
p8629
atp8630
Rp8631
(dp8632
g16
VWRB
p8633
sbatp8634
Rp8635
(dp8636
g16
VWHADVP
p8637
sbag5
(g6
g7
(lp8638
g5
(g6
g7
(lp8639
g5
(g6
g7
(lp8640
g8429
atp8641
Rp8642
(dp8643
g16
VPRP
p8644
sbatp8645
Rp8646
(dp8647
g16
VNP
p8648
sbag5
(g6
g7
(lp8649
g5
(g6
g7
(lp8650
g8440
atp8651
Rp8652
(dp8653
g16
VVBP
p8654
sbag5
(g6
g7
(lp8655
g5
(g6
g7
(lp8656
g5
(g6
g7
(lp8657
g5
(g6
g7
(lp8658
g5
(g6
g7
(lp8659
g5
(g6
g7
(lp8660
g7989
atp8661
Rp8662
(dp8663
g16
VNNP
p8664
sbag5
(g6
g7
(lp8665
g7995
atp8666
Rp8667
(dp8668
g16
VPOS
p8669
sbatp8670
Rp8671
(dp8672
g16
VNP
p8673
sbag5
(g6
g7
(lp8674
V\u005c
p8675
atp8676
Rp8677
(dp8678
g16
VNN
p8679
sbag5
(g6
g7
(lp8680
Vu2062
p8681
atp8682
Rp8683
(dp8684
g16
VNN
p8685
sbag5
(g6
g7
(lp8686
g7995
atp8687
Rp8688
(dp8689
g16
V''
p8690
sbatp8691
Rp8692
(dp8693
g16
VNP
p8694
sbag5
(g6
g7
(lp8695
g5
(g6
g7
(lp8696
V-LRB-
p8697
atp8698
Rp8699
(dp8700
g16
V-LRB-
p8701
sbag5
(g6
g7
(lp8702
g5
(g6
g7
(lp8703
g8360
atp8704
Rp8705
(dp8706
g16
VNN
p8707
sbatp8708
Rp8709
(dp8710
g16
VNP
p8711
sbag5
(g6
g7
(lp8712
V-RRB-
p8713
atp8714
Rp8715
(dp8716
g16
V-RRB-
p8717
sbatp8718
Rp8719
(dp8720
g16
VPRN
p8721
sbatp8722
Rp8723
(dp8724
g16
VNP
p8725
sbag5
(g6
g7
(lp8726
g5
(g6
g7
(lp8727
Vreturns
p8728
atp8729
Rp8730
(dp8731
g16
VVBZ
p8732
sbag5
(g6
g7
(lp8733
g5
(g6
g7
(lp8734
g5
(g6
g7
(lp8735
g5
(g6
g7
(lp8736
Vthe
p8737
atp8738
Rp8739
(dp8740
g16
VDT
p8741
sbag5
(g6
g7
(lp8742
Vactivation
p8743
atp8744
Rp8745
(dp8746
g16
VNN
p8747
sbatp8748
Rp8749
(dp8750
g16
VNP
p8751
sbag5
(g6
g7
(lp8752
g5
(g6
g7
(lp8753
Vof
p8754
atp8755
Rp8756
(dp8757
g16
VIN
p8758
sbag5
(g6
g7
(lp8759
g5
(g6
g7
(lp8760
Vthe
p8761
atp8762
Rp8763
(dp8764
g16
VDT
p8765
sbag5
(g6
g7
(lp8766
g8360
atp8767
Rp8768
(dp8769
g16
VNN
p8770
sbag5
(g6
g7
(lp8771
Vth
p8772
atp8773
Rp8774
(dp8775
g16
VNN
p8776
sbatp8777
Rp8778
(dp8779
g16
VNP
p8780
sbatp8781
Rp8782
(dp8783
g16
VPP
p8784
sbatp8785
Rp8786
(dp8787
g16
VNP
p8788
sbag5
(g6
g7
(lp8789
g5
(g6
g7
(lp8790
Vmost
p8791
atp8792
Rp8793
(dp8794
g16
VRBS
p8795
sbag5
(g6
g7
(lp8796
Vactive
p8797
atp8798
Rp8799
(dp8800
g16
VJJ
p8801
sbatp8802
Rp8803
(dp8804
g16
VADJP
p8805
sbag5
(g6
g7
(lp8806
Vunit
p8807
atp8808
Rp8809
(dp8810
g16
VNN
p8811
sbatp8812
Rp8813
(dp8814
g16
VNP
p8815
sbatp8816
Rp8817
(dp8818
g16
VVP
p8819
sbatp8820
Rp8821
(dp8822
g16
g248
sbatp8823
Rp8824
(dp8825
g16
VSBAR
p8826
sbatp8827
Rp8828
(dp8829
g16
VVP
p8830
sbatp8831
Rp8832
(dp8833
g16
g248
sbatp8834
Rp8835
(dp8836
g16
VSBAR
p8837
sbatp8838
Rp8839
(dp8840
g16
VVP
p8841
sbatp8842
Rp8843
(dp8844
g16
g248
sbatp8845
Rp8846
(dp8847
g16
VSBAR
p8848
sbatp8849
Rp8850
(dp8851
g16
VVP
p8852
sbatp8853
Rp8854
(dp8855
g16
g248
sbatp8856
Rp8857
(dp8858
g16
VROOT
p8859
sbasg279
(icmyPackage
CorE
p8860
(dp8861
g282
(lp8862
(I0
I71
tp8863
a(I0
I116
tp8864
asg286
g8843
sbsg287
(icmyPackage
CorE
p8865
(dp8866
g282
(lp8867
(I0
I0
tp8868
a(I0
I69
tp8869
asg286
g5
(g6
g7
(lp8870
g7930
ag7935
ag7945
ag7952
ag8416
atp8871
Rp8872
(dp8873
g16
g297
sbsbsg298
(icmyPackage
pattern
p8874
(dp8875
g301
I0
sg302
I0
sg303
(lp8876
(lp8877
S'if'
p8878
aasg308
(lp8879
I1
aI1
aI1
asg310
(lp8880
S'An effective knowledge flow network enables a research team to be very powerful in generating new knowledge if every node can innovate and output new knowledge to appropriate members.'
p8881
asg313
I14
sg314
(lp8882
(lp8883
S'&R@Complete@'
p8884
aa(lp8885
S'&C@Complete@'
p8886
aasbsg323
(lp8887
(isxpPackage
sxpSent
p8888
(dp8889
g327
(lp8890
I24
aI25
asg329
VFor each of the K = 10 most active units out of total J = 400 hidden units, we create features ( f u'\u005cu2062' ( 1 ) u'\u005cu2062' u'\u005cu2026' u'\u005cu2062' f u'\u005cu2062' ( K ) ) defined as f u'\u005cu2062' ( k ) = 1 if s j u'\u005cu2062' ( k ) 0.5 and f u'\u005cu2062' ( k ) = 0 otherwise, where s j u'\u005cu2062' ( k ) returns the activation of the k th most active unit
p8891
sg331
I10
sg313
I110
sg332
I30
sbasba(icmyPackage
CELink
p8892
(dp8893
g3
(lp8894
g8857
ag5
(g6
g7
(lp8895
g5
(g6
g7
(lp8896
g5
(g6
g7
(lp8897
g5
(g6
g7
(lp8898
VAs
p8899
atp8900
Rp8901
(dp8902
g16
VIN
p8903
sbag5
(g6
g7
(lp8904
g5
(g6
g7
(lp8905
Vour
p8906
atp8907
Rp8908
(dp8909
g16
VPRP$
p8910
sbag5
(g6
g7
(lp8911
Vevaluation
p8912
atp8913
Rp8914
(dp8915
g16
VNN
p8916
sbag5
(g6
g7
(lp8917
Vmetric
p8918
atp8919
Rp8920
(dp8921
g16
VNN
p8922
sbatp8923
Rp8924
(dp8925
g16
VNP
p8926
sbatp8927
Rp8928
(dp8929
g16
VPP
p8930
sbag5
(g6
g7
(lp8931
g5
(g6
g7
(lp8932
Vwe
p8933
atp8934
Rp8935
(dp8936
g16
VPRP
p8937
sbatp8938
Rp8939
(dp8940
g16
VNP
p8941
sbag5
(g6
g7
(lp8942
g5
(g6
g7
(lp8943
Vuse
p8944
atp8945
Rp8946
(dp8947
g16
VVBP
p8948
sbag5
(g6
g7
(lp8949
g5
(g6
g7
(lp8950
g5
(g6
g7
(lp8951
Vword
p8952
atp8953
Rp8954
(dp8955
g16
VNN
p8956
sbag5
(g6
g7
(lp8957
Verror
p8958
atp8959
Rp8960
(dp8961
g16
VNN
p8962
sbag5
(g6
g7
(lp8963
Vrate
p8964
atp8965
Rp8966
(dp8967
g16
VNN
p8968
sbatp8969
Rp8970
(dp8971
g16
VNP
p8972
sbag5
(g6
g7
(lp8973
g5
(g6
g7
(lp8974
V-LRB-
p8975
atp8976
Rp8977
(dp8978
g16
V-LRB-
p8979
sbag5
(g6
g7
(lp8980
g5
(g6
g7
(lp8981
VWER
p8982
atp8983
Rp8984
(dp8985
g16
VNNP
p8986
sbatp8987
Rp8988
(dp8989
g16
VNP
p8990
sbag5
(g6
g7
(lp8991
V-RRB-
p8992
atp8993
Rp8994
(dp8995
g16
V-RRB-
p8996
sbatp8997
Rp8998
(dp8999
g16
VPRN
p9000
sbag5
(g6
g7
(lp9001
g5
(g6
g7
(lp9002
g5
(g6
g7
(lp9003
Vwhich
p9004
atp9005
Rp9006
(dp9007
g16
VWDT
p9008
sbatp9009
Rp9010
(dp9011
g16
VWHNP
p9012
sbag5
(g6
g7
(lp9013
g5
(g6
g7
(lp9014
g5
(g6
g7
(lp9015
Vis
p9016
atp9017
Rp9018
(dp9019
g16
VVBZ
p9020
sbag5
(g6
g7
(lp9021
g5
(g6
g7
(lp9022
Vdefined
p9023
atp9024
Rp9025
(dp9026
g16
VVBN
p9027
sbag5
(g6
g7
(lp9028
g5
(g6
g7
(lp9029
Vas
p9030
atp9031
Rp9032
(dp9033
g16
VIN
p9034
sbag5
(g6
g7
(lp9035
g5
(g6
g7
(lp9036
g5
(g6
g7
(lp9037
Vthe
p9038
atp9039
Rp9040
(dp9041
g16
VDT
p9042
sbag5
(g6
g7
(lp9043
VLevenshtein
p9044
atp9045
Rp9046
(dp9047
g16
VNNP
p9048
sbag5
(g6
g7
(lp9049
Vedit
p9050
atp9051
Rp9052
(dp9053
g16
VNNP
p9054
sbag5
(g6
g7
(lp9055
Vdistance
p9056
atp9057
Rp9058
(dp9059
g16
VNN
p9060
sbatp9061
Rp9062
(dp9063
g16
VNP
p9064
sbag5
(g6
g7
(lp9065
g5
(g6
g7
(lp9066
Vbetween
p9067
atp9068
Rp9069
(dp9070
g16
VIN
p9071
sbag5
(g6
g7
(lp9072
g5
(g6
g7
(lp9073
g5
(g6
g7
(lp9074
Vthe
p9075
atp9076
Rp9077
(dp9078
g16
VDT
p9079
sbag5
(g6
g7
(lp9080
Vpredicted
p9081
atp9082
Rp9083
(dp9084
g16
VJJ
p9085
sbag5
(g6
g7
(lp9086
Vword
p9087
atp9088
Rp9089
(dp9090
g16
VNN
p9091
sbag5
(g6
g7
(lp9092
Vsequence
p9093
atp9094
Rp9095
(dp9096
g16
VNN
p9097
sbag5
(g6
g7
(lp9098
Vt
p9099
atp9100
Rp9101
(dp9102
g16
VNN
p9103
sbag5
(g6
g7
(lp9104
V^
p9105
atp9106
Rp9107
(dp9108
g16
VNN
p9109
sbatp9110
Rp9111
(dp9112
g16
VNP
p9113
sbag5
(g6
g7
(lp9114
Vand
p9115
atp9116
Rp9117
(dp9118
g16
VCC
p9119
sbag5
(g6
g7
(lp9120
g5
(g6
g7
(lp9121
Vthe
p9122
atp9123
Rp9124
(dp9125
g16
VDT
p9126
sbag5
(g6
g7
(lp9127
Vtarget
p9128
atp9129
Rp9130
(dp9131
g16
VNN
p9132
sbag5
(g6
g7
(lp9133
Vword
p9134
atp9135
Rp9136
(dp9137
g16
VNN
p9138
sbag5
(g6
g7
(lp9139
Vsequence
p9140
atp9141
Rp9142
(dp9143
g16
VNN
p9144
sbag5
(g6
g7
(lp9145
g9099
atp9146
Rp9147
(dp9148
g16
VNN
p9149
sbatp9150
Rp9151
(dp9152
g16
VNP
p9153
sbatp9154
Rp9155
(dp9156
g16
VNP
p9157
sbatp9158
Rp9159
(dp9160
g16
VPP
p9161
sbag5
(g6
g7
(lp9162
g394
atp9163
Rp9164
(dp9165
g16
g394
sbag5
(g6
g7
(lp9166
g5
(g6
g7
(lp9167
Vnormalized
p9168
atp9169
Rp9170
(dp9171
g16
VVBN
p9172
sbag5
(g6
g7
(lp9173
g5
(g6
g7
(lp9174
Vby
p9175
atp9176
Rp9177
(dp9178
g16
VIN
p9179
sbag5
(g6
g7
(lp9180
g5
(g6
g7
(lp9181
g5
(g6
g7
(lp9182
Vthe
p9183
atp9184
Rp9185
(dp9186
g16
VDT
p9187
sbag5
(g6
g7
(lp9188
Vtotal
p9189
atp9190
Rp9191
(dp9192
g16
VJJ
p9193
sbag5
(g6
g7
(lp9194
Vnumber
p9195
atp9196
Rp9197
(dp9198
g16
VNN
p9199
sbatp9200
Rp9201
(dp9202
g16
VNP
p9203
sbag5
(g6
g7
(lp9204
g5
(g6
g7
(lp9205
Vof
p9206
atp9207
Rp9208
(dp9209
g16
VIN
p9210
sbag5
(g6
g7
(lp9211
g5
(g6
g7
(lp9212
g5
(g6
g7
(lp9213
Vwords
p9214
atp9215
Rp9216
(dp9217
g16
VNNS
p9218
sbatp9219
Rp9220
(dp9221
g16
VNP
p9222
sbag5
(g6
g7
(lp9223
g5
(g6
g7
(lp9224
Vin
p9225
atp9226
Rp9227
(dp9228
g16
VIN
p9229
sbag5
(g6
g7
(lp9230
g5
(g6
g7
(lp9231
Vthe
p9232
atp9233
Rp9234
(dp9235
g16
VDT
p9236
sbag5
(g6
g7
(lp9237
Vtarget
p9238
atp9239
Rp9240
(dp9241
g16
VNN
p9242
sbag5
(g6
g7
(lp9243
Vstring
p9244
atp9245
Rp9246
(dp9247
g16
VNN
p9248
sbatp9249
Rp9250
(dp9251
g16
VNP
p9252
sbatp9253
Rp9254
(dp9255
g16
VPP
p9256
sbatp9257
Rp9258
(dp9259
g16
VNP
p9260
sbatp9261
Rp9262
(dp9263
g16
VPP
p9264
sbatp9265
Rp9266
(dp9267
g16
VNP
p9268
sbatp9269
Rp9270
(dp9271
g16
VPP
p9272
sbatp9273
Rp9274
(dp9275
g16
VVP
p9276
sbatp9277
Rp9278
(dp9279
g16
VNP
p9280
sbatp9281
Rp9282
(dp9283
g16
VPP
p9284
sbatp9285
Rp9286
(dp9287
g16
VVP
p9288
sbatp9289
Rp9290
(dp9291
g16
VVP
p9292
sbatp9293
Rp9294
(dp9295
g16
g248
sbatp9296
Rp9297
(dp9298
g16
VSBAR
p9299
sbatp9300
Rp9301
(dp9302
g16
VNP
p9303
sbatp9304
Rp9305
(dp9306
g16
VVP
p9307
sbatp9308
Rp9309
(dp9310
g16
g248
sbatp9311
Rp9312
(dp9313
g16
VROOT
p9314
sbasg279
(icmyPackage
CorE
p9315
(dp9316
g282
(lp9317
(I1
I1
tp9318
a(I1
I44
tp9319
asg286
g5
(g6
g7
(lp9320
g8924
ag8939
ag9305
atp9321
Rp9322
(dp9323
g16
g297
sbsbsg287
(icmyPackage
CorE
p9324
(dp9325
g282
(lp9326
(I0
I0
tp9327
a(I0
I116
tp9328
asg286
g8857
sbsg298
g1351
sg323
(lp9329
g8888
a(isxpPackage
sxpSent
p9330
(dp9331
g327
(lp9332
I25
asg329
VAs our evaluation metric we use word error rate (WER) which is defined as the Levenshtein edit distance between the predicted word sequence t ^ and the target word sequence t , normalized by the total number of words in the target string
p9333
sg331
I11
sg313
I111
sg332
I31
sbasba(icmyPackage
CELink
p9334
(dp9335
g3
(lp9336
g5
(g6
g7
(lp9337
g5
(g6
g7
(lp9338
g5
(g6
g7
(lp9339
g5
(g6
g7
(lp9340
g5
(g6
g7
(lp9341
VSince
p9342
atp9343
Rp9344
(dp9345
g16
VIN
p9346
sbag5
(g6
g7
(lp9347
g5
(g6
g7
(lp9348
g5
(g6
g7
(lp9349
Vthe
p9350
atp9351
Rp9352
(dp9353
g16
VDT
p9354
sbag5
(g6
g7
(lp9355
VEnglish
p9356
atp9357
Rp9358
(dp9359
g16
VJJ
p9360
sbag5
(g6
g7
(lp9361
Vdataset
p9362
atp9363
Rp9364
(dp9365
g16
VNN
p9366
sbatp9367
Rp9368
(dp9369
g16
VNP
p9370
sbag5
(g6
g7
(lp9371
g5
(g6
g7
(lp9372
Vis
p9373
atp9374
Rp9375
(dp9376
g16
VVBZ
p9377
sbag5
(g6
g7
(lp9378
g5
(g6
g7
(lp9379
Vpre-tokenized
p9380
atp9381
Rp9382
(dp9383
g16
VJJ
p9384
sbag5
(g6
g7
(lp9385
Vand
p9386
atp9387
Rp9388
(dp9389
g16
VCC
p9390
sbag5
(g6
g7
(lp9391
Vonly
p9392
atp9393
Rp9394
(dp9395
g16
VJJ
p9396
sbatp9397
Rp9398
(dp9399
g16
VADJP
p9400
sbatp9401
Rp9402
(dp9403
g16
VVP
p9404
sbatp9405
Rp9406
(dp9407
g16
g248
sbatp9408
Rp9409
(dp9410
g16
VSBAR
p9411
sbag5
(g6
g7
(lp9412
g5
(g6
g7
(lp9413
Vcovers
p9414
atp9415
Rp9416
(dp9417
g16
VVBZ
p9418
sbag5
(g6
g7
(lp9419
g5
(g6
g7
(lp9420
Vword-to-word
p9421
atp9422
Rp9423
(dp9424
g16
VJJ
p9425
sbag5
(g6
g7
(lp9426
Vtransformations
p9427
atp9428
Rp9429
(dp9430
g16
VNNS
p9431
sbatp9432
Rp9433
(dp9434
g16
VNP
p9435
sbatp9436
Rp9437
(dp9438
g16
VVP
p9439
sbatp9440
Rp9441
(dp9442
g16
g248
sbag5
(g6
g7
(lp9443
g394
atp9444
Rp9445
(dp9446
g16
g394
sbag5
(g6
g7
(lp9447
g5
(g6
g7
(lp9448
g5
(g6
g7
(lp9449
Vthis
p9450
atp9451
Rp9452
(dp9453
g16
VDT
p9454
sbag5
(g6
g7
(lp9455
Vchoice
p9456
atp9457
Rp9458
(dp9459
g16
VNN
p9460
sbatp9461
Rp9462
(dp9463
g16
VNP
p9464
sbag5
(g6
g7
(lp9465
g5
(g6
g7
(lp9466
Vhas
p9467
atp9468
Rp9469
(dp9470
g16
VVBZ
p9471
sbag5
(g6
g7
(lp9472
g5
(g6
g7
(lp9473
Vlittle
p9474
atp9475
Rp9476
(dp9477
g16
VJJ
p9478
sbag5
(g6
g7
(lp9479
Vimportance
p9480
atp9481
Rp9482
(dp9483
g16
VNN
p9484
sbatp9485
Rp9486
(dp9487
g16
VNP
p9488
sbag5
(g6
g7
(lp9489
g5
(g6
g7
(lp9490
Vhere
p9491
atp9492
Rp9493
(dp9494
g16
VRB
p9495
sbatp9496
Rp9497
(dp9498
g16
VADVP
p9499
sbatp9500
Rp9501
(dp9502
g16
VVP
p9503
sbatp9504
Rp9505
(dp9506
g16
g248
sbag5
(g6
g7
(lp9507
Vand
p9508
atp9509
Rp9510
(dp9511
g16
VCC
p9512
sbag5
(g6
g7
(lp9513
g5
(g6
g7
(lp9514
g5
(g6
g7
(lp9515
Vcharacter
p9516
atp9517
Rp9518
(dp9519
g16
VNN
p9520
sbag5
(g6
g7
(lp9521
Verror
p9522
atp9523
Rp9524
(dp9525
g16
VNN
p9526
sbag5
(g6
g7
(lp9527
Vrates
p9528
atp9529
Rp9530
(dp9531
g16
VNNS
p9532
sbatp9533
Rp9534
(dp9535
g16
VNP
p9536
sbag5
(g6
g7
(lp9537
g5
(g6
g7
(lp9538
Vshow
p9539
atp9540
Rp9541
(dp9542
g16
VVBP
p9543
sbag5
(g6
g7
(lp9544
g5
(g6
g7
(lp9545
g31
atp9546
Rp9547
(dp9548
g16
VDT
p9549
sbag5
(g6
g7
(lp9550
Vsimilar
p9551
atp9552
Rp9553
(dp9554
g16
VJJ
p9555
sbag5
(g6
g7
(lp9556
Vpattern
p9557
atp9558
Rp9559
(dp9560
g16
VNN
p9561
sbatp9562
Rp9563
(dp9564
g16
VNP
p9565
sbag5
(g6
g7
(lp9566
g5
(g6
g7
(lp9567
Vto
p9568
atp9569
Rp9570
(dp9571
g16
VTO
p9572
sbag5
(g6
g7
(lp9573
g5
(g6
g7
(lp9574
Vword
p9575
atp9576
Rp9577
(dp9578
g16
VNN
p9579
sbag5
(g6
g7
(lp9580
Verror
p9581
atp9582
Rp9583
(dp9584
g16
VNN
p9585
sbag5
(g6
g7
(lp9586
Vrates
p9587
atp9588
Rp9589
(dp9590
g16
VNNS
p9591
sbatp9592
Rp9593
(dp9594
g16
VNP
p9595
sbatp9596
Rp9597
(dp9598
g16
VPP
p9599
sbatp9600
Rp9601
(dp9602
g16
VVP
p9603
sbatp9604
Rp9605
(dp9606
g16
g248
sbatp9607
Rp9608
(dp9609
g16
g248
sbatp9610
Rp9611
(dp9612
g16
VROOT
p9613
sbasg279
(icmyPackage
CorE
p9614
(dp9615
g282
(lp9616
(I0
I1
tp9617
a(I0
I10
tp9618
asg286
g5
(g6
g7
(lp9619
g9406
ag9437
atp9620
Rp9621
(dp9622
g16
g297
sbsbsg287
(icmyPackage
CorE
p9623
(dp9624
g282
(lp9625
(I0
I12
tp9626
a(I0
I29
tp9627
asg286
g5
(g6
g7
(lp9628
g9505
ag9510
ag9605
atp9629
Rp9630
(dp9631
g16
g297
sbsbsg298
(icmyPackage
pattern
p9632
(dp9633
g301
I15
sg302
I0
sg303
(lp9634
(lp9635
S'since'
p9636
aa(lp9637
g1826
aasg308
(lp9638
I3
aI1
aI1
asg310
(lp9639
S'But, since the herpes virus does not always show its symptoms, prevention is not fool proof.'
p9640
asg313
I78
sg314
(lp9641
(lp9642
a(lp9643
S'&C@NCTime@'
p9644
aa(lp9645
S'&R@NCTime@'
p9646
aasbsg323
(lp9647
(isxpPackage
sxpSent
p9648
(dp9649
g327
(lp9650
I26
asg329
VSince the English dataset is pre-tokenized and only covers word-to-word transformations, this choice has little importance here and character error rates show a similar pattern to word error rates
p9651
sg331
I11
sg313
I113
sg332
I31
sbasba(icmyPackage
CELink
p9652
(dp9653
g3
(lp9654
g5
(g6
g7
(lp9655
g5
(g6
g7
(lp9656
g5
(g6
g7
(lp9657
g5
(g6
g7
(lp9658
VSRN
p9659
atp9660
Rp9661
(dp9662
g16
VNNP
p9663
sbag5
(g6
g7
(lp9664
Vfeatures
p9665
atp9666
Rp9667
(dp9668
g16
VNNS
p9669
sbatp9670
Rp9671
(dp9672
g16
VNP
p9673
sbag5
(g6
g7
(lp9674
g5
(g6
g7
(lp9675
Vseem
p9676
atp9677
Rp9678
(dp9679
g16
VVBP
p9680
sbag5
(g6
g7
(lp9681
g5
(g6
g7
(lp9682
g5
(g6
g7
(lp9683
Vto
p9684
atp9685
Rp9686
(dp9687
g16
VTO
p9688
sbag5
(g6
g7
(lp9689
g5
(g6
g7
(lp9690
Vbe
p9691
atp9692
Rp9693
(dp9694
g16
VVB
p9695
sbag5
(g6
g7
(lp9696
g5
(g6
g7
(lp9697
Vespecially
p9698
atp9699
Rp9700
(dp9701
g16
VRB
p9702
sbag5
(g6
g7
(lp9703
Vuseful
p9704
atp9705
Rp9706
(dp9707
g16
VJJ
p9708
sbag5
(g6
g7
(lp9709
g5
(g6
g7
(lp9710
Vfor
p9711
atp9712
Rp9713
(dp9714
g16
VIN
p9715
sbag5
(g6
g7
(lp9716
g5
(g6
g7
(lp9717
g5
(g6
g7
(lp9718
Vlearning
p9719
atp9720
Rp9721
(dp9722
g16
VVBG
p9723
sbag5
(g6
g7
(lp9724
g5
(g6
g7
(lp9725
g5
(g6
g7
(lp9726
Vlong-range
p9727
atp9728
Rp9729
(dp9730
g16
VJJ
p9731
sbag5
(g6
g7
(lp9732
g394
atp9733
Rp9734
(dp9735
g16
g394
sbag5
(g6
g7
(lp9736
Vmulti-character
p9737
atp9738
Rp9739
(dp9740
g16
VJJ
p9741
sbag5
(g6
g7
(lp9742
Vedits
p9743
atp9744
Rp9745
(dp9746
g16
VNNS
p9747
sbatp9748
Rp9749
(dp9750
g16
VNP
p9751
sbag5
(g6
g7
(lp9752
g394
atp9753
Rp9754
(dp9755
g16
g394
sbag5
(g6
g7
(lp9756
g5
(g6
g7
(lp9757
Ve.g.
p9758
atp9759
Rp9760
(dp9761
g16
VNNP
p9762
sbatp9763
Rp9764
(dp9765
g16
VNP
p9766
sbag5
(g6
g7
(lp9767
g394
atp9768
Rp9769
(dp9770
g16
g394
sbag5
(g6
g7
(lp9771
g5
(g6
g7
(lp9772
g5
(g6
g7
(lp9773
Vfb
p9774
atp9775
Rp9776
(dp9777
g16
VNN
p9778
sbatp9779
Rp9780
(dp9781
g16
VNP
p9782
sbag5
(g6
g7
(lp9783
g5
(g6
g7
(lp9784
Vfor
p9785
atp9786
Rp9787
(dp9788
g16
VIN
p9789
sbag5
(g6
g7
(lp9790
g5
(g6
g7
(lp9791
Vfacebook
p9792
atp9793
Rp9794
(dp9795
g16
VNN
p9796
sbatp9797
Rp9798
(dp9799
g16
VNP
p9800
sbatp9801
Rp9802
(dp9803
g16
VPP
p9804
sbatp9805
Rp9806
(dp9807
g16
VNP
p9808
sbatp9809
Rp9810
(dp9811
g16
VNP
p9812
sbatp9813
Rp9814
(dp9815
g16
VVP
p9816
sbatp9817
Rp9818
(dp9819
g16
g248
sbatp9820
Rp9821
(dp9822
g16
VPP
p9823
sbatp9824
Rp9825
(dp9826
g16
VADJP
p9827
sbatp9828
Rp9829
(dp9830
g16
VVP
p9831
sbatp9832
Rp9833
(dp9834
g16
VVP
p9835
sbatp9836
Rp9837
(dp9838
g16
g248
sbatp9839
Rp9840
(dp9841
g16
VVP
p9842
sbatp9843
Rp9844
(dp9845
g16
g248
sbatp9846
Rp9847
(dp9848
g16
VROOT
p9849
sbasg279
(icmyPackage
CorE
p9850
(dp9851
g282
(lp9852
(I0
I8
tp9853
a(I0
I18
tp9854
asg286
g9818
sbsg287
(icmyPackage
CorE
p9855
(dp9856
g282
(lp9857
(I0
I0
tp9858
a(I0
I6
tp9859
asg286
g5
(g6
g7
(lp9860
g9671
ag9678
ag9686
ag9693
ag9700
ag9706
atp9861
Rp9862
(dp9863
g16
g297
sbsbsg298
g5622
sg323
(lp9864
(isxpPackage
sxpSent
p9865
(dp9866
g327
(lp9867
I27
asg329
VSRN features seem to be especially useful for learning long-range, multi-character edits, e.g., fb for facebook
p9868
sg331
I12
sg313
I119
sg332
I32
sbasba(icmyPackage
CELink
p9869
(dp9870
g3
(lp9871
g5
(g6
g7
(lp9872
g5
(g6
g7
(lp9873
g5
(g6
g7
(lp9874
g5
(g6
g7
(lp9875
VThey
p9876
atp9877
Rp9878
(dp9879
g16
VPRP
p9880
sbatp9881
Rp9882
(dp9883
g16
VNP
p9884
sbag5
(g6
g7
(lp9885
g5
(g6
g7
(lp9886
Vuse
p9887
atp9888
Rp9889
(dp9890
g16
VVBP
p9891
sbag5
(g6
g7
(lp9892
g5
(g6
g7
(lp9893
g5
(g6
g7
(lp9894
Vthis
p9895
atp9896
Rp9897
(dp9898
g16
VDT
p9899
sbatp9900
Rp9901
(dp9902
g16
VNP
p9903
sbag5
(g6
g7
(lp9904
g5
(g6
g7
(lp9905
Vas
p9906
atp9907
Rp9908
(dp9909
g16
VIN
p9910
sbag5
(g6
g7
(lp9911
g5
(g6
g7
(lp9912
Vthe
p9913
atp9914
Rp9915
(dp9916
g16
VDT
p9917
sbag5
(g6
g7
(lp9918
Verror
p9919
atp9920
Rp9921
(dp9922
g16
VNN
p9923
sbag5
(g6
g7
(lp9924
Vmodel
p9925
atp9926
Rp9927
(dp9928
g16
VNN
p9929
sbatp9930
Rp9931
(dp9932
g16
VNP
p9933
sbatp9934
Rp9935
(dp9936
g16
VPP
p9937
sbatp9938
Rp9939
(dp9940
g16
VNP
p9941
sbag5
(g6
g7
(lp9942
g5
(g6
g7
(lp9943
Vin
p9944
atp9945
Rp9946
(dp9947
g16
VIN
p9948
sbag5
(g6
g7
(lp9949
g5
(g6
g7
(lp9950
g5
(g6
g7
(lp9951
g31
atp9952
Rp9953
(dp9954
g16
VDT
p9955
sbag5
(g6
g7
(lp9956
Vnoisy-channel
p9957
atp9958
Rp9959
(dp9960
g16
VJJ
p9961
sbag5
(g6
g7
(lp9962
Vsetup
p9963
atp9964
Rp9965
(dp9966
g16
VNN
p9967
sbatp9968
Rp9969
(dp9970
g16
VNP
p9971
sbag5
(g6
g7
(lp9972
g5
(g6
g7
(lp9973
Vcombined
p9974
atp9975
Rp9976
(dp9977
g16
VVBN
p9978
sbag5
(g6
g7
(lp9979
g5
(g6
g7
(lp9980
Vwith
p9981
atp9982
Rp9983
(dp9984
g16
VIN
p9985
sbag5
(g6
g7
(lp9986
g5
(g6
g7
(lp9987
g31
atp9988
Rp9989
(dp9990
g16
VDT
p9991
sbag5
(g6
g7
(lp9992
Vunigram
p9993
atp9994
Rp9995
(dp9996
g16
VNN
p9997
sbag5
(g6
g7
(lp9998
Vlanguage
p9999
atp10000
Rp10001
(dp10002
g16
VNN
p10003
sbag5
(g6
g7
(lp10004
Vmodel
p10005
atp10006
Rp10007
(dp10008
g16
VNN
p10009
sbatp10010
Rp10011
(dp10012
g16
VNP
p10013
sbatp10014
Rp10015
(dp10016
g16
VPP
p10017
sbatp10018
Rp10019
(dp10020
g16
VVP
p10021
sbatp10022
Rp10023
(dp10024
g16
VNP
p10025
sbatp10026
Rp10027
(dp10028
g16
VPP
p10029
sbatp10030
Rp10031
(dp10032
g16
VVP
p10033
sbatp10034
Rp10035
(dp10036
g16
g248
sbatp10037
Rp10038
(dp10039
g16
VROOT
p10040
sbag5
(g6
g7
(lp10041
g5
(g6
g7
(lp10042
g5
(g6
g7
(lp10043
g5
(g6
g7
(lp10044
VIn
p10045
atp10046
Rp10047
(dp10048
g16
VIN
p10049
sbag5
(g6
g7
(lp10050
g5
(g6
g7
(lp10051
g5
(g6
g7
(lp10052
Vaddition
p10053
atp10054
Rp10055
(dp10056
g16
VNN
p10057
sbatp10058
Rp10059
(dp10060
g16
VNP
p10061
sbag5
(g6
g7
(lp10062
g5
(g6
g7
(lp10063
Vto
p10064
atp10065
Rp10066
(dp10067
g16
VTO
p10068
sbag5
(g6
g7
(lp10069
g5
(g6
g7
(lp10070
Vcharacter
p10071
atp10072
Rp10073
(dp10074
g16
VNN
p10075
sbag5
(g6
g7
(lp10076
Vn-gram
p10077
atp10078
Rp10079
(dp10080
g16
VNN
p10081
sbag5
(g6
g7
(lp10082
Vfeatures
p10083
atp10084
Rp10085
(dp10086
g16
VNNS
p10087
sbatp10088
Rp10089
(dp10090
g16
VNP
p10091
sbatp10092
Rp10093
(dp10094
g16
VPP
p10095
sbatp10096
Rp10097
(dp10098
g16
VNP
p10099
sbatp10100
Rp10101
(dp10102
g16
VPP
p10103
sbag5
(g6
g7
(lp10104
g5
(g6
g7
(lp10105
Vthey
p10106
atp10107
Rp10108
(dp10109
g16
VPRP
p10110
sbatp10111
Rp10112
(dp10113
g16
VNP
p10114
sbag5
(g6
g7
(lp10115
g5
(g6
g7
(lp10116
Vuse
p10117
atp10118
Rp10119
(dp10120
g16
VVBP
p10121
sbag5
(g6
g7
(lp10122
g5
(g6
g7
(lp10123
g5
(g6
g7
(lp10124
Vphoneme
p10125
atp10126
Rp10127
(dp10128
g16
VJJ
p10129
sbag5
(g6
g7
(lp10130
Vand
p10131
atp10132
Rp10133
(dp10134
g16
VCC
p10135
sbag5
(g6
g7
(lp10136
Vsyllable
p10137
atp10138
Rp10139
(dp10140
g16
VNN
p10141
sbatp10142
Rp10143
(dp10144
g16
VADJP
p10145
sbag5
(g6
g7
(lp10146
Vfeatures
p10147
atp10148
Rp10149
(dp10150
g16
VNNS
p10151
sbatp10152
Rp10153
(dp10154
g16
VNP
p10155
sbag5
(g6
g7
(lp10156
g394
atp10157
Rp10158
(dp10159
g16
g394
sbag5
(g6
g7
(lp10160
g5
(g6
g7
(lp10161
Vwhile
p10162
atp10163
Rp10164
(dp10165
g16
VIN
p10166
sbag5
(g6
g7
(lp10167
g5
(g6
g7
(lp10168
g5
(g6
g7
(lp10169
Vwe
p10170
atp10171
Rp10172
(dp10173
g16
VPRP
p10174
sbatp10175
Rp10176
(dp10177
g16
VNP
p10178
sbag5
(g6
g7
(lp10179
g5
(g6
g7
(lp10180
Vrely
p10181
atp10182
Rp10183
(dp10184
g16
VVBP
p10185
sbag5
(g6
g7
(lp10186
g5
(g6
g7
(lp10187
Von
p10188
atp10189
Rp10190
(dp10191
g16
VIN
p10192
sbag5
(g6
g7
(lp10193
g5
(g6
g7
(lp10194
Vthe
p10195
atp10196
Rp10197
(dp10198
g16
VDT
p10199
sbag5
(g6
g7
(lp10200
VSRN
p10201
atp10202
Rp10203
(dp10204
g16
VNNP
p10205
sbag5
(g6
g7
(lp10206
Vembeddings
p10207
atp10208
Rp10209
(dp10210
g16
VNNS
p10211
sbatp10212
Rp10213
(dp10214
g16
VNP
p10215
sbatp10216
Rp10217
(dp10218
g16
VPP
p10219
sbag5
(g6
g7
(lp10220
g5
(g6
g7
(lp10221
g5
(g6
g7
(lp10222
Vto
p10223
atp10224
Rp10225
(dp10226
g16
VTO
p10227
sbag5
(g6
g7
(lp10228
g5
(g6
g7
(lp10229
Vprovide
p10230
atp10231
Rp10232
(dp10233
g16
VVB
p10234
sbag5
(g6
g7
(lp10235
g5
(g6
g7
(lp10236
g5
(g6
g7
(lp10237
Vgeneralized
p10238
atp10239
Rp10240
(dp10241
g16
VJJ
p10242
sbag5
(g6
g7
(lp10243
Vrepresentations
p10244
atp10245
Rp10246
(dp10247
g16
VNNS
p10248
sbatp10249
Rp10250
(dp10251
g16
VNP
p10252
sbag5
(g6
g7
(lp10253
g5
(g6
g7
(lp10254
Vof
p10255
atp10256
Rp10257
(dp10258
g16
VIN
p10259
sbag5
(g6
g7
(lp10260
g5
(g6
g7
(lp10261
Vinput
p10262
atp10263
Rp10264
(dp10265
g16
VNN
p10266
sbag5
(g6
g7
(lp10267
Vstrings
p10268
atp10269
Rp10270
(dp10271
g16
VNNS
p10272
sbatp10273
Rp10274
(dp10275
g16
VNP
p10276
sbatp10277
Rp10278
(dp10279
g16
VPP
p10280
sbatp10281
Rp10282
(dp10283
g16
VNP
p10284
sbatp10285
Rp10286
(dp10287
g16
VVP
p10288
sbatp10289
Rp10290
(dp10291
g16
VVP
p10292
sbatp10293
Rp10294
(dp10295
g16
g248
sbatp10296
Rp10297
(dp10298
g16
VVP
p10299
sbatp10300
Rp10301
(dp10302
g16
g248
sbatp10303
Rp10304
(dp10305
g16
VSBAR
p10306
sbatp10307
Rp10308
(dp10309
g16
VVP
p10310
sbatp10311
Rp10312
(dp10313
g16
g248
sbatp10314
Rp10315
(dp10316
g16
VROOT
p10317
sbasg279
(icmyPackage
CorE
p10318
(dp10319
g282
(lp10320
(I0
I4
tp10321
a(I1
I25
tp10322
asg286
g5
(g6
g7
(lp10323
g9931
ag10027
ag10101
ag10112
ag10119
ag10153
ag10158
ag10164
ag10176
ag10183
ag10217
ag10225
ag10232
ag10250
ag10257
ag10264
atp10324
Rp10325
(dp10326
g16
g297
sbsbsg287
(icmyPackage
CorE
p10327
(dp10328
g282
(lp10329
(I0
I0
tp10330
a(I0
I2
tp10331
asg286
g5
(g6
g7
(lp10332
g9882
ag9889
ag9901
atp10333
Rp10334
(dp10335
g16
g297
sbsbsg298
g1351
sg323
(lp10336
(isxpPackage
sxpSent
p10337
(dp10338
g327
(lp10339
I28
asg329
VThey use this as the error model in a noisy-channel setup combined with a unigram language model
p10340
sg331
I13
sg313
I133
sg332
I35
sba(isxpPackage
sxpSent
p10341
(dp10342
g327
(lp10343
I28
asg329
VIn addition to character n-gram features they use phoneme and syllable features, while we rely on the SRN embeddings to provide generalized representations of input strings
p10344
sg331
I13
sg313
I134
sg332
I35
sbasba(icmyPackage
CELink
p10345
(dp10346
g3
(lp10347
g5
(g6
g7
(lp10348
g5
(g6
g7
(lp10349
g5
(g6
g7
(lp10350
g5
(g6
g7
(lp10351
VIn
p10352
atp10353
Rp10354
(dp10355
g16
VIN
p10356
sbag5
(g6
g7
(lp10357
g5
(g6
g7
(lp10358
g5
(g6
g7
(lp10359
Vcomparison
p10360
atp10361
Rp10362
(dp10363
g16
VNN
p10364
sbatp10365
Rp10366
(dp10367
g16
VNP
p10368
sbag5
(g6
g7
(lp10369
g5
(g6
g7
(lp10370
Vto
p10371
atp10372
Rp10373
(dp10374
g16
VTO
p10375
sbag5
(g6
g7
(lp10376
g5
(g6
g7
(lp10377
Vour
p10378
atp10379
Rp10380
(dp10381
g16
VPRP$
p10382
sbag5
(g6
g7
(lp10383
Vfirst-order
p10384
atp10385
Rp10386
(dp10387
g16
VJJ
p10388
sbag5
(g6
g7
(lp10389
Vlinear-chain
p10390
atp10391
Rp10392
(dp10393
g16
VJJ
p10394
sbag5
(g6
g7
(lp10395
VCRF
p10396
atp10397
Rp10398
(dp10399
g16
VNN
p10400
sbatp10401
Rp10402
(dp10403
g16
VNP
p10404
sbatp10405
Rp10406
(dp10407
g16
VPP
p10408
sbatp10409
Rp10410
(dp10411
g16
VNP
p10412
sbatp10413
Rp10414
(dp10415
g16
VPP
p10416
sbag5
(g6
g7
(lp10417
g394
atp10418
Rp10419
(dp10420
g16
g394
sbag5
(g6
g7
(lp10421
g5
(g6
g7
(lp10422
g5
(g6
g7
(lp10423
Van
p10424
atp10425
Rp10426
(dp10427
g16
VDT
p10428
sbag5
(g6
g7
(lp10429
VMT
p10430
atp10431
Rp10432
(dp10433
g16
VNNP
p10434
sbag5
(g6
g7
(lp10435
Vmodel
p10436
atp10437
Rp10438
(dp10439
g16
VNN
p10440
sbatp10441
Rp10442
(dp10443
g16
VNP
p10444
sbag5
(g6
g7
(lp10445
g5
(g6
g7
(lp10446
g5
(g6
g7
(lp10447
Vwith
p10448
atp10449
Rp10450
(dp10451
g16
VIN
p10452
sbag5
(g6
g7
(lp10453
g5
(g6
g7
(lp10454
g5
(g6
g7
(lp10455
Vreordering
p10456
atp10457
Rp10458
(dp10459
g16
VNN
p10460
sbatp10461
Rp10462
(dp10463
g16
VNP
p10464
sbag5
(g6
g7
(lp10465
g5
(g6
g7
(lp10466
Vis
p10467
atp10468
Rp10469
(dp10470
g16
VVBZ
p10471
sbag5
(g6
g7
(lp10472
g5
(g6
g7
(lp10473
Vmore
p10474
atp10475
Rp10476
(dp10477
g16
VRBR
p10478
sbag5
(g6
g7
(lp10479
Vflexible
p10480
atp10481
Rp10482
(dp10483
g16
VJJ
p10484
sbatp10485
Rp10486
(dp10487
g16
VADJP
p10488
sbatp10489
Rp10490
(dp10491
g16
VVP
p10492
sbatp10493
Rp10494
(dp10495
g16
g248
sbatp10496
Rp10497
(dp10498
g16
VSBAR
p10499
sbag5
(g6
g7
(lp10500
Vbut
p10501
atp10502
Rp10503
(dp10504
g16
VCC
p10505
sbag5
(g6
g7
(lp10506
g5
(g6
g7
(lp10507
Vfor
p10508
atp10509
Rp10510
(dp10511
g16
VIN
p10512
sbag5
(g6
g7
(lp10513
g5
(g6
g7
(lp10514
g5
(g6
g7
(lp10515
Vthis
p10516
atp10517
Rp10518
(dp10519
g16
VDT
p10520
sbag5
(g6
g7
(lp10521
Vreason
p10522
atp10523
Rp10524
(dp10525
g16
VNN
p10526
sbatp10527
Rp10528
(dp10529
g16
VNP
p10530
sbag5
(g6
g7
(lp10531
g5
(g6
g7
(lp10532
Vneeds
p10533
atp10534
Rp10535
(dp10536
g16
VVBZ
p10537
sbag5
(g6
g7
(lp10538
g5
(g6
g7
(lp10539
Vmore
p10540
atp10541
Rp10542
(dp10543
g16
VJJR
p10544
sbag5
(g6
g7
(lp10545
Vtraining
p10546
atp10547
Rp10548
(dp10549
g16
VNN
p10550
sbag5
(g6
g7
(lp10551
Vdata
p10552
atp10553
Rp10554
(dp10555
g16
VNNS
p10556
sbatp10557
Rp10558
(dp10559
g16
VNP
p10560
sbatp10561
Rp10562
(dp10563
g16
VVP
p10564
sbatp10565
Rp10566
(dp10567
g16
g248
sbatp10568
Rp10569
(dp10570
g16
VSBAR
p10571
sbatp10572
Rp10573
(dp10574
g16
VSBAR
p10575
sbatp10576
Rp10577
(dp10578
g16
VNP
p10579
sbatp10580
Rp10581
(dp10582
g16
VFRAG
p10583
sbatp10584
Rp10585
(dp10586
g16
VROOT
p10587
sbasg279
(icmyPackage
CorE
p10588
(dp10589
g282
(lp10590
(I0
I11
tp10591
a(I0
I15
tp10592
asg286
g10497
sbsg287
(icmyPackage
CorE
p10593
(dp10594
g282
(lp10595
(I0
I20
tp10596
a(I0
I23
tp10597
asg286
g10562
sbsg298
(icmyPackage
pattern
p10598
(dp10599
g301
I7
sg302
I1
sg303
(lp10600
(lp10601
S'for'
p10602
aa(lp10603
(lp10604
S'reason'
p10605
aS'reasons'
p10606
aaasg308
(lp10607
I1
aI1
aI2
asg310
(lp10608
S"Its sweet notes have restored many to health, and for this reason it is often called 'the sick one's comforter'."
p10609
asg313
I17
sg314
(lp10610
(lp10611
S'&C'
p10612
aS'(,/;/./--)'
p10613
aS'(&AND)'
p10614
aa(lp10615
S'(&this)'
p10616
aa(lp10617
S'(,/that)'
p10618
aS'&R'
p10619
aasbsg323
(lp10620
(isxpPackage
sxpSent
p10621
(dp10622
g327
(lp10623
I29
asg329
VIn comparison to our first-order linear-chain CRF, an MT model with reordering is more flexible but for this reason needs more training data
p10624
sg331
I13
sg313
I136
sg332
I36
sbasba(icmyPackage
CELink
p10625
(dp10626
g3
(lp10627
g5
(g6
g7
(lp10628
g5
(g6
g7
(lp10629
g5
(g6
g7
(lp10630
g5
(g6
g7
(lp10631
VIt
p10632
atp10633
Rp10634
(dp10635
g16
VPRP
p10636
sbatp10637
Rp10638
(dp10639
g16
VNP
p10640
sbag5
(g6
g7
(lp10641
g5
(g6
g7
(lp10642
g5
(g6
g7
(lp10643
Valso
p10644
atp10645
Rp10646
(dp10647
g16
VRB
p10648
sbatp10649
Rp10650
(dp10651
g16
VADVP
p10652
sbag5
(g6
g7
(lp10653
Vsuffers
p10654
atp10655
Rp10656
(dp10657
g16
VVBZ
p10658
sbag5
(g6
g7
(lp10659
g5
(g6
g7
(lp10660
Vfrom
p10661
atp10662
Rp10663
(dp10664
g16
VIN
p10665
sbag5
(g6
g7
(lp10666
g5
(g6
g7
(lp10667
g5
(g6
g7
(lp10668
Vlanguage
p10669
atp10670
Rp10671
(dp10672
g16
VNN
p10673
sbag5
(g6
g7
(lp10674
Vmodel
p10675
atp10676
Rp10677
(dp10678
g16
VNN
p10679
sbag5
(g6
g7
(lp10680
Vmismatch
p10681
atp10682
Rp10683
(dp10684
g16
VNN
p10685
sbatp10686
Rp10687
(dp10688
g16
VNP
p10689
sbag5
(g6
g7
(lp10690
g5
(g6
g7
(lp10691
Vmentioned
p10692
atp10693
Rp10694
(dp10695
g16
VVBN
p10696
sbag5
(g6
g7
(lp10697
g5
(g6
g7
(lp10698
Vin
p10699
atp10700
Rp10701
(dp10702
g16
VIN
p10703
sbag5
(g6
g7
(lp10704
g5
(g6
g7
(lp10705
g5
(g6
g7
(lp10706
VSection
p10707
atp10708
Rp10709
(dp10710
g16
VNN
p10711
sbatp10712
Rp10713
(dp10714
g16
VNP
p10715
sbag5
(g6
g7
(lp10716
g5
(g6
g7
(lp10717
g5
(g6
g7
(lp10718
g5
(g6
g7
(lp10719
V2
p10720
atp10721
Rp10722
(dp10723
g16
VCD
p10724
sbag5
(g6
g7
(lp10725
Voptimal
p10726
atp10727
Rp10728
(dp10729
g16
VJJ
p10730
sbag5
(g6
g7
(lp10731
Vresults
p10732
atp10733
Rp10734
(dp10735
g16
VNNS
p10736
sbatp10737
Rp10738
(dp10739
g16
VNP
p10740
sbag5
(g6
g7
(lp10741
g5
(g6
g7
(lp10742
Vwere
p10743
atp10744
Rp10745
(dp10746
g16
VVBD
p10747
sbag5
(g6
g7
(lp10748
g5
(g6
g7
(lp10749
Vobtained
p10750
atp10751
Rp10752
(dp10753
g16
VVBN
p10754
sbag5
(g6
g7
(lp10755
g5
(g6
g7
(lp10756
Vby
p10757
atp10758
Rp10759
(dp10760
g16
VIN
p10761
sbag5
(g6
g7
(lp10762
g5
(g6
g7
(lp10763
g5
(g6
g7
(lp10764
Vusing
p10765
atp10766
Rp10767
(dp10768
g16
VVBG
p10769
sbag5
(g6
g7
(lp10770
g5
(g6
g7
(lp10771
g5
(g6
g7
(lp10772
g31
atp10773
Rp10774
(dp10775
g16
VDT
p10776
sbag5
(g6
g7
(lp10777
Vlow
p10778
atp10779
Rp10780
(dp10781
g16
VJJ
p10782
sbag5
(g6
g7
(lp10783
Vweight
p10784
atp10785
Rp10786
(dp10787
g16
VNN
p10788
sbatp10789
Rp10790
(dp10791
g16
VNP
p10792
sbag5
(g6
g7
(lp10793
g5
(g6
g7
(lp10794
Vfor
p10795
atp10796
Rp10797
(dp10798
g16
VIN
p10799
sbag5
(g6
g7
(lp10800
g5
(g6
g7
(lp10801
g5
(g6
g7
(lp10802
Vthe
p10803
atp10804
Rp10805
(dp10806
g16
VDT
p10807
sbag5
(g6
g7
(lp10808
Vlanguage
p10809
atp10810
Rp10811
(dp10812
g16
VNN
p10813
sbag5
(g6
g7
(lp10814
Vmodel
p10815
atp10816
Rp10817
(dp10818
g16
VNN
p10819
sbatp10820
Rp10821
(dp10822
g16
VNP
p10823
sbag5
(g6
g7
(lp10824
g5
(g6
g7
(lp10825
Vtrained
p10826
atp10827
Rp10828
(dp10829
g16
VVBN
p10830
sbag5
(g6
g7
(lp10831
g5
(g6
g7
(lp10832
Von
p10833
atp10834
Rp10835
(dp10836
g16
VIN
p10837
sbag5
(g6
g7
(lp10838
g5
(g6
g7
(lp10839
g31
atp10840
Rp10841
(dp10842
g16
VDT
p10843
sbag5
(g6
g7
(lp10844
Vbalanced
p10845
atp10846
Rp10847
(dp10848
g16
VJJ
p10849
sbag5
(g6
g7
(lp10850
Vtext
p10851
atp10852
Rp10853
(dp10854
g16
VNN
p10855
sbag5
(g6
g7
(lp10856
Vcorpus
p10857
atp10858
Rp10859
(dp10860
g16
VNN
p10861
sbatp10862
Rp10863
(dp10864
g16
VNP
p10865
sbatp10866
Rp10867
(dp10868
g16
VPP
p10869
sbatp10870
Rp10871
(dp10872
g16
VVP
p10873
sbatp10874
Rp10875
(dp10876
g16
VNP
p10877
sbatp10878
Rp10879
(dp10880
g16
VPP
p10881
sbatp10882
Rp10883
(dp10884
g16
VNP
p10885
sbatp10886
Rp10887
(dp10888
g16
VVP
p10889
sbatp10890
Rp10891
(dp10892
g16
g248
sbatp10893
Rp10894
(dp10895
g16
VPP
p10896
sbatp10897
Rp10898
(dp10899
g16
VVP
p10900
sbatp10901
Rp10902
(dp10903
g16
VVP
p10904
sbatp10905
Rp10906
(dp10907
g16
g248
sbatp10908
Rp10909
(dp10910
g16
VSBAR
p10911
sbatp10912
Rp10913
(dp10914
g16
VNP
p10915
sbatp10916
Rp10917
(dp10918
g16
VPP
p10919
sbatp10920
Rp10921
(dp10922
g16
VVP
p10923
sbatp10924
Rp10925
(dp10926
g16
VNP
p10927
sbatp10928
Rp10929
(dp10930
g16
VPP
p10931
sbatp10932
Rp10933
(dp10934
g16
VVP
p10935
sbatp10936
Rp10937
(dp10938
g16
g248
sbatp10939
Rp10940
(dp10941
g16
VROOT
p10942
sbasg279
(icmyPackage
CorE
p10943
(dp10944
g282
(lp10945
(I0
I16
tp10946
a(I0
I29
tp10947
asg286
g10891
sbsg287
(icmyPackage
CorE
p10948
(dp10949
g282
(lp10950
(I0
I0
tp10951
a(I0
I14
tp10952
asg286
g5
(g6
g7
(lp10953
g10638
ag10650
ag10656
ag10663
ag10687
ag10694
ag10701
ag10713
ag10738
ag10745
ag10752
atp10954
Rp10955
(dp10956
g16
g297
sbsbsg298
g2456
sg323
(lp10957
(isxpPackage
sxpSent
p10958
(dp10959
g327
(lp10960
I30
asg329
VIt also suffers from language model mismatch mentioned in Section 2 optimal results were obtained by using a low weight for the language model trained on a balanced text corpus
p10961
sg331
I13
sg313
I137
sg332
I36
sbasba(icmyPackage
CELink
p10962
(dp10963
g3
(lp10964
g5
(g6
g7
(lp10965
g5
(g6
g7
(lp10966
g5
(g6
g7
(lp10967
g5
(g6
g7
(lp10968
g5
(g6
g7
(lp10969
VOur
p10970
atp10971
Rp10972
(dp10973
g16
VPRP$
p10974
sbag5
(g6
g7
(lp10975
Vapproach
p10976
atp10977
Rp10978
(dp10979
g16
VNN
p10980
sbatp10981
Rp10982
(dp10983
g16
VNP
p10984
sbag5
(g6
g7
(lp10985
g5
(g6
g7
(lp10986
Vworks
p10987
atp10988
Rp10989
(dp10990
g16
VVBZ
p10991
sbag5
(g6
g7
(lp10992
g5
(g6
g7
(lp10993
Vwell
p10994
atp10995
Rp10996
(dp10997
g16
VRB
p10998
sbatp10999
Rp11000
(dp11001
g16
VADVP
p11002
sbag5
(g6
g7
(lp11003
g5
(g6
g7
(lp11004
Vwith
p11005
atp11006
Rp11007
(dp11008
g16
VIN
p11009
sbag5
(g6
g7
(lp11010
g5
(g6
g7
(lp11011
Vsimilar-sized
p11012
atp11013
Rp11014
(dp11015
g16
VJJ
p11016
sbag5
(g6
g7
(lp11017
Vtraining
p11018
atp11019
Rp11020
(dp11021
g16
VNN
p11022
sbag5
(g6
g7
(lp11023
Vdata
p11024
atp11025
Rp11026
(dp11027
g16
VNNS
p11028
sbatp11029
Rp11030
(dp11031
g16
VNP
p11032
sbatp11033
Rp11034
(dp11035
g16
VPP
p11036
sbatp11037
Rp11038
(dp11039
g16
VVP
p11040
sbatp11041
Rp11042
(dp11043
g16
g248
sbag5
(g6
g7
(lp11044
g394
atp11045
Rp11046
(dp11047
g16
g394
sbag5
(g6
g7
(lp11048
Vand
p11049
atp11050
Rp11051
(dp11052
g16
VCC
p11053
sbag5
(g6
g7
(lp11054
g5
(g6
g7
(lp11055
g5
(g6
g7
(lp11056
g5
(g6
g7
(lp11057
Vunlike
p11058
atp11059
Rp11060
(dp11061
g16
VIN
p11062
sbag5
(g6
g7
(lp11063
Vunsupervised
p11064
atp11065
Rp11066
(dp11067
g16
VJJ
p11068
sbatp11069
Rp11070
(dp11071
g16
VADJP
p11072
sbag5
(g6
g7
(lp11073
Vapproaches
p11074
atp11075
Rp11076
(dp11077
g16
VNNS
p11078
sbatp11079
Rp11080
(dp11081
g16
VNP
p11082
sbag5
(g6
g7
(lp11083
g5
(g6
g7
(lp11084
Vcan
p11085
atp11086
Rp11087
(dp11088
g16
VMD
p11089
sbag5
(g6
g7
(lp11090
g5
(g6
g7
(lp11091
Veasily
p11092
atp11093
Rp11094
(dp11095
g16
VRB
p11096
sbatp11097
Rp11098
(dp11099
g16
VADVP
p11100
sbag5
(g6
g7
(lp11101
g5
(g6
g7
(lp11102
Vbenefit
p11103
atp11104
Rp11105
(dp11106
g16
VVB
p11107
sbag5
(g6
g7
(lp11108
g5
(g6
g7
(lp11109
Vfrom
p11110
atp11111
Rp11112
(dp11113
g16
VIN
p11114
sbag5
(g6
g7
(lp11115
g5
(g6
g7
(lp11116
g5
(g6
g7
(lp11117
Vmore
p11118
atp11119
Rp11120
(dp11121
g16
VJJR
p11122
sbatp11123
Rp11124
(dp11125
g16
VNP
p11126
sbag5
(g6
g7
(lp11127
g5
(g6
g7
(lp11128
Vif
p11129
atp11130
Rp11131
(dp11132
g16
VIN
p11133
sbag5
(g6
g7
(lp11134
g5
(g6
g7
(lp11135
g5
(g6
g7
(lp11136
Vit
p11137
atp11138
Rp11139
(dp11140
g16
VPRP
p11141
sbatp11142
Rp11143
(dp11144
g16
VNP
p11145
sbag5
(g6
g7
(lp11146
g5
(g6
g7
(lp11147
Vbecomes
p11148
atp11149
Rp11150
(dp11151
g16
VVBZ
p11152
sbag5
(g6
g7
(lp11153
g5
(g6
g7
(lp11154
Vavailable
p11155
atp11156
Rp11157
(dp11158
g16
VJJ
p11159
sbatp11160
Rp11161
(dp11162
g16
VADJP
p11163
sbatp11164
Rp11165
(dp11166
g16
VVP
p11167
sbatp11168
Rp11169
(dp11170
g16
g248
sbatp11171
Rp11172
(dp11173
g16
VSBAR
p11174
sbatp11175
Rp11176
(dp11177
g16
VNP
p11178
sbatp11179
Rp11180
(dp11181
g16
VPP
p11182
sbatp11183
Rp11184
(dp11185
g16
VVP
p11186
sbatp11187
Rp11188
(dp11189
g16
VVP
p11190
sbatp11191
Rp11192
(dp11193
g16
g248
sbatp11194
Rp11195
(dp11196
g16
g248
sbatp11197
Rp11198
(dp11199
g16
VROOT
p11200
sbasg279
(icmyPackage
CorE
p11201
(dp11202
g282
(lp11203
(I0
I19
tp11204
a(I0
I21
tp11205
asg286
g11169
sbsg287
(icmyPackage
CorE
p11206
(dp11207
g282
(lp11208
(I0
I2
tp11209
a(I0
I17
tp11210
asg286
g5
(g6
g7
(lp11211
g11038
ag11046
ag11051
ag11080
ag11087
ag11098
ag11105
ag11112
ag11124
atp11212
Rp11213
(dp11214
g16
g297
sbsbsg298
g8874
sg323
(lp11215
(isxpPackage
sxpSent
p11216
(dp11217
g327
(lp11218
I31
asg329
VOur approach works well with similar-sized training data, and unlike unsupervised approaches can easily benefit from more if it becomes available
p11219
sg331
I13
sg313
I140
sg332
I37
sbasba(icmyPackage
CELink
p11220
(dp11221
g3
(lp11222
g5
(g6
g7
(lp11223
g5
(g6
g7
(lp11224
g5
(g6
g7
(lp11225
g5
(g6
g7
(lp11226
g5
(g6
g7
(lp11227
V9
p11228
atp11229
Rp11230
(dp11231
g16
VCD
p11232
sbag5
(g6
g7
(lp11233
V-RRB-
p11234
atp11235
Rp11236
(dp11237
g16
VNNS
p11238
sbatp11239
Rp11240
(dp11241
g16
VNP
p11242
sbag5
(g6
g7
(lp11243
g5
(g6
g7
(lp11244
Vuse
p11245
atp11246
Rp11247
(dp11248
g16
VVBP
p11249
sbag5
(g6
g7
(lp11250
g5
(g6
g7
(lp11251
g5
(g6
g7
(lp11252
Vcharacter-level
p11253
atp11254
Rp11255
(dp11256
g16
VJJ
p11257
sbag5
(g6
g7
(lp11258
VSRN
p11259
atp11260
Rp11261
(dp11262
g16
VNNP
p11263
sbag5
(g6
g7
(lp11264
Vtext
p11265
atp11266
Rp11267
(dp11268
g16
VNN
p11269
sbag5
(g6
g7
(lp11270
Vembeddings
p11271
atp11272
Rp11273
(dp11274
g16
VNNS
p11275
sbatp11276
Rp11277
(dp11278
g16
VNP
p11279
sbag5
(g6
g7
(lp11280
g5
(g6
g7
(lp11281
Vfor
p11282
atp11283
Rp11284
(dp11285
g16
VIN
p11286
sbag5
(g6
g7
(lp11287
g5
(g6
g7
(lp11288
g5
(g6
g7
(lp11289
Vlearning
p11290
atp11291
Rp11292
(dp11293
g16
VVBG
p11294
sbag5
(g6
g7
(lp11295
g5
(g6
g7
(lp11296
Vsegmentation
p11297
atp11298
Rp11299
(dp11300
g16
VNN
p11301
sbatp11302
Rp11303
(dp11304
g16
VNP
p11305
sbatp11306
Rp11307
(dp11308
g16
VVP
p11309
sbatp11310
Rp11311
(dp11312
g16
g248
sbatp11313
Rp11314
(dp11315
g16
VPP
p11316
sbatp11317
Rp11318
(dp11319
g16
VNP
p11320
sbatp11321
Rp11322
(dp11323
g16
VVP
p11324
sbatp11325
Rp11326
(dp11327
g16
g248
sbag5
(g6
g7
(lp11328
g394
atp11329
Rp11330
(dp11331
g16
g394
sbag5
(g6
g7
(lp11332
Vand
p11333
atp11334
Rp11335
(dp11336
g16
VCC
p11337
sbag5
(g6
g7
(lp11338
g5
(g6
g7
(lp11339
g5
(g6
g7
(lp11340
Vrecurrent
p11341
atp11342
Rp11343
(dp11344
g16
VNN
p11345
sbatp11346
Rp11347
(dp11348
g16
VNP
p11349
sbag5
(g6
g7
(lp11350
g5
(g6
g7
(lp11351
Vnets
p11352
atp11353
Rp11354
(dp11355
g16
VVBZ
p11356
sbag5
(g6
g7
(lp11357
g5
(g6
g7
(lp11358
g5
(g6
g7
(lp11359
g5
(g6
g7
(lp11360
Vthemselves
p11361
atp11362
Rp11363
(dp11364
g16
VPRP
p11365
sbatp11366
Rp11367
(dp11368
g16
VNP
p11369
sbag5
(g6
g7
(lp11370
g5
(g6
g7
(lp11371
Vhave
p11372
atp11373
Rp11374
(dp11375
g16
VVBP
p11376
sbag5
(g6
g7
(lp11377
g5
(g6
g7
(lp11378
Vbeen
p11379
atp11380
Rp11381
(dp11382
g16
VVBN
p11383
sbag5
(g6
g7
(lp11384
g5
(g6
g7
(lp11385
Vused
p11386
atp11387
Rp11388
(dp11389
g16
VVBN
p11390
sbag5
(g6
g7
(lp11391
g5
(g6
g7
(lp11392
Vfor
p11393
atp11394
Rp11395
(dp11396
g16
VIN
p11397
sbag5
(g6
g7
(lp11398
g5
(g6
g7
(lp11399
g5
(g6
g7
(lp11400
Vsequence
p11401
atp11402
Rp11403
(dp11404
g16
VNN
p11405
sbag5
(g6
g7
(lp11406
Vtransduction
p11407
atp11408
Rp11409
(dp11410
g16
VNN
p11411
sbatp11412
Rp11413
(dp11414
g16
VNP
p11415
sbag5
(g6
g7
(lp11416
g5
(g6
g7
(lp11417
V-LRB-
p11418
atp11419
Rp11420
(dp11421
g16
V-LRB-
p11422
sbag5
(g6
g7
(lp11423
g5
(g6
g7
(lp11424
V11
p11425
atp11426
Rp11427
(dp11428
g16
VCD
p11429
sbatp11430
Rp11431
(dp11432
g16
VNP
p11433
sbag5
(g6
g7
(lp11434
V-RRB-
p11435
atp11436
Rp11437
(dp11438
g16
V-RRB-
p11439
sbatp11440
Rp11441
(dp11442
g16
VPRN
p11443
sbatp11444
Rp11445
(dp11446
g16
VNP
p11447
sbatp11448
Rp11449
(dp11450
g16
VPP
p11451
sbag5
(g6
g7
(lp11452
g394
atp11453
Rp11454
(dp11455
g16
g394
sbag5
(g6
g7
(lp11456
g5
(g6
g7
(lp11457
Vto
p11458
atp11459
Rp11460
(dp11461
g16
VTO
p11462
sbag5
(g6
g7
(lp11463
g5
(g6
g7
(lp11464
g5
(g6
g7
(lp11465
Vour
p11466
atp11467
Rp11468
(dp11469
g16
VPRP$
p11470
sbag5
(g6
g7
(lp11471
Vknowledge
p11472
atp11473
Rp11474
(dp11475
g16
VNN
p11476
sbatp11477
Rp11478
(dp11479
g16
VNP
p11480
sbag5
(g6
g7
(lp11481
g5
(g6
g7
(lp11482
g5
(g6
g7
(lp11483
g5
(g6
g7
(lp11484
Vneural
p11485
atp11486
Rp11487
(dp11488
g16
VJJ
p11489
sbag5
(g6
g7
(lp11490
Vtext
p11491
atp11492
Rp11493
(dp11494
g16
VNN
p11495
sbag5
(g6
g7
(lp11496
Vembeddings
p11497
atp11498
Rp11499
(dp11500
g16
VNNS
p11501
sbatp11502
Rp11503
(dp11504
g16
VNP
p11505
sbag5
(g6
g7
(lp11506
g5
(g6
g7
(lp11507
Vhave
p11508
atp11509
Rp11510
(dp11511
g16
VVBP
p11512
sbag5
(g6
g7
(lp11513
Vnot
p11514
atp11515
Rp11516
(dp11517
g16
VRB
p11518
sbag5
(g6
g7
(lp11519
g5
(g6
g7
(lp11520
Vbeen
p11521
atp11522
Rp11523
(dp11524
g16
VVBN
p11525
sbag5
(g6
g7
(lp11526
g5
(g6
g7
(lp11527
g5
(g6
g7
(lp11528
Vpreviously
p11529
atp11530
Rp11531
(dp11532
g16
VRB
p11533
sbatp11534
Rp11535
(dp11536
g16
VADVP
p11537
sbag5
(g6
g7
(lp11538
Vapplied
p11539
atp11540
Rp11541
(dp11542
g16
VVBN
p11543
sbag5
(g6
g7
(lp11544
g5
(g6
g7
(lp11545
Vto
p11546
atp11547
Rp11548
(dp11549
g16
VTO
p11550
sbag5
(g6
g7
(lp11551
g5
(g6
g7
(lp11552
Vstring
p11553
atp11554
Rp11555
(dp11556
g16
VNN
p11557
sbag5
(g6
g7
(lp11558
Vtransduction
p11559
atp11560
Rp11561
(dp11562
g16
VNN
p11563
sbatp11564
Rp11565
(dp11566
g16
VNP
p11567
sbatp11568
Rp11569
(dp11570
g16
VPP
p11571
sbatp11572
Rp11573
(dp11574
g16
VVP
p11575
sbatp11576
Rp11577
(dp11578
g16
VVP
p11579
sbatp11580
Rp11581
(dp11582
g16
VVP
p11583
sbatp11584
Rp11585
(dp11586
g16
g248
sbatp11587
Rp11588
(dp11589
g16
VSBAR
p11590
sbatp11591
Rp11592
(dp11593
g16
VNP
p11594
sbatp11595
Rp11596
(dp11597
g16
VPP
p11598
sbatp11599
Rp11600
(dp11601
g16
VVP
p11602
sbatp11603
Rp11604
(dp11605
g16
VVP
p11606
sbatp11607
Rp11608
(dp11609
g16
VVP
p11610
sbatp11611
Rp11612
(dp11613
g16
g248
sbatp11614
Rp11615
(dp11616
g16
VSBAR
p11617
sbatp11618
Rp11619
(dp11620
g16
VVP
p11621
sbatp11622
Rp11623
(dp11624
g16
g248
sbatp11625
Rp11626
(dp11627
g16
g248
sbatp11628
Rp11629
(dp11630
g16
VROOT
p11631
sbasg279
(icmyPackage
CorE
p11632
(dp11633
g282
(lp11634
(I0
I8
tp11635
a(I0
I9
tp11636
asg286
g11311
sbsg287
(icmyPackage
CorE
p11637
(dp11638
g282
(lp11639
(I0
I0
tp11640
a(I0
I6
tp11641
asg286
g5
(g6
g7
(lp11642
g11240
ag11247
ag11277
atp11643
Rp11644
(dp11645
g16
g297
sbsbsg298
g5622
sg323
(lp11646
(isxpPackage
sxpSent
p11647
(dp11648
g327
(lp11649
I32
asg329
V9 ) use character-level SRN text embeddings for learning segmentation, and recurrent nets themselves have been used for sequence transduction ( 11 ) , to our knowledge neural text embeddings have not been previously applied to string transduction
p11650
sg331
I13
sg313
I145
sg332
I37
sbasba(icmyPackage
CELink
p11651
(dp11652
g3
(lp11653
g5
(g6
g7
(lp11654
g5
(g6
g7
(lp11655
g5
(g6
g7
(lp11656
g5
(g6
g7
(lp11657
VWe
p11658
atp11659
Rp11660
(dp11661
g16
VPRP
p11662
sbatp11663
Rp11664
(dp11665
g16
VNP
p11666
sbag5
(g6
g7
(lp11667
g5
(g6
g7
(lp11668
Vwant
p11669
atp11670
Rp11671
(dp11672
g16
VVBP
p11673
sbag5
(g6
g7
(lp11674
g5
(g6
g7
(lp11675
g5
(g6
g7
(lp11676
Vto
p11677
atp11678
Rp11679
(dp11680
g16
VTO
p11681
sbag5
(g6
g7
(lp11682
g5
(g6
g7
(lp11683
Vpush
p11684
atp11685
Rp11686
(dp11687
g16
VVB
p11688
sbag5
(g6
g7
(lp11689
g5
(g6
g7
(lp11690
Vperformance
p11691
atp11692
Rp11693
(dp11694
g16
VNN
p11695
sbatp11696
Rp11697
(dp11698
g16
VNP
p11699
sbag5
(g6
g7
(lp11700
g5
(g6
g7
(lp11701
Vfurther
p11702
atp11703
Rp11704
(dp11705
g16
VRBR
p11706
sbatp11707
Rp11708
(dp11709
g16
VADVP
p11710
sbag5
(g6
g7
(lp11711
g5
(g6
g7
(lp11712
Vby
p11713
atp11714
Rp11715
(dp11716
g16
VIN
p11717
sbag5
(g6
g7
(lp11718
g5
(g6
g7
(lp11719
g5
(g6
g7
(lp11720
g5
(g6
g7
(lp11721
Vexpanding
p11722
atp11723
Rp11724
(dp11725
g16
VVBG
p11726
sbag5
(g6
g7
(lp11727
g5
(g6
g7
(lp11728
Vthe
p11729
atp11730
Rp11731
(dp11732
g16
VDT
p11733
sbag5
(g6
g7
(lp11734
Vtraining
p11735
atp11736
Rp11737
(dp11738
g16
VNN
p11739
sbag5
(g6
g7
(lp11740
Vdata
p11741
atp11742
Rp11743
(dp11744
g16
VNNS
p11745
sbatp11746
Rp11747
(dp11748
g16
VNP
p11749
sbatp11750
Rp11751
(dp11752
g16
VVP
p11753
sbag5
(g6
g7
(lp11754
Vand
p11755
atp11756
Rp11757
(dp11758
g16
VCC
p11759
sbag5
(g6
g7
(lp11760
g5
(g6
g7
(lp11761
Vincorporating
p11762
atp11763
Rp11764
(dp11765
g16
VVBG
p11766
sbag5
(g6
g7
(lp11767
g5
(g6
g7
(lp11768
Vexisting
p11769
atp11770
Rp11771
(dp11772
g16
VVBG
p11773
sbag5
(g6
g7
(lp11774
Vlexical
p11775
atp11776
Rp11777
(dp11778
g16
VJJ
p11779
sbag5
(g6
g7
(lp11780
Vresources
p11781
atp11782
Rp11783
(dp11784
g16
VNNS
p11785
sbatp11786
Rp11787
(dp11788
g16
VNP
p11789
sbatp11790
Rp11791
(dp11792
g16
VVP
p11793
sbatp11794
Rp11795
(dp11796
g16
VVP
p11797
sbatp11798
Rp11799
(dp11800
g16
g248
sbatp11801
Rp11802
(dp11803
g16
VPP
p11804
sbatp11805
Rp11806
(dp11807
g16
VVP
p11808
sbatp11809
Rp11810
(dp11811
g16
VVP
p11812
sbatp11813
Rp11814
(dp11815
g16
g248
sbatp11816
Rp11817
(dp11818
g16
VVP
p11819
sbatp11820
Rp11821
(dp11822
g16
g248
sbatp11823
Rp11824
(dp11825
g16
VROOT
p11826
sbasg279
(icmyPackage
CorE
p11827
(dp11828
g282
(lp11829
(I0
I7
tp11830
a(I0
I15
tp11831
asg286
g11799
sbsg287
(icmyPackage
CorE
p11832
(dp11833
g282
(lp11834
(I0
I0
tp11835
a(I0
I5
tp11836
asg286
g5
(g6
g7
(lp11837
g11664
ag11671
ag11679
ag11686
ag11697
ag11708
atp11838
Rp11839
(dp11840
g16
g297
sbsbsg298
g2456
sg323
(lp11841
(isxpPackage
sxpSent
p11842
(dp11843
g327
(lp11844
I33
asg329
VWe want to push performance further by expanding the training data and incorporating existing lexical resources
p11845
sg331
I14
sg313
I148
sg332
I38
sbasba.