(lp0
(icmyPackage
CELink
p1
(dp2
S'PTreelst'
p3
(lp4
ccopy_reg
_reconstructor
p5
(cnltk.tree
Tree
p6
c__builtin__
list
p7
(lp8
g5
(g6
g7
(lp9
g5
(g6
g7
(lp10
g5
(g6
g7
(lp11
VWord
p12
atp13
Rp14
(dp15
S'_label'
p16
VJJ
p17
sbag5
(g6
g7
(lp18
Vrepresentation
p19
atp20
Rp21
(dp22
g16
VNN
p23
sbatp24
Rp25
(dp26
g16
VNP
p27
sbag5
(g6
g7
(lp28
g5
(g6
g7
(lp29
Vis
p30
atp31
Rp32
(dp33
g16
VVBZ
p34
sbag5
(g6
g7
(lp35
g5
(g6
g7
(lp36
Vcentral
p37
atp38
Rp39
(dp40
g16
VJJ
p41
sbag5
(g6
g7
(lp42
g5
(g6
g7
(lp43
Vto
p44
atp45
Rp46
(dp47
g16
VTO
p48
sbag5
(g6
g7
(lp49
g5
(g6
g7
(lp50
Vnatural
p51
atp52
Rp53
(dp54
g16
VJJ
p55
sbag5
(g6
g7
(lp56
Vlanguage
p57
atp58
Rp59
(dp60
g16
VNN
p61
sbag5
(g6
g7
(lp62
Vprocessing
p63
atp64
Rp65
(dp66
g16
VNN
p67
sbatp68
Rp69
(dp70
g16
VNP
p71
sbatp72
Rp73
(dp74
g16
VPP
p75
sbatp76
Rp77
(dp78
g16
VADJP
p79
sbatp80
Rp81
(dp82
g16
VVP
p83
sbatp84
Rp85
(dp86
g16
VS
p87
sbatp88
Rp89
(dp90
g16
VROOT
p91
sbag5
(g6
g7
(lp92
g5
(g6
g7
(lp93
g5
(g6
g7
(lp94
g5
(g6
g7
(lp95
g5
(g6
g7
(lp96
VThe
p97
atp98
Rp99
(dp100
g16
VDT
p101
sbag5
(g6
g7
(lp102
Vdefault
p103
atp104
Rp105
(dp106
g16
VNN
p107
sbag5
(g6
g7
(lp108
Vapproach
p109
atp110
Rp111
(dp112
g16
VNN
p113
sbatp114
Rp115
(dp116
g16
VNP
p117
sbag5
(g6
g7
(lp118
g5
(g6
g7
(lp119
Vof
p120
atp121
Rp122
(dp123
g16
VIN
p124
sbag5
(g6
g7
(lp125
g5
(g6
g7
(lp126
g5
(g6
g7
(lp127
Vrepresenting
p128
atp129
Rp130
(dp131
g16
VVBG
p132
sbag5
(g6
g7
(lp133
g5
(g6
g7
(lp134
Vwords
p135
atp136
Rp137
(dp138
g16
VNNS
p139
sbatp140
Rp141
(dp142
g16
VNP
p143
sbag5
(g6
g7
(lp144
g5
(g6
g7
(lp145
Vas
p146
atp147
Rp148
(dp149
g16
VIN
p150
sbag5
(g6
g7
(lp151
g5
(g6
g7
(lp152
Vdiscrete
p153
atp154
Rp155
(dp156
g16
VJJ
p157
sbag5
(g6
g7
(lp158
Vand
p159
atp160
Rp161
(dp162
g16
VCC
p163
sbag5
(g6
g7
(lp164
Vdistinct
p165
atp166
Rp167
(dp168
g16
VJJ
p169
sbag5
(g6
g7
(lp170
Vsymbols
p171
atp172
Rp173
(dp174
g16
VNNS
p175
sbatp176
Rp177
(dp178
g16
VNP
p179
sbatp180
Rp181
(dp182
g16
VPP
p183
sbatp184
Rp185
(dp186
g16
VVP
p187
sbatp188
Rp189
(dp190
g16
g87
sbatp191
Rp192
(dp193
g16
VPP
p194
sbatp195
Rp196
(dp197
g16
VNP
p198
sbag5
(g6
g7
(lp199
g5
(g6
g7
(lp200
g5
(g6
g7
(lp201
Vis
p202
atp203
Rp204
(dp205
g16
VVBZ
p206
sbag5
(g6
g7
(lp207
g5
(g6
g7
(lp208
Vinsufficient
p209
atp210
Rp211
(dp212
g16
VJJ
p213
sbag5
(g6
g7
(lp214
g5
(g6
g7
(lp215
Vfor
p216
atp217
Rp218
(dp219
g16
VIN
p220
sbag5
(g6
g7
(lp221
g5
(g6
g7
(lp222
Vmany
p223
atp224
Rp225
(dp226
g16
VJJ
p227
sbag5
(g6
g7
(lp228
Vtasks
p229
atp230
Rp231
(dp232
g16
VNNS
p233
sbatp234
Rp235
(dp236
g16
VNP
p237
sbatp238
Rp239
(dp240
g16
VPP
p241
sbatp242
Rp243
(dp244
g16
VADJP
p245
sbatp246
Rp247
(dp248
g16
VVP
p249
sbag5
(g6
g7
(lp250
V,
p251
atp252
Rp253
(dp254
g16
g251
sbag5
(g6
g7
(lp255
Vand
p256
atp257
Rp258
(dp259
g16
VCC
p260
sbag5
(g6
g7
(lp261
g5
(g6
g7
(lp262
Vsuffers
p263
atp264
Rp265
(dp266
g16
VVBZ
p267
sbag5
(g6
g7
(lp268
g5
(g6
g7
(lp269
Vfrom
p270
atp271
Rp272
(dp273
g16
VIN
p274
sbag5
(g6
g7
(lp275
g5
(g6
g7
(lp276
Vpoor
p277
atp278
Rp279
(dp280
g16
VJJ
p281
sbag5
(g6
g7
(lp282
Vgeneralization
p283
atp284
Rp285
(dp286
g16
VNN
p287
sbatp288
Rp289
(dp290
g16
VNP
p291
sbatp292
Rp293
(dp294
g16
VPP
p295
sbatp296
Rp297
(dp298
g16
VVP
p299
sbatp300
Rp301
(dp302
g16
VVP
p303
sbatp304
Rp305
(dp306
g16
g87
sbatp307
Rp308
(dp309
g16
VROOT
p310
sbasS'cause'
p311
(icmyPackage
CorE
p312
(dp313
S'span'
p314
(lp315
(I1
I7
tp316
a(I1
I21
tp317
asS'PTree'
p318
g5
(g6
g7
(lp319
g177
ag301
atp320
Rp321
(dp322
g16
S'ROOT'
p323
sbsbsS'effect'
p324
(icmyPackage
CorE
p325
(dp326
g314
(lp327
(I0
I1
tp328
a(I1
I5
tp329
asg318
g5
(g6
g7
(lp330
g21
ag81
ag115
ag122
ag130
ag141
atp331
Rp332
(dp333
g16
g323
sbsbsS'pt'
p334
(icmyPackage
pattern
p335
(dp336
S'pfreq'
p337
I26
sS'moresent'
p338
I1
sS'main_token'
p339
(lp340
(lp341
S'as'
p342
aasS'ptype'
p343
(lp344
I3
aI1
aI1
asS'cases'
p345
(lp346
S'You do not need to worry about the operation, as the software is very easy to use.'
p347
asS'id'
p348
I80
sS'constraints'
p349
(lp350
(lp351
S'&R@Complete@'
p352
aS'(,)'
p353
aS'(-such/-same/-seem/-regard/-regards/-regarded/-view/-views/-viewed/-denote/-denoted/-denotes)'
p354
aa(lp355
S'(-if/-follow/-follows/-&adv)'
p356
aS'&C@Complete@'
p357
aasbsS'sInfo'
p358
(lp359
(isxpPackage
sxpSent
p360
(dp361
S'sysCEidlst'
p362
(lp363
I0
asS'sentence_text'
p364
VWord representation is central to natural language processing
p365
sS'id_sec'
p366
I2
sg348
I4
sS'id_para'
p367
I1
sba(isxpPackage
sxpSent
p368
(dp369
g362
(lp370
I0
asg364
VThe default approach of representing words as discrete and distinct symbols is insufficient for many tasks, and suffers from poor generalization
p371
sg366
I2
sg348
I5
sg367
I1
sbasba(icmyPackage
CELink
p372
(dp373
g3
(lp374
g5
(g6
g7
(lp375
g5
(g6
g7
(lp376
g5
(g6
g7
(lp377
g5
(g6
g7
(lp378
VFor
p379
atp380
Rp381
(dp382
g16
VIN
p383
sbag5
(g6
g7
(lp384
g5
(g6
g7
(lp385
Vexample
p386
atp387
Rp388
(dp389
g16
VNN
p390
sbatp391
Rp392
(dp393
g16
VNP
p394
sbatp395
Rp396
(dp397
g16
VPP
p398
sbag5
(g6
g7
(lp399
g251
atp400
Rp401
(dp402
g16
g251
sbag5
(g6
g7
(lp403
g5
(g6
g7
(lp404
g5
(g6
g7
(lp405
Vthe
p406
atp407
Rp408
(dp409
g16
VDT
p410
sbag5
(g6
g7
(lp411
Vsymbolic
p412
atp413
Rp414
(dp415
g16
VJJ
p416
sbag5
(g6
g7
(lp417
Vrepresentation
p418
atp419
Rp420
(dp421
g16
VNN
p422
sbatp423
Rp424
(dp425
g16
VNP
p426
sbag5
(g6
g7
(lp427
g5
(g6
g7
(lp428
Vof
p429
atp430
Rp431
(dp432
g16
VIN
p433
sbag5
(g6
g7
(lp434
g5
(g6
g7
(lp435
g5
(g6
g7
(lp436
Vthe
p437
atp438
Rp439
(dp440
g16
VDT
p441
sbag5
(g6
g7
(lp442
Vwords
p443
atp444
Rp445
(dp446
g16
VNNS
p447
sbag5
(g6
g7
(lp448
Vu
p449
atp450
Rp451
(dp452
g16
VNN
p453
sbatp454
Rp455
(dp456
g16
VNP
p457
sbag5
(g6
g7
(lp458
V'
p459
atp460
Rp461
(dp462
g16
V''
p463
sbag5
(g6
g7
(lp464
g5
(g6
g7
(lp465
g5
(g6
g7
(lp466
g5
(g6
g7
(lp467
g5
(g6
g7
(lp468
V\u005c
p469
atp470
Rp471
(dp472
g16
VCD
p473
sbag5
(g6
g7
(lp474
Vu201c
p475
atp476
Rp477
(dp478
g16
VJJ
p479
sbag5
(g6
g7
(lp480
g459
atp481
Rp482
(dp483
g16
V''
p484
sbag5
(g6
g7
(lp485
Vpizza
p486
atp487
Rp488
(dp489
g16
VNN
p490
sbag5
(g6
g7
(lp491
g449
atp492
Rp493
(dp494
g16
VNN
p495
sbag5
(g6
g7
(lp496
g459
atp497
Rp498
(dp499
g16
V''
p500
sbag5
(g6
g7
(lp501
V\u005c
p502
atp503
Rp504
(dp505
g16
VNN
p506
sbag5
(g6
g7
(lp507
Vu201d
p508
atp509
Rp510
(dp511
g16
VNNS
p512
sbatp513
Rp514
(dp515
g16
VNP
p516
sbag5
(g6
g7
(lp517
g459
atp518
Rp519
(dp520
g16
V''
p521
sbag5
(g6
g7
(lp522
Vand
p523
atp524
Rp525
(dp526
g16
VCC
p527
sbag5
(g6
g7
(lp528
g5
(g6
g7
(lp529
g449
atp530
Rp531
(dp532
g16
VNN
p533
sbatp534
Rp535
(dp536
g16
VNP
p537
sbag5
(g6
g7
(lp538
g459
atp539
Rp540
(dp541
g16
V''
p542
sbag5
(g6
g7
(lp543
g5
(g6
g7
(lp544
g5
(g6
g7
(lp545
g5
(g6
g7
(lp546
V\u005c
p547
atp548
Rp549
(dp550
g16
VNNP
p551
sbag5
(g6
g7
(lp552
Vu201c
p553
atp554
Rp555
(dp556
g16
VNNP
p557
sbag5
(g6
g7
(lp558
g459
atp559
Rp560
(dp561
g16
VPOS
p562
sbatp563
Rp564
(dp565
g16
VNP
p566
sbag5
(g6
g7
(lp567
Vhamburger
p568
atp569
Rp570
(dp571
g16
VNN
p572
sbag5
(g6
g7
(lp573
g449
atp574
Rp575
(dp576
g16
VNN
p577
sbag5
(g6
g7
(lp578
g459
atp579
Rp580
(dp581
g16
V''
p582
sbatp583
Rp584
(dp585
g16
VNP
p586
sbag5
(g6
g7
(lp587
g5
(g6
g7
(lp588
V\u005c
p589
atp590
Rp591
(dp592
g16
VJJ
p593
sbag5
(g6
g7
(lp594
Vu201d
p595
atp596
Rp597
(dp598
g16
VNNS
p599
sbatp600
Rp601
(dp602
g16
VNP
p603
sbatp604
Rp605
(dp606
g16
VNP
p607
sbag5
(g6
g7
(lp608
g459
atp609
Rp610
(dp611
g16
V''
p612
sbatp613
Rp614
(dp615
g16
VNP
p616
sbag5
(g6
g7
(lp617
g5
(g6
g7
(lp618
Vare
p619
atp620
Rp621
(dp622
g16
VVBP
p623
sbag5
(g6
g7
(lp624
g5
(g6
g7
(lp625
Vcompletely
p626
atp627
Rp628
(dp629
g16
VRB
p630
sbag5
(g6
g7
(lp631
Vunrelated
p632
atp633
Rp634
(dp635
g16
VJJ
p636
sbag5
(g6
g7
(lp637
g5
(g6
g7
(lp638
g5
(g6
g7
(lp639
g5
(g6
g7
(lp640
Veven
p641
atp642
Rp643
(dp644
g16
VRB
p645
sbag5
(g6
g7
(lp646
Vif
p647
atp648
Rp649
(dp650
g16
VIN
p651
sbag5
(g6
g7
(lp652
g5
(g6
g7
(lp653
g5
(g6
g7
(lp654
Vwe
p655
atp656
Rp657
(dp658
g16
VPRP
p659
sbatp660
Rp661
(dp662
g16
VNP
p663
sbag5
(g6
g7
(lp664
g5
(g6
g7
(lp665
Vknow
p666
atp667
Rp668
(dp669
g16
VVBP
p670
sbag5
(g6
g7
(lp671
g5
(g6
g7
(lp672
Vthat
p673
atp674
Rp675
(dp676
g16
VIN
p677
sbag5
(g6
g7
(lp678
g5
(g6
g7
(lp679
g5
(g6
g7
(lp680
g5
(g6
g7
(lp681
g5
(g6
g7
(lp682
Vthe
p683
atp684
Rp685
(dp686
g16
VDT
p687
sbag5
(g6
g7
(lp688
Vword
p689
atp690
Rp691
(dp692
g16
VNN
p693
sbag5
(g6
g7
(lp694
g449
atp695
Rp696
(dp697
g16
VNN
p698
sbag5
(g6
g7
(lp699
g459
atp700
Rp701
(dp702
g16
VPOS
p703
sbatp704
Rp705
(dp706
g16
VNP
p707
sbag5
(g6
g7
(lp708
V\u005c
p709
atp710
Rp711
(dp712
g16
VNN
p713
sbatp714
Rp715
(dp716
g16
VNP
p717
sbag5
(g6
g7
(lp718
g5
(g6
g7
(lp719
Vu201c
p720
atp721
Rp722
(dp723
g16
VVBG
p724
sbag5
(g6
g7
(lp725
g459
atp726
Rp727
(dp728
g16
V''
p729
sbag5
(g6
g7
(lp730
g5
(g6
g7
(lp731
g5
(g6
g7
(lp732
Vpizza
p733
atp734
Rp735
(dp736
g16
VNN
p737
sbag5
(g6
g7
(lp738
g449
atp739
Rp740
(dp741
g16
VNN
p742
sbag5
(g6
g7
(lp743
g459
atp744
Rp745
(dp746
g16
VPOS
p747
sbatp748
Rp749
(dp750
g16
VNP
p751
sbag5
(g6
g7
(lp752
V\u005c
p753
atp754
Rp755
(dp756
g16
VJJ
p757
sbag5
(g6
g7
(lp758
Vu201d
p759
atp760
Rp761
(dp762
g16
VNNS
p763
sbatp764
Rp765
(dp766
g16
VNP
p767
sbag5
(g6
g7
(lp768
g459
atp769
Rp770
(dp771
g16
V``
p772
sbag5
(g6
g7
(lp773
g5
(g6
g7
(lp774
Vis
p775
atp776
Rp777
(dp778
g16
VVBZ
p779
sbag5
(g6
g7
(lp780
g5
(g6
g7
(lp781
g5
(g6
g7
(lp782
Va
p783
atp784
Rp785
(dp786
g16
VDT
p787
sbag5
(g6
g7
(lp788
Vgood
p789
atp790
Rp791
(dp792
g16
VJJ
p793
sbag5
(g6
g7
(lp794
Vargument
p795
atp796
Rp797
(dp798
g16
VNN
p799
sbatp800
Rp801
(dp802
g16
VNP
p803
sbag5
(g6
g7
(lp804
g5
(g6
g7
(lp805
Vfor
p806
atp807
Rp808
(dp809
g16
VIN
p810
sbag5
(g6
g7
(lp811
g5
(g6
g7
(lp812
g5
(g6
g7
(lp813
Vthe
p814
atp815
Rp816
(dp817
g16
VDT
p818
sbag5
(g6
g7
(lp819
Vverb
p820
atp821
Rp822
(dp823
g16
VJJ
p824
sbag5
(g6
g7
(lp825
g449
atp826
Rp827
(dp828
g16
VNN
p829
sbag5
(g6
g7
(lp830
g459
atp831
Rp832
(dp833
g16
VPOS
p834
sbatp835
Rp836
(dp837
g16
VNP
p838
sbag5
(g6
g7
(lp839
V\u005c
p840
atp841
Rp842
(dp843
g16
VJJ
p844
sbag5
(g6
g7
(lp845
Vu201c
p846
atp847
Rp848
(dp849
g16
VNNS
p850
sbatp851
Rp852
(dp853
g16
VNP
p854
sbatp855
Rp856
(dp857
g16
VPP
p858
sbatp859
Rp860
(dp861
g16
VNP
p862
sbatp863
Rp864
(dp865
g16
VSQ
p866
sbag5
(g6
g7
(lp867
g459
atp868
Rp869
(dp870
g16
V''
p871
sbatp872
Rp873
(dp874
g16
VVP
p875
sbatp876
Rp877
(dp878
g16
VNP
p879
sbag5
(g6
g7
(lp880
g5
(g6
g7
(lp881
Veat
p882
atp883
Rp884
(dp885
g16
VVBP
p886
sbag5
(g6
g7
(lp887
g5
(g6
g7
(lp888
g5
(g6
g7
(lp889
g449
atp890
Rp891
(dp892
g16
VNNP
p893
sbag5
(g6
g7
(lp894
g459
atp895
Rp896
(dp897
g16
VPOS
p898
sbatp899
Rp900
(dp901
g16
VNP
p902
sbag5
(g6
g7
(lp903
V\u005c
p904
atp905
Rp906
(dp907
g16
VNNP
p908
sbag5
(g6
g7
(lp909
Vu201d
p910
atp911
Rp912
(dp913
g16
VNNP
p914
sbag5
(g6
g7
(lp915
g459
atp916
Rp917
(dp918
g16
V''
p919
sbatp920
Rp921
(dp922
g16
VNP
p923
sbatp924
Rp925
(dp926
g16
VVP
p927
sbatp928
Rp929
(dp930
g16
g87
sbatp931
Rp932
(dp933
g16
VSBAR
p934
sbatp935
Rp936
(dp937
g16
VVP
p938
sbatp939
Rp940
(dp941
g16
g87
sbatp942
Rp943
(dp944
g16
VSBAR
p945
sbag5
(g6
g7
(lp946
g251
atp947
Rp948
(dp949
g16
g251
sbag5
(g6
g7
(lp950
g5
(g6
g7
(lp951
Vwe
p952
atp953
Rp954
(dp955
g16
VPRP
p956
sbatp957
Rp958
(dp959
g16
VNP
p960
sbag5
(g6
g7
(lp961
g5
(g6
g7
(lp962
Vcan
p963
atp964
Rp965
(dp966
g16
VMD
p967
sbag5
(g6
g7
(lp968
Vnot
p969
atp970
Rp971
(dp972
g16
VRB
p973
sbag5
(g6
g7
(lp974
g5
(g6
g7
(lp975
Vinfer
p976
atp977
Rp978
(dp979
g16
VVB
p980
sbag5
(g6
g7
(lp981
g5
(g6
g7
(lp982
Vthat
p983
atp984
Rp985
(dp986
g16
VIN
p987
sbag5
(g6
g7
(lp988
g5
(g6
g7
(lp989
g5
(g6
g7
(lp990
g5
(g6
g7
(lp991
g449
atp992
Rp993
(dp994
g16
VNNP
p995
sbag5
(g6
g7
(lp996
g459
atp997
Rp998
(dp999
g16
VPOS
p1000
sbatp1001
Rp1002
(dp1003
g16
VNP
p1004
sbag5
(g6
g7
(lp1005
V\u005c
p1006
atp1007
Rp1008
(dp1009
g16
VJJ
p1010
sbag5
(g6
g7
(lp1011
Vu201c
p1012
atp1013
Rp1014
(dp1015
g16
VNNS
p1016
sbag5
(g6
g7
(lp1017
g459
atp1018
Rp1019
(dp1020
g16
V''
p1021
sbag5
(g6
g7
(lp1022
Vhamburger
p1023
atp1024
Rp1025
(dp1026
g16
VNN
p1027
sbatp1028
Rp1029
(dp1030
g16
VNP
p1031
sbag5
(g6
g7
(lp1032
g5
(g6
g7
(lp1033
g449
atp1034
Rp1035
(dp1036
g16
VVBP
p1037
sbag5
(g6
g7
(lp1038
g459
atp1039
Rp1040
(dp1041
g16
V''
p1042
sbag5
(g6
g7
(lp1043
g5
(g6
g7
(lp1044
V\u005c
p1045
atp1046
Rp1047
(dp1048
g16
VJJ
p1049
sbag5
(g6
g7
(lp1050
Vu201d
p1051
atp1052
Rp1053
(dp1054
g16
VNNS
p1055
sbatp1056
Rp1057
(dp1058
g16
VNP
p1059
sbag5
(g6
g7
(lp1060
g459
atp1061
Rp1062
(dp1063
g16
V''
p1064
sbatp1065
Rp1066
(dp1067
g16
VVP
p1068
sbatp1069
Rp1070
(dp1071
g16
g87
sbatp1072
Rp1073
(dp1074
g16
VSBAR
p1075
sbatp1076
Rp1077
(dp1078
g16
VVP
p1079
sbatp1080
Rp1081
(dp1082
g16
VVP
p1083
sbatp1084
Rp1085
(dp1086
g16
g87
sbatp1087
Rp1088
(dp1089
g16
VSBAR
p1090
sbatp1091
Rp1092
(dp1093
g16
VADJP
p1094
sbatp1095
Rp1096
(dp1097
g16
VVP
p1098
sbatp1099
Rp1100
(dp1101
g16
g87
sbatp1102
Rp1103
(dp1104
g16
VSBAR
p1105
sbatp1106
Rp1107
(dp1108
g16
VNP
p1109
sbatp1110
Rp1111
(dp1112
g16
VPP
p1113
sbatp1114
Rp1115
(dp1116
g16
VNP
p1117
sbag5
(g6
g7
(lp1118
g5
(g6
g7
(lp1119
Vis
p1120
atp1121
Rp1122
(dp1123
g16
VVBZ
p1124
sbag5
(g6
g7
(lp1125
g5
(g6
g7
(lp1126
Valso
p1127
atp1128
Rp1129
(dp1130
g16
VRB
p1131
sbatp1132
Rp1133
(dp1134
g16
VADVP
p1135
sbag5
(g6
g7
(lp1136
g5
(g6
g7
(lp1137
g783
atp1138
Rp1139
(dp1140
g16
VDT
p1141
sbag5
(g6
g7
(lp1142
Vgood
p1143
atp1144
Rp1145
(dp1146
g16
VJJ
p1147
sbag5
(g6
g7
(lp1148
Vargument
p1149
atp1150
Rp1151
(dp1152
g16
VNN
p1153
sbatp1154
Rp1155
(dp1156
g16
VNP
p1157
sbatp1158
Rp1159
(dp1160
g16
VVP
p1161
sbatp1162
Rp1163
(dp1164
g16
g87
sbatp1165
Rp1166
(dp1167
g16
VROOT
p1168
sbasg311
(icmyPackage
CorE
p1169
(dp1170
g314
(lp1171
(I0
I37
tp1172
a(I0
I70
tp1173
asg318
g940
sbsg324
(icmyPackage
CorE
p1174
(dp1175
g314
(lp1176
(I0
I72
tp1177
a(I0
I92
tp1178
asg318
g5
(g6
g7
(lp1179
g958
ag1081
ag1159
atp1180
Rp1181
(dp1182
g16
g323
sbsbsg334
(icmyPackage
pattern
p1183
(dp1184
g337
I0
sg338
I0
sg339
(lp1185
(lp1186
(lp1187
S'if'
p1188
aS'once'
p1189
aaa(lp1190
S','
p1191
aasg343
(lp1192
I1
aI1
aI1
asg345
(lp1193
S'If some light and mobile detection devices can be invented in the future, many new applications can be imagined, for example, people can get some services while thinking.'
p1194
asg348
I15
sg349
(lp1195
(lp1196
a(lp1197
S'&C@Complete@'
p1198
aa(lp1199
S'&R@Complete@'
p1200
aasbsg358
(lp1201
(isxpPackage
sxpSent
p1202
(dp1203
g362
(lp1204
I1
aI2
asg364
VFor example, the symbolic representation of the words u'\u005cu201c' pizza u'\u005cu201d' and u'\u005cu201c' hamburger u'\u005cu201d' are completely unrelated even if we know that the word u'\u005cu201c' pizza u'\u005cu201d' is a good argument for the verb u'\u005cu201c' eat u'\u005cu201d' , we cannot infer that u'\u005cu201c' hamburger u'\u005cu201d' is also a good argument
p1205
sg366
I2
sg348
I6
sg367
I1
sbasba(icmyPackage
CELink
p1206
(dp1207
g3
(lp1208
g1166
ag5
(g6
g7
(lp1209
g5
(g6
g7
(lp1210
g5
(g6
g7
(lp1211
g5
(g6
g7
(lp1212
VWe
p1213
atp1214
Rp1215
(dp1216
g16
VPRP
p1217
sbatp1218
Rp1219
(dp1220
g16
VNP
p1221
sbag5
(g6
g7
(lp1222
g5
(g6
g7
(lp1223
g5
(g6
g7
(lp1224
Vthus
p1225
atp1226
Rp1227
(dp1228
g16
VRB
p1229
sbatp1230
Rp1231
(dp1232
g16
VADVP
p1233
sbag5
(g6
g7
(lp1234
Vseek
p1235
atp1236
Rp1237
(dp1238
g16
VVBP
p1239
sbag5
(g6
g7
(lp1240
g5
(g6
g7
(lp1241
g5
(g6
g7
(lp1242
g783
atp1243
Rp1244
(dp1245
g16
VDT
p1246
sbag5
(g6
g7
(lp1247
Vrepresentation
p1248
atp1249
Rp1250
(dp1251
g16
VNN
p1252
sbatp1253
Rp1254
(dp1255
g16
VNP
p1256
sbag5
(g6
g7
(lp1257
g5
(g6
g7
(lp1258
g5
(g6
g7
(lp1259
Vthat
p1260
atp1261
Rp1262
(dp1263
g16
VWDT
p1264
sbatp1265
Rp1266
(dp1267
g16
VWHNP
p1268
sbag5
(g6
g7
(lp1269
g5
(g6
g7
(lp1270
g5
(g6
g7
(lp1271
Vcaptures
p1272
atp1273
Rp1274
(dp1275
g16
VVBZ
p1276
sbag5
(g6
g7
(lp1277
g5
(g6
g7
(lp1278
g5
(g6
g7
(lp1279
g5
(g6
g7
(lp1280
Vsemantic
p1281
atp1282
Rp1283
(dp1284
g16
VJJ
p1285
sbag5
(g6
g7
(lp1286
Vand
p1287
atp1288
Rp1289
(dp1290
g16
VCC
p1291
sbag5
(g6
g7
(lp1292
Vsyntactic
p1293
atp1294
Rp1295
(dp1296
g16
VJJ
p1297
sbatp1298
Rp1299
(dp1300
g16
VADJP
p1301
sbag5
(g6
g7
(lp1302
Vsimilarities
p1303
atp1304
Rp1305
(dp1306
g16
VNNS
p1307
sbatp1308
Rp1309
(dp1310
g16
VNP
p1311
sbag5
(g6
g7
(lp1312
g5
(g6
g7
(lp1313
Vbetween
p1314
atp1315
Rp1316
(dp1317
g16
VIN
p1318
sbag5
(g6
g7
(lp1319
g5
(g6
g7
(lp1320
Vwords
p1321
atp1322
Rp1323
(dp1324
g16
VNNS
p1325
sbatp1326
Rp1327
(dp1328
g16
VNP
p1329
sbatp1330
Rp1331
(dp1332
g16
VPP
p1333
sbatp1334
Rp1335
(dp1336
g16
VNP
p1337
sbatp1338
Rp1339
(dp1340
g16
VVP
p1341
sbatp1342
Rp1343
(dp1344
g16
g87
sbatp1345
Rp1346
(dp1347
g16
VSBAR
p1348
sbatp1349
Rp1350
(dp1351
g16
VNP
p1352
sbatp1353
Rp1354
(dp1355
g16
VVP
p1356
sbatp1357
Rp1358
(dp1359
g16
g87
sbatp1360
Rp1361
(dp1362
g16
VROOT
p1363
sbasg311
(icmyPackage
CorE
p1364
(dp1365
g314
(lp1366
(I0
I1
tp1367
a(I1
I0
tp1368
asg318
g5
(g6
g7
(lp1369
g392
ag401
ag1115
ag1159
ag1219
atp1370
Rp1371
(dp1372
g16
g323
sbsbsg324
(icmyPackage
CorE
p1373
(dp1374
g314
(lp1375
(I1
I2
tp1376
a(I1
I12
tp1377
asg318
g5
(g6
g7
(lp1378
g1237
ag1350
atp1379
Rp1380
(dp1381
g16
g323
sbsbsg334
(icmyPackage
pattern
p1382
(dp1383
g337
I35
sg338
I1
sg339
(lp1384
(lp1385
S'thus'
p1386
aasg343
(lp1387
I1
aI1
aI1
asg345
(lp1388
S'Japan will be on the dark side of the Earth, and thus will lack the warming influence of the Sun.'
p1389
asg348
I2
sg349
(lp1390
(lp1391
S'&C'
p1392
aS'(,/;/./--)'
p1393
aS'(&AND)'
p1394
aa(lp1395
S'&R'
p1396
aasbsg358
(lp1397
g1202
a(isxpPackage
sxpSent
p1398
(dp1399
g362
(lp1400
I2
asg364
VWe thus seek a representation that captures semantic and syntactic similarities between words
p1401
sg366
I2
sg348
I7
sg367
I1
sbasba(icmyPackage
CELink
p1402
(dp1403
g3
(lp1404
g5
(g6
g7
(lp1405
g5
(g6
g7
(lp1406
g5
(g6
g7
(lp1407
g5
(g6
g7
(lp1408
g5
(g6
g7
(lp1409
VA
p1410
atp1411
Rp1412
(dp1413
g16
VDT
p1414
sbag5
(g6
g7
(lp1415
g5
(g6
g7
(lp1416
Vvery
p1417
atp1418
Rp1419
(dp1420
g16
VRB
p1421
sbag5
(g6
g7
(lp1422
Vcommon
p1423
atp1424
Rp1425
(dp1426
g16
VJJ
p1427
sbatp1428
Rp1429
(dp1430
g16
VADJP
p1431
sbag5
(g6
g7
(lp1432
Vparadigm
p1433
atp1434
Rp1435
(dp1436
g16
VNN
p1437
sbatp1438
Rp1439
(dp1440
g16
VNP
p1441
sbag5
(g6
g7
(lp1442
g5
(g6
g7
(lp1443
Vfor
p1444
atp1445
Rp1446
(dp1447
g16
VIN
p1448
sbag5
(g6
g7
(lp1449
g5
(g6
g7
(lp1450
g5
(g6
g7
(lp1451
Vacquiring
p1452
atp1453
Rp1454
(dp1455
g16
VVBG
p1456
sbag5
(g6
g7
(lp1457
g5
(g6
g7
(lp1458
Vsuch
p1459
atp1460
Rp1461
(dp1462
g16
VJJ
p1463
sbag5
(g6
g7
(lp1464
Vrepresentations
p1465
atp1466
Rp1467
(dp1468
g16
VNNS
p1469
sbatp1470
Rp1471
(dp1472
g16
VNP
p1473
sbatp1474
Rp1475
(dp1476
g16
VVP
p1477
sbatp1478
Rp1479
(dp1480
g16
g87
sbatp1481
Rp1482
(dp1483
g16
VPP
p1484
sbatp1485
Rp1486
(dp1487
g16
VNP
p1488
sbag5
(g6
g7
(lp1489
g5
(g6
g7
(lp1490
Vis
p1491
atp1492
Rp1493
(dp1494
g16
VVBZ
p1495
sbag5
(g6
g7
(lp1496
g5
(g6
g7
(lp1497
Vbased
p1498
atp1499
Rp1500
(dp1501
g16
VVBN
p1502
sbag5
(g6
g7
(lp1503
g5
(g6
g7
(lp1504
Von
p1505
atp1506
Rp1507
(dp1508
g16
VIN
p1509
sbag5
(g6
g7
(lp1510
g5
(g6
g7
(lp1511
g5
(g6
g7
(lp1512
Vthe
p1513
atp1514
Rp1515
(dp1516
g16
VDT
p1517
sbag5
(g6
g7
(lp1518
Vdistributional
p1519
atp1520
Rp1521
(dp1522
g16
VJJ
p1523
sbag5
(g6
g7
(lp1524
Vhypothesis
p1525
atp1526
Rp1527
(dp1528
g16
VNNS
p1529
sbatp1530
Rp1531
(dp1532
g16
VNP
p1533
sbag5
(g6
g7
(lp1534
g5
(g6
g7
(lp1535
Vof
p1536
atp1537
Rp1538
(dp1539
g16
VIN
p1540
sbag5
(g6
g7
(lp1541
g5
(g6
g7
(lp1542
VHarris
p1543
atp1544
Rp1545
(dp1546
g16
VNNP
p1547
sbag5
(g6
g7
(lp1548
V-LSB-
p1549
atp1550
Rp1551
(dp1552
g16
VNNP
p1553
sbag5
(g6
g7
(lp1554
V16
p1555
atp1556
Rp1557
(dp1558
g16
VCD
p1559
sbag5
(g6
g7
(lp1560
V-RSB-
p1561
atp1562
Rp1563
(dp1564
g16
VNNS
p1565
sbatp1566
Rp1567
(dp1568
g16
VNP
p1569
sbatp1570
Rp1571
(dp1572
g16
VPP
p1573
sbatp1574
Rp1575
(dp1576
g16
VNP
p1577
sbatp1578
Rp1579
(dp1580
g16
VPP
p1581
sbag5
(g6
g7
(lp1582
g251
atp1583
Rp1584
(dp1585
g16
g251
sbag5
(g6
g7
(lp1586
g5
(g6
g7
(lp1587
g5
(g6
g7
(lp1588
Vstating
p1589
atp1590
Rp1591
(dp1592
g16
VVBG
p1593
sbag5
(g6
g7
(lp1594
g5
(g6
g7
(lp1595
Vthat
p1596
atp1597
Rp1598
(dp1599
g16
VIN
p1600
sbag5
(g6
g7
(lp1601
g5
(g6
g7
(lp1602
g5
(g6
g7
(lp1603
g5
(g6
g7
(lp1604
Vwords
p1605
atp1606
Rp1607
(dp1608
g16
VNNS
p1609
sbatp1610
Rp1611
(dp1612
g16
VNP
p1613
sbag5
(g6
g7
(lp1614
g5
(g6
g7
(lp1615
Vin
p1616
atp1617
Rp1618
(dp1619
g16
VIN
p1620
sbag5
(g6
g7
(lp1621
g5
(g6
g7
(lp1622
Vsimilar
p1623
atp1624
Rp1625
(dp1626
g16
VJJ
p1627
sbag5
(g6
g7
(lp1628
Vcontexts
p1629
atp1630
Rp1631
(dp1632
g16
VNNS
p1633
sbatp1634
Rp1635
(dp1636
g16
VNP
p1637
sbatp1638
Rp1639
(dp1640
g16
VPP
p1641
sbatp1642
Rp1643
(dp1644
g16
VNP
p1645
sbag5
(g6
g7
(lp1646
g5
(g6
g7
(lp1647
Vhave
p1648
atp1649
Rp1650
(dp1651
g16
VVBP
p1652
sbag5
(g6
g7
(lp1653
g5
(g6
g7
(lp1654
Vsimilar
p1655
atp1656
Rp1657
(dp1658
g16
VJJ
p1659
sbag5
(g6
g7
(lp1660
Vmeanings
p1661
atp1662
Rp1663
(dp1664
g16
VNNS
p1665
sbatp1666
Rp1667
(dp1668
g16
VNP
p1669
sbatp1670
Rp1671
(dp1672
g16
VVP
p1673
sbatp1674
Rp1675
(dp1676
g16
g87
sbatp1677
Rp1678
(dp1679
g16
VSBAR
p1680
sbatp1681
Rp1682
(dp1683
g16
VVP
p1684
sbatp1685
Rp1686
(dp1687
g16
g87
sbatp1688
Rp1689
(dp1690
g16
VVP
p1691
sbatp1692
Rp1693
(dp1694
g16
VVP
p1695
sbatp1696
Rp1697
(dp1698
g16
g87
sbatp1699
Rp1700
(dp1701
g16
VROOT
p1702
sbasg311
(icmyPackage
CorE
p1703
(dp1704
g314
(lp1705
(I0
I11
tp1706
a(I0
I18
tp1707
asg318
g1575
sbsg324
(icmyPackage
CorE
p1708
(dp1709
g314
(lp1710
(I0
I20
tp1711
a(I0
I28
tp1712
asg318
g1686
sbsg334
(icmyPackage
pattern
p1713
(dp1714
g337
I0
sg338
I0
sg339
(lp1715
(lp1716
S'based'
p1717
aS'on'
p1718
aa(lp1719
g1191
aasg343
(lp1720
I2
aI1
aI1
asg345
(lp1721
S"He said that, based on his own experience, more students have been going back in recent years as their home countries' economies heat up."
p1722
asg348
I47
sg349
(lp1723
(lp1724
a(lp1725
S'&V-ing/&NP@C@'
p1726
aS'(&Clause@C@)'
p1727
aa(lp1728
S'&R'
p1729
aasbsg358
(lp1730
(isxpPackage
sxpSent
p1731
(dp1732
g362
(lp1733
I3
asg364
VA very common paradigm for acquiring such representations is based on the distributional hypothesis of Harris [ 16 ] , stating that words in similar contexts have similar meanings
p1734
sg366
I2
sg348
I8
sg367
I1
sbasba(icmyPackage
CELink
p1735
(dp1736
g3
(lp1737
g5
(g6
g7
(lp1738
g5
(g6
g7
(lp1739
g5
(g6
g7
(lp1740
g5
(g6
g7
(lp1741
g5
(g6
g7
(lp1742
g5
(g6
g7
(lp1743
VBased
p1744
atp1745
Rp1746
(dp1747
g16
VVBN
p1748
sbag5
(g6
g7
(lp1749
g5
(g6
g7
(lp1750
Von
p1751
atp1752
Rp1753
(dp1754
g16
VIN
p1755
sbag5
(g6
g7
(lp1756
g5
(g6
g7
(lp1757
Vthe
p1758
atp1759
Rp1760
(dp1761
g16
VDT
p1762
sbag5
(g6
g7
(lp1763
Vdistributional
p1764
atp1765
Rp1766
(dp1767
g16
VJJ
p1768
sbag5
(g6
g7
(lp1769
Vhypothesis
p1770
atp1771
Rp1772
(dp1773
g16
VNNS
p1774
sbatp1775
Rp1776
(dp1777
g16
VNP
p1778
sbatp1779
Rp1780
(dp1781
g16
VPP
p1782
sbatp1783
Rp1784
(dp1785
g16
VVP
p1786
sbatp1787
Rp1788
(dp1789
g16
g87
sbag5
(g6
g7
(lp1790
g251
atp1791
Rp1792
(dp1793
g16
g251
sbag5
(g6
g7
(lp1794
g5
(g6
g7
(lp1795
g5
(g6
g7
(lp1796
Vmany
p1797
atp1798
Rp1799
(dp1800
g16
VJJ
p1801
sbag5
(g6
g7
(lp1802
Vmethods
p1803
atp1804
Rp1805
(dp1806
g16
VNNS
p1807
sbatp1808
Rp1809
(dp1810
g16
VNP
p1811
sbag5
(g6
g7
(lp1812
g5
(g6
g7
(lp1813
Vof
p1814
atp1815
Rp1816
(dp1817
g16
VIN
p1818
sbag5
(g6
g7
(lp1819
g5
(g6
g7
(lp1820
g5
(g6
g7
(lp1821
Vderiving
p1822
atp1823
Rp1824
(dp1825
g16
VVBG
p1826
sbag5
(g6
g7
(lp1827
g5
(g6
g7
(lp1828
Vword
p1829
atp1830
Rp1831
(dp1832
g16
VNN
p1833
sbag5
(g6
g7
(lp1834
Vrepresentations
p1835
atp1836
Rp1837
(dp1838
g16
VNNS
p1839
sbatp1840
Rp1841
(dp1842
g16
VNP
p1843
sbatp1844
Rp1845
(dp1846
g16
VVP
p1847
sbatp1848
Rp1849
(dp1850
g16
g87
sbatp1851
Rp1852
(dp1853
g16
VPP
p1854
sbatp1855
Rp1856
(dp1857
g16
VNP
p1858
sbag5
(g6
g7
(lp1859
g5
(g6
g7
(lp1860
Vwere
p1861
atp1862
Rp1863
(dp1864
g16
VVBD
p1865
sbag5
(g6
g7
(lp1866
g5
(g6
g7
(lp1867
Vexplored
p1868
atp1869
Rp1870
(dp1871
g16
VVBN
p1872
sbag5
(g6
g7
(lp1873
g5
(g6
g7
(lp1874
Vin
p1875
atp1876
Rp1877
(dp1878
g16
VIN
p1879
sbag5
(g6
g7
(lp1880
g5
(g6
g7
(lp1881
Vthe
p1882
atp1883
Rp1884
(dp1885
g16
VDT
p1886
sbag5
(g6
g7
(lp1887
VNLP
p1888
atp1889
Rp1890
(dp1891
g16
VNNP
p1892
sbag5
(g6
g7
(lp1893
Vcommunity
p1894
atp1895
Rp1896
(dp1897
g16
VNN
p1898
sbatp1899
Rp1900
(dp1901
g16
VNP
p1902
sbatp1903
Rp1904
(dp1905
g16
VPP
p1906
sbatp1907
Rp1908
(dp1909
g16
VVP
p1910
sbatp1911
Rp1912
(dp1913
g16
VVP
p1914
sbatp1915
Rp1916
(dp1917
g16
g87
sbatp1918
Rp1919
(dp1920
g16
VFRAG
p1921
sbatp1922
Rp1923
(dp1924
g16
VROOT
p1925
sbasg311
(icmyPackage
CorE
p1926
(dp1927
g314
(lp1928
(I0
I2
tp1929
a(I0
I4
tp1930
asg318
g1776
sbsg324
(icmyPackage
CorE
p1931
(dp1932
g314
(lp1933
(I0
I6
tp1934
a(I0
I17
tp1935
asg318
g5
(g6
g7
(lp1936
g1856
ag1912
atp1937
Rp1938
(dp1939
g16
g323
sbsbsg334
g1713
sg358
(lp1940
(isxpPackage
sxpSent
p1941
(dp1942
g362
(lp1943
I4
asg364
VBased on the distributional hypothesis, many methods of deriving word representations were explored in the NLP community
p1944
sg366
I2
sg348
I9
sg367
I2
sbasba(icmyPackage
CELink
p1945
(dp1946
g3
(lp1947
g5
(g6
g7
(lp1948
g5
(g6
g7
(lp1949
g5
(g6
g7
(lp1950
g5
(g6
g7
(lp1951
VOn
p1952
atp1953
Rp1954
(dp1955
g16
VIN
p1956
sbag5
(g6
g7
(lp1957
g5
(g6
g7
(lp1958
g5
(g6
g7
(lp1959
Vone
p1960
atp1961
Rp1962
(dp1963
g16
VCD
p1964
sbag5
(g6
g7
(lp1965
Vend
p1966
atp1967
Rp1968
(dp1969
g16
VNN
p1970
sbatp1971
Rp1972
(dp1973
g16
VNP
p1974
sbag5
(g6
g7
(lp1975
g5
(g6
g7
(lp1976
Vof
p1977
atp1978
Rp1979
(dp1980
g16
VIN
p1981
sbag5
(g6
g7
(lp1982
g5
(g6
g7
(lp1983
Vthe
p1984
atp1985
Rp1986
(dp1987
g16
VDT
p1988
sbag5
(g6
g7
(lp1989
Vspectrum
p1990
atp1991
Rp1992
(dp1993
g16
VNN
p1994
sbatp1995
Rp1996
(dp1997
g16
VNP
p1998
sbatp1999
Rp2000
(dp2001
g16
VPP
p2002
sbatp2003
Rp2004
(dp2005
g16
VNP
p2006
sbatp2007
Rp2008
(dp2009
g16
VPP
p2010
sbag5
(g6
g7
(lp2011
g251
atp2012
Rp2013
(dp2014
g16
g251
sbag5
(g6
g7
(lp2015
g5
(g6
g7
(lp2016
Vwords
p2017
atp2018
Rp2019
(dp2020
g16
VNNS
p2021
sbatp2022
Rp2023
(dp2024
g16
VNP
p2025
sbag5
(g6
g7
(lp2026
g5
(g6
g7
(lp2027
Vare
p2028
atp2029
Rp2030
(dp2031
g16
VVBP
p2032
sbag5
(g6
g7
(lp2033
g5
(g6
g7
(lp2034
Vgrouped
p2035
atp2036
Rp2037
(dp2038
g16
VVBN
p2039
sbag5
(g6
g7
(lp2040
g5
(g6
g7
(lp2041
Vinto
p2042
atp2043
Rp2044
(dp2045
g16
VIN
p2046
sbag5
(g6
g7
(lp2047
g5
(g6
g7
(lp2048
g5
(g6
g7
(lp2049
Vclusters
p2050
atp2051
Rp2052
(dp2053
g16
VNNS
p2054
sbatp2055
Rp2056
(dp2057
g16
VNP
p2058
sbag5
(g6
g7
(lp2059
g5
(g6
g7
(lp2060
Vbased
p2061
atp2062
Rp2063
(dp2064
g16
VVBN
p2065
sbag5
(g6
g7
(lp2066
g5
(g6
g7
(lp2067
Von
p2068
atp2069
Rp2070
(dp2071
g16
VIN
p2072
sbag5
(g6
g7
(lp2073
g5
(g6
g7
(lp2074
g5
(g6
g7
(lp2075
Vtheir
p2076
atp2077
Rp2078
(dp2079
g16
VPRP$
p2080
sbag5
(g6
g7
(lp2081
Vcontexts
p2082
atp2083
Rp2084
(dp2085
g16
VNNS
p2086
sbatp2087
Rp2088
(dp2089
g16
VNP
p2090
sbag5
(g6
g7
(lp2091
g5
(g6
g7
(lp2092
g5
(g6
g7
(lp2093
V-LSB-
p2094
atp2095
Rp2096
(dp2097
g16
VNNP
p2098
sbag5
(g6
g7
(lp2099
V5
p2100
atp2101
Rp2102
(dp2103
g16
VCD
p2104
sbag5
(g6
g7
(lp2105
g251
atp2106
Rp2107
(dp2108
g16
g251
sbag5
(g6
g7
(lp2109
V32
p2110
atp2111
Rp2112
(dp2113
g16
VCD
p2114
sbatp2115
Rp2116
(dp2117
g16
VNP
p2118
sbag5
(g6
g7
(lp2119
V-RSB-
p2120
atp2121
Rp2122
(dp2123
g16
VJJ
p2124
sbatp2125
Rp2126
(dp2127
g16
VADJP
p2128
sbatp2129
Rp2130
(dp2131
g16
VNP
p2132
sbatp2133
Rp2134
(dp2135
g16
VPP
p2136
sbatp2137
Rp2138
(dp2139
g16
VVP
p2140
sbatp2141
Rp2142
(dp2143
g16
VNP
p2144
sbatp2145
Rp2146
(dp2147
g16
VPP
p2148
sbatp2149
Rp2150
(dp2151
g16
VVP
p2152
sbatp2153
Rp2154
(dp2155
g16
VVP
p2156
sbatp2157
Rp2158
(dp2159
g16
g87
sbatp2160
Rp2161
(dp2162
g16
VROOT
p2163
sbasg311
(icmyPackage
CorE
p2164
(dp2165
g314
(lp2166
(I0
I14
tp2167
a(I0
I20
tp2168
asg318
g2130
sbsg324
(icmyPackage
CorE
p2169
(dp2170
g314
(lp2171
(I0
I0
tp2172
a(I0
I11
tp2173
asg318
g5
(g6
g7
(lp2174
g2008
ag2013
ag2023
ag2030
ag2037
ag2044
ag2056
atp2175
Rp2176
(dp2177
g16
g323
sbsbsg334
(icmyPackage
pattern
p2178
(dp2179
g337
I0
sg338
I0
sg339
(lp2180
(lp2181
S'based'
p2182
aS'on'
p2183
aasg343
(lp2184
I2
aI1
aI1
asg345
(lp2185
S'He said he planned to announce details of legislation on Sunday based on a Republican plan that would provide a short-term solution'
p2186
asg348
I48
sg349
(lp2187
(lp2188
S'&R'
p2189
aS'(,)'
p2190
aS'(&ADV)'
p2191
aa(lp2192
S'&V-ing/&NP@C@'
p2193
aS'(&Clause@C@)'
p2194
aasbsg358
(lp2195
(isxpPackage
sxpSent
p2196
(dp2197
g362
(lp2198
I5
asg364
VOn one end of the spectrum, words are grouped into clusters based on their contexts [ 5 , 32 ]
p2199
sg366
I2
sg348
I10
sg367
I2
sbasba(icmyPackage
CELink
p2200
(dp2201
g3
(lp2202
g5
(g6
g7
(lp2203
g5
(g6
g7
(lp2204
g5
(g6
g7
(lp2205
g5
(g6
g7
(lp2206
VOn
p2207
atp2208
Rp2209
(dp2210
g16
VIN
p2211
sbag5
(g6
g7
(lp2212
g5
(g6
g7
(lp2213
Vthe
p2214
atp2215
Rp2216
(dp2217
g16
VDT
p2218
sbag5
(g6
g7
(lp2219
Vother
p2220
atp2221
Rp2222
(dp2223
g16
VJJ
p2224
sbag5
(g6
g7
(lp2225
Vend
p2226
atp2227
Rp2228
(dp2229
g16
VNN
p2230
sbatp2231
Rp2232
(dp2233
g16
VNP
p2234
sbatp2235
Rp2236
(dp2237
g16
VPP
p2238
sbag5
(g6
g7
(lp2239
g251
atp2240
Rp2241
(dp2242
g16
g251
sbag5
(g6
g7
(lp2243
g5
(g6
g7
(lp2244
Vwords
p2245
atp2246
Rp2247
(dp2248
g16
VNNS
p2249
sbatp2250
Rp2251
(dp2252
g16
VNP
p2253
sbag5
(g6
g7
(lp2254
g5
(g6
g7
(lp2255
g5
(g6
g7
(lp2256
Vare
p2257
atp2258
Rp2259
(dp2260
g16
VVBP
p2261
sbag5
(g6
g7
(lp2262
g5
(g6
g7
(lp2263
Vrepresented
p2264
atp2265
Rp2266
(dp2267
g16
VVBN
p2268
sbag5
(g6
g7
(lp2269
g5
(g6
g7
(lp2270
Vas
p2271
atp2272
Rp2273
(dp2274
g16
VIN
p2275
sbag5
(g6
g7
(lp2276
g5
(g6
g7
(lp2277
g783
atp2278
Rp2279
(dp2280
g16
VDT
p2281
sbag5
(g6
g7
(lp2282
g5
(g6
g7
(lp2283
Vvery
p2284
atp2285
Rp2286
(dp2287
g16
VRB
p2288
sbag5
(g6
g7
(lp2289
Vhigh
p2290
atp2291
Rp2292
(dp2293
g16
VJJ
p2294
sbatp2295
Rp2296
(dp2297
g16
VADJP
p2298
sbag5
(g6
g7
(lp2299
Vdimensional
p2300
atp2301
Rp2302
(dp2303
g16
VNN
p2304
sbatp2305
Rp2306
(dp2307
g16
VNP
p2308
sbatp2309
Rp2310
(dp2311
g16
VPP
p2312
sbatp2313
Rp2314
(dp2315
g16
VVP
p2316
sbatp2317
Rp2318
(dp2319
g16
VVP
p2320
sbag5
(g6
g7
(lp2321
g5
(g6
g7
(lp2322
Vbut
p2323
atp2324
Rp2325
(dp2326
g16
VCC
p2327
sbag5
(g6
g7
(lp2328
g5
(g6
g7
(lp2329
g5
(g6
g7
(lp2330
Vsparse
p2331
atp2332
Rp2333
(dp2334
g16
VJJ
p2335
sbag5
(g6
g7
(lp2336
Vvectors
p2337
atp2338
Rp2339
(dp2340
g16
VNNS
p2341
sbatp2342
Rp2343
(dp2344
g16
VNP
p2345
sbag5
(g6
g7
(lp2346
g5
(g6
g7
(lp2347
g5
(g6
g7
(lp2348
Vin
p2349
atp2350
Rp2351
(dp2352
g16
VIN
p2353
sbag5
(g6
g7
(lp2354
g5
(g6
g7
(lp2355
Vwhich
p2356
atp2357
Rp2358
(dp2359
g16
VWDT
p2360
sbatp2361
Rp2362
(dp2363
g16
VWHNP
p2364
sbatp2365
Rp2366
(dp2367
g16
VWHPP
p2368
sbag5
(g6
g7
(lp2369
g5
(g6
g7
(lp2370
g5
(g6
g7
(lp2371
Veach
p2372
atp2373
Rp2374
(dp2375
g16
VDT
p2376
sbag5
(g6
g7
(lp2377
Ventry
p2378
atp2379
Rp2380
(dp2381
g16
VNN
p2382
sbatp2383
Rp2384
(dp2385
g16
VNP
p2386
sbag5
(g6
g7
(lp2387
g5
(g6
g7
(lp2388
Vis
p2389
atp2390
Rp2391
(dp2392
g16
VVBZ
p2393
sbag5
(g6
g7
(lp2394
g5
(g6
g7
(lp2395
g5
(g6
g7
(lp2396
g783
atp2397
Rp2398
(dp2399
g16
VDT
p2400
sbag5
(g6
g7
(lp2401
Vmeasure
p2402
atp2403
Rp2404
(dp2405
g16
VNN
p2406
sbatp2407
Rp2408
(dp2409
g16
VNP
p2410
sbag5
(g6
g7
(lp2411
g5
(g6
g7
(lp2412
Vof
p2413
atp2414
Rp2415
(dp2416
g16
VIN
p2417
sbag5
(g6
g7
(lp2418
g5
(g6
g7
(lp2419
g5
(g6
g7
(lp2420
Vthe
p2421
atp2422
Rp2423
(dp2424
g16
VDT
p2425
sbag5
(g6
g7
(lp2426
Vassociation
p2427
atp2428
Rp2429
(dp2430
g16
VNN
p2431
sbatp2432
Rp2433
(dp2434
g16
VNP
p2435
sbag5
(g6
g7
(lp2436
g5
(g6
g7
(lp2437
Vbetween
p2438
atp2439
Rp2440
(dp2441
g16
VIN
p2442
sbag5
(g6
g7
(lp2443
g5
(g6
g7
(lp2444
g5
(g6
g7
(lp2445
Vthe
p2446
atp2447
Rp2448
(dp2449
g16
VDT
p2450
sbag5
(g6
g7
(lp2451
Vword
p2452
atp2453
Rp2454
(dp2455
g16
VNN
p2456
sbatp2457
Rp2458
(dp2459
g16
VNP
p2460
sbag5
(g6
g7
(lp2461
Vand
p2462
atp2463
Rp2464
(dp2465
g16
VCC
p2466
sbag5
(g6
g7
(lp2467
g5
(g6
g7
(lp2468
g783
atp2469
Rp2470
(dp2471
g16
VDT
p2472
sbag5
(g6
g7
(lp2473
Vparticular
p2474
atp2475
Rp2476
(dp2477
g16
VJJ
p2478
sbag5
(g6
g7
(lp2479
Vcontext
p2480
atp2481
Rp2482
(dp2483
g16
VNN
p2484
sbatp2485
Rp2486
(dp2487
g16
VNP
p2488
sbatp2489
Rp2490
(dp2491
g16
VNP
p2492
sbatp2493
Rp2494
(dp2495
g16
VPP
p2496
sbatp2497
Rp2498
(dp2499
g16
VNP
p2500
sbatp2501
Rp2502
(dp2503
g16
VPP
p2504
sbatp2505
Rp2506
(dp2507
g16
VNP
p2508
sbatp2509
Rp2510
(dp2511
g16
VVP
p2512
sbatp2513
Rp2514
(dp2515
g16
g87
sbatp2516
Rp2517
(dp2518
g16
VSBAR
p2519
sbatp2520
Rp2521
(dp2522
g16
VNP
p2523
sbatp2524
Rp2525
(dp2526
g16
VPRN
p2527
sbag5
(g6
g7
(lp2528
g5
(g6
g7
(lp2529
g5
(g6
g7
(lp2530
V-LRB-
p2531
atp2532
Rp2533
(dp2534
g16
V-LRB-
p2535
sbag5
(g6
g7
(lp2536
Vsee
p2537
atp2538
Rp2539
(dp2540
g16
VVB
p2541
sbag5
(g6
g7
(lp2542
g5
(g6
g7
(lp2543
V-LSB-
p2544
atp2545
Rp2546
(dp2547
g16
VRB
p2548
sbatp2549
Rp2550
(dp2551
g16
VADVP
p2552
sbag5
(g6
g7
(lp2553
g5
(g6
g7
(lp2554
V30
p2555
atp2556
Rp2557
(dp2558
g16
VCD
p2559
sbatp2560
Rp2561
(dp2562
g16
VNP
p2563
sbatp2564
Rp2565
(dp2566
g16
VVP
p2567
sbag5
(g6
g7
(lp2568
g251
atp2569
Rp2570
(dp2571
g16
g251
sbag5
(g6
g7
(lp2572
g5
(g6
g7
(lp2573
g5
(g6
g7
(lp2574
g5
(g6
g7
(lp2575
V3
p2576
atp2577
Rp2578
(dp2579
g16
VCD
p2580
sbag5
(g6
g7
(lp2581
V-RSB-
p2582
atp2583
Rp2584
(dp2585
g16
VCD
p2586
sbatp2587
Rp2588
(dp2589
g16
VQP
p2590
sbatp2591
Rp2592
(dp2593
g16
VNP
p2594
sbag5
(g6
g7
(lp2595
g5
(g6
g7
(lp2596
Vfor
p2597
atp2598
Rp2599
(dp2600
g16
VIN
p2601
sbag5
(g6
g7
(lp2602
g5
(g6
g7
(lp2603
g783
atp2604
Rp2605
(dp2606
g16
VDT
p2607
sbag5
(g6
g7
(lp2608
Vcomprehensive
p2609
atp2610
Rp2611
(dp2612
g16
VJJ
p2613
sbag5
(g6
g7
(lp2614
Vsurvey
p2615
atp2616
Rp2617
(dp2618
g16
VNN
p2619
sbatp2620
Rp2621
(dp2622
g16
VNP
p2623
sbatp2624
Rp2625
(dp2626
g16
VPP
p2627
sbatp2628
Rp2629
(dp2630
g16
VNP
p2631
sbatp2632
Rp2633
(dp2634
g16
VVP
p2635
sbatp2636
Rp2637
(dp2638
g16
VVP
p2639
sbatp2640
Rp2641
(dp2642
g16
g87
sbatp2643
Rp2644
(dp2645
g16
VROOT
p2646
sbasg311
(icmyPackage
CorE
p2647
(dp2648
g314
(lp2649
(I0
I9
tp2650
a(I0
I38
tp2651
asg318
g5
(g6
g7
(lp2652
g2306
ag2525
ag2565
ag2570
ag2578
atp2653
Rp2654
(dp2655
g16
g323
sbsbsg324
(icmyPackage
CorE
p2656
(dp2657
g314
(lp2658
(I0
I0
tp2659
a(I0
I7
tp2660
asg318
g5
(g6
g7
(lp2661
g2236
ag2241
ag2251
ag2259
ag2266
atp2662
Rp2663
(dp2664
g16
g323
sbsbsg334
g335
sg358
(lp2665
(isxpPackage
sxpSent
p2666
(dp2667
g362
(lp2668
I6
asg364
VOn the other end, words are represented as a very high dimensional but sparse vectors in which each entry is a measure of the association between the word and a particular context (see [ 30 , 3 ] for a comprehensive survey
p2669
sg366
I2
sg348
I11
sg367
I2
sbasba(icmyPackage
CELink
p2670
(dp2671
g3
(lp2672
g5
(g6
g7
(lp2673
g5
(g6
g7
(lp2674
g5
(g6
g7
(lp2675
g5
(g6
g7
(lp2676
VMost
p2677
atp2678
Rp2679
(dp2680
g16
VRBS
p2681
sbag5
(g6
g7
(lp2682
Vrecently
p2683
atp2684
Rp2685
(dp2686
g16
VRB
p2687
sbatp2688
Rp2689
(dp2690
g16
VADVP
p2691
sbag5
(g6
g7
(lp2692
g251
atp2693
Rp2694
(dp2695
g16
g251
sbag5
(g6
g7
(lp2696
g5
(g6
g7
(lp2697
Vit
p2698
atp2699
Rp2700
(dp2701
g16
VPRP
p2702
sbatp2703
Rp2704
(dp2705
g16
VNP
p2706
sbag5
(g6
g7
(lp2707
g5
(g6
g7
(lp2708
Vhas
p2709
atp2710
Rp2711
(dp2712
g16
VVBZ
p2713
sbag5
(g6
g7
(lp2714
g5
(g6
g7
(lp2715
Vbeen
p2716
atp2717
Rp2718
(dp2719
g16
VVBN
p2720
sbag5
(g6
g7
(lp2721
g5
(g6
g7
(lp2722
Vproposed
p2723
atp2724
Rp2725
(dp2726
g16
VVBN
p2727
sbag5
(g6
g7
(lp2728
g5
(g6
g7
(lp2729
g5
(g6
g7
(lp2730
Vto
p2731
atp2732
Rp2733
(dp2734
g16
VTO
p2735
sbag5
(g6
g7
(lp2736
g5
(g6
g7
(lp2737
Vrepresent
p2738
atp2739
Rp2740
(dp2741
g16
VVB
p2742
sbag5
(g6
g7
(lp2743
g5
(g6
g7
(lp2744
Vwords
p2745
atp2746
Rp2747
(dp2748
g16
VNNS
p2749
sbatp2750
Rp2751
(dp2752
g16
VNP
p2753
sbag5
(g6
g7
(lp2754
g5
(g6
g7
(lp2755
Vas
p2756
atp2757
Rp2758
(dp2759
g16
VIN
p2760
sbag5
(g6
g7
(lp2761
g5
(g6
g7
(lp2762
g5
(g6
g7
(lp2763
Vdense
p2764
atp2765
Rp2766
(dp2767
g16
VJJ
p2768
sbag5
(g6
g7
(lp2769
Vvectors
p2770
atp2771
Rp2772
(dp2773
g16
VNNS
p2774
sbatp2775
Rp2776
(dp2777
g16
VNP
p2778
sbag5
(g6
g7
(lp2779
g5
(g6
g7
(lp2780
g5
(g6
g7
(lp2781
Vthat
p2782
atp2783
Rp2784
(dp2785
g16
VWDT
p2786
sbatp2787
Rp2788
(dp2789
g16
VWHNP
p2790
sbag5
(g6
g7
(lp2791
g5
(g6
g7
(lp2792
g5
(g6
g7
(lp2793
Vare
p2794
atp2795
Rp2796
(dp2797
g16
VVBP
p2798
sbag5
(g6
g7
(lp2799
g5
(g6
g7
(lp2800
Vderived
p2801
atp2802
Rp2803
(dp2804
g16
VVBN
p2805
sbag5
(g6
g7
(lp2806
g5
(g6
g7
(lp2807
Vby
p2808
atp2809
Rp2810
(dp2811
g16
VIN
p2812
sbag5
(g6
g7
(lp2813
g5
(g6
g7
(lp2814
g5
(g6
g7
(lp2815
Vvarious
p2816
atp2817
Rp2818
(dp2819
g16
VJJ
p2820
sbag5
(g6
g7
(lp2821
Vtraining
p2822
atp2823
Rp2824
(dp2825
g16
VNN
p2826
sbag5
(g6
g7
(lp2827
Vmethods
p2828
atp2829
Rp2830
(dp2831
g16
VNNS
p2832
sbatp2833
Rp2834
(dp2835
g16
VNP
p2836
sbag5
(g6
g7
(lp2837
g5
(g6
g7
(lp2838
Vinspired
p2839
atp2840
Rp2841
(dp2842
g16
VVBN
p2843
sbag5
(g6
g7
(lp2844
g5
(g6
g7
(lp2845
Vfrom
p2846
atp2847
Rp2848
(dp2849
g16
VIN
p2850
sbag5
(g6
g7
(lp2851
g5
(g6
g7
(lp2852
Vneural-network
p2853
atp2854
Rp2855
(dp2856
g16
VJJ
p2857
sbag5
(g6
g7
(lp2858
Vlanguage
p2859
atp2860
Rp2861
(dp2862
g16
VNN
p2863
sbatp2864
Rp2865
(dp2866
g16
VNP
p2867
sbatp2868
Rp2869
(dp2870
g16
VPP
p2871
sbag5
(g6
g7
(lp2872
g5
(g6
g7
(lp2873
g5
(g6
g7
(lp2874
Vmodeling
p2875
atp2876
Rp2877
(dp2878
g16
VNNP
p2879
sbag5
(g6
g7
(lp2880
V-LSB-
p2881
atp2882
Rp2883
(dp2884
g16
VNNP
p2885
sbag5
(g6
g7
(lp2886
V4
p2887
atp2888
Rp2889
(dp2890
g16
VCD
p2891
sbag5
(g6
g7
(lp2892
g251
atp2893
Rp2894
(dp2895
g16
g251
sbag5
(g6
g7
(lp2896
V10
p2897
atp2898
Rp2899
(dp2900
g16
VCD
p2901
sbag5
(g6
g7
(lp2902
g251
atp2903
Rp2904
(dp2905
g16
g251
sbag5
(g6
g7
(lp2906
V23
p2907
atp2908
Rp2909
(dp2910
g16
VCD
p2911
sbag5
(g6
g7
(lp2912
g251
atp2913
Rp2914
(dp2915
g16
g251
sbag5
(g6
g7
(lp2916
V20
p2917
atp2918
Rp2919
(dp2920
g16
VCD
p2921
sbag5
(g6
g7
(lp2922
g251
atp2923
Rp2924
(dp2925
g16
g251
sbag5
(g6
g7
(lp2926
V21
p2927
atp2928
Rp2929
(dp2930
g16
VCD
p2931
sbatp2932
Rp2933
(dp2934
g16
VNP
p2935
sbag5
(g6
g7
(lp2936
g5
(g6
g7
(lp2937
V-RSB-
p2938
atp2939
Rp2940
(dp2941
g16
VRB
p2942
sbatp2943
Rp2944
(dp2945
g16
VADVP
p2946
sbatp2947
Rp2948
(dp2949
g16
VNP
p2950
sbatp2951
Rp2952
(dp2953
g16
VVP
p2954
sbatp2955
Rp2956
(dp2957
g16
VNP
p2958
sbatp2959
Rp2960
(dp2961
g16
VPP
p2962
sbatp2963
Rp2964
(dp2965
g16
VVP
p2966
sbatp2967
Rp2968
(dp2969
g16
VVP
p2970
sbatp2971
Rp2972
(dp2973
g16
g87
sbatp2974
Rp2975
(dp2976
g16
VSBAR
p2977
sbatp2978
Rp2979
(dp2980
g16
VNP
p2981
sbatp2982
Rp2983
(dp2984
g16
VPP
p2985
sbatp2986
Rp2987
(dp2988
g16
VVP
p2989
sbatp2990
Rp2991
(dp2992
g16
VVP
p2993
sbatp2994
Rp2995
(dp2996
g16
g87
sbatp2997
Rp2998
(dp2999
g16
VVP
p3000
sbatp3001
Rp3002
(dp3003
g16
VVP
p3004
sbatp3005
Rp3006
(dp3007
g16
VVP
p3008
sbatp3009
Rp3010
(dp3011
g16
g87
sbatp3012
Rp3013
(dp3014
g16
VROOT
p3015
sbasg311
(icmyPackage
CorE
p3016
(dp3017
g314
(lp3018
(I0
I11
tp3019
a(I0
I34
tp3020
asg318
g5
(g6
g7
(lp3021
g2776
ag2788
ag2796
ag2803
ag2810
ag2834
ag2841
ag2869
ag2933
atp3022
Rp3023
(dp3024
g16
g323
sbsbsg324
(icmyPackage
CorE
p3025
(dp3026
g314
(lp3027
(I0
I0
tp3028
a(I0
I9
tp3029
asg318
g5
(g6
g7
(lp3030
g2689
ag2694
ag2704
ag2711
ag2718
ag2725
ag2733
ag2740
ag2751
atp3031
Rp3032
(dp3033
g16
g323
sbsbsg334
g335
sg358
(lp3034
(isxpPackage
sxpSent
p3035
(dp3036
g362
(lp3037
I7
aI8
asg364
VMost recently, it has been proposed to represent words as dense vectors that are derived by various training methods inspired from neural-network language modeling [ 4 , 10 , 23 , 20 , 21 ]
p3038
sg366
I2
sg348
I13
sg367
I2
sbasba(icmyPackage
CELink
p3039
(dp3040
g3
(lp3041
g3013
ag5
(g6
g7
(lp3042
g5
(g6
g7
(lp3043
g5
(g6
g7
(lp3044
g5
(g6
g7
(lp3045
g5
(g6
g7
(lp3046
VThese
p3047
atp3048
Rp3049
(dp3050
g16
VDT
p3051
sbag5
(g6
g7
(lp3052
Vrepresentations
p3053
atp3054
Rp3055
(dp3056
g16
VNNS
p3057
sbatp3058
Rp3059
(dp3060
g16
VNP
p3061
sbag5
(g6
g7
(lp3062
g251
atp3063
Rp3064
(dp3065
g16
g251
sbag5
(g6
g7
(lp3066
g5
(g6
g7
(lp3067
Vreferred
p3068
atp3069
Rp3070
(dp3071
g16
VVBN
p3072
sbag5
(g6
g7
(lp3073
g5
(g6
g7
(lp3074
Vto
p3075
atp3076
Rp3077
(dp3078
g16
VTO
p3079
sbag5
(g6
g7
(lp3080
g5
(g6
g7
(lp3081
Vas
p3082
atp3083
Rp3084
(dp3085
g16
VIN
p3086
sbag5
(g6
g7
(lp3087
g5
(g6
g7
(lp3088
g5
(g6
g7
(lp3089
g5
(g6
g7
(lp3090
g5
(g6
g7
(lp3091
g449
atp3092
Rp3093
(dp3094
g16
VNNP
p3095
sbag5
(g6
g7
(lp3096
g459
atp3097
Rp3098
(dp3099
g16
VPOS
p3100
sbatp3101
Rp3102
(dp3103
g16
VNP
p3104
sbag5
(g6
g7
(lp3105
V\u005c
p3106
atp3107
Rp3108
(dp3109
g16
VCD
p3110
sbag5
(g6
g7
(lp3111
Vu201c
p3112
atp3113
Rp3114
(dp3115
g16
VJJ
p3116
sbag5
(g6
g7
(lp3117
g459
atp3118
Rp3119
(dp3120
g16
V''
p3121
sbag5
(g6
g7
(lp3122
Vneural
p3123
atp3124
Rp3125
(dp3126
g16
VNN
p3127
sbag5
(g6
g7
(lp3128
Vembeddings
p3129
atp3130
Rp3131
(dp3132
g16
VNNS
p3133
sbatp3134
Rp3135
(dp3136
g16
VNP
p3137
sbag5
(g6
g7
(lp3138
g5
(g6
g7
(lp3139
g449
atp3140
Rp3141
(dp3142
g16
VVBP
p3143
sbag5
(g6
g7
(lp3144
g459
atp3145
Rp3146
(dp3147
g16
V''
p3148
sbag5
(g6
g7
(lp3149
g5
(g6
g7
(lp3150
V\u005c
p3151
atp3152
Rp3153
(dp3154
g16
VJJ
p3155
sbag5
(g6
g7
(lp3156
Vu201d
p3157
atp3158
Rp3159
(dp3160
g16
VNNS
p3161
sbatp3162
Rp3163
(dp3164
g16
VNP
p3165
sbag5
(g6
g7
(lp3166
g459
atp3167
Rp3168
(dp3169
g16
V''
p3170
sbatp3171
Rp3172
(dp3173
g16
VVP
p3174
sbatp3175
Rp3176
(dp3177
g16
g87
sbag5
(g6
g7
(lp3178
Vor
p3179
atp3180
Rp3181
(dp3182
g16
VCC
p3183
sbag5
(g6
g7
(lp3184
g5
(g6
g7
(lp3185
g5
(g6
g7
(lp3186
g5
(g6
g7
(lp3187
g449
atp3188
Rp3189
(dp3190
g16
VNNP
p3191
sbag5
(g6
g7
(lp3192
g459
atp3193
Rp3194
(dp3195
g16
VPOS
p3196
sbatp3197
Rp3198
(dp3199
g16
VNP
p3200
sbag5
(g6
g7
(lp3201
V\u005c
p3202
atp3203
Rp3204
(dp3205
g16
VCD
p3206
sbag5
(g6
g7
(lp3207
Vu201c
p3208
atp3209
Rp3210
(dp3211
g16
VJJ
p3212
sbag5
(g6
g7
(lp3213
g459
atp3214
Rp3215
(dp3216
g16
V''
p3217
sbag5
(g6
g7
(lp3218
Vword
p3219
atp3220
Rp3221
(dp3222
g16
VNN
p3223
sbag5
(g6
g7
(lp3224
Vembeddings
p3225
atp3226
Rp3227
(dp3228
g16
VNNS
p3229
sbatp3230
Rp3231
(dp3232
g16
VNP
p3233
sbag5
(g6
g7
(lp3234
g5
(g6
g7
(lp3235
g449
atp3236
Rp3237
(dp3238
g16
VVBP
p3239
sbag5
(g6
g7
(lp3240
g459
atp3241
Rp3242
(dp3243
g16
V''
p3244
sbag5
(g6
g7
(lp3245
g5
(g6
g7
(lp3246
V\u005c
p3247
atp3248
Rp3249
(dp3250
g16
VJJ
p3251
sbag5
(g6
g7
(lp3252
Vu201d
p3253
atp3254
Rp3255
(dp3256
g16
VNNS
p3257
sbatp3258
Rp3259
(dp3260
g16
VNP
p3261
sbag5
(g6
g7
(lp3262
g459
atp3263
Rp3264
(dp3265
g16
V''
p3266
sbatp3267
Rp3268
(dp3269
g16
VVP
p3270
sbatp3271
Rp3272
(dp3273
g16
g87
sbatp3274
Rp3275
(dp3276
g16
g87
sbatp3277
Rp3278
(dp3279
g16
VSBAR
p3280
sbatp3281
Rp3282
(dp3283
g16
VPP
p3284
sbatp3285
Rp3286
(dp3287
g16
VVP
p3288
sbag5
(g6
g7
(lp3289
g251
atp3290
Rp3291
(dp3292
g16
g251
sbatp3293
Rp3294
(dp3295
g16
VNP
p3296
sbag5
(g6
g7
(lp3297
g5
(g6
g7
(lp3298
Vhave
p3299
atp3300
Rp3301
(dp3302
g16
VVBP
p3303
sbag5
(g6
g7
(lp3304
g5
(g6
g7
(lp3305
Vbeen
p3306
atp3307
Rp3308
(dp3309
g16
VVBN
p3310
sbag5
(g6
g7
(lp3311
g5
(g6
g7
(lp3312
Vshown
p3313
atp3314
Rp3315
(dp3316
g16
VVBN
p3317
sbag5
(g6
g7
(lp3318
g5
(g6
g7
(lp3319
g5
(g6
g7
(lp3320
Vto
p3321
atp3322
Rp3323
(dp3324
g16
VTO
p3325
sbag5
(g6
g7
(lp3326
g5
(g6
g7
(lp3327
Vperform
p3328
atp3329
Rp3330
(dp3331
g16
VVB
p3332
sbag5
(g6
g7
(lp3333
g5
(g6
g7
(lp3334
Vwell
p3335
atp3336
Rp3337
(dp3338
g16
VRB
p3339
sbatp3340
Rp3341
(dp3342
g16
VADVP
p3343
sbag5
(g6
g7
(lp3344
g5
(g6
g7
(lp3345
Vacross
p3346
atp3347
Rp3348
(dp3349
g16
VIN
p3350
sbag5
(g6
g7
(lp3351
g5
(g6
g7
(lp3352
g5
(g6
g7
(lp3353
g783
atp3354
Rp3355
(dp3356
g16
VDT
p3357
sbag5
(g6
g7
(lp3358
Vvariety
p3359
atp3360
Rp3361
(dp3362
g16
VNN
p3363
sbatp3364
Rp3365
(dp3366
g16
VNP
p3367
sbag5
(g6
g7
(lp3368
g5
(g6
g7
(lp3369
Vof
p3370
atp3371
Rp3372
(dp3373
g16
VIN
p3374
sbag5
(g6
g7
(lp3375
g5
(g6
g7
(lp3376
g5
(g6
g7
(lp3377
Vtasks
p3378
atp3379
Rp3380
(dp3381
g16
VNNP
p3382
sbag5
(g6
g7
(lp3383
V-LSB-
p3384
atp3385
Rp3386
(dp3387
g16
VNNP
p3388
sbag5
(g6
g7
(lp3389
V29
p3390
atp3391
Rp3392
(dp3393
g16
VCD
p3394
sbag5
(g6
g7
(lp3395
g251
atp3396
Rp3397
(dp3398
g16
g251
sbag5
(g6
g7
(lp3399
V9
p3400
atp3401
Rp3402
(dp3403
g16
VCD
p3404
sbag5
(g6
g7
(lp3405
g251
atp3406
Rp3407
(dp3408
g16
g251
sbag5
(g6
g7
(lp3409
V26
p3410
atp3411
Rp3412
(dp3413
g16
VCD
p3414
sbag5
(g6
g7
(lp3415
g251
atp3416
Rp3417
(dp3418
g16
g251
sbag5
(g6
g7
(lp3419
V2
p3420
atp3421
Rp3422
(dp3423
g16
VCD
p3424
sbatp3425
Rp3426
(dp3427
g16
VNP
p3428
sbag5
(g6
g7
(lp3429
g5
(g6
g7
(lp3430
V-RSB-
p3431
atp3432
Rp3433
(dp3434
g16
VVBN
p3435
sbatp3436
Rp3437
(dp3438
g16
VVP
p3439
sbatp3440
Rp3441
(dp3442
g16
VNP
p3443
sbatp3444
Rp3445
(dp3446
g16
VPP
p3447
sbatp3448
Rp3449
(dp3450
g16
VNP
p3451
sbatp3452
Rp3453
(dp3454
g16
VPP
p3455
sbatp3456
Rp3457
(dp3458
g16
VVP
p3459
sbatp3460
Rp3461
(dp3462
g16
VVP
p3463
sbatp3464
Rp3465
(dp3466
g16
g87
sbatp3467
Rp3468
(dp3469
g16
VVP
p3470
sbatp3471
Rp3472
(dp3473
g16
VVP
p3474
sbatp3475
Rp3476
(dp3477
g16
VVP
p3478
sbatp3479
Rp3480
(dp3481
g16
g87
sbatp3482
Rp3483
(dp3484
g16
VROOT
p3485
sbasg311
(icmyPackage
CorE
p3486
(dp3487
g314
(lp3488
(I1
I6
tp3489
a(I1
I45
tp3490
asg318
g5
(g6
g7
(lp3491
g3275
ag3291
ag3301
ag3308
ag3315
ag3323
ag3330
ag3341
ag3348
ag3365
ag3372
ag3380
ag3386
ag3392
ag3397
atp3492
Rp3493
(dp3494
g16
g323
sbsbsg324
(icmyPackage
CorE
p3495
(dp3496
g314
(lp3497
(I0
I0
tp3498
a(I1
I4
tp3499
asg318
g5
(g6
g7
(lp3500
g3013
ag3059
ag3064
ag3070
ag3077
atp3501
Rp3502
(dp3503
g16
g323
sbsbsg334
g335
sg358
(lp3504
g3035
a(isxpPackage
sxpSent
p3505
(dp3506
g362
(lp3507
I8
asg364
VThese representations, referred to as u'\u005cu201c' neural embeddings u'\u005cu201d' or u'\u005cu201c' word embeddings u'\u005cu201d' , have been shown to perform well across a variety of tasks [ 29 , 9 , 26 , 2 ]
p3508
sg366
I2
sg348
I14
sg367
I2
sbasba(icmyPackage
CELink
p3509
(dp3510
g3
(lp3511
g5
(g6
g7
(lp3512
g5
(g6
g7
(lp3513
g5
(g6
g7
(lp3514
g5
(g6
g7
(lp3515
VWord
p3516
atp3517
Rp3518
(dp3519
g16
VJJ
p3520
sbag5
(g6
g7
(lp3521
Vembeddings
p3522
atp3523
Rp3524
(dp3525
g16
VNNS
p3526
sbatp3527
Rp3528
(dp3529
g16
VNP
p3530
sbag5
(g6
g7
(lp3531
g5
(g6
g7
(lp3532
Vare
p3533
atp3534
Rp3535
(dp3536
g16
VVBP
p3537
sbag5
(g6
g7
(lp3538
g5
(g6
g7
(lp3539
Veasy
p3540
atp3541
Rp3542
(dp3543
g16
VJJ
p3544
sbag5
(g6
g7
(lp3545
g5
(g6
g7
(lp3546
g5
(g6
g7
(lp3547
Vto
p3548
atp3549
Rp3550
(dp3551
g16
VTO
p3552
sbag5
(g6
g7
(lp3553
g5
(g6
g7
(lp3554
Vwork
p3555
atp3556
Rp3557
(dp3558
g16
VVB
p3559
sbag5
(g6
g7
(lp3560
g5
(g6
g7
(lp3561
Vwith
p3562
atp3563
Rp3564
(dp3565
g16
VIN
p3566
sbag5
(g6
g7
(lp3567
g5
(g6
g7
(lp3568
Vbecause
p3569
atp3570
Rp3571
(dp3572
g16
VIN
p3573
sbag5
(g6
g7
(lp3574
g5
(g6
g7
(lp3575
g5
(g6
g7
(lp3576
Vthey
p3577
atp3578
Rp3579
(dp3580
g16
VPRP
p3581
sbatp3582
Rp3583
(dp3584
g16
VNP
p3585
sbag5
(g6
g7
(lp3586
g5
(g6
g7
(lp3587
Venable
p3588
atp3589
Rp3590
(dp3591
g16
VVBP
p3592
sbag5
(g6
g7
(lp3593
g5
(g6
g7
(lp3594
g5
(g6
g7
(lp3595
Vefficient
p3596
atp3597
Rp3598
(dp3599
g16
VJJ
p3600
sbag5
(g6
g7
(lp3601
Vcomputation
p3602
atp3603
Rp3604
(dp3605
g16
VNN
p3606
sbatp3607
Rp3608
(dp3609
g16
VNP
p3610
sbag5
(g6
g7
(lp3611
g5
(g6
g7
(lp3612
Vof
p3613
atp3614
Rp3615
(dp3616
g16
VIN
p3617
sbag5
(g6
g7
(lp3618
g5
(g6
g7
(lp3619
Vword
p3620
atp3621
Rp3622
(dp3623
g16
VNN
p3624
sbag5
(g6
g7
(lp3625
Vsimilarities
p3626
atp3627
Rp3628
(dp3629
g16
VNNS
p3630
sbatp3631
Rp3632
(dp3633
g16
VNP
p3634
sbatp3635
Rp3636
(dp3637
g16
VPP
p3638
sbatp3639
Rp3640
(dp3641
g16
VNP
p3642
sbag5
(g6
g7
(lp3643
g5
(g6
g7
(lp3644
Vthrough
p3645
atp3646
Rp3647
(dp3648
g16
VIN
p3649
sbag5
(g6
g7
(lp3650
g5
(g6
g7
(lp3651
Vlow-dimensional
p3652
atp3653
Rp3654
(dp3655
g16
VJJ
p3656
sbag5
(g6
g7
(lp3657
Vmatrix
p3658
atp3659
Rp3660
(dp3661
g16
VNN
p3662
sbag5
(g6
g7
(lp3663
Voperations
p3664
atp3665
Rp3666
(dp3667
g16
VNNS
p3668
sbatp3669
Rp3670
(dp3671
g16
VNP
p3672
sbatp3673
Rp3674
(dp3675
g16
VPP
p3676
sbatp3677
Rp3678
(dp3679
g16
VVP
p3680
sbatp3681
Rp3682
(dp3683
g16
g87
sbatp3684
Rp3685
(dp3686
g16
VSBAR
p3687
sbatp3688
Rp3689
(dp3690
g16
VPP
p3691
sbatp3692
Rp3693
(dp3694
g16
VVP
p3695
sbatp3696
Rp3697
(dp3698
g16
VVP
p3699
sbatp3700
Rp3701
(dp3702
g16
g87
sbatp3703
Rp3704
(dp3705
g16
VADJP
p3706
sbatp3707
Rp3708
(dp3709
g16
VVP
p3710
sbatp3711
Rp3712
(dp3713
g16
g87
sbatp3714
Rp3715
(dp3716
g16
VROOT
p3717
sbasg311
(icmyPackage
CorE
p3718
(dp3719
g314
(lp3720
(I0
I8
tp3721
a(I0
I18
tp3722
asg318
g3682
sbsg324
(icmyPackage
CorE
p3723
(dp3724
g314
(lp3725
(I0
I0
tp3726
a(I0
I6
tp3727
asg318
g5
(g6
g7
(lp3728
g3528
ag3535
ag3542
ag3550
ag3557
ag3564
atp3729
Rp3730
(dp3731
g16
g323
sbsbsg334
(icmyPackage
pattern
p3732
(dp3733
g337
I407
sg338
I1
sg339
(lp3734
(lp3735
S'because'
p3736
aasg343
(lp3737
I3
aI1
aI1
asg345
(lp3738
S'It ends up in burnout and less production, because we inevitably run out of energy.'
p3739
asg348
I76
sg349
(lp3740
(lp3741
S'&R'
p3742
aS'(,)'
p3743
aS'(&ADV)'
p3744
aa(lp3745
S'&C'
p3746
aasbsg358
(lp3747
(isxpPackage
sxpSent
p3748
(dp3749
g362
(lp3750
I9
asg364
VWord embeddings are easy to work with because they enable efficient computation of word similarities through low-dimensional matrix operations
p3751
sg366
I2
sg348
I15
sg367
I3
sbasba(icmyPackage
CELink
p3752
(dp3753
g3
(lp3754
g5
(g6
g7
(lp3755
g5
(g6
g7
(lp3756
g5
(g6
g7
(lp3757
g5
(g6
g7
(lp3758
VIn
p3759
atp3760
Rp3761
(dp3762
g16
VIN
p3763
sbag5
(g6
g7
(lp3764
g5
(g6
g7
(lp3765
VSection
p3766
atp3767
Rp3768
(dp3769
g16
VNNP
p3770
sbag5
(g6
g7
(lp3771
g2100
atp3772
Rp3773
(dp3774
g16
VCD
p3775
sbatp3776
Rp3777
(dp3778
g16
VNP
p3779
sbatp3780
Rp3781
(dp3782
g16
VPP
p3783
sbag5
(g6
g7
(lp3784
g5
(g6
g7
(lp3785
Vwe
p3786
atp3787
Rp3788
(dp3789
g16
VPRP
p3790
sbatp3791
Rp3792
(dp3793
g16
VNP
p3794
sbag5
(g6
g7
(lp3795
g5
(g6
g7
(lp3796
Vshow
p3797
atp3798
Rp3799
(dp3800
g16
VVBP
p3801
sbag5
(g6
g7
(lp3802
g5
(g6
g7
(lp3803
Vthat
p3804
atp3805
Rp3806
(dp3807
g16
VIN
p3808
sbag5
(g6
g7
(lp3809
g5
(g6
g7
(lp3810
g5
(g6
g7
(lp3811
Vthe
p3812
atp3813
Rp3814
(dp3815
g16
VDT
p3816
sbag5
(g6
g7
(lp3817
VSkipGram
p3818
atp3819
Rp3820
(dp3821
g16
VNNP
p3822
sbag5
(g6
g7
(lp3823
Vmodel
p3824
atp3825
Rp3826
(dp3827
g16
VNN
p3828
sbatp3829
Rp3830
(dp3831
g16
VNP
p3832
sbag5
(g6
g7
(lp3833
g5
(g6
g7
(lp3834
Vdoes
p3835
atp3836
Rp3837
(dp3838
g16
VVBZ
p3839
sbag5
(g6
g7
(lp3840
g5
(g6
g7
(lp3841
Vallow
p3842
atp3843
Rp3844
(dp3845
g16
VVB
p3846
sbag5
(g6
g7
(lp3847
g5
(g6
g7
(lp3848
Vfor
p3849
atp3850
Rp3851
(dp3852
g16
VIN
p3853
sbag5
(g6
g7
(lp3854
g5
(g6
g7
(lp3855
Vsome
p3856
atp3857
Rp3858
(dp3859
g16
VDT
p3860
sbag5
(g6
g7
(lp3861
Vintrospection
p3862
atp3863
Rp3864
(dp3865
g16
VNN
p3866
sbatp3867
Rp3868
(dp3869
g16
VNP
p3870
sbatp3871
Rp3872
(dp3873
g16
VPP
p3874
sbag5
(g6
g7
(lp3875
g5
(g6
g7
(lp3876
Vby
p3877
atp3878
Rp3879
(dp3880
g16
VIN
p3881
sbag5
(g6
g7
(lp3882
g5
(g6
g7
(lp3883
g5
(g6
g7
(lp3884
Vquerying
p3885
atp3886
Rp3887
(dp3888
g16
VVBG
p3889
sbag5
(g6
g7
(lp3890
g5
(g6
g7
(lp3891
Vit
p3892
atp3893
Rp3894
(dp3895
g16
VPRP
p3896
sbatp3897
Rp3898
(dp3899
g16
VNP
p3900
sbag5
(g6
g7
(lp3901
g5
(g6
g7
(lp3902
Vfor
p3903
atp3904
Rp3905
(dp3906
g16
VIN
p3907
sbag5
(g6
g7
(lp3908
g5
(g6
g7
(lp3909
g5
(g6
g7
(lp3910
Vcontexts
p3911
atp3912
Rp3913
(dp3914
g16
VNNS
p3915
sbatp3916
Rp3917
(dp3918
g16
VNP
p3919
sbag5
(g6
g7
(lp3920
g5
(g6
g7
(lp3921
g5
(g6
g7
(lp3922
Vthat
p3923
atp3924
Rp3925
(dp3926
g16
VWDT
p3927
sbatp3928
Rp3929
(dp3930
g16
VWHNP
p3931
sbag5
(g6
g7
(lp3932
g5
(g6
g7
(lp3933
g5
(g6
g7
(lp3934
Vare
p3935
atp3936
Rp3937
(dp3938
g16
VVBP
p3939
sbag5
(g6
g7
(lp3940
g5
(g6
g7
(lp3941
g449
atp3942
Rp3943
(dp3944
g16
VVBG
p3945
sbag5
(g6
g7
(lp3946
g459
atp3947
Rp3948
(dp3949
g16
V''
p3950
sbag5
(g6
g7
(lp3951
g5
(g6
g7
(lp3952
g5
(g6
g7
(lp3953
V\u005c
p3954
atp3955
Rp3956
(dp3957
g16
VNNP
p3958
sbag5
(g6
g7
(lp3959
Vu201c
p3960
atp3961
Rp3962
(dp3963
g16
VNNP
p3964
sbag5
(g6
g7
(lp3965
g459
atp3966
Rp3967
(dp3968
g16
VPOS
p3969
sbatp3970
Rp3971
(dp3972
g16
VNP
p3973
sbag5
(g6
g7
(lp3974
Vactivated
p3975
atp3976
Rp3977
(dp3978
g16
VNN
p3979
sbatp3980
Rp3981
(dp3982
g16
VNP
p3983
sbag5
(g6
g7
(lp3984
g5
(g6
g7
(lp3985
Vby
p3986
atp3987
Rp3988
(dp3989
g16
VIN
p3990
sbag5
(g6
g7
(lp3991
g5
(g6
g7
(lp3992
g5
(g6
g7
(lp3993
g449
atp3994
Rp3995
(dp3996
g16
VNNP
p3997
sbag5
(g6
g7
(lp3998
g459
atp3999
Rp4000
(dp4001
g16
VPOS
p4002
sbatp4003
Rp4004
(dp4005
g16
VNP
p4006
sbag5
(g6
g7
(lp4007
V\u005c
p4008
atp4009
Rp4010
(dp4011
g16
VJJ
p4012
sbag5
(g6
g7
(lp4013
Vu201d
p4014
atp4015
Rp4016
(dp4017
g16
VNNS
p4018
sbatp4019
Rp4020
(dp4021
g16
VNP
p4022
sbatp4023
Rp4024
(dp4025
g16
VPP
p4026
sbag5
(g6
g7
(lp4027
g459
atp4028
Rp4029
(dp4030
g16
V''
p4031
sbag5
(g6
g7
(lp4032
g5
(g6
g7
(lp4033
g783
atp4034
Rp4035
(dp4036
g16
VDT
p4037
sbag5
(g6
g7
(lp4038
Vtarget
p4039
atp4040
Rp4041
(dp4042
g16
VNN
p4043
sbag5
(g6
g7
(lp4044
Vword
p4045
atp4046
Rp4047
(dp4048
g16
VNN
p4049
sbatp4050
Rp4051
(dp4052
g16
VNP
p4053
sbatp4054
Rp4055
(dp4056
g16
VVP
p4057
sbatp4058
Rp4059
(dp4060
g16
VVP
p4061
sbatp4062
Rp4063
(dp4064
g16
g87
sbatp4065
Rp4066
(dp4067
g16
VSBAR
p4068
sbatp4069
Rp4070
(dp4071
g16
VNP
p4072
sbatp4073
Rp4074
(dp4075
g16
VPP
p4076
sbatp4077
Rp4078
(dp4079
g16
VVP
p4080
sbatp4081
Rp4082
(dp4083
g16
g87
sbatp4084
Rp4085
(dp4086
g16
VPP
p4087
sbatp4088
Rp4089
(dp4090
g16
VVP
p4091
sbatp4092
Rp4093
(dp4094
g16
VVP
p4095
sbatp4096
Rp4097
(dp4098
g16
g87
sbatp4099
Rp4100
(dp4101
g16
VSBAR
p4102
sbatp4103
Rp4104
(dp4105
g16
VVP
p4106
sbatp4107
Rp4108
(dp4109
g16
g87
sbatp4110
Rp4111
(dp4112
g16
VROOT
p4113
sbasg311
(icmyPackage
CorE
p4114
(dp4115
g314
(lp4116
(I0
I15
tp4117
a(I0
I35
tp4118
asg318
g4082
sbsg324
(icmyPackage
CorE
p4119
(dp4120
g314
(lp4121
(I0
I0
tp4122
a(I0
I13
tp4123
asg318
g5
(g6
g7
(lp4124
g3781
ag3792
ag3799
ag3806
ag3830
ag3837
ag3844
ag3872
atp4125
Rp4126
(dp4127
g16
g323
sbsbsg334
(icmyPackage
pattern
p4128
(dp4129
g337
I0
sg338
I0
sg339
(lp4130
(lp4131
(lp4132
S'by'
p4133
aS'through'
p4134
aaasg343
(lp4135
I2
aI1
aI1
asg345
(lp4136
S'The similar relation can be detected by analyzing the contents of nodes based on such approaches as the Latent Semantic Analysis (LSA) and the Vector Space Model (VSM)'
p4137
asg348
I68
sg349
(lp4138
(lp4139
S'&R@Complete@'
p4140
aa(lp4141
S'&V-ing@C@'
p4142
aasbsg358
(lp4143
(isxpPackage
sxpSent
p4144
(dp4145
g362
(lp4146
I10
asg364
VIn Section 5 we show that the SkipGram model does allow for some introspection by querying it for contexts that are u'\u005cu201c' activated by u'\u005cu201d' a target word
p4147
sg366
I2
sg348
I27
sg367
I7
sbasba(icmyPackage
CELink
p4148
(dp4149
g3
(lp4150
g5
(g6
g7
(lp4151
g5
(g6
g7
(lp4152
g5
(g6
g7
(lp4153
g5
(g6
g7
(lp4154
VIn
p4155
atp4156
Rp4157
(dp4158
g16
VIN
p4159
sbag5
(g6
g7
(lp4160
g5
(g6
g7
(lp4161
Vthe
p4162
atp4163
Rp4164
(dp4165
g16
VDT
p4166
sbag5
(g6
g7
(lp4167
Vskip-gram
p4168
atp4169
Rp4170
(dp4171
g16
VJJ
p4172
sbag5
(g6
g7
(lp4173
Vmodel
p4174
atp4175
Rp4176
(dp4177
g16
VNN
p4178
sbatp4179
Rp4180
(dp4181
g16
VNP
p4182
sbatp4183
Rp4184
(dp4185
g16
VPP
p4186
sbag5
(g6
g7
(lp4187
g5
(g6
g7
(lp4188
g251
atp4189
Rp4190
(dp4191
g16
g251
sbag5
(g6
g7
(lp4192
g5
(g6
g7
(lp4193
g5
(g6
g7
(lp4194
g5
(g6
g7
(lp4195
g5
(g6
g7
(lp4196
Veach
p4197
atp4198
Rp4199
(dp4200
g16
VDT
p4201
sbag5
(g6
g7
(lp4202
Vword
p4203
atp4204
Rp4205
(dp4206
g16
VNN
p4207
sbag5
(g6
g7
(lp4208
Vw
p4209
atp4210
Rp4211
(dp4212
g16
VNN
p4213
sbag5
(g6
g7
(lp4214
g449
atp4215
Rp4216
(dp4217
g16
VNN
p4218
sbag5
(g6
g7
(lp4219
g459
atp4220
Rp4221
(dp4222
g16
VPOS
p4223
sbatp4224
Rp4225
(dp4226
g16
VNP
p4227
sbag5
(g6
g7
(lp4228
V\u005c
p4229
atp4230
Rp4231
(dp4232
g16
VJJ
p4233
sbag5
(g6
g7
(lp4234
g5
(g6
g7
(lp4235
Vu2208
p4236
atp4237
Rp4238
(dp4239
g16
VNNP
p4240
sbag5
(g6
g7
(lp4241
g459
atp4242
Rp4243
(dp4244
g16
VPOS
p4245
sbatp4246
Rp4247
(dp4248
g16
VNP
p4249
sbag5
(g6
g7
(lp4250
VW
p4251
atp4252
Rp4253
(dp4254
g16
VNNP
p4255
sbatp4256
Rp4257
(dp4258
g16
VNP
p4259
sbag5
(g6
g7
(lp4260
g5
(g6
g7
(lp4261
Vis
p4262
atp4263
Rp4264
(dp4265
g16
VVBZ
p4266
sbag5
(g6
g7
(lp4267
g5
(g6
g7
(lp4268
Vassociated
p4269
atp4270
Rp4271
(dp4272
g16
VVBN
p4273
sbag5
(g6
g7
(lp4274
g5
(g6
g7
(lp4275
Vwith
p4276
atp4277
Rp4278
(dp4279
g16
VIN
p4280
sbag5
(g6
g7
(lp4281
g5
(g6
g7
(lp4282
g5
(g6
g7
(lp4283
g783
atp4284
Rp4285
(dp4286
g16
VDT
p4287
sbag5
(g6
g7
(lp4288
Vvector
p4289
atp4290
Rp4291
(dp4292
g16
VJJ
p4293
sbag5
(g6
g7
(lp4294
Vv
p4295
atp4296
Rp4297
(dp4298
g16
VNN
p4299
sbag5
(g6
g7
(lp4300
g4209
atp4301
Rp4302
(dp4303
g16
VNN
p4304
sbag5
(g6
g7
(lp4305
g449
atp4306
Rp4307
(dp4308
g16
VNN
p4309
sbag5
(g6
g7
(lp4310
g459
atp4311
Rp4312
(dp4313
g16
VPOS
p4314
sbatp4315
Rp4316
(dp4317
g16
VNP
p4318
sbag5
(g6
g7
(lp4319
V\u005c
p4320
atp4321
Rp4322
(dp4323
g16
VCD
p4324
sbag5
(g6
g7
(lp4325
g5
(g6
g7
(lp4326
Vu2208
p4327
atp4328
Rp4329
(dp4330
g16
VNNP
p4331
sbag5
(g6
g7
(lp4332
g459
atp4333
Rp4334
(dp4335
g16
VPOS
p4336
sbatp4337
Rp4338
(dp4339
g16
VNP
p4340
sbag5
(g6
g7
(lp4341
VR
p4342
atp4343
Rp4344
(dp4345
g16
VNN
p4346
sbag5
(g6
g7
(lp4347
Vd
p4348
atp4349
Rp4350
(dp4351
g16
VNNS
p4352
sbatp4353
Rp4354
(dp4355
g16
VNP
p4356
sbatp4357
Rp4358
(dp4359
g16
VPP
p4360
sbatp4361
Rp4362
(dp4363
g16
VVP
p4364
sbatp4365
Rp4366
(dp4367
g16
VVP
p4368
sbatp4369
Rp4370
(dp4371
g16
g87
sbag5
(g6
g7
(lp4372
Vand
p4373
atp4374
Rp4375
(dp4376
g16
VCC
p4377
sbag5
(g6
g7
(lp4378
g5
(g6
g7
(lp4379
g5
(g6
g7
(lp4380
Vsimilarly
p4381
atp4382
Rp4383
(dp4384
g16
VRB
p4385
sbatp4386
Rp4387
(dp4388
g16
VADVP
p4389
sbag5
(g6
g7
(lp4390
g5
(g6
g7
(lp4391
g5
(g6
g7
(lp4392
Veach
p4393
atp4394
Rp4395
(dp4396
g16
VDT
p4397
sbag5
(g6
g7
(lp4398
Vcontext
p4399
atp4400
Rp4401
(dp4402
g16
VNN
p4403
sbag5
(g6
g7
(lp4404
Vc
p4405
atp4406
Rp4407
(dp4408
g16
VNN
p4409
sbag5
(g6
g7
(lp4410
g449
atp4411
Rp4412
(dp4413
g16
VNN
p4414
sbag5
(g6
g7
(lp4415
g459
atp4416
Rp4417
(dp4418
g16
VPOS
p4419
sbatp4420
Rp4421
(dp4422
g16
VNP
p4423
sbag5
(g6
g7
(lp4424
V\u005c
p4425
atp4426
Rp4427
(dp4428
g16
VJJ
p4429
sbag5
(g6
g7
(lp4430
g5
(g6
g7
(lp4431
Vu2208
p4432
atp4433
Rp4434
(dp4435
g16
VNNP
p4436
sbag5
(g6
g7
(lp4437
g459
atp4438
Rp4439
(dp4440
g16
VPOS
p4441
sbatp4442
Rp4443
(dp4444
g16
VNP
p4445
sbag5
(g6
g7
(lp4446
VC
p4447
atp4448
Rp4449
(dp4450
g16
VNNP
p4451
sbatp4452
Rp4453
(dp4454
g16
VNP
p4455
sbag5
(g6
g7
(lp4456
g5
(g6
g7
(lp4457
Vis
p4458
atp4459
Rp4460
(dp4461
g16
VVBZ
p4462
sbag5
(g6
g7
(lp4463
g5
(g6
g7
(lp4464
Vrepresented
p4465
atp4466
Rp4467
(dp4468
g16
VVBN
p4469
sbag5
(g6
g7
(lp4470
g5
(g6
g7
(lp4471
Vas
p4472
atp4473
Rp4474
(dp4475
g16
VIN
p4476
sbag5
(g6
g7
(lp4477
g5
(g6
g7
(lp4478
g5
(g6
g7
(lp4479
g783
atp4480
Rp4481
(dp4482
g16
VDT
p4483
sbag5
(g6
g7
(lp4484
Vvector
p4485
atp4486
Rp4487
(dp4488
g16
VJJ
p4489
sbag5
(g6
g7
(lp4490
g4295
atp4491
Rp4492
(dp4493
g16
VNN
p4494
sbag5
(g6
g7
(lp4495
g4405
atp4496
Rp4497
(dp4498
g16
VNN
p4499
sbag5
(g6
g7
(lp4500
g449
atp4501
Rp4502
(dp4503
g16
VNN
p4504
sbag5
(g6
g7
(lp4505
g459
atp4506
Rp4507
(dp4508
g16
VPOS
p4509
sbatp4510
Rp4511
(dp4512
g16
VNP
p4513
sbag5
(g6
g7
(lp4514
V\u005c
p4515
atp4516
Rp4517
(dp4518
g16
VCD
p4519
sbag5
(g6
g7
(lp4520
g5
(g6
g7
(lp4521
Vu2208
p4522
atp4523
Rp4524
(dp4525
g16
VNNP
p4526
sbag5
(g6
g7
(lp4527
g459
atp4528
Rp4529
(dp4530
g16
VPOS
p4531
sbatp4532
Rp4533
(dp4534
g16
VNP
p4535
sbag5
(g6
g7
(lp4536
g4342
atp4537
Rp4538
(dp4539
g16
VNN
p4540
sbag5
(g6
g7
(lp4541
g4348
atp4542
Rp4543
(dp4544
g16
VNNS
p4545
sbatp4546
Rp4547
(dp4548
g16
VNP
p4549
sbatp4550
Rp4551
(dp4552
g16
VPP
p4553
sbatp4554
Rp4555
(dp4556
g16
VVP
p4557
sbatp4558
Rp4559
(dp4560
g16
VVP
p4561
sbatp4562
Rp4563
(dp4564
g16
g87
sbatp4565
Rp4566
(dp4567
g16
g87
sbag5
(g6
g7
(lp4568
g251
atp4569
Rp4570
(dp4571
g16
g251
sbatp4572
Rp4573
(dp4574
g16
VPRN
p4575
sbag5
(g6
g7
(lp4576
g5
(g6
g7
(lp4577
g5
(g6
g7
(lp4578
g5
(g6
g7
(lp4579
Vwhere
p4580
atp4581
Rp4582
(dp4583
g16
VWRB
p4584
sbatp4585
Rp4586
(dp4587
g16
VWHADVP
p4588
sbag5
(g6
g7
(lp4589
g5
(g6
g7
(lp4590
g5
(g6
g7
(lp4591
g4251
atp4592
Rp4593
(dp4594
g16
VNNP
p4595
sbatp4596
Rp4597
(dp4598
g16
VNP
p4599
sbag5
(g6
g7
(lp4600
g5
(g6
g7
(lp4601
Vis
p4602
atp4603
Rp4604
(dp4605
g16
VVBZ
p4606
sbag5
(g6
g7
(lp4607
g5
(g6
g7
(lp4608
Vthe
p4609
atp4610
Rp4611
(dp4612
g16
VDT
p4613
sbag5
(g6
g7
(lp4614
Vwords
p4615
atp4616
Rp4617
(dp4618
g16
VNNS
p4619
sbag5
(g6
g7
(lp4620
Vvocabulary
p4621
atp4622
Rp4623
(dp4624
g16
VNN
p4625
sbatp4626
Rp4627
(dp4628
g16
VNP
p4629
sbatp4630
Rp4631
(dp4632
g16
VVP
p4633
sbatp4634
Rp4635
(dp4636
g16
g87
sbatp4637
Rp4638
(dp4639
g16
VSBAR
p4640
sbag5
(g6
g7
(lp4641
g251
atp4642
Rp4643
(dp4644
g16
g251
sbag5
(g6
g7
(lp4645
g5
(g6
g7
(lp4646
g4447
atp4647
Rp4648
(dp4649
g16
VNNP
p4650
sbatp4651
Rp4652
(dp4653
g16
VNP
p4654
sbag5
(g6
g7
(lp4655
g5
(g6
g7
(lp4656
Vis
p4657
atp4658
Rp4659
(dp4660
g16
VVBZ
p4661
sbag5
(g6
g7
(lp4662
g5
(g6
g7
(lp4663
Vthe
p4664
atp4665
Rp4666
(dp4667
g16
VDT
p4668
sbag5
(g6
g7
(lp4669
Vcontexts
p4670
atp4671
Rp4672
(dp4673
g16
VJJ
p4674
sbag5
(g6
g7
(lp4675
Vvocabulary
p4676
atp4677
Rp4678
(dp4679
g16
VNN
p4680
sbatp4681
Rp4682
(dp4683
g16
VNP
p4684
sbatp4685
Rp4686
(dp4687
g16
VVP
p4688
sbatp4689
Rp4690
(dp4691
g16
g87
sbag5
(g6
g7
(lp4692
g251
atp4693
Rp4694
(dp4695
g16
g251
sbag5
(g6
g7
(lp4696
Vand
p4697
atp4698
Rp4699
(dp4700
g16
VCC
p4701
sbag5
(g6
g7
(lp4702
g5
(g6
g7
(lp4703
g5
(g6
g7
(lp4704
g4348
atp4705
Rp4706
(dp4707
g16
VSYM
p4708
sbatp4709
Rp4710
(dp4711
g16
VNP
p4712
sbag5
(g6
g7
(lp4713
g5
(g6
g7
(lp4714
Vis
p4715
atp4716
Rp4717
(dp4718
g16
VVBZ
p4719
sbag5
(g6
g7
(lp4720
g5
(g6
g7
(lp4721
Vthe
p4722
atp4723
Rp4724
(dp4725
g16
VDT
p4726
sbag5
(g6
g7
(lp4727
Vembedding
p4728
atp4729
Rp4730
(dp4731
g16
VJJ
p4732
sbag5
(g6
g7
(lp4733
Vdimensionality
p4734
atp4735
Rp4736
(dp4737
g16
VNN
p4738
sbatp4739
Rp4740
(dp4741
g16
VNP
p4742
sbatp4743
Rp4744
(dp4745
g16
VVP
p4746
sbatp4747
Rp4748
(dp4749
g16
g87
sbatp4750
Rp4751
(dp4752
g16
g87
sbatp4753
Rp4754
(dp4755
g16
VROOT
p4756
sbasg311
(icmyPackage
CorE
p4757
(dp4758
g314
(lp4759
(I0
I42
tp4760
a(I0
I64
tp4761
asg318
g5
(g6
g7
(lp4762
g4547
ag4570
ag4638
ag4643
ag4652
ag4659
ag4666
ag4672
atp4763
Rp4764
(dp4765
g16
g323
sbsbsg324
(icmyPackage
CorE
p4766
(dp4767
g314
(lp4768
(I0
I0
tp4769
a(I0
I40
tp4770
asg318
g5
(g6
g7
(lp4771
g4184
ag4190
ag4370
ag4375
ag4387
ag4453
ag4460
ag4467
atp4772
Rp4773
(dp4774
g16
g323
sbsbsg334
g335
sg358
(lp4775
(isxpPackage
sxpSent
p4776
(dp4777
g362
(lp4778
I11
asg364
VIn the skip-gram model, each word w u'\u005cu2208' W is associated with a vector v w u'\u005cu2208' R d and similarly each context c u'\u005cu2208' C is represented as a vector v c u'\u005cu2208' R d , where W is the words vocabulary, C is the contexts vocabulary, and d is the embedding dimensionality
p4779
sg366
I3
sg348
I32
sg367
I9
sbasba(icmyPackage
CELink
p4780
(dp4781
g3
(lp4782
g5
(g6
g7
(lp4783
g5
(g6
g7
(lp4784
g5
(g6
g7
(lp4785
g5
(g6
g7
(lp4786
g5
(g6
g7
(lp4787
VThe
p4788
atp4789
Rp4790
(dp4791
g16
VDT
p4792
sbag5
(g6
g7
(lp4793
Ventries
p4794
atp4795
Rp4796
(dp4797
g16
VNNS
p4798
sbatp4799
Rp4800
(dp4801
g16
VNP
p4802
sbag5
(g6
g7
(lp4803
g5
(g6
g7
(lp4804
Vin
p4805
atp4806
Rp4807
(dp4808
g16
VIN
p4809
sbag5
(g6
g7
(lp4810
g5
(g6
g7
(lp4811
Vthe
p4812
atp4813
Rp4814
(dp4815
g16
VDT
p4816
sbag5
(g6
g7
(lp4817
Vvectors
p4818
atp4819
Rp4820
(dp4821
g16
VNNS
p4822
sbatp4823
Rp4824
(dp4825
g16
VNP
p4826
sbatp4827
Rp4828
(dp4829
g16
VPP
p4830
sbatp4831
Rp4832
(dp4833
g16
VNP
p4834
sbag5
(g6
g7
(lp4835
g5
(g6
g7
(lp4836
Vare
p4837
atp4838
Rp4839
(dp4840
g16
VVBP
p4841
sbag5
(g6
g7
(lp4842
g5
(g6
g7
(lp4843
g5
(g6
g7
(lp4844
Vlatent
p4845
atp4846
Rp4847
(dp4848
g16
VJJ
p4849
sbatp4850
Rp4851
(dp4852
g16
VADJP
p4853
sbag5
(g6
g7
(lp4854
g251
atp4855
Rp4856
(dp4857
g16
g251
sbag5
(g6
g7
(lp4858
Vand
p4859
atp4860
Rp4861
(dp4862
g16
VCC
p4863
sbag5
(g6
g7
(lp4864
g5
(g6
g7
(lp4865
Vtreated
p4866
atp4867
Rp4868
(dp4869
g16
VVBN
p4870
sbag5
(g6
g7
(lp4871
g5
(g6
g7
(lp4872
Vas
p4873
atp4874
Rp4875
(dp4876
g16
VIN
p4877
sbag5
(g6
g7
(lp4878
g5
(g6
g7
(lp4879
Vparameters
p4880
atp4881
Rp4882
(dp4883
g16
VNNS
p4884
sbatp4885
Rp4886
(dp4887
g16
VNP
p4888
sbatp4889
Rp4890
(dp4891
g16
VPP
p4892
sbag5
(g6
g7
(lp4893
g5
(g6
g7
(lp4894
g5
(g6
g7
(lp4895
Vto
p4896
atp4897
Rp4898
(dp4899
g16
VTO
p4900
sbag5
(g6
g7
(lp4901
g5
(g6
g7
(lp4902
Vbe
p4903
atp4904
Rp4905
(dp4906
g16
VVB
p4907
sbag5
(g6
g7
(lp4908
g5
(g6
g7
(lp4909
Vlearned
p4910
atp4911
Rp4912
(dp4913
g16
VVBN
p4914
sbatp4915
Rp4916
(dp4917
g16
VVP
p4918
sbatp4919
Rp4920
(dp4921
g16
VVP
p4922
sbatp4923
Rp4924
(dp4925
g16
VVP
p4926
sbatp4927
Rp4928
(dp4929
g16
g87
sbatp4930
Rp4931
(dp4932
g16
VVP
p4933
sbatp4934
Rp4935
(dp4936
g16
VUCP
p4937
sbatp4938
Rp4939
(dp4940
g16
VVP
p4941
sbatp4942
Rp4943
(dp4944
g16
g87
sbatp4945
Rp4946
(dp4947
g16
VROOT
p4948
sbasg311
(icmyPackage
CorE
p4949
(dp4950
g314
(lp4951
(I0
I11
tp4952
a(I0
I14
tp4953
asg318
g5
(g6
g7
(lp4954
g4886
ag4928
atp4955
Rp4956
(dp4957
g16
g323
sbsbsg324
(icmyPackage
CorE
p4958
(dp4959
g314
(lp4960
(I0
I0
tp4961
a(I0
I9
tp4962
asg318
g5
(g6
g7
(lp4963
g4832
ag4839
ag4851
ag4856
ag4861
ag4868
atp4964
Rp4965
(dp4966
g16
g323
sbsbsg334
g335
sg358
(lp4967
(isxpPackage
sxpSent
p4968
(dp4969
g362
(lp4970
I12
asg364
VThe entries in the vectors are latent, and treated as parameters to be learned
p4971
sg366
I3
sg348
I33
sg367
I9
sbasba(icmyPackage
CELink
p4972
(dp4973
g3
(lp4974
g5
(g6
g7
(lp4975
g5
(g6
g7
(lp4976
g5
(g6
g7
(lp4977
g5
(g6
g7
(lp4978
g5
(g6
g7
(lp4979
g5
(g6
g7
(lp4980
VLoosely
p4981
atp4982
Rp4983
(dp4984
g16
VRB
p4985
sbatp4986
Rp4987
(dp4988
g16
VADVP
p4989
sbag5
(g6
g7
(lp4990
Vspeaking
p4991
atp4992
Rp4993
(dp4994
g16
VVBG
p4995
sbatp4996
Rp4997
(dp4998
g16
VVP
p4999
sbatp5000
Rp5001
(dp5002
g16
g87
sbag5
(g6
g7
(lp5003
g251
atp5004
Rp5005
(dp5006
g16
g251
sbag5
(g6
g7
(lp5007
g5
(g6
g7
(lp5008
Vwe
p5009
atp5010
Rp5011
(dp5012
g16
VPRP
p5013
sbatp5014
Rp5015
(dp5016
g16
VNP
p5017
sbag5
(g6
g7
(lp5018
g5
(g6
g7
(lp5019
Vseek
p5020
atp5021
Rp5022
(dp5023
g16
VVBP
p5024
sbag5
(g6
g7
(lp5025
g5
(g6
g7
(lp5026
g5
(g6
g7
(lp5027
Vparameter
p5028
atp5029
Rp5030
(dp5031
g16
VNN
p5032
sbag5
(g6
g7
(lp5033
Vvalues
p5034
atp5035
Rp5036
(dp5037
g16
VNNS
p5038
sbatp5039
Rp5040
(dp5041
g16
VNP
p5042
sbag5
(g6
g7
(lp5043
g5
(g6
g7
(lp5044
V-LRB-
p5045
atp5046
Rp5047
(dp5048
g16
V-LRB-
p5049
sbag5
(g6
g7
(lp5050
g5
(g6
g7
(lp5051
g5
(g6
g7
(lp5052
Vthat
p5053
atp5054
Rp5055
(dp5056
g16
VWDT
p5057
sbatp5058
Rp5059
(dp5060
g16
VWHNP
p5061
sbag5
(g6
g7
(lp5062
g5
(g6
g7
(lp5063
g5
(g6
g7
(lp5064
Vis
p5065
atp5066
Rp5067
(dp5068
g16
VVBZ
p5069
sbag5
(g6
g7
(lp5070
g251
atp5071
Rp5072
(dp5073
g16
g251
sbag5
(g6
g7
(lp5074
g5
(g6
g7
(lp5075
g5
(g6
g7
(lp5076
Vvector
p5077
atp5078
Rp5079
(dp5080
g16
VNN
p5081
sbag5
(g6
g7
(lp5082
Vrepresentations
p5083
atp5084
Rp5085
(dp5086
g16
VNNS
p5087
sbatp5088
Rp5089
(dp5090
g16
VNP
p5091
sbag5
(g6
g7
(lp5092
g5
(g6
g7
(lp5093
Vfor
p5094
atp5095
Rp5096
(dp5097
g16
VIN
p5098
sbag5
(g6
g7
(lp5099
g5
(g6
g7
(lp5100
Vboth
p5101
atp5102
Rp5103
(dp5104
g16
VDT
p5105
sbag5
(g6
g7
(lp5106
Vwords
p5107
atp5108
Rp5109
(dp5110
g16
VNNS
p5111
sbag5
(g6
g7
(lp5112
Vand
p5113
atp5114
Rp5115
(dp5116
g16
VCC
p5117
sbag5
(g6
g7
(lp5118
Vcontexts
p5119
atp5120
Rp5121
(dp5122
g16
VNNS
p5123
sbatp5124
Rp5125
(dp5126
g16
VNP
p5127
sbatp5128
Rp5129
(dp5130
g16
VPP
p5131
sbatp5132
Rp5133
(dp5134
g16
VNP
p5135
sbatp5136
Rp5137
(dp5138
g16
VVP
p5139
sbatp5140
Rp5141
(dp5142
g16
g87
sbatp5143
Rp5144
(dp5145
g16
VSBAR
p5146
sbag5
(g6
g7
(lp5147
V-RRB-
p5148
atp5149
Rp5150
(dp5151
g16
V-RRB-
p5152
sbatp5153
Rp5154
(dp5155
g16
VPRN
p5156
sbag5
(g6
g7
(lp5157
g5
(g6
g7
(lp5158
Vsuch
p5159
atp5160
Rp5161
(dp5162
g16
VJJ
p5163
sbag5
(g6
g7
(lp5164
Vthat
p5165
atp5166
Rp5167
(dp5168
g16
VIN
p5169
sbag5
(g6
g7
(lp5170
g5
(g6
g7
(lp5171
g5
(g6
g7
(lp5172
Vthe
p5173
atp5174
Rp5175
(dp5176
g16
VDT
p5177
sbag5
(g6
g7
(lp5178
Vdot
p5179
atp5180
Rp5181
(dp5182
g16
VNN
p5183
sbag5
(g6
g7
(lp5184
Vproduct
p5185
atp5186
Rp5187
(dp5188
g16
VNN
p5189
sbag5
(g6
g7
(lp5190
g4295
atp5191
Rp5192
(dp5193
g16
VNN
p5194
sbag5
(g6
g7
(lp5195
g4209
atp5196
Rp5197
(dp5198
g16
VNN
p5199
sbag5
(g6
g7
(lp5200
g449
atp5201
Rp5202
(dp5203
g16
VNN
p5204
sbag5
(g6
g7
(lp5205
g459
atp5206
Rp5207
(dp5208
g16
V''
p5209
sbatp5210
Rp5211
(dp5212
g16
VNP
p5213
sbag5
(g6
g7
(lp5214
g5
(g6
g7
(lp5215
g5
(g6
g7
(lp5216
g5
(g6
g7
(lp5217
V\u005c
p5218
atp5219
Rp5220
(dp5221
g16
VNNP
p5222
sbag5
(g6
g7
(lp5223
Vu22c5
p5224
atp5225
Rp5226
(dp5227
g16
VNNP
p5228
sbag5
(g6
g7
(lp5229
g459
atp5230
Rp5231
(dp5232
g16
VPOS
p5233
sbatp5234
Rp5235
(dp5236
g16
VNP
p5237
sbag5
(g6
g7
(lp5238
g4295
atp5239
Rp5240
(dp5241
g16
VNN
p5242
sbatp5243
Rp5244
(dp5245
g16
VNP
p5246
sbag5
(g6
g7
(lp5247
g5
(g6
g7
(lp5248
g5
(g6
g7
(lp5249
g4405
atp5250
Rp5251
(dp5252
g16
VSYM
p5253
sbatp5254
Rp5255
(dp5256
g16
VNP
p5257
sbag5
(g6
g7
(lp5258
g5
(g6
g7
(lp5259
Vassociated
p5260
atp5261
Rp5262
(dp5263
g16
VVBN
p5264
sbag5
(g6
g7
(lp5265
g5
(g6
g7
(lp5266
Vwith
p5267
atp5268
Rp5269
(dp5270
g16
VIN
p5271
sbag5
(g6
g7
(lp5272
g5
(g6
g7
(lp5273
g5
(g6
g7
(lp5274
g449
atp5275
Rp5276
(dp5277
g16
VNNP
p5278
sbag5
(g6
g7
(lp5279
g459
atp5280
Rp5281
(dp5282
g16
VPOS
p5283
sbatp5284
Rp5285
(dp5286
g16
VNP
p5287
sbag5
(g6
g7
(lp5288
V\u005c
p5289
atp5290
Rp5291
(dp5292
g16
VJJ
p5293
sbag5
(g6
g7
(lp5294
Vu201c
p5295
atp5296
Rp5297
(dp5298
g16
VNNS
p5299
sbatp5300
Rp5301
(dp5302
g16
VNP
p5303
sbatp5304
Rp5305
(dp5306
g16
VPP
p5307
sbatp5308
Rp5309
(dp5310
g16
VVP
p5311
sbatp5312
Rp5313
(dp5314
g16
VNP
p5315
sbatp5316
Rp5317
(dp5318
g16
VPP
p5319
sbag5
(g6
g7
(lp5320
g459
atp5321
Rp5322
(dp5323
g16
V''
p5324
sbag5
(g6
g7
(lp5325
g5
(g6
g7
(lp5326
g5
(g6
g7
(lp5327
g5
(g6
g7
(lp5328
g5
(g6
g7
(lp5329
Vgood
p5330
atp5331
Rp5332
(dp5333
g16
VJJ
p5334
sbag5
(g6
g7
(lp5335
g449
atp5336
Rp5337
(dp5338
g16
VNN
p5339
sbag5
(g6
g7
(lp5340
g459
atp5341
Rp5342
(dp5343
g16
VPOS
p5344
sbatp5345
Rp5346
(dp5347
g16
VNP
p5348
sbag5
(g6
g7
(lp5349
V\u005c
p5350
atp5351
Rp5352
(dp5353
g16
VCD
p5354
sbag5
(g6
g7
(lp5355
Vu201d
p5356
atp5357
Rp5358
(dp5359
g16
VJJ
p5360
sbag5
(g6
g7
(lp5361
g459
atp5362
Rp5363
(dp5364
g16
V''
p5365
sbag5
(g6
g7
(lp5366
Vword-context
p5367
atp5368
Rp5369
(dp5370
g16
VNN
p5371
sbag5
(g6
g7
(lp5372
Vpairs
p5373
atp5374
Rp5375
(dp5376
g16
VNNS
p5377
sbatp5378
Rp5379
(dp5380
g16
VNP
p5381
sbag5
(g6
g7
(lp5382
g5
(g6
g7
(lp5383
Vis
p5384
atp5385
Rp5386
(dp5387
g16
VVBZ
p5388
sbag5
(g6
g7
(lp5389
g5
(g6
g7
(lp5390
Vmaximized
p5391
atp5392
Rp5393
(dp5394
g16
VVBN
p5395
sbatp5396
Rp5397
(dp5398
g16
VVP
p5399
sbatp5400
Rp5401
(dp5402
g16
VVP
p5403
sbatp5404
Rp5405
(dp5406
g16
g87
sbatp5407
Rp5408
(dp5409
g16
VSBAR
p5410
sbatp5411
Rp5412
(dp5413
g16
VNP
p5414
sbatp5415
Rp5416
(dp5417
g16
VPP
p5418
sbatp5419
Rp5420
(dp5421
g16
VNP
p5422
sbatp5423
Rp5424
(dp5425
g16
VVP
p5426
sbatp5427
Rp5428
(dp5429
g16
g87
sbatp5430
Rp5431
(dp5432
g16
VROOT
p5433
sbasg311
(icmyPackage
CorE
p5434
(dp5435
g314
(lp5436
(I0
I0
tp5437
a(I0
I1
tp5438
asg318
g5001
sbsg324
(icmyPackage
CorE
p5439
(dp5440
g314
(lp5441
(I0
I3
tp5442
a(I0
I49
tp5443
asg318
g5
(g6
g7
(lp5444
g5015
ag5424
atp5445
Rp5446
(dp5447
g16
g323
sbsbsg334
(icmyPackage
pattern
p5448
(dp5449
g337
I30
sg338
I0
sg339
(lp5450
sg343
(lp5451
I3
aI2
aI1
asg345
(lp5452
S'Being over here we tend to be a bit isolated.'
p5453
aS'Not being sure of the word, he turned it up in the dictionary.'
p5454
asg348
I81
sg349
(lp5455
(lp5456
S'&V-ing@C@'
p5457
aS'(,)'
p5458
aS'&R@Complete@'
p5459
aasbsg358
(lp5460
(isxpPackage
sxpSent
p5461
(dp5462
g362
(lp5463
I13
asg364
VLoosely speaking, we seek parameter values (that is, vector representations for both words and contexts) such that the dot product v w u'\u005cu22c5' v c associated with u'\u005cu201c' good u'\u005cu201d' word-context pairs is maximized
p5464
sg366
I3
sg348
I34
sg367
I9
sbasba(icmyPackage
CELink
p5465
(dp5466
g3
(lp5467
g5
(g6
g7
(lp5468
g5
(g6
g7
(lp5469
g5
(g6
g7
(lp5470
g5
(g6
g7
(lp5471
g5
(g6
g7
(lp5472
VThis
p5473
atp5474
Rp5475
(dp5476
g16
VDT
p5477
sbatp5478
Rp5479
(dp5480
g16
VNP
p5481
sbag5
(g6
g7
(lp5482
g5
(g6
g7
(lp5483
g5
(g6
g7
(lp5484
g5
(g6
g7
(lp5485
Vcan
p5486
atp5487
Rp5488
(dp5489
g16
VMD
p5490
sbag5
(g6
g7
(lp5491
g5
(g6
g7
(lp5492
Vbe
p5493
atp5494
Rp5495
(dp5496
g16
VVB
p5497
sbag5
(g6
g7
(lp5498
g5
(g6
g7
(lp5499
g5
(g6
g7
(lp5500
Veasily
p5501
atp5502
Rp5503
(dp5504
g16
VRB
p5505
sbatp5506
Rp5507
(dp5508
g16
VADVP
p5509
sbag5
(g6
g7
(lp5510
Vachieved
p5511
atp5512
Rp5513
(dp5514
g16
VVBN
p5515
sbag5
(g6
g7
(lp5516
g5
(g6
g7
(lp5517
Vby
p5518
atp5519
Rp5520
(dp5521
g16
VIN
p5522
sbag5
(g6
g7
(lp5523
g5
(g6
g7
(lp5524
g5
(g6
g7
(lp5525
Vsetting
p5526
atp5527
Rp5528
(dp5529
g16
VVBG
p5530
sbag5
(g6
g7
(lp5531
g5
(g6
g7
(lp5532
g5
(g6
g7
(lp5533
g4295
atp5534
Rp5535
(dp5536
g16
VNN
p5537
sbag5
(g6
g7
(lp5538
g4405
atp5539
Rp5540
(dp5541
g16
VNN
p5542
sbatp5543
Rp5544
(dp5545
g16
VNP
p5546
sbag5
(g6
g7
(lp5547
g5
(g6
g7
(lp5548
V=
p5549
atp5550
Rp5551
(dp5552
g16
VSYM
p5553
sbag5
(g6
g7
(lp5554
g5
(g6
g7
(lp5555
g4295
atp5556
Rp5557
(dp5558
g16
VJJ
p5559
sbag5
(g6
g7
(lp5560
g4209
atp5561
Rp5562
(dp5563
g16
VNN
p5564
sbag5
(g6
g7
(lp5565
Vand
p5566
atp5567
Rp5568
(dp5569
g16
VCC
p5570
sbag5
(g6
g7
(lp5571
g4295
atp5572
Rp5573
(dp5574
g16
VNN
p5575
sbatp5576
Rp5577
(dp5578
g16
VNP
p5579
sbatp5580
Rp5581
(dp5582
g16
VVP
p5583
sbatp5584
Rp5585
(dp5586
g16
g87
sbatp5587
Rp5588
(dp5589
g16
VVP
p5590
sbatp5591
Rp5592
(dp5593
g16
g87
sbatp5594
Rp5595
(dp5596
g16
VPP
p5597
sbatp5598
Rp5599
(dp5600
g16
VVP
p5601
sbatp5602
Rp5603
(dp5604
g16
VVP
p5605
sbatp5606
Rp5607
(dp5608
g16
VVP
p5609
sbatp5610
Rp5611
(dp5612
g16
g87
sbatp5613
Rp5614
(dp5615
g16
VSBAR
p5616
sbatp5617
Rp5618
(dp5619
g16
VNP
p5620
sbag5
(g6
g7
(lp5621
g5
(g6
g7
(lp5622
g5
(g6
g7
(lp5623
g4405
atp5624
Rp5625
(dp5626
g16
VSYM
p5627
sbatp5628
Rp5629
(dp5630
g16
VX
p5631
sbag5
(g6
g7
(lp5632
g5
(g6
g7
(lp5633
g5
(g6
g7
(lp5634
g5
(g6
g7
(lp5635
g449
atp5636
Rp5637
(dp5638
g16
VNNP
p5639
sbag5
(g6
g7
(lp5640
g459
atp5641
Rp5642
(dp5643
g16
VPOS
p5644
sbatp5645
Rp5646
(dp5647
g16
VNP
p5648
sbag5
(g6
g7
(lp5649
V\u005c
p5650
atp5651
Rp5652
(dp5653
g16
VJJ
p5654
sbag5
(g6
g7
(lp5655
Vu22c5
p5656
atp5657
Rp5658
(dp5659
g16
VJJ
p5660
sbag5
(g6
g7
(lp5661
g459
atp5662
Rp5663
(dp5664
g16
V''
p5665
sbag5
(g6
g7
(lp5666
g4295
atp5667
Rp5668
(dp5669
g16
VNN
p5670
sbatp5671
Rp5672
(dp5673
g16
VNP
p5674
sbag5
(g6
g7
(lp5675
g5
(g6
g7
(lp5676
g4209
atp5677
Rp5678
(dp5679
g16
VVBN
p5680
sbag5
(g6
g7
(lp5681
g5
(g6
g7
(lp5682
g5
(g6
g7
(lp5683
g5549
atp5684
Rp5685
(dp5686
g16
VSYM
p5687
sbag5
(g6
g7
(lp5688
g5
(g6
g7
(lp5689
VK
p5690
atp5691
Rp5692
(dp5693
g16
VNNP
p5694
sbatp5695
Rp5696
(dp5697
g16
VNP
p5698
sbatp5699
Rp5700
(dp5701
g16
VVP
p5702
sbatp5703
Rp5704
(dp5705
g16
g87
sbag5
(g6
g7
(lp5706
g5
(g6
g7
(lp5707
Vfor
p5708
atp5709
Rp5710
(dp5711
g16
VIN
p5712
sbag5
(g6
g7
(lp5713
g5
(g6
g7
(lp5714
g5
(g6
g7
(lp5715
Vall
p5716
atp5717
Rp5718
(dp5719
g16
VDT
p5720
sbag5
(g6
g7
(lp5721
g4405
atp5722
Rp5723
(dp5724
g16
VNN
p5725
sbatp5726
Rp5727
(dp5728
g16
VNP
p5729
sbag5
(g6
g7
(lp5730
g251
atp5731
Rp5732
(dp5733
g16
g251
sbag5
(g6
g7
(lp5734
g5
(g6
g7
(lp5735
g4209
atp5736
Rp5737
(dp5738
g16
VNN
p5739
sbatp5740
Rp5741
(dp5742
g16
VNP
p5743
sbatp5744
Rp5745
(dp5746
g16
VNP
p5747
sbatp5748
Rp5749
(dp5750
g16
VPP
p5751
sbag5
(g6
g7
(lp5752
g251
atp5753
Rp5754
(dp5755
g16
g251
sbag5
(g6
g7
(lp5756
g5
(g6
g7
(lp5757
g5
(g6
g7
(lp5758
Vwhere
p5759
atp5760
Rp5761
(dp5762
g16
VWRB
p5763
sbatp5764
Rp5765
(dp5766
g16
VWHADVP
p5767
sbag5
(g6
g7
(lp5768
g5
(g6
g7
(lp5769
g5
(g6
g7
(lp5770
g5690
atp5771
Rp5772
(dp5773
g16
VNNP
p5774
sbatp5775
Rp5776
(dp5777
g16
VNP
p5778
sbag5
(g6
g7
(lp5779
g5
(g6
g7
(lp5780
Vis
p5781
atp5782
Rp5783
(dp5784
g16
VVBZ
p5785
sbag5
(g6
g7
(lp5786
g5
(g6
g7
(lp5787
Vlarge
p5788
atp5789
Rp5790
(dp5791
g16
VJJ
p5792
sbag5
(g6
g7
(lp5793
Venough
p5794
atp5795
Rp5796
(dp5797
g16
VJJ
p5798
sbag5
(g6
g7
(lp5799
Vnumber
p5800
atp5801
Rp5802
(dp5803
g16
VNN
p5804
sbatp5805
Rp5806
(dp5807
g16
VNP
p5808
sbatp5809
Rp5810
(dp5811
g16
VVP
p5812
sbatp5813
Rp5814
(dp5815
g16
g87
sbatp5816
Rp5817
(dp5818
g16
VSBAR
p5819
sbatp5820
Rp5821
(dp5822
g16
VVP
p5823
sbatp5824
Rp5825
(dp5826
g16
VNP
p5827
sbatp5828
Rp5829
(dp5830
g16
g5631
sbatp5831
Rp5832
(dp5833
g16
VFRAG
p5834
sbatp5835
Rp5836
(dp5837
g16
VROOT
p5838
sbasg311
(icmyPackage
CorE
p5839
(dp5840
g314
(lp5841
(I0
I6
tp5842
a(I0
I13
tp5843
asg318
g5592
sbsg324
(icmyPackage
CorE
p5844
(dp5845
g314
(lp5846
(I0
I14
tp5847
a(I0
I34
tp5848
asg318
g5
(g6
g7
(lp5849
g5629
ag5672
ag5678
ag5704
ag5749
ag5754
ag5765
ag5776
ag5783
ag5790
ag5796
atp5850
Rp5851
(dp5852
g16
g323
sbsbsg334
(icmyPackage
pattern
p5853
(dp5854
g337
I0
sg338
I0
sg339
(lp5855
(lp5856
(lp5857
S'by'
p5858
aS'through'
p5859
aaasg343
(lp5860
I2
aI1
aI1
asg345
(lp5861
S'By extracting comments and comparisons of the cited articles and then organizing them according to the time of publication discovers and displays how the area has developed as a research literature.'
p5862
asg348
I67
sg349
(lp5863
(lp5864
a(lp5865
S'&V-ing@C@'
p5866
aS'&R'
p5867
aasbsg358
(lp5868
(isxpPackage
sxpSent
p5869
(dp5870
g362
(lp5871
I14
asg364
VThis can be easily achieved by setting v c = v w and v c u'\u005cu22c5' v w = K for all c , w , where K is large enough number
p5872
sg366
I3
sg348
I45
sg367
I14
sbasba(icmyPackage
CELink
p5873
(dp5874
g3
(lp5875
g5
(g6
g7
(lp5876
g5
(g6
g7
(lp5877
g5
(g6
g7
(lp5878
g5
(g6
g7
(lp5879
g5
(g6
g7
(lp5880
g5
(g6
g7
(lp5881
VIn
p5882
atp5883
Rp5884
(dp5885
g16
VIN
p5886
sbag5
(g6
g7
(lp5887
g5
(g6
g7
(lp5888
Vorder
p5889
atp5890
Rp5891
(dp5892
g16
VNN
p5893
sbag5
(g6
g7
(lp5894
g5
(g6
g7
(lp5895
g5
(g6
g7
(lp5896
Vto
p5897
atp5898
Rp5899
(dp5900
g16
VTO
p5901
sbag5
(g6
g7
(lp5902
g5
(g6
g7
(lp5903
Vprevent
p5904
atp5905
Rp5906
(dp5907
g16
VVB
p5908
sbag5
(g6
g7
(lp5909
g5
(g6
g7
(lp5910
Vthe
p5911
atp5912
Rp5913
(dp5914
g16
VDT
p5915
sbag5
(g6
g7
(lp5916
Vtrivial
p5917
atp5918
Rp5919
(dp5920
g16
VJJ
p5921
sbag5
(g6
g7
(lp5922
Vsolution
p5923
atp5924
Rp5925
(dp5926
g16
VNN
p5927
sbatp5928
Rp5929
(dp5930
g16
VNP
p5931
sbag5
(g6
g7
(lp5932
g251
atp5933
Rp5934
(dp5935
g16
g251
sbag5
(g6
g7
(lp5936
g5
(g6
g7
(lp5937
g5
(g6
g7
(lp5938
g5
(g6
g7
(lp5939
Vthe
p5940
atp5941
Rp5942
(dp5943
g16
VDT
p5944
sbag5
(g6
g7
(lp5945
Vobjective
p5946
atp5947
Rp5948
(dp5949
g16
VNN
p5950
sbatp5951
Rp5952
(dp5953
g16
VNP
p5954
sbag5
(g6
g7
(lp5955
g5
(g6
g7
(lp5956
Vis
p5957
atp5958
Rp5959
(dp5960
g16
VVBZ
p5961
sbag5
(g6
g7
(lp5962
g5
(g6
g7
(lp5963
Vextended
p5964
atp5965
Rp5966
(dp5967
g16
VVBN
p5968
sbag5
(g6
g7
(lp5969
g5
(g6
g7
(lp5970
Vwith
p5971
atp5972
Rp5973
(dp5974
g16
VIN
p5975
sbag5
(g6
g7
(lp5976
g5
(g6
g7
(lp5977
g5
(g6
g7
(lp5978
g5
(g6
g7
(lp5979
V-LRB-
p5980
atp5981
Rp5982
(dp5983
g16
V-LRB-
p5984
sbag5
(g6
g7
(lp5985
g5
(g6
g7
(lp5986
g5
(g6
g7
(lp5987
g4209
atp5988
Rp5989
(dp5990
g16
VNN
p5991
sbatp5992
Rp5993
(dp5994
g16
VNP
p5995
sbag5
(g6
g7
(lp5996
g251
atp5997
Rp5998
(dp5999
g16
g251
sbag5
(g6
g7
(lp6000
g5
(g6
g7
(lp6001
g4405
atp6002
Rp6003
(dp6004
g16
VSYM
p6005
sbatp6006
Rp6007
(dp6008
g16
VNP
p6009
sbatp6010
Rp6011
(dp6012
g16
VNP
p6013
sbag5
(g6
g7
(lp6014
V-RRB-
p6015
atp6016
Rp6017
(dp6018
g16
V-RRB-
p6019
sbatp6020
Rp6021
(dp6022
g16
VPRN
p6023
sbag5
(g6
g7
(lp6024
Vpairs
p6025
atp6026
Rp6027
(dp6028
g16
VNNS
p6029
sbatp6030
Rp6031
(dp6032
g16
VNP
p6033
sbag5
(g6
g7
(lp6034
g5
(g6
g7
(lp6035
g5
(g6
g7
(lp6036
Vfor
p6037
atp6038
Rp6039
(dp6040
g16
VIN
p6041
sbag5
(g6
g7
(lp6042
g5
(g6
g7
(lp6043
Vwhich
p6044
atp6045
Rp6046
(dp6047
g16
VWDT
p6048
sbatp6049
Rp6050
(dp6051
g16
VWHNP
p6052
sbatp6053
Rp6054
(dp6055
g16
VWHPP
p6056
sbag5
(g6
g7
(lp6057
g5
(g6
g7
(lp6058
g5
(g6
g7
(lp6059
g5
(g6
g7
(lp6060
Vp
p6061
atp6062
Rp6063
(dp6064
g16
VNN
p6065
sbatp6066
Rp6067
(dp6068
g16
VNP
p6069
sbag5
(g6
g7
(lp6070
g5
(g6
g7
(lp6071
V-LRB-
p6072
atp6073
Rp6074
(dp6075
g16
V-LRB-
p6076
sbag5
(g6
g7
(lp6077
g5
(g6
g7
(lp6078
VD
p6079
atp6080
Rp6081
(dp6082
g16
VNNP
p6083
sbag5
(g6
g7
(lp6084
g5549
atp6085
Rp6086
(dp6087
g16
VNNP
p6088
sbatp6089
Rp6090
(dp6091
g16
VNP
p6092
sbag5
(g6
g7
(lp6093
g5
(g6
g7
(lp6094
g5
(g6
g7
(lp6095
V1
p6096
atp6097
Rp6098
(dp6099
g16
VCD
p6100
sbag5
(g6
g7
(lp6101
g4209
atp6102
Rp6103
(dp6104
g16
VNN
p6105
sbatp6106
Rp6107
(dp6108
g16
VNP
p6109
sbag5
(g6
g7
(lp6110
g251
atp6111
Rp6112
(dp6113
g16
g251
sbag5
(g6
g7
(lp6114
g5
(g6
g7
(lp6115
g4405
atp6116
Rp6117
(dp6118
g16
VSYM
p6119
sbatp6120
Rp6121
(dp6122
g16
VNP
p6123
sbatp6124
Rp6125
(dp6126
g16
VNP
p6127
sbag5
(g6
g7
(lp6128
V-RRB-
p6129
atp6130
Rp6131
(dp6132
g16
V-RRB-
p6133
sbatp6134
Rp6135
(dp6136
g16
VPRN
p6137
sbatp6138
Rp6139
(dp6140
g16
VNP
p6141
sbag5
(g6
g7
(lp6142
g5
(g6
g7
(lp6143
Vmust
p6144
atp6145
Rp6146
(dp6147
g16
VMD
p6148
sbag5
(g6
g7
(lp6149
g5
(g6
g7
(lp6150
Vbe
p6151
atp6152
Rp6153
(dp6154
g16
VVB
p6155
sbag5
(g6
g7
(lp6156
g5
(g6
g7
(lp6157
Vlow
p6158
atp6159
Rp6160
(dp6161
g16
VJJ
p6162
sbatp6163
Rp6164
(dp6165
g16
VADJP
p6166
sbatp6167
Rp6168
(dp6169
g16
VVP
p6170
sbatp6171
Rp6172
(dp6173
g16
VVP
p6174
sbatp6175
Rp6176
(dp6177
g16
g87
sbatp6178
Rp6179
(dp6180
g16
VSBAR
p6181
sbatp6182
Rp6183
(dp6184
g16
VNP
p6185
sbatp6186
Rp6187
(dp6188
g16
VPP
p6189
sbatp6190
Rp6191
(dp6192
g16
VVP
p6193
sbatp6194
Rp6195
(dp6196
g16
VVP
p6197
sbatp6198
Rp6199
(dp6200
g16
g87
sbatp6201
Rp6202
(dp6203
g16
VSBAR
p6204
sbatp6205
Rp6206
(dp6207
g16
VVP
p6208
sbatp6209
Rp6210
(dp6211
g16
VVP
p6212
sbatp6213
Rp6214
(dp6215
g16
g87
sbatp6216
Rp6217
(dp6218
g16
VNP
p6219
sbatp6220
Rp6221
(dp6222
g16
VPP
p6223
sbatp6224
Rp6225
(dp6226
g16
g87
sbag5
(g6
g7
(lp6227
g251
atp6228
Rp6229
(dp6230
g16
g251
sbag5
(g6
g7
(lp6231
Vi.e.
p6232
atp6233
Rp6234
(dp6235
g16
VFW
p6236
sbag5
(g6
g7
(lp6237
g251
atp6238
Rp6239
(dp6240
g16
g251
sbag5
(g6
g7
(lp6241
g5
(g6
g7
(lp6242
g5
(g6
g7
(lp6243
Vpairs
p6244
atp6245
Rp6246
(dp6247
g16
VVBG
p6248
sbag5
(g6
g7
(lp6249
g5
(g6
g7
(lp6250
g5
(g6
g7
(lp6251
Vwhich
p6252
atp6253
Rp6254
(dp6255
g16
VWDT
p6256
sbatp6257
Rp6258
(dp6259
g16
VWHNP
p6260
sbag5
(g6
g7
(lp6261
g5
(g6
g7
(lp6262
g5
(g6
g7
(lp6263
Vare
p6264
atp6265
Rp6266
(dp6267
g16
VVBP
p6268
sbag5
(g6
g7
(lp6269
Vnot
p6270
atp6271
Rp6272
(dp6273
g16
VRB
p6274
sbag5
(g6
g7
(lp6275
g5
(g6
g7
(lp6276
Vin
p6277
atp6278
Rp6279
(dp6280
g16
VIN
p6281
sbag5
(g6
g7
(lp6282
g5
(g6
g7
(lp6283
Vthe
p6284
atp6285
Rp6286
(dp6287
g16
VDT
p6288
sbag5
(g6
g7
(lp6289
Vdata
p6290
atp6291
Rp6292
(dp6293
g16
VNNS
p6294
sbatp6295
Rp6296
(dp6297
g16
VNP
p6298
sbatp6299
Rp6300
(dp6301
g16
VPP
p6302
sbag5
(g6
g7
(lp6303
g251
atp6304
Rp6305
(dp6306
g16
g251
sbag5
(g6
g7
(lp6307
g5
(g6
g7
(lp6308
Vby
p6309
atp6310
Rp6311
(dp6312
g16
VIN
p6313
sbag5
(g6
g7
(lp6314
g5
(g6
g7
(lp6315
g5
(g6
g7
(lp6316
Vgenerating
p6317
atp6318
Rp6319
(dp6320
g16
VVBG
p6321
sbag5
(g6
g7
(lp6322
g5
(g6
g7
(lp6323
g5
(g6
g7
(lp6324
g5
(g6
g7
(lp6325
Vthe
p6326
atp6327
Rp6328
(dp6329
g16
VDT
p6330
sbag5
(g6
g7
(lp6331
Vset
p6332
atp6333
Rp6334
(dp6335
g16
VNN
p6336
sbag5
(g6
g7
(lp6337
g6079
atp6338
Rp6339
(dp6340
g16
VNNP
p6341
sbag5
(g6
g7
(lp6342
g449
atp6343
Rp6344
(dp6345
g16
VNNP
p6346
sbag5
(g6
g7
(lp6347
g459
atp6348
Rp6349
(dp6350
g16
VPOS
p6351
sbatp6352
Rp6353
(dp6354
g16
VNP
p6355
sbag5
(g6
g7
(lp6356
V\u005c
p6357
atp6358
Rp6359
(dp6360
g16
VNN
p6361
sbag5
(g6
g7
(lp6362
Vu2032
p6363
atp6364
Rp6365
(dp6366
g16
VNN
p6367
sbag5
(g6
g7
(lp6368
g459
atp6369
Rp6370
(dp6371
g16
V''
p6372
sbatp6373
Rp6374
(dp6375
g16
VNP
p6376
sbag5
(g6
g7
(lp6377
g5
(g6
g7
(lp6378
Vof
p6379
atp6380
Rp6381
(dp6382
g16
VIN
p6383
sbag5
(g6
g7
(lp6384
g5
(g6
g7
(lp6385
Vrandom
p6386
atp6387
Rp6388
(dp6389
g16
VJJ
p6390
sbag5
(g6
g7
(lp6391
g5
(g6
g7
(lp6392
V-LRB-
p6393
atp6394
Rp6395
(dp6396
g16
V-LRB-
p6397
sbag5
(g6
g7
(lp6398
g5
(g6
g7
(lp6399
g5
(g6
g7
(lp6400
g4209
atp6401
Rp6402
(dp6403
g16
VNN
p6404
sbatp6405
Rp6406
(dp6407
g16
VNP
p6408
sbag5
(g6
g7
(lp6409
g251
atp6410
Rp6411
(dp6412
g16
g251
sbag5
(g6
g7
(lp6413
g5
(g6
g7
(lp6414
g4405
atp6415
Rp6416
(dp6417
g16
VSYM
p6418
sbatp6419
Rp6420
(dp6421
g16
VNP
p6422
sbatp6423
Rp6424
(dp6425
g16
VNP
p6426
sbag5
(g6
g7
(lp6427
V-RRB-
p6428
atp6429
Rp6430
(dp6431
g16
V-RRB-
p6432
sbatp6433
Rp6434
(dp6435
g16
VPRN
p6436
sbag5
(g6
g7
(lp6437
Vpairs
p6438
atp6439
Rp6440
(dp6441
g16
VNNS
p6442
sbatp6443
Rp6444
(dp6445
g16
VNP
p6446
sbatp6447
Rp6448
(dp6449
g16
VPP
p6450
sbatp6451
Rp6452
(dp6453
g16
VNP
p6454
sbatp6455
Rp6456
(dp6457
g16
VVP
p6458
sbatp6459
Rp6460
(dp6461
g16
g87
sbatp6462
Rp6463
(dp6464
g16
VPP
p6465
sbatp6466
Rp6467
(dp6468
g16
VVP
p6469
sbatp6470
Rp6471
(dp6472
g16
g87
sbatp6473
Rp6474
(dp6475
g16
VSBAR
p6476
sbag5
(g6
g7
(lp6477
g5
(g6
g7
(lp6478
V-LRB-
p6479
atp6480
Rp6481
(dp6482
g16
V-LRB-
p6483
sbag5
(g6
g7
(lp6484
g5
(g6
g7
(lp6485
g5
(g6
g7
(lp6486
Vassuming
p6487
atp6488
Rp6489
(dp6490
g16
VVBG
p6491
sbag5
(g6
g7
(lp6492
g5
(g6
g7
(lp6493
g5
(g6
g7
(lp6494
g5
(g6
g7
(lp6495
Vthey
p6496
atp6497
Rp6498
(dp6499
g16
VPRP
p6500
sbatp6501
Rp6502
(dp6503
g16
VNP
p6504
sbag5
(g6
g7
(lp6505
g5
(g6
g7
(lp6506
Vare
p6507
atp6508
Rp6509
(dp6510
g16
VVBP
p6511
sbag5
(g6
g7
(lp6512
Vall
p6513
atp6514
Rp6515
(dp6516
g16
VRB
p6517
sbag5
(g6
g7
(lp6518
g5
(g6
g7
(lp6519
Vincorrect
p6520
atp6521
Rp6522
(dp6523
g16
VJJ
p6524
sbatp6525
Rp6526
(dp6527
g16
VADJP
p6528
sbatp6529
Rp6530
(dp6531
g16
VVP
p6532
sbatp6533
Rp6534
(dp6535
g16
g87
sbatp6536
Rp6537
(dp6538
g16
VSBAR
p6539
sbatp6540
Rp6541
(dp6542
g16
VVP
p6543
sbatp6544
Rp6545
(dp6546
g16
g87
sbag5
(g6
g7
(lp6547
V-RRB-
p6548
atp6549
Rp6550
(dp6551
g16
V-RRB-
p6552
sbatp6553
Rp6554
(dp6555
g16
VPRN
p6556
sbatp6557
Rp6558
(dp6559
g16
VVP
p6560
sbatp6561
Rp6562
(dp6563
g16
g87
sbag5
(g6
g7
(lp6564
g251
atp6565
Rp6566
(dp6567
g16
g251
sbag5
(g6
g7
(lp6568
g5
(g6
g7
(lp6569
g5
(g6
g7
(lp6570
Vyielding
p6571
atp6572
Rp6573
(dp6574
g16
VVBG
p6575
sbag5
(g6
g7
(lp6576
g5
(g6
g7
(lp6577
Vthe
p6578
atp6579
Rp6580
(dp6581
g16
VDT
p6582
sbag5
(g6
g7
(lp6583
Vnegative-sampling
p6584
atp6585
Rp6586
(dp6587
g16
VJJ
p6588
sbag5
(g6
g7
(lp6589
Vtraining
p6590
atp6591
Rp6592
(dp6593
g16
VNN
p6594
sbag5
(g6
g7
(lp6595
Vobjective
p6596
atp6597
Rp6598
(dp6599
g16
VNN
p6600
sbatp6601
Rp6602
(dp6603
g16
VNP
p6604
sbatp6605
Rp6606
(dp6607
g16
VVP
p6608
sbatp6609
Rp6610
(dp6611
g16
g87
sbatp6612
Rp6613
(dp6614
g16
g87
sbatp6615
Rp6616
(dp6617
g16
VNP
p6618
sbatp6619
Rp6620
(dp6621
g16
VROOT
p6622
sbasg311
(icmyPackage
CorE
p6623
(dp6624
g314
(lp6625
(I0
I45
tp6626
a(I0
I61
tp6627
asg318
g6460
sbsg324
(icmyPackage
CorE
p6628
(dp6629
g314
(lp6630
(I0
I62
tp6631
a(I0
I74
tp6632
asg318
g5
(g6
g7
(lp6633
g6554
ag6566
ag6610
atp6634
Rp6635
(dp6636
g16
g323
sbsbsg334
g5853
sg358
(lp6637
(isxpPackage
sxpSent
p6638
(dp6639
g362
(lp6640
I15
asg364
VIn order to prevent the trivial solution, the objective is extended with ( w , c ) pairs for which p ( D = 1 w , c ) must be low, i.e., pairs which are not in the data, by generating the set D u'\u005cu2032' of random ( w , c ) pairs (assuming they are all incorrect), yielding the negative-sampling training objective
p6641
sg366
I3
sg348
I46
sg367
I15
sbasba(icmyPackage
CELink
p6642
(dp6643
g3
(lp6644
g5
(g6
g7
(lp6645
g5
(g6
g7
(lp6646
g5
(g6
g7
(lp6647
g5
(g6
g7
(lp6648
g5
(g6
g7
(lp6649
g5
(g6
g7
(lp6650
VWe
p6651
atp6652
Rp6653
(dp6654
g16
VPRP
p6655
sbatp6656
Rp6657
(dp6658
g16
VNP
p6659
sbag5
(g6
g7
(lp6660
g5
(g6
g7
(lp6661
Vfollow
p6662
atp6663
Rp6664
(dp6665
g16
VVBP
p6666
sbag5
(g6
g7
(lp6667
g5
(g6
g7
(lp6668
g5
(g6
g7
(lp6669
g5
(g6
g7
(lp6670
Vthe
p6671
atp6672
Rp6673
(dp6674
g16
VDT
p6675
sbag5
(g6
g7
(lp6676
Vmethod
p6677
atp6678
Rp6679
(dp6680
g16
VNN
p6681
sbatp6682
Rp6683
(dp6684
g16
VNP
p6685
sbag5
(g6
g7
(lp6686
g5
(g6
g7
(lp6687
Vproposed
p6688
atp6689
Rp6690
(dp6691
g16
VVBD
p6692
sbag5
(g6
g7
(lp6693
g5
(g6
g7
(lp6694
Vby
p6695
atp6696
Rp6697
(dp6698
g16
VIN
p6699
sbag5
(g6
g7
(lp6700
g5
(g6
g7
(lp6701
g5
(g6
g7
(lp6702
VMikolov
p6703
atp6704
Rp6705
(dp6706
g16
VNNP
p6707
sbag5
(g6
g7
(lp6708
Vet
p6709
atp6710
Rp6711
(dp6712
g16
VCC
p6713
sbag5
(g6
g7
(lp6714
Val
p6715
atp6716
Rp6717
(dp6718
g16
VNNP
p6719
sbatp6720
Rp6721
(dp6722
g16
VNP
p6723
sbag5
(g6
g7
(lp6724
g5
(g6
g7
(lp6725
Vfor
p6726
atp6727
Rp6728
(dp6729
g16
VIN
p6730
sbag5
(g6
g7
(lp6731
g5
(g6
g7
(lp6732
g5
(g6
g7
(lp6733
Veach
p6734
atp6735
Rp6736
(dp6737
g16
VDT
p6738
sbatp6739
Rp6740
(dp6741
g16
VNP
p6742
sbag5
(g6
g7
(lp6743
g5
(g6
g7
(lp6744
V-LRB-
p6745
atp6746
Rp6747
(dp6748
g16
V-LRB-
p6749
sbag5
(g6
g7
(lp6750
g5
(g6
g7
(lp6751
g5
(g6
g7
(lp6752
g4209
atp6753
Rp6754
(dp6755
g16
VNN
p6756
sbatp6757
Rp6758
(dp6759
g16
VNP
p6760
sbag5
(g6
g7
(lp6761
g251
atp6762
Rp6763
(dp6764
g16
g251
sbag5
(g6
g7
(lp6765
g5
(g6
g7
(lp6766
g4405
atp6767
Rp6768
(dp6769
g16
VSYM
p6770
sbatp6771
Rp6772
(dp6773
g16
VNP
p6774
sbatp6775
Rp6776
(dp6777
g16
VNP
p6778
sbag5
(g6
g7
(lp6779
V-RRB-
p6780
atp6781
Rp6782
(dp6783
g16
V-RRB-
p6784
sbatp6785
Rp6786
(dp6787
g16
VPRN
p6788
sbatp6789
Rp6790
(dp6791
g16
VNP
p6792
sbatp6793
Rp6794
(dp6795
g16
VPP
p6796
sbatp6797
Rp6798
(dp6799
g16
VNP
p6800
sbatp6801
Rp6802
(dp6803
g16
VPP
p6804
sbag5
(g6
g7
(lp6805
g5
(g6
g7
(lp6806
g5
(g6
g7
(lp6807
g5
(g6
g7
(lp6808
g5
(g6
g7
(lp6809
g5
(g6
g7
(lp6810
g449
atp6811
Rp6812
(dp6813
g16
VNNP
p6814
sbag5
(g6
g7
(lp6815
g459
atp6816
Rp6817
(dp6818
g16
VPOS
p6819
sbatp6820
Rp6821
(dp6822
g16
VNP
p6823
sbag5
(g6
g7
(lp6824
V\u005c
p6825
atp6826
Rp6827
(dp6828
g16
VJJ
p6829
sbag5
(g6
g7
(lp6830
g5
(g6
g7
(lp6831
Vu2208
p6832
atp6833
Rp6834
(dp6835
g16
VNNP
p6836
sbag5
(g6
g7
(lp6837
g459
atp6838
Rp6839
(dp6840
g16
VPOS
p6841
sbatp6842
Rp6843
(dp6844
g16
VNP
p6845
sbag5
(g6
g7
(lp6846
g6079
atp6847
Rp6848
(dp6849
g16
VNNP
p6850
sbatp6851
Rp6852
(dp6853
g16
VNP
p6854
sbag5
(g6
g7
(lp6855
g5
(g6
g7
(lp6856
g5
(g6
g7
(lp6857
g5
(g6
g7
(lp6858
Vwe
p6859
atp6860
Rp6861
(dp6862
g16
VPRP
p6863
sbatp6864
Rp6865
(dp6866
g16
VNP
p6867
sbag5
(g6
g7
(lp6868
g5
(g6
g7
(lp6869
Vconstruct
p6870
atp6871
Rp6872
(dp6873
g16
VVB
p6874
sbag5
(g6
g7
(lp6875
g5
(g6
g7
(lp6876
Vn
p6877
atp6878
Rp6879
(dp6880
g16
VNN
p6881
sbag5
(g6
g7
(lp6882
Vsamples
p6883
atp6884
Rp6885
(dp6886
g16
VNNS
p6887
sbatp6888
Rp6889
(dp6890
g16
VNP
p6891
sbatp6892
Rp6893
(dp6894
g16
VVP
p6895
sbatp6896
Rp6897
(dp6898
g16
g87
sbatp6899
Rp6900
(dp6901
g16
VSBAR
p6902
sbatp6903
Rp6904
(dp6905
g16
VNP
p6906
sbag5
(g6
g7
(lp6907
g5
(g6
g7
(lp6908
V-LRB-
p6909
atp6910
Rp6911
(dp6912
g16
V-LRB-
p6913
sbag5
(g6
g7
(lp6914
g5
(g6
g7
(lp6915
g4209
atp6916
Rp6917
(dp6918
g16
VNN
p6919
sbatp6920
Rp6921
(dp6922
g16
VNP
p6923
sbag5
(g6
g7
(lp6924
g251
atp6925
Rp6926
(dp6927
g16
g251
sbag5
(g6
g7
(lp6928
g5
(g6
g7
(lp6929
g4405
atp6930
Rp6931
(dp6932
g16
VNN
p6933
sbag5
(g6
g7
(lp6934
g6096
atp6935
Rp6936
(dp6937
g16
VCD
p6938
sbatp6939
Rp6940
(dp6941
g16
VNP
p6942
sbag5
(g6
g7
(lp6943
V-RRB-
p6944
atp6945
Rp6946
(dp6947
g16
V-RRB-
p6948
sbatp6949
Rp6950
(dp6951
g16
VPRN
p6952
sbatp6953
Rp6954
(dp6955
g16
VNP
p6956
sbag5
(g6
g7
(lp6957
g251
atp6958
Rp6959
(dp6960
g16
g251
sbag5
(g6
g7
(lp6961
g5
(g6
g7
(lp6962
g5
(g6
g7
(lp6963
g5
(g6
g7
(lp6964
g449
atp6965
Rp6966
(dp6967
g16
VNNP
p6968
sbag5
(g6
g7
(lp6969
g459
atp6970
Rp6971
(dp6972
g16
VPOS
p6973
sbatp6974
Rp6975
(dp6976
g16
VNP
p6977
sbag5
(g6
g7
(lp6978
V\u005c
p6979
atp6980
Rp6981
(dp6982
g16
VNN
p6983
sbag5
(g6
g7
(lp6984
Vu2026
p6985
atp6986
Rp6987
(dp6988
g16
VNN
p6989
sbag5
(g6
g7
(lp6990
g459
atp6991
Rp6992
(dp6993
g16
V''
p6994
sbatp6995
Rp6996
(dp6997
g16
VNP
p6998
sbag5
(g6
g7
(lp6999
g251
atp7000
Rp7001
(dp7002
g16
g251
sbag5
(g6
g7
(lp7003
g5
(g6
g7
(lp7004
V-LRB-
p7005
atp7006
Rp7007
(dp7008
g16
V-LRB-
p7009
sbag5
(g6
g7
(lp7010
g5
(g6
g7
(lp7011
g5
(g6
g7
(lp7012
g4209
atp7013
Rp7014
(dp7015
g16
VNN
p7016
sbatp7017
Rp7018
(dp7019
g16
VNP
p7020
sbag5
(g6
g7
(lp7021
g251
atp7022
Rp7023
(dp7024
g16
g251
sbag5
(g6
g7
(lp7025
g5
(g6
g7
(lp7026
g4405
atp7027
Rp7028
(dp7029
g16
VNN
p7030
sbag5
(g6
g7
(lp7031
g6877
atp7032
Rp7033
(dp7034
g16
VNN
p7035
sbatp7036
Rp7037
(dp7038
g16
VNP
p7039
sbatp7040
Rp7041
(dp7042
g16
VNP
p7043
sbag5
(g6
g7
(lp7044
V-RRB-
p7045
atp7046
Rp7047
(dp7048
g16
V-RRB-
p7049
sbatp7050
Rp7051
(dp7052
g16
VPRN
p7053
sbatp7054
Rp7055
(dp7056
g16
VNP
p7057
sbag5
(g6
g7
(lp7058
g251
atp7059
Rp7060
(dp7061
g16
g251
sbag5
(g6
g7
(lp7062
g5
(g6
g7
(lp7063
g5
(g6
g7
(lp7064
Vwhere
p7065
atp7066
Rp7067
(dp7068
g16
VWRB
p7069
sbatp7070
Rp7071
(dp7072
g16
VWHADVP
p7073
sbag5
(g6
g7
(lp7074
g5
(g6
g7
(lp7075
g5
(g6
g7
(lp7076
g6877
atp7077
Rp7078
(dp7079
g16
VNN
p7080
sbatp7081
Rp7082
(dp7083
g16
VNP
p7084
sbag5
(g6
g7
(lp7085
g5
(g6
g7
(lp7086
Vis
p7087
atp7088
Rp7089
(dp7090
g16
VVBZ
p7091
sbag5
(g6
g7
(lp7092
g5
(g6
g7
(lp7093
g783
atp7094
Rp7095
(dp7096
g16
VDT
p7097
sbag5
(g6
g7
(lp7098
Vhyperparameter
p7099
atp7100
Rp7101
(dp7102
g16
VNN
p7103
sbatp7104
Rp7105
(dp7106
g16
VNP
p7107
sbatp7108
Rp7109
(dp7110
g16
VVP
p7111
sbatp7112
Rp7113
(dp7114
g16
g87
sbatp7115
Rp7116
(dp7117
g16
VSBAR
p7118
sbatp7119
Rp7120
(dp7121
g16
VNP
p7122
sbatp7123
Rp7124
(dp7125
g16
VVP
p7126
sbatp7127
Rp7128
(dp7129
g16
g87
sbatp7130
Rp7131
(dp7132
g16
VSBAR
p7133
sbatp7134
Rp7135
(dp7136
g16
VVP
p7137
sbatp7138
Rp7139
(dp7140
g16
g87
sbag5
(g6
g7
(lp7141
Vand
p7142
atp7143
Rp7144
(dp7145
g16
VCC
p7146
sbag5
(g6
g7
(lp7147
g5
(g6
g7
(lp7148
g5
(g6
g7
(lp7149
Veach
p7150
atp7151
Rp7152
(dp7153
g16
VDT
p7154
sbag5
(g6
g7
(lp7155
g4405
atp7156
Rp7157
(dp7158
g16
VNN
p7159
sbag5
(g6
g7
(lp7160
Vj
p7161
atp7162
Rp7163
(dp7164
g16
VNN
p7165
sbatp7166
Rp7167
(dp7168
g16
VNP
p7169
sbag5
(g6
g7
(lp7170
g5
(g6
g7
(lp7171
Vis
p7172
atp7173
Rp7174
(dp7175
g16
VVBZ
p7176
sbag5
(g6
g7
(lp7177
g5
(g6
g7
(lp7178
Vdrawn
p7179
atp7180
Rp7181
(dp7182
g16
VVBN
p7183
sbag5
(g6
g7
(lp7184
g5
(g6
g7
(lp7185
Vaccording
p7186
atp7187
Rp7188
(dp7189
g16
VVBG
p7190
sbag5
(g6
g7
(lp7191
g5
(g6
g7
(lp7192
Vto
p7193
atp7194
Rp7195
(dp7196
g16
VTO
p7197
sbag5
(g6
g7
(lp7198
g5
(g6
g7
(lp7199
Vits
p7200
atp7201
Rp7202
(dp7203
g16
VPRP$
p7204
sbag5
(g6
g7
(lp7205
Vunigram
p7206
atp7207
Rp7208
(dp7209
g16
VNN
p7210
sbag5
(g6
g7
(lp7211
Vdistribution
p7212
atp7213
Rp7214
(dp7215
g16
VNN
p7216
sbatp7217
Rp7218
(dp7219
g16
VNP
p7220
sbatp7221
Rp7222
(dp7223
g16
VPP
p7224
sbatp7225
Rp7226
(dp7227
g16
VPP
p7228
sbatp7229
Rp7230
(dp7231
g16
VVP
p7232
sbatp7233
Rp7234
(dp7235
g16
VVP
p7236
sbatp7237
Rp7238
(dp7239
g16
g87
sbatp7240
Rp7241
(dp7242
g16
g87
sbag5
(g6
g7
(lp7243
g5
(g6
g7
(lp7244
Vraised
p7245
atp7246
Rp7247
(dp7248
g16
VVBD
p7249
sbag5
(g6
g7
(lp7250
g5
(g6
g7
(lp7251
Vto
p7252
atp7253
Rp7254
(dp7255
g16
VTO
p7256
sbag5
(g6
g7
(lp7257
g5
(g6
g7
(lp7258
Vthe
p7259
atp7260
Rp7261
(dp7262
g16
VDT
p7263
sbag5
(g6
g7
(lp7264
g2576
atp7265
Rp7266
(dp7267
g16
VCD
p7268
sbag5
(g6
g7
(lp7269
V/
p7270
atp7271
Rp7272
(dp7273
g16
VNNS
p7274
sbatp7275
Rp7276
(dp7277
g16
VNP
p7278
sbatp7279
Rp7280
(dp7281
g16
VPP
p7282
sbatp7283
Rp7284
(dp7285
g16
VVP
p7286
sbag5
(g6
g7
(lp7287
g5
(g6
g7
(lp7288
g2887
atp7289
Rp7290
(dp7291
g16
VCD
p7292
sbag5
(g6
g7
(lp7293
Vpower
p7294
atp7295
Rp7296
(dp7297
g16
VNN
p7298
sbatp7299
Rp7300
(dp7301
g16
VNP
p7302
sbatp7303
Rp7304
(dp7305
g16
VSINV
p7306
sbatp7307
Rp7308
(dp7309
g16
VROOT
p7310
sbasg311
(icmyPackage
CorE
p7311
(dp7312
g314
(lp7313
(I0
I59
tp7314
a(I0
I61
tp7315
asg318
g7218
sbsg324
(icmyPackage
CorE
p7316
(dp7317
g314
(lp7318
(I0
I0
tp7319
a(I0
I56
tp7320
asg318
g5
(g6
g7
(lp7321
g7139
ag7144
ag7167
ag7174
ag7181
atp7322
Rp7323
(dp7324
g16
g323
sbsbsg334
(icmyPackage
pattern
p7325
(dp7326
g337
I0
sg338
I0
sg339
(lp7327
(lp7328
S'according'
p7329
aS'to'
p7330
aasg343
(lp7331
I2
aI1
aI1
asg345
(lp7332
S'There could be different ways to arrange pictures in displays but picture should be selected according to the core sentences and arranged near the core sentences according to the semantic locality principle.'
p7333
asg348
I55
sg349
(lp7334
(lp7335
S'&R'
p7336
aS'(,)'
p7337
aa(lp7338
S'&NP@C@'
p7339
aasbsg358
(lp7340
(isxpPackage
sxpSent
p7341
(dp7342
g362
(lp7343
I16
asg364
VWe follow the method proposed by Mikolov et al for each ( w , c ) u'\u005cu2208' D we construct n samples ( w , c 1 ) , u'\u005cu2026' , ( w , c n ) , where n is a hyperparameter and each c j is drawn according to its unigram distribution raised to the 3 / 4 power
p7344
sg366
I3
sg348
I53
sg367
I20
sbasba(icmyPackage
CELink
p7345
(dp7346
g3
(lp7347
g5
(g6
g7
(lp7348
g5
(g6
g7
(lp7349
g5
(g6
g7
(lp7350
g5
(g6
g7
(lp7351
VOptimizing
p7352
atp7353
Rp7354
(dp7355
g16
VVBG
p7356
sbag5
(g6
g7
(lp7357
g5
(g6
g7
(lp7358
g5
(g6
g7
(lp7359
g5
(g6
g7
(lp7360
Vthis
p7361
atp7362
Rp7363
(dp7364
g16
VDT
p7365
sbag5
(g6
g7
(lp7366
Vobjective
p7367
atp7368
Rp7369
(dp7370
g16
VNN
p7371
sbatp7372
Rp7373
(dp7374
g16
VNP
p7375
sbag5
(g6
g7
(lp7376
g5
(g6
g7
(lp7377
Vmakes
p7378
atp7379
Rp7380
(dp7381
g16
VVBZ
p7382
sbatp7383
Rp7384
(dp7385
g16
VVP
p7386
sbatp7387
Rp7388
(dp7389
g16
g87
sbatp7390
Rp7391
(dp7392
g16
VSBAR
p7393
sbatp7394
Rp7395
(dp7396
g16
VVP
p7397
sbag5
(g6
g7
(lp7398
g5
(g6
g7
(lp7399
Vobserved
p7400
atp7401
Rp7402
(dp7403
g16
VVBD
p7404
sbag5
(g6
g7
(lp7405
g5
(g6
g7
(lp7406
g5
(g6
g7
(lp7407
g5
(g6
g7
(lp7408
Vword-context
p7409
atp7410
Rp7411
(dp7412
g16
VJJ
p7413
sbag5
(g6
g7
(lp7414
Vpairs
p7415
atp7416
Rp7417
(dp7418
g16
VNNS
p7419
sbatp7420
Rp7421
(dp7422
g16
VNP
p7423
sbag5
(g6
g7
(lp7424
g5
(g6
g7
(lp7425
Vhave
p7426
atp7427
Rp7428
(dp7429
g16
VVBP
p7430
sbatp7431
Rp7432
(dp7433
g16
VVP
p7434
sbatp7435
Rp7436
(dp7437
g16
g87
sbatp7438
Rp7439
(dp7440
g16
VSBAR
p7441
sbatp7442
Rp7443
(dp7444
g16
VVP
p7445
sbag5
(g6
g7
(lp7446
g5
(g6
g7
(lp7447
g5
(g6
g7
(lp7448
Vsimilar
p7449
atp7450
Rp7451
(dp7452
g16
VJJ
p7453
sbag5
(g6
g7
(lp7454
Vembeddings
p7455
atp7456
Rp7457
(dp7458
g16
VNNS
p7459
sbatp7460
Rp7461
(dp7462
g16
VNP
p7463
sbag5
(g6
g7
(lp7464
g251
atp7465
Rp7466
(dp7467
g16
g251
sbag5
(g6
g7
(lp7468
g5
(g6
g7
(lp7469
Vwhile
p7470
atp7471
Rp7472
(dp7473
g16
VIN
p7474
sbag5
(g6
g7
(lp7475
g5
(g6
g7
(lp7476
g5
(g6
g7
(lp7477
Vscattering
p7478
atp7479
Rp7480
(dp7481
g16
VVBG
p7482
sbag5
(g6
g7
(lp7483
g5
(g6
g7
(lp7484
g5
(g6
g7
(lp7485
Vunobserved
p7486
atp7487
Rp7488
(dp7489
g16
VJJ
p7490
sbatp7491
Rp7492
(dp7493
g16
VADJP
p7494
sbag5
(g6
g7
(lp7495
Vpairs
p7496
atp7497
Rp7498
(dp7499
g16
VNNS
p7500
sbatp7501
Rp7502
(dp7503
g16
VNP
p7504
sbatp7505
Rp7506
(dp7507
g16
VVP
p7508
sbatp7509
Rp7510
(dp7511
g16
g87
sbatp7512
Rp7513
(dp7514
g16
VSBAR
p7515
sbatp7516
Rp7517
(dp7518
g16
VNP
p7519
sbatp7520
Rp7521
(dp7522
g16
VSINV
p7523
sbatp7524
Rp7525
(dp7526
g16
VROOT
p7527
sbasg311
(icmyPackage
CorE
p7528
(dp7529
g314
(lp7530
(I0
I0
tp7531
a(I0
I3
tp7532
asg318
g7395
sbsg324
(icmyPackage
CorE
p7533
(dp7534
g314
(lp7535
(I0
I4
tp7536
a(I0
I10
tp7537
asg318
g5
(g6
g7
(lp7538
g7443
ag7461
ag7466
atp7539
Rp7540
(dp7541
g16
g323
sbsbsg334
g5448
sg358
(lp7542
(isxpPackage
sxpSent
p7543
(dp7544
g362
(lp7545
I17
asg364
VOptimizing this objective makes observed word-context pairs have similar embeddings, while scattering unobserved pairs
p7546
sg366
I3
sg348
I54
sg367
I21
sbasba(icmyPackage
CELink
p7547
(dp7548
g3
(lp7549
g5
(g6
g7
(lp7550
g5
(g6
g7
(lp7551
g5
(g6
g7
(lp7552
g5
(g6
g7
(lp7553
VThe
p7554
atp7555
Rp7556
(dp7557
g16
VDT
p7558
sbag5
(g6
g7
(lp7559
Vcontext
p7560
atp7561
Rp7562
(dp7563
g16
VNN
p7564
sbag5
(g6
g7
(lp7565
Vvocabulary
p7566
atp7567
Rp7568
(dp7569
g16
VNN
p7570
sbag5
(g6
g7
(lp7571
g4447
atp7572
Rp7573
(dp7574
g16
VNNP
p7575
sbatp7576
Rp7577
(dp7578
g16
VNP
p7579
sbag5
(g6
g7
(lp7580
g5
(g6
g7
(lp7581
Vis
p7582
atp7583
Rp7584
(dp7585
g16
VVBZ
p7586
sbag5
(g6
g7
(lp7587
g5
(g6
g7
(lp7588
Vthus
p7589
atp7590
Rp7591
(dp7592
g16
VRB
p7593
sbatp7594
Rp7595
(dp7596
g16
VADVP
p7597
sbag5
(g6
g7
(lp7598
g5
(g6
g7
(lp7599
Videntical
p7600
atp7601
Rp7602
(dp7603
g16
VJJ
p7604
sbag5
(g6
g7
(lp7605
g5
(g6
g7
(lp7606
Vto
p7607
atp7608
Rp7609
(dp7610
g16
VTO
p7611
sbag5
(g6
g7
(lp7612
g5
(g6
g7
(lp7613
Vthe
p7614
atp7615
Rp7616
(dp7617
g16
VDT
p7618
sbag5
(g6
g7
(lp7619
Vword
p7620
atp7621
Rp7622
(dp7623
g16
VNN
p7624
sbag5
(g6
g7
(lp7625
Vvocabulary
p7626
atp7627
Rp7628
(dp7629
g16
VNN
p7630
sbag5
(g6
g7
(lp7631
g4251
atp7632
Rp7633
(dp7634
g16
VNNP
p7635
sbatp7636
Rp7637
(dp7638
g16
VNP
p7639
sbatp7640
Rp7641
(dp7642
g16
VPP
p7643
sbatp7644
Rp7645
(dp7646
g16
VADJP
p7647
sbatp7648
Rp7649
(dp7650
g16
VVP
p7651
sbatp7652
Rp7653
(dp7654
g16
g87
sbatp7655
Rp7656
(dp7657
g16
VROOT
p7658
sbag5
(g6
g7
(lp7659
g5
(g6
g7
(lp7660
g5
(g6
g7
(lp7661
g5
(g6
g7
(lp7662
g5
(g6
g7
(lp7663
VHowever
p7664
atp7665
Rp7666
(dp7667
g16
VRB
p7668
sbatp7669
Rp7670
(dp7671
g16
VADVP
p7672
sbag5
(g6
g7
(lp7673
g251
atp7674
Rp7675
(dp7676
g16
g251
sbag5
(g6
g7
(lp7677
g5
(g6
g7
(lp7678
Vthis
p7679
atp7680
Rp7681
(dp7682
g16
VDT
p7683
sbag5
(g6
g7
(lp7684
Vrestriction
p7685
atp7686
Rp7687
(dp7688
g16
VNN
p7689
sbatp7690
Rp7691
(dp7692
g16
VNP
p7693
sbag5
(g6
g7
(lp7694
g5
(g6
g7
(lp7695
Vis
p7696
atp7697
Rp7698
(dp7699
g16
VVBZ
p7700
sbag5
(g6
g7
(lp7701
Vnot
p7702
atp7703
Rp7704
(dp7705
g16
VRB
p7706
sbag5
(g6
g7
(lp7707
g5
(g6
g7
(lp7708
Vrequired
p7709
atp7710
Rp7711
(dp7712
g16
VVBN
p7713
sbag5
(g6
g7
(lp7714
g5
(g6
g7
(lp7715
Vby
p7716
atp7717
Rp7718
(dp7719
g16
VIN
p7720
sbag5
(g6
g7
(lp7721
g5
(g6
g7
(lp7722
Vthe
p7723
atp7724
Rp7725
(dp7726
g16
VDT
p7727
sbag5
(g6
g7
(lp7728
Vmodel
p7729
atp7730
Rp7731
(dp7732
g16
VNN
p7733
sbatp7734
Rp7735
(dp7736
g16
VNP
p7737
sbatp7738
Rp7739
(dp7740
g16
VPP
p7741
sbatp7742
Rp7743
(dp7744
g16
VVP
p7745
sbatp7746
Rp7747
(dp7748
g16
VVP
p7749
sbatp7750
Rp7751
(dp7752
g16
g87
sbag5
(g6
g7
(lp7753
V;
p7754
atp7755
Rp7756
(dp7757
g16
V:
p7758
sbag5
(g6
g7
(lp7759
g5
(g6
g7
(lp7760
g5
(g6
g7
(lp7761
Vcontexts
p7762
atp7763
Rp7764
(dp7765
g16
VNNS
p7766
sbatp7767
Rp7768
(dp7769
g16
VNP
p7770
sbag5
(g6
g7
(lp7771
g5
(g6
g7
(lp7772
Vneed
p7773
atp7774
Rp7775
(dp7776
g16
VVBP
p7777
sbag5
(g6
g7
(lp7778
Vnot
p7779
atp7780
Rp7781
(dp7782
g16
VRB
p7783
sbag5
(g6
g7
(lp7784
g5
(g6
g7
(lp7785
Vcorrespond
p7786
atp7787
Rp7788
(dp7789
g16
VVB
p7790
sbag5
(g6
g7
(lp7791
g5
(g6
g7
(lp7792
Vto
p7793
atp7794
Rp7795
(dp7796
g16
VTO
p7797
sbag5
(g6
g7
(lp7798
g5
(g6
g7
(lp7799
Vwords
p7800
atp7801
Rp7802
(dp7803
g16
VNNS
p7804
sbatp7805
Rp7806
(dp7807
g16
VNP
p7808
sbatp7809
Rp7810
(dp7811
g16
VPP
p7812
sbatp7813
Rp7814
(dp7815
g16
VVP
p7816
sbatp7817
Rp7818
(dp7819
g16
VVP
p7820
sbatp7821
Rp7822
(dp7823
g16
g87
sbag5
(g6
g7
(lp7824
g251
atp7825
Rp7826
(dp7827
g16
g251
sbag5
(g6
g7
(lp7828
Vand
p7829
atp7830
Rp7831
(dp7832
g16
VCC
p7833
sbag5
(g6
g7
(lp7834
g5
(g6
g7
(lp7835
g5
(g6
g7
(lp7836
g5
(g6
g7
(lp7837
Vthe
p7838
atp7839
Rp7840
(dp7841
g16
VDT
p7842
sbag5
(g6
g7
(lp7843
Vnumber
p7844
atp7845
Rp7846
(dp7847
g16
VNN
p7848
sbatp7849
Rp7850
(dp7851
g16
VNP
p7852
sbag5
(g6
g7
(lp7853
g5
(g6
g7
(lp7854
Vof
p7855
atp7856
Rp7857
(dp7858
g16
VIN
p7859
sbag5
(g6
g7
(lp7860
g5
(g6
g7
(lp7861
Vcontext-types
p7862
atp7863
Rp7864
(dp7865
g16
VNNS
p7866
sbatp7867
Rp7868
(dp7869
g16
VNP
p7870
sbatp7871
Rp7872
(dp7873
g16
VPP
p7874
sbatp7875
Rp7876
(dp7877
g16
VNP
p7878
sbag5
(g6
g7
(lp7879
g5
(g6
g7
(lp7880
Vcan
p7881
atp7882
Rp7883
(dp7884
g16
VMD
p7885
sbag5
(g6
g7
(lp7886
g5
(g6
g7
(lp7887
Vbe
p7888
atp7889
Rp7890
(dp7891
g16
VVB
p7892
sbag5
(g6
g7
(lp7893
g5
(g6
g7
(lp7894
Vsubstantially
p7895
atp7896
Rp7897
(dp7898
g16
VRB
p7899
sbag5
(g6
g7
(lp7900
Vlarger
p7901
atp7902
Rp7903
(dp7904
g16
VJJR
p7905
sbatp7906
Rp7907
(dp7908
g16
VADJP
p7909
sbag5
(g6
g7
(lp7910
g5
(g6
g7
(lp7911
Vthan
p7912
atp7913
Rp7914
(dp7915
g16
VIN
p7916
sbag5
(g6
g7
(lp7917
g5
(g6
g7
(lp7918
g5
(g6
g7
(lp7919
Vthe
p7920
atp7921
Rp7922
(dp7923
g16
VDT
p7924
sbag5
(g6
g7
(lp7925
Vnumber
p7926
atp7927
Rp7928
(dp7929
g16
VNN
p7930
sbatp7931
Rp7932
(dp7933
g16
VNP
p7934
sbag5
(g6
g7
(lp7935
g5
(g6
g7
(lp7936
Vof
p7937
atp7938
Rp7939
(dp7940
g16
VIN
p7941
sbag5
(g6
g7
(lp7942
g5
(g6
g7
(lp7943
Vword-types
p7944
atp7945
Rp7946
(dp7947
g16
VNNS
p7948
sbatp7949
Rp7950
(dp7951
g16
VNP
p7952
sbatp7953
Rp7954
(dp7955
g16
VPP
p7956
sbatp7957
Rp7958
(dp7959
g16
VNP
p7960
sbatp7961
Rp7962
(dp7963
g16
VPP
p7964
sbatp7965
Rp7966
(dp7967
g16
VVP
p7968
sbatp7969
Rp7970
(dp7971
g16
VVP
p7972
sbatp7973
Rp7974
(dp7975
g16
g87
sbatp7976
Rp7977
(dp7978
g16
g87
sbatp7979
Rp7980
(dp7981
g16
VROOT
p7982
sbasg311
(icmyPackage
CorE
p7983
(dp7984
g314
(lp7985
(I0
I0
tp7986
a(I0
I4
tp7987
asg318
g5
(g6
g7
(lp7988
g7577
ag7584
atp7989
Rp7990
(dp7991
g16
g323
sbsbsg324
(icmyPackage
CorE
p7992
(dp7993
g314
(lp7994
(I0
I6
tp7995
a(I1
I30
tp7996
asg318
g5
(g6
g7
(lp7997
g7645
ag7751
ag7756
ag7822
ag7826
ag7831
ag7876
ag7883
ag7890
ag7907
ag7914
ag7932
ag7939
atp7998
Rp7999
(dp8000
g16
g323
sbsbsg334
g1382
sg358
(lp8001
(isxpPackage
sxpSent
p8002
(dp8003
g362
(lp8004
I18
asg364
VThe context vocabulary C is thus identical to the word vocabulary W
p8005
sg366
I4
sg348
I57
sg367
I22
sba(isxpPackage
sxpSent
p8006
(dp8007
g362
(lp8008
I18
asg364
VHowever, this restriction is not required by the model; contexts need not correspond to words, and the number of context-types can be substantially larger than the number of word-types
p8009
sg366
I4
sg348
I58
sg367
I22
sbasba(icmyPackage
CELink
p8010
(dp8011
g3
(lp8012
g5
(g6
g7
(lp8013
g5
(g6
g7
(lp8014
g5
(g6
g7
(lp8015
g5
(g6
g7
(lp8016
VIn
p8017
atp8018
Rp8019
(dp8020
g16
VIN
p8021
sbag5
(g6
g7
(lp8022
g5
(g6
g7
(lp8023
Vthis
p8024
atp8025
Rp8026
(dp8027
g16
VDT
p8028
sbag5
(g6
g7
(lp8029
Vpaper
p8030
atp8031
Rp8032
(dp8033
g16
VNN
p8034
sbatp8035
Rp8036
(dp8037
g16
VNP
p8038
sbatp8039
Rp8040
(dp8041
g16
VPP
p8042
sbag5
(g6
g7
(lp8043
g5
(g6
g7
(lp8044
Vwe
p8045
atp8046
Rp8047
(dp8048
g16
VPRP
p8049
sbatp8050
Rp8051
(dp8052
g16
VNP
p8053
sbag5
(g6
g7
(lp8054
g5
(g6
g7
(lp8055
Vexperiment
p8056
atp8057
Rp8058
(dp8059
g16
VVBZ
p8060
sbag5
(g6
g7
(lp8061
g5
(g6
g7
(lp8062
Vwith
p8063
atp8064
Rp8065
(dp8066
g16
VIN
p8067
sbag5
(g6
g7
(lp8068
g5
(g6
g7
(lp8069
Vdependency-based
p8070
atp8071
Rp8072
(dp8073
g16
VJJ
p8074
sbag5
(g6
g7
(lp8075
Vsyntactic
p8076
atp8077
Rp8078
(dp8079
g16
VJJ
p8080
sbag5
(g6
g7
(lp8081
Vcontexts
p8082
atp8083
Rp8084
(dp8085
g16
VNNS
p8086
sbatp8087
Rp8088
(dp8089
g16
VNP
p8090
sbatp8091
Rp8092
(dp8093
g16
VPP
p8094
sbatp8095
Rp8096
(dp8097
g16
VVP
p8098
sbatp8099
Rp8100
(dp8101
g16
g87
sbatp8102
Rp8103
(dp8104
g16
VROOT
p8105
sbag5
(g6
g7
(lp8106
g5
(g6
g7
(lp8107
g5
(g6
g7
(lp8108
g5
(g6
g7
(lp8109
VSyntactic
p8110
atp8111
Rp8112
(dp8113
g16
VJJ
p8114
sbag5
(g6
g7
(lp8115
Vcontexts
p8116
atp8117
Rp8118
(dp8119
g16
VNNS
p8120
sbatp8121
Rp8122
(dp8123
g16
VNP
p8124
sbag5
(g6
g7
(lp8125
g5
(g6
g7
(lp8126
Vcapture
p8127
atp8128
Rp8129
(dp8130
g16
VVB
p8131
sbag5
(g6
g7
(lp8132
g5
(g6
g7
(lp8133
Vdifferent
p8134
atp8135
Rp8136
(dp8137
g16
VJJ
p8138
sbag5
(g6
g7
(lp8139
Vinformation
p8140
atp8141
Rp8142
(dp8143
g16
VNN
p8144
sbatp8145
Rp8146
(dp8147
g16
VNP
p8148
sbag5
(g6
g7
(lp8149
g5
(g6
g7
(lp8150
Vthan
p8151
atp8152
Rp8153
(dp8154
g16
VIN
p8155
sbag5
(g6
g7
(lp8156
g5
(g6
g7
(lp8157
Vbag-of-word
p8158
atp8159
Rp8160
(dp8161
g16
VJJ
p8162
sbag5
(g6
g7
(lp8163
Vcontexts
p8164
atp8165
Rp8166
(dp8167
g16
VNNS
p8168
sbatp8169
Rp8170
(dp8171
g16
VNP
p8172
sbatp8173
Rp8174
(dp8175
g16
VPP
p8176
sbag5
(g6
g7
(lp8177
g251
atp8178
Rp8179
(dp8180
g16
g251
sbag5
(g6
g7
(lp8181
g5
(g6
g7
(lp8182
Vas
p8183
atp8184
Rp8185
(dp8186
g16
VIN
p8187
sbag5
(g6
g7
(lp8188
g5
(g6
g7
(lp8189
g5
(g6
g7
(lp8190
Vwe
p8191
atp8192
Rp8193
(dp8194
g16
VPRP
p8195
sbatp8196
Rp8197
(dp8198
g16
VNP
p8199
sbag5
(g6
g7
(lp8200
g5
(g6
g7
(lp8201
Vdemonstrate
p8202
atp8203
Rp8204
(dp8205
g16
VVBP
p8206
sbag5
(g6
g7
(lp8207
g5
(g6
g7
(lp8208
g5
(g6
g7
(lp8209
Vusing
p8210
atp8211
Rp8212
(dp8213
g16
VVBG
p8214
sbag5
(g6
g7
(lp8215
g5
(g6
g7
(lp8216
g5
(g6
g7
(lp8217
g5
(g6
g7
(lp8218
g5
(g6
g7
(lp8219
g5
(g6
g7
(lp8220
Vthe
p8221
atp8222
Rp8223
(dp8224
g16
VDT
p8225
sbag5
(g6
g7
(lp8226
Vsentence
p8227
atp8228
Rp8229
(dp8230
g16
VNN
p8231
sbag5
(g6
g7
(lp8232
g449
atp8233
Rp8234
(dp8235
g16
VNN
p8236
sbag5
(g6
g7
(lp8237
g459
atp8238
Rp8239
(dp8240
g16
VPOS
p8241
sbatp8242
Rp8243
(dp8244
g16
VNP
p8245
sbag5
(g6
g7
(lp8246
V\u005c
p8247
atp8248
Rp8249
(dp8250
g16
VJJ
p8251
sbag5
(g6
g7
(lp8252
Vu201c
p8253
atp8254
Rp8255
(dp8256
g16
VNNS
p8257
sbag5
(g6
g7
(lp8258
g459
atp8259
Rp8260
(dp8261
g16
VPOS
p8262
sbatp8263
Rp8264
(dp8265
g16
VNP
p8266
sbag5
(g6
g7
(lp8267
VAustralian
p8268
atp8269
Rp8270
(dp8271
g16
VJJ
p8272
sbag5
(g6
g7
(lp8273
Vscientist
p8274
atp8275
Rp8276
(dp8277
g16
VNN
p8278
sbatp8279
Rp8280
(dp8281
g16
VNP
p8282
sbag5
(g6
g7
(lp8283
g5
(g6
g7
(lp8284
Vdiscovers
p8285
atp8286
Rp8287
(dp8288
g16
VVBZ
p8289
sbag5
(g6
g7
(lp8290
g5
(g6
g7
(lp8291
Vstar
p8292
atp8293
Rp8294
(dp8295
g16
VNN
p8296
sbatp8297
Rp8298
(dp8299
g16
VNP
p8300
sbag5
(g6
g7
(lp8301
g5
(g6
g7
(lp8302
Vwith
p8303
atp8304
Rp8305
(dp8306
g16
VIN
p8307
sbag5
(g6
g7
(lp8308
g5
(g6
g7
(lp8309
Vtelescope
p8310
atp8311
Rp8312
(dp8313
g16
VNN
p8314
sbag5
(g6
g7
(lp8315
g449
atp8316
Rp8317
(dp8318
g16
VNN
p8319
sbatp8320
Rp8321
(dp8322
g16
VNP
p8323
sbatp8324
Rp8325
(dp8326
g16
VPP
p8327
sbatp8328
Rp8329
(dp8330
g16
VVP
p8331
sbatp8332
Rp8333
(dp8334
g16
g87
sbatp8335
Rp8336
(dp8337
g16
VSBAR
p8338
sbatp8339
Rp8340
(dp8341
g16
VVP
p8342
sbatp8343
Rp8344
(dp8345
g16
g87
sbatp8346
Rp8347
(dp8348
g16
VVP
p8349
sbatp8350
Rp8351
(dp8352
g16
g87
sbatp8353
Rp8354
(dp8355
g16
VSBAR
p8356
sbag5
(g6
g7
(lp8357
g459
atp8358
Rp8359
(dp8360
g16
V''
p8361
sbag5
(g6
g7
(lp8362
g5
(g6
g7
(lp8363
V\u005c
p8364
atp8365
Rp8366
(dp8367
g16
VJJ
p8368
sbag5
(g6
g7
(lp8369
Vu201d
p8370
atp8371
Rp8372
(dp8373
g16
VNNS
p8374
sbatp8375
Rp8376
(dp8377
g16
VNP
p8378
sbag5
(g6
g7
(lp8379
g459
atp8380
Rp8381
(dp8382
g16
V''
p8383
sbatp8384
Rp8385
(dp8386
g16
VVP
p8387
sbatp8388
Rp8389
(dp8390
g16
VFRAG
p8391
sbatp8392
Rp8393
(dp8394
g16
VROOT
p8395
sbasg311
(icmyPackage
CorE
p8396
(dp8397
g314
(lp8398
(I1
I10
tp8399
a(I1
I26
tp8400
asg318
g8351
sbsg324
(icmyPackage
CorE
p8401
(dp8402
g314
(lp8403
(I0
I3
tp8404
a(I1
I7
tp8405
asg318
g5
(g6
g7
(lp8406
g8051
ag8096
ag8122
ag8129
ag8146
ag8174
atp8407
Rp8408
(dp8409
g16
g323
sbsbsg334
g335
sg358
(lp8410
(isxpPackage
sxpSent
p8411
(dp8412
g362
(lp8413
I19
asg364
VIn this paper we experiment with dependency-based syntactic contexts
p8414
sg366
I4
sg348
I60
sg367
I23
sba(isxpPackage
sxpSent
p8415
(dp8416
g362
(lp8417
I19
asg364
VSyntactic contexts capture different information than bag-of-word contexts, as we demonstrate using the sentence u'\u005cu201c' Australian scientist discovers star with telescope u'\u005cu201d'
p8418
sg366
I4
sg348
I61
sg367
I23
sbasba(icmyPackage
CELink
p8419
(dp8420
g3
(lp8421
g5
(g6
g7
(lp8422
g5
(g6
g7
(lp8423
g5
(g6
g7
(lp8424
g5
(g6
g7
(lp8425
VThe
p8426
atp8427
Rp8428
(dp8429
g16
VDT
p8430
sbag5
(g6
g7
(lp8431
Vsoftware
p8432
atp8433
Rp8434
(dp8435
g16
VNN
p8436
sbatp8437
Rp8438
(dp8439
g16
VNP
p8440
sbag5
(g6
g7
(lp8441
g5
(g6
g7
(lp8442
g5
(g6
g7
(lp8443
Vdefaults
p8444
atp8445
Rp8446
(dp8447
g16
VVBZ
p8448
sbag5
(g6
g7
(lp8449
g5
(g6
g7
(lp8450
g5
(g6
g7
(lp8451
Vto
p8452
atp8453
Rp8454
(dp8455
g16
VTO
p8456
sbag5
(g6
g7
(lp8457
g5
(g6
g7
(lp8458
Vprune
p8459
atp8460
Rp8461
(dp8462
g16
VVB
p8463
sbag5
(g6
g7
(lp8464
g5
(g6
g7
(lp8465
Vrare
p8466
atp8467
Rp8468
(dp8469
g16
VJJ
p8470
sbag5
(g6
g7
(lp8471
Vwords
p8472
atp8473
Rp8474
(dp8475
g16
VNNS
p8476
sbatp8477
Rp8478
(dp8479
g16
VNP
p8480
sbag5
(g6
g7
(lp8481
g5
(g6
g7
(lp8482
Vbased
p8483
atp8484
Rp8485
(dp8486
g16
VVBN
p8487
sbag5
(g6
g7
(lp8488
g5
(g6
g7
(lp8489
Von
p8490
atp8491
Rp8492
(dp8493
g16
VIN
p8494
sbag5
(g6
g7
(lp8495
g5
(g6
g7
(lp8496
Vtheir
p8497
atp8498
Rp8499
(dp8500
g16
VPRP$
p8501
sbag5
(g6
g7
(lp8502
Vfrequency
p8503
atp8504
Rp8505
(dp8506
g16
VNN
p8507
sbatp8508
Rp8509
(dp8510
g16
VNP
p8511
sbatp8512
Rp8513
(dp8514
g16
VPP
p8515
sbatp8516
Rp8517
(dp8518
g16
VPP
p8519
sbatp8520
Rp8521
(dp8522
g16
VVP
p8523
sbatp8524
Rp8525
(dp8526
g16
VVP
p8527
sbatp8528
Rp8529
(dp8530
g16
g87
sbatp8531
Rp8532
(dp8533
g16
VVP
p8534
sbag5
(g6
g7
(lp8535
g251
atp8536
Rp8537
(dp8538
g16
g251
sbag5
(g6
g7
(lp8539
Vand
p8540
atp8541
Rp8542
(dp8543
g16
VCC
p8544
sbag5
(g6
g7
(lp8545
g5
(g6
g7
(lp8546
Vhas
p8547
atp8548
Rp8549
(dp8550
g16
VVBZ
p8551
sbag5
(g6
g7
(lp8552
g5
(g6
g7
(lp8553
g5
(g6
g7
(lp8554
Van
p8555
atp8556
Rp8557
(dp8558
g16
VDT
p8559
sbag5
(g6
g7
(lp8560
Voption
p8561
atp8562
Rp8563
(dp8564
g16
VNN
p8565
sbatp8566
Rp8567
(dp8568
g16
VNP
p8569
sbag5
(g6
g7
(lp8570
g5
(g6
g7
(lp8571
Vfor
p8572
atp8573
Rp8574
(dp8575
g16
VIN
p8576
sbag5
(g6
g7
(lp8577
g5
(g6
g7
(lp8578
g5
(g6
g7
(lp8579
Vsub-sampling
p8580
atp8581
Rp8582
(dp8583
g16
VVBG
p8584
sbag5
(g6
g7
(lp8585
g5
(g6
g7
(lp8586
Vthe
p8587
atp8588
Rp8589
(dp8590
g16
VDT
p8591
sbag5
(g6
g7
(lp8592
Vfrequent
p8593
atp8594
Rp8595
(dp8596
g16
VJJ
p8597
sbag5
(g6
g7
(lp8598
Vwords
p8599
atp8600
Rp8601
(dp8602
g16
VNNS
p8603
sbatp8604
Rp8605
(dp8606
g16
VNP
p8607
sbatp8608
Rp8609
(dp8610
g16
VVP
p8611
sbatp8612
Rp8613
(dp8614
g16
g87
sbatp8615
Rp8616
(dp8617
g16
VPP
p8618
sbatp8619
Rp8620
(dp8621
g16
VNP
p8622
sbatp8623
Rp8624
(dp8625
g16
VVP
p8626
sbatp8627
Rp8628
(dp8629
g16
VVP
p8630
sbatp8631
Rp8632
(dp8633
g16
g87
sbatp8634
Rp8635
(dp8636
g16
VROOT
p8637
sbasg311
(icmyPackage
CorE
p8638
(dp8639
g314
(lp8640
(I0
I17
tp8641
a(I0
I20
tp8642
asg318
g8613
sbsg324
(icmyPackage
CorE
p8643
(dp8644
g314
(lp8645
(I0
I0
tp8646
a(I0
I15
tp8647
asg318
g5
(g6
g7
(lp8648
g8438
ag8532
ag8537
ag8542
ag8549
ag8567
atp8649
Rp8650
(dp8651
g16
g323
sbsbsg334
(icmyPackage
pattern
p8652
(dp8653
g337
I25
sg338
I0
sg339
(lp8654
(lp8655
S'for'
p8656
aasg343
(lp8657
I2
aI1
aI1
asg345
(lp8658
S'She was angry with him for being late.'
p8659
asg348
I44
sg349
(lp8660
(lp8661
S'&R'
p8662
aa(lp8663
S'&V-ing@C@'
p8664
aasbsg358
(lp8665
(isxpPackage
sxpSent
p8666
(dp8667
g362
(lp8668
I20
aI21
asg364
VThe software defaults to prune rare words based on their frequency, and has an option for sub-sampling the frequent words
p8669
sg366
I4
sg348
I67
sg367
I24
sbasba(icmyPackage
CELink
p8670
(dp8671
g3
(lp8672
g8650
asg311
(icmyPackage
CorE
p8673
(dp8674
g314
(lp8675
(I0
I9
tp8676
a(I0
I10
tp8677
asg318
g8509
sbsg324
(icmyPackage
CorE
p8678
(dp8679
g314
(lp8680
(I0
I12
tp8681
a(I0
I15
tp8682
asg318
g5
(g6
g7
(lp8683
g8542
ag8549
ag8567
atp8684
Rp8685
(dp8686
g16
g323
sbsbsg334
g1713
sg358
(lp8687
g8666
asba(icmyPackage
CELink
p8688
(dp8689
g3
(lp8690
g5
(g6
g7
(lp8691
g5
(g6
g7
(lp8692
g5
(g6
g7
(lp8693
g5
(g6
g7
(lp8694
VMoreover
p8695
atp8696
Rp8697
(dp8698
g16
VRB
p8699
sbatp8700
Rp8701
(dp8702
g16
VADVP
p8703
sbag5
(g6
g7
(lp8704
g251
atp8705
Rp8706
(dp8707
g16
g251
sbag5
(g6
g7
(lp8708
g5
(g6
g7
(lp8709
Vthe
p8710
atp8711
Rp8712
(dp8713
g16
VDT
p8714
sbag5
(g6
g7
(lp8715
Vcontexts
p8716
atp8717
Rp8718
(dp8719
g16
VNNS
p8720
sbatp8721
Rp8722
(dp8723
g16
VNP
p8724
sbag5
(g6
g7
(lp8725
g5
(g6
g7
(lp8726
Vare
p8727
atp8728
Rp8729
(dp8730
g16
VVBP
p8731
sbag5
(g6
g7
(lp8732
g5
(g6
g7
(lp8733
Vunmarked
p8734
atp8735
Rp8736
(dp8737
g16
VJJ
p8738
sbatp8739
Rp8740
(dp8741
g16
VADJP
p8742
sbag5
(g6
g7
(lp8743
g251
atp8744
Rp8745
(dp8746
g16
g251
sbag5
(g6
g7
(lp8747
g5
(g6
g7
(lp8748
g5
(g6
g7
(lp8749
Vresulting
p8750
atp8751
Rp8752
(dp8753
g16
VVBG
p8754
sbag5
(g6
g7
(lp8755
g5
(g6
g7
(lp8756
Vin
p8757
atp8758
Rp8759
(dp8760
g16
VIN
p8761
sbag5
(g6
g7
(lp8762
g5
(g6
g7
(lp8763
g5
(g6
g7
(lp8764
Vdiscovers
p8765
atp8766
Rp8767
(dp8768
g16
VNNP
p8769
sbatp8770
Rp8771
(dp8772
g16
VNP
p8773
sbag5
(g6
g7
(lp8774
g5
(g6
g7
(lp8775
Vbeing
p8776
atp8777
Rp8778
(dp8779
g16
VVBG
p8780
sbag5
(g6
g7
(lp8781
g5
(g6
g7
(lp8782
g5
(g6
g7
(lp8783
g783
atp8784
Rp8785
(dp8786
g16
VDT
p8787
sbag5
(g6
g7
(lp8788
Vcontext
p8789
atp8790
Rp8791
(dp8792
g16
VNN
p8793
sbatp8794
Rp8795
(dp8796
g16
VNP
p8797
sbag5
(g6
g7
(lp8798
g5
(g6
g7
(lp8799
Vof
p8800
atp8801
Rp8802
(dp8803
g16
VIN
p8804
sbag5
(g6
g7
(lp8805
g5
(g6
g7
(lp8806
g5
(g6
g7
(lp8807
Vboth
p8808
atp8809
Rp8810
(dp8811
g16
VDT
p8812
sbag5
(g6
g7
(lp8813
Vstars
p8814
atp8815
Rp8816
(dp8817
g16
VNNS
p8818
sbag5
(g6
g7
(lp8819
Vand
p8820
atp8821
Rp8822
(dp8823
g16
VCC
p8824
sbag5
(g6
g7
(lp8825
Vscientist
p8826
atp8827
Rp8828
(dp8829
g16
VNN
p8830
sbatp8831
Rp8832
(dp8833
g16
VNP
p8834
sbag5
(g6
g7
(lp8835
g251
atp8836
Rp8837
(dp8838
g16
g251
sbag5
(g6
g7
(lp8839
g5
(g6
g7
(lp8840
g5
(g6
g7
(lp8841
Vwhich
p8842
atp8843
Rp8844
(dp8845
g16
VWDT
p8846
sbatp8847
Rp8848
(dp8849
g16
VWHNP
p8850
sbag5
(g6
g7
(lp8851
g5
(g6
g7
(lp8852
g5
(g6
g7
(lp8853
Vmay
p8854
atp8855
Rp8856
(dp8857
g16
VMD
p8858
sbag5
(g6
g7
(lp8859
g5
(g6
g7
(lp8860
Vresult
p8861
atp8862
Rp8863
(dp8864
g16
VVB
p8865
sbag5
(g6
g7
(lp8866
g5
(g6
g7
(lp8867
Vin
p8868
atp8869
Rp8870
(dp8871
g16
VIN
p8872
sbag5
(g6
g7
(lp8873
g5
(g6
g7
(lp8874
Vstars
p8875
atp8876
Rp8877
(dp8878
g16
VNNS
p8879
sbag5
(g6
g7
(lp8880
Vand
p8881
atp8882
Rp8883
(dp8884
g16
VCC
p8885
sbag5
(g6
g7
(lp8886
Vscientists
p8887
atp8888
Rp8889
(dp8890
g16
VNNS
p8891
sbatp8892
Rp8893
(dp8894
g16
VNP
p8895
sbatp8896
Rp8897
(dp8898
g16
VPP
p8899
sbag5
(g6
g7
(lp8900
g5
(g6
g7
(lp8901
g5
(g6
g7
(lp8902
Vending
p8903
atp8904
Rp8905
(dp8906
g16
VVBG
p8907
sbag5
(g6
g7
(lp8908
g5
(g6
g7
(lp8909
Vup
p8910
atp8911
Rp8912
(dp8913
g16
VRP
p8914
sbatp8915
Rp8916
(dp8917
g16
VPRT
p8918
sbag5
(g6
g7
(lp8919
g5
(g6
g7
(lp8920
Vas
p8921
atp8922
Rp8923
(dp8924
g16
VIN
p8925
sbag5
(g6
g7
(lp8926
g5
(g6
g7
(lp8927
g5
(g6
g7
(lp8928
Vneighbours
p8929
atp8930
Rp8931
(dp8932
g16
VNNS
p8933
sbatp8934
Rp8935
(dp8936
g16
VNP
p8937
sbag5
(g6
g7
(lp8938
g5
(g6
g7
(lp8939
Vin
p8940
atp8941
Rp8942
(dp8943
g16
VIN
p8944
sbag5
(g6
g7
(lp8945
g5
(g6
g7
(lp8946
Vthe
p8947
atp8948
Rp8949
(dp8950
g16
VDT
p8951
sbag5
(g6
g7
(lp8952
Vembedded
p8953
atp8954
Rp8955
(dp8956
g16
VJJ
p8957
sbag5
(g6
g7
(lp8958
Vspace
p8959
atp8960
Rp8961
(dp8962
g16
VNN
p8963
sbatp8964
Rp8965
(dp8966
g16
VNP
p8967
sbatp8968
Rp8969
(dp8970
g16
VPP
p8971
sbatp8972
Rp8973
(dp8974
g16
VNP
p8975
sbatp8976
Rp8977
(dp8978
g16
VPP
p8979
sbatp8980
Rp8981
(dp8982
g16
VVP
p8983
sbatp8984
Rp8985
(dp8986
g16
g87
sbatp8987
Rp8988
(dp8989
g16
VVP
p8990
sbatp8991
Rp8992
(dp8993
g16
VVP
p8994
sbatp8995
Rp8996
(dp8997
g16
g87
sbatp8998
Rp8999
(dp9000
g16
VSBAR
p9001
sbatp9002
Rp9003
(dp9004
g16
VNP
p9005
sbatp9006
Rp9007
(dp9008
g16
VPP
p9009
sbatp9010
Rp9011
(dp9012
g16
VNP
p9013
sbatp9014
Rp9015
(dp9016
g16
VVP
p9017
sbatp9018
Rp9019
(dp9020
g16
g87
sbatp9021
Rp9022
(dp9023
g16
VPP
p9024
sbatp9025
Rp9026
(dp9027
g16
VVP
p9028
sbatp9029
Rp9030
(dp9031
g16
g87
sbatp9032
Rp9033
(dp9034
g16
VVP
p9035
sbatp9036
Rp9037
(dp9038
g16
g87
sbatp9039
Rp9040
(dp9041
g16
VROOT
p9042
sbag5
(g6
g7
(lp9043
g5
(g6
g7
(lp9044
g5
(g6
g7
(lp9045
g5
(g6
g7
(lp9046
g5
(g6
g7
(lp9047
g1410
atp9048
Rp9049
(dp9050
g16
VDT
p9051
sbag5
(g6
g7
(lp9052
Vwindow
p9053
atp9054
Rp9055
(dp9056
g16
VNN
p9057
sbag5
(g6
g7
(lp9058
Vsize
p9059
atp9060
Rp9061
(dp9062
g16
VNN
p9063
sbatp9064
Rp9065
(dp9066
g16
VNP
p9067
sbag5
(g6
g7
(lp9068
g5
(g6
g7
(lp9069
Vof
p9070
atp9071
Rp9072
(dp9073
g16
VIN
p9074
sbag5
(g6
g7
(lp9075
g5
(g6
g7
(lp9076
g2100
atp9077
Rp9078
(dp9079
g16
VCD
p9080
sbatp9081
Rp9082
(dp9083
g16
VNP
p9084
sbatp9085
Rp9086
(dp9087
g16
VPP
p9088
sbatp9089
Rp9090
(dp9091
g16
VNP
p9092
sbag5
(g6
g7
(lp9093
g5
(g6
g7
(lp9094
Vis
p9095
atp9096
Rp9097
(dp9098
g16
VVBZ
p9099
sbag5
(g6
g7
(lp9100
g5
(g6
g7
(lp9101
Vcommonly
p9102
atp9103
Rp9104
(dp9105
g16
VRB
p9106
sbatp9107
Rp9108
(dp9109
g16
VADVP
p9110
sbag5
(g6
g7
(lp9111
g5
(g6
g7
(lp9112
Vused
p9113
atp9114
Rp9115
(dp9116
g16
VVBN
p9117
sbag5
(g6
g7
(lp9118
g5
(g6
g7
(lp9119
g5
(g6
g7
(lp9120
Vto
p9121
atp9122
Rp9123
(dp9124
g16
VTO
p9125
sbag5
(g6
g7
(lp9126
g5
(g6
g7
(lp9127
Vcapture
p9128
atp9129
Rp9130
(dp9131
g16
VVB
p9132
sbag5
(g6
g7
(lp9133
g5
(g6
g7
(lp9134
Vbroad
p9135
atp9136
Rp9137
(dp9138
g16
VJJ
p9139
sbag5
(g6
g7
(lp9140
Vtopical
p9141
atp9142
Rp9143
(dp9144
g16
VJJ
p9145
sbag5
(g6
g7
(lp9146
Vcontent
p9147
atp9148
Rp9149
(dp9150
g16
VNN
p9151
sbatp9152
Rp9153
(dp9154
g16
VNP
p9155
sbatp9156
Rp9157
(dp9158
g16
VVP
p9159
sbatp9160
Rp9161
(dp9162
g16
VVP
p9163
sbatp9164
Rp9165
(dp9166
g16
g87
sbag5
(g6
g7
(lp9167
g251
atp9168
Rp9169
(dp9170
g16
g251
sbag5
(g6
g7
(lp9171
g5
(g6
g7
(lp9172
Vwhereas
p9173
atp9174
Rp9175
(dp9176
g16
VIN
p9177
sbag5
(g6
g7
(lp9178
g5
(g6
g7
(lp9179
g5
(g6
g7
(lp9180
Vsmaller
p9181
atp9182
Rp9183
(dp9184
g16
VJJR
p9185
sbag5
(g6
g7
(lp9186
Vwindows
p9187
atp9188
Rp9189
(dp9190
g16
VNNS
p9191
sbatp9192
Rp9193
(dp9194
g16
VNP
p9195
sbag5
(g6
g7
(lp9196
g5
(g6
g7
(lp9197
Vcontain
p9198
atp9199
Rp9200
(dp9201
g16
VVBP
p9202
sbag5
(g6
g7
(lp9203
g5
(g6
g7
(lp9204
g5
(g6
g7
(lp9205
g5
(g6
g7
(lp9206
Vmore
p9207
atp9208
Rp9209
(dp9210
g16
VRBR
p9211
sbag5
(g6
g7
(lp9212
Vfocused
p9213
atp9214
Rp9215
(dp9216
g16
VJJ
p9217
sbatp9218
Rp9219
(dp9220
g16
VADJP
p9221
sbag5
(g6
g7
(lp9222
Vinformation
p9223
atp9224
Rp9225
(dp9226
g16
VNN
p9227
sbatp9228
Rp9229
(dp9230
g16
VNP
p9231
sbag5
(g6
g7
(lp9232
g5
(g6
g7
(lp9233
Vabout
p9234
atp9235
Rp9236
(dp9237
g16
VIN
p9238
sbag5
(g6
g7
(lp9239
g5
(g6
g7
(lp9240
Vthe
p9241
atp9242
Rp9243
(dp9244
g16
VDT
p9245
sbag5
(g6
g7
(lp9246
Vtarget
p9247
atp9248
Rp9249
(dp9250
g16
VNN
p9251
sbag5
(g6
g7
(lp9252
Vword
p9253
atp9254
Rp9255
(dp9256
g16
VNN
p9257
sbatp9258
Rp9259
(dp9260
g16
VNP
p9261
sbatp9262
Rp9263
(dp9264
g16
VPP
p9265
sbatp9266
Rp9267
(dp9268
g16
VNP
p9269
sbatp9270
Rp9271
(dp9272
g16
VVP
p9273
sbatp9274
Rp9275
(dp9276
g16
g87
sbatp9277
Rp9278
(dp9279
g16
VSBAR
p9280
sbatp9281
Rp9282
(dp9283
g16
VVP
p9284
sbatp9285
Rp9286
(dp9287
g16
VVP
p9288
sbatp9289
Rp9290
(dp9291
g16
g87
sbatp9292
Rp9293
(dp9294
g16
VROOT
p9295
sbasg311
(icmyPackage
CorE
p9296
(dp9297
g314
(lp9298
(I0
I29
tp9299
a(I1
I23
tp9300
asg318
g5
(g6
g7
(lp9301
g8973
ag9090
ag9097
ag9108
ag9115
ag9165
ag9169
ag9175
ag9193
ag9200
ag9229
ag9236
ag9243
ag9249
atp9302
Rp9303
(dp9304
g16
g323
sbsbsg324
(icmyPackage
CorE
p9305
(dp9306
g314
(lp9307
(I0
I0
tp9308
a(I0
I27
tp9309
asg318
g5
(g6
g7
(lp9310
g8701
ag8706
ag8722
ag8729
ag8740
ag8745
ag8752
ag8759
ag8771
ag8778
ag8795
ag8802
ag8832
ag8837
ag8848
ag8856
ag8863
ag8897
ag8905
ag8916
atp9311
Rp9312
(dp9313
g16
g323
sbsbsg334
g335
sg358
(lp9314
(isxpPackage
sxpSent
p9315
(dp9316
g362
(lp9317
I22
asg364
VMoreover, the contexts are unmarked, resulting in discovers being a context of both stars and scientist , which may result in stars and scientists ending up as neighbours in the embedded space
p9318
sg366
I4
sg348
I71
sg367
I25
sba(isxpPackage
sxpSent
p9319
(dp9320
g362
(lp9321
I22
asg364
VA window size of 5 is commonly used to capture broad topical content, whereas smaller windows contain more focused information about the target word
p9322
sg366
I4
sg348
I72
sg367
I25
sbasba(icmyPackage
CELink
p9323
(dp9324
g3
(lp9325
g5
(g6
g7
(lp9326
g5
(g6
g7
(lp9327
g5
(g6
g7
(lp9328
g5
(g6
g7
(lp9329
g5
(g6
g7
(lp9330
VAn
p9331
atp9332
Rp9333
(dp9334
g16
VDT
p9335
sbag5
(g6
g7
(lp9336
Valternative
p9337
atp9338
Rp9339
(dp9340
g16
VNN
p9341
sbatp9342
Rp9343
(dp9344
g16
VNP
p9345
sbag5
(g6
g7
(lp9346
g5
(g6
g7
(lp9347
Vto
p9348
atp9349
Rp9350
(dp9351
g16
VTO
p9352
sbag5
(g6
g7
(lp9353
g5
(g6
g7
(lp9354
Vthe
p9355
atp9356
Rp9357
(dp9358
g16
VDT
p9359
sbag5
(g6
g7
(lp9360
Vbag-of-words
p9361
atp9362
Rp9363
(dp9364
g16
VJJ
p9365
sbag5
(g6
g7
(lp9366
Vapproach
p9367
atp9368
Rp9369
(dp9370
g16
VNN
p9371
sbatp9372
Rp9373
(dp9374
g16
VNP
p9375
sbatp9376
Rp9377
(dp9378
g16
VPP
p9379
sbatp9380
Rp9381
(dp9382
g16
VNP
p9383
sbag5
(g6
g7
(lp9384
g5
(g6
g7
(lp9385
Vis
p9386
atp9387
Rp9388
(dp9389
g16
VVBZ
p9390
sbag5
(g6
g7
(lp9391
g5
(g6
g7
(lp9392
g5
(g6
g7
(lp9393
Vto
p9394
atp9395
Rp9396
(dp9397
g16
VTO
p9398
sbag5
(g6
g7
(lp9399
g5
(g6
g7
(lp9400
Vderive
p9401
atp9402
Rp9403
(dp9404
g16
VVB
p9405
sbag5
(g6
g7
(lp9406
g5
(g6
g7
(lp9407
Vcontexts
p9408
atp9409
Rp9410
(dp9411
g16
VNNS
p9412
sbatp9413
Rp9414
(dp9415
g16
VNP
p9416
sbag5
(g6
g7
(lp9417
g5
(g6
g7
(lp9418
Vbased
p9419
atp9420
Rp9421
(dp9422
g16
VVBN
p9423
sbag5
(g6
g7
(lp9424
g5
(g6
g7
(lp9425
Von
p9426
atp9427
Rp9428
(dp9429
g16
VIN
p9430
sbag5
(g6
g7
(lp9431
g5
(g6
g7
(lp9432
g5
(g6
g7
(lp9433
Vthe
p9434
atp9435
Rp9436
(dp9437
g16
VDT
p9438
sbag5
(g6
g7
(lp9439
Vsyntactic
p9440
atp9441
Rp9442
(dp9443
g16
VJJ
p9444
sbag5
(g6
g7
(lp9445
Vrelations
p9446
atp9447
Rp9448
(dp9449
g16
VNNS
p9450
sbatp9451
Rp9452
(dp9453
g16
VNP
p9454
sbag5
(g6
g7
(lp9455
g5
(g6
g7
(lp9456
g5
(g6
g7
(lp9457
g5
(g6
g7
(lp9458
Vthe
p9459
atp9460
Rp9461
(dp9462
g16
VDT
p9463
sbag5
(g6
g7
(lp9464
Vword
p9465
atp9466
Rp9467
(dp9468
g16
VNN
p9469
sbatp9470
Rp9471
(dp9472
g16
VNP
p9473
sbag5
(g6
g7
(lp9474
g5
(g6
g7
(lp9475
Vparticipates
p9476
atp9477
Rp9478
(dp9479
g16
VVBZ
p9480
sbag5
(g6
g7
(lp9481
g5
(g6
g7
(lp9482
Vin
p9483
atp9484
Rp9485
(dp9486
g16
VRP
p9487
sbatp9488
Rp9489
(dp9490
g16
VPRT
p9491
sbatp9492
Rp9493
(dp9494
g16
VVP
p9495
sbatp9496
Rp9497
(dp9498
g16
g87
sbatp9499
Rp9500
(dp9501
g16
VSBAR
p9502
sbatp9503
Rp9504
(dp9505
g16
VNP
p9506
sbatp9507
Rp9508
(dp9509
g16
VPP
p9510
sbatp9511
Rp9512
(dp9513
g16
VPP
p9514
sbatp9515
Rp9516
(dp9517
g16
VVP
p9518
sbatp9519
Rp9520
(dp9521
g16
VVP
p9522
sbatp9523
Rp9524
(dp9525
g16
g87
sbatp9526
Rp9527
(dp9528
g16
VVP
p9529
sbatp9530
Rp9531
(dp9532
g16
g87
sbatp9533
Rp9534
(dp9535
g16
VROOT
p9536
sbasg311
(icmyPackage
CorE
p9537
(dp9538
g314
(lp9539
(I0
I12
tp9540
a(I0
I18
tp9541
asg318
g9504
sbsg324
(icmyPackage
CorE
p9542
(dp9543
g314
(lp9544
(I0
I0
tp9545
a(I0
I9
tp9546
asg318
g5
(g6
g7
(lp9547
g9381
ag9388
ag9396
ag9403
ag9414
atp9548
Rp9549
(dp9550
g16
g323
sbsbsg334
g2178
sg358
(lp9551
(isxpPackage
sxpSent
p9552
(dp9553
g362
(lp9554
I23
asg364
VAn alternative to the bag-of-words approach is to derive contexts based on the syntactic relations the word participates in
p9555
sg366
I4
sg348
I73
sg367
I26
sbasba(icmyPackage
CELink
p9556
(dp9557
g3
(lp9558
g5
(g6
g7
(lp9559
g5
(g6
g7
(lp9560
g5
(g6
g7
(lp9561
g5
(g6
g7
(lp9562
g5
(g6
g7
(lp9563
VThey
p9564
atp9565
Rp9566
(dp9567
g16
VPRP
p9568
sbatp9569
Rp9570
(dp9571
g16
VNP
p9572
sbag5
(g6
g7
(lp9573
g5
(g6
g7
(lp9574
g5
(g6
g7
(lp9575
Vcapture
p9576
atp9577
Rp9578
(dp9579
g16
VVB
p9580
sbag5
(g6
g7
(lp9581
g5
(g6
g7
(lp9582
Vrelations
p9583
atp9584
Rp9585
(dp9586
g16
VNNS
p9587
sbatp9588
Rp9589
(dp9590
g16
VNP
p9591
sbag5
(g6
g7
(lp9592
g5
(g6
g7
(lp9593
Vto
p9594
atp9595
Rp9596
(dp9597
g16
VTO
p9598
sbag5
(g6
g7
(lp9599
g5
(g6
g7
(lp9600
g5
(g6
g7
(lp9601
Vwords
p9602
atp9603
Rp9604
(dp9605
g16
VNNS
p9606
sbatp9607
Rp9608
(dp9609
g16
VNP
p9610
sbag5
(g6
g7
(lp9611
g5
(g6
g7
(lp9612
g5
(g6
g7
(lp9613
Vthat
p9614
atp9615
Rp9616
(dp9617
g16
VWDT
p9618
sbatp9619
Rp9620
(dp9621
g16
VWHNP
p9622
sbag5
(g6
g7
(lp9623
g5
(g6
g7
(lp9624
g5
(g6
g7
(lp9625
Vare
p9626
atp9627
Rp9628
(dp9629
g16
VVBP
p9630
sbag5
(g6
g7
(lp9631
g5
(g6
g7
(lp9632
Vfar
p9633
atp9634
Rp9635
(dp9636
g16
VRB
p9637
sbag5
(g6
g7
(lp9638
Vapart
p9639
atp9640
Rp9641
(dp9642
g16
VRB
p9643
sbatp9644
Rp9645
(dp9646
g16
VADVP
p9647
sbatp9648
Rp9649
(dp9650
g16
VVP
p9651
sbatp9652
Rp9653
(dp9654
g16
g87
sbatp9655
Rp9656
(dp9657
g16
VSBAR
p9658
sbatp9659
Rp9660
(dp9661
g16
VNP
p9662
sbatp9663
Rp9664
(dp9665
g16
VPP
p9666
sbatp9667
Rp9668
(dp9669
g16
VVP
p9670
sbag5
(g6
g7
(lp9671
Vand
p9672
atp9673
Rp9674
(dp9675
g16
VCC
p9676
sbag5
(g6
g7
(lp9677
g5
(g6
g7
(lp9678
g5
(g6
g7
(lp9679
Vthus
p9680
atp9681
Rp9682
(dp9683
g16
VRB
p9684
sbatp9685
Rp9686
(dp9687
g16
VADVP
p9688
sbag5
(g6
g7
(lp9689
g449
atp9690
Rp9691
(dp9692
g16
VVB
p9693
sbag5
(g6
g7
(lp9694
g459
atp9695
Rp9696
(dp9697
g16
V''
p9698
sbag5
(g6
g7
(lp9699
g5
(g6
g7
(lp9700
g5
(g6
g7
(lp9701
g5
(g6
g7
(lp9702
g5
(g6
g7
(lp9703
V\u005c
p9704
atp9705
Rp9706
(dp9707
g16
VNNP
p9708
sbag5
(g6
g7
(lp9709
Vu201c
p9710
atp9711
Rp9712
(dp9713
g16
VNNP
p9714
sbag5
(g6
g7
(lp9715
g459
atp9716
Rp9717
(dp9718
g16
VPOS
p9719
sbatp9720
Rp9721
(dp9722
g16
VNP
p9723
sbag5
(g6
g7
(lp9724
Vout-of-reach
p9725
atp9726
Rp9727
(dp9728
g16
VJJ
p9729
sbag5
(g6
g7
(lp9730
g449
atp9731
Rp9732
(dp9733
g16
VNN
p9734
sbag5
(g6
g7
(lp9735
g459
atp9736
Rp9737
(dp9738
g16
VPOS
p9739
sbatp9740
Rp9741
(dp9742
g16
VNP
p9743
sbag5
(g6
g7
(lp9744
V\u005c
p9745
atp9746
Rp9747
(dp9748
g16
VNNP
p9749
sbag5
(g6
g7
(lp9750
Vu201d
p9751
atp9752
Rp9753
(dp9754
g16
VNNP
p9755
sbag5
(g6
g7
(lp9756
g459
atp9757
Rp9758
(dp9759
g16
V''
p9760
sbatp9761
Rp9762
(dp9763
g16
VNP
p9764
sbag5
(g6
g7
(lp9765
g5
(g6
g7
(lp9766
Vwith
p9767
atp9768
Rp9769
(dp9770
g16
VIN
p9771
sbag5
(g6
g7
(lp9772
g5
(g6
g7
(lp9773
g5
(g6
g7
(lp9774
Vsmall
p9775
atp9776
Rp9777
(dp9778
g16
VJJ
p9779
sbag5
(g6
g7
(lp9780
Vwindow
p9781
atp9782
Rp9783
(dp9784
g16
VNN
p9785
sbag5
(g6
g7
(lp9786
Vbag-of-words
p9787
atp9788
Rp9789
(dp9790
g16
VNNS
p9791
sbatp9792
Rp9793
(dp9794
g16
VNP
p9795
sbag5
(g6
g7
(lp9796
g5
(g6
g7
(lp9797
V-LRB-
p9798
atp9799
Rp9800
(dp9801
g16
V-LRB-
p9802
sbag5
(g6
g7
(lp9803
g5
(g6
g7
(lp9804
g5
(g6
g7
(lp9805
g5
(g6
g7
(lp9806
Ve.g.
p9807
atp9808
Rp9809
(dp9810
g16
VNNP
p9811
sbatp9812
Rp9813
(dp9814
g16
VNP
p9815
sbag5
(g6
g7
(lp9816
g251
atp9817
Rp9818
(dp9819
g16
g251
sbag5
(g6
g7
(lp9820
g5
(g6
g7
(lp9821
g5
(g6
g7
(lp9822
Vthe
p9823
atp9824
Rp9825
(dp9826
g16
VDT
p9827
sbag5
(g6
g7
(lp9828
Vinstrument
p9829
atp9830
Rp9831
(dp9832
g16
VNN
p9833
sbatp9834
Rp9835
(dp9836
g16
VNP
p9837
sbag5
(g6
g7
(lp9838
g5
(g6
g7
(lp9839
Vof
p9840
atp9841
Rp9842
(dp9843
g16
VIN
p9844
sbag5
(g6
g7
(lp9845
g5
(g6
g7
(lp9846
Vdiscover
p9847
atp9848
Rp9849
(dp9850
g16
VNNP
p9851
sbatp9852
Rp9853
(dp9854
g16
VNP
p9855
sbatp9856
Rp9857
(dp9858
g16
VPP
p9859
sbatp9860
Rp9861
(dp9862
g16
VNP
p9863
sbatp9864
Rp9865
(dp9866
g16
VNP
p9867
sbag5
(g6
g7
(lp9868
g5
(g6
g7
(lp9869
Vis
p9870
atp9871
Rp9872
(dp9873
g16
VVBZ
p9874
sbag5
(g6
g7
(lp9875
g5
(g6
g7
(lp9876
Vtelescope/prep
p9877
atp9878
Rp9879
(dp9880
g16
VNN
p9881
sbag5
(g6
g7
(lp9882
V_
p9883
atp9884
Rp9885
(dp9886
g16
VNNS
p9887
sbatp9888
Rp9889
(dp9890
g16
VNP
p9891
sbag5
(g6
g7
(lp9892
g5
(g6
g7
(lp9893
Vwith
p9894
atp9895
Rp9896
(dp9897
g16
VIN
p9898
sbatp9899
Rp9900
(dp9901
g16
VPP
p9902
sbatp9903
Rp9904
(dp9905
g16
VVP
p9906
sbatp9907
Rp9908
(dp9909
g16
g87
sbag5
(g6
g7
(lp9910
V-RRB-
p9911
atp9912
Rp9913
(dp9914
g16
V-RRB-
p9915
sbatp9916
Rp9917
(dp9918
g16
VPRN
p9919
sbatp9920
Rp9921
(dp9922
g16
VNP
p9923
sbatp9924
Rp9925
(dp9926
g16
VPP
p9927
sbatp9928
Rp9929
(dp9930
g16
VNP
p9931
sbatp9932
Rp9933
(dp9934
g16
VVP
p9935
sbatp9936
Rp9937
(dp9938
g16
VVP
p9939
sbatp9940
Rp9941
(dp9942
g16
g87
sbag5
(g6
g7
(lp9943
g251
atp9944
Rp9945
(dp9946
g16
g251
sbag5
(g6
g7
(lp9947
Vand
p9948
atp9949
Rp9950
(dp9951
g16
VCC
p9952
sbag5
(g6
g7
(lp9953
g5
(g6
g7
(lp9954
g5
(g6
g7
(lp9955
Valso
p9956
atp9957
Rp9958
(dp9959
g16
VRB
p9960
sbatp9961
Rp9962
(dp9963
g16
VADVP
p9964
sbag5
(g6
g7
(lp9965
g5
(g6
g7
(lp9966
g5
(g6
g7
(lp9967
g5
(g6
g7
(lp9968
Vfilter
p9969
atp9970
Rp9971
(dp9972
g16
VNN
p9973
sbatp9974
Rp9975
(dp9976
g16
VNP
p9977
sbag5
(g6
g7
(lp9978
g5
(g6
g7
(lp9979
Vout
p9980
atp9981
Rp9982
(dp9983
g16
VIN
p9984
sbag5
(g6
g7
(lp9985
g5
(g6
g7
(lp9986
g5
(g6
g7
(lp9987
g5
(g6
g7
(lp9988
g449
atp9989
Rp9990
(dp9991
g16
VNNP
p9992
sbag5
(g6
g7
(lp9993
g459
atp9994
Rp9995
(dp9996
g16
VPOS
p9997
sbatp9998
Rp9999
(dp10000
g16
VNP
p10001
sbag5
(g6
g7
(lp10002
V\u005c
p10003
atp10004
Rp10005
(dp10006
g16
VJJ
p10007
sbag5
(g6
g7
(lp10008
Vu201c
p10009
atp10010
Rp10011
(dp10012
g16
VNNS
p10013
sbag5
(g6
g7
(lp10014
g459
atp10015
Rp10016
(dp10017
g16
VPOS
p10018
sbatp10019
Rp10020
(dp10021
g16
VNP
p10022
sbag5
(g6
g7
(lp10023
g5
(g6
g7
(lp10024
Vcoincidental
p10025
atp10026
Rp10027
(dp10028
g16
VJJ
p10029
sbag5
(g6
g7
(lp10030
g449
atp10031
Rp10032
(dp10033
g16
VJJ
p10034
sbatp10035
Rp10036
(dp10037
g16
VADJP
p10038
sbag5
(g6
g7
(lp10039
g459
atp10040
Rp10041
(dp10042
g16
V''
p10043
sbag5
(g6
g7
(lp10044
V\u005c
p10045
atp10046
Rp10047
(dp10048
g16
VNN
p10049
sbag5
(g6
g7
(lp10050
Vu201d
p10051
atp10052
Rp10053
(dp10054
g16
VNN
p10055
sbatp10056
Rp10057
(dp10058
g16
VNP
p10059
sbatp10060
Rp10061
(dp10062
g16
VPP
p10063
sbag5
(g6
g7
(lp10064
g459
atp10065
Rp10066
(dp10067
g16
VPOS
p10068
sbatp10069
Rp10070
(dp10071
g16
VNP
p10072
sbag5
(g6
g7
(lp10073
Vcontexts
p10074
atp10075
Rp10076
(dp10077
g16
VNN
p10078
sbag5
(g6
g7
(lp10079
g5
(g6
g7
(lp10080
g5
(g6
g7
(lp10081
Vwhich
p10082
atp10083
Rp10084
(dp10085
g16
VWDT
p10086
sbatp10087
Rp10088
(dp10089
g16
VWHNP
p10090
sbag5
(g6
g7
(lp10091
g5
(g6
g7
(lp10092
g5
(g6
g7
(lp10093
Vare
p10094
atp10095
Rp10096
(dp10097
g16
VVBP
p10098
sbag5
(g6
g7
(lp10099
g5
(g6
g7
(lp10100
g5
(g6
g7
(lp10101
Vwithin
p10102
atp10103
Rp10104
(dp10105
g16
VIN
p10106
sbag5
(g6
g7
(lp10107
g5
(g6
g7
(lp10108
Vthe
p10109
atp10110
Rp10111
(dp10112
g16
VDT
p10113
sbag5
(g6
g7
(lp10114
Vwindow
p10115
atp10116
Rp10117
(dp10118
g16
VNN
p10119
sbatp10120
Rp10121
(dp10122
g16
VNP
p10123
sbatp10124
Rp10125
(dp10126
g16
VPP
p10127
sbag5
(g6
g7
(lp10128
Vbut
p10129
atp10130
Rp10131
(dp10132
g16
VCC
p10133
sbag5
(g6
g7
(lp10134
Vnot
p10135
atp10136
Rp10137
(dp10138
g16
VRB
p10139
sbag5
(g6
g7
(lp10140
g5
(g6
g7
(lp10141
Vdirectly
p10142
atp10143
Rp10144
(dp10145
g16
VRB
p10146
sbag5
(g6
g7
(lp10147
Vrelated
p10148
atp10149
Rp10150
(dp10151
g16
VVBN
p10152
sbag5
(g6
g7
(lp10153
g5
(g6
g7
(lp10154
Vto
p10155
atp10156
Rp10157
(dp10158
g16
VTO
p10159
sbag5
(g6
g7
(lp10160
g5
(g6
g7
(lp10161
g5
(g6
g7
(lp10162
Vthe
p10163
atp10164
Rp10165
(dp10166
g16
VDT
p10167
sbag5
(g6
g7
(lp10168
Vtarget
p10169
atp10170
Rp10171
(dp10172
g16
VNN
p10173
sbag5
(g6
g7
(lp10174
Vword
p10175
atp10176
Rp10177
(dp10178
g16
VNN
p10179
sbatp10180
Rp10181
(dp10182
g16
VNP
p10183
sbag5
(g6
g7
(lp10184
g5
(g6
g7
(lp10185
V-LRB-
p10186
atp10187
Rp10188
(dp10189
g16
V-LRB-
p10190
sbag5
(g6
g7
(lp10191
g5
(g6
g7
(lp10192
Ve.g.
p10193
atp10194
Rp10195
(dp10196
g16
VNNP
p10197
sbatp10198
Rp10199
(dp10200
g16
VNP
p10201
sbag5
(g6
g7
(lp10202
g251
atp10203
Rp10204
(dp10205
g16
g251
sbag5
(g6
g7
(lp10206
g5
(g6
g7
(lp10207
VAustralian
p10208
atp10209
Rp10210
(dp10211
g16
VNNP
p10212
sbatp10213
Rp10214
(dp10215
g16
VNP
p10216
sbatp10217
Rp10218
(dp10219
g16
VPRN
p10220
sbatp10221
Rp10222
(dp10223
g16
VNP
p10224
sbatp10225
Rp10226
(dp10227
g16
VPP
p10228
sbatp10229
Rp10230
(dp10231
g16
VADJP
p10232
sbatp10233
Rp10234
(dp10235
g16
VUCP
p10236
sbatp10237
Rp10238
(dp10239
g16
VVP
p10240
sbatp10241
Rp10242
(dp10243
g16
g87
sbatp10244
Rp10245
(dp10246
g16
VSBAR
p10247
sbatp10248
Rp10249
(dp10250
g16
VNP
p10251
sbag5
(g6
g7
(lp10252
g5
(g6
g7
(lp10253
Vis
p10254
atp10255
Rp10256
(dp10257
g16
VVBZ
p10258
sbag5
(g6
g7
(lp10259
Vnot
p10260
atp10261
Rp10262
(dp10263
g16
VRB
p10264
sbag5
(g6
g7
(lp10265
g5
(g6
g7
(lp10266
Vused
p10267
atp10268
Rp10269
(dp10270
g16
VVBN
p10271
sbag5
(g6
g7
(lp10272
g5
(g6
g7
(lp10273
Vas
p10274
atp10275
Rp10276
(dp10277
g16
VIN
p10278
sbag5
(g6
g7
(lp10279
g5
(g6
g7
(lp10280
g5
(g6
g7
(lp10281
Vthe
p10282
atp10283
Rp10284
(dp10285
g16
VDT
p10286
sbag5
(g6
g7
(lp10287
Vcontext
p10288
atp10289
Rp10290
(dp10291
g16
VNN
p10292
sbatp10293
Rp10294
(dp10295
g16
VNP
p10296
sbag5
(g6
g7
(lp10297
g5
(g6
g7
(lp10298
Vfor
p10299
atp10300
Rp10301
(dp10302
g16
VIN
p10303
sbag5
(g6
g7
(lp10304
g5
(g6
g7
(lp10305
Vdiscovers
p10306
atp10307
Rp10308
(dp10309
g16
VNNP
p10310
sbatp10311
Rp10312
(dp10313
g16
VNP
p10314
sbatp10315
Rp10316
(dp10317
g16
VPP
p10318
sbatp10319
Rp10320
(dp10321
g16
VNP
p10322
sbatp10323
Rp10324
(dp10325
g16
VPP
p10326
sbatp10327
Rp10328
(dp10329
g16
VVP
p10330
sbatp10331
Rp10332
(dp10333
g16
VVP
p10334
sbatp10335
Rp10336
(dp10337
g16
g87
sbatp10338
Rp10339
(dp10340
g16
g87
sbatp10341
Rp10342
(dp10343
g16
VROOT
p10344
sbasg311
(icmyPackage
CorE
p10345
(dp10346
g314
(lp10347
(I0
I0
tp10348
a(I0
I8
tp10349
asg318
g5
(g6
g7
(lp10350
g9570
ag9668
atp10351
Rp10352
(dp10353
g16
g323
sbsbsg324
(icmyPackage
CorE
p10354
(dp10355
g314
(lp10356
(I0
I11
tp10357
a(I0
I79
tp10358
asg318
g5
(g6
g7
(lp10359
g9691
ag9696
ag9929
ag9945
ag9950
ag10336
atp10360
Rp10361
(dp10362
g16
g323
sbsbsg334
g1382
sg358
(lp10363
(isxpPackage
sxpSent
p10364
(dp10365
g362
(lp10366
I24
asg364
VThey capture relations to words that are far apart and thus u'\u005cu201c' out-of-reach u'\u005cu201d' with small window bag-of-words (e.g., the instrument of discover is telescope/prep_with ), and also filter out u'\u005cu201c' coincidental u'\u005cu201d' contexts which are within the window but not directly related to the target word (e.g., Australian is not used as the context for discovers
p10367
sg366
I4
sg348
I79
sg367
I28
sbasba(icmyPackage
CELink
p10368
(dp10369
g3
(lp10370
g5
(g6
g7
(lp10371
g5
(g6
g7
(lp10372
g5
(g6
g7
(lp10373
g5
(g6
g7
(lp10374
VIn
p10375
atp10376
Rp10377
(dp10378
g16
VIN
p10379
sbag5
(g6
g7
(lp10380
g5
(g6
g7
(lp10381
Vaddition
p10382
atp10383
Rp10384
(dp10385
g16
VNN
p10386
sbatp10387
Rp10388
(dp10389
g16
VNP
p10390
sbatp10391
Rp10392
(dp10393
g16
VPP
p10394
sbag5
(g6
g7
(lp10395
g251
atp10396
Rp10397
(dp10398
g16
g251
sbag5
(g6
g7
(lp10399
g5
(g6
g7
(lp10400
Vthe
p10401
atp10402
Rp10403
(dp10404
g16
VDT
p10405
sbag5
(g6
g7
(lp10406
Vcontexts
p10407
atp10408
Rp10409
(dp10410
g16
VNNS
p10411
sbatp10412
Rp10413
(dp10414
g16
VNP
p10415
sbag5
(g6
g7
(lp10416
g5
(g6
g7
(lp10417
Vare
p10418
atp10419
Rp10420
(dp10421
g16
VVBP
p10422
sbag5
(g6
g7
(lp10423
g5
(g6
g7
(lp10424
Vtyped
p10425
atp10426
Rp10427
(dp10428
g16
VVBN
p10429
sbag5
(g6
g7
(lp10430
g251
atp10431
Rp10432
(dp10433
g16
g251
sbag5
(g6
g7
(lp10434
g5
(g6
g7
(lp10435
g5
(g6
g7
(lp10436
Vindicating
p10437
atp10438
Rp10439
(dp10440
g16
VVBG
p10441
sbatp10442
Rp10443
(dp10444
g16
VVP
p10445
sbatp10446
Rp10447
(dp10448
g16
g87
sbag5
(g6
g7
(lp10449
g251
atp10450
Rp10451
(dp10452
g16
g251
sbag5
(g6
g7
(lp10453
g5
(g6
g7
(lp10454
Vfor
p10455
atp10456
Rp10457
(dp10458
g16
VIN
p10459
sbag5
(g6
g7
(lp10460
g5
(g6
g7
(lp10461
g5
(g6
g7
(lp10462
Vexample
p10463
atp10464
Rp10465
(dp10466
g16
VNN
p10467
sbatp10468
Rp10469
(dp10470
g16
VNP
p10471
sbag5
(g6
g7
(lp10472
g251
atp10473
Rp10474
(dp10475
g16
g251
sbag5
(g6
g7
(lp10476
g5
(g6
g7
(lp10477
g5
(g6
g7
(lp10478
Vthat
p10479
atp10480
Rp10481
(dp10482
g16
VWDT
p10483
sbag5
(g6
g7
(lp10484
Vstars
p10485
atp10486
Rp10487
(dp10488
g16
VNNS
p10489
sbatp10490
Rp10491
(dp10492
g16
VWHNP
p10493
sbag5
(g6
g7
(lp10494
g5
(g6
g7
(lp10495
g5
(g6
g7
(lp10496
Vare
p10497
atp10498
Rp10499
(dp10500
g16
VVBP
p10501
sbag5
(g6
g7
(lp10502
g5
(g6
g7
(lp10503
g5
(g6
g7
(lp10504
Vobjects
p10505
atp10506
Rp10507
(dp10508
g16
VNNS
p10509
sbatp10510
Rp10511
(dp10512
g16
VNP
p10513
sbag5
(g6
g7
(lp10514
g5
(g6
g7
(lp10515
Vof
p10516
atp10517
Rp10518
(dp10519
g16
VIN
p10520
sbag5
(g6
g7
(lp10521
g5
(g6
g7
(lp10522
Vdiscovery
p10523
atp10524
Rp10525
(dp10526
g16
VNN
p10527
sbag5
(g6
g7
(lp10528
Vand
p10529
atp10530
Rp10531
(dp10532
g16
VCC
p10533
sbag5
(g6
g7
(lp10534
Vscientist
p10535
atp10536
Rp10537
(dp10538
g16
VNN
p10539
sbatp10540
Rp10541
(dp10542
g16
VNP
p10543
sbatp10544
Rp10545
(dp10546
g16
VPP
p10547
sbag5
(g6
g7
(lp10548
g5
(g6
g7
(lp10549
g5
(g6
g7
(lp10550
g5
(g6
g7
(lp10551
Vs
p10552
atp10553
Rp10554
(dp10555
g16
VPRP
p10556
sbatp10557
Rp10558
(dp10559
g16
VNP
p10560
sbag5
(g6
g7
(lp10561
g5
(g6
g7
(lp10562
Vare
p10563
atp10564
Rp10565
(dp10566
g16
VVBP
p10567
sbag5
(g6
g7
(lp10568
g5
(g6
g7
(lp10569
Vsubjects
p10570
atp10571
Rp10572
(dp10573
g16
VNNS
p10574
sbatp10575
Rp10576
(dp10577
g16
VNP
p10578
sbatp10579
Rp10580
(dp10581
g16
VVP
p10582
sbatp10583
Rp10584
(dp10585
g16
g87
sbatp10586
Rp10587
(dp10588
g16
VSBAR
p10589
sbatp10590
Rp10591
(dp10592
g16
VNP
p10593
sbatp10594
Rp10595
(dp10596
g16
VVP
p10597
sbatp10598
Rp10599
(dp10600
g16
g87
sbatp10601
Rp10602
(dp10603
g16
VSBAR
p10604
sbatp10605
Rp10606
(dp10607
g16
VNP
p10608
sbatp10609
Rp10610
(dp10611
g16
VPP
p10612
sbatp10613
Rp10614
(dp10615
g16
VVP
p10616
sbatp10617
Rp10618
(dp10619
g16
VVP
p10620
sbatp10621
Rp10622
(dp10623
g16
g87
sbatp10624
Rp10625
(dp10626
g16
VROOT
p10627
sbag5
(g6
g7
(lp10628
g5
(g6
g7
(lp10629
g5
(g6
g7
(lp10630
g5
(g6
g7
(lp10631
VWe
p10632
atp10633
Rp10634
(dp10635
g16
VPRP
p10636
sbatp10637
Rp10638
(dp10639
g16
VNP
p10640
sbag5
(g6
g7
(lp10641
g5
(g6
g7
(lp10642
g5
(g6
g7
(lp10643
Vthus
p10644
atp10645
Rp10646
(dp10647
g16
VRB
p10648
sbatp10649
Rp10650
(dp10651
g16
VADVP
p10652
sbag5
(g6
g7
(lp10653
Vexpect
p10654
atp10655
Rp10656
(dp10657
g16
VVBP
p10658
sbag5
(g6
g7
(lp10659
g5
(g6
g7
(lp10660
Vthe
p10661
atp10662
Rp10663
(dp10664
g16
VDT
p10665
sbag5
(g6
g7
(lp10666
Vsyntactic
p10667
atp10668
Rp10669
(dp10670
g16
VJJ
p10671
sbag5
(g6
g7
(lp10672
Vcontexts
p10673
atp10674
Rp10675
(dp10676
g16
VNNS
p10677
sbatp10678
Rp10679
(dp10680
g16
VNP
p10681
sbag5
(g6
g7
(lp10682
g5
(g6
g7
(lp10683
g5
(g6
g7
(lp10684
Vto
p10685
atp10686
Rp10687
(dp10688
g16
VTO
p10689
sbag5
(g6
g7
(lp10690
g5
(g6
g7
(lp10691
Vyield
p10692
atp10693
Rp10694
(dp10695
g16
VVB
p10696
sbag5
(g6
g7
(lp10697
g5
(g6
g7
(lp10698
g5
(g6
g7
(lp10699
g5
(g6
g7
(lp10700
Vmore
p10701
atp10702
Rp10703
(dp10704
g16
VRBR
p10705
sbag5
(g6
g7
(lp10706
Vfocused
p10707
atp10708
Rp10709
(dp10710
g16
VJJ
p10711
sbatp10712
Rp10713
(dp10714
g16
VADJP
p10715
sbag5
(g6
g7
(lp10716
Vembeddings
p10717
atp10718
Rp10719
(dp10720
g16
VNNS
p10721
sbatp10722
Rp10723
(dp10724
g16
VNP
p10725
sbag5
(g6
g7
(lp10726
g251
atp10727
Rp10728
(dp10729
g16
g251
sbag5
(g6
g7
(lp10730
g5
(g6
g7
(lp10731
Vcapturing
p10732
atp10733
Rp10734
(dp10735
g16
VVBG
p10736
sbag5
(g6
g7
(lp10737
g5
(g6
g7
(lp10738
g5
(g6
g7
(lp10739
g5
(g6
g7
(lp10740
Vmore
p10741
atp10742
Rp10743
(dp10744
g16
VRBR
p10745
sbag5
(g6
g7
(lp10746
Vfunctional
p10747
atp10748
Rp10749
(dp10750
g16
VJJ
p10751
sbatp10752
Rp10753
(dp10754
g16
VADJP
p10755
sbag5
(g6
g7
(lp10756
Vand
p10757
atp10758
Rp10759
(dp10760
g16
VCC
p10761
sbag5
(g6
g7
(lp10762
g5
(g6
g7
(lp10763
Vless
p10764
atp10765
Rp10766
(dp10767
g16
VJJR
p10768
sbatp10769
Rp10770
(dp10771
g16
VADJP
p10772
sbatp10773
Rp10774
(dp10775
g16
VADJP
p10776
sbag5
(g6
g7
(lp10777
Vtopical
p10778
atp10779
Rp10780
(dp10781
g16
VJJ
p10782
sbag5
(g6
g7
(lp10783
Vsimilarity
p10784
atp10785
Rp10786
(dp10787
g16
VNN
p10788
sbatp10789
Rp10790
(dp10791
g16
VNP
p10792
sbatp10793
Rp10794
(dp10795
g16
VVP
p10796
sbatp10797
Rp10798
(dp10799
g16
VNP
p10800
sbatp10801
Rp10802
(dp10803
g16
VVP
p10804
sbatp10805
Rp10806
(dp10807
g16
VVP
p10808
sbatp10809
Rp10810
(dp10811
g16
g87
sbatp10812
Rp10813
(dp10814
g16
VVP
p10815
sbatp10816
Rp10817
(dp10818
g16
g87
sbatp10819
Rp10820
(dp10821
g16
VROOT
p10822
sbasg311
(icmyPackage
CorE
p10823
(dp10824
g314
(lp10825
(I0
I1
tp10826
a(I1
I0
tp10827
asg318
g5
(g6
g7
(lp10828
g10388
ag10397
ag10413
ag10618
ag10638
atp10829
Rp10830
(dp10831
g16
g323
sbsbsg324
(icmyPackage
CorE
p10832
(dp10833
g314
(lp10834
(I1
I2
tp10835
a(I1
I18
tp10836
asg318
g5
(g6
g7
(lp10837
g10656
ag10679
ag10810
atp10838
Rp10839
(dp10840
g16
g323
sbsbsg334
g1382
sg358
(lp10841
(isxpPackage
sxpSent
p10842
(dp10843
g362
(lp10844
I25
asg364
VIn addition, the contexts are typed, indicating, for example, that stars are objects of discovery and scientist s are subjects
p10845
sg366
I4
sg348
I80
sg367
I28
sba(isxpPackage
sxpSent
p10846
(dp10847
g362
(lp10848
I25
asg364
VWe thus expect the syntactic contexts to yield more focused embeddings, capturing more functional and less topical similarity
p10849
sg366
I4
sg348
I81
sg367
I28
sbasba(icmyPackage
CELink
p10850
(dp10851
g3
(lp10852
g5
(g6
g7
(lp10853
g5
(g6
g7
(lp10854
g5
(g6
g7
(lp10855
g5
(g6
g7
(lp10856
VThis
p10857
atp10858
Rp10859
(dp10860
g16
VDT
p10861
sbag5
(g6
g7
(lp10862
Vobservation
p10863
atp10864
Rp10865
(dp10866
g16
VNN
p10867
sbatp10868
Rp10869
(dp10870
g16
VNP
p10871
sbag5
(g6
g7
(lp10872
g5
(g6
g7
(lp10873
Vholds
p10874
atp10875
Rp10876
(dp10877
g16
VVBZ
p10878
sbag5
(g6
g7
(lp10879
g5
(g6
g7
(lp10880
Vfor
p10881
atp10882
Rp10883
(dp10884
g16
VIN
p10885
sbag5
(g6
g7
(lp10886
g5
(g6
g7
(lp10887
g5
(g6
g7
(lp10888
VTuring
p10889
atp10890
Rp10891
(dp10892
g16
VVBG
p10893
sbag5
(g6
g7
(lp10894
g5
(g6
g7
(lp10895
g5
(g6
g7
(lp10896
g5
(g6
g7
(lp10897
g2576
atp10898
Rp10899
(dp10900
g16
VCD
p10901
sbag5
(g6
g7
(lp10902
g2576
atp10903
Rp10904
(dp10905
g16
VCD
p10906
sbatp10907
Rp10908
(dp10909
g16
VQP
p10910
sbag5
(g6
g7
(lp10911
VDeps
p10912
atp10913
Rp10914
(dp10915
g16
VNNS
p10916
sbatp10917
Rp10918
(dp10919
g16
VNP
p10920
sbag5
(g6
g7
(lp10921
g5
(g6
g7
(lp10922
Vgenerated
p10923
atp10924
Rp10925
(dp10926
g16
VVBN
p10927
sbag5
(g6
g7
(lp10928
g5
(g6
g7
(lp10929
g5
(g6
g7
(lp10930
g783
atp10931
Rp10932
(dp10933
g16
VDT
p10934
sbag5
(g6
g7
(lp10935
Vlist
p10936
atp10937
Rp10938
(dp10939
g16
VNN
p10940
sbatp10941
Rp10942
(dp10943
g16
VNP
p10944
sbag5
(g6
g7
(lp10945
g5
(g6
g7
(lp10946
Vof
p10947
atp10948
Rp10949
(dp10950
g16
VIN
p10951
sbag5
(g6
g7
(lp10952
g5
(g6
g7
(lp10953
g5
(g6
g7
(lp10954
Vscientists
p10955
atp10956
Rp10957
(dp10958
g16
VNNS
p10959
sbatp10960
Rp10961
(dp10962
g16
VNP
p10963
sbag5
(g6
g7
(lp10964
g5
(g6
g7
(lp10965
g5
(g6
g7
(lp10966
Vwhose
p10967
atp10968
Rp10969
(dp10970
g16
VWP$
p10971
sbag5
(g6
g7
(lp10972
Vname
p10973
atp10974
Rp10975
(dp10976
g16
VNN
p10977
sbatp10978
Rp10979
(dp10980
g16
VWHNP
p10981
sbag5
(g6
g7
(lp10982
g5
(g6
g7
(lp10983
g5
(g6
g7
(lp10984
Vends
p10985
atp10986
Rp10987
(dp10988
g16
VVBZ
p10989
sbag5
(g6
g7
(lp10990
g5
(g6
g7
(lp10991
Vwith
p10992
atp10993
Rp10994
(dp10995
g16
VIN
p10996
sbag5
(g6
g7
(lp10997
g5
(g6
g7
(lp10998
g5
(g6
g7
(lp10999
g5
(g6
g7
(lp11000
g449
atp11001
Rp11002
(dp11003
g16
VNNP
p11004
sbag5
(g6
g7
(lp11005
g459
atp11006
Rp11007
(dp11008
g16
VPOS
p11009
sbatp11010
Rp11011
(dp11012
g16
VNP
p11013
sbag5
(g6
g7
(lp11014
V\u005c
p11015
atp11016
Rp11017
(dp11018
g16
VJJ
p11019
sbag5
(g6
g7
(lp11020
Vu201c
p11021
atp11022
Rp11023
(dp11024
g16
VNNS
p11025
sbag5
(g6
g7
(lp11026
g459
atp11027
Rp11028
(dp11029
g16
V''
p11030
sbag5
(g6
g7
(lp11031
Ving
p11032
atp11033
Rp11034
(dp11035
g16
VNN
p11036
sbatp11037
Rp11038
(dp11039
g16
VNP
p11040
sbag5
(g6
g7
(lp11041
g5
(g6
g7
(lp11042
g449
atp11043
Rp11044
(dp11045
g16
VVBP
p11046
sbag5
(g6
g7
(lp11047
g459
atp11048
Rp11049
(dp11050
g16
V''
p11051
sbag5
(g6
g7
(lp11052
g5
(g6
g7
(lp11053
V\u005c
p11054
atp11055
Rp11056
(dp11057
g16
VJJ
p11058
sbag5
(g6
g7
(lp11059
Vu201d
p11060
atp11061
Rp11062
(dp11063
g16
VNNS
p11064
sbatp11065
Rp11066
(dp11067
g16
VNP
p11068
sbag5
(g6
g7
(lp11069
g459
atp11070
Rp11071
(dp11072
g16
V''
p11073
sbatp11074
Rp11075
(dp11076
g16
VVP
p11077
sbatp11078
Rp11079
(dp11080
g16
g87
sbatp11081
Rp11082
(dp11083
g16
VSBAR
p11084
sbatp11085
Rp11086
(dp11087
g16
VVP
p11088
sbatp11089
Rp11090
(dp11091
g16
g87
sbatp11092
Rp11093
(dp11094
g16
VSBAR
p11095
sbatp11096
Rp11097
(dp11098
g16
VNP
p11099
sbatp11100
Rp11101
(dp11102
g16
VPP
p11103
sbatp11104
Rp11105
(dp11106
g16
VNP
p11107
sbatp11108
Rp11109
(dp11110
g16
VVP
p11111
sbatp11112
Rp11113
(dp11114
g16
VNP
p11115
sbatp11116
Rp11117
(dp11118
g16
VVP
p11119
sbatp11120
Rp11121
(dp11122
g16
g87
sbatp11123
Rp11124
(dp11125
g16
VPP
p11126
sbatp11127
Rp11128
(dp11129
g16
VVP
p11130
sbatp11131
Rp11132
(dp11133
g16
g87
sbatp11134
Rp11135
(dp11136
g16
VROOT
p11137
sbasg311
(icmyPackage
CorE
p11138
(dp11139
g314
(lp11140
(I0
I4
tp11141
a(I0
I27
tp11142
asg318
g11121
sbsg324
(icmyPackage
CorE
p11143
(dp11144
g314
(lp11145
(I0
I0
tp11146
a(I0
I2
tp11147
asg318
g5
(g6
g7
(lp11148
g10869
ag10876
atp11149
Rp11150
(dp11151
g16
g323
sbsbsg334
g8652
sg358
(lp11152
(isxpPackage
sxpSent
p11153
(dp11154
g362
(lp11155
I26
asg364
VThis observation holds for Turing 3 3 Deps generated a list of scientists whose name ends with u'\u005cu201c' ing u'\u005cu201d'
p11156
sg366
I8
sg348
I99
sg367
I35
sbasba(icmyPackage
CELink
p11157
(dp11158
g3
(lp11159
g5
(g6
g7
(lp11160
g5
(g6
g7
(lp11161
g5
(g6
g7
(lp11162
g5
(g6
g7
(lp11163
VTurney
p11164
atp11165
Rp11166
(dp11167
g16
VNNP
p11168
sbag5
(g6
g7
(lp11169
V-LSB-
p11170
atp11171
Rp11172
(dp11173
g16
VNNP
p11174
sbag5
(g6
g7
(lp11175
V31
p11176
atp11177
Rp11178
(dp11179
g16
VCD
p11180
sbag5
(g6
g7
(lp11181
V-RSB-
p11182
atp11183
Rp11184
(dp11185
g16
VNNP
p11186
sbatp11187
Rp11188
(dp11189
g16
VNP
p11190
sbag5
(g6
g7
(lp11191
g5
(g6
g7
(lp11192
Vdescribed
p11193
atp11194
Rp11195
(dp11196
g16
VVBD
p11197
sbag5
(g6
g7
(lp11198
g5
(g6
g7
(lp11199
Vthis
p11200
atp11201
Rp11202
(dp11203
g16
VDT
p11204
sbag5
(g6
g7
(lp11205
Vdistinction
p11206
atp11207
Rp11208
(dp11209
g16
VNN
p11210
sbatp11211
Rp11212
(dp11213
g16
VNP
p11214
sbag5
(g6
g7
(lp11215
g5
(g6
g7
(lp11216
Vas
p11217
atp11218
Rp11219
(dp11220
g16
VIN
p11221
sbag5
(g6
g7
(lp11222
g5
(g6
g7
(lp11223
g5
(g6
g7
(lp11224
Vdomain
p11225
atp11226
Rp11227
(dp11228
g16
VNN
p11229
sbag5
(g6
g7
(lp11230
Vsimilarity
p11231
atp11232
Rp11233
(dp11234
g16
VNN
p11235
sbatp11236
Rp11237
(dp11238
g16
VNP
p11239
sbag5
(g6
g7
(lp11240
g5
(g6
g7
(lp11241
Vversus
p11242
atp11243
Rp11244
(dp11245
g16
VIN
p11246
sbag5
(g6
g7
(lp11247
g5
(g6
g7
(lp11248
Vfunctional
p11249
atp11250
Rp11251
(dp11252
g16
VJJ
p11253
sbag5
(g6
g7
(lp11254
Vsimilarity
p11255
atp11256
Rp11257
(dp11258
g16
VNN
p11259
sbatp11260
Rp11261
(dp11262
g16
VNP
p11263
sbatp11264
Rp11265
(dp11266
g16
VPP
p11267
sbatp11268
Rp11269
(dp11270
g16
VNP
p11271
sbatp11272
Rp11273
(dp11274
g16
VPP
p11275
sbatp11276
Rp11277
(dp11278
g16
VVP
p11279
sbatp11280
Rp11281
(dp11282
g16
g87
sbatp11283
Rp11284
(dp11285
g16
VROOT
p11286
sbag5
(g6
g7
(lp11287
g5
(g6
g7
(lp11288
g5
(g6
g7
(lp11289
g5
(g6
g7
(lp11290
g5
(g6
g7
(lp11291
VThe
p11292
atp11293
Rp11294
(dp11295
g16
VDT
p11296
sbag5
(g6
g7
(lp11297
VFlorida
p11298
atp11299
Rp11300
(dp11301
g16
VNNP
p11302
sbag5
(g6
g7
(lp11303
Vexample
p11304
atp11305
Rp11306
(dp11307
g16
VNN
p11308
sbatp11309
Rp11310
(dp11311
g16
VNP
p11312
sbag5
(g6
g7
(lp11313
g5
(g6
g7
(lp11314
Vpresents
p11315
atp11316
Rp11317
(dp11318
g16
VVBZ
p11319
sbag5
(g6
g7
(lp11320
g5
(g6
g7
(lp11321
Van
p11322
atp11323
Rp11324
(dp11325
g16
VDT
p11326
sbag5
(g6
g7
(lp11327
Vontological
p11328
atp11329
Rp11330
(dp11331
g16
VJJ
p11332
sbag5
(g6
g7
(lp11333
Vdifference
p11334
atp11335
Rp11336
(dp11337
g16
VNN
p11338
sbatp11339
Rp11340
(dp11341
g16
VNP
p11342
sbatp11343
Rp11344
(dp11345
g16
VVP
p11346
sbatp11347
Rp11348
(dp11349
g16
g87
sbag5
(g6
g7
(lp11350
g7754
atp11351
Rp11352
(dp11353
g16
g7758
sbag5
(g6
g7
(lp11354
g5
(g6
g7
(lp11355
g5
(g6
g7
(lp11356
Vbag-of-words
p11357
atp11358
Rp11359
(dp11360
g16
VJJ
p11361
sbag5
(g6
g7
(lp11362
Vcontexts
p11363
atp11364
Rp11365
(dp11366
g16
VNNS
p11367
sbatp11368
Rp11369
(dp11370
g16
VNP
p11371
sbag5
(g6
g7
(lp11372
g5
(g6
g7
(lp11373
Vgenerate
p11374
atp11375
Rp11376
(dp11377
g16
VVBP
p11378
sbag5
(g6
g7
(lp11379
g5
(g6
g7
(lp11380
g5
(g6
g7
(lp11381
Vmeronyms
p11382
atp11383
Rp11384
(dp11385
g16
VNNS
p11386
sbatp11387
Rp11388
(dp11389
g16
VNP
p11390
sbag5
(g6
g7
(lp11391
g5
(g6
g7
(lp11392
V-LRB-
p11393
atp11394
Rp11395
(dp11396
g16
V-LRB-
p11397
sbag5
(g6
g7
(lp11398
g5
(g6
g7
(lp11399
g5
(g6
g7
(lp11400
Vcounties
p11401
atp11402
Rp11403
(dp11404
g16
VNNS
p11405
sbag5
(g6
g7
(lp11406
Vor
p11407
atp11408
Rp11409
(dp11410
g16
VCC
p11411
sbag5
(g6
g7
(lp11412
Vcities
p11413
atp11414
Rp11415
(dp11416
g16
VNNS
p11417
sbatp11418
Rp11419
(dp11420
g16
VNP
p11421
sbag5
(g6
g7
(lp11422
g5
(g6
g7
(lp11423
Vwithin
p11424
atp11425
Rp11426
(dp11427
g16
VIN
p11428
sbag5
(g6
g7
(lp11429
g5
(g6
g7
(lp11430
VFlorida
p11431
atp11432
Rp11433
(dp11434
g16
VNNP
p11435
sbatp11436
Rp11437
(dp11438
g16
VNP
p11439
sbatp11440
Rp11441
(dp11442
g16
VPP
p11443
sbatp11444
Rp11445
(dp11446
g16
VNP
p11447
sbag5
(g6
g7
(lp11448
V-RRB-
p11449
atp11450
Rp11451
(dp11452
g16
V-RRB-
p11453
sbatp11454
Rp11455
(dp11456
g16
VPRN
p11457
sbatp11458
Rp11459
(dp11460
g16
VNP
p11461
sbag5
(g6
g7
(lp11462
g251
atp11463
Rp11464
(dp11465
g16
g251
sbag5
(g6
g7
(lp11466
g5
(g6
g7
(lp11467
Vwhile
p11468
atp11469
Rp11470
(dp11471
g16
VIN
p11472
sbag5
(g6
g7
(lp11473
g5
(g6
g7
(lp11474
g5
(g6
g7
(lp11475
Vdependency-based
p11476
atp11477
Rp11478
(dp11479
g16
VJJ
p11480
sbag5
(g6
g7
(lp11481
Vcontexts
p11482
atp11483
Rp11484
(dp11485
g16
VNNS
p11486
sbatp11487
Rp11488
(dp11489
g16
VNP
p11490
sbag5
(g6
g7
(lp11491
g5
(g6
g7
(lp11492
Vprovide
p11493
atp11494
Rp11495
(dp11496
g16
VVBP
p11497
sbag5
(g6
g7
(lp11498
g5
(g6
g7
(lp11499
g5
(g6
g7
(lp11500
Vcohyponyms
p11501
atp11502
Rp11503
(dp11504
g16
VNNS
p11505
sbatp11506
Rp11507
(dp11508
g16
VNP
p11509
sbag5
(g6
g7
(lp11510
g5
(g6
g7
(lp11511
g5
(g6
g7
(lp11512
V-LRB-
p11513
atp11514
Rp11515
(dp11516
g16
V-LRB-
p11517
sbag5
(g6
g7
(lp11518
g5
(g6
g7
(lp11519
Vother
p11520
atp11521
Rp11522
(dp11523
g16
VJJ
p11524
sbag5
(g6
g7
(lp11525
VUS
p11526
atp11527
Rp11528
(dp11529
g16
VNNP
p11530
sbatp11531
Rp11532
(dp11533
g16
VNP
p11534
sbag5
(g6
g7
(lp11535
g5
(g6
g7
(lp11536
Vstates
p11537
atp11538
Rp11539
(dp11540
g16
VVBZ
p11541
sbatp11542
Rp11543
(dp11544
g16
VVP
p11545
sbatp11546
Rp11547
(dp11548
g16
g87
sbatp11549
Rp11550
(dp11551
g16
VSBAR
p11552
sbatp11553
Rp11554
(dp11555
g16
VNP
p11556
sbatp11557
Rp11558
(dp11559
g16
VVP
p11560
sbatp11561
Rp11562
(dp11563
g16
g87
sbatp11564
Rp11565
(dp11566
g16
VSBAR
p11567
sbatp11568
Rp11569
(dp11570
g16
VVP
p11571
sbatp11572
Rp11573
(dp11574
g16
g87
sbatp11575
Rp11576
(dp11577
g16
g87
sbatp11578
Rp11579
(dp11580
g16
VROOT
p11581
sbasg311
(icmyPackage
CorE
p11582
(dp11583
g314
(lp11584
(I0
I8
tp11585
a(I1
I27
tp11586
asg318
g5
(g6
g7
(lp11587
g11269
ag11348
ag11352
ag11369
ag11376
ag11459
ag11464
ag11470
ag11488
ag11495
ag11507
ag11515
ag11532
atp11588
Rp11589
(dp11590
g16
g323
sbsbsg324
(icmyPackage
CorE
p11591
(dp11592
g314
(lp11593
(I0
I0
tp11594
a(I0
I6
tp11595
asg318
g5
(g6
g7
(lp11596
g11188
ag11195
ag11212
atp11597
Rp11598
(dp11599
g16
g323
sbsbsg334
g335
sg358
(lp11600
(isxpPackage
sxpSent
p11601
(dp11602
g362
(lp11603
I27
asg364
VTurney [ 31 ] described this distinction as domain similarity versus functional similarity
p11604
sg366
I8
sg348
I103
sg367
I35
sba(isxpPackage
sxpSent
p11605
(dp11606
g362
(lp11607
I27
asg364
VThe Florida example presents an ontological difference; bag-of-words contexts generate meronyms (counties or cities within Florida), while dependency-based contexts provide cohyponyms (other US states
p11608
sg366
I8
sg348
I104
sg367
I36
sbasba(icmyPackage
CELink
p11609
(dp11610
g3
(lp11611
g5
(g6
g7
(lp11612
g5
(g6
g7
(lp11613
g5
(g6
g7
(lp11614
g5
(g6
g7
(lp11615
VThe
p11616
atp11617
Rp11618
(dp11619
g16
VDT
p11620
sbag5
(g6
g7
(lp11621
Vnext
p11622
atp11623
Rp11624
(dp11625
g16
VJJ
p11626
sbag5
(g6
g7
(lp11627
Vtwo
p11628
atp11629
Rp11630
(dp11631
g16
VCD
p11632
sbag5
(g6
g7
(lp11633
Vexamples
p11634
atp11635
Rp11636
(dp11637
g16
VNNS
p11638
sbatp11639
Rp11640
(dp11641
g16
VNP
p11642
sbag5
(g6
g7
(lp11643
g5
(g6
g7
(lp11644
Vdemonstrate
p11645
atp11646
Rp11647
(dp11648
g16
VVBP
p11649
sbag5
(g6
g7
(lp11650
g5
(g6
g7
(lp11651
Vthat
p11652
atp11653
Rp11654
(dp11655
g16
VIN
p11656
sbag5
(g6
g7
(lp11657
g5
(g6
g7
(lp11658
g5
(g6
g7
(lp11659
g5
(g6
g7
(lp11660
Vsimilarities
p11661
atp11662
Rp11663
(dp11664
g16
VNNS
p11665
sbatp11666
Rp11667
(dp11668
g16
VNP
p11669
sbag5
(g6
g7
(lp11670
g5
(g6
g7
(lp11671
Vinduced
p11672
atp11673
Rp11674
(dp11675
g16
VVBN
p11676
sbag5
(g6
g7
(lp11677
g5
(g6
g7
(lp11678
Vfrom
p11679
atp11680
Rp11681
(dp11682
g16
VIN
p11683
sbag5
(g6
g7
(lp11684
g5
(g6
g7
(lp11685
VDeps
p11686
atp11687
Rp11688
(dp11689
g16
VNNP
p11690
sbatp11691
Rp11692
(dp11693
g16
VNP
p11694
sbatp11695
Rp11696
(dp11697
g16
VPP
p11698
sbatp11699
Rp11700
(dp11701
g16
VVP
p11702
sbatp11703
Rp11704
(dp11705
g16
VNP
p11706
sbag5
(g6
g7
(lp11707
g5
(g6
g7
(lp11708
Vshare
p11709
atp11710
Rp11711
(dp11712
g16
VVBP
p11713
sbag5
(g6
g7
(lp11714
g5
(g6
g7
(lp11715
g5
(g6
g7
(lp11716
g783
atp11717
Rp11718
(dp11719
g16
VDT
p11720
sbag5
(g6
g7
(lp11721
Vsyntactic
p11722
atp11723
Rp11724
(dp11725
g16
VJJ
p11726
sbag5
(g6
g7
(lp11727
Vfunction
p11728
atp11729
Rp11730
(dp11731
g16
VNN
p11732
sbatp11733
Rp11734
(dp11735
g16
VNP
p11736
sbag5
(g6
g7
(lp11737
g5
(g6
g7
(lp11738
V-LRB-
p11739
atp11740
Rp11741
(dp11742
g16
V-LRB-
p11743
sbag5
(g6
g7
(lp11744
g5
(g6
g7
(lp11745
g5
(g6
g7
(lp11746
Vadjectives
p11747
atp11748
Rp11749
(dp11750
g16
VNNS
p11751
sbatp11752
Rp11753
(dp11754
g16
VNP
p11755
sbag5
(g6
g7
(lp11756
Vand
p11757
atp11758
Rp11759
(dp11760
g16
VCC
p11761
sbag5
(g6
g7
(lp11762
g5
(g6
g7
(lp11763
Vgerunds
p11764
atp11765
Rp11766
(dp11767
g16
VNNS
p11768
sbatp11769
Rp11770
(dp11771
g16
VNP
p11772
sbatp11773
Rp11774
(dp11775
g16
VNP
p11776
sbag5
(g6
g7
(lp11777
V-RRB-
p11778
atp11779
Rp11780
(dp11781
g16
V-RRB-
p11782
sbatp11783
Rp11784
(dp11785
g16
VPRN
p11786
sbatp11787
Rp11788
(dp11789
g16
VNP
p11790
sbag5
(g6
g7
(lp11791
g251
atp11792
Rp11793
(dp11794
g16
g251
sbag5
(g6
g7
(lp11795
g5
(g6
g7
(lp11796
Vwhile
p11797
atp11798
Rp11799
(dp11800
g16
VIN
p11801
sbag5
(g6
g7
(lp11802
g5
(g6
g7
(lp11803
g5
(g6
g7
(lp11804
g5
(g6
g7
(lp11805
Vsimilarities
p11806
atp11807
Rp11808
(dp11809
g16
VNNS
p11810
sbatp11811
Rp11812
(dp11813
g16
VNP
p11814
sbag5
(g6
g7
(lp11815
g5
(g6
g7
(lp11816
Vbased
p11817
atp11818
Rp11819
(dp11820
g16
VVBN
p11821
sbag5
(g6
g7
(lp11822
g5
(g6
g7
(lp11823
Von
p11824
atp11825
Rp11826
(dp11827
g16
VIN
p11828
sbag5
(g6
g7
(lp11829
g5
(g6
g7
(lp11830
VBoW
p11831
atp11832
Rp11833
(dp11834
g16
VNNP
p11835
sbatp11836
Rp11837
(dp11838
g16
VNP
p11839
sbatp11840
Rp11841
(dp11842
g16
VPP
p11843
sbatp11844
Rp11845
(dp11846
g16
VPP
p11847
sbatp11848
Rp11849
(dp11850
g16
VNP
p11851
sbag5
(g6
g7
(lp11852
g5
(g6
g7
(lp11853
Vare
p11854
atp11855
Rp11856
(dp11857
g16
VVBP
p11858
sbag5
(g6
g7
(lp11859
g5
(g6
g7
(lp11860
Vmore
p11861
atp11862
Rp11863
(dp11864
g16
VRBR
p11865
sbag5
(g6
g7
(lp11866
Vdiverse
p11867
atp11868
Rp11869
(dp11870
g16
VJJ
p11871
sbatp11872
Rp11873
(dp11874
g16
VADJP
p11875
sbatp11876
Rp11877
(dp11878
g16
VVP
p11879
sbatp11880
Rp11881
(dp11882
g16
g87
sbatp11883
Rp11884
(dp11885
g16
VSBAR
p11886
sbatp11887
Rp11888
(dp11889
g16
VVP
p11890
sbatp11891
Rp11892
(dp11893
g16
g87
sbatp11894
Rp11895
(dp11896
g16
VSBAR
p11897
sbatp11898
Rp11899
(dp11900
g16
VVP
p11901
sbatp11902
Rp11903
(dp11904
g16
g87
sbatp11905
Rp11906
(dp11907
g16
VROOT
p11908
sbasg311
(icmyPackage
CorE
p11909
(dp11910
g314
(lp11911
(I0
I24
tp11912
a(I0
I27
tp11913
asg318
g5
(g6
g7
(lp11914
g11837
ag11877
atp11915
Rp11916
(dp11917
g16
g323
sbsbsg324
(icmyPackage
CorE
p11918
(dp11919
g314
(lp11920
(I0
I0
tp11921
a(I0
I21
tp11922
asg318
g5
(g6
g7
(lp11923
g11640
ag11647
ag11654
ag11704
ag11711
ag11788
ag11793
ag11799
ag11812
atp11924
Rp11925
(dp11926
g16
g323
sbsbsg334
g2178
sg358
(lp11927
(isxpPackage
sxpSent
p11928
(dp11929
g362
(lp11930
I28
asg364
VThe next two examples demonstrate that similarities induced from Deps share a syntactic function (adjectives and gerunds), while similarities based on BoW are more diverse
p11931
sg366
I8
sg348
I106
sg367
I37
sbasba(icmyPackage
CELink
p11932
(dp11933
g3
(lp11934
g5
(g6
g7
(lp11935
g5
(g6
g7
(lp11936
g5
(g6
g7
(lp11937
g5
(g6
g7
(lp11938
VSince
p11939
atp11940
Rp11941
(dp11942
g16
VIN
p11943
sbag5
(g6
g7
(lp11944
g5
(g6
g7
(lp11945
g5
(g6
g7
(lp11946
Vword2vec
p11947
atp11948
Rp11949
(dp11950
g16
VNNS
p11951
sbatp11952
Rp11953
(dp11954
g16
VNP
p11955
sbag5
(g6
g7
(lp11956
g5
(g6
g7
(lp11957
Vremoves
p11958
atp11959
Rp11960
(dp11961
g16
VVBZ
p11962
sbag5
(g6
g7
(lp11963
g5
(g6
g7
(lp11964
g5
(g6
g7
(lp11965
Vthe
p11966
atp11967
Rp11968
(dp11969
g16
VDT
p11970
sbag5
(g6
g7
(lp11971
Vsubsampled
p11972
atp11973
Rp11974
(dp11975
g16
VJJ
p11976
sbag5
(g6
g7
(lp11977
Vwords
p11978
atp11979
Rp11980
(dp11981
g16
VNNS
p11982
sbatp11983
Rp11984
(dp11985
g16
VNP
p11986
sbag5
(g6
g7
(lp11987
g5
(g6
g7
(lp11988
Vfrom
p11989
atp11990
Rp11991
(dp11992
g16
VIN
p11993
sbag5
(g6
g7
(lp11994
g5
(g6
g7
(lp11995
Vthe
p11996
atp11997
Rp11998
(dp11999
g16
VDT
p12000
sbag5
(g6
g7
(lp12001
Vcorpus
p12002
atp12003
Rp12004
(dp12005
g16
VNN
p12006
sbatp12007
Rp12008
(dp12009
g16
VNP
p12010
sbatp12011
Rp12012
(dp12013
g16
VPP
p12014
sbatp12015
Rp12016
(dp12017
g16
VNP
p12018
sbag5
(g6
g7
(lp12019
g5
(g6
g7
(lp12020
Vbefore
p12021
atp12022
Rp12023
(dp12024
g16
VIN
p12025
sbag5
(g6
g7
(lp12026
g5
(g6
g7
(lp12027
g5
(g6
g7
(lp12028
Vcreating
p12029
atp12030
Rp12031
(dp12032
g16
VVBG
p12033
sbag5
(g6
g7
(lp12034
g5
(g6
g7
(lp12035
Vthe
p12036
atp12037
Rp12038
(dp12039
g16
VDT
p12040
sbag5
(g6
g7
(lp12041
Vwindow
p12042
atp12043
Rp12044
(dp12045
g16
VNN
p12046
sbag5
(g6
g7
(lp12047
Vcontexts
p12048
atp12049
Rp12050
(dp12051
g16
VNNS
p12052
sbatp12053
Rp12054
(dp12055
g16
VNP
p12056
sbatp12057
Rp12058
(dp12059
g16
VVP
p12060
sbatp12061
Rp12062
(dp12063
g16
g87
sbatp12064
Rp12065
(dp12066
g16
VPP
p12067
sbatp12068
Rp12069
(dp12070
g16
VVP
p12071
sbatp12072
Rp12073
(dp12074
g16
g87
sbatp12075
Rp12076
(dp12077
g16
VSBAR
p12078
sbag5
(g6
g7
(lp12079
g251
atp12080
Rp12081
(dp12082
g16
g251
sbag5
(g6
g7
(lp12083
g5
(g6
g7
(lp12084
Vthis
p12085
atp12086
Rp12087
(dp12088
g16
VDT
p12089
sbag5
(g6
g7
(lp12090
Voption
p12091
atp12092
Rp12093
(dp12094
g16
VNN
p12095
sbatp12096
Rp12097
(dp12098
g16
VNP
p12099
sbag5
(g6
g7
(lp12100
g5
(g6
g7
(lp12101
Veffectively
p12102
atp12103
Rp12104
(dp12105
g16
VRB
p12106
sbatp12107
Rp12108
(dp12109
g16
VADVP
p12110
sbag5
(g6
g7
(lp12111
g5
(g6
g7
(lp12112
Vincreases
p12113
atp12114
Rp12115
(dp12116
g16
VVBZ
p12117
sbag5
(g6
g7
(lp12118
g5
(g6
g7
(lp12119
Vthe
p12120
atp12121
Rp12122
(dp12123
g16
VDT
p12124
sbag5
(g6
g7
(lp12125
Vwindow
p12126
atp12127
Rp12128
(dp12129
g16
VNN
p12130
sbag5
(g6
g7
(lp12131
Vsize
p12132
atp12133
Rp12134
(dp12135
g16
VNN
p12136
sbatp12137
Rp12138
(dp12139
g16
VNP
p12140
sbag5
(g6
g7
(lp12141
g251
atp12142
Rp12143
(dp12144
g16
g251
sbag5
(g6
g7
(lp12145
g5
(g6
g7
(lp12146
g5
(g6
g7
(lp12147
Vresulting
p12148
atp12149
Rp12150
(dp12151
g16
VVBG
p12152
sbag5
(g6
g7
(lp12153
g5
(g6
g7
(lp12154
Vin
p12155
atp12156
Rp12157
(dp12158
g16
VIN
p12159
sbag5
(g6
g7
(lp12160
g5
(g6
g7
(lp12161
Vgreater
p12162
atp12163
Rp12164
(dp12165
g16
VJJR
p12166
sbag5
(g6
g7
(lp12167
Vtopicality
p12168
atp12169
Rp12170
(dp12171
g16
VNN
p12172
sbatp12173
Rp12174
(dp12175
g16
VNP
p12176
sbatp12177
Rp12178
(dp12179
g16
VPP
p12180
sbatp12181
Rp12182
(dp12183
g16
VVP
p12184
sbatp12185
Rp12186
(dp12187
g16
g87
sbatp12188
Rp12189
(dp12190
g16
VVP
p12191
sbatp12192
Rp12193
(dp12194
g16
g87
sbatp12195
Rp12196
(dp12197
g16
VROOT
p12198
sbasg311
(icmyPackage
CorE
p12199
(dp12200
g314
(lp12201
(I0
I1
tp12202
a(I0
I11
tp12203
asg318
g5
(g6
g7
(lp12204
g11953
ag11960
ag12016
ag12023
ag12031
ag12038
atp12205
Rp12206
(dp12207
g16
g323
sbsbsg324
(icmyPackage
CorE
p12208
(dp12209
g314
(lp12210
(I0
I15
tp12211
a(I0
I19
tp12212
asg318
g5
(g6
g7
(lp12213
g12097
ag12108
ag12115
ag12122
atp12214
Rp12215
(dp12216
g16
g323
sbsbsg334
(icmyPackage
pattern
p12217
(dp12218
g337
I15
sg338
I0
sg339
(lp12219
(lp12220
S'since'
p12221
aa(lp12222
g1191
aasg343
(lp12223
I3
aI1
aI1
asg345
(lp12224
S'But, since the herpes virus does not always show its symptoms, prevention is not fool proof.'
p12225
asg348
I78
sg349
(lp12226
(lp12227
a(lp12228
S'&C@NCTime@'
p12229
aa(lp12230
S'&R@NCTime@'
p12231
aasbsg358
(lp12232
(isxpPackage
sxpSent
p12233
(dp12234
g362
(lp12235
I29
asg364
VSince word2vec removes the subsampled words from the corpus before creating the window contexts, this option effectively increases the window size, resulting in greater topicality
p12236
sg366
I8
sg348
I109
sg367
I38
sbasba(icmyPackage
CELink
p12237
(dp12238
g3
(lp12239
g5
(g6
g7
(lp12240
g5
(g6
g7
(lp12241
g5
(g6
g7
(lp12242
g5
(g6
g7
(lp12243
VThe
p12244
atp12245
Rp12246
(dp12247
g16
VDT
p12248
sbag5
(g6
g7
(lp12249
Vpairs
p12250
atp12251
Rp12252
(dp12253
g16
VNNS
p12254
sbatp12255
Rp12256
(dp12257
g16
VNP
p12258
sbag5
(g6
g7
(lp12259
g5
(g6
g7
(lp12260
Vare
p12261
atp12262
Rp12263
(dp12264
g16
VVBP
p12265
sbag5
(g6
g7
(lp12266
g5
(g6
g7
(lp12267
Vranked
p12268
atp12269
Rp12270
(dp12271
g16
VVBN
p12272
sbag5
(g6
g7
(lp12273
g5
(g6
g7
(lp12274
Vaccording
p12275
atp12276
Rp12277
(dp12278
g16
VVBG
p12279
sbag5
(g6
g7
(lp12280
g5
(g6
g7
(lp12281
Vto
p12282
atp12283
Rp12284
(dp12285
g16
VTO
p12286
sbag5
(g6
g7
(lp12287
g5
(g6
g7
(lp12288
g5
(g6
g7
(lp12289
Vcosine
p12290
atp12291
Rp12292
(dp12293
g16
VJJ
p12294
sbag5
(g6
g7
(lp12295
Vsimilarities
p12296
atp12297
Rp12298
(dp12299
g16
VNNS
p12300
sbatp12301
Rp12302
(dp12303
g16
VNP
p12304
sbag5
(g6
g7
(lp12305
g5
(g6
g7
(lp12306
Vbetween
p12307
atp12308
Rp12309
(dp12310
g16
VIN
p12311
sbag5
(g6
g7
(lp12312
g5
(g6
g7
(lp12313
Vthe
p12314
atp12315
Rp12316
(dp12317
g16
VDT
p12318
sbag5
(g6
g7
(lp12319
Vembedded
p12320
atp12321
Rp12322
(dp12323
g16
VJJ
p12324
sbag5
(g6
g7
(lp12325
Vwords
p12326
atp12327
Rp12328
(dp12329
g16
VNNS
p12330
sbatp12331
Rp12332
(dp12333
g16
VNP
p12334
sbatp12335
Rp12336
(dp12337
g16
VPP
p12338
sbatp12339
Rp12340
(dp12341
g16
VNP
p12342
sbatp12343
Rp12344
(dp12345
g16
VPP
p12346
sbatp12347
Rp12348
(dp12349
g16
VPP
p12350
sbatp12351
Rp12352
(dp12353
g16
VVP
p12354
sbatp12355
Rp12356
(dp12357
g16
VVP
p12358
sbatp12359
Rp12360
(dp12361
g16
g87
sbatp12362
Rp12363
(dp12364
g16
VROOT
p12365
sbasg311
(icmyPackage
CorE
p12366
(dp12367
g314
(lp12368
(I0
I6
tp12369
a(I0
I11
tp12370
asg318
g12340
sbsg324
(icmyPackage
CorE
p12371
(dp12372
g314
(lp12373
(I0
I0
tp12374
a(I0
I3
tp12375
asg318
g5
(g6
g7
(lp12376
g12256
ag12263
ag12270
atp12377
Rp12378
(dp12379
g16
g323
sbsbsg334
g7325
sg358
(lp12380
(isxpPackage
sxpSent
p12381
(dp12382
g362
(lp12383
I30
asg364
VThe pairs are ranked according to cosine similarities between the embedded words
p12384
sg366
I9
sg348
I115
sg367
I40
sbasba(icmyPackage
CELink
p12385
(dp12386
g3
(lp12387
g5
(g6
g7
(lp12388
g5
(g6
g7
(lp12389
g5
(g6
g7
(lp12390
g5
(g6
g7
(lp12391
VWhen
p12392
atp12393
Rp12394
(dp12395
g16
VWRB
p12396
sbatp12397
Rp12398
(dp12399
g16
VWHADVP
p12400
sbag5
(g6
g7
(lp12401
g5
(g6
g7
(lp12402
g5
(g6
g7
(lp12403
g5
(g6
g7
(lp12404
Vreversing
p12405
atp12406
Rp12407
(dp12408
g16
VVBG
p12409
sbag5
(g6
g7
(lp12410
g5
(g6
g7
(lp12411
Vthe
p12412
atp12413
Rp12414
(dp12415
g16
VDT
p12416
sbag5
(g6
g7
(lp12417
Vtask
p12418
atp12419
Rp12420
(dp12421
g16
VNN
p12422
sbatp12423
Rp12424
(dp12425
g16
VNP
p12426
sbag5
(g6
g7
(lp12427
g5
(g6
g7
(lp12428
Vsuch
p12429
atp12430
Rp12431
(dp12432
g16
VJJ
p12433
sbatp12434
Rp12435
(dp12436
g16
VPP
p12437
sbag5
(g6
g7
(lp12438
g5
(g6
g7
(lp12439
Vthat
p12440
atp12441
Rp12442
(dp12443
g16
VIN
p12444
sbag5
(g6
g7
(lp12445
g5
(g6
g7
(lp12446
g5
(g6
g7
(lp12447
Vthe
p12448
atp12449
Rp12450
(dp12451
g16
VDT
p12452
sbag5
(g6
g7
(lp12453
Vgoal
p12454
atp12455
Rp12456
(dp12457
g16
VNN
p12458
sbatp12459
Rp12460
(dp12461
g16
VNP
p12462
sbag5
(g6
g7
(lp12463
g5
(g6
g7
(lp12464
Vis
p12465
atp12466
Rp12467
(dp12468
g16
VVBZ
p12469
sbag5
(g6
g7
(lp12470
g5
(g6
g7
(lp12471
g5
(g6
g7
(lp12472
Vto
p12473
atp12474
Rp12475
(dp12476
g16
VTO
p12477
sbag5
(g6
g7
(lp12478
g5
(g6
g7
(lp12479
Vrank
p12480
atp12481
Rp12482
(dp12483
g16
VVB
p12484
sbag5
(g6
g7
(lp12485
g5
(g6
g7
(lp12486
Vthe
p12487
atp12488
Rp12489
(dp12490
g16
VDT
p12491
sbag5
(g6
g7
(lp12492
Vrelated
p12493
atp12494
Rp12495
(dp12496
g16
VVBN
p12497
sbag5
(g6
g7
(lp12498
Vterms
p12499
atp12500
Rp12501
(dp12502
g16
VNNS
p12503
sbatp12504
Rp12505
(dp12506
g16
VNP
p12507
sbag5
(g6
g7
(lp12508
g5
(g6
g7
(lp12509
Vabove
p12510
atp12511
Rp12512
(dp12513
g16
VIN
p12514
sbag5
(g6
g7
(lp12515
g5
(g6
g7
(lp12516
Vthe
p12517
atp12518
Rp12519
(dp12520
g16
VDT
p12521
sbag5
(g6
g7
(lp12522
Vsimilar
p12523
atp12524
Rp12525
(dp12526
g16
VJJ
p12527
sbag5
(g6
g7
(lp12528
Vones
p12529
atp12530
Rp12531
(dp12532
g16
VNNS
p12533
sbatp12534
Rp12535
(dp12536
g16
VNP
p12537
sbatp12538
Rp12539
(dp12540
g16
VPP
p12541
sbatp12542
Rp12543
(dp12544
g16
VVP
p12545
sbatp12546
Rp12547
(dp12548
g16
VVP
p12549
sbatp12550
Rp12551
(dp12552
g16
g87
sbatp12553
Rp12554
(dp12555
g16
VVP
p12556
sbatp12557
Rp12558
(dp12559
g16
g87
sbatp12560
Rp12561
(dp12562
g16
VSBAR
p12563
sbatp12564
Rp12565
(dp12566
g16
VVP
p12567
sbatp12568
Rp12569
(dp12570
g16
g87
sbag5
(g6
g7
(lp12571
g251
atp12572
Rp12573
(dp12574
g16
g251
sbag5
(g6
g7
(lp12575
g5
(g6
g7
(lp12576
Vthe
p12577
atp12578
Rp12579
(dp12580
g16
VDT
p12581
sbag5
(g6
g7
(lp12582
Vresults
p12583
atp12584
Rp12585
(dp12586
g16
VNNS
p12587
sbatp12588
Rp12589
(dp12590
g16
VNP
p12591
sbag5
(g6
g7
(lp12592
g5
(g6
g7
(lp12593
Vare
p12594
atp12595
Rp12596
(dp12597
g16
VVBP
p12598
sbag5
(g6
g7
(lp12599
g5
(g6
g7
(lp12600
g5
(g6
g7
(lp12601
Vreversed
p12602
atp12603
Rp12604
(dp12605
g16
VVBN
p12606
sbatp12607
Rp12608
(dp12609
g16
VVP
p12610
sbag5
(g6
g7
(lp12611
g251
atp12612
Rp12613
(dp12614
g16
g251
sbag5
(g6
g7
(lp12615
g5
(g6
g7
(lp12616
g5
(g6
g7
(lp12617
Vas
p12618
atp12619
Rp12620
(dp12621
g16
VIN
p12622
sbatp12623
Rp12624
(dp12625
g16
VADVP
p12626
sbag5
(g6
g7
(lp12627
Vexpected
p12628
atp12629
Rp12630
(dp12631
g16
VVBN
p12632
sbag5
(g6
g7
(lp12633
V-LRB-
p12634
atp12635
Rp12636
(dp12637
g16
V-LRB-
p12638
sbag5
(g6
g7
(lp12639
g5
(g6
g7
(lp12640
Vnot
p12641
atp12642
Rp12643
(dp12644
g16
VRB
p12645
sbag5
(g6
g7
(lp12646
Vshown
p12647
atp12648
Rp12649
(dp12650
g16
VJJ
p12651
sbatp12652
Rp12653
(dp12654
g16
VNP
p12655
sbatp12656
Rp12657
(dp12658
g16
VVP
p12659
sbatp12660
Rp12661
(dp12662
g16
VVP
p12663
sbatp12664
Rp12665
(dp12666
g16
VVP
p12667
sbatp12668
Rp12669
(dp12670
g16
g87
sbatp12671
Rp12672
(dp12673
g16
VSBARQ
p12674
sbatp12675
Rp12676
(dp12677
g16
VROOT
p12678
sbag5
(g6
g7
(lp12679
g5
(g6
g7
(lp12680
g5
(g6
g7
(lp12681
g5
(g6
g7
(lp12682
g5
(g6
g7
(lp12683
g5
(g6
g7
(lp12684
g2100
atp12685
Rp12686
(dp12687
g16
VCD
p12688
sbag5
(g6
g7
(lp12689
g2100
atp12690
Rp12691
(dp12692
g16
VCD
p12693
sbatp12694
Rp12695
(dp12696
g16
VQP
p12697
sbag5
(g6
g7
(lp12698
VAdditional
p12699
atp12700
Rp12701
(dp12702
g16
VJJ
p12703
sbag5
(g6
g7
(lp12704
Vexperiments
p12705
atp12706
Rp12707
(dp12708
g16
VNNS
p12709
sbatp12710
Rp12711
(dp12712
g16
VNP
p12713
sbag5
(g6
g7
(lp12714
g5
(g6
g7
(lp12715
V-LRB-
p12716
atp12717
Rp12718
(dp12719
g16
V-LRB-
p12720
sbag5
(g6
g7
(lp12721
g5
(g6
g7
(lp12722
Vnot
p12723
atp12724
Rp12725
(dp12726
g16
VRB
p12727
sbag5
(g6
g7
(lp12728
Vpresented
p12729
atp12730
Rp12731
(dp12732
g16
VVBN
p12733
sbag5
(g6
g7
(lp12734
g5
(g6
g7
(lp12735
Vin
p12736
atp12737
Rp12738
(dp12739
g16
VIN
p12740
sbag5
(g6
g7
(lp12741
g5
(g6
g7
(lp12742
Vthis
p12743
atp12744
Rp12745
(dp12746
g16
VDT
p12747
sbag5
(g6
g7
(lp12748
Vpaper
p12749
atp12750
Rp12751
(dp12752
g16
VNN
p12753
sbatp12754
Rp12755
(dp12756
g16
VNP
p12757
sbatp12758
Rp12759
(dp12760
g16
VPP
p12761
sbatp12762
Rp12763
(dp12764
g16
VVP
p12765
sbag5
(g6
g7
(lp12766
V-RRB-
p12767
atp12768
Rp12769
(dp12770
g16
V-RRB-
p12771
sbatp12772
Rp12773
(dp12774
g16
VPRN
p12775
sbatp12776
Rp12777
(dp12778
g16
VNP
p12779
sbag5
(g6
g7
(lp12780
g5
(g6
g7
(lp12781
Vreinforce
p12782
atp12783
Rp12784
(dp12785
g16
VVBP
p12786
sbag5
(g6
g7
(lp12787
g5
(g6
g7
(lp12788
Vour
p12789
atp12790
Rp12791
(dp12792
g16
VPRP$
p12793
sbag5
(g6
g7
(lp12794
Vconclusion
p12795
atp12796
Rp12797
(dp12798
g16
VNN
p12799
sbatp12800
Rp12801
(dp12802
g16
VNP
p12803
sbatp12804
Rp12805
(dp12806
g16
VVP
p12807
sbatp12808
Rp12809
(dp12810
g16
g87
sbatp12811
Rp12812
(dp12813
g16
VROOT
p12814
sbasg311
(icmyPackage
CorE
p12815
(dp12816
g314
(lp12817
(I0
I25
tp12818
a(I1
I11
tp12819
asg318
g5
(g6
g7
(lp12820
g12630
ag12636
ag12653
ag12777
ag12784
atp12821
Rp12822
(dp12823
g16
g323
sbsbsg324
(icmyPackage
CorE
p12824
(dp12825
g314
(lp12826
(I0
I1
tp12827
a(I0
I22
tp12828
asg318
g5
(g6
g7
(lp12829
g12569
ag12573
ag12589
ag12596
ag12608
atp12830
Rp12831
(dp12832
g16
g323
sbsbsg334
g335
sg358
(lp12833
(isxpPackage
sxpSent
p12834
(dp12835
g362
(lp12836
I31
asg364
VWhen reversing the task such that the goal is to rank the related terms above the similar ones, the results are reversed, as expected (not shown
p12837
sg366
I9
sg348
I121
sg367
I40
sba(isxpPackage
sxpSent
p12838
(dp12839
g362
(lp12840
I31
asg364
V5 5 Additional experiments (not presented in this paper) reinforce our conclusion
p12841
sg366
I9
sg348
I122
sg367
I40
sbasba(icmyPackage
CELink
p12842
(dp12843
g3
(lp12844
g5
(g6
g7
(lp12845
g5
(g6
g7
(lp12846
g5
(g6
g7
(lp12847
g5
(g6
g7
(lp12848
VIn
p12849
atp12850
Rp12851
(dp12852
g16
VIN
p12853
sbag5
(g6
g7
(lp12854
g5
(g6
g7
(lp12855
Vparticular
p12856
atp12857
Rp12858
(dp12859
g16
VJJ
p12860
sbatp12861
Rp12862
(dp12863
g16
VADJP
p12864
sbatp12865
Rp12866
(dp12867
g16
VPP
p12868
sbag5
(g6
g7
(lp12869
g251
atp12870
Rp12871
(dp12872
g16
g251
sbag5
(g6
g7
(lp12873
g5
(g6
g7
(lp12874
Vwe
p12875
atp12876
Rp12877
(dp12878
g16
VPRP
p12879
sbatp12880
Rp12881
(dp12882
g16
VNP
p12883
sbag5
(g6
g7
(lp12884
g5
(g6
g7
(lp12885
Vfound
p12886
atp12887
Rp12888
(dp12889
g16
VVBD
p12890
sbag5
(g6
g7
(lp12891
g5
(g6
g7
(lp12892
Vthat
p12893
atp12894
Rp12895
(dp12896
g16
VIN
p12897
sbag5
(g6
g7
(lp12898
g5
(g6
g7
(lp12899
g5
(g6
g7
(lp12900
VDeps
p12901
atp12902
Rp12903
(dp12904
g16
VNNP
p12905
sbatp12906
Rp12907
(dp12908
g16
VNP
p12909
sbag5
(g6
g7
(lp12910
g5
(g6
g7
(lp12911
Vperform
p12912
atp12913
Rp12914
(dp12915
g16
VVBP
p12916
sbag5
(g6
g7
(lp12917
g5
(g6
g7
(lp12918
g5
(g6
g7
(lp12919
Vdramatically
p12920
atp12921
Rp12922
(dp12923
g16
VRB
p12924
sbag5
(g6
g7
(lp12925
Vworse
p12926
atp12927
Rp12928
(dp12929
g16
VJJR
p12930
sbatp12931
Rp12932
(dp12933
g16
VADJP
p12934
sbag5
(g6
g7
(lp12935
g5
(g6
g7
(lp12936
Vthan
p12937
atp12938
Rp12939
(dp12940
g16
VIN
p12941
sbag5
(g6
g7
(lp12942
g5
(g6
g7
(lp12943
g5
(g6
g7
(lp12944
VBoW
p12945
atp12946
Rp12947
(dp12948
g16
VNNP
p12949
sbatp12950
Rp12951
(dp12952
g16
VNP
p12953
sbag5
(g6
g7
(lp12954
g5
(g6
g7
(lp12955
Vcontexts
p12956
atp12957
Rp12958
(dp12959
g16
VVBZ
p12960
sbag5
(g6
g7
(lp12961
g5
(g6
g7
(lp12962
Von
p12963
atp12964
Rp12965
(dp12966
g16
VIN
p12967
sbag5
(g6
g7
(lp12968
g5
(g6
g7
(lp12969
g5
(g6
g7
(lp12970
Vanalogy
p12971
atp12972
Rp12973
(dp12974
g16
VNN
p12975
sbag5
(g6
g7
(lp12976
Vtasks
p12977
atp12978
Rp12979
(dp12980
g16
VNNS
p12981
sbatp12982
Rp12983
(dp12984
g16
VNP
p12985
sbag5
(g6
g7
(lp12986
g5
(g6
g7
(lp12987
g5
(g6
g7
(lp12988
Vas
p12989
atp12990
Rp12991
(dp12992
g16
VRB
p12993
sbag5
(g6
g7
(lp12994
g5
(g6
g7
(lp12995
Vin
p12996
atp12997
Rp12998
(dp12999
g16
VIN
p13000
sbag5
(g6
g7
(lp13001
g5
(g6
g7
(lp13002
V-LSB-
p13003
atp13004
Rp13005
(dp13006
g16
VNNP
p13007
sbag5
(g6
g7
(lp13008
V22
p13009
atp13010
Rp13011
(dp13012
g16
VCD
p13013
sbag5
(g6
g7
(lp13014
g251
atp13015
Rp13016
(dp13017
g16
g251
sbag5
(g6
g7
(lp13018
V17
p13019
atp13020
Rp13021
(dp13022
g16
VCD
p13023
sbatp13024
Rp13025
(dp13026
g16
VNP
p13027
sbatp13028
Rp13029
(dp13030
g16
VPP
p13031
sbatp13032
Rp13033
(dp13034
g16
VADVP
p13035
sbag5
(g6
g7
(lp13036
V-RSB-
p13037
atp13038
Rp13039
(dp13040
g16
VVBN
p13041
sbatp13042
Rp13043
(dp13044
g16
VVP
p13045
sbatp13046
Rp13047
(dp13048
g16
VNP
p13049
sbatp13050
Rp13051
(dp13052
g16
VPP
p13053
sbatp13054
Rp13055
(dp13056
g16
VVP
p13057
sbatp13058
Rp13059
(dp13060
g16
g87
sbatp13061
Rp13062
(dp13063
g16
VSBAR
p13064
sbatp13065
Rp13066
(dp13067
g16
VADJP
p13068
sbatp13069
Rp13070
(dp13071
g16
VVP
p13072
sbatp13073
Rp13074
(dp13075
g16
g87
sbatp13076
Rp13077
(dp13078
g16
VSBAR
p13079
sbatp13080
Rp13081
(dp13082
g16
VVP
p13083
sbatp13084
Rp13085
(dp13086
g16
g87
sbatp13087
Rp13088
(dp13089
g16
VROOT
p13090
sbag5
(g6
g7
(lp13091
g5
(g6
g7
(lp13092
g5
(g6
g7
(lp13093
g5
(g6
g7
(lp13094
VNeural
p13095
atp13096
Rp13097
(dp13098
g16
VJJ
p13099
sbag5
(g6
g7
(lp13100
Vword
p13101
atp13102
Rp13103
(dp13104
g16
VNN
p13105
sbag5
(g6
g7
(lp13106
Vembeddings
p13107
atp13108
Rp13109
(dp13110
g16
VNNS
p13111
sbatp13112
Rp13113
(dp13114
g16
VNP
p13115
sbag5
(g6
g7
(lp13116
g5
(g6
g7
(lp13117
Vare
p13118
atp13119
Rp13120
(dp13121
g16
VVBP
p13122
sbag5
(g6
g7
(lp13123
g5
(g6
g7
(lp13124
Voften
p13125
atp13126
Rp13127
(dp13128
g16
VRB
p13129
sbatp13130
Rp13131
(dp13132
g16
VADVP
p13133
sbag5
(g6
g7
(lp13134
g5
(g6
g7
(lp13135
Vconsidered
p13136
atp13137
Rp13138
(dp13139
g16
VVBN
p13140
sbag5
(g6
g7
(lp13141
g5
(g6
g7
(lp13142
Vopaque
p13143
atp13144
Rp13145
(dp13146
g16
VJJ
p13147
sbag5
(g6
g7
(lp13148
Vand
p13149
atp13150
Rp13151
(dp13152
g16
VCC
p13153
sbag5
(g6
g7
(lp13154
Vuninterpretable
p13155
atp13156
Rp13157
(dp13158
g16
VJJ
p13159
sbatp13160
Rp13161
(dp13162
g16
VADJP
p13163
sbag5
(g6
g7
(lp13164
g251
atp13165
Rp13166
(dp13167
g16
g251
sbag5
(g6
g7
(lp13168
g5
(g6
g7
(lp13169
Vunlike
p13170
atp13171
Rp13172
(dp13173
g16
VIN
p13174
sbag5
(g6
g7
(lp13175
g5
(g6
g7
(lp13176
g5
(g6
g7
(lp13177
Vsparse
p13178
atp13179
Rp13180
(dp13181
g16
VJJ
p13182
sbag5
(g6
g7
(lp13183
Vvector
p13184
atp13185
Rp13186
(dp13187
g16
VNN
p13188
sbag5
(g6
g7
(lp13189
Vspace
p13190
atp13191
Rp13192
(dp13193
g16
VNN
p13194
sbag5
(g6
g7
(lp13195
Vrepresentations
p13196
atp13197
Rp13198
(dp13199
g16
VNNS
p13200
sbatp13201
Rp13202
(dp13203
g16
VNP
p13204
sbag5
(g6
g7
(lp13205
g5
(g6
g7
(lp13206
g5
(g6
g7
(lp13207
Vin
p13208
atp13209
Rp13210
(dp13211
g16
VIN
p13212
sbag5
(g6
g7
(lp13213
g5
(g6
g7
(lp13214
Vwhich
p13215
atp13216
Rp13217
(dp13218
g16
VWDT
p13219
sbatp13220
Rp13221
(dp13222
g16
VWHNP
p13223
sbatp13224
Rp13225
(dp13226
g16
VWHPP
p13227
sbag5
(g6
g7
(lp13228
g5
(g6
g7
(lp13229
g5
(g6
g7
(lp13230
Veach
p13231
atp13232
Rp13233
(dp13234
g16
VDT
p13235
sbag5
(g6
g7
(lp13236
Vdimension
p13237
atp13238
Rp13239
(dp13240
g16
VNN
p13241
sbatp13242
Rp13243
(dp13244
g16
VNP
p13245
sbag5
(g6
g7
(lp13246
g5
(g6
g7
(lp13247
Vcorresponds
p13248
atp13249
Rp13250
(dp13251
g16
VVBZ
p13252
sbag5
(g6
g7
(lp13253
g5
(g6
g7
(lp13254
Vto
p13255
atp13256
Rp13257
(dp13258
g16
VTO
p13259
sbag5
(g6
g7
(lp13260
g5
(g6
g7
(lp13261
g5
(g6
g7
(lp13262
g783
atp13263
Rp13264
(dp13265
g16
VDT
p13266
sbag5
(g6
g7
(lp13267
g5
(g6
g7
(lp13268
Vparticular
p13269
atp13270
Rp13271
(dp13272
g16
VJJ
p13273
sbag5
(g6
g7
(lp13274
Vknown
p13275
atp13276
Rp13277
(dp13278
g16
VVBN
p13279
sbatp13280
Rp13281
(dp13282
g16
VADJP
p13283
sbag5
(g6
g7
(lp13284
Vcontext
p13285
atp13286
Rp13287
(dp13288
g16
VNN
p13289
sbatp13290
Rp13291
(dp13292
g16
VNP
p13293
sbag5
(g6
g7
(lp13294
g251
atp13295
Rp13296
(dp13297
g16
g251
sbag5
(g6
g7
(lp13298
Vor
p13299
atp13300
Rp13301
(dp13302
g16
VCC
p13303
sbag5
(g6
g7
(lp13304
g5
(g6
g7
(lp13305
g5
(g6
g7
(lp13306
VLDA
p13307
atp13308
Rp13309
(dp13310
g16
VNNP
p13311
sbag5
(g6
g7
(lp13312
Vmodels
p13313
atp13314
Rp13315
(dp13316
g16
VNNS
p13317
sbatp13318
Rp13319
(dp13320
g16
VNP
p13321
sbag5
(g6
g7
(lp13322
g5
(g6
g7
(lp13323
g5
(g6
g7
(lp13324
Vwhere
p13325
atp13326
Rp13327
(dp13328
g16
VWRB
p13329
sbatp13330
Rp13331
(dp13332
g16
VWHADVP
p13333
sbag5
(g6
g7
(lp13334
g5
(g6
g7
(lp13335
g5
(g6
g7
(lp13336
Vdimensions
p13337
atp13338
Rp13339
(dp13340
g16
VNNS
p13341
sbatp13342
Rp13343
(dp13344
g16
VNP
p13345
sbag5
(g6
g7
(lp13346
g5
(g6
g7
(lp13347
Vcorrespond
p13348
atp13349
Rp13350
(dp13351
g16
VVB
p13352
sbag5
(g6
g7
(lp13353
g5
(g6
g7
(lp13354
Vto
p13355
atp13356
Rp13357
(dp13358
g16
VTO
p13359
sbag5
(g6
g7
(lp13360
g5
(g6
g7
(lp13361
Vlatent
p13362
atp13363
Rp13364
(dp13365
g16
VNN
p13366
sbag5
(g6
g7
(lp13367
Vtopics
p13368
atp13369
Rp13370
(dp13371
g16
VNNS
p13372
sbatp13373
Rp13374
(dp13375
g16
VNP
p13376
sbatp13377
Rp13378
(dp13379
g16
VPP
p13380
sbatp13381
Rp13382
(dp13383
g16
VVP
p13384
sbatp13385
Rp13386
(dp13387
g16
g87
sbatp13388
Rp13389
(dp13390
g16
VSBAR
p13391
sbatp13392
Rp13393
(dp13394
g16
VNP
p13395
sbatp13396
Rp13397
(dp13398
g16
VNP
p13399
sbatp13400
Rp13401
(dp13402
g16
VPP
p13403
sbatp13404
Rp13405
(dp13406
g16
VVP
p13407
sbatp13408
Rp13409
(dp13410
g16
g87
sbatp13411
Rp13412
(dp13413
g16
VSBAR
p13414
sbatp13415
Rp13416
(dp13417
g16
VNP
p13418
sbatp13419
Rp13420
(dp13421
g16
VPP
p13422
sbatp13423
Rp13424
(dp13425
g16
VVP
p13426
sbatp13427
Rp13428
(dp13429
g16
VVP
p13430
sbatp13431
Rp13432
(dp13433
g16
g87
sbatp13434
Rp13435
(dp13436
g16
VROOT
p13437
sbasg311
(icmyPackage
CorE
p13438
(dp13439
g314
(lp13440
(I0
I17
tp13441
a(I1
I34
tp13442
asg318
g5
(g6
g7
(lp13443
g13029
ag13039
ag13435
atp13444
Rp13445
(dp13446
g16
g323
sbsbsg324
(icmyPackage
CorE
p13447
(dp13448
g314
(lp13449
(I0
I0
tp13450
a(I0
I15
tp13451
asg318
g5
(g6
g7
(lp13452
g12866
ag12871
ag12881
ag12888
ag12895
ag12907
ag12914
ag12932
ag12939
ag12951
ag12958
ag12965
ag12983
atp13453
Rp13454
(dp13455
g16
g323
sbsbsg334
g335
sg358
(lp13456
(isxpPackage
sxpSent
p13457
(dp13458
g362
(lp13459
I32
asg364
VIn particular, we found that Deps perform dramatically worse than BoW contexts on analogy tasks as in [ 22 , 17 ]
p13460
sg366
I9
sg348
I123
sg367
I40
sba(isxpPackage
sxpSent
p13461
(dp13462
g362
(lp13463
I32
asg364
VNeural word embeddings are often considered opaque and uninterpretable, unlike sparse vector space representations in which each dimension corresponds to a particular known context, or LDA models where dimensions correspond to latent topics
p13464
sg366
I10
sg348
I124
sg367
I41
sbasba(icmyPackage
CELink
p13465
(dp13466
g3
(lp13467
g5
(g6
g7
(lp13468
g5
(g6
g7
(lp13469
g5
(g6
g7
(lp13470
g5
(g6
g7
(lp13471
VIf
p13472
atp13473
Rp13474
(dp13475
g16
VIN
p13476
sbag5
(g6
g7
(lp13477
g5
(g6
g7
(lp13478
g5
(g6
g7
(lp13479
Vwe
p13480
atp13481
Rp13482
(dp13483
g16
VPRP
p13484
sbatp13485
Rp13486
(dp13487
g16
VNP
p13488
sbag5
(g6
g7
(lp13489
g5
(g6
g7
(lp13490
Vkeep
p13491
atp13492
Rp13493
(dp13494
g16
VVBP
p13495
sbag5
(g6
g7
(lp13496
g5
(g6
g7
(lp13497
Vthe
p13498
atp13499
Rp13500
(dp13501
g16
VDT
p13502
sbag5
(g6
g7
(lp13503
Vcontext
p13504
atp13505
Rp13506
(dp13507
g16
VNN
p13508
sbag5
(g6
g7
(lp13509
Vembeddings
p13510
atp13511
Rp13512
(dp13513
g16
VNNS
p13514
sbatp13515
Rp13516
(dp13517
g16
VNP
p13518
sbatp13519
Rp13520
(dp13521
g16
VVP
p13522
sbatp13523
Rp13524
(dp13525
g16
g87
sbatp13526
Rp13527
(dp13528
g16
VSBAR
p13529
sbag5
(g6
g7
(lp13530
g251
atp13531
Rp13532
(dp13533
g16
g251
sbag5
(g6
g7
(lp13534
g5
(g6
g7
(lp13535
Vwe
p13536
atp13537
Rp13538
(dp13539
g16
VPRP
p13540
sbatp13541
Rp13542
(dp13543
g16
VNP
p13544
sbag5
(g6
g7
(lp13545
g5
(g6
g7
(lp13546
Vcan
p13547
atp13548
Rp13549
(dp13550
g16
VMD
p13551
sbag5
(g6
g7
(lp13552
g5
(g6
g7
(lp13553
Vquery
p13554
atp13555
Rp13556
(dp13557
g16
VVB
p13558
sbag5
(g6
g7
(lp13559
g5
(g6
g7
(lp13560
Vthe
p13561
atp13562
Rp13563
(dp13564
g16
VDT
p13565
sbag5
(g6
g7
(lp13566
Vmodel
p13567
atp13568
Rp13569
(dp13570
g16
VNN
p13571
sbatp13572
Rp13573
(dp13574
g16
VNP
p13575
sbag5
(g6
g7
(lp13576
g5
(g6
g7
(lp13577
Vfor
p13578
atp13579
Rp13580
(dp13581
g16
VIN
p13582
sbag5
(g6
g7
(lp13583
g5
(g6
g7
(lp13584
g5
(g6
g7
(lp13585
Vthe
p13586
atp13587
Rp13588
(dp13589
g16
VDT
p13590
sbag5
(g6
g7
(lp13591
Vcontexts
p13592
atp13593
Rp13594
(dp13595
g16
VNNS
p13596
sbatp13597
Rp13598
(dp13599
g16
VNP
p13600
sbag5
(g6
g7
(lp13601
g5
(g6
g7
(lp13602
g5
(g6
g7
(lp13603
Vthat
p13604
atp13605
Rp13606
(dp13607
g16
VWDT
p13608
sbatp13609
Rp13610
(dp13611
g16
VWHNP
p13612
sbag5
(g6
g7
(lp13613
g5
(g6
g7
(lp13614
g5
(g6
g7
(lp13615
Vare
p13616
atp13617
Rp13618
(dp13619
g16
VVBP
p13620
sbag5
(g6
g7
(lp13621
g5
(g6
g7
(lp13622
Vmost
p13623
atp13624
Rp13625
(dp13626
g16
VRBS
p13627
sbatp13628
Rp13629
(dp13630
g16
VADVP
p13631
sbag5
(g6
g7
(lp13632
g5
(g6
g7
(lp13633
Vactivated
p13634
atp13635
Rp13636
(dp13637
g16
VVBN
p13638
sbag5
(g6
g7
(lp13639
g5
(g6
g7
(lp13640
Vby
p13641
atp13642
Rp13643
(dp13644
g16
VIN
p13645
sbag5
(g6
g7
(lp13646
g5
(g6
g7
(lp13647
V-LRB-
p13648
atp13649
Rp13650
(dp13651
g16
V-LRB-
p13652
sbag5
(g6
g7
(lp13653
g5
(g6
g7
(lp13654
g5
(g6
g7
(lp13655
Vhave
p13656
atp13657
Rp13658
(dp13659
g16
VVB
p13660
sbag5
(g6
g7
(lp13661
g5
(g6
g7
(lp13662
g5
(g6
g7
(lp13663
Vthe
p13664
atp13665
Rp13666
(dp13667
g16
VDT
p13668
sbag5
(g6
g7
(lp13669
Vhighest
p13670
atp13671
Rp13672
(dp13673
g16
VJJS
p13674
sbag5
(g6
g7
(lp13675
Vdot
p13676
atp13677
Rp13678
(dp13679
g16
VNN
p13680
sbag5
(g6
g7
(lp13681
Vproduct
p13682
atp13683
Rp13684
(dp13685
g16
VNN
p13686
sbatp13687
Rp13688
(dp13689
g16
VNP
p13690
sbag5
(g6
g7
(lp13691
g5
(g6
g7
(lp13692
Vwith
p13693
atp13694
Rp13695
(dp13696
g16
VIN
p13697
sbatp13698
Rp13699
(dp13700
g16
VPP
p13701
sbatp13702
Rp13703
(dp13704
g16
VNP
p13705
sbatp13706
Rp13707
(dp13708
g16
VVP
p13709
sbatp13710
Rp13711
(dp13712
g16
g87
sbag5
(g6
g7
(lp13713
V-RRB-
p13714
atp13715
Rp13716
(dp13717
g16
V-RRB-
p13718
sbatp13719
Rp13720
(dp13721
g16
VPRN
p13722
sbag5
(g6
g7
(lp13723
g5
(g6
g7
(lp13724
g783
atp13725
Rp13726
(dp13727
g16
VDT
p13728
sbag5
(g6
g7
(lp13729
Vgiven
p13730
atp13731
Rp13732
(dp13733
g16
VJJ
p13734
sbag5
(g6
g7
(lp13735
Vtarget
p13736
atp13737
Rp13738
(dp13739
g16
VNN
p13740
sbag5
(g6
g7
(lp13741
Vword
p13742
atp13743
Rp13744
(dp13745
g16
VNN
p13746
sbatp13747
Rp13748
(dp13749
g16
VNP
p13750
sbatp13751
Rp13752
(dp13753
g16
VPP
p13754
sbatp13755
Rp13756
(dp13757
g16
VVP
p13758
sbatp13759
Rp13760
(dp13761
g16
VVP
p13762
sbatp13763
Rp13764
(dp13765
g16
g87
sbatp13766
Rp13767
(dp13768
g16
VSBAR
p13769
sbatp13770
Rp13771
(dp13772
g16
VNP
p13773
sbatp13774
Rp13775
(dp13776
g16
VPP
p13777
sbatp13778
Rp13779
(dp13780
g16
VVP
p13781
sbatp13782
Rp13783
(dp13784
g16
VVP
p13785
sbatp13786
Rp13787
(dp13788
g16
g87
sbatp13789
Rp13790
(dp13791
g16
VROOT
p13792
sbasg311
(icmyPackage
CorE
p13793
(dp13794
g314
(lp13795
(I0
I1
tp13796
a(I0
I5
tp13797
asg318
g13524
sbsg324
(icmyPackage
CorE
p13798
(dp13799
g314
(lp13800
(I0
I7
tp13801
a(I0
I31
tp13802
asg318
g5
(g6
g7
(lp13803
g13542
ag13783
atp13804
Rp13805
(dp13806
g16
g323
sbsbsg334
g1183
sg358
(lp13807
(isxpPackage
sxpSent
p13808
(dp13809
g362
(lp13810
I33
aI34
asg364
VIf we keep the context embeddings, we can query the model for the contexts that are most activated by (have the highest dot product with) a given target word
p13811
sg366
I10
sg348
I128
sg367
I42
sbasba(icmyPackage
CELink
p13812
(dp13813
g3
(lp13814
g13790
ag5
(g6
g7
(lp13815
g5
(g6
g7
(lp13816
g5
(g6
g7
(lp13817
g5
(g6
g7
(lp13818
VBy
p13819
atp13820
Rp13821
(dp13822
g16
VIN
p13823
sbag5
(g6
g7
(lp13824
g5
(g6
g7
(lp13825
g5
(g6
g7
(lp13826
Vdoing
p13827
atp13828
Rp13829
(dp13830
g16
VVBG
p13831
sbag5
(g6
g7
(lp13832
g5
(g6
g7
(lp13833
Vso
p13834
atp13835
Rp13836
(dp13837
g16
VRB
p13838
sbatp13839
Rp13840
(dp13841
g16
VADVP
p13842
sbatp13843
Rp13844
(dp13845
g16
VVP
p13846
sbatp13847
Rp13848
(dp13849
g16
g87
sbatp13850
Rp13851
(dp13852
g16
VPP
p13853
sbag5
(g6
g7
(lp13854
g251
atp13855
Rp13856
(dp13857
g16
g251
sbag5
(g6
g7
(lp13858
g5
(g6
g7
(lp13859
Vwe
p13860
atp13861
Rp13862
(dp13863
g16
VPRP
p13864
sbatp13865
Rp13866
(dp13867
g16
VNP
p13868
sbag5
(g6
g7
(lp13869
g5
(g6
g7
(lp13870
Vcan
p13871
atp13872
Rp13873
(dp13874
g16
VMD
p13875
sbag5
(g6
g7
(lp13876
g5
(g6
g7
(lp13877
Vsee
p13878
atp13879
Rp13880
(dp13881
g16
VVB
p13882
sbag5
(g6
g7
(lp13883
g5
(g6
g7
(lp13884
g5
(g6
g7
(lp13885
Vwhat
p13886
atp13887
Rp13888
(dp13889
g16
VWP
p13890
sbatp13891
Rp13892
(dp13893
g16
VWHNP
p13894
sbag5
(g6
g7
(lp13895
g5
(g6
g7
(lp13896
g5
(g6
g7
(lp13897
Vthe
p13898
atp13899
Rp13900
(dp13901
g16
VDT
p13902
sbag5
(g6
g7
(lp13903
Vmodel
p13904
atp13905
Rp13906
(dp13907
g16
VNN
p13908
sbatp13909
Rp13910
(dp13911
g16
VNP
p13912
sbag5
(g6
g7
(lp13913
g5
(g6
g7
(lp13914
Vlearned
p13915
atp13916
Rp13917
(dp13918
g16
VVBD
p13919
sbag5
(g6
g7
(lp13920
g5
(g6
g7
(lp13921
g5
(g6
g7
(lp13922
Vto
p13923
atp13924
Rp13925
(dp13926
g16
VTO
p13927
sbag5
(g6
g7
(lp13928
g5
(g6
g7
(lp13929
Vbe
p13930
atp13931
Rp13932
(dp13933
g16
VVB
p13934
sbag5
(g6
g7
(lp13935
g5
(g6
g7
(lp13936
g5
(g6
g7
(lp13937
g783
atp13938
Rp13939
(dp13940
g16
VDT
p13941
sbag5
(g6
g7
(lp13942
Vgood
p13943
atp13944
Rp13945
(dp13946
g16
VJJ
p13947
sbag5
(g6
g7
(lp13948
Vdiscriminative
p13949
atp13950
Rp13951
(dp13952
g16
VNN
p13953
sbag5
(g6
g7
(lp13954
Vcontext
p13955
atp13956
Rp13957
(dp13958
g16
VNN
p13959
sbatp13960
Rp13961
(dp13962
g16
VNP
p13963
sbag5
(g6
g7
(lp13964
g5
(g6
g7
(lp13965
Vfor
p13966
atp13967
Rp13968
(dp13969
g16
VIN
p13970
sbag5
(g6
g7
(lp13971
g5
(g6
g7
(lp13972
Vthe
p13973
atp13974
Rp13975
(dp13976
g16
VDT
p13977
sbag5
(g6
g7
(lp13978
Vword
p13979
atp13980
Rp13981
(dp13982
g16
VNN
p13983
sbatp13984
Rp13985
(dp13986
g16
VNP
p13987
sbatp13988
Rp13989
(dp13990
g16
VPP
p13991
sbatp13992
Rp13993
(dp13994
g16
VNP
p13995
sbatp13996
Rp13997
(dp13998
g16
VVP
p13999
sbatp14000
Rp14001
(dp14002
g16
VVP
p14003
sbatp14004
Rp14005
(dp14006
g16
g87
sbatp14007
Rp14008
(dp14009
g16
VVP
p14010
sbatp14011
Rp14012
(dp14013
g16
g87
sbatp14014
Rp14015
(dp14016
g16
VSBAR
p14017
sbatp14018
Rp14019
(dp14020
g16
VVP
p14021
sbatp14022
Rp14023
(dp14024
g16
VVP
p14025
sbatp14026
Rp14027
(dp14028
g16
g87
sbatp14029
Rp14030
(dp14031
g16
VROOT
p14032
sbasg311
(icmyPackage
CorE
p14033
(dp14034
g314
(lp14035
(I0
I1
tp14036
a(I1
I1
tp14037
asg318
g5
(g6
g7
(lp14038
g13524
ag13532
ag13542
ag13783
ag13821
ag13829
atp14039
Rp14040
(dp14041
g16
g323
sbsbsg324
(icmyPackage
CorE
p14042
(dp14043
g314
(lp14044
(I1
I4
tp14045
a(I1
I19
tp14046
asg318
g5
(g6
g7
(lp14047
g13866
ag14023
atp14048
Rp14049
(dp14050
g16
g323
sbsbsg334
(icmyPackage
pattern
p14051
(dp14052
g337
I265
sg338
I1
sg339
(lp14053
(lp14054
S'so'
p14055
aasg343
(lp14056
I1
aI1
aI1
asg345
(lp14057
S'It was not long before he saw me looking at him, and so he began to move.'
p14058
asg348
I0
sg349
(lp14059
(lp14060
S'&C'
p14061
aS'(,/;/./--)'
p14062
aS'(&AND)'
p14063
aa(lp14064
S'(-far)'
p14065
aS'(,)'
p14066
aS'&R'
p14067
aasbsg358
(lp14068
g13808
a(isxpPackage
sxpSent
p14069
(dp14070
g362
(lp14071
I34
asg364
VBy doing so, we can see what the model learned to be a good discriminative context for the word
p14072
sg366
I10
sg348
I129
sg367
I42
sbasba(icmyPackage
CELink
p14073
(dp14074
g3
(lp14075
g5
(g6
g7
(lp14076
g5
(g6
g7
(lp14077
g5
(g6
g7
(lp14078
g5
(g6
g7
(lp14079
VAdditionally
p14080
atp14081
Rp14082
(dp14083
g16
VRB
p14084
sbatp14085
Rp14086
(dp14087
g16
VADVP
p14088
sbag5
(g6
g7
(lp14089
g251
atp14090
Rp14091
(dp14092
g16
g251
sbag5
(g6
g7
(lp14093
g5
(g6
g7
(lp14094
Vthe
p14095
atp14096
Rp14097
(dp14098
g16
VDT
p14099
sbag5
(g6
g7
(lp14100
Vcollapsed
p14101
atp14102
Rp14103
(dp14104
g16
VJJ
p14105
sbag5
(g6
g7
(lp14106
Vpreposition
p14107
atp14108
Rp14109
(dp14110
g16
VNN
p14111
sbag5
(g6
g7
(lp14112
Vrelation
p14113
atp14114
Rp14115
(dp14116
g16
VNN
p14117
sbatp14118
Rp14119
(dp14120
g16
VNP
p14121
sbag5
(g6
g7
(lp14122
g5
(g6
g7
(lp14123
Vis
p14124
atp14125
Rp14126
(dp14127
g16
VVBZ
p14128
sbag5
(g6
g7
(lp14129
g5
(g6
g7
(lp14130
g5
(g6
g7
(lp14131
Vvery
p14132
atp14133
Rp14134
(dp14135
g16
VJJ
p14136
sbatp14137
Rp14138
(dp14139
g16
VADVP
p14140
sbag5
(g6
g7
(lp14141
Vuseful
p14142
atp14143
Rp14144
(dp14145
g16
VVBG
p14146
sbag5
(g6
g7
(lp14147
V-LRB-
p14148
atp14149
Rp14150
(dp14151
g16
V-LRB-
p14152
sbag5
(g6
g7
(lp14153
g5
(g6
g7
(lp14154
g5
(g6
g7
(lp14155
Ve.g.
p14156
atp14157
Rp14158
(dp14159
g16
VNNP
p14160
sbatp14161
Rp14162
(dp14163
g16
VNP
p14164
sbag5
(g6
g7
(lp14165
g251
atp14166
Rp14167
(dp14168
g16
g251
sbag5
(g6
g7
(lp14169
g5
(g6
g7
(lp14170
Vfor
p14171
atp14172
Rp14173
(dp14174
g16
VIN
p14175
sbag5
(g6
g7
(lp14176
g5
(g6
g7
(lp14177
g5
(g6
g7
(lp14178
Vcapturing
p14179
atp14180
Rp14181
(dp14182
g16
VVBG
p14183
sbag5
(g6
g7
(lp14184
g5
(g6
g7
(lp14185
g5
(g6
g7
(lp14186
Vthe
p14187
atp14188
Rp14189
(dp14190
g16
VDT
p14191
sbag5
(g6
g7
(lp14192
Vschool
p14193
atp14194
Rp14195
(dp14196
g16
VNN
p14197
sbag5
(g6
g7
(lp14198
Vaspect
p14199
atp14200
Rp14201
(dp14202
g16
VNN
p14203
sbatp14204
Rp14205
(dp14206
g16
VNP
p14207
sbag5
(g6
g7
(lp14208
g5
(g6
g7
(lp14209
Vof
p14210
atp14211
Rp14212
(dp14213
g16
VIN
p14214
sbag5
(g6
g7
(lp14215
g5
(g6
g7
(lp14216
Vhogwarts
p14217
atp14218
Rp14219
(dp14220
g16
VNNS
p14221
sbatp14222
Rp14223
(dp14224
g16
VNP
p14225
sbatp14226
Rp14227
(dp14228
g16
VPP
p14229
sbatp14230
Rp14231
(dp14232
g16
VNP
p14233
sbatp14234
Rp14235
(dp14236
g16
VVP
p14237
sbatp14238
Rp14239
(dp14240
g16
g87
sbatp14241
Rp14242
(dp14243
g16
VPP
p14244
sbatp14245
Rp14246
(dp14247
g16
VNP
p14248
sbatp14249
Rp14250
(dp14251
g16
VVP
p14252
sbatp14253
Rp14254
(dp14255
g16
VVP
p14256
sbatp14257
Rp14258
(dp14259
g16
g87
sbatp14260
Rp14261
(dp14262
g16
VROOT
p14263
sbasg311
(icmyPackage
CorE
p14264
(dp14265
g314
(lp14266
(I0
I13
tp14267
a(I0
I18
tp14268
asg318
g14239
sbsg324
(icmyPackage
CorE
p14269
(dp14270
g314
(lp14271
(I0
I0
tp14272
a(I0
I11
tp14273
asg318
g5
(g6
g7
(lp14274
g14086
ag14091
ag14119
ag14126
ag14138
ag14144
ag14150
ag14162
ag14167
atp14275
Rp14276
(dp14277
g16
g323
sbsbsg334
g8652
sg358
(lp14278
(isxpPackage
sxpSent
p14279
(dp14280
g362
(lp14281
I35
asg364
VAdditionally, the collapsed preposition relation is very useful (e.g., for capturing the school aspect of hogwarts
p14282
sg366
I10
sg348
I132
sg367
I43
sbasba(icmyPackage
CELink
p14283
(dp14284
g3
(lp14285
g5
(g6
g7
(lp14286
g5
(g6
g7
(lp14287
g5
(g6
g7
(lp14288
g5
(g6
g7
(lp14289
VIn
p14290
atp14291
Rp14292
(dp14293
g16
VIN
p14294
sbag5
(g6
g7
(lp14295
g5
(g6
g7
(lp14296
Vthe
p14297
atp14298
Rp14299
(dp14300
g16
VDT
p14301
sbag5
(g6
g7
(lp14302
Vfuture
p14303
atp14304
Rp14305
(dp14306
g16
VNN
p14307
sbatp14308
Rp14309
(dp14310
g16
VNP
p14311
sbatp14312
Rp14313
(dp14314
g16
VPP
p14315
sbag5
(g6
g7
(lp14316
g251
atp14317
Rp14318
(dp14319
g16
g251
sbag5
(g6
g7
(lp14320
g5
(g6
g7
(lp14321
Vwe
p14322
atp14323
Rp14324
(dp14325
g16
VPRP
p14326
sbatp14327
Rp14328
(dp14329
g16
VNP
p14330
sbag5
(g6
g7
(lp14331
g5
(g6
g7
(lp14332
Vhope
p14333
atp14334
Rp14335
(dp14336
g16
VVBP
p14337
sbag5
(g6
g7
(lp14338
g5
(g6
g7
(lp14339
Vthat
p14340
atp14341
Rp14342
(dp14343
g16
VIN
p14344
sbag5
(g6
g7
(lp14345
g5
(g6
g7
(lp14346
g5
(g6
g7
(lp14347
g5
(g6
g7
(lp14348
Vinsights
p14349
atp14350
Rp14351
(dp14352
g16
VNNS
p14353
sbatp14354
Rp14355
(dp14356
g16
VNP
p14357
sbag5
(g6
g7
(lp14358
g5
(g6
g7
(lp14359
Vfrom
p14360
atp14361
Rp14362
(dp14363
g16
VIN
p14364
sbag5
(g6
g7
(lp14365
g5
(g6
g7
(lp14366
Vsuch
p14367
atp14368
Rp14369
(dp14370
g16
VJJ
p14371
sbag5
(g6
g7
(lp14372
Vmodel
p14373
atp14374
Rp14375
(dp14376
g16
VNN
p14377
sbag5
(g6
g7
(lp14378
Vintrospection
p14379
atp14380
Rp14381
(dp14382
g16
VNN
p14383
sbatp14384
Rp14385
(dp14386
g16
VNP
p14387
sbatp14388
Rp14389
(dp14390
g16
VPP
p14391
sbatp14392
Rp14393
(dp14394
g16
VNP
p14395
sbag5
(g6
g7
(lp14396
g5
(g6
g7
(lp14397
Vwill
p14398
atp14399
Rp14400
(dp14401
g16
VMD
p14402
sbag5
(g6
g7
(lp14403
g5
(g6
g7
(lp14404
Vallow
p14405
atp14406
Rp14407
(dp14408
g16
VVB
p14409
sbag5
(g6
g7
(lp14410
g5
(g6
g7
(lp14411
g5
(g6
g7
(lp14412
Vus
p14413
atp14414
Rp14415
(dp14416
g16
VPRP
p14417
sbatp14418
Rp14419
(dp14420
g16
VNP
p14421
sbag5
(g6
g7
(lp14422
g5
(g6
g7
(lp14423
Vto
p14424
atp14425
Rp14426
(dp14427
g16
VTO
p14428
sbag5
(g6
g7
(lp14429
g5
(g6
g7
(lp14430
Vdevelop
p14431
atp14432
Rp14433
(dp14434
g16
VVB
p14435
sbag5
(g6
g7
(lp14436
g5
(g6
g7
(lp14437
Vbetter
p14438
atp14439
Rp14440
(dp14441
g16
VJJR
p14442
sbag5
(g6
g7
(lp14443
Vcontexts
p14444
atp14445
Rp14446
(dp14447
g16
VNNS
p14448
sbatp14449
Rp14450
(dp14451
g16
VNP
p14452
sbatp14453
Rp14454
(dp14455
g16
VVP
p14456
sbatp14457
Rp14458
(dp14459
g16
VVP
p14460
sbatp14461
Rp14462
(dp14463
g16
g87
sbag5
(g6
g7
(lp14464
g251
atp14465
Rp14466
(dp14467
g16
g251
sbag5
(g6
g7
(lp14468
g5
(g6
g7
(lp14469
g5
(g6
g7
(lp14470
Vby
p14471
atp14472
Rp14473
(dp14474
g16
VIN
p14475
sbag5
(g6
g7
(lp14476
g5
(g6
g7
(lp14477
g5
(g6
g7
(lp14478
Vfocusing
p14479
atp14480
Rp14481
(dp14482
g16
VVBG
p14483
sbag5
(g6
g7
(lp14484
g5
(g6
g7
(lp14485
Von
p14486
atp14487
Rp14488
(dp14489
g16
VIN
p14490
sbag5
(g6
g7
(lp14491
g5
(g6
g7
(lp14492
Vconjunctions
p14493
atp14494
Rp14495
(dp14496
g16
VNNS
p14497
sbag5
(g6
g7
(lp14498
Vand
p14499
atp14500
Rp14501
(dp14502
g16
VCC
p14503
sbag5
(g6
g7
(lp14504
Vprepositions
p14505
atp14506
Rp14507
(dp14508
g16
VNNS
p14509
sbatp14510
Rp14511
(dp14512
g16
VNP
p14513
sbatp14514
Rp14515
(dp14516
g16
VPP
p14517
sbag5
(g6
g7
(lp14518
g5
(g6
g7
(lp14519
Vfor
p14520
atp14521
Rp14522
(dp14523
g16
VIN
p14524
sbag5
(g6
g7
(lp14525
g5
(g6
g7
(lp14526
Vexample
p14527
atp14528
Rp14529
(dp14530
g16
VNN
p14531
sbatp14532
Rp14533
(dp14534
g16
VNP
p14535
sbatp14536
Rp14537
(dp14538
g16
VPP
p14539
sbatp14540
Rp14541
(dp14542
g16
VVP
p14543
sbatp14544
Rp14545
(dp14546
g16
g87
sbatp14547
Rp14548
(dp14549
g16
VPP
p14550
sbag5
(g6
g7
(lp14551
g251
atp14552
Rp14553
(dp14554
g16
g251
sbag5
(g6
g7
(lp14555
Vor
p14556
atp14557
Rp14558
(dp14559
g16
VCC
p14560
sbag5
(g6
g7
(lp14561
g5
(g6
g7
(lp14562
Vby
p14563
atp14564
Rp14565
(dp14566
g16
VIN
p14567
sbag5
(g6
g7
(lp14568
g5
(g6
g7
(lp14569
g5
(g6
g7
(lp14570
g5
(g6
g7
(lp14571
Vtrying
p14572
atp14573
Rp14574
(dp14575
g16
VVBG
p14576
sbag5
(g6
g7
(lp14577
g5
(g6
g7
(lp14578
g5
(g6
g7
(lp14579
Vto
p14580
atp14581
Rp14582
(dp14583
g16
VTO
p14584
sbag5
(g6
g7
(lp14585
g5
(g6
g7
(lp14586
Vfigure
p14587
atp14588
Rp14589
(dp14590
g16
VVB
p14591
sbag5
(g6
g7
(lp14592
g5
(g6
g7
(lp14593
Vout
p14594
atp14595
Rp14596
(dp14597
g16
VRP
p14598
sbatp14599
Rp14600
(dp14601
g16
VPRT
p14602
sbag5
(g6
g7
(lp14603
g5
(g6
g7
(lp14604
g5
(g6
g7
(lp14605
Vwhy
p14606
atp14607
Rp14608
(dp14609
g16
VWRB
p14610
sbatp14611
Rp14612
(dp14613
g16
VWHADVP
p14614
sbag5
(g6
g7
(lp14615
g5
(g6
g7
(lp14616
g5
(g6
g7
(lp14617
Vthe
p14618
atp14619
Rp14620
(dp14621
g16
VDT
p14622
sbag5
(g6
g7
(lp14623
Vsubject
p14624
atp14625
Rp14626
(dp14627
g16
VNN
p14628
sbag5
(g6
g7
(lp14629
Vand
p14630
atp14631
Rp14632
(dp14633
g16
VCC
p14634
sbag5
(g6
g7
(lp14635
Vobject
p14636
atp14637
Rp14638
(dp14639
g16
VNN
p14640
sbag5
(g6
g7
(lp14641
Vrelations
p14642
atp14643
Rp14644
(dp14645
g16
VNNS
p14646
sbatp14647
Rp14648
(dp14649
g16
VNP
p14650
sbag5
(g6
g7
(lp14651
g5
(g6
g7
(lp14652
Vare
p14653
atp14654
Rp14655
(dp14656
g16
VVBP
p14657
sbag5
(g6
g7
(lp14658
g5
(g6
g7
(lp14659
Vabsent
p14660
atp14661
Rp14662
(dp14663
g16
VJJ
p14664
sbatp14665
Rp14666
(dp14667
g16
VADJP
p14668
sbatp14669
Rp14670
(dp14671
g16
VVP
p14672
sbatp14673
Rp14674
(dp14675
g16
g87
sbatp14676
Rp14677
(dp14678
g16
VSBAR
p14679
sbatp14680
Rp14681
(dp14682
g16
VVP
p14683
sbatp14684
Rp14685
(dp14686
g16
VVP
p14687
sbatp14688
Rp14689
(dp14690
g16
g87
sbatp14691
Rp14692
(dp14693
g16
VVP
p14694
sbag5
(g6
g7
(lp14695
Vand
p14696
atp14697
Rp14698
(dp14699
g16
VCC
p14700
sbag5
(g6
g7
(lp14701
g5
(g6
g7
(lp14702
Vfinding
p14703
atp14704
Rp14705
(dp14706
g16
VVBG
p14707
sbag5
(g6
g7
(lp14708
g5
(g6
g7
(lp14709
g5
(g6
g7
(lp14710
Vways
p14711
atp14712
Rp14713
(dp14714
g16
VNNS
p14715
sbatp14716
Rp14717
(dp14718
g16
VNP
p14719
sbag5
(g6
g7
(lp14720
g5
(g6
g7
(lp14721
Vof
p14722
atp14723
Rp14724
(dp14725
g16
VIN
p14726
sbag5
(g6
g7
(lp14727
g5
(g6
g7
(lp14728
g5
(g6
g7
(lp14729
Vincreasing
p14730
atp14731
Rp14732
(dp14733
g16
VVBG
p14734
sbag5
(g6
g7
(lp14735
g5
(g6
g7
(lp14736
Vtheir
p14737
atp14738
Rp14739
(dp14740
g16
VPRP$
p14741
sbag5
(g6
g7
(lp14742
Vcontributions
p14743
atp14744
Rp14745
(dp14746
g16
VNNS
p14747
sbatp14748
Rp14749
(dp14750
g16
VNP
p14751
sbatp14752
Rp14753
(dp14754
g16
VVP
p14755
sbatp14756
Rp14757
(dp14758
g16
g87
sbatp14759
Rp14760
(dp14761
g16
VPP
p14762
sbatp14763
Rp14764
(dp14765
g16
VNP
p14766
sbatp14767
Rp14768
(dp14769
g16
VVP
p14770
sbatp14771
Rp14772
(dp14773
g16
VVP
p14774
sbatp14775
Rp14776
(dp14777
g16
g87
sbatp14778
Rp14779
(dp14780
g16
VPP
p14781
sbatp14782
Rp14783
(dp14784
g16
VPP
p14785
sbatp14786
Rp14787
(dp14788
g16
VVP
p14789
sbatp14790
Rp14791
(dp14792
g16
VVP
p14793
sbatp14794
Rp14795
(dp14796
g16
g87
sbatp14797
Rp14798
(dp14799
g16
VSBAR
p14800
sbatp14801
Rp14802
(dp14803
g16
VVP
p14804
sbatp14805
Rp14806
(dp14807
g16
g87
sbatp14808
Rp14809
(dp14810
g16
VROOT
p14811
sbasg311
(icmyPackage
CorE
p14812
(dp14813
g314
(lp14814
(I0
I21
tp14815
a(I0
I27
tp14816
asg318
g14545
sbsg324
(icmyPackage
CorE
p14817
(dp14818
g314
(lp14819
(I0
I28
tp14820
a(I0
I48
tp14821
asg318
g5
(g6
g7
(lp14822
g14553
ag14558
ag14565
ag14692
ag14698
ag14705
ag14717
ag14724
ag14732
ag14739
atp14823
Rp14824
(dp14825
g16
g323
sbsbsg334
g5853
sg358
(lp14826
(isxpPackage
sxpSent
p14827
(dp14828
g362
(lp14829
I36
asg364
VIn the future, we hope that insights from such model introspection will allow us to develop better contexts, by focusing on conjunctions and prepositions for example, or by trying to figure out why the subject and object relations are absent and finding ways of increasing their contributions
p14830
sg366
I10
sg348
I134
sg367
I44
sbasba.