(lp0
(icmyPackage
CELink
p1
(dp2
S'PTreelst'
p3
(lp4
ccopy_reg
_reconstructor
p5
(cnltk.tree
Tree
p6
c__builtin__
list
p7
(lp8
g5
(g6
g7
(lp9
g5
(g6
g7
(lp10
g5
(g6
g7
(lp11
VBecause
p12
atp13
Rp14
(dp15
S'_label'
p16
VIN
p17
sbag5
(g6
g7
(lp18
g5
(g6
g7
(lp19
g5
(g6
g7
(lp20
Vthis
p21
atp22
Rp23
(dp24
g16
VDT
p25
sbatp26
Rp27
(dp28
g16
VNP
p29
sbag5
(g6
g7
(lp30
g5
(g6
g7
(lp31
Vis
p32
atp33
Rp34
(dp35
g16
VVBZ
p36
sbag5
(g6
g7
(lp37
g5
(g6
g7
(lp38
Vtime
p39
atp40
Rp41
(dp42
g16
VNN
p43
sbag5
(g6
g7
(lp44
Vconsuming
p45
atp46
Rp47
(dp48
g16
VNN
p49
sbatp50
Rp51
(dp52
g16
VNP
p53
sbatp54
Rp55
(dp56
g16
VVP
p57
sbatp58
Rp59
(dp60
g16
VS
p61
sbatp62
Rp63
(dp64
g16
VSBAR
p65
sbag5
(g6
g7
(lp66
V,
p67
atp68
Rp69
(dp70
g16
g67
sbag5
(g6
g7
(lp71
g5
(g6
g7
(lp72
Vtutors
p73
atp74
Rp75
(dp76
g16
VVBZ
p77
sbag5
(g6
g7
(lp78
g5
(g6
g7
(lp79
Voften
p80
atp81
Rp82
(dp83
g16
VRB
p84
sbatp85
Rp86
(dp87
g16
VADVP
p88
sbag5
(g6
g7
(lp89
g5
(g6
g7
(lp90
Vjust
p91
atp92
Rp93
(dp94
g16
VRB
p95
sbatp96
Rp97
(dp98
g16
VADVP
p99
sbag5
(g6
g7
(lp100
g5
(g6
g7
(lp101
Vrewrite
p102
atp103
Rp104
(dp105
g16
VVB
p106
sbag5
(g6
g7
(lp107
g5
(g6
g7
(lp108
Vthe
p109
atp110
Rp111
(dp112
g16
VDT
p113
sbag5
(g6
g7
(lp114
Vsentences
p115
atp116
Rp117
(dp118
g16
VNNS
p119
sbatp120
Rp121
(dp122
g16
VNP
p123
sbag5
(g6
g7
(lp124
g5
(g6
g7
(lp125
Vwithout
p126
atp127
Rp128
(dp129
g16
VIN
p130
sbag5
(g6
g7
(lp131
g5
(g6
g7
(lp132
g5
(g6
g7
(lp133
Vgiving
p134
atp135
Rp136
(dp137
g16
VVBG
p138
sbag5
(g6
g7
(lp139
g5
(g6
g7
(lp140
Vany
p141
atp142
Rp143
(dp144
g16
VDT
p145
sbag5
(g6
g7
(lp146
Vexplanations
p147
atp148
Rp149
(dp150
g16
VNNS
p151
sbatp152
Rp153
(dp154
g16
VNP
p155
sbag5
(g6
g7
(lp156
g5
(g6
g7
(lp157
V-LSB-
p158
atp159
Rp160
(dp161
g16
VNNS
p162
sbatp163
Rp164
(dp165
g16
VNP
p166
sbatp167
Rp168
(dp169
g16
VVP
p170
sbatp171
Rp172
(dp173
g16
g61
sbatp174
Rp175
(dp176
g16
VPP
p177
sbatp178
Rp179
(dp180
g16
VVP
p181
sbatp182
Rp183
(dp184
g16
VVP
p185
sbag5
(g6
g7
(lp186
g5
(g6
g7
(lp187
V5
p188
atp189
Rp190
(dp191
g16
VCD
p192
sbag5
(g6
g7
(lp193
V-RSB-
p194
atp195
Rp196
(dp197
g16
VNN
p198
sbatp199
Rp200
(dp201
g16
VNP
p202
sbatp203
Rp204
(dp205
g16
VSINV
p206
sbatp207
Rp208
(dp209
g16
VROOT
p210
sbasS'cause'
p211
(icmyPackage
CorE
p212
(dp213
S'span'
p214
(lp215
(I0
I1
tp216
a(I0
I4
tp217
asS'PTree'
p218
g59
sbsS'effect'
p219
(icmyPackage
CorE
p220
(dp221
g214
(lp222
(I0
I6
tp223
a(I0
I18
tp224
asg218
g5
(g6
g7
(lp225
g183
ag200
atp226
Rp227
(dp228
g16
S'ROOT'
p229
sbsbsS'pt'
p230
(icmyPackage
pattern
p231
(dp232
S'pfreq'
p233
I18
sS'moresent'
p234
I0
sS'main_token'
p235
(lp236
(lp237
S'because'
p238
aa(lp239
S','
p240
aasS'ptype'
p241
(lp242
I3
aI1
aI1
asS'cases'
p243
(lp244
S'Because he was absent for two weeks, the other students in his class are ahead of him.'
p245
asS'id'
p246
I75
sS'constraints'
p247
(lp248
(lp249
a(lp250
S'&C'
p251
aa(lp252
S'&R'
p253
aasbsS'sInfo'
p254
(lp255
(isxpPackage
sxpSent
p256
(dp257
S'sysCEidlst'
p258
(lp259
I0
asS'sentence_text'
p260
VBecause this is time consuming, tutors often just rewrite the sentences without giving any explanations [ 5 ]
p261
sS'id_sec'
p262
I2
sg246
I5
sS'id_para'
p263
I1
sbasba(icmyPackage
CELink
p264
(dp265
g3
(lp266
g5
(g6
g7
(lp267
g5
(g6
g7
(lp268
g5
(g6
g7
(lp269
g5
(g6
g7
(lp270
g5
(g6
g7
(lp271
VDue
p272
atp273
Rp274
(dp275
g16
VJJ
p276
sbag5
(g6
g7
(lp277
Vto
p278
atp279
Rp280
(dp281
g16
VTO
p282
sbag5
(g6
g7
(lp283
g5
(g6
g7
(lp284
g5
(g6
g7
(lp285
Vthe
p286
atp287
Rp288
(dp289
g16
VDT
p290
sbag5
(g6
g7
(lp291
Veffort
p292
atp293
Rp294
(dp295
g16
VNN
p296
sbatp297
Rp298
(dp299
g16
VNP
p300
sbag5
(g6
g7
(lp301
g5
(g6
g7
(lp302
Vinvolved
p303
atp304
Rp305
(dp306
g16
VVBN
p307
sbag5
(g6
g7
(lp308
g5
(g6
g7
(lp309
Vin
p310
atp311
Rp312
(dp313
g16
VIN
p314
sbag5
(g6
g7
(lp315
g5
(g6
g7
(lp316
g5
(g6
g7
(lp317
Vcomparing
p318
atp319
Rp320
(dp321
g16
VVBG
p322
sbag5
(g6
g7
(lp323
g5
(g6
g7
(lp324
Vrevisions
p325
atp326
Rp327
(dp328
g16
VNNS
p329
sbatp330
Rp331
(dp332
g16
VNP
p333
sbag5
(g6
g7
(lp334
g5
(g6
g7
(lp335
Vwith
p336
atp337
Rp338
(dp339
g16
VIN
p340
sbag5
(g6
g7
(lp341
g5
(g6
g7
(lp342
Vthe
p343
atp344
Rp345
(dp346
g16
VDT
p347
sbag5
(g6
g7
(lp348
Voriginal
p349
atp350
Rp351
(dp352
g16
VJJ
p353
sbag5
(g6
g7
(lp354
Vtexts
p355
atp356
Rp357
(dp358
g16
VNNS
p359
sbatp360
Rp361
(dp362
g16
VNP
p363
sbatp364
Rp365
(dp366
g16
VPP
p367
sbatp368
Rp369
(dp370
g16
VVP
p371
sbatp372
Rp373
(dp374
g16
g61
sbatp375
Rp376
(dp377
g16
VPP
p378
sbatp379
Rp380
(dp381
g16
VVP
p382
sbatp383
Rp384
(dp385
g16
VNP
p386
sbatp387
Rp388
(dp389
g16
VPP
p390
sbag5
(g6
g7
(lp391
g67
atp392
Rp393
(dp394
g16
g67
sbag5
(g6
g7
(lp395
g5
(g6
g7
(lp396
Vstudents
p397
atp398
Rp399
(dp400
g16
VNNS
p401
sbatp402
Rp403
(dp404
g16
VNP
p405
sbag5
(g6
g7
(lp406
g5
(g6
g7
(lp407
Voften
p408
atp409
Rp410
(dp411
g16
VRB
p412
sbatp413
Rp414
(dp415
g16
VADVP
p416
sbag5
(g6
g7
(lp417
g5
(g6
g7
(lp418
Vfail
p419
atp420
Rp421
(dp422
g16
VVBP
p423
sbag5
(g6
g7
(lp424
g5
(g6
g7
(lp425
g5
(g6
g7
(lp426
Vto
p427
atp428
Rp429
(dp430
g16
VTO
p431
sbag5
(g6
g7
(lp432
g5
(g6
g7
(lp433
Vlearn
p434
atp435
Rp436
(dp437
g16
VVB
p438
sbag5
(g6
g7
(lp439
g5
(g6
g7
(lp440
Vfrom
p441
atp442
Rp443
(dp444
g16
VIN
p445
sbag5
(g6
g7
(lp446
g5
(g6
g7
(lp447
Vthese
p448
atp449
Rp450
(dp451
g16
VDT
p452
sbag5
(g6
g7
(lp453
Vrevisions
p454
atp455
Rp456
(dp457
g16
VNNS
p458
sbatp459
Rp460
(dp461
g16
VNP
p462
sbatp463
Rp464
(dp465
g16
VPP
p466
sbatp467
Rp468
(dp469
g16
VVP
p470
sbatp471
Rp472
(dp473
g16
VVP
p474
sbatp475
Rp476
(dp477
g16
g61
sbatp478
Rp479
(dp480
g16
VVP
p481
sbatp482
Rp483
(dp484
g16
g61
sbag5
(g6
g7
(lp485
g5
(g6
g7
(lp486
V-LSB-
p487
atp488
Rp489
(dp490
g16
VVBZ
p491
sbatp492
Rp493
(dp494
g16
VVP
p495
sbag5
(g6
g7
(lp496
g5
(g6
g7
(lp497
V16
p498
atp499
Rp500
(dp501
g16
VCD
p502
sbag5
(g6
g7
(lp503
V-RSB-
p504
atp505
Rp506
(dp507
g16
VNN
p508
sbatp509
Rp510
(dp511
g16
VNP
p512
sbatp513
Rp514
(dp515
g16
VSINV
p516
sbatp517
Rp518
(dp519
g16
VROOT
p520
sbasg211
(icmyPackage
CorE
p521
(dp522
g214
(lp523
(I0
I2
tp524
a(I0
I11
tp525
asg218
g384
sbsg219
(icmyPackage
CorE
p526
(dp527
g214
(lp528
(I0
I13
tp529
a(I0
I23
tp530
asg218
g5
(g6
g7
(lp531
g403
ag414
ag479
ag493
ag510
atp532
Rp533
(dp534
g16
g229
sbsbsg230
(icmyPackage
pattern
p535
(dp536
g233
I0
sg234
I0
sg235
(lp537
(lp538
S'due'
p539
aS'to'
p540
aasg241
(lp541
I2
aI1
aI1
asg243
(lp542
S'Due to limitations in size and legal rules, our efforts did not blossom'
p543
asg246
I71
sg247
(lp544
(lp545
a(lp546
S'&NP@C@'
p547
aS'(,)'
p548
aS'&R'
p549
aasbsg254
(lp550
(isxpPackage
sxpSent
p551
(dp552
g258
(lp553
I1
asg260
VDue to the effort involved in comparing revisions with the original texts, students often fail to learn from these revisions [ 16 ]
p554
sg262
I2
sg246
I6
sg263
I1
sbasba(icmyPackage
CELink
p555
(dp556
g3
(lp557
g5
(g6
g7
(lp558
g5
(g6
g7
(lp559
g5
(g6
g7
(lp560
g5
(g6
g7
(lp561
VComputer
p562
atp563
Rp564
(dp565
g16
VNNP
p566
sbatp567
Rp568
(dp569
g16
VNP
p570
sbag5
(g6
g7
(lp571
g5
(g6
g7
(lp572
Vaided
p573
atp574
Rp575
(dp576
g16
VVBD
p577
sbag5
(g6
g7
(lp578
g5
(g6
g7
(lp579
g5
(g6
g7
(lp580
g5
(g6
g7
(lp581
Vlanguage
p582
atp583
Rp584
(dp585
g16
VNN
p586
sbag5
(g6
g7
(lp587
Vlearning
p588
atp589
Rp590
(dp591
g16
VNN
p592
sbag5
(g6
g7
(lp593
Vtools
p594
atp595
Rp596
(dp597
g16
VNNS
p598
sbatp599
Rp600
(dp601
g16
VNP
p602
sbag5
(g6
g7
(lp603
g5
(g6
g7
(lp604
Voffer
p605
atp606
Rp607
(dp608
g16
VVBP
p609
sbag5
(g6
g7
(lp610
g5
(g6
g7
(lp611
Va
p612
atp613
Rp614
(dp615
g16
VDT
p616
sbag5
(g6
g7
(lp617
Vsolution
p618
atp619
Rp620
(dp621
g16
VNN
p622
sbatp623
Rp624
(dp625
g16
VNP
p626
sbag5
(g6
g7
(lp627
g5
(g6
g7
(lp628
Vfor
p629
atp630
Rp631
(dp632
g16
VIN
p633
sbag5
(g6
g7
(lp634
g5
(g6
g7
(lp635
g5
(g6
g7
(lp636
Vproviding
p637
atp638
Rp639
(dp640
g16
VVBG
p641
sbag5
(g6
g7
(lp642
g5
(g6
g7
(lp643
g5
(g6
g7
(lp644
Vmore
p645
atp646
Rp647
(dp648
g16
VRBR
p649
sbag5
(g6
g7
(lp650
Vdetailed
p651
atp652
Rp653
(dp654
g16
VJJ
p655
sbatp656
Rp657
(dp658
g16
VADJP
p659
sbag5
(g6
g7
(lp660
Vfeedback
p661
atp662
Rp663
(dp664
g16
VNN
p665
sbatp666
Rp667
(dp668
g16
VNP
p669
sbatp670
Rp671
(dp672
g16
VVP
p673
sbatp674
Rp675
(dp676
g16
g61
sbatp677
Rp678
(dp679
g16
VPP
p680
sbatp681
Rp682
(dp683
g16
VVP
p684
sbatp685
Rp686
(dp687
g16
g61
sbatp688
Rp689
(dp690
g16
VSBAR
p691
sbatp692
Rp693
(dp694
g16
VVP
p695
sbatp696
Rp697
(dp698
g16
g61
sbatp699
Rp700
(dp701
g16
VROOT
p702
sbasg211
(icmyPackage
CorE
p703
(dp704
g214
(lp705
(I0
I9
tp706
a(I0
I12
tp707
asg218
g675
sbsg219
(icmyPackage
CorE
p708
(dp709
g214
(lp710
(I0
I0
tp711
a(I0
I7
tp712
asg218
g5
(g6
g7
(lp713
g568
ag575
ag600
ag607
ag624
atp714
Rp715
(dp716
g16
g229
sbsbsg230
(icmyPackage
pattern
p717
(dp718
g233
I25
sg234
I0
sg235
(lp719
(lp720
S'for'
p721
aasg241
(lp722
I2
aI1
aI1
asg243
(lp723
S'She was angry with him for being late.'
p724
asg246
I44
sg247
(lp725
(lp726
S'&R'
p727
aa(lp728
S'&V-ing@C@'
p729
aasbsg254
(lp730
(isxpPackage
sxpSent
p731
(dp732
g258
(lp733
I2
asg260
VComputer aided language learning tools offer a solution for providing more detailed feedback
p734
sg262
I2
sg246
I7
sg263
I2
sbasba(icmyPackage
CELink
p735
(dp736
g3
(lp737
g5
(g6
g7
(lp738
g5
(g6
g7
(lp739
g5
(g6
g7
(lp740
g5
(g6
g7
(lp741
VFurthermore
p742
atp743
Rp744
(dp745
g16
VRB
p746
sbatp747
Rp748
(dp749
g16
VADVP
p750
sbag5
(g6
g7
(lp751
g67
atp752
Rp753
(dp754
g16
g67
sbag5
(g6
g7
(lp755
g5
(g6
g7
(lp756
Vit
p757
atp758
Rp759
(dp760
g16
VPRP
p761
sbatp762
Rp763
(dp764
g16
VNP
p765
sbag5
(g6
g7
(lp766
g5
(g6
g7
(lp767
Vis
p768
atp769
Rp770
(dp771
g16
VVBZ
p772
sbag5
(g6
g7
(lp773
Vnot
p774
atp775
Rp776
(dp777
g16
VRB
p778
sbag5
(g6
g7
(lp779
g5
(g6
g7
(lp780
Vclear
p781
atp782
Rp783
(dp784
g16
VJJ
p785
sbatp786
Rp787
(dp788
g16
VADJP
p789
sbag5
(g6
g7
(lp790
g5
(g6
g7
(lp791
Vif
p792
atp793
Rp794
(dp795
g16
VIN
p796
sbag5
(g6
g7
(lp797
g5
(g6
g7
(lp798
g5
(g6
g7
(lp799
Vthe
p800
atp801
Rp802
(dp803
g16
VDT
p804
sbag5
(g6
g7
(lp805
Vheuristics
p806
atp807
Rp808
(dp809
g16
VNNS
p810
sbatp811
Rp812
(dp813
g16
VNP
p814
sbag5
(g6
g7
(lp815
g5
(g6
g7
(lp816
Vwill
p817
atp818
Rp819
(dp820
g16
VMD
p821
sbag5
(g6
g7
(lp822
g5
(g6
g7
(lp823
Vwork
p824
atp825
Rp826
(dp827
g16
VVB
p828
sbag5
(g6
g7
(lp829
g5
(g6
g7
(lp830
Vas
p831
atp832
Rp833
(dp834
g16
VRB
p835
sbag5
(g6
g7
(lp836
Vwell
p837
atp838
Rp839
(dp840
g16
VRB
p841
sbatp842
Rp843
(dp844
g16
VADVP
p845
sbag5
(g6
g7
(lp846
g5
(g6
g7
(lp847
Vfor
p848
atp849
Rp850
(dp851
g16
VIN
p852
sbag5
(g6
g7
(lp853
g5
(g6
g7
(lp854
g5
(g6
g7
(lp855
Vtutors
p856
atp857
Rp858
(dp859
g16
VNNS
p860
sbatp861
Rp862
(dp863
g16
VNP
p864
sbag5
(g6
g7
(lp865
g5
(g6
g7
(lp866
Vtrained
p867
atp868
Rp869
(dp870
g16
VVBN
p871
sbag5
(g6
g7
(lp872
g5
(g6
g7
(lp873
g5
(g6
g7
(lp874
Vto
p875
atp876
Rp877
(dp878
g16
VTO
p879
sbag5
(g6
g7
(lp880
g5
(g6
g7
(lp881
Vmark
p882
atp883
Rp884
(dp885
g16
VVB
p886
sbag5
(g6
g7
(lp887
g5
(g6
g7
(lp888
Vup
p889
atp890
Rp891
(dp892
g16
VRP
p893
sbatp894
Rp895
(dp896
g16
VPRT
p897
sbag5
(g6
g7
(lp898
g5
(g6
g7
(lp899
Vrevisions
p900
atp901
Rp902
(dp903
g16
VNNS
p904
sbatp905
Rp906
(dp907
g16
VNP
p908
sbag5
(g6
g7
(lp909
g5
(g6
g7
(lp910
Vunder
p911
atp912
Rp913
(dp914
g16
VIN
p915
sbag5
(g6
g7
(lp916
g5
(g6
g7
(lp917
Vdifferent
p918
atp919
Rp920
(dp921
g16
VJJ
p922
sbag5
(g6
g7
(lp923
Vguidelines
p924
atp925
Rp926
(dp927
g16
VNNS
p928
sbatp929
Rp930
(dp931
g16
VNP
p932
sbatp933
Rp934
(dp935
g16
VPP
p936
sbatp937
Rp938
(dp939
g16
VVP
p940
sbatp941
Rp942
(dp943
g16
VVP
p944
sbatp945
Rp946
(dp947
g16
g61
sbatp948
Rp949
(dp950
g16
VVP
p951
sbatp952
Rp953
(dp954
g16
VNP
p955
sbatp956
Rp957
(dp958
g16
VPP
p959
sbatp960
Rp961
(dp962
g16
VVP
p963
sbatp964
Rp965
(dp966
g16
VVP
p967
sbatp968
Rp969
(dp970
g16
g61
sbatp971
Rp972
(dp973
g16
VSBAR
p974
sbatp975
Rp976
(dp977
g16
VVP
p978
sbatp979
Rp980
(dp981
g16
g61
sbatp982
Rp983
(dp984
g16
VROOT
p985
sbasg211
(icmyPackage
CorE
p986
(dp987
g214
(lp988
(I0
I7
tp989
a(I0
I22
tp990
asg218
g969
sbsg219
(icmyPackage
CorE
p991
(dp992
g214
(lp993
(I0
I0
tp994
a(I0
I5
tp995
asg218
g5
(g6
g7
(lp996
g748
ag753
ag763
ag770
ag776
ag787
atp997
Rp998
(dp999
g16
g229
sbsbsg230
(icmyPackage
pattern
p1000
(dp1001
g233
I0
sg234
I0
sg235
(lp1002
(lp1003
S'if'
p1004
aasg241
(lp1005
I1
aI1
aI1
asg243
(lp1006
S'An effective knowledge flow network enables a research team to be very powerful in generating new knowledge if every node can innovate and output new knowledge to appropriate members.'
p1007
asg246
I14
sg247
(lp1008
(lp1009
S'&R@Complete@'
p1010
aa(lp1011
S'&C@Complete@'
p1012
aasbsg254
(lp1013
(isxpPackage
sxpSent
p1014
(dp1015
g258
(lp1016
I3
asg260
VFurthermore, it is not clear if the heuristics will work as well for tutors trained to mark up revisions under different guidelines
p1017
sg262
I2
sg246
I15
sg263
I2
sbasba(icmyPackage
CELink
p1018
(dp1019
g3
(lp1020
g5
(g6
g7
(lp1021
g5
(g6
g7
(lp1022
g5
(g6
g7
(lp1023
g5
(g6
g7
(lp1024
VWe
p1025
atp1026
Rp1027
(dp1028
g16
VPRP
p1029
sbatp1030
Rp1031
(dp1032
g16
VNP
p1033
sbag5
(g6
g7
(lp1034
g5
(g6
g7
(lp1035
Vpropose
p1036
atp1037
Rp1038
(dp1039
g16
VVBP
p1040
sbag5
(g6
g7
(lp1041
g5
(g6
g7
(lp1042
g5
(g6
g7
(lp1043
Vto
p1044
atp1045
Rp1046
(dp1047
g16
VTO
p1048
sbag5
(g6
g7
(lp1049
g5
(g6
g7
(lp1050
Vimprove
p1051
atp1052
Rp1053
(dp1054
g16
VVB
p1055
sbag5
(g6
g7
(lp1056
g5
(g6
g7
(lp1057
Vupon
p1058
atp1059
Rp1060
(dp1061
g16
VIN
p1062
sbag5
(g6
g7
(lp1063
g5
(g6
g7
(lp1064
Vthe
p1065
atp1066
Rp1067
(dp1068
g16
VDT
p1069
sbag5
(g6
g7
(lp1070
Vcorrection
p1071
atp1072
Rp1073
(dp1074
g16
VNN
p1075
sbag5
(g6
g7
(lp1076
Vdetection
p1077
atp1078
Rp1079
(dp1080
g16
VNN
p1081
sbag5
(g6
g7
(lp1082
Vcomponent
p1083
atp1084
Rp1085
(dp1086
g16
VNN
p1087
sbatp1088
Rp1089
(dp1090
g16
VNP
p1091
sbatp1092
Rp1093
(dp1094
g16
VPP
p1095
sbag5
(g6
g7
(lp1096
g5
(g6
g7
(lp1097
Vby
p1098
atp1099
Rp1100
(dp1101
g16
VIN
p1102
sbag5
(g6
g7
(lp1103
g5
(g6
g7
(lp1104
g5
(g6
g7
(lp1105
Vtraining
p1106
atp1107
Rp1108
(dp1109
g16
VVBG
p1110
sbag5
(g6
g7
(lp1111
g5
(g6
g7
(lp1112
g5
(g6
g7
(lp1113
g612
atp1114
Rp1115
(dp1116
g16
VDT
p1117
sbag5
(g6
g7
(lp1118
Vclassifier
p1119
atp1120
Rp1121
(dp1122
g16
VNN
p1123
sbatp1124
Rp1125
(dp1126
g16
VNP
p1127
sbag5
(g6
g7
(lp1128
g5
(g6
g7
(lp1129
g5
(g6
g7
(lp1130
Vthat
p1131
atp1132
Rp1133
(dp1134
g16
VWDT
p1135
sbatp1136
Rp1137
(dp1138
g16
VWHNP
p1139
sbag5
(g6
g7
(lp1140
g5
(g6
g7
(lp1141
g5
(g6
g7
(lp1142
Vdetermines
p1143
atp1144
Rp1145
(dp1146
g16
VVBZ
p1147
sbag5
(g6
g7
(lp1148
g5
(g6
g7
(lp1149
g5
(g6
g7
(lp1150
Vwhich
p1151
atp1152
Rp1153
(dp1154
g16
VWDT
p1155
sbatp1156
Rp1157
(dp1158
g16
VWHNP
p1159
sbag5
(g6
g7
(lp1160
g5
(g6
g7
(lp1161
g5
(g6
g7
(lp1162
g5
(g6
g7
(lp1163
Vedits
p1164
atp1165
Rp1166
(dp1167
g16
VNNS
p1168
sbatp1169
Rp1170
(dp1171
g16
VNP
p1172
sbag5
(g6
g7
(lp1173
g5
(g6
g7
(lp1174
Vin
p1175
atp1176
Rp1177
(dp1178
g16
VIN
p1179
sbag5
(g6
g7
(lp1180
g5
(g6
g7
(lp1181
g612
atp1182
Rp1183
(dp1184
g16
VDT
p1185
sbag5
(g6
g7
(lp1186
Vrevised
p1187
atp1188
Rp1189
(dp1190
g16
VVBN
p1191
sbag5
(g6
g7
(lp1192
Vsentence
p1193
atp1194
Rp1195
(dp1196
g16
VNN
p1197
sbatp1198
Rp1199
(dp1200
g16
VNP
p1201
sbatp1202
Rp1203
(dp1204
g16
VPP
p1205
sbatp1206
Rp1207
(dp1208
g16
VNP
p1209
sbag5
(g6
g7
(lp1210
g5
(g6
g7
(lp1211
Vaddress
p1212
atp1213
Rp1214
(dp1215
g16
VNN
p1216
sbag5
(g6
g7
(lp1217
g5
(g6
g7
(lp1218
g5
(g6
g7
(lp1219
Vthe
p1220
atp1221
Rp1222
(dp1223
g16
VDT
p1224
sbag5
(g6
g7
(lp1225
Vsame
p1226
atp1227
Rp1228
(dp1229
g16
VJJ
p1230
sbag5
(g6
g7
(lp1231
Verror
p1232
atp1233
Rp1234
(dp1235
g16
VNN
p1236
sbatp1237
Rp1238
(dp1239
g16
VNP
p1240
sbag5
(g6
g7
(lp1241
g5
(g6
g7
(lp1242
Vin
p1243
atp1244
Rp1245
(dp1246
g16
VIN
p1247
sbag5
(g6
g7
(lp1248
g5
(g6
g7
(lp1249
Vthe
p1250
atp1251
Rp1252
(dp1253
g16
VDT
p1254
sbag5
(g6
g7
(lp1255
Voriginal
p1256
atp1257
Rp1258
(dp1259
g16
VJJ
p1260
sbag5
(g6
g7
(lp1261
Vsentence
p1262
atp1263
Rp1264
(dp1265
g16
VNN
p1266
sbatp1267
Rp1268
(dp1269
g16
VNP
p1270
sbatp1271
Rp1272
(dp1273
g16
VPP
p1274
sbatp1275
Rp1276
(dp1277
g16
VNP
p1278
sbatp1279
Rp1280
(dp1281
g16
VVP
p1282
sbatp1283
Rp1284
(dp1285
g16
g61
sbatp1286
Rp1287
(dp1288
g16
VSBAR
p1289
sbatp1290
Rp1291
(dp1292
g16
VVP
p1293
sbatp1294
Rp1295
(dp1296
g16
g61
sbatp1297
Rp1298
(dp1299
g16
VSBAR
p1300
sbatp1301
Rp1302
(dp1303
g16
VNP
p1304
sbatp1305
Rp1306
(dp1307
g16
VVP
p1308
sbatp1309
Rp1310
(dp1311
g16
g61
sbatp1312
Rp1313
(dp1314
g16
VPP
p1315
sbatp1316
Rp1317
(dp1318
g16
VVP
p1319
sbatp1320
Rp1321
(dp1322
g16
VVP
p1323
sbatp1324
Rp1325
(dp1326
g16
g61
sbatp1327
Rp1328
(dp1329
g16
VVP
p1330
sbatp1331
Rp1332
(dp1333
g16
g61
sbatp1334
Rp1335
(dp1336
g16
VROOT
p1337
sbasg211
(icmyPackage
CorE
p1338
(dp1339
g214
(lp1340
(I0
I10
tp1341
a(I0
I28
tp1342
asg218
g1310
sbsg219
(icmyPackage
CorE
p1343
(dp1344
g214
(lp1345
(I0
I0
tp1346
a(I0
I8
tp1347
asg218
g5
(g6
g7
(lp1348
g1031
ag1038
ag1046
ag1053
ag1093
atp1349
Rp1350
(dp1351
g16
g229
sbsbsg230
(icmyPackage
pattern
p1352
(dp1353
g233
I0
sg234
I0
sg235
(lp1354
(lp1355
(lp1356
S'by'
p1357
aS'through'
p1358
aaasg241
(lp1359
I2
aI1
aI1
asg243
(lp1360
S'The similar relation can be detected by analyzing the contents of nodes based on such approaches as the Latent Semantic Analysis (LSA) and the Vector Space Model (VSM)'
p1361
asg246
I68
sg247
(lp1362
(lp1363
S'&R@Complete@'
p1364
aa(lp1365
S'&V-ing@C@'
p1366
aasbsg254
(lp1367
(isxpPackage
sxpSent
p1368
(dp1369
g258
(lp1370
I4
asg260
VWe propose to improve upon the correction detection component by training a classifier that determines which edits in a revised sentence address the same error in the original sentence
p1371
sg262
I2
sg246
I16
sg263
I3
sbasba(icmyPackage
CELink
p1372
(dp1373
g3
(lp1374
g5
(g6
g7
(lp1375
g5
(g6
g7
(lp1376
g5
(g6
g7
(lp1377
g5
(g6
g7
(lp1378
VBecause
p1379
atp1380
Rp1381
(dp1382
g16
VIN
p1383
sbag5
(g6
g7
(lp1384
g5
(g6
g7
(lp1385
g5
(g6
g7
(lp1386
Vthe
p1387
atp1388
Rp1389
(dp1390
g16
VDT
p1391
sbag5
(g6
g7
(lp1392
Vclassifier
p1393
atp1394
Rp1395
(dp1396
g16
VNN
p1397
sbatp1398
Rp1399
(dp1400
g16
VNP
p1401
sbag5
(g6
g7
(lp1402
g5
(g6
g7
(lp1403
Vwere
p1404
atp1405
Rp1406
(dp1407
g16
VVBD
p1408
sbag5
(g6
g7
(lp1409
g5
(g6
g7
(lp1410
Vtrained
p1411
atp1412
Rp1413
(dp1414
g16
VVBN
p1415
sbag5
(g6
g7
(lp1416
g5
(g6
g7
(lp1417
Von
p1418
atp1419
Rp1420
(dp1421
g16
VIN
p1422
sbag5
(g6
g7
(lp1423
g5
(g6
g7
(lp1424
g5
(g6
g7
(lp1425
Vrevisions
p1426
atp1427
Rp1428
(dp1429
g16
VNNS
p1430
sbatp1431
Rp1432
(dp1433
g16
VNP
p1434
sbag5
(g6
g7
(lp1435
g5
(g6
g7
(lp1436
g5
(g6
g7
(lp1437
Vwhere
p1438
atp1439
Rp1440
(dp1441
g16
VWRB
p1442
sbatp1443
Rp1444
(dp1445
g16
VWHADVP
p1446
sbag5
(g6
g7
(lp1447
g5
(g6
g7
(lp1448
g5
(g6
g7
(lp1449
Vcorrections
p1450
atp1451
Rp1452
(dp1453
g16
VNNS
p1454
sbatp1455
Rp1456
(dp1457
g16
VNP
p1458
sbag5
(g6
g7
(lp1459
g5
(g6
g7
(lp1460
Vare
p1461
atp1462
Rp1463
(dp1464
g16
VVBP
p1465
sbag5
(g6
g7
(lp1466
g5
(g6
g7
(lp1467
Vexplicitly
p1468
atp1469
Rp1470
(dp1471
g16
VRB
p1472
sbatp1473
Rp1474
(dp1475
g16
VADVP
p1476
sbag5
(g6
g7
(lp1477
g5
(g6
g7
(lp1478
Vmarked
p1479
atp1480
Rp1481
(dp1482
g16
VVBN
p1483
sbag5
(g6
g7
(lp1484
g5
(g6
g7
(lp1485
Vby
p1486
atp1487
Rp1488
(dp1489
g16
VIN
p1490
sbag5
(g6
g7
(lp1491
g5
(g6
g7
(lp1492
VEnglish
p1493
atp1494
Rp1495
(dp1496
g16
VJJ
p1497
sbag5
(g6
g7
(lp1498
Vexperts
p1499
atp1500
Rp1501
(dp1502
g16
VNNS
p1503
sbatp1504
Rp1505
(dp1506
g16
VNP
p1507
sbatp1508
Rp1509
(dp1510
g16
VPP
p1511
sbatp1512
Rp1513
(dp1514
g16
VVP
p1515
sbatp1516
Rp1517
(dp1518
g16
VVP
p1519
sbatp1520
Rp1521
(dp1522
g16
g61
sbatp1523
Rp1524
(dp1525
g16
VSBAR
p1526
sbatp1527
Rp1528
(dp1529
g16
VNP
p1530
sbatp1531
Rp1532
(dp1533
g16
VPP
p1534
sbatp1535
Rp1536
(dp1537
g16
VVP
p1538
sbatp1539
Rp1540
(dp1541
g16
VVP
p1542
sbatp1543
Rp1544
(dp1545
g16
g61
sbatp1546
Rp1547
(dp1548
g16
VSBAR
p1549
sbag5
(g6
g7
(lp1550
g67
atp1551
Rp1552
(dp1553
g16
g67
sbag5
(g6
g7
(lp1554
g5
(g6
g7
(lp1555
Vit
p1556
atp1557
Rp1558
(dp1559
g16
VPRP
p1560
sbatp1561
Rp1562
(dp1563
g16
VNP
p1564
sbag5
(g6
g7
(lp1565
g5
(g6
g7
(lp1566
Vis
p1567
atp1568
Rp1569
(dp1570
g16
VVBZ
p1571
sbag5
(g6
g7
(lp1572
g5
(g6
g7
(lp1573
Valso
p1574
atp1575
Rp1576
(dp1577
g16
VRB
p1578
sbatp1579
Rp1580
(dp1581
g16
VADVP
p1582
sbag5
(g6
g7
(lp1583
g5
(g6
g7
(lp1584
Vpossible
p1585
atp1586
Rp1587
(dp1588
g16
VJJ
p1589
sbag5
(g6
g7
(lp1590
g5
(g6
g7
(lp1591
g5
(g6
g7
(lp1592
Vto
p1593
atp1594
Rp1595
(dp1596
g16
VTO
p1597
sbag5
(g6
g7
(lp1598
g5
(g6
g7
(lp1599
Vbuild
p1600
atp1601
Rp1602
(dp1603
g16
VVB
p1604
sbag5
(g6
g7
(lp1605
g5
(g6
g7
(lp1606
g5
(g6
g7
(lp1607
Vsystems
p1608
atp1609
Rp1610
(dp1611
g16
VNNS
p1612
sbatp1613
Rp1614
(dp1615
g16
VNP
p1616
sbag5
(g6
g7
(lp1617
g5
(g6
g7
(lp1618
Vadjusted
p1619
atp1620
Rp1621
(dp1622
g16
VVBN
p1623
sbag5
(g6
g7
(lp1624
g5
(g6
g7
(lp1625
Vto
p1626
atp1627
Rp1628
(dp1629
g16
VTO
p1630
sbag5
(g6
g7
(lp1631
g5
(g6
g7
(lp1632
Vdifferent
p1633
atp1634
Rp1635
(dp1636
g16
VJJ
p1637
sbag5
(g6
g7
(lp1638
Vannotation
p1639
atp1640
Rp1641
(dp1642
g16
VNN
p1643
sbag5
(g6
g7
(lp1644
Vstandards
p1645
atp1646
Rp1647
(dp1648
g16
VNNS
p1649
sbatp1650
Rp1651
(dp1652
g16
VNP
p1653
sbatp1654
Rp1655
(dp1656
g16
VPP
p1657
sbatp1658
Rp1659
(dp1660
g16
VVP
p1661
sbatp1662
Rp1663
(dp1664
g16
VNP
p1665
sbatp1666
Rp1667
(dp1668
g16
VVP
p1669
sbatp1670
Rp1671
(dp1672
g16
VVP
p1673
sbatp1674
Rp1675
(dp1676
g16
g61
sbatp1677
Rp1678
(dp1679
g16
VADJP
p1680
sbatp1681
Rp1682
(dp1683
g16
VVP
p1684
sbatp1685
Rp1686
(dp1687
g16
g61
sbatp1688
Rp1689
(dp1690
g16
VROOT
p1691
sbasg211
(icmyPackage
CorE
p1692
(dp1693
g214
(lp1694
(I0
I1
tp1695
a(I0
I14
tp1696
asg218
g1544
sbsg219
(icmyPackage
CorE
p1697
(dp1698
g214
(lp1699
(I0
I16
tp1700
a(I0
I27
tp1701
asg218
g5
(g6
g7
(lp1702
g1562
ag1682
atp1703
Rp1704
(dp1705
g16
g229
sbsbsg230
g231
sg254
(lp1706
(isxpPackage
sxpSent
p1707
(dp1708
g258
(lp1709
I5
asg260
VBecause the classifier were trained on revisions where corrections are explicitly marked by English experts, it is also possible to build systems adjusted to different annotation standards
p1710
sg262
I2
sg246
I18
sg263
I3
sbasba(icmyPackage
CELink
p1711
(dp1712
g3
(lp1713
g5
(g6
g7
(lp1714
g5
(g6
g7
(lp1715
g5
(g6
g7
(lp1716
g5
(g6
g7
(lp1717
g5
(g6
g7
(lp1718
VComparing
p1719
atp1720
Rp1721
(dp1722
g16
VVBG
p1723
sbag5
(g6
g7
(lp1724
g5
(g6
g7
(lp1725
g612
atp1726
Rp1727
(dp1728
g16
VDT
p1729
sbag5
(g6
g7
(lp1730
Vstudent-written
p1731
atp1732
Rp1733
(dp1734
g16
VJJ
p1735
sbag5
(g6
g7
(lp1736
Vsentence
p1737
atp1738
Rp1739
(dp1740
g16
VNN
p1741
sbatp1742
Rp1743
(dp1744
g16
VNP
p1745
sbag5
(g6
g7
(lp1746
g5
(g6
g7
(lp1747
Vwith
p1748
atp1749
Rp1750
(dp1751
g16
VIN
p1752
sbag5
(g6
g7
(lp1753
g5
(g6
g7
(lp1754
Vits
p1755
atp1756
Rp1757
(dp1758
g16
VPRP$
p1759
sbag5
(g6
g7
(lp1760
Vrevision
p1761
atp1762
Rp1763
(dp1764
g16
VNN
p1765
sbatp1766
Rp1767
(dp1768
g16
VNP
p1769
sbatp1770
Rp1771
(dp1772
g16
VPP
p1773
sbatp1774
Rp1775
(dp1776
g16
VVP
p1777
sbatp1778
Rp1779
(dp1780
g16
g61
sbag5
(g6
g7
(lp1781
g67
atp1782
Rp1783
(dp1784
g16
g67
sbag5
(g6
g7
(lp1785
g5
(g6
g7
(lp1786
Vwe
p1787
atp1788
Rp1789
(dp1790
g16
VPRP
p1791
sbatp1792
Rp1793
(dp1794
g16
VNP
p1795
sbag5
(g6
g7
(lp1796
g5
(g6
g7
(lp1797
Vobserve
p1798
atp1799
Rp1800
(dp1801
g16
VVBP
p1802
sbag5
(g6
g7
(lp1803
g5
(g6
g7
(lp1804
Vthat
p1805
atp1806
Rp1807
(dp1808
g16
VIN
p1809
sbag5
(g6
g7
(lp1810
g5
(g6
g7
(lp1811
g5
(g6
g7
(lp1812
Veach
p1813
atp1814
Rp1815
(dp1816
g16
VDT
p1817
sbag5
(g6
g7
(lp1818
Vcorrection
p1819
atp1820
Rp1821
(dp1822
g16
VNN
p1823
sbatp1824
Rp1825
(dp1826
g16
VNP
p1827
sbag5
(g6
g7
(lp1828
g5
(g6
g7
(lp1829
Vcan
p1830
atp1831
Rp1832
(dp1833
g16
VMD
p1834
sbag5
(g6
g7
(lp1835
g5
(g6
g7
(lp1836
Vbe
p1837
atp1838
Rp1839
(dp1840
g16
VVB
p1841
sbag5
(g6
g7
(lp1842
g5
(g6
g7
(lp1843
Vdecomposed
p1844
atp1845
Rp1846
(dp1847
g16
VVBN
p1848
sbag5
(g6
g7
(lp1849
g5
(g6
g7
(lp1850
Vinto
p1851
atp1852
Rp1853
(dp1854
g16
VIN
p1855
sbag5
(g6
g7
(lp1856
g5
(g6
g7
(lp1857
g5
(g6
g7
(lp1858
g612
atp1859
Rp1860
(dp1861
g16
VDT
p1862
sbag5
(g6
g7
(lp1863
Vset
p1864
atp1865
Rp1866
(dp1867
g16
VNN
p1868
sbatp1869
Rp1870
(dp1871
g16
VNP
p1872
sbag5
(g6
g7
(lp1873
g5
(g6
g7
(lp1874
Vof
p1875
atp1876
Rp1877
(dp1878
g16
VIN
p1879
sbag5
(g6
g7
(lp1880
g5
(g6
g7
(lp1881
g5
(g6
g7
(lp1882
Vmore
p1883
atp1884
Rp1885
(dp1886
g16
VJJR
p1887
sbag5
(g6
g7
(lp1888
Vbasic
p1889
atp1890
Rp1891
(dp1892
g16
VJJ
p1893
sbag5
(g6
g7
(lp1894
Vedits
p1895
atp1896
Rp1897
(dp1898
g16
VNNS
p1899
sbatp1900
Rp1901
(dp1902
g16
VNP
p1903
sbag5
(g6
g7
(lp1904
g5
(g6
g7
(lp1905
Vsuch
p1906
atp1907
Rp1908
(dp1909
g16
VJJ
p1910
sbag5
(g6
g7
(lp1911
Vas
p1912
atp1913
Rp1914
(dp1915
g16
VIN
p1916
sbag5
(g6
g7
(lp1917
g5
(g6
g7
(lp1918
g5
(g6
g7
(lp1919
Vword
p1920
atp1921
Rp1922
(dp1923
g16
VNN
p1924
sbag5
(g6
g7
(lp1925
Vinsertions
p1926
atp1927
Rp1928
(dp1929
g16
VNNS
p1930
sbatp1931
Rp1932
(dp1933
g16
VNP
p1934
sbag5
(g6
g7
(lp1935
g67
atp1936
Rp1937
(dp1938
g16
g67
sbag5
(g6
g7
(lp1939
g5
(g6
g7
(lp1940
Vword
p1941
atp1942
Rp1943
(dp1944
g16
VNN
p1945
sbag5
(g6
g7
(lp1946
Vdeletions
p1947
atp1948
Rp1949
(dp1950
g16
VNNS
p1951
sbatp1952
Rp1953
(dp1954
g16
VNP
p1955
sbag5
(g6
g7
(lp1956
Vand
p1957
atp1958
Rp1959
(dp1960
g16
VCC
p1961
sbag5
(g6
g7
(lp1962
g5
(g6
g7
(lp1963
Vword
p1964
atp1965
Rp1966
(dp1967
g16
VNN
p1968
sbag5
(g6
g7
(lp1969
Vsubstitutions
p1970
atp1971
Rp1972
(dp1973
g16
VNNS
p1974
sbatp1975
Rp1976
(dp1977
g16
VNP
p1978
sbatp1979
Rp1980
(dp1981
g16
VNP
p1982
sbatp1983
Rp1984
(dp1985
g16
VPP
p1986
sbatp1987
Rp1988
(dp1989
g16
VNP
p1990
sbatp1991
Rp1992
(dp1993
g16
VPP
p1994
sbatp1995
Rp1996
(dp1997
g16
VNP
p1998
sbatp1999
Rp2000
(dp2001
g16
VPP
p2002
sbatp2003
Rp2004
(dp2005
g16
VVP
p2006
sbatp2007
Rp2008
(dp2009
g16
VVP
p2010
sbatp2011
Rp2012
(dp2013
g16
VVP
p2014
sbatp2015
Rp2016
(dp2017
g16
g61
sbatp2018
Rp2019
(dp2020
g16
VSBAR
p2021
sbatp2022
Rp2023
(dp2024
g16
VVP
p2025
sbatp2026
Rp2027
(dp2028
g16
g61
sbatp2029
Rp2030
(dp2031
g16
VROOT
p2032
sbasg211
(icmyPackage
CorE
p2033
(dp2034
g214
(lp2035
(I0
I0
tp2036
a(I0
I6
tp2037
asg218
g1779
sbsg219
(icmyPackage
CorE
p2038
(dp2039
g214
(lp2040
(I0
I8
tp2041
a(I0
I32
tp2042
asg218
g5
(g6
g7
(lp2043
g1793
ag2023
atp2044
Rp2045
(dp2046
g16
g229
sbsbsg230
(icmyPackage
pattern
p2047
(dp2048
g233
I30
sg234
I0
sg235
(lp2049
sg241
(lp2050
I3
aI2
aI1
asg243
(lp2051
S'Being over here we tend to be a bit isolated.'
p2052
aS'Not being sure of the word, he turned it up in the dictionary.'
p2053
asg246
I81
sg247
(lp2054
(lp2055
S'&V-ing@C@'
p2056
aS'(,)'
p2057
aS'&R@Complete@'
p2058
aasbsg254
(lp2059
(isxpPackage
sxpSent
p2060
(dp2061
g258
(lp2062
I6
asg260
VComparing a student-written sentence with its revision, we observe that each correction can be decomposed into a set of more basic edits such as word insertions, word deletions and word substitutions
p2063
sg262
I3
sg246
I23
sg263
I5
sbasba(icmyPackage
CELink
p2064
(dp2065
g3
(lp2066
g5
(g6
g7
(lp2067
g5
(g6
g7
(lp2068
g5
(g6
g7
(lp2069
g5
(g6
g7
(lp2070
g5
(g6
g7
(lp2071
VIn
p2072
atp2073
Rp2074
(dp2075
g16
VIN
p2076
sbag5
(g6
g7
(lp2077
g5
(g6
g7
(lp2078
g5
(g6
g7
(lp2079
Vthe
p2080
atp2081
Rp2082
(dp2083
g16
VDT
p2084
sbag5
(g6
g7
(lp2085
Vexample
p2086
atp2087
Rp2088
(dp2089
g16
VNN
p2090
sbatp2091
Rp2092
(dp2093
g16
VNP
p2094
sbag5
(g6
g7
(lp2095
g5
(g6
g7
(lp2096
Vshown
p2097
atp2098
Rp2099
(dp2100
g16
VVBN
p2101
sbag5
(g6
g7
(lp2102
g5
(g6
g7
(lp2103
Vin
p2104
atp2105
Rp2106
(dp2107
g16
VIN
p2108
sbag5
(g6
g7
(lp2109
g5
(g6
g7
(lp2110
VFigure
p2111
atp2112
Rp2113
(dp2114
g16
VNNP
p2115
sbag5
(g6
g7
(lp2116
V1
p2117
atp2118
Rp2119
(dp2120
g16
VCD
p2121
sbatp2122
Rp2123
(dp2124
g16
VNP
p2125
sbatp2126
Rp2127
(dp2128
g16
VPP
p2129
sbatp2130
Rp2131
(dp2132
g16
VVP
p2133
sbatp2134
Rp2135
(dp2136
g16
VNP
p2137
sbatp2138
Rp2139
(dp2140
g16
VPP
p2141
sbag5
(g6
g7
(lp2142
g67
atp2143
Rp2144
(dp2145
g16
g67
sbag5
(g6
g7
(lp2146
g5
(g6
g7
(lp2147
g5
(g6
g7
(lp2148
g5
(g6
g7
(lp2149
Vthe
p2150
atp2151
Rp2152
(dp2153
g16
VDT
p2154
sbag5
(g6
g7
(lp2155
Vcorrection
p2156
atp2157
Rp2158
(dp2159
g16
VNN
p2160
sbag5
(g6
g7
(lp2161
Vu
p2162
atp2163
Rp2164
(dp2165
g16
VNN
p2166
sbag5
(g6
g7
(lp2167
V'
p2168
atp2169
Rp2170
(dp2171
g16
VPOS
p2172
sbatp2173
Rp2174
(dp2175
g16
VNP
p2176
sbag5
(g6
g7
(lp2177
V\u005c
p2178
atp2179
Rp2180
(dp2181
g16
VNN
p2182
sbag5
(g6
g7
(lp2183
Vu201c
p2184
atp2185
Rp2186
(dp2187
g16
VNN
p2188
sbag5
(g6
g7
(lp2189
g2168
atp2190
Rp2191
(dp2192
g16
V''
p2193
sbatp2194
Rp2195
(dp2196
g16
VNP
p2197
sbag5
(g6
g7
(lp2198
g5
(g6
g7
(lp2199
g5
(g6
g7
(lp2200
g5
(g6
g7
(lp2201
Vto
p2202
atp2203
Rp2204
(dp2205
g16
VTO
p2206
sbag5
(g6
g7
(lp2207
g5
(g6
g7
(lp2208
Vchange
p2209
atp2210
Rp2211
(dp2212
g16
VVB
p2213
sbag5
(g6
g7
(lp2214
g5
(g6
g7
(lp2215
g5
(g6
g7
(lp2216
g2162
atp2217
Rp2218
(dp2219
g16
VNNP
p2220
sbag5
(g6
g7
(lp2221
g2168
atp2222
Rp2223
(dp2224
g16
VPOS
p2225
sbatp2226
Rp2227
(dp2228
g16
VNP
p2229
sbag5
(g6
g7
(lp2230
V\u005c
p2231
atp2232
Rp2233
(dp2234
g16
VJJ
p2235
sbag5
(g6
g7
(lp2236
Vu21d2
p2237
atp2238
Rp2239
(dp2240
g16
VNNS
p2241
sbatp2242
Rp2243
(dp2244
g16
VNP
p2245
sbag5
(g6
g7
(lp2246
g2168
atp2247
Rp2248
(dp2249
g16
V''
p2250
sbag5
(g6
g7
(lp2251
g5
(g6
g7
(lp2252
g5
(g6
g7
(lp2253
Vchanging
p2254
atp2255
Rp2256
(dp2257
g16
VVBG
p2258
sbag5
(g6
g7
(lp2259
g5
(g6
g7
(lp2260
g5
(g6
g7
(lp2261
g2162
atp2262
Rp2263
(dp2264
g16
VNNP
p2265
sbag5
(g6
g7
(lp2266
g2168
atp2267
Rp2268
(dp2269
g16
VPOS
p2270
sbatp2271
Rp2272
(dp2273
g16
VNP
p2274
sbag5
(g6
g7
(lp2275
V\u005c
p2276
atp2277
Rp2278
(dp2279
g16
VNNP
p2280
sbag5
(g6
g7
(lp2281
Vu201d
p2282
atp2283
Rp2284
(dp2285
g16
VNNP
p2286
sbag5
(g6
g7
(lp2287
g2168
atp2288
Rp2289
(dp2290
g16
V''
p2291
sbatp2292
Rp2293
(dp2294
g16
VNP
p2295
sbatp2296
Rp2297
(dp2298
g16
VVP
p2299
sbatp2300
Rp2301
(dp2302
g16
g61
sbatp2303
Rp2304
(dp2305
g16
VVP
p2306
sbatp2307
Rp2308
(dp2309
g16
VVP
p2310
sbatp2311
Rp2312
(dp2313
g16
g61
sbatp2314
Rp2315
(dp2316
g16
VSBAR
p2317
sbatp2318
Rp2319
(dp2320
g16
VNP
p2321
sbag5
(g6
g7
(lp2322
g5
(g6
g7
(lp2323
Vis
p2324
atp2325
Rp2326
(dp2327
g16
VVBZ
p2328
sbag5
(g6
g7
(lp2329
g5
(g6
g7
(lp2330
Vcomposed
p2331
atp2332
Rp2333
(dp2334
g16
VVBN
p2335
sbag5
(g6
g7
(lp2336
g5
(g6
g7
(lp2337
Vof
p2338
atp2339
Rp2340
(dp2341
g16
VIN
p2342
sbag5
(g6
g7
(lp2343
g5
(g6
g7
(lp2344
g5
(g6
g7
(lp2345
g612
atp2346
Rp2347
(dp2348
g16
VDT
p2349
sbag5
(g6
g7
(lp2350
Vdeletion
p2351
atp2352
Rp2353
(dp2354
g16
VNN
p2355
sbatp2356
Rp2357
(dp2358
g16
VNP
p2359
sbag5
(g6
g7
(lp2360
g5
(g6
g7
(lp2361
Vof
p2362
atp2363
Rp2364
(dp2365
g16
VIN
p2366
sbag5
(g6
g7
(lp2367
g5
(g6
g7
(lp2368
g5
(g6
g7
(lp2369
g5
(g6
g7
(lp2370
Vto
p2371
atp2372
Rp2373
(dp2374
g16
VTO
p2375
sbag5
(g6
g7
(lp2376
g5
(g6
g7
(lp2377
Vand
p2378
atp2379
Rp2380
(dp2381
g16
VCC
p2382
sbag5
(g6
g7
(lp2383
g5
(g6
g7
(lp2384
g612
atp2385
Rp2386
(dp2387
g16
VDT
p2388
sbag5
(g6
g7
(lp2389
Vsubstitution
p2390
atp2391
Rp2392
(dp2393
g16
VNN
p2394
sbatp2395
Rp2396
(dp2397
g16
VNP
p2398
sbag5
(g6
g7
(lp2399
g5
(g6
g7
(lp2400
Vfrom
p2401
atp2402
Rp2403
(dp2404
g16
VIN
p2405
sbag5
(g6
g7
(lp2406
g5
(g6
g7
(lp2407
g5
(g6
g7
(lp2408
Vchange
p2409
atp2410
Rp2411
(dp2412
g16
VNN
p2413
sbatp2414
Rp2415
(dp2416
g16
VNP
p2417
sbag5
(g6
g7
(lp2418
g5
(g6
g7
(lp2419
Vto
p2420
atp2421
Rp2422
(dp2423
g16
VTO
p2424
sbag5
(g6
g7
(lp2425
g5
(g6
g7
(lp2426
Vchanging
p2427
atp2428
Rp2429
(dp2430
g16
VVBG
p2431
sbatp2432
Rp2433
(dp2434
g16
VNP
p2435
sbatp2436
Rp2437
(dp2438
g16
VPP
p2439
sbatp2440
Rp2441
(dp2442
g16
VNP
p2443
sbatp2444
Rp2445
(dp2446
g16
VPP
p2447
sbatp2448
Rp2449
(dp2450
g16
VVP
p2451
sbatp2452
Rp2453
(dp2454
g16
VVP
p2455
sbatp2456
Rp2457
(dp2458
g16
g61
sbag5
(g6
g7
(lp2459
V;
p2460
atp2461
Rp2462
(dp2463
g16
V:
p2464
sbag5
(g6
g7
(lp2465
g5
(g6
g7
(lp2466
g5
(g6
g7
(lp2467
g5
(g6
g7
(lp2468
Vthe
p2469
atp2470
Rp2471
(dp2472
g16
VDT
p2473
sbag5
(g6
g7
(lp2474
Vcorrection
p2475
atp2476
Rp2477
(dp2478
g16
VNN
p2479
sbag5
(g6
g7
(lp2480
g2162
atp2481
Rp2482
(dp2483
g16
VNN
p2484
sbag5
(g6
g7
(lp2485
g2168
atp2486
Rp2487
(dp2488
g16
VPOS
p2489
sbatp2490
Rp2491
(dp2492
g16
VNP
p2493
sbag5
(g6
g7
(lp2494
V\u005c
p2495
atp2496
Rp2497
(dp2498
g16
VJJ
p2499
sbag5
(g6
g7
(lp2500
Vu201c
p2501
atp2502
Rp2503
(dp2504
g16
VJJ
p2505
sbag5
(g6
g7
(lp2506
g2168
atp2507
Rp2508
(dp2509
g16
V''
p2510
sbag5
(g6
g7
(lp2511
Vmoment
p2512
atp2513
Rp2514
(dp2515
g16
VNN
p2516
sbatp2517
Rp2518
(dp2519
g16
VNP
p2520
sbag5
(g6
g7
(lp2521
g5
(g6
g7
(lp2522
g2162
atp2523
Rp2524
(dp2525
g16
VVBP
p2526
sbag5
(g6
g7
(lp2527
g2168
atp2528
Rp2529
(dp2530
g16
V``
p2531
sbag5
(g6
g7
(lp2532
g5
(g6
g7
(lp2533
g5
(g6
g7
(lp2534
V\u005c
p2535
atp2536
Rp2537
(dp2538
g16
VNNP
p2539
sbag5
(g6
g7
(lp2540
Vu21d2
p2541
atp2542
Rp2543
(dp2544
g16
VNNP
p2545
sbag5
(g6
g7
(lp2546
g2168
atp2547
Rp2548
(dp2549
g16
VPOS
p2550
sbatp2551
Rp2552
(dp2553
g16
VNP
p2554
sbag5
(g6
g7
(lp2555
g5
(g6
g7
(lp2556
Vminute
p2557
atp2558
Rp2559
(dp2560
g16
VJJ
p2561
sbag5
(g6
g7
(lp2562
g2162
atp2563
Rp2564
(dp2565
g16
VNN
p2566
sbag5
(g6
g7
(lp2567
g2168
atp2568
Rp2569
(dp2570
g16
VPOS
p2571
sbatp2572
Rp2573
(dp2574
g16
VNP
p2575
sbag5
(g6
g7
(lp2576
V\u005c
p2577
atp2578
Rp2579
(dp2580
g16
VNN
p2581
sbag5
(g6
g7
(lp2582
Vu201d
p2583
atp2584
Rp2585
(dp2586
g16
VNNS
p2587
sbatp2588
Rp2589
(dp2590
g16
VNP
p2591
sbag5
(g6
g7
(lp2592
g2168
atp2593
Rp2594
(dp2595
g16
V''
p2596
sbatp2597
Rp2598
(dp2599
g16
VVP
p2600
sbatp2601
Rp2602
(dp2603
g16
VNP
p2604
sbatp2605
Rp2606
(dp2607
g16
VNP
p2608
sbatp2609
Rp2610
(dp2611
g16
VPP
p2612
sbatp2613
Rp2614
(dp2615
g16
VNP
p2616
sbatp2617
Rp2618
(dp2619
g16
VPP
p2620
sbatp2621
Rp2622
(dp2623
g16
VVP
p2624
sbatp2625
Rp2626
(dp2627
g16
VVP
p2628
sbatp2629
Rp2630
(dp2631
g16
g61
sbag5
(g6
g7
(lp2632
g5
(g6
g7
(lp2633
Vis
p2634
atp2635
Rp2636
(dp2637
g16
VVBZ
p2638
sbag5
(g6
g7
(lp2639
g5
(g6
g7
(lp2640
Vitself
p2641
atp2642
Rp2643
(dp2644
g16
VPRP
p2645
sbatp2646
Rp2647
(dp2648
g16
VNP
p2649
sbatp2650
Rp2651
(dp2652
g16
VVP
p2653
sbag5
(g6
g7
(lp2654
g5
(g6
g7
(lp2655
g612
atp2656
Rp2657
(dp2658
g16
VDT
p2659
sbag5
(g6
g7
(lp2660
Vsingle
p2661
atp2662
Rp2663
(dp2664
g16
VJJ
p2665
sbag5
(g6
g7
(lp2666
Vword
p2667
atp2668
Rp2669
(dp2670
g16
VNN
p2671
sbag5
(g6
g7
(lp2672
Vsubstitution
p2673
atp2674
Rp2675
(dp2676
g16
VNN
p2677
sbatp2678
Rp2679
(dp2680
g16
VNP
p2681
sbatp2682
Rp2683
(dp2684
g16
VSINV
p2685
sbatp2686
Rp2687
(dp2688
g16
VROOT
p2689
sbag5
(g6
g7
(lp2690
g5
(g6
g7
(lp2691
g5
(g6
g7
(lp2692
g5
(g6
g7
(lp2693
VThus
p2694
atp2695
Rp2696
(dp2697
g16
VRB
p2698
sbatp2699
Rp2700
(dp2701
g16
VADVP
p2702
sbag5
(g6
g7
(lp2703
g67
atp2704
Rp2705
(dp2706
g16
g67
sbag5
(g6
g7
(lp2707
g5
(g6
g7
(lp2708
Vwe
p2709
atp2710
Rp2711
(dp2712
g16
VPRP
p2713
sbatp2714
Rp2715
(dp2716
g16
VNP
p2717
sbag5
(g6
g7
(lp2718
g5
(g6
g7
(lp2719
Vcan
p2720
atp2721
Rp2722
(dp2723
g16
VMD
p2724
sbag5
(g6
g7
(lp2725
g5
(g6
g7
(lp2726
Vbuild
p2727
atp2728
Rp2729
(dp2730
g16
VVB
p2731
sbag5
(g6
g7
(lp2732
g5
(g6
g7
(lp2733
g5
(g6
g7
(lp2734
Vsystems
p2735
atp2736
Rp2737
(dp2738
g16
VNNS
p2739
sbatp2740
Rp2741
(dp2742
g16
VNP
p2743
sbag5
(g6
g7
(lp2744
g5
(g6
g7
(lp2745
Vto
p2746
atp2747
Rp2748
(dp2749
g16
VTO
p2750
sbag5
(g6
g7
(lp2751
g5
(g6
g7
(lp2752
Vdetect
p2753
atp2754
Rp2755
(dp2756
g16
VVB
p2757
sbag5
(g6
g7
(lp2758
g5
(g6
g7
(lp2759
g5
(g6
g7
(lp2760
Vcorrections
p2761
atp2762
Rp2763
(dp2764
g16
VNNS
p2765
sbatp2766
Rp2767
(dp2768
g16
VNP
p2769
sbag5
(g6
g7
(lp2770
g5
(g6
g7
(lp2771
g5
(g6
g7
(lp2772
Vwhich
p2773
atp2774
Rp2775
(dp2776
g16
VWDT
p2777
sbatp2778
Rp2779
(dp2780
g16
VWHNP
p2781
sbag5
(g6
g7
(lp2782
g5
(g6
g7
(lp2783
g5
(g6
g7
(lp2784
Voperates
p2785
atp2786
Rp2787
(dp2788
g16
VVBZ
p2789
sbag5
(g6
g7
(lp2790
g5
(g6
g7
(lp2791
Vin
p2792
atp2793
Rp2794
(dp2795
g16
VIN
p2796
sbag5
(g6
g7
(lp2797
g5
(g6
g7
(lp2798
Vtwo
p2799
atp2800
Rp2801
(dp2802
g16
VCD
p2803
sbag5
(g6
g7
(lp2804
Vsteps
p2805
atp2806
Rp2807
(dp2808
g16
VNNS
p2809
sbatp2810
Rp2811
(dp2812
g16
VNP
p2813
sbatp2814
Rp2815
(dp2816
g16
VPP
p2817
sbatp2818
Rp2819
(dp2820
g16
VVP
p2821
sbatp2822
Rp2823
(dp2824
g16
g61
sbatp2825
Rp2826
(dp2827
g16
VSBAR
p2828
sbatp2829
Rp2830
(dp2831
g16
VNP
p2832
sbatp2833
Rp2834
(dp2835
g16
VVP
p2836
sbatp2837
Rp2838
(dp2839
g16
VVP
p2840
sbatp2841
Rp2842
(dp2843
g16
g61
sbatp2844
Rp2845
(dp2846
g16
VVP
p2847
sbatp2848
Rp2849
(dp2850
g16
VVP
p2851
sbatp2852
Rp2853
(dp2854
g16
g61
sbatp2855
Rp2856
(dp2857
g16
VROOT
p2858
sbasg211
(icmyPackage
CorE
p2859
(dp2860
g214
(lp2861
(I0
I0
tp2862
a(I0
I67
tp2863
asg218
g2687
sbsg219
(icmyPackage
CorE
p2864
(dp2865
g214
(lp2866
(I1
I1
tp2867
a(I1
I13
tp2868
asg218
g5
(g6
g7
(lp2869
g2705
ag2715
ag2849
atp2870
Rp2871
(dp2872
g16
g229
sbsbsg230
(icmyPackage
pattern
p2873
(dp2874
g233
I35
sg234
I1
sg235
(lp2875
(lp2876
S'thus'
p2877
aasg241
(lp2878
I1
aI1
aI1
asg243
(lp2879
S'Japan will be on the dark side of the Earth, and thus will lack the warming influence of the Sun.'
p2880
asg246
I2
sg247
(lp2881
(lp2882
S'&C'
p2883
aS'(,/;/./--)'
p2884
aS'(&AND)'
p2885
aa(lp2886
S'&R'
p2887
aasbsg254
(lp2888
(isxpPackage
sxpSent
p2889
(dp2890
g258
(lp2891
I7
asg260
VIn the example shown in Figure 1 , the correction u'\u005cu201c' to change u'\u005cu21d2' changing u'\u005cu201d' is composed of a deletion of to and a substitution from change to changing ; the correction u'\u005cu201c' moment u'\u005cu21d2' minute u'\u005cu201d' is itself a single word substitution
p2892
sg262
I3
sg246
I24
sg263
I5
sba(isxpPackage
sxpSent
p2893
(dp2894
g258
(lp2895
I7
asg260
VThus, we can build systems to detect corrections which operates in two steps
p2896
sg262
I3
sg246
I25
sg263
I5
sbasba(icmyPackage
CELink
p2897
(dp2898
g3
(lp2899
g5
(g6
g7
(lp2900
g5
(g6
g7
(lp2901
g5
(g6
g7
(lp2902
g5
(g6
g7
(lp2903
VIn
p2904
atp2905
Rp2906
(dp2907
g16
VIN
p2908
sbag5
(g6
g7
(lp2909
g5
(g6
g7
(lp2910
Vpractice
p2911
atp2912
Rp2913
(dp2914
g16
VNN
p2915
sbatp2916
Rp2917
(dp2918
g16
VNP
p2919
sbatp2920
Rp2921
(dp2922
g16
VPP
p2923
sbag5
(g6
g7
(lp2924
g67
atp2925
Rp2926
(dp2927
g16
g67
sbag5
(g6
g7
(lp2928
g5
(g6
g7
(lp2929
Vhowever
p2930
atp2931
Rp2932
(dp2933
g16
VRB
p2934
sbatp2935
Rp2936
(dp2937
g16
VADVP
p2938
sbag5
(g6
g7
(lp2939
g67
atp2940
Rp2941
(dp2942
g16
g67
sbag5
(g6
g7
(lp2943
g5
(g6
g7
(lp2944
Vthis
p2945
atp2946
Rp2947
(dp2948
g16
VDT
p2949
sbag5
(g6
g7
(lp2950
Vtwo-step
p2951
atp2952
Rp2953
(dp2954
g16
VJJ
p2955
sbag5
(g6
g7
(lp2956
Vapproach
p2957
atp2958
Rp2959
(dp2960
g16
VNN
p2961
sbatp2962
Rp2963
(dp2964
g16
VNP
p2965
sbag5
(g6
g7
(lp2966
g5
(g6
g7
(lp2967
Vmay
p2968
atp2969
Rp2970
(dp2971
g16
VMD
p2972
sbag5
(g6
g7
(lp2973
g5
(g6
g7
(lp2974
Vresult
p2975
atp2976
Rp2977
(dp2978
g16
VVB
p2979
sbag5
(g6
g7
(lp2980
g5
(g6
g7
(lp2981
Vin
p2982
atp2983
Rp2984
(dp2985
g16
VIN
p2986
sbag5
(g6
g7
(lp2987
g5
(g6
g7
(lp2988
g5
(g6
g7
(lp2989
Vmis-detections
p2990
atp2991
Rp2992
(dp2993
g16
VNNS
p2994
sbatp2995
Rp2996
(dp2997
g16
VNP
p2998
sbag5
(g6
g7
(lp2999
g5
(g6
g7
(lp3000
Vdue
p3001
atp3002
Rp3003
(dp3004
g16
VJJ
p3005
sbag5
(g6
g7
(lp3006
g5
(g6
g7
(lp3007
Vto
p3008
atp3009
Rp3010
(dp3011
g16
VTO
p3012
sbag5
(g6
g7
(lp3013
g5
(g6
g7
(lp3014
Vambiguities
p3015
atp3016
Rp3017
(dp3018
g16
VNNS
p3019
sbatp3020
Rp3021
(dp3022
g16
VNP
p3023
sbatp3024
Rp3025
(dp3026
g16
VPP
p3027
sbatp3028
Rp3029
(dp3030
g16
VADJP
p3031
sbatp3032
Rp3033
(dp3034
g16
VNP
p3035
sbatp3036
Rp3037
(dp3038
g16
VPP
p3039
sbatp3040
Rp3041
(dp3042
g16
VVP
p3043
sbatp3044
Rp3045
(dp3046
g16
VVP
p3047
sbatp3048
Rp3049
(dp3050
g16
g61
sbatp3051
Rp3052
(dp3053
g16
VROOT
p3054
sbasg211
(icmyPackage
CorE
p3055
(dp3056
g214
(lp3057
(I0
I14
tp3058
ag3058
asg218
g3021
sbsg219
(icmyPackage
CorE
p3059
(dp3060
g214
(lp3061
(I0
I0
tp3062
a(I0
I11
tp3063
asg218
g5
(g6
g7
(lp3064
g2921
ag2926
ag2936
ag2941
ag2963
ag2970
ag2977
ag2984
ag2996
atp3065
Rp3066
(dp3067
g16
g229
sbsbsg230
(icmyPackage
pattern
p3068
(dp3069
g233
I0
sg234
I0
sg235
(lp3070
(lp3071
S'due'
p3072
aS'to'
p3073
aasg241
(lp3074
I2
aI1
aI1
asg243
(lp3075
S'Data stored on hard disks is at higher risk due to the mechanical nature of the device.'
p3076
asg246
I72
sg247
(lp3077
(lp3078
S'&R'
p3079
aa(lp3080
S'&NP@C@'
p3081
aasbsg254
(lp3082
(isxpPackage
sxpSent
p3083
(dp3084
g258
(lp3085
I8
asg260
VIn practice, however, this two-step approach may result in mis-detections due to ambiguities
p3086
sg262
I3
sg246
I28
sg263
I6
sbasba(icmyPackage
CELink
p3087
(dp3088
g3
(lp3089
g5
(g6
g7
(lp3090
g5
(g6
g7
(lp3091
g5
(g6
g7
(lp3092
g5
(g6
g7
(lp3093
VBecause
p3094
atp3095
Rp3096
(dp3097
g16
VIN
p3098
sbag5
(g6
g7
(lp3099
g5
(g6
g7
(lp3100
g5
(g6
g7
(lp3101
Vthe
p3102
atp3103
Rp3104
(dp3105
g16
VDT
p3106
sbag5
(g6
g7
(lp3107
VLevenshtein
p3108
atp3109
Rp3110
(dp3111
g16
VNNP
p3112
sbag5
(g6
g7
(lp3113
Valgorithm
p3114
atp3115
Rp3116
(dp3117
g16
VNN
p3118
sbatp3119
Rp3120
(dp3121
g16
VNP
p3122
sbag5
(g6
g7
(lp3123
g5
(g6
g7
(lp3124
Vonly
p3125
atp3126
Rp3127
(dp3128
g16
VRB
p3129
sbatp3130
Rp3131
(dp3132
g16
VADVP
p3133
sbag5
(g6
g7
(lp3134
g5
(g6
g7
(lp3135
Vtries
p3136
atp3137
Rp3138
(dp3139
g16
VVBZ
p3140
sbag5
(g6
g7
(lp3141
g5
(g6
g7
(lp3142
g5
(g6
g7
(lp3143
Vto
p3144
atp3145
Rp3146
(dp3147
g16
VTO
p3148
sbag5
(g6
g7
(lp3149
g5
(g6
g7
(lp3150
Vminimize
p3151
atp3152
Rp3153
(dp3154
g16
VVB
p3155
sbag5
(g6
g7
(lp3156
g5
(g6
g7
(lp3157
g5
(g6
g7
(lp3158
Vthe
p3159
atp3160
Rp3161
(dp3162
g16
VDT
p3163
sbag5
(g6
g7
(lp3164
Vnumber
p3165
atp3166
Rp3167
(dp3168
g16
VNN
p3169
sbatp3170
Rp3171
(dp3172
g16
VNP
p3173
sbag5
(g6
g7
(lp3174
g5
(g6
g7
(lp3175
Vof
p3176
atp3177
Rp3178
(dp3179
g16
VIN
p3180
sbag5
(g6
g7
(lp3181
g5
(g6
g7
(lp3182
Vedits
p3183
atp3184
Rp3185
(dp3186
g16
VNNS
p3187
sbatp3188
Rp3189
(dp3190
g16
VNP
p3191
sbatp3192
Rp3193
(dp3194
g16
VPP
p3195
sbatp3196
Rp3197
(dp3198
g16
VNP
p3199
sbatp3200
Rp3201
(dp3202
g16
VVP
p3203
sbatp3204
Rp3205
(dp3206
g16
VVP
p3207
sbatp3208
Rp3209
(dp3210
g16
g61
sbatp3211
Rp3212
(dp3213
g16
VVP
p3214
sbatp3215
Rp3216
(dp3217
g16
g61
sbatp3218
Rp3219
(dp3220
g16
VSBAR
p3221
sbag5
(g6
g7
(lp3222
g67
atp3223
Rp3224
(dp3225
g16
g67
sbag5
(g6
g7
(lp3226
g5
(g6
g7
(lp3227
Vit
p3228
atp3229
Rp3230
(dp3231
g16
VPRP
p3232
sbatp3233
Rp3234
(dp3235
g16
VNP
p3236
sbag5
(g6
g7
(lp3237
g5
(g6
g7
(lp3238
Vdoes
p3239
atp3240
Rp3241
(dp3242
g16
VVBZ
p3243
sbag5
(g6
g7
(lp3244
Vnot
p3245
atp3246
Rp3247
(dp3248
g16
VRB
p3249
sbag5
(g6
g7
(lp3250
g5
(g6
g7
(lp3251
Vcare
p3252
atp3253
Rp3254
(dp3255
g16
VVB
p3256
sbag5
(g6
g7
(lp3257
g5
(g6
g7
(lp3258
Vwhether
p3259
atp3260
Rp3261
(dp3262
g16
VIN
p3263
sbag5
(g6
g7
(lp3264
g5
(g6
g7
(lp3265
g5
(g6
g7
(lp3266
Vthe
p3267
atp3268
Rp3269
(dp3270
g16
VDT
p3271
sbag5
(g6
g7
(lp3272
Vedits
p3273
atp3274
Rp3275
(dp3276
g16
VNNS
p3277
sbatp3278
Rp3279
(dp3280
g16
VNP
p3281
sbag5
(g6
g7
(lp3282
g5
(g6
g7
(lp3283
Vmake
p3284
atp3285
Rp3286
(dp3287
g16
VVBP
p3288
sbag5
(g6
g7
(lp3289
g5
(g6
g7
(lp3290
Vany
p3291
atp3292
Rp3293
(dp3294
g16
VDT
p3295
sbag5
(g6
g7
(lp3296
Vlinguistic
p3297
atp3298
Rp3299
(dp3300
g16
VJJ
p3301
sbag5
(g6
g7
(lp3302
Vsense
p3303
atp3304
Rp3305
(dp3306
g16
VNN
p3307
sbatp3308
Rp3309
(dp3310
g16
VNP
p3311
sbatp3312
Rp3313
(dp3314
g16
VVP
p3315
sbatp3316
Rp3317
(dp3318
g16
g61
sbatp3319
Rp3320
(dp3321
g16
VSBAR
p3322
sbatp3323
Rp3324
(dp3325
g16
VVP
p3326
sbatp3327
Rp3328
(dp3329
g16
VVP
p3330
sbatp3331
Rp3332
(dp3333
g16
g61
sbatp3334
Rp3335
(dp3336
g16
VROOT
p3337
sbasg211
(icmyPackage
CorE
p3338
(dp3339
g214
(lp3340
(I0
I1
tp3341
a(I0
I11
tp3342
asg218
g3216
sbsg219
(icmyPackage
CorE
p3343
(dp3344
g214
(lp3345
(I0
I13
tp3346
a(I0
I23
tp3347
asg218
g5
(g6
g7
(lp3348
g3234
ag3328
atp3349
Rp3350
(dp3351
g16
g229
sbsbsg230
g231
sg254
(lp3352
(isxpPackage
sxpSent
p3353
(dp3354
g258
(lp3355
I9
asg260
VBecause the Levenshtein algorithm only tries to minimize the number of edits, it does not care whether the edits make any linguistic sense
p3356
sg262
I3
sg246
I31
sg263
I6
sbasba(icmyPackage
CELink
p3357
(dp3358
g3
(lp3359
g5
(g6
g7
(lp3360
g5
(g6
g7
(lp3361
g5
(g6
g7
(lp3362
g5
(g6
g7
(lp3363
VSince
p3364
atp3365
Rp3366
(dp3367
g16
VIN
p3368
sbag5
(g6
g7
(lp3369
g5
(g6
g7
(lp3370
g5
(g6
g7
(lp3371
Vmis-detected
p3372
atp3373
Rp3374
(dp3375
g16
VJJ
p3376
sbag5
(g6
g7
(lp3377
Vcorrections
p3378
atp3379
Rp3380
(dp3381
g16
VNNS
p3382
sbatp3383
Rp3384
(dp3385
g16
VNP
p3386
sbag5
(g6
g7
(lp3387
g5
(g6
g7
(lp3388
Vcan
p3389
atp3390
Rp3391
(dp3392
g16
VMD
p3393
sbag5
(g6
g7
(lp3394
Vnot
p3395
atp3396
Rp3397
(dp3398
g16
VRB
p3399
sbag5
(g6
g7
(lp3400
g5
(g6
g7
(lp3401
Vbe
p3402
atp3403
Rp3404
(dp3405
g16
VVB
p3406
sbag5
(g6
g7
(lp3407
g5
(g6
g7
(lp3408
Vanalyzed
p3409
atp3410
Rp3411
(dp3412
g16
VVBN
p3413
sbag5
(g6
g7
(lp3414
g5
(g6
g7
(lp3415
Vdown
p3416
atp3417
Rp3418
(dp3419
g16
VRP
p3420
sbatp3421
Rp3422
(dp3423
g16
VPRT
p3424
sbag5
(g6
g7
(lp3425
g5
(g6
g7
(lp3426
Vthe
p3427
atp3428
Rp3429
(dp3430
g16
VDT
p3431
sbag5
(g6
g7
(lp3432
Vpipeline
p3433
atp3434
Rp3435
(dp3436
g16
VNN
p3437
sbatp3438
Rp3439
(dp3440
g16
VNP
p3441
sbatp3442
Rp3443
(dp3444
g16
VVP
p3445
sbatp3446
Rp3447
(dp3448
g16
VVP
p3449
sbatp3450
Rp3451
(dp3452
g16
VVP
p3453
sbatp3454
Rp3455
(dp3456
g16
g61
sbatp3457
Rp3458
(dp3459
g16
VSBAR
p3460
sbag5
(g6
g7
(lp3461
g67
atp3462
Rp3463
(dp3464
g16
g67
sbag5
(g6
g7
(lp3465
g5
(g6
g7
(lp3466
Vthe
p3467
atp3468
Rp3469
(dp3470
g16
VDT
p3471
sbag5
(g6
g7
(lp3472
Vcorrection
p3473
atp3474
Rp3475
(dp3476
g16
VNN
p3477
sbag5
(g6
g7
(lp3478
Vdetection
p3479
atp3480
Rp3481
(dp3482
g16
VNN
p3483
sbag5
(g6
g7
(lp3484
Vcomponent
p3485
atp3486
Rp3487
(dp3488
g16
VNN
p3489
sbatp3490
Rp3491
(dp3492
g16
VNP
p3493
sbag5
(g6
g7
(lp3494
g5
(g6
g7
(lp3495
Vbecame
p3496
atp3497
Rp3498
(dp3499
g16
VVBD
p3500
sbag5
(g6
g7
(lp3501
g5
(g6
g7
(lp3502
g5
(g6
g7
(lp3503
Vthe
p3504
atp3505
Rp3506
(dp3507
g16
VDT
p3508
sbag5
(g6
g7
(lp3509
Vbottle-neck
p3510
atp3511
Rp3512
(dp3513
g16
VNN
p3514
sbatp3515
Rp3516
(dp3517
g16
VNP
p3518
sbag5
(g6
g7
(lp3519
g5
(g6
g7
(lp3520
Vof
p3521
atp3522
Rp3523
(dp3524
g16
VIN
p3525
sbag5
(g6
g7
(lp3526
g5
(g6
g7
(lp3527
Vtheir
p3528
atp3529
Rp3530
(dp3531
g16
VPRP$
p3532
sbag5
(g6
g7
(lp3533
Voverall
p3534
atp3535
Rp3536
(dp3537
g16
VJJ
p3538
sbag5
(g6
g7
(lp3539
Vsystem
p3540
atp3541
Rp3542
(dp3543
g16
VNN
p3544
sbatp3545
Rp3546
(dp3547
g16
VNP
p3548
sbatp3549
Rp3550
(dp3551
g16
VPP
p3552
sbatp3553
Rp3554
(dp3555
g16
VNP
p3556
sbatp3557
Rp3558
(dp3559
g16
VVP
p3560
sbatp3561
Rp3562
(dp3563
g16
g61
sbatp3564
Rp3565
(dp3566
g16
VROOT
p3567
sbasg211
(icmyPackage
CorE
p3568
(dp3569
g214
(lp3570
(I0
I1
tp3571
a(I0
I9
tp3572
asg218
g3455
sbsg219
(icmyPackage
CorE
p3573
(dp3574
g214
(lp3575
(I0
I11
tp3576
a(I0
I21
tp3577
asg218
g5
(g6
g7
(lp3578
g3491
ag3558
atp3579
Rp3580
(dp3581
g16
g229
sbsbsg230
(icmyPackage
pattern
p3582
(dp3583
g233
I15
sg234
I0
sg235
(lp3584
(lp3585
S'since'
p3586
aa(lp3587
g240
aasg241
(lp3588
I3
aI1
aI1
asg243
(lp3589
S'But, since the herpes virus does not always show its symptoms, prevention is not fool proof.'
p3590
asg246
I78
sg247
(lp3591
(lp3592
a(lp3593
S'&C@NCTime@'
p3594
aa(lp3595
S'&R@NCTime@'
p3596
aasbsg254
(lp3597
(isxpPackage
sxpSent
p3598
(dp3599
g258
(lp3600
I10
asg260
VSince mis-detected corrections cannot be analyzed down the pipeline, the correction detection component became the bottle-neck of their overall system
p3601
sg262
I3
sg246
I37
sg263
I9
sbasba(icmyPackage
CELink
p3602
(dp3603
g3
(lp3604
g5
(g6
g7
(lp3605
g5
(g6
g7
(lp3606
g5
(g6
g7
(lp3607
g5
(g6
g7
(lp3608
VIf
p3609
atp3610
Rp3611
(dp3612
g16
VIN
p3613
sbag5
(g6
g7
(lp3614
g5
(g6
g7
(lp3615
g5
(g6
g7
(lp3616
Vthe
p3617
atp3618
Rp3619
(dp3620
g16
VDT
p3621
sbag5
(g6
g7
(lp3622
Vresulting
p3623
atp3624
Rp3625
(dp3626
g16
VVBG
p3627
sbag5
(g6
g7
(lp3628
Vbasic
p3629
atp3630
Rp3631
(dp3632
g16
VJJ
p3633
sbag5
(g6
g7
(lp3634
Vedits
p3635
atp3636
Rp3637
(dp3638
g16
VNNS
p3639
sbatp3640
Rp3641
(dp3642
g16
VNP
p3643
sbag5
(g6
g7
(lp3644
g5
(g6
g7
(lp3645
Vdo
p3646
atp3647
Rp3648
(dp3649
g16
VVBP
p3650
sbag5
(g6
g7
(lp3651
Vnot
p3652
atp3653
Rp3654
(dp3655
g16
VRB
p3656
sbag5
(g6
g7
(lp3657
g5
(g6
g7
(lp3658
Vmatch
p3659
atp3660
Rp3661
(dp3662
g16
VVB
p3663
sbag5
(g6
g7
(lp3664
g5
(g6
g7
(lp3665
Vwith
p3666
atp3667
Rp3668
(dp3669
g16
VIN
p3670
sbag5
(g6
g7
(lp3671
g5
(g6
g7
(lp3672
g5
(g6
g7
(lp3673
Vthose
p3674
atp3675
Rp3676
(dp3677
g16
VDT
p3678
sbatp3679
Rp3680
(dp3681
g16
VNP
p3682
sbag5
(g6
g7
(lp3683
g5
(g6
g7
(lp3684
g5
(g6
g7
(lp3685
Vthat
p3686
atp3687
Rp3688
(dp3689
g16
VWDT
p3690
sbatp3691
Rp3692
(dp3693
g16
VWHNP
p3694
sbag5
(g6
g7
(lp3695
g5
(g6
g7
(lp3696
g5
(g6
g7
(lp3697
Vcompose
p3698
atp3699
Rp3700
(dp3701
g16
VVBP
p3702
sbag5
(g6
g7
(lp3703
g5
(g6
g7
(lp3704
Vthe
p3705
atp3706
Rp3707
(dp3708
g16
VDT
p3709
sbag5
(g6
g7
(lp3710
Vactual
p3711
atp3712
Rp3713
(dp3714
g16
VJJ
p3715
sbag5
(g6
g7
(lp3716
Vcorrections
p3717
atp3718
Rp3719
(dp3720
g16
VNNS
p3721
sbatp3722
Rp3723
(dp3724
g16
VNP
p3725
sbatp3726
Rp3727
(dp3728
g16
VVP
p3729
sbatp3730
Rp3731
(dp3732
g16
g61
sbatp3733
Rp3734
(dp3735
g16
VSBAR
p3736
sbatp3737
Rp3738
(dp3739
g16
VNP
p3740
sbatp3741
Rp3742
(dp3743
g16
VPP
p3744
sbatp3745
Rp3746
(dp3747
g16
VVP
p3748
sbatp3749
Rp3750
(dp3751
g16
VVP
p3752
sbatp3753
Rp3754
(dp3755
g16
g61
sbatp3756
Rp3757
(dp3758
g16
VSBAR
p3759
sbag5
(g6
g7
(lp3760
g67
atp3761
Rp3762
(dp3763
g16
g67
sbag5
(g6
g7
(lp3764
g5
(g6
g7
(lp3765
Vwe
p3766
atp3767
Rp3768
(dp3769
g16
VPRP
p3770
sbatp3771
Rp3772
(dp3773
g16
VNP
p3774
sbag5
(g6
g7
(lp3775
g5
(g6
g7
(lp3776
Vattribute
p3777
atp3778
Rp3779
(dp3780
g16
VVBP
p3781
sbag5
(g6
g7
(lp3782
g5
(g6
g7
(lp3783
Vthe
p3784
atp3785
Rp3786
(dp3787
g16
VDT
p3788
sbag5
(g6
g7
(lp3789
Verror
p3790
atp3791
Rp3792
(dp3793
g16
VNN
p3794
sbatp3795
Rp3796
(dp3797
g16
VNP
p3798
sbag5
(g6
g7
(lp3799
g5
(g6
g7
(lp3800
Vto
p3801
atp3802
Rp3803
(dp3804
g16
VTO
p3805
sbag5
(g6
g7
(lp3806
g5
(g6
g7
(lp3807
Vthe
p3808
atp3809
Rp3810
(dp3811
g16
VDT
p3812
sbag5
(g6
g7
(lp3813
Vfirst
p3814
atp3815
Rp3816
(dp3817
g16
VJJ
p3818
sbag5
(g6
g7
(lp3819
Vstep
p3820
atp3821
Rp3822
(dp3823
g16
VNN
p3824
sbatp3825
Rp3826
(dp3827
g16
VNP
p3828
sbatp3829
Rp3830
(dp3831
g16
VPP
p3832
sbatp3833
Rp3834
(dp3835
g16
VVP
p3836
sbatp3837
Rp3838
(dp3839
g16
g61
sbatp3840
Rp3841
(dp3842
g16
VROOT
p3843
sbasg211
(icmyPackage
CorE
p3844
(dp3845
g214
(lp3846
(I0
I1
tp3847
a(I0
I14
tp3848
asg218
g3754
sbsg219
(icmyPackage
CorE
p3849
(dp3850
g214
(lp3851
(I0
I16
tp3852
a(I0
I23
tp3853
asg218
g5
(g6
g7
(lp3854
g3772
ag3834
atp3855
Rp3856
(dp3857
g16
g229
sbsbsg230
(icmyPackage
pattern
p3858
(dp3859
g233
I0
sg234
I0
sg235
(lp3860
(lp3861
(lp3862
S'if'
p3863
aS'once'
p3864
aaa(lp3865
g240
aasg241
(lp3866
I1
aI1
aI1
asg243
(lp3867
S'If some light and mobile detection devices can be invented in the future, many new applications can be imagined, for example, people can get some services while thinking.'
p3868
asg246
I15
sg247
(lp3869
(lp3870
a(lp3871
S'&C@Complete@'
p3872
aa(lp3873
S'&R@Complete@'
p3874
aasbsg254
(lp3875
(isxpPackage
sxpSent
p3876
(dp3877
g258
(lp3878
I11
asg260
VIf the resulting basic edits do not match with those that compose the actual corrections, we attribute the error to the first step
p3879
sg262
I3
sg246
I43
sg263
I10
sbasba(icmyPackage
CELink
p3880
(dp3881
g3
(lp3882
g5
(g6
g7
(lp3883
g5
(g6
g7
(lp3884
g5
(g6
g7
(lp3885
g5
(g6
g7
(lp3886
VOur
p3887
atp3888
Rp3889
(dp3890
g16
VPRP$
p3891
sbag5
(g6
g7
(lp3892
Vanalysis
p3893
atp3894
Rp3895
(dp3896
g16
VNN
p3897
sbatp3898
Rp3899
(dp3900
g16
VNP
p3901
sbag5
(g6
g7
(lp3902
g5
(g6
g7
(lp3903
Vconfirms
p3904
atp3905
Rp3906
(dp3907
g16
VVBZ
p3908
sbag5
(g6
g7
(lp3909
g5
(g6
g7
(lp3910
Vthat
p3911
atp3912
Rp3913
(dp3914
g16
VIN
p3915
sbag5
(g6
g7
(lp3916
g5
(g6
g7
(lp3917
g5
(g6
g7
(lp3918
Vthe
p3919
atp3920
Rp3921
(dp3922
g16
VDT
p3923
sbag5
(g6
g7
(lp3924
Vmerging
p3925
atp3926
Rp3927
(dp3928
g16
VJJ
p3929
sbag5
(g6
g7
(lp3930
Vstep
p3931
atp3932
Rp3933
(dp3934
g16
VNN
p3935
sbatp3936
Rp3937
(dp3938
g16
VNP
p3939
sbag5
(g6
g7
(lp3940
g5
(g6
g7
(lp3941
Vis
p3942
atp3943
Rp3944
(dp3945
g16
VVBZ
p3946
sbag5
(g6
g7
(lp3947
g5
(g6
g7
(lp3948
g5
(g6
g7
(lp3949
g5
(g6
g7
(lp3950
Vthe
p3951
atp3952
Rp3953
(dp3954
g16
VDT
p3955
sbag5
(g6
g7
(lp3956
g5
(g6
g7
(lp3957
Vbottleneck
p3958
atp3959
Rp3960
(dp3961
g16
VNNP
p3962
sbag5
(g6
g7
(lp3963
g5
(g6
g7
(lp3964
Vin
p3965
atp3966
Rp3967
(dp3968
g16
VIN
p3969
sbag5
(g6
g7
(lp3970
g5
(g6
g7
(lp3971
Vthe
p3972
atp3973
Rp3974
(dp3975
g16
VDT
p3976
sbag5
(g6
g7
(lp3977
Vcurrent
p3978
atp3979
Rp3980
(dp3981
g16
VJJ
p3982
sbag5
(g6
g7
(lp3983
Vcorrection
p3984
atp3985
Rp3986
(dp3987
g16
VNN
p3988
sbatp3989
Rp3990
(dp3991
g16
VNP
p3992
sbatp3993
Rp3994
(dp3995
g16
VPP
p3996
sbatp3997
Rp3998
(dp3999
g16
VNAC
p4000
sbag5
(g6
g7
(lp4001
Vdetection
p4002
atp4003
Rp4004
(dp4005
g16
VNN
p4006
sbag5
(g6
g7
(lp4007
Vsystem
p4008
atp4009
Rp4010
(dp4011
g16
VNN
p4012
sbag5
(g6
g7
(lp4013
g2162
atp4014
Rp4015
(dp4016
g16
VNN
p4017
sbag5
(g6
g7
(lp4018
g2168
atp4019
Rp4020
(dp4021
g16
VPOS
p4022
sbatp4023
Rp4024
(dp4025
g16
VNP
p4026
sbag5
(g6
g7
(lp4027
V\u005c
p4028
atp4029
Rp4030
(dp4031
g16
VNNP
p4032
sbag5
(g6
g7
(lp4033
Vu2013
p4034
atp4035
Rp4036
(dp4037
g16
VNNP
p4038
sbag5
(g6
g7
(lp4039
g2168
atp4040
Rp4041
(dp4042
g16
V''
p4043
sbatp4044
Rp4045
(dp4046
g16
VNP
p4047
sbag5
(g6
g7
(lp4048
g5
(g6
g7
(lp4049
g5
(g6
g7
(lp4050
g5
(g6
g7
(lp4051
Vit
p4052
atp4053
Rp4054
(dp4055
g16
VPRP
p4056
sbatp4057
Rp4058
(dp4059
g16
VNP
p4060
sbag5
(g6
g7
(lp4061
g5
(g6
g7
(lp4062
Vaccounts
p4063
atp4064
Rp4065
(dp4066
g16
VVBZ
p4067
sbag5
(g6
g7
(lp4068
g5
(g6
g7
(lp4069
Vfor
p4070
atp4071
Rp4072
(dp4073
g16
VIN
p4074
sbag5
(g6
g7
(lp4075
g5
(g6
g7
(lp4076
g5
(g6
g7
(lp4077
V75
p4078
atp4079
Rp4080
(dp4081
g16
VCD
p4082
sbag5
(g6
g7
(lp4083
V%
p4084
atp4085
Rp4086
(dp4087
g16
VNN
p4088
sbatp4089
Rp4090
(dp4091
g16
VNP
p4092
sbag5
(g6
g7
(lp4093
g5
(g6
g7
(lp4094
Vof
p4095
atp4096
Rp4097
(dp4098
g16
VIN
p4099
sbag5
(g6
g7
(lp4100
g5
(g6
g7
(lp4101
Vthe
p4102
atp4103
Rp4104
(dp4105
g16
VDT
p4106
sbag5
(g6
g7
(lp4107
Vmis-detections
p4108
atp4109
Rp4110
(dp4111
g16
VNNS
p4112
sbatp4113
Rp4114
(dp4115
g16
VNP
p4116
sbatp4117
Rp4118
(dp4119
g16
VPP
p4120
sbatp4121
Rp4122
(dp4123
g16
VNP
p4124
sbatp4125
Rp4126
(dp4127
g16
VPP
p4128
sbatp4129
Rp4130
(dp4131
g16
VVP
p4132
sbatp4133
Rp4134
(dp4135
g16
g61
sbatp4136
Rp4137
(dp4138
g16
VSBAR
p4139
sbatp4140
Rp4141
(dp4142
g16
VNP
p4143
sbatp4144
Rp4145
(dp4146
g16
VVP
p4147
sbatp4148
Rp4149
(dp4150
g16
g61
sbatp4151
Rp4152
(dp4153
g16
VSBAR
p4154
sbatp4155
Rp4156
(dp4157
g16
VVP
p4158
sbatp4159
Rp4160
(dp4161
g16
g61
sbatp4162
Rp4163
(dp4164
g16
VROOT
p4165
sbag5
(g6
g7
(lp4166
g5
(g6
g7
(lp4167
g5
(g6
g7
(lp4168
g5
(g6
g7
(lp4169
g5
(g6
g7
(lp4170
g5
(g6
g7
(lp4171
VTherefore
p4172
atp4173
Rp4174
(dp4175
g16
VRB
p4176
sbatp4177
Rp4178
(dp4179
g16
VADVP
p4180
sbag5
(g6
g7
(lp4181
g67
atp4182
Rp4183
(dp4184
g16
g67
sbag5
(g6
g7
(lp4185
g5
(g6
g7
(lp4186
g5
(g6
g7
(lp4187
Vto
p4188
atp4189
Rp4190
(dp4191
g16
VTO
p4192
sbag5
(g6
g7
(lp4193
g5
(g6
g7
(lp4194
g5
(g6
g7
(lp4195
Veffectively
p4196
atp4197
Rp4198
(dp4199
g16
VRB
p4200
sbatp4201
Rp4202
(dp4203
g16
VADVP
p4204
sbag5
(g6
g7
(lp4205
Vreduce
p4206
atp4207
Rp4208
(dp4209
g16
VVB
p4210
sbag5
(g6
g7
(lp4211
g5
(g6
g7
(lp4212
g5
(g6
g7
(lp4213
Vthe
p4214
atp4215
Rp4216
(dp4217
g16
VDT
p4218
sbag5
(g6
g7
(lp4219
Valgorithm
p4220
atp4221
Rp4222
(dp4223
g16
VNN
p4224
sbag5
(g6
g7
(lp4225
g2162
atp4226
Rp4227
(dp4228
g16
VNN
p4229
sbag5
(g6
g7
(lp4230
g2168
atp4231
Rp4232
(dp4233
g16
VPOS
p4234
sbatp4235
Rp4236
(dp4237
g16
VNP
p4238
sbag5
(g6
g7
(lp4239
V\u005c
p4240
atp4241
Rp4242
(dp4243
g16
VJJ
p4244
sbag5
(g6
g7
(lp4245
Vu2019
p4246
atp4247
Rp4248
(dp4249
g16
VNNS
p4250
sbatp4251
Rp4252
(dp4253
g16
VNP
p4254
sbatp4255
Rp4256
(dp4257
g16
VVP
p4258
sbatp4259
Rp4260
(dp4261
g16
VVP
p4262
sbatp4263
Rp4264
(dp4265
g16
g61
sbag5
(g6
g7
(lp4266
g2168
atp4267
Rp4268
(dp4269
g16
V''
p4270
sbag5
(g6
g7
(lp4271
g5
(g6
g7
(lp4272
Vs
p4273
atp4274
Rp4275
(dp4276
g16
VVBZ
p4277
sbag5
(g6
g7
(lp4278
g5
(g6
g7
(lp4279
Vmis-detection
p4280
atp4281
Rp4282
(dp4283
g16
VJJ
p4284
sbag5
(g6
g7
(lp4285
Verrors
p4286
atp4287
Rp4288
(dp4289
g16
VNNS
p4290
sbatp4291
Rp4292
(dp4293
g16
VNP
p4294
sbatp4295
Rp4296
(dp4297
g16
VVP
p4298
sbatp4299
Rp4300
(dp4301
g16
g61
sbag5
(g6
g7
(lp4302
g67
atp4303
Rp4304
(dp4305
g16
g67
sbag5
(g6
g7
(lp4306
g5
(g6
g7
(lp4307
Vwe
p4308
atp4309
Rp4310
(dp4311
g16
VPRP
p4312
sbatp4313
Rp4314
(dp4315
g16
VNP
p4316
sbag5
(g6
g7
(lp4317
g5
(g6
g7
(lp4318
Vpropose
p4319
atp4320
Rp4321
(dp4322
g16
VVBP
p4323
sbag5
(g6
g7
(lp4324
g5
(g6
g7
(lp4325
g5
(g6
g7
(lp4326
Vto
p4327
atp4328
Rp4329
(dp4330
g16
VTO
p4331
sbag5
(g6
g7
(lp4332
g5
(g6
g7
(lp4333
Vbuild
p4334
atp4335
Rp4336
(dp4337
g16
VVB
p4338
sbag5
(g6
g7
(lp4339
g5
(g6
g7
(lp4340
g612
atp4341
Rp4342
(dp4343
g16
VDT
p4344
sbag5
(g6
g7
(lp4345
Vclassifier
p4346
atp4347
Rp4348
(dp4349
g16
VNN
p4350
sbag5
(g6
g7
(lp4351
g5
(g6
g7
(lp4352
g5
(g6
g7
(lp4353
Vto
p4354
atp4355
Rp4356
(dp4357
g16
VTO
p4358
sbag5
(g6
g7
(lp4359
g5
(g6
g7
(lp4360
Vmerge
p4361
atp4362
Rp4363
(dp4364
g16
VVB
p4365
sbag5
(g6
g7
(lp4366
g5
(g6
g7
(lp4367
Vwith
p4368
atp4369
Rp4370
(dp4371
g16
VIN
p4372
sbag5
(g6
g7
(lp4373
g5
(g6
g7
(lp4374
Vbetter
p4375
atp4376
Rp4377
(dp4378
g16
VJJR
p4379
sbag5
(g6
g7
(lp4380
Vaccuracies
p4381
atp4382
Rp4383
(dp4384
g16
VNNS
p4385
sbatp4386
Rp4387
(dp4388
g16
VNP
p4389
sbatp4390
Rp4391
(dp4392
g16
VPP
p4393
sbatp4394
Rp4395
(dp4396
g16
VVP
p4397
sbatp4398
Rp4399
(dp4400
g16
VVP
p4401
sbatp4402
Rp4403
(dp4404
g16
g61
sbatp4405
Rp4406
(dp4407
g16
VNP
p4408
sbatp4409
Rp4410
(dp4411
g16
VVP
p4412
sbatp4413
Rp4414
(dp4415
g16
VVP
p4416
sbatp4417
Rp4418
(dp4419
g16
g61
sbatp4420
Rp4421
(dp4422
g16
VVP
p4423
sbatp4424
Rp4425
(dp4426
g16
g61
sbatp4427
Rp4428
(dp4429
g16
VNP
p4430
sbatp4431
Rp4432
(dp4433
g16
VROOT
p4434
sbasg211
(icmyPackage
CorE
p4435
(dp4436
g214
(lp4437
(I0
I0
tp4438
a(I0
I28
tp4439
asg218
g4163
sbsg219
(icmyPackage
CorE
p4440
(dp4441
g214
(lp4442
(I1
I2
tp4443
a(I1
I26
tp4444
asg218
g5
(g6
g7
(lp4445
g4264
ag4268
ag4296
ag4304
ag4314
ag4421
atp4446
Rp4447
(dp4448
g16
g229
sbsbsg230
(icmyPackage
pattern
p4449
(dp4450
g233
I62
sg234
I1
sg235
(lp4451
(lp4452
S'therefore'
p4453
aasg241
(lp4454
I1
aI1
aI1
asg243
(lp4455
S'He never lies; therefore, everyone likes to make friends with him.'
p4456
asg246
I1
sg247
(lp4457
(lp4458
S'&C'
p4459
aS'(,/;/./--)'
p4460
aS'(&AND)'
p4461
aa(lp4462
S'(,)'
p4463
aS'&R'
p4464
aasbsg254
(lp4465
(isxpPackage
sxpSent
p4466
(dp4467
g258
(lp4468
I12
asg260
VOur analysis confirms that the merging step is the bottleneck in the current correction detection system u'\u005cu2013' it accounts for 75% of the mis-detections
p4469
sg262
I3
sg246
I45
sg263
I10
sba(isxpPackage
sxpSent
p4470
(dp4471
g258
(lp4472
I12
asg260
VTherefore, to effectively reduce the algorithm u'\u005cu2019' s mis-detection errors, we propose to build a classifier to merge with better accuracies
p4473
sg262
I3
sg246
I46
sg263
I10
sbasba(icmyPackage
CELink
p4474
(dp4475
g3
(lp4476
g5
(g6
g7
(lp4477
g5
(g6
g7
(lp4478
g5
(g6
g7
(lp4479
g5
(g6
g7
(lp4480
VA
p4481
atp4482
Rp4483
(dp4484
g16
VDT
p4485
sbag5
(g6
g7
(lp4486
Vbigger
p4487
atp4488
Rp4489
(dp4490
g16
VJJR
p4491
sbag5
(g6
g7
(lp4492
Vconcern
p4493
atp4494
Rp4495
(dp4496
g16
VNN
p4497
sbatp4498
Rp4499
(dp4500
g16
VNP
p4501
sbag5
(g6
g7
(lp4502
g5
(g6
g7
(lp4503
Vis
p4504
atp4505
Rp4506
(dp4507
g16
VVBZ
p4508
sbag5
(g6
g7
(lp4509
g5
(g6
g7
(lp4510
g5
(g6
g7
(lp4511
Vto
p4512
atp4513
Rp4514
(dp4515
g16
VTO
p4516
sbag5
(g6
g7
(lp4517
g5
(g6
g7
(lp4518
Vguarantee
p4519
atp4520
Rp4521
(dp4522
g16
VVB
p4523
sbag5
(g6
g7
(lp4524
g5
(g6
g7
(lp4525
g5
(g6
g7
(lp4526
Vthe
p4527
atp4528
Rp4529
(dp4530
g16
VDT
p4531
sbag5
(g6
g7
(lp4532
Vextracted
p4533
atp4534
Rp4535
(dp4536
g16
VJJ
p4537
sbag5
(g6
g7
(lp4538
Vphrase
p4539
atp4540
Rp4541
(dp4542
g16
VNN
p4543
sbatp4544
Rp4545
(dp4546
g16
VNP
p4547
sbag5
(g6
g7
(lp4548
g5
(g6
g7
(lp4549
g5
(g6
g7
(lp4550
g5
(g6
g7
(lp4551
Vpairs
p4552
atp4553
Rp4554
(dp4555
g16
VNNS
p4556
sbatp4557
Rp4558
(dp4559
g16
VNP
p4560
sbag5
(g6
g7
(lp4561
g5
(g6
g7
(lp4562
Vare
p4563
atp4564
Rp4565
(dp4566
g16
VVBP
p4567
sbag5
(g6
g7
(lp4568
g5
(g6
g7
(lp4569
Vindeed
p4570
atp4571
Rp4572
(dp4573
g16
VRB
p4574
sbatp4575
Rp4576
(dp4577
g16
VADVP
p4578
sbag5
(g6
g7
(lp4579
g5
(g6
g7
(lp4580
Vtranslations
p4581
atp4582
Rp4583
(dp4584
g16
VNNS
p4585
sbag5
(g6
g7
(lp4586
Vor
p4587
atp4588
Rp4589
(dp4590
g16
VCC
p4591
sbag5
(g6
g7
(lp4592
Vparaphrases
p4593
atp4594
Rp4595
(dp4596
g16
VNNS
p4597
sbatp4598
Rp4599
(dp4600
g16
VNP
p4601
sbatp4602
Rp4603
(dp4604
g16
VVP
p4605
sbatp4606
Rp4607
(dp4608
g16
g61
sbatp4609
Rp4610
(dp4611
g16
VSBAR
p4612
sbatp4613
Rp4614
(dp4615
g16
VNP
p4616
sbatp4617
Rp4618
(dp4619
g16
VVP
p4620
sbatp4621
Rp4622
(dp4623
g16
VVP
p4624
sbatp4625
Rp4626
(dp4627
g16
g61
sbatp4628
Rp4629
(dp4630
g16
VVP
p4631
sbatp4632
Rp4633
(dp4634
g16
g61
sbatp4635
Rp4636
(dp4637
g16
VROOT
p4638
sbag5
(g6
g7
(lp4639
g5
(g6
g7
(lp4640
g5
(g6
g7
(lp4641
g5
(g6
g7
(lp4642
VRecent
p4643
atp4644
Rp4645
(dp4646
g16
VJJ
p4647
sbag5
(g6
g7
(lp4648
Vwork
p4649
atp4650
Rp4651
(dp4652
g16
VNN
p4653
sbatp4654
Rp4655
(dp4656
g16
VNP
p4657
sbag5
(g6
g7
(lp4658
g5
(g6
g7
(lp4659
g5
(g6
g7
(lp4660
Vtherefore
p4661
atp4662
Rp4663
(dp4664
g16
VRB
p4665
sbatp4666
Rp4667
(dp4668
g16
VADVP
p4669
sbag5
(g6
g7
(lp4670
Vfocuses
p4671
atp4672
Rp4673
(dp4674
g16
VVBZ
p4675
sbag5
(g6
g7
(lp4676
g5
(g6
g7
(lp4677
Von
p4678
atp4679
Rp4680
(dp4681
g16
VIN
p4682
sbag5
(g6
g7
(lp4683
g5
(g6
g7
(lp4684
g5
(g6
g7
(lp4685
Videntifying
p4686
atp4687
Rp4688
(dp4689
g16
VVBG
p4690
sbag5
(g6
g7
(lp4691
g5
(g6
g7
(lp4692
g5
(g6
g7
(lp4693
Vthe
p4694
atp4695
Rp4696
(dp4697
g16
VDT
p4698
sbag5
(g6
g7
(lp4699
Valignment/edits
p4700
atp4701
Rp4702
(dp4703
g16
VNNS
p4704
sbatp4705
Rp4706
(dp4707
g16
VNP
p4708
sbag5
(g6
g7
(lp4709
g5
(g6
g7
(lp4710
Vbetween
p4711
atp4712
Rp4713
(dp4714
g16
VIN
p4715
sbag5
(g6
g7
(lp4716
g5
(g6
g7
(lp4717
g5
(g6
g7
(lp4718
Vtwo
p4719
atp4720
Rp4721
(dp4722
g16
VCD
p4723
sbag5
(g6
g7
(lp4724
Vsentences
p4725
atp4726
Rp4727
(dp4728
g16
VNNS
p4729
sbatp4730
Rp4731
(dp4732
g16
VNP
p4733
sbag5
(g6
g7
(lp4734
g5
(g6
g7
(lp4735
g5
(g6
g7
(lp4736
V-LSB-
p4737
atp4738
Rp4739
(dp4740
g16
VNNP
p4741
sbag5
(g6
g7
(lp4742
V13
p4743
atp4744
Rp4745
(dp4746
g16
VCD
p4747
sbag5
(g6
g7
(lp4748
g67
atp4749
Rp4750
(dp4751
g16
g67
sbag5
(g6
g7
(lp4752
V8
p4753
atp4754
Rp4755
(dp4756
g16
VCD
p4757
sbatp4758
Rp4759
(dp4760
g16
VNP
p4761
sbag5
(g6
g7
(lp4762
V-RSB-
p4763
atp4764
Rp4765
(dp4766
g16
VJJ
p4767
sbatp4768
Rp4769
(dp4770
g16
VADJP
p4771
sbatp4772
Rp4773
(dp4774
g16
VNP
p4775
sbatp4776
Rp4777
(dp4778
g16
VPP
p4779
sbatp4780
Rp4781
(dp4782
g16
VNP
p4783
sbatp4784
Rp4785
(dp4786
g16
VVP
p4787
sbatp4788
Rp4789
(dp4790
g16
g61
sbatp4791
Rp4792
(dp4793
g16
VPP
p4794
sbatp4795
Rp4796
(dp4797
g16
VVP
p4798
sbatp4799
Rp4800
(dp4801
g16
g61
sbatp4802
Rp4803
(dp4804
g16
VROOT
p4805
sbasg211
(icmyPackage
CorE
p4806
(dp4807
g214
(lp4808
(I0
I1
tp4809
a(I1
I1
tp4810
asg218
g5
(g6
g7
(lp4811
g4489
ag4495
ag4629
ag4655
atp4812
Rp4813
(dp4814
g16
g229
sbsbsg219
(icmyPackage
CorE
p4815
(dp4816
g214
(lp4817
(I1
I3
tp4818
a(I1
I15
tp4819
asg218
g5
(g6
g7
(lp4820
g4673
ag4792
atp4821
Rp4822
(dp4823
g16
g229
sbsbsg230
g4449
sg254
(lp4824
(isxpPackage
sxpSent
p4825
(dp4826
g258
(lp4827
I13
asg260
VA bigger concern is to guarantee the extracted phrase pairs are indeed translations or paraphrases
p4828
sg262
I3
sg246
I52
sg263
I11
sba(isxpPackage
sxpSent
p4829
(dp4830
g258
(lp4831
I13
asg260
VRecent work therefore focuses on identifying the alignment/edits between two sentences [ 13 , 8 ]
p4832
sg262
I3
sg246
I53
sg263
I11
sbasba(icmyPackage
CELink
p4833
(dp4834
g3
(lp4835
g5
(g6
g7
(lp4836
g5
(g6
g7
(lp4837
g5
(g6
g7
(lp4838
g5
(g6
g7
(lp4839
VFor
p4840
atp4841
Rp4842
(dp4843
g16
VIN
p4844
sbag5
(g6
g7
(lp4845
g5
(g6
g7
(lp4846
Vexample
p4847
atp4848
Rp4849
(dp4850
g16
VNN
p4851
sbatp4852
Rp4853
(dp4854
g16
VNP
p4855
sbatp4856
Rp4857
(dp4858
g16
VPP
p4859
sbag5
(g6
g7
(lp4860
g67
atp4861
Rp4862
(dp4863
g16
g67
sbag5
(g6
g7
(lp4864
g5
(g6
g7
(lp4865
Vin
p4866
atp4867
Rp4868
(dp4869
g16
VIN
p4870
sbag5
(g6
g7
(lp4871
g5
(g6
g7
(lp4872
VFigure
p4873
atp4874
Rp4875
(dp4876
g16
VNNP
p4877
sbag5
(g6
g7
(lp4878
V11
p4879
atp4880
Rp4881
(dp4882
g16
VCD
p4883
sbatp4884
Rp4885
(dp4886
g16
VNP
p4887
sbatp4888
Rp4889
(dp4890
g16
VPP
p4891
sbag5
(g6
g7
(lp4892
g67
atp4893
Rp4894
(dp4895
g16
g67
sbag5
(g6
g7
(lp4896
g5
(g6
g7
(lp4897
g5
(g6
g7
(lp4898
Vwhen
p4899
atp4900
Rp4901
(dp4902
g16
VWRB
p4903
sbatp4904
Rp4905
(dp4906
g16
VWHADVP
p4907
sbag5
(g6
g7
(lp4908
g5
(g6
g7
(lp4909
g5
(g6
g7
(lp4910
g5
(g6
g7
(lp4911
Vthe
p4912
atp4913
Rp4914
(dp4915
g16
VDT
p4916
sbag5
(g6
g7
(lp4917
Vinsertion
p4918
atp4919
Rp4920
(dp4921
g16
VNN
p4922
sbatp4923
Rp4924
(dp4925
g16
VNP
p4926
sbag5
(g6
g7
(lp4927
g5
(g6
g7
(lp4928
Vof
p4929
atp4930
Rp4931
(dp4932
g16
VIN
p4933
sbag5
(g6
g7
(lp4934
g5
(g6
g7
(lp4935
Vone
p4936
atp4937
Rp4938
(dp4939
g16
VCD
p4940
sbag5
(g6
g7
(lp4941
Vword
p4942
atp4943
Rp4944
(dp4945
g16
VNN
p4946
sbatp4947
Rp4948
(dp4949
g16
VNP
p4950
sbatp4951
Rp4952
(dp4953
g16
VPP
p4954
sbatp4955
Rp4956
(dp4957
g16
VNP
p4958
sbag5
(g6
g7
(lp4959
g5
(g6
g7
(lp4960
Vis
p4961
atp4962
Rp4963
(dp4964
g16
VVBZ
p4965
sbag5
(g6
g7
(lp4966
g5
(g6
g7
(lp4967
Vfollowed
p4968
atp4969
Rp4970
(dp4971
g16
VVBN
p4972
sbag5
(g6
g7
(lp4973
g5
(g6
g7
(lp4974
Vby
p4975
atp4976
Rp4977
(dp4978
g16
VIN
p4979
sbag5
(g6
g7
(lp4980
g5
(g6
g7
(lp4981
g5
(g6
g7
(lp4982
Vthe
p4983
atp4984
Rp4985
(dp4986
g16
VDT
p4987
sbag5
(g6
g7
(lp4988
Vdeletion
p4989
atp4990
Rp4991
(dp4992
g16
VNN
p4993
sbatp4994
Rp4995
(dp4996
g16
VNP
p4997
sbag5
(g6
g7
(lp4998
g5
(g6
g7
(lp4999
Vof
p5000
atp5001
Rp5002
(dp5003
g16
VIN
p5004
sbag5
(g6
g7
(lp5005
g5
(g6
g7
(lp5006
Vthe
p5007
atp5008
Rp5009
(dp5010
g16
VDT
p5011
sbag5
(g6
g7
(lp5012
Vsame
p5013
atp5014
Rp5015
(dp5016
g16
VJJ
p5017
sbag5
(g6
g7
(lp5018
Vword
p5019
atp5020
Rp5021
(dp5022
g16
VNN
p5023
sbatp5024
Rp5025
(dp5026
g16
VNP
p5027
sbatp5028
Rp5029
(dp5030
g16
VPP
p5031
sbatp5032
Rp5033
(dp5034
g16
VNP
p5035
sbatp5036
Rp5037
(dp5038
g16
VPP
p5039
sbatp5040
Rp5041
(dp5042
g16
VVP
p5043
sbatp5044
Rp5045
(dp5046
g16
VVP
p5047
sbatp5048
Rp5049
(dp5050
g16
g61
sbatp5051
Rp5052
(dp5053
g16
VSBAR
p5054
sbag5
(g6
g7
(lp5055
g67
atp5056
Rp5057
(dp5058
g16
g67
sbag5
(g6
g7
(lp5059
g5
(g6
g7
(lp5060
Vthe
p5061
atp5062
Rp5063
(dp5064
g16
VDT
p5065
sbag5
(g6
g7
(lp5066
Vinsertion
p5067
atp5068
Rp5069
(dp5070
g16
VNN
p5071
sbag5
(g6
g7
(lp5072
Vand
p5073
atp5074
Rp5075
(dp5076
g16
VCC
p5077
sbag5
(g6
g7
(lp5078
Vdeletion
p5079
atp5080
Rp5081
(dp5082
g16
VNN
p5083
sbatp5084
Rp5085
(dp5086
g16
VNP
p5087
sbag5
(g6
g7
(lp5088
g5
(g6
g7
(lp5089
Vare
p5090
atp5091
Rp5092
(dp5093
g16
VVBP
p5094
sbag5
(g6
g7
(lp5095
g5
(g6
g7
(lp5096
Vlikely
p5097
atp5098
Rp5099
(dp5100
g16
VRB
p5101
sbatp5102
Rp5103
(dp5104
g16
VADVP
p5105
sbag5
(g6
g7
(lp5106
g5
(g6
g7
(lp5107
Vaddressing
p5108
atp5109
Rp5110
(dp5111
g16
VVBG
p5112
sbag5
(g6
g7
(lp5113
g5
(g6
g7
(lp5114
Vone
p5115
atp5116
Rp5117
(dp5118
g16
VCD
p5119
sbag5
(g6
g7
(lp5120
Vsingle
p5121
atp5122
Rp5123
(dp5124
g16
VJJ
p5125
sbag5
(g6
g7
(lp5126
Verror
p5127
atp5128
Rp5129
(dp5130
g16
VNN
p5131
sbatp5132
Rp5133
(dp5134
g16
VNP
p5135
sbatp5136
Rp5137
(dp5138
g16
VVP
p5139
sbatp5140
Rp5141
(dp5142
g16
VVP
p5143
sbatp5144
Rp5145
(dp5146
g16
g61
sbatp5147
Rp5148
(dp5149
g16
VROOT
p5150
sbag5
(g6
g7
(lp5151
g5
(g6
g7
(lp5152
g5
(g6
g7
(lp5153
g5
(g6
g7
(lp5154
VThis
p5155
atp5156
Rp5157
(dp5158
g16
VDT
p5159
sbatp5160
Rp5161
(dp5162
g16
VNP
p5163
sbag5
(g6
g7
(lp5164
g5
(g6
g7
(lp5165
Vis
p5166
atp5167
Rp5168
(dp5169
g16
VVBZ
p5170
sbag5
(g6
g7
(lp5171
g5
(g6
g7
(lp5172
Vbecause
p5173
atp5174
Rp5175
(dp5176
g16
VIN
p5177
sbag5
(g6
g7
(lp5178
g5
(g6
g7
(lp5179
g5
(g6
g7
(lp5180
Vthese
p5181
atp5182
Rp5183
(dp5184
g16
VDT
p5185
sbag5
(g6
g7
(lp5186
Vtwo
p5187
atp5188
Rp5189
(dp5190
g16
VCD
p5191
sbag5
(g6
g7
(lp5192
Vedits
p5193
atp5194
Rp5195
(dp5196
g16
VNNS
p5197
sbatp5198
Rp5199
(dp5200
g16
VNP
p5201
sbag5
(g6
g7
(lp5202
g5
(g6
g7
(lp5203
Vwould
p5204
atp5205
Rp5206
(dp5207
g16
VMD
p5208
sbag5
(g6
g7
(lp5209
g5
(g6
g7
(lp5210
Vcombine
p5211
atp5212
Rp5213
(dp5214
g16
VVB
p5215
sbag5
(g6
g7
(lp5216
g5
(g6
g7
(lp5217
Vtogether
p5218
atp5219
Rp5220
(dp5221
g16
VRB
p5222
sbatp5223
Rp5224
(dp5225
g16
VADVP
p5226
sbag5
(g6
g7
(lp5227
g5
(g6
g7
(lp5228
Vas
p5229
atp5230
Rp5231
(dp5232
g16
VIN
p5233
sbag5
(g6
g7
(lp5234
g5
(g6
g7
(lp5235
g612
atp5236
Rp5237
(dp5238
g16
VDT
p5239
sbag5
(g6
g7
(lp5240
Vword-order
p5241
atp5242
Rp5243
(dp5244
g16
VJJ
p5245
sbag5
(g6
g7
(lp5246
Vchange
p5247
atp5248
Rp5249
(dp5250
g16
VNN
p5251
sbatp5252
Rp5253
(dp5254
g16
VNP
p5255
sbatp5256
Rp5257
(dp5258
g16
VPP
p5259
sbatp5260
Rp5261
(dp5262
g16
VVP
p5263
sbatp5264
Rp5265
(dp5266
g16
VVP
p5267
sbatp5268
Rp5269
(dp5270
g16
g61
sbatp5271
Rp5272
(dp5273
g16
VSBAR
p5274
sbatp5275
Rp5276
(dp5277
g16
VVP
p5278
sbatp5279
Rp5280
(dp5281
g16
g61
sbatp5282
Rp5283
(dp5284
g16
VROOT
p5285
sbasg211
(icmyPackage
CorE
p5286
(dp5287
g214
(lp5288
(I1
I3
tp5289
a(I1
I12
tp5290
asg218
g5269
sbsg219
(icmyPackage
CorE
p5291
(dp5292
g214
(lp5293
(I0
I0
tp5294
a(I0
I32
tp5295
asg218
g5148
sbsg230
(icmyPackage
pattern
p5296
(dp5297
g233
I8
sg234
I1
sg235
(lp5298
(lp5299
S'because'
p5300
aasg241
(lp5301
I4
aI1
aI2
asg243
(lp5302
S'Amazing things will happen. This is often because they have found ways of bypassing what might seem like the remorseless inevitability of the curve and its slope.'
p5303
asg246
I100
sg247
(lp5304
(lp5305
S'&R'
p5306
aS'(,/./;/--)'
p5307
aS'(&AND)'
p5308
aS'&THIS'
p5309
aS'&BE'
p5310
aS'(&ADV)'
p5311
aa(lp5312
S'&C'
p5313
aasbsg254
(lp5314
(isxpPackage
sxpSent
p5315
(dp5316
g258
(lp5317
I14
asg260
VFor example, in Figure 11 , when the insertion of one word is followed by the deletion of the same word, the insertion and deletion are likely addressing one single error
p5318
sg262
I4
sg246
I57
sg263
I12
sba(isxpPackage
sxpSent
p5319
(dp5320
g258
(lp5321
I14
asg260
VThis is because these two edits would combine together as a word-order change
p5322
sg262
I4
sg246
I58
sg263
I12
sbasba(icmyPackage
CELink
p5323
(dp5324
g3
(lp5325
g5
(g6
g7
(lp5326
g5
(g6
g7
(lp5327
g5
(g6
g7
(lp5328
g5
(g6
g7
(lp5329
VOn
p5330
atp5331
Rp5332
(dp5333
g16
VIN
p5334
sbag5
(g6
g7
(lp5335
g5
(g6
g7
(lp5336
Vthe
p5337
atp5338
Rp5339
(dp5340
g16
VDT
p5341
sbag5
(g6
g7
(lp5342
Vother
p5343
atp5344
Rp5345
(dp5346
g16
VJJ
p5347
sbag5
(g6
g7
(lp5348
Vhand
p5349
atp5350
Rp5351
(dp5352
g16
VNN
p5353
sbatp5354
Rp5355
(dp5356
g16
VNP
p5357
sbatp5358
Rp5359
(dp5360
g16
VPP
p5361
sbag5
(g6
g7
(lp5362
g67
atp5363
Rp5364
(dp5365
g16
g67
sbag5
(g6
g7
(lp5366
g5
(g6
g7
(lp5367
Vin
p5368
atp5369
Rp5370
(dp5371
g16
VIN
p5372
sbag5
(g6
g7
(lp5373
g5
(g6
g7
(lp5374
VFigure
p5375
atp5376
Rp5377
(dp5378
g16
VNNP
p5379
sbag5
(g6
g7
(lp5380
V11
p5381
atp5382
Rp5383
(dp5384
g16
VCD
p5385
sbatp5386
Rp5387
(dp5388
g16
VNP
p5389
sbatp5390
Rp5391
(dp5392
g16
VPP
p5393
sbag5
(g6
g7
(lp5394
g67
atp5395
Rp5396
(dp5397
g16
g67
sbag5
(g6
g7
(lp5398
g5
(g6
g7
(lp5399
Vif
p5400
atp5401
Rp5402
(dp5403
g16
VIN
p5404
sbag5
(g6
g7
(lp5405
g5
(g6
g7
(lp5406
g5
(g6
g7
(lp5407
Vone
p5408
atp5409
Rp5410
(dp5411
g16
VCD
p5412
sbag5
(g6
g7
(lp5413
Vedit
p5414
atp5415
Rp5416
(dp5417
g16
VNNS
p5418
sbatp5419
Rp5420
(dp5421
g16
VNP
p5422
sbag5
(g6
g7
(lp5423
g5
(g6
g7
(lp5424
Vincludes
p5425
atp5426
Rp5427
(dp5428
g16
VVBZ
p5429
sbag5
(g6
g7
(lp5430
g5
(g6
g7
(lp5431
g5
(g6
g7
(lp5432
g612
atp5433
Rp5434
(dp5435
g16
VDT
p5436
sbag5
(g6
g7
(lp5437
Vsubstitution
p5438
atp5439
Rp5440
(dp5441
g16
VNN
p5442
sbatp5443
Rp5444
(dp5445
g16
VNP
p5446
sbag5
(g6
g7
(lp5447
g5
(g6
g7
(lp5448
Vbetween
p5449
atp5450
Rp5451
(dp5452
g16
VIN
p5453
sbag5
(g6
g7
(lp5454
g5
(g6
g7
(lp5455
g5
(g6
g7
(lp5456
Vwords
p5457
atp5458
Rp5459
(dp5460
g16
VNNS
p5461
sbatp5462
Rp5463
(dp5464
g16
VNP
p5465
sbag5
(g6
g7
(lp5466
g5
(g6
g7
(lp5467
Vwith
p5468
atp5469
Rp5470
(dp5471
g16
VIN
p5472
sbag5
(g6
g7
(lp5473
g5
(g6
g7
(lp5474
g5
(g6
g7
(lp5475
Vthe
p5476
atp5477
Rp5478
(dp5479
g16
VDT
p5480
sbag5
(g6
g7
(lp5481
Vsame
p5482
atp5483
Rp5484
(dp5485
g16
VJJ
p5486
sbag5
(g6
g7
(lp5487
VPOS
p5488
atp5489
Rp5490
(dp5491
g16
VNNP
p5492
sbag5
(g6
g7
(lp5493
g2162
atp5494
Rp5495
(dp5496
g16
VNN
p5497
sbag5
(g6
g7
(lp5498
g2168
atp5499
Rp5500
(dp5501
g16
VPOS
p5502
sbatp5503
Rp5504
(dp5505
g16
VNP
p5506
sbag5
(g6
g7
(lp5507
V\u005c
p5508
atp5509
Rp5510
(dp5511
g16
VJJ
p5512
sbag5
(g6
g7
(lp5513
Vu2019
p5514
atp5515
Rp5516
(dp5517
g16
VNNS
p5518
sbag5
(g6
g7
(lp5519
g2168
atp5520
Rp5521
(dp5522
g16
V''
p5523
sbag5
(g6
g7
(lp5524
g4273
atp5525
Rp5526
(dp5527
g16
VNN
p5528
sbatp5529
Rp5530
(dp5531
g16
VNP
p5532
sbatp5533
Rp5534
(dp5535
g16
VPP
p5536
sbatp5537
Rp5538
(dp5539
g16
VNP
p5540
sbatp5541
Rp5542
(dp5543
g16
VPP
p5544
sbatp5545
Rp5546
(dp5547
g16
VNP
p5548
sbatp5549
Rp5550
(dp5551
g16
VVP
p5552
sbatp5553
Rp5554
(dp5555
g16
g61
sbatp5556
Rp5557
(dp5558
g16
VSBAR
p5559
sbag5
(g6
g7
(lp5560
g67
atp5561
Rp5562
(dp5563
g16
g67
sbag5
(g6
g7
(lp5564
g5
(g6
g7
(lp5565
Vthen
p5566
atp5567
Rp5568
(dp5569
g16
VRB
p5570
sbag5
(g6
g7
(lp5571
Vit
p5572
atp5573
Rp5574
(dp5575
g16
VPRP
p5576
sbatp5577
Rp5578
(dp5579
g16
VNP
p5580
sbag5
(g6
g7
(lp5581
g5
(g6
g7
(lp5582
Vis
p5583
atp5584
Rp5585
(dp5586
g16
VVBZ
p5587
sbag5
(g6
g7
(lp5588
g5
(g6
g7
(lp5589
Vlikely
p5590
atp5591
Rp5592
(dp5593
g16
VJJ
p5594
sbatp5595
Rp5596
(dp5597
g16
VADJP
p5598
sbag5
(g6
g7
(lp5599
g5
(g6
g7
(lp5600
g5
(g6
g7
(lp5601
Vfixing
p5602
atp5603
Rp5604
(dp5605
g16
VVBG
p5606
sbag5
(g6
g7
(lp5607
g5
(g6
g7
(lp5608
g612
atp5609
Rp5610
(dp5611
g16
VDT
p5612
sbag5
(g6
g7
(lp5613
Vword
p5614
atp5615
Rp5616
(dp5617
g16
VNN
p5618
sbag5
(g6
g7
(lp5619
Vchoice
p5620
atp5621
Rp5622
(dp5623
g16
VNN
p5624
sbag5
(g6
g7
(lp5625
Verror
p5626
atp5627
Rp5628
(dp5629
g16
VNN
p5630
sbatp5631
Rp5632
(dp5633
g16
VNP
p5634
sbag5
(g6
g7
(lp5635
g5
(g6
g7
(lp5636
Vby
p5637
atp5638
Rp5639
(dp5640
g16
VIN
p5641
sbag5
(g6
g7
(lp5642
g5
(g6
g7
(lp5643
Vitself
p5644
atp5645
Rp5646
(dp5647
g16
VPRP
p5648
sbatp5649
Rp5650
(dp5651
g16
VNP
p5652
sbatp5653
Rp5654
(dp5655
g16
VPP
p5656
sbatp5657
Rp5658
(dp5659
g16
VVP
p5660
sbatp5661
Rp5662
(dp5663
g16
g61
sbatp5664
Rp5665
(dp5666
g16
VVP
p5667
sbatp5668
Rp5669
(dp5670
g16
g61
sbatp5671
Rp5672
(dp5673
g16
VROOT
p5674
sbasg211
(icmyPackage
CorE
p5675
(dp5676
g214
(lp5677
(I0
I10
tp5678
a(I0
I26
tp5679
asg218
g5554
sbsg219
(icmyPackage
CorE
p5680
(dp5681
g214
(lp5682
(I0
I28
tp5683
a(I0
I38
tp5684
asg218
g5
(g6
g7
(lp5685
g5578
ag5665
atp5686
Rp5687
(dp5688
g16
g229
sbsbsg230
g3858
sg254
(lp5689
(isxpPackage
sxpSent
p5690
(dp5691
g258
(lp5692
I15
asg260
VOn the other hand, in Figure 11 , if one edit includes a substitution between words with the same POS u'\u005cu2019' s, then it is likely fixing a word choice error by itself
p5693
sg262
I4
sg246
I59
sg263
I12
sbasba(icmyPackage
CELink
p5694
(dp5695
g3
(lp5696
g5
(g6
g7
(lp5697
g5
(g6
g7
(lp5698
g5
(g6
g7
(lp5699
g5
(g6
g7
(lp5700
g5
(g6
g7
(lp5701
VTo
p5702
atp5703
Rp5704
(dp5705
g16
VTO
p5706
sbag5
(g6
g7
(lp5707
g5
(g6
g7
(lp5708
Vpredict
p5709
atp5710
Rp5711
(dp5712
g16
VVB
p5713
sbag5
(g6
g7
(lp5714
g5
(g6
g7
(lp5715
Vwhether
p5716
atp5717
Rp5718
(dp5719
g16
VIN
p5720
sbag5
(g6
g7
(lp5721
g5
(g6
g7
(lp5722
g5
(g6
g7
(lp5723
Vtwo
p5724
atp5725
Rp5726
(dp5727
g16
VCD
p5728
sbag5
(g6
g7
(lp5729
Vbasic-edits
p5730
atp5731
Rp5732
(dp5733
g16
VNNS
p5734
sbatp5735
Rp5736
(dp5737
g16
VNP
p5738
sbag5
(g6
g7
(lp5739
g5
(g6
g7
(lp5740
Vaddress
p5741
atp5742
Rp5743
(dp5744
g16
VVB
p5745
sbag5
(g6
g7
(lp5746
g5
(g6
g7
(lp5747
g5
(g6
g7
(lp5748
Vthe
p5749
atp5750
Rp5751
(dp5752
g16
VDT
p5753
sbag5
(g6
g7
(lp5754
Vsame
p5755
atp5756
Rp5757
(dp5758
g16
VJJ
p5759
sbag5
(g6
g7
(lp5760
Vwriting
p5761
atp5762
Rp5763
(dp5764
g16
VNN
p5765
sbag5
(g6
g7
(lp5766
Vproblem
p5767
atp5768
Rp5769
(dp5770
g16
VNN
p5771
sbatp5772
Rp5773
(dp5774
g16
VNP
p5775
sbag5
(g6
g7
(lp5776
g5
(g6
g7
(lp5777
Vmore
p5778
atp5779
Rp5780
(dp5781
g16
VRBR
p5782
sbag5
(g6
g7
(lp5783
Vdiscriminatively
p5784
atp5785
Rp5786
(dp5787
g16
VJJ
p5788
sbatp5789
Rp5790
(dp5791
g16
VADJP
p5792
sbatp5793
Rp5794
(dp5795
g16
g61
sbatp5796
Rp5797
(dp5798
g16
VVP
p5799
sbatp5800
Rp5801
(dp5802
g16
g61
sbatp5803
Rp5804
(dp5805
g16
VSBAR
p5806
sbatp5807
Rp5808
(dp5809
g16
VVP
p5810
sbatp5811
Rp5812
(dp5813
g16
VVP
p5814
sbatp5815
Rp5816
(dp5817
g16
g61
sbag5
(g6
g7
(lp5818
g67
atp5819
Rp5820
(dp5821
g16
g67
sbag5
(g6
g7
(lp5822
g5
(g6
g7
(lp5823
Vwe
p5824
atp5825
Rp5826
(dp5827
g16
VPRP
p5828
sbatp5829
Rp5830
(dp5831
g16
VNP
p5832
sbag5
(g6
g7
(lp5833
g5
(g6
g7
(lp5834
Vtrain
p5835
atp5836
Rp5837
(dp5838
g16
VVBP
p5839
sbag5
(g6
g7
(lp5840
g5
(g6
g7
(lp5841
g5
(g6
g7
(lp5842
g612
atp5843
Rp5844
(dp5845
g16
VDT
p5846
sbag5
(g6
g7
(lp5847
VMaximum
p5848
atp5849
Rp5850
(dp5851
g16
VNNP
p5852
sbag5
(g6
g7
(lp5853
VEntropy
p5854
atp5855
Rp5856
(dp5857
g16
VNNP
p5858
sbag5
(g6
g7
(lp5859
Vbinary
p5860
atp5861
Rp5862
(dp5863
g16
VNN
p5864
sbag5
(g6
g7
(lp5865
Vclassifier
p5866
atp5867
Rp5868
(dp5869
g16
VNN
p5870
sbatp5871
Rp5872
(dp5873
g16
VNP
p5874
sbag5
(g6
g7
(lp5875
g5
(g6
g7
(lp5876
Vbased
p5877
atp5878
Rp5879
(dp5880
g16
VVBN
p5881
sbag5
(g6
g7
(lp5882
g5
(g6
g7
(lp5883
Von
p5884
atp5885
Rp5886
(dp5887
g16
VIN
p5888
sbag5
(g6
g7
(lp5889
g5
(g6
g7
(lp5890
g5
(g6
g7
(lp5891
Vfeatures
p5892
atp5893
Rp5894
(dp5895
g16
VNNS
p5896
sbatp5897
Rp5898
(dp5899
g16
VNP
p5900
sbag5
(g6
g7
(lp5901
g5
(g6
g7
(lp5902
Vextracted
p5903
atp5904
Rp5905
(dp5906
g16
VVBN
p5907
sbag5
(g6
g7
(lp5908
g5
(g6
g7
(lp5909
Vfrom
p5910
atp5911
Rp5912
(dp5913
g16
VIN
p5914
sbag5
(g6
g7
(lp5915
g5
(g6
g7
(lp5916
g5
(g6
g7
(lp5917
Vrelevant
p5918
atp5919
Rp5920
(dp5921
g16
VJJ
p5922
sbag5
(g6
g7
(lp5923
Vcontexts
p5924
atp5925
Rp5926
(dp5927
g16
VNNS
p5928
sbatp5929
Rp5930
(dp5931
g16
VNP
p5932
sbag5
(g6
g7
(lp5933
g5
(g6
g7
(lp5934
Vfor
p5935
atp5936
Rp5937
(dp5938
g16
VIN
p5939
sbag5
(g6
g7
(lp5940
g5
(g6
g7
(lp5941
Vthe
p5942
atp5943
Rp5944
(dp5945
g16
VDT
p5946
sbag5
(g6
g7
(lp5947
Vbasic
p5948
atp5949
Rp5950
(dp5951
g16
VJJ
p5952
sbag5
(g6
g7
(lp5953
Vedits
p5954
atp5955
Rp5956
(dp5957
g16
VNNS
p5958
sbatp5959
Rp5960
(dp5961
g16
VNP
p5962
sbatp5963
Rp5964
(dp5965
g16
VPP
p5966
sbatp5967
Rp5968
(dp5969
g16
VNP
p5970
sbatp5971
Rp5972
(dp5973
g16
VPP
p5974
sbatp5975
Rp5976
(dp5977
g16
VVP
p5978
sbatp5979
Rp5980
(dp5981
g16
VNP
p5982
sbatp5983
Rp5984
(dp5985
g16
VPP
p5986
sbatp5987
Rp5988
(dp5989
g16
VPP
p5990
sbatp5991
Rp5992
(dp5993
g16
VNP
p5994
sbatp5995
Rp5996
(dp5997
g16
VVP
p5998
sbatp5999
Rp6000
(dp6001
g16
g61
sbatp6002
Rp6003
(dp6004
g16
VROOT
p6005
sbasg211
(icmyPackage
CorE
p6006
(dp6007
g214
(lp6008
(I0
I22
tp6009
a(I0
I30
tp6010
asg218
g5980
sbsg219
(icmyPackage
CorE
p6011
(dp6012
g214
(lp6013
(I0
I0
tp6014
a(I0
I19
tp6015
asg218
g5
(g6
g7
(lp6016
g5816
ag5820
ag5830
ag5837
ag5872
atp6017
Rp6018
(dp6019
g16
g229
sbsbsg230
(icmyPackage
pattern
p6020
(dp6021
g233
I0
sg234
I0
sg235
(lp6022
(lp6023
S'based'
p6024
aS'on'
p6025
aasg241
(lp6026
I2
aI1
aI1
asg243
(lp6027
S'He said he planned to announce details of legislation on Sunday based on a Republican plan that would provide a short-term solution'
p6028
asg246
I48
sg247
(lp6029
(lp6030
S'&R'
p6031
aS'(,)'
p6032
aS'(&ADV)'
p6033
aa(lp6034
S'&V-ing/&NP@C@'
p6035
aS'(&Clause@C@)'
p6036
aasbsg254
(lp6037
(isxpPackage
sxpSent
p6038
(dp6039
g258
(lp6040
I16
asg260
VTo predict whether two basic-edits address the same writing problem more discriminatively, we train a Maximum Entropy binary classifier based on features extracted from relevant contexts for the basic edits
p6041
sg262
I4
sg246
I61
sg263
I13
sbasba(icmyPackage
CELink
p6042
(dp6043
g3
(lp6044
g5
(g6
g7
(lp6045
g5
(g6
g7
(lp6046
g5
(g6
g7
(lp6047
g5
(g6
g7
(lp6048
VWe
p6049
atp6050
Rp6051
(dp6052
g16
VPRP
p6053
sbatp6054
Rp6055
(dp6056
g16
VNP
p6057
sbag5
(g6
g7
(lp6058
g5
(g6
g7
(lp6059
g5
(g6
g7
(lp6060
Vthen
p6061
atp6062
Rp6063
(dp6064
g16
VRB
p6065
sbatp6066
Rp6067
(dp6068
g16
VADVP
p6069
sbag5
(g6
g7
(lp6070
Vcreate
p6071
atp6072
Rp6073
(dp6074
g16
VVBP
p6075
sbag5
(g6
g7
(lp6076
g5
(g6
g7
(lp6077
g5
(g6
g7
(lp6078
g612
atp6079
Rp6080
(dp6081
g16
VDT
p6082
sbag5
(g6
g7
(lp6083
Vtraining
p6084
atp6085
Rp6086
(dp6087
g16
VNN
p6088
sbag5
(g6
g7
(lp6089
Vinstance
p6090
atp6091
Rp6092
(dp6093
g16
VNN
p6094
sbatp6095
Rp6096
(dp6097
g16
VNP
p6098
sbag5
(g6
g7
(lp6099
g5
(g6
g7
(lp6100
Vfor
p6101
atp6102
Rp6103
(dp6104
g16
VIN
p6105
sbag5
(g6
g7
(lp6106
g5
(g6
g7
(lp6107
g5
(g6
g7
(lp6108
Veach
p6109
atp6110
Rp6111
(dp6112
g16
VDT
p6113
sbag5
(g6
g7
(lp6114
Vpair
p6115
atp6116
Rp6117
(dp6118
g16
VNN
p6119
sbatp6120
Rp6121
(dp6122
g16
VNP
p6123
sbag5
(g6
g7
(lp6124
g5
(g6
g7
(lp6125
Vof
p6126
atp6127
Rp6128
(dp6129
g16
VIN
p6130
sbag5
(g6
g7
(lp6131
g5
(g6
g7
(lp6132
Vtwo
p6133
atp6134
Rp6135
(dp6136
g16
VCD
p6137
sbag5
(g6
g7
(lp6138
Vconsecutive
p6139
atp6140
Rp6141
(dp6142
g16
VJJ
p6143
sbag5
(g6
g7
(lp6144
Vbasic
p6145
atp6146
Rp6147
(dp6148
g16
VJJ
p6149
sbag5
(g6
g7
(lp6150
Vedits
p6151
atp6152
Rp6153
(dp6154
g16
VNNS
p6155
sbatp6156
Rp6157
(dp6158
g16
VNP
p6159
sbatp6160
Rp6161
(dp6162
g16
VPP
p6163
sbatp6164
Rp6165
(dp6166
g16
VNP
p6167
sbatp6168
Rp6169
(dp6170
g16
VPP
p6171
sbatp6172
Rp6173
(dp6174
g16
VNP
p6175
sbag5
(g6
g7
(lp6176
g5
(g6
g7
(lp6177
Vif
p6178
atp6179
Rp6180
(dp6181
g16
VIN
p6182
sbag5
(g6
g7
(lp6183
g5
(g6
g7
(lp6184
g5
(g6
g7
(lp6185
g5
(g6
g7
(lp6186
Vtwo
p6187
atp6188
Rp6189
(dp6190
g16
VCD
p6191
sbag5
(g6
g7
(lp6192
Vconsecutive
p6193
atp6194
Rp6195
(dp6196
g16
VJJ
p6197
sbag5
(g6
g7
(lp6198
Vbasic
p6199
atp6200
Rp6201
(dp6202
g16
VJJ
p6203
sbag5
(g6
g7
(lp6204
Vedits
p6205
atp6206
Rp6207
(dp6208
g16
VNNS
p6209
sbatp6210
Rp6211
(dp6212
g16
VNP
p6213
sbag5
(g6
g7
(lp6214
g5
(g6
g7
(lp6215
Vneed
p6216
atp6217
Rp6218
(dp6219
g16
VVBP
p6220
sbag5
(g6
g7
(lp6221
g5
(g6
g7
(lp6222
g5
(g6
g7
(lp6223
Vto
p6224
atp6225
Rp6226
(dp6227
g16
VTO
p6228
sbag5
(g6
g7
(lp6229
g5
(g6
g7
(lp6230
Vbe
p6231
atp6232
Rp6233
(dp6234
g16
VVB
p6235
sbag5
(g6
g7
(lp6236
g5
(g6
g7
(lp6237
Vmerged
p6238
atp6239
Rp6240
(dp6241
g16
VVBN
p6242
sbatp6243
Rp6244
(dp6245
g16
VADJP
p6246
sbatp6247
Rp6248
(dp6249
g16
VVP
p6250
sbatp6251
Rp6252
(dp6253
g16
VVP
p6254
sbatp6255
Rp6256
(dp6257
g16
g61
sbatp6258
Rp6259
(dp6260
g16
VVP
p6261
sbatp6262
Rp6263
(dp6264
g16
g61
sbag5
(g6
g7
(lp6265
g67
atp6266
Rp6267
(dp6268
g16
g67
sbag5
(g6
g7
(lp6269
g5
(g6
g7
(lp6270
g5
(g6
g7
(lp6271
Vwe
p6272
atp6273
Rp6274
(dp6275
g16
VPRP
p6276
sbatp6277
Rp6278
(dp6279
g16
VNP
p6280
sbag5
(g6
g7
(lp6281
g5
(g6
g7
(lp6282
Vwill
p6283
atp6284
Rp6285
(dp6286
g16
VMD
p6287
sbag5
(g6
g7
(lp6288
g5
(g6
g7
(lp6289
Vmark
p6290
atp6291
Rp6292
(dp6293
g16
VVB
p6294
sbag5
(g6
g7
(lp6295
g5
(g6
g7
(lp6296
Vthe
p6297
atp6298
Rp6299
(dp6300
g16
VDT
p6301
sbag5
(g6
g7
(lp6302
Voutcome
p6303
atp6304
Rp6305
(dp6306
g16
VNN
p6307
sbatp6308
Rp6309
(dp6310
g16
VNP
p6311
sbag5
(g6
g7
(lp6312
g5
(g6
g7
(lp6313
Vas
p6314
atp6315
Rp6316
(dp6317
g16
VRB
p6318
sbag5
(g6
g7
(lp6319
VTrue
p6320
atp6321
Rp6322
(dp6323
g16
VJJ
p6324
sbatp6325
Rp6326
(dp6327
g16
VADVP
p6328
sbatp6329
Rp6330
(dp6331
g16
VVP
p6332
sbatp6333
Rp6334
(dp6335
g16
VVP
p6336
sbatp6337
Rp6338
(dp6339
g16
g61
sbag5
(g6
g7
(lp6340
g67
atp6341
Rp6342
(dp6343
g16
g67
sbag5
(g6
g7
(lp6344
g5
(g6
g7
(lp6345
g5
(g6
g7
(lp6346
Votherwise
p6347
atp6348
Rp6349
(dp6350
g16
VRB
p6351
sbatp6352
Rp6353
(dp6354
g16
VADVP
p6355
sbag5
(g6
g7
(lp6356
g5
(g6
g7
(lp6357
Vit
p6358
atp6359
Rp6360
(dp6361
g16
VPRP
p6362
sbatp6363
Rp6364
(dp6365
g16
VNP
p6366
sbag5
(g6
g7
(lp6367
g5
(g6
g7
(lp6368
Vis
p6369
atp6370
Rp6371
(dp6372
g16
VVBZ
p6373
sbag5
(g6
g7
(lp6374
g5
(g6
g7
(lp6375
VFalse
p6376
atp6377
Rp6378
(dp6379
g16
VJJ
p6380
sbatp6381
Rp6382
(dp6383
g16
VADJP
p6384
sbatp6385
Rp6386
(dp6387
g16
VVP
p6388
sbatp6389
Rp6390
(dp6391
g16
g61
sbatp6392
Rp6393
(dp6394
g16
g61
sbatp6395
Rp6396
(dp6397
g16
VSBAR
p6398
sbatp6399
Rp6400
(dp6401
g16
VVP
p6402
sbatp6403
Rp6404
(dp6405
g16
g61
sbatp6406
Rp6407
(dp6408
g16
VROOT
p6409
sbasg211
(icmyPackage
CorE
p6410
(dp6411
g214
(lp6412
(I0
I15
tp6413
a(I0
I22
tp6414
asg218
g6263
sbsg219
(icmyPackage
CorE
p6415
(dp6416
g214
(lp6417
(I0
I24
tp6418
a(I0
I35
tp6419
asg218
g5
(g6
g7
(lp6420
g6338
ag6342
ag6390
atp6421
Rp6422
(dp6423
g16
g229
sbsbsg230
g3858
sg254
(lp6424
(isxpPackage
sxpSent
p6425
(dp6426
g258
(lp6427
I17
asg260
VWe then create a training instance for each pair of two consecutive basic edits if two consecutive basic edits need to be merged, we will mark the outcome as True , otherwise it is False
p6428
sg262
I4
sg246
I70
sg263
I17
sbasba(icmyPackage
CELink
p6429
(dp6430
g3
(lp6431
g5
(g6
g7
(lp6432
g5
(g6
g7
(lp6433
g5
(g6
g7
(lp6434
g5
(g6
g7
(lp6435
VWe
p6436
atp6437
Rp6438
(dp6439
g16
VPRP
p6440
sbatp6441
Rp6442
(dp6443
g16
VNP
p6444
sbag5
(g6
g7
(lp6445
g5
(g6
g7
(lp6446
Vsimulate
p6447
atp6448
Rp6449
(dp6450
g16
VVBP
p6451
sbag5
(g6
g7
(lp6452
g5
(g6
g7
(lp6453
Vthe
p6454
atp6455
Rp6456
(dp6457
g16
VDT
p6458
sbag5
(g6
g7
(lp6459
Vrevisions
p6460
atp6461
Rp6462
(dp6463
g16
VNNS
p6464
sbatp6465
Rp6466
(dp6467
g16
VNP
p6468
sbag5
(g6
g7
(lp6469
g5
(g6
g7
(lp6470
Vby
p6471
atp6472
Rp6473
(dp6474
g16
VIN
p6475
sbag5
(g6
g7
(lp6476
g5
(g6
g7
(lp6477
g5
(g6
g7
(lp6478
Vapplying
p6479
atp6480
Rp6481
(dp6482
g16
VVBG
p6483
sbag5
(g6
g7
(lp6484
g5
(g6
g7
(lp6485
Vcorrections
p6486
atp6487
Rp6488
(dp6489
g16
VNNS
p6490
sbatp6491
Rp6492
(dp6493
g16
VNP
p6494
sbag5
(g6
g7
(lp6495
g5
(g6
g7
(lp6496
Vonto
p6497
atp6498
Rp6499
(dp6500
g16
VIN
p6501
sbag5
(g6
g7
(lp6502
g5
(g6
g7
(lp6503
Vthe
p6504
atp6505
Rp6506
(dp6507
g16
VDT
p6508
sbag5
(g6
g7
(lp6509
Voriginal
p6510
atp6511
Rp6512
(dp6513
g16
VJJ
p6514
sbag5
(g6
g7
(lp6515
Vsentence
p6516
atp6517
Rp6518
(dp6519
g16
VNN
p6520
sbatp6521
Rp6522
(dp6523
g16
VNP
p6524
sbatp6525
Rp6526
(dp6527
g16
VPP
p6528
sbatp6529
Rp6530
(dp6531
g16
VVP
p6532
sbatp6533
Rp6534
(dp6535
g16
g61
sbatp6536
Rp6537
(dp6538
g16
VPP
p6539
sbatp6540
Rp6541
(dp6542
g16
VVP
p6543
sbatp6544
Rp6545
(dp6546
g16
g61
sbatp6547
Rp6548
(dp6549
g16
VROOT
p6550
sbasg211
(icmyPackage
CorE
p6551
(dp6552
g214
(lp6553
(I0
I5
tp6554
a(I0
I10
tp6555
asg218
g6534
sbsg219
(icmyPackage
CorE
p6556
(dp6557
g214
(lp6558
(I0
I0
tp6559
a(I0
I3
tp6560
asg218
g5
(g6
g7
(lp6561
g6442
ag6449
ag6466
atp6562
Rp6563
(dp6564
g16
g229
sbsbsg230
g1352
sg254
(lp6565
(isxpPackage
sxpSent
p6566
(dp6567
g258
(lp6568
I18
asg260
VWe simulate the revisions by applying corrections onto the original sentence
p6569
sg262
I6
sg246
I76
sg263
I19
sbasba(icmyPackage
CELink
p6570
(dp6571
g3
(lp6572
g5
(g6
g7
(lp6573
g5
(g6
g7
(lp6574
g5
(g6
g7
(lp6575
g5
(g6
g7
(lp6576
g5
(g6
g7
(lp6577
g5
(g6
g7
(lp6578
VThe
p6579
atp6580
Rp6581
(dp6582
g16
VDT
p6583
sbag5
(g6
g7
(lp6584
Vteachers
p6585
atp6586
Rp6587
(dp6588
g16
VNNS
p6589
sbag5
(g6
g7
(lp6590
g2162
atp6591
Rp6592
(dp6593
g16
VNN
p6594
sbag5
(g6
g7
(lp6595
g2168
atp6596
Rp6597
(dp6598
g16
VPOS
p6599
sbatp6600
Rp6601
(dp6602
g16
VNP
p6603
sbag5
(g6
g7
(lp6604
V\u005c
p6605
atp6606
Rp6607
(dp6608
g16
VJJ
p6609
sbag5
(g6
g7
(lp6610
Vu2019
p6611
atp6612
Rp6613
(dp6614
g16
VNNS
p6615
sbag5
(g6
g7
(lp6616
g2168
atp6617
Rp6618
(dp6619
g16
VPOS
p6620
sbatp6621
Rp6622
(dp6623
g16
VNP
p6624
sbag5
(g6
g7
(lp6625
Vannotations
p6626
atp6627
Rp6628
(dp6629
g16
VNNS
p6630
sbatp6631
Rp6632
(dp6633
g16
VNP
p6634
sbag5
(g6
g7
(lp6635
g5
(g6
g7
(lp6636
Vare
p6637
atp6638
Rp6639
(dp6640
g16
VVBP
p6641
sbag5
(g6
g7
(lp6642
g5
(g6
g7
(lp6643
Vtreated
p6644
atp6645
Rp6646
(dp6647
g16
VVBN
p6648
sbag5
(g6
g7
(lp6649
g5
(g6
g7
(lp6650
Vas
p6651
atp6652
Rp6653
(dp6654
g16
VIN
p6655
sbag5
(g6
g7
(lp6656
g5
(g6
g7
(lp6657
g5
(g6
g7
(lp6658
Vgold
p6659
atp6660
Rp6661
(dp6662
g16
VJJ
p6663
sbag5
(g6
g7
(lp6664
Vstandard
p6665
atp6666
Rp6667
(dp6668
g16
VNN
p6669
sbatp6670
Rp6671
(dp6672
g16
VNP
p6673
sbag5
(g6
g7
(lp6674
g5
(g6
g7
(lp6675
Vfor
p6676
atp6677
Rp6678
(dp6679
g16
VIN
p6680
sbag5
(g6
g7
(lp6681
g5
(g6
g7
(lp6682
Vthe
p6683
atp6684
Rp6685
(dp6686
g16
VDT
p6687
sbag5
(g6
g7
(lp6688
Vdetailed
p6689
atp6690
Rp6691
(dp6692
g16
VJJ
p6693
sbag5
(g6
g7
(lp6694
Vcorrections
p6695
atp6696
Rp6697
(dp6698
g16
VNNS
p6699
sbatp6700
Rp6701
(dp6702
g16
VNP
p6703
sbatp6704
Rp6705
(dp6706
g16
VPP
p6707
sbatp6708
Rp6709
(dp6710
g16
VNP
p6711
sbatp6712
Rp6713
(dp6714
g16
VPP
p6715
sbatp6716
Rp6717
(dp6718
g16
VVP
p6719
sbatp6720
Rp6721
(dp6722
g16
VVP
p6723
sbatp6724
Rp6725
(dp6726
g16
g61
sbatp6727
Rp6728
(dp6729
g16
VROOT
p6730
sbag5
(g6
g7
(lp6731
g5
(g6
g7
(lp6732
g5
(g6
g7
(lp6733
g5
(g6
g7
(lp6734
VWe
p6735
atp6736
Rp6737
(dp6738
g16
VPRP
p6739
sbatp6740
Rp6741
(dp6742
g16
VNP
p6743
sbag5
(g6
g7
(lp6744
g5
(g6
g7
(lp6745
Vconsidered
p6746
atp6747
Rp6748
(dp6749
g16
VVBD
p6750
sbag5
(g6
g7
(lp6751
g5
(g6
g7
(lp6752
g5
(g6
g7
(lp6753
Vfour
p6754
atp6755
Rp6756
(dp6757
g16
VCD
p6758
sbag5
(g6
g7
(lp6759
Vcorpora
p6760
atp6761
Rp6762
(dp6763
g16
VNN
p6764
sbatp6765
Rp6766
(dp6767
g16
VNP
p6768
sbag5
(g6
g7
(lp6769
g5
(g6
g7
(lp6770
Vwith
p6771
atp6772
Rp6773
(dp6774
g16
VIN
p6775
sbag5
(g6
g7
(lp6776
g5
(g6
g7
(lp6777
Vdifferent
p6778
atp6779
Rp6780
(dp6781
g16
VJJ
p6782
sbag5
(g6
g7
(lp6783
VESL
p6784
atp6785
Rp6786
(dp6787
g16
VNNP
p6788
sbag5
(g6
g7
(lp6789
Vpopulations
p6790
atp6791
Rp6792
(dp6793
g16
VNNS
p6794
sbag5
(g6
g7
(lp6795
Vand
p6796
atp6797
Rp6798
(dp6799
g16
VCC
p6800
sbag5
(g6
g7
(lp6801
Vannotation
p6802
atp6803
Rp6804
(dp6805
g16
VNN
p6806
sbag5
(g6
g7
(lp6807
Vstandards
p6808
atp6809
Rp6810
(dp6811
g16
VNNS
p6812
sbatp6813
Rp6814
(dp6815
g16
VNP
p6816
sbatp6817
Rp6818
(dp6819
g16
VPP
p6820
sbatp6821
Rp6822
(dp6823
g16
VNP
p6824
sbag5
(g6
g7
(lp6825
g67
atp6826
Rp6827
(dp6828
g16
g67
sbag5
(g6
g7
(lp6829
g5
(g6
g7
(lp6830
Vincluding
p6831
atp6832
Rp6833
(dp6834
g16
VVBG
p6835
sbag5
(g6
g7
(lp6836
g5
(g6
g7
(lp6837
g5
(g6
g7
(lp6838
VFCE
p6839
atp6840
Rp6841
(dp6842
g16
VNNP
p6843
sbag5
(g6
g7
(lp6844
Vcorpus
p6845
atp6846
Rp6847
(dp6848
g16
VNNP
p6849
sbag5
(g6
g7
(lp6850
V-LSB-
p6851
atp6852
Rp6853
(dp6854
g16
VNNP
p6855
sbatp6856
Rp6857
(dp6858
g16
VNP
p6859
sbag5
(g6
g7
(lp6860
g5
(g6
g7
(lp6861
g5
(g6
g7
(lp6862
g5
(g6
g7
(lp6863
V17
p6864
atp6865
Rp6866
(dp6867
g16
VCD
p6868
sbag5
(g6
g7
(lp6869
V-RSB-
p6870
atp6871
Rp6872
(dp6873
g16
VNNP
p6874
sbag5
(g6
g7
(lp6875
g67
atp6876
Rp6877
(dp6878
g16
g67
sbag5
(g6
g7
(lp6879
VNUCLE
p6880
atp6881
Rp6882
(dp6883
g16
VNNP
p6884
sbag5
(g6
g7
(lp6885
Vcorpus
p6886
atp6887
Rp6888
(dp6889
g16
VCD
p6890
sbag5
(g6
g7
(lp6891
V-LSB-
p6892
atp6893
Rp6894
(dp6895
g16
VNNP
p6896
sbag5
(g6
g7
(lp6897
V2
p6898
atp6899
Rp6900
(dp6901
g16
VCD
p6902
sbag5
(g6
g7
(lp6903
V-RSB-
p6904
atp6905
Rp6906
(dp6907
g16
VNNP
p6908
sbag5
(g6
g7
(lp6909
g67
atp6910
Rp6911
(dp6912
g16
g67
sbag5
(g6
g7
(lp6913
VUIUC
p6914
atp6915
Rp6916
(dp6917
g16
VNN
p6918
sbag5
(g6
g7
(lp6919
Vcorpus
p6920
atp6921
Rp6922
(dp6923
g16
VNN
p6924
sbag5
(g6
g7
(lp6925
g6898
atp6926
Rp6927
(dp6928
g16
VCD
p6929
sbag5
(g6
g7
(lp6930
g6898
atp6931
Rp6932
(dp6933
g16
VCD
p6934
sbag5
(g6
g7
(lp6935
VUIUC
p6936
atp6937
Rp6938
(dp6939
g16
VJJ
p6940
sbag5
(g6
g7
(lp6941
Vcorpus
p6942
atp6943
Rp6944
(dp6945
g16
VNN
p6946
sbatp6947
Rp6948
(dp6949
g16
VNP
p6950
sbag5
(g6
g7
(lp6951
g5
(g6
g7
(lp6952
Vcontains
p6953
atp6954
Rp6955
(dp6956
g16
VVBZ
p6957
sbag5
(g6
g7
(lp6958
g5
(g6
g7
(lp6959
g5
(g6
g7
(lp6960
Vannotations
p6961
atp6962
Rp6963
(dp6964
g16
VNNS
p6965
sbatp6966
Rp6967
(dp6968
g16
VNP
p6969
sbag5
(g6
g7
(lp6970
g5
(g6
g7
(lp6971
Vof
p6972
atp6973
Rp6974
(dp6975
g16
VIN
p6976
sbag5
(g6
g7
(lp6977
g5
(g6
g7
(lp6978
g5
(g6
g7
(lp6979
Vessays
p6980
atp6981
Rp6982
(dp6983
g16
VNNS
p6984
sbatp6985
Rp6986
(dp6987
g16
VNP
p6988
sbag5
(g6
g7
(lp6989
g5
(g6
g7
(lp6990
Vcollected
p6991
atp6992
Rp6993
(dp6994
g16
VVBN
p6995
sbag5
(g6
g7
(lp6996
g5
(g6
g7
(lp6997
Vfrom
p6998
atp6999
Rp7000
(dp7001
g16
VIN
p7002
sbag5
(g6
g7
(lp7003
g5
(g6
g7
(lp7004
VICLE
p7005
atp7006
Rp7007
(dp7008
g16
VNNP
p7009
sbag5
(g6
g7
(lp7010
V-LSB-
p7011
atp7012
Rp7013
(dp7014
g16
VNNP
p7015
sbag5
(g6
g7
(lp7016
V6
p7017
atp7018
Rp7019
(dp7020
g16
VCD
p7021
sbag5
(g6
g7
(lp7022
V-RSB-
p7023
atp7024
Rp7025
(dp7026
g16
VNNS
p7027
sbag5
(g6
g7
(lp7028
Vand
p7029
atp7030
Rp7031
(dp7032
g16
VCC
p7033
sbag5
(g6
g7
(lp7034
VCLEC
p7035
atp7036
Rp7037
(dp7038
g16
VNNP
p7039
sbag5
(g6
g7
(lp7040
V-LSB-
p7041
atp7042
Rp7043
(dp7044
g16
VNNP
p7045
sbag5
(g6
g7
(lp7046
V7
p7047
atp7048
Rp7049
(dp7050
g16
VCD
p7051
sbag5
(g6
g7
(lp7052
V-RSB-
p7053
atp7054
Rp7055
(dp7056
g16
VNNS
p7057
sbatp7058
Rp7059
(dp7060
g16
VNP
p7061
sbatp7062
Rp7063
(dp7064
g16
VPP
p7065
sbatp7066
Rp7067
(dp7068
g16
VVP
p7069
sbatp7070
Rp7071
(dp7072
g16
VNP
p7073
sbatp7074
Rp7075
(dp7076
g16
VPP
p7077
sbatp7078
Rp7079
(dp7080
g16
VNP
p7081
sbatp7082
Rp7083
(dp7084
g16
VVP
p7085
sbatp7086
Rp7087
(dp7088
g16
g61
sbatp7089
Rp7090
(dp7091
g16
VSBAR
p7092
sbatp7093
Rp7094
(dp7095
g16
VNP
p7096
sbatp7097
Rp7098
(dp7099
g16
VPP
p7100
sbatp7101
Rp7102
(dp7103
g16
VVP
p7104
sbatp7105
Rp7106
(dp7107
g16
g61
sbatp7108
Rp7109
(dp7110
g16
VROOT
p7111
sbasg211
(icmyPackage
CorE
p7112
(dp7113
g214
(lp7114
(I0
I11
tp7115
a(I1
I44
tp7116
asg218
g5
(g6
g7
(lp7117
g6709
ag6741
ag6748
ag6822
ag6827
ag6833
ag6857
ag6948
ag6955
ag6967
ag6974
ag6986
ag6993
ag7000
ag7007
ag7013
ag7019
ag7025
ag7031
ag7037
ag7043
ag7049
atp7118
Rp7119
(dp7120
g16
g229
sbsbsg219
(icmyPackage
CorE
p7121
(dp7122
g214
(lp7123
(I0
I0
tp7124
a(I0
I9
tp7125
asg218
g5
(g6
g7
(lp7126
g6632
ag6639
ag6646
atp7127
Rp7128
(dp7129
g16
g229
sbsbsg230
(icmyPackage
pattern
p7130
(dp7131
g233
I26
sg234
I1
sg235
(lp7132
(lp7133
S'as'
p7134
aasg241
(lp7135
I3
aI1
aI1
asg243
(lp7136
S'You do not need to worry about the operation, as the software is very easy to use.'
p7137
asg246
I80
sg247
(lp7138
(lp7139
S'&R@Complete@'
p7140
aS'(,)'
p7141
aS'(-such/-same/-seem/-regard/-regards/-regarded/-view/-views/-viewed/-denote/-denoted/-denotes)'
p7142
aa(lp7143
S'(-if/-follow/-follows/-&adv)'
p7144
aS'&C@Complete@'
p7145
aasbsg254
(lp7146
(isxpPackage
sxpSent
p7147
(dp7148
g258
(lp7149
I19
asg260
VThe teachers u'\u005cu2019' annotations are treated as gold standard for the detailed corrections
p7150
sg262
I6
sg246
I77
sg263
I19
sba(isxpPackage
sxpSent
p7151
(dp7152
g258
(lp7153
I19
asg260
VWe considered four corpora with different ESL populations and annotation standards, including FCE corpus [ 17 ] , NUCLE corpus [ 2 ] , UIUC corpus 2 2 UIUC corpus contains annotations of essays collected from ICLE [ 6 ] and CLEC [ 7 ]
p7154
sg262
I6
sg246
I78
sg263
I20
sbasba(icmyPackage
CELink
p7155
(dp7156
g3
(lp7157
g5
(g6
g7
(lp7158
g5
(g6
g7
(lp7159
g5
(g6
g7
(lp7160
g5
(g6
g7
(lp7161
VFirst
p7162
atp7163
Rp7164
(dp7165
g16
VRB
p7166
sbatp7167
Rp7168
(dp7169
g16
VADVP
p7170
sbag5
(g6
g7
(lp7171
g67
atp7172
Rp7173
(dp7174
g16
g67
sbag5
(g6
g7
(lp7175
g5
(g6
g7
(lp7176
VTable
p7177
atp7178
Rp7179
(dp7180
g16
VNNP
p7181
sbag5
(g6
g7
(lp7182
V4
p7183
atp7184
Rp7185
(dp7186
g16
VCD
p7187
sbatp7188
Rp7189
(dp7190
g16
VNP
p7191
sbag5
(g6
g7
(lp7192
g5
(g6
g7
(lp7193
Vshows
p7194
atp7195
Rp7196
(dp7197
g16
VVBZ
p7198
sbag5
(g6
g7
(lp7199
g5
(g6
g7
(lp7200
Vthat
p7201
atp7202
Rp7203
(dp7204
g16
VIN
p7205
sbag5
(g6
g7
(lp7206
g5
(g6
g7
(lp7207
g5
(g6
g7
(lp7208
Vby
p7209
atp7210
Rp7211
(dp7212
g16
VIN
p7213
sbag5
(g6
g7
(lp7214
g5
(g6
g7
(lp7215
g5
(g6
g7
(lp7216
Vincorporating
p7217
atp7218
Rp7219
(dp7220
g16
VVBG
p7221
sbag5
(g6
g7
(lp7222
g5
(g6
g7
(lp7223
Vcorrection
p7224
atp7225
Rp7226
(dp7227
g16
VNN
p7228
sbag5
(g6
g7
(lp7229
Vpatterns
p7230
atp7231
Rp7232
(dp7233
g16
VNNS
p7234
sbatp7235
Rp7236
(dp7237
g16
VNP
p7238
sbag5
(g6
g7
(lp7239
g5
(g6
g7
(lp7240
Vinto
p7241
atp7242
Rp7243
(dp7244
g16
VIN
p7245
sbag5
(g6
g7
(lp7246
g5
(g6
g7
(lp7247
Vthe
p7248
atp7249
Rp7250
(dp7251
g16
VDT
p7252
sbag5
(g6
g7
(lp7253
Vmerging
p7254
atp7255
Rp7256
(dp7257
g16
VJJ
p7258
sbag5
(g6
g7
(lp7259
Valgorithm
p7260
atp7261
Rp7262
(dp7263
g16
VNN
p7264
sbatp7265
Rp7266
(dp7267
g16
VNP
p7268
sbatp7269
Rp7270
(dp7271
g16
VPP
p7272
sbatp7273
Rp7274
(dp7275
g16
VVP
p7276
sbatp7277
Rp7278
(dp7279
g16
g61
sbatp7280
Rp7281
(dp7282
g16
VPP
p7283
sbag5
(g6
g7
(lp7284
g67
atp7285
Rp7286
(dp7287
g16
g67
sbag5
(g6
g7
(lp7288
g5
(g6
g7
(lp7289
g5
(g6
g7
(lp7290
Vthe
p7291
atp7292
Rp7293
(dp7294
g16
VDT
p7295
sbag5
(g6
g7
(lp7296
Verrors
p7297
atp7298
Rp7299
(dp7300
g16
VNNS
p7301
sbatp7302
Rp7303
(dp7304
g16
VNP
p7305
sbag5
(g6
g7
(lp7306
g5
(g6
g7
(lp7307
Vin
p7308
atp7309
Rp7310
(dp7311
g16
VIN
p7312
sbag5
(g6
g7
(lp7313
g5
(g6
g7
(lp7314
Vcorrection
p7315
atp7316
Rp7317
(dp7318
g16
VNN
p7319
sbag5
(g6
g7
(lp7320
Vdetection
p7321
atp7322
Rp7323
(dp7324
g16
VNN
p7325
sbag5
(g6
g7
(lp7326
Vstep
p7327
atp7328
Rp7329
(dp7330
g16
VNN
p7331
sbatp7332
Rp7333
(dp7334
g16
VNP
p7335
sbatp7336
Rp7337
(dp7338
g16
VPP
p7339
sbatp7340
Rp7341
(dp7342
g16
VNP
p7343
sbag5
(g6
g7
(lp7344
g5
(g6
g7
(lp7345
Vwere
p7346
atp7347
Rp7348
(dp7349
g16
VVBD
p7350
sbag5
(g6
g7
(lp7351
g5
(g6
g7
(lp7352
Vreduced
p7353
atp7354
Rp7355
(dp7356
g16
VVBN
p7357
sbatp7358
Rp7359
(dp7360
g16
VVP
p7361
sbatp7362
Rp7363
(dp7364
g16
VVP
p7365
sbatp7366
Rp7367
(dp7368
g16
g61
sbatp7369
Rp7370
(dp7371
g16
VSBAR
p7372
sbatp7373
Rp7374
(dp7375
g16
VVP
p7376
sbatp7377
Rp7378
(dp7379
g16
g61
sbatp7380
Rp7381
(dp7382
g16
VROOT
p7383
sbasg211
(icmyPackage
CorE
p7384
(dp7385
g214
(lp7386
(I0
I7
tp7387
a(I0
I13
tp7388
asg218
g7278
sbsg219
(icmyPackage
CorE
p7389
(dp7390
g214
(lp7391
(I0
I14
tp7392
a(I0
I22
tp7393
asg218
g5
(g6
g7
(lp7394
g7286
ag7341
ag7363
atp7395
Rp7396
(dp7397
g16
g229
sbsbsg230
(icmyPackage
pattern
p7398
(dp7399
g233
I0
sg234
I0
sg235
(lp7400
(lp7401
(lp7402
S'by'
p7403
aS'through'
p7404
aaasg241
(lp7405
I2
aI1
aI1
asg243
(lp7406
S'By extracting comments and comparisons of the cited articles and then organizing them according to the time of publication discovers and displays how the area has developed as a research literature.'
p7407
asg246
I67
sg247
(lp7408
(lp7409
a(lp7410
S'&V-ing@C@'
p7411
aS'&R'
p7412
aasbsg254
(lp7413
(isxpPackage
sxpSent
p7414
(dp7415
g258
(lp7416
I20
aI21
asg260
VFirst, Table 4 shows that by incorporating correction patterns into the merging algorithm, the errors in correction detection step were reduced
p7417
sg262
I10
sg246
I102
sg263
I30
sbasba(icmyPackage
CELink
p7418
(dp7419
g3
(lp7420
g7381
ag5
(g6
g7
(lp7421
g5
(g6
g7
(lp7422
g5
(g6
g7
(lp7423
g5
(g6
g7
(lp7424
VThis
p7425
atp7426
Rp7427
(dp7428
g16
VDT
p7429
sbatp7430
Rp7431
(dp7432
g16
VNP
p7433
sbag5
(g6
g7
(lp7434
g5
(g6
g7
(lp7435
Vled
p7436
atp7437
Rp7438
(dp7439
g16
VVBN
p7440
sbag5
(g6
g7
(lp7441
g5
(g6
g7
(lp7442
Vto
p7443
atp7444
Rp7445
(dp7446
g16
VTO
p7447
sbag5
(g6
g7
(lp7448
g5
(g6
g7
(lp7449
g5
(g6
g7
(lp7450
g612
atp7451
Rp7452
(dp7453
g16
VDT
p7454
sbag5
(g6
g7
(lp7455
Vsignificant
p7456
atp7457
Rp7458
(dp7459
g16
VJJ
p7460
sbag5
(g6
g7
(lp7461
Vimprovement
p7462
atp7463
Rp7464
(dp7465
g16
VNN
p7466
sbatp7467
Rp7468
(dp7469
g16
VNP
p7470
sbag5
(g6
g7
(lp7471
g5
(g6
g7
(lp7472
Von
p7473
atp7474
Rp7475
(dp7476
g16
VIN
p7477
sbag5
(g6
g7
(lp7478
g5
(g6
g7
(lp7479
g5
(g6
g7
(lp7480
Vthe
p7481
atp7482
Rp7483
(dp7484
g16
VDT
p7485
sbag5
(g6
g7
(lp7486
Voverall
p7487
atp7488
Rp7489
(dp7490
g16
VJJ
p7491
sbag5
(g6
g7
(lp7492
Vsystem
p7493
atp7494
Rp7495
(dp7496
g16
VNN
p7497
sbag5
(g6
g7
(lp7498
g2162
atp7499
Rp7500
(dp7501
g16
VNN
p7502
sbag5
(g6
g7
(lp7503
g2168
atp7504
Rp7505
(dp7506
g16
VPOS
p7507
sbatp7508
Rp7509
(dp7510
g16
VNP
p7511
sbag5
(g6
g7
(lp7512
V\u005c
p7513
atp7514
Rp7515
(dp7516
g16
VJJ
p7517
sbag5
(g6
g7
(lp7518
Vu2019
p7519
atp7520
Rp7521
(dp7522
g16
VNNS
p7523
sbag5
(g6
g7
(lp7524
g2168
atp7525
Rp7526
(dp7527
g16
V''
p7528
sbag5
(g6
g7
(lp7529
g4273
atp7530
Rp7531
(dp7532
g16
VNN
p7533
sbatp7534
Rp7535
(dp7536
g16
VNP
p7537
sbatp7538
Rp7539
(dp7540
g16
VPP
p7541
sbatp7542
Rp7543
(dp7544
g16
VNP
p7545
sbatp7546
Rp7547
(dp7548
g16
VPP
p7549
sbatp7550
Rp7551
(dp7552
g16
VVP
p7553
sbag5
(g6
g7
(lp7554
g5
(g6
g7
(lp7555
g5
(g6
g7
(lp7556
VF
p7557
atp7558
Rp7559
(dp7560
g16
VNN
p7561
sbag5
(g6
g7
(lp7562
g2117
atp7563
Rp7564
(dp7565
g16
VCD
p7566
sbatp7567
Rp7568
(dp7569
g16
VNP
p7570
sbag5
(g6
g7
(lp7571
V-
p7572
atp7573
Rp7574
(dp7575
g16
g2464
sbag5
(g6
g7
(lp7576
g5
(g6
g7
(lp7577
g5
(g6
g7
(lp7578
Vscore
p7579
atp7580
Rp7581
(dp7582
g16
VNN
p7583
sbatp7584
Rp7585
(dp7586
g16
VNP
p7587
sbag5
(g6
g7
(lp7588
g5
(g6
g7
(lp7589
Von
p7590
atp7591
Rp7592
(dp7593
g16
VIN
p7594
sbag5
(g6
g7
(lp7595
g5
(g6
g7
(lp7596
Vall
p7597
atp7598
Rp7599
(dp7600
g16
VDT
p7601
sbag5
(g6
g7
(lp7602
Vcorpora
p7603
atp7604
Rp7605
(dp7606
g16
VNN
p7607
sbatp7608
Rp7609
(dp7610
g16
VNP
p7611
sbatp7612
Rp7613
(dp7614
g16
VPP
p7615
sbatp7616
Rp7617
(dp7618
g16
VPP
p7619
sbatp7620
Rp7621
(dp7622
g16
VX
p7623
sbatp7624
Rp7625
(dp7626
g16
VNP
p7627
sbatp7628
Rp7629
(dp7630
g16
VROOT
p7631
sbasg211
(icmyPackage
CorE
p7632
(dp7633
g214
(lp7634
(I0
I0
tp7635
a(I0
I22
tp7636
asg218
g7381
sbsg219
(icmyPackage
CorE
p7637
(dp7638
g214
(lp7639
(I1
I3
tp7640
a(I1
I17
tp7641
asg218
g5
(g6
g7
(lp7642
g7543
ag7568
atp7643
Rp7644
(dp7645
g16
g229
sbsbsg230
(icmyPackage
pattern
p7646
(dp7647
g233
I0
sg234
I1
sg235
(lp7648
(lp7649
(lp7650
S'lead'
p7651
aS'leads'
p7652
aS'led'
p7653
aaS'to'
p7654
aasg241
(lp7655
I4
aI1
aI1
asg243
(lp7656
S"Representation and its summarization are separated. This leads to the separation of author's meaning, summarizer's understanding, and readers' understanding."
p7657
asg246
I95
sg247
(lp7658
(lp7659
S'&C'
p7660
aS'(,/./;/--)'
p7661
aS'&this'
p7662
aS'(&adj)'
p7663
aS'(&N)'
p7664
aS'(&CAN/have/has/had)'
p7665
aS'(&ADV)'
p7666
aa(lp7667
S'&NP@R@'
p7668
aasbsg254
(lp7669
g7414
a(isxpPackage
sxpSent
p7670
(dp7671
g258
(lp7672
I21
asg260
VThis led to a significant improvement on the overall system u'\u005cu2019' s F 1 -score on all corpora
p7673
sg262
I10
sg246
I103
sg263
I30
sbasba(icmyPackage
CELink
p7674
(dp7675
g3
(lp7676
g5
(g6
g7
(lp7677
g5
(g6
g7
(lp7678
g5
(g6
g7
(lp7679
g5
(g6
g7
(lp7680
g5
(g6
g7
(lp7681
VThe
p7682
atp7683
Rp7684
(dp7685
g16
VDT
p7686
sbag5
(g6
g7
(lp7687
Vmodels
p7688
atp7689
Rp7690
(dp7691
g16
VNNS
p7692
sbatp7693
Rp7694
(dp7695
g16
VNP
p7696
sbag5
(g6
g7
(lp7697
g5
(g6
g7
(lp7698
Vbuilt
p7699
atp7700
Rp7701
(dp7702
g16
VVBN
p7703
sbag5
(g6
g7
(lp7704
g5
(g6
g7
(lp7705
Von
p7706
atp7707
Rp7708
(dp7709
g16
VIN
p7710
sbag5
(g6
g7
(lp7711
g5
(g6
g7
(lp7712
Vcorpora
p7713
atp7714
Rp7715
(dp7716
g16
VNN
p7717
sbatp7718
Rp7719
(dp7720
g16
VNP
p7721
sbatp7722
Rp7723
(dp7724
g16
VPP
p7725
sbatp7726
Rp7727
(dp7728
g16
VVP
p7729
sbatp7730
Rp7731
(dp7732
g16
VNP
p7733
sbag5
(g6
g7
(lp7734
g5
(g6
g7
(lp7735
Vcan
p7736
atp7737
Rp7738
(dp7739
g16
VMD
p7740
sbag5
(g6
g7
(lp7741
g5
(g6
g7
(lp7742
Vgenerally
p7743
atp7744
Rp7745
(dp7746
g16
VRB
p7747
sbatp7748
Rp7749
(dp7750
g16
VADVP
p7751
sbag5
(g6
g7
(lp7752
g5
(g6
g7
(lp7753
Vimprove
p7754
atp7755
Rp7756
(dp7757
g16
VVB
p7758
sbag5
(g6
g7
(lp7759
g5
(g6
g7
(lp7760
g5
(g6
g7
(lp7761
Vthe
p7762
atp7763
Rp7764
(dp7765
g16
VDT
p7766
sbag5
(g6
g7
(lp7767
Vcorrection
p7768
atp7769
Rp7770
(dp7771
g16
VNN
p7772
sbag5
(g6
g7
(lp7773
Vdetection
p7774
atp7775
Rp7776
(dp7777
g16
VNN
p7778
sbag5
(g6
g7
(lp7779
Vaccuracy
p7780
atp7781
Rp7782
(dp7783
g16
VNN
p7784
sbatp7785
Rp7786
(dp7787
g16
VNP
p7788
sbag5
(g6
g7
(lp7789
g5
(g6
g7
(lp7790
g188
atp7791
Rp7792
(dp7793
g16
VCD
p7794
sbag5
(g6
g7
(lp7795
g188
atp7796
Rp7797
(dp7798
g16
VCD
p7799
sbatp7800
Rp7801
(dp7802
g16
VADJP
p7803
sbag5
(g6
g7
(lp7804
g5
(g6
g7
(lp7805
g5
(g6
g7
(lp7806
g5
(g6
g7
(lp7807
VWe
p7808
atp7809
Rp7810
(dp7811
g16
VPRP
p7812
sbatp7813
Rp7814
(dp7815
g16
VNP
p7816
sbag5
(g6
g7
(lp7817
g5
(g6
g7
(lp7818
Vcurrently
p7819
atp7820
Rp7821
(dp7822
g16
VRB
p7823
sbatp7824
Rp7825
(dp7826
g16
VADVP
p7827
sbag5
(g6
g7
(lp7828
g5
(g6
g7
(lp7829
Vdo
p7830
atp7831
Rp7832
(dp7833
g16
VVBP
p7834
sbag5
(g6
g7
(lp7835
Vnot
p7836
atp7837
Rp7838
(dp7839
g16
VRB
p7840
sbag5
(g6
g7
(lp7841
g5
(g6
g7
(lp7842
Vevaluate
p7843
atp7844
Rp7845
(dp7846
g16
VVB
p7847
sbag5
(g6
g7
(lp7848
g5
(g6
g7
(lp7849
Vthe
p7850
atp7851
Rp7852
(dp7853
g16
VDT
p7854
sbag5
(g6
g7
(lp7855
Vend-to-end
p7856
atp7857
Rp7858
(dp7859
g16
VJJ
p7860
sbag5
(g6
g7
(lp7861
Vsystem
p7862
atp7863
Rp7864
(dp7865
g16
VNN
p7866
sbatp7867
Rp7868
(dp7869
g16
VNP
p7870
sbag5
(g6
g7
(lp7871
g5
(g6
g7
(lp7872
Vover
p7873
atp7874
Rp7875
(dp7876
g16
VIN
p7877
sbag5
(g6
g7
(lp7878
g5
(g6
g7
(lp7879
Vdifferent
p7880
atp7881
Rp7882
(dp7883
g16
VJJ
p7884
sbag5
(g6
g7
(lp7885
Vcorpora
p7886
atp7887
Rp7888
(dp7889
g16
VNN
p7890
sbatp7891
Rp7892
(dp7893
g16
VNP
p7894
sbatp7895
Rp7896
(dp7897
g16
VPP
p7898
sbatp7899
Rp7900
(dp7901
g16
VVP
p7902
sbatp7903
Rp7904
(dp7905
g16
VVP
p7906
sbatp7907
Rp7908
(dp7909
g16
g61
sbatp7910
Rp7911
(dp7912
g16
VSBAR
p7913
sbatp7914
Rp7915
(dp7916
g16
VNP
p7917
sbatp7918
Rp7919
(dp7920
g16
VVP
p7921
sbatp7922
Rp7923
(dp7924
g16
VVP
p7925
sbatp7926
Rp7927
(dp7928
g16
g61
sbatp7929
Rp7930
(dp7931
g16
VROOT
p7932
sbag5
(g6
g7
(lp7933
g5
(g6
g7
(lp7934
g5
(g6
g7
(lp7935
g5
(g6
g7
(lp7936
VThis
p7937
atp7938
Rp7939
(dp7940
g16
VDT
p7941
sbatp7942
Rp7943
(dp7944
g16
VNP
p7945
sbag5
(g6
g7
(lp7946
g5
(g6
g7
(lp7947
Vis
p7948
atp7949
Rp7950
(dp7951
g16
VVBZ
p7952
sbag5
(g6
g7
(lp7953
g5
(g6
g7
(lp7954
Vbecause
p7955
atp7956
Rp7957
(dp7958
g16
VIN
p7959
sbag5
(g6
g7
(lp7960
g5
(g6
g7
(lp7961
g5
(g6
g7
(lp7962
Vdifferent
p7963
atp7964
Rp7965
(dp7966
g16
VJJ
p7967
sbag5
(g6
g7
(lp7968
Vcorpora
p7969
atp7970
Rp7971
(dp7972
g16
VNN
p7973
sbatp7974
Rp7975
(dp7976
g16
VNP
p7977
sbag5
(g6
g7
(lp7978
g5
(g6
g7
(lp7979
Vemploy
p7980
atp7981
Rp7982
(dp7983
g16
VVBP
p7984
sbag5
(g6
g7
(lp7985
g5
(g6
g7
(lp7986
Vdifferent
p7987
atp7988
Rp7989
(dp7990
g16
VJJ
p7991
sbag5
(g6
g7
(lp7992
Verror
p7993
atp7994
Rp7995
(dp7996
g16
VNN
p7997
sbag5
(g6
g7
(lp7998
Vtype
p7999
atp8000
Rp8001
(dp8002
g16
VNN
p8003
sbag5
(g6
g7
(lp8004
Vcategorization
p8005
atp8006
Rp8007
(dp8008
g16
VNN
p8009
sbag5
(g6
g7
(lp8010
Vstandards
p8011
atp8012
Rp8013
(dp8014
g16
VNNS
p8015
sbatp8016
Rp8017
(dp8018
g16
VNP
p8019
sbatp8020
Rp8021
(dp8022
g16
VVP
p8023
sbatp8024
Rp8025
(dp8026
g16
g61
sbatp8027
Rp8028
(dp8029
g16
VSBAR
p8030
sbatp8031
Rp8032
(dp8033
g16
VVP
p8034
sbatp8035
Rp8036
(dp8037
g16
g61
sbatp8038
Rp8039
(dp8040
g16
VROOT
p8041
sbasg211
(icmyPackage
CorE
p8042
(dp8043
g214
(lp8044
(I1
I3
tp8045
a(I1
I10
tp8046
asg218
g8025
sbsg219
(icmyPackage
CorE
p8047
(dp8048
g214
(lp8049
(I0
I0
tp8050
a(I0
I24
tp8051
asg218
g7930
sbsg230
g5296
sg254
(lp8052
(isxpPackage
sxpSent
p8053
(dp8054
g258
(lp8055
I22
asg260
VThe models built on corpora can generally improve the correction detection accuracy 5 5 We currently do not evaluate the end-to-end system over different corpora
p8056
sg262
I10
sg246
I110
sg263
I31
sba(isxpPackage
sxpSent
p8057
(dp8058
g258
(lp8059
I22
asg260
VThis is because different corpora employ different error type categorization standards
p8060
sg262
I10
sg246
I111
sg263
I31
sbasba(icmyPackage
CELink
p8061
(dp8062
g3
(lp8063
g5
(g6
g7
(lp8064
g5
(g6
g7
(lp8065
g5
(g6
g7
(lp8066
g5
(g6
g7
(lp8067
VAlso
p8068
atp8069
Rp8070
(dp8071
g16
VRB
p8072
sbatp8073
Rp8074
(dp8075
g16
VADVP
p8076
sbag5
(g6
g7
(lp8077
g67
atp8078
Rp8079
(dp8080
g16
g67
sbag5
(g6
g7
(lp8081
g5
(g6
g7
(lp8082
Vas
p8083
atp8084
Rp8085
(dp8086
g16
VIN
p8087
sbag5
(g6
g7
(lp8088
g5
(g6
g7
(lp8089
g5
(g6
g7
(lp8090
Vsuggested
p8091
atp8092
Rp8093
(dp8094
g16
VVBD
p8095
sbag5
(g6
g7
(lp8096
g5
(g6
g7
(lp8097
Vby
p8098
atp8099
Rp8100
(dp8101
g16
VIN
p8102
sbag5
(g6
g7
(lp8103
g5
(g6
g7
(lp8104
Vthe
p8105
atp8106
Rp8107
(dp8108
g16
VDT
p8109
sbag5
(g6
g7
(lp8110
Vexperimental
p8111
atp8112
Rp8113
(dp8114
g16
VJJ
p8115
sbag5
(g6
g7
(lp8116
Vresult
p8117
atp8118
Rp8119
(dp8120
g16
VNN
p8121
sbatp8122
Rp8123
(dp8124
g16
VNP
p8125
sbatp8126
Rp8127
(dp8128
g16
VPP
p8129
sbag5
(g6
g7
(lp8130
g67
atp8131
Rp8132
(dp8133
g16
g67
sbag5
(g6
g7
(lp8134
g5
(g6
g7
(lp8135
Vamong
p8136
atp8137
Rp8138
(dp8139
g16
VIN
p8140
sbag5
(g6
g7
(lp8141
g5
(g6
g7
(lp8142
Vthe
p8143
atp8144
Rp8145
(dp8146
g16
VDT
p8147
sbag5
(g6
g7
(lp8148
Vfour
p8149
atp8150
Rp8151
(dp8152
g16
VCD
p8153
sbag5
(g6
g7
(lp8154
Vcorpora
p8155
atp8156
Rp8157
(dp8158
g16
VNN
p8159
sbatp8160
Rp8161
(dp8162
g16
VNP
p8163
sbatp8164
Rp8165
(dp8166
g16
VPP
p8167
sbatp8168
Rp8169
(dp8170
g16
VVP
p8171
sbatp8172
Rp8173
(dp8174
g16
g61
sbatp8175
Rp8176
(dp8177
g16
VSBAR
p8178
sbag5
(g6
g7
(lp8179
g67
atp8180
Rp8181
(dp8182
g16
g67
sbag5
(g6
g7
(lp8183
g5
(g6
g7
(lp8184
VFCE
p8185
atp8186
Rp8187
(dp8188
g16
VNNP
p8189
sbag5
(g6
g7
(lp8190
Vcorpus
p8191
atp8192
Rp8193
(dp8194
g16
VNNP
p8195
sbatp8196
Rp8197
(dp8198
g16
VNP
p8199
sbag5
(g6
g7
(lp8200
g5
(g6
g7
(lp8201
Vis
p8202
atp8203
Rp8204
(dp8205
g16
VVBZ
p8206
sbag5
(g6
g7
(lp8207
g5
(g6
g7
(lp8208
g5
(g6
g7
(lp8209
g612
atp8210
Rp8211
(dp8212
g16
VDT
p8213
sbag5
(g6
g7
(lp8214
g5
(g6
g7
(lp8215
Vcomparably
p8216
atp8217
Rp8218
(dp8219
g16
VRB
p8220
sbag5
(g6
g7
(lp8221
Vgood
p8222
atp8223
Rp8224
(dp8225
g16
VJJ
p8226
sbatp8227
Rp8228
(dp8229
g16
VADJP
p8230
sbag5
(g6
g7
(lp8231
Vresource
p8232
atp8233
Rp8234
(dp8235
g16
VNN
p8236
sbatp8237
Rp8238
(dp8239
g16
VNP
p8240
sbag5
(g6
g7
(lp8241
g5
(g6
g7
(lp8242
Vfor
p8243
atp8244
Rp8245
(dp8246
g16
VIN
p8247
sbag5
(g6
g7
(lp8248
g5
(g6
g7
(lp8249
g5
(g6
g7
(lp8250
Vtraining
p8251
atp8252
Rp8253
(dp8254
g16
VVBG
p8255
sbag5
(g6
g7
(lp8256
g5
(g6
g7
(lp8257
Vcorrection
p8258
atp8259
Rp8260
(dp8261
g16
VNN
p8262
sbag5
(g6
g7
(lp8263
Vdetection
p8264
atp8265
Rp8266
(dp8267
g16
VNN
p8268
sbag5
(g6
g7
(lp8269
Vmodels
p8270
atp8271
Rp8272
(dp8273
g16
VNNS
p8274
sbatp8275
Rp8276
(dp8277
g16
VNP
p8278
sbag5
(g6
g7
(lp8279
g5
(g6
g7
(lp8280
Vwith
p8281
atp8282
Rp8283
(dp8284
g16
VIN
p8285
sbag5
(g6
g7
(lp8286
g5
(g6
g7
(lp8287
Vour
p8288
atp8289
Rp8290
(dp8291
g16
VPRP$
p8292
sbag5
(g6
g7
(lp8293
Vcurrent
p8294
atp8295
Rp8296
(dp8297
g16
VJJ
p8298
sbag5
(g6
g7
(lp8299
Vfeature
p8300
atp8301
Rp8302
(dp8303
g16
VNN
p8304
sbag5
(g6
g7
(lp8305
Vset
p8306
atp8307
Rp8308
(dp8309
g16
VNN
p8310
sbatp8311
Rp8312
(dp8313
g16
VNP
p8314
sbatp8315
Rp8316
(dp8317
g16
VPP
p8318
sbatp8319
Rp8320
(dp8321
g16
VVP
p8322
sbatp8323
Rp8324
(dp8325
g16
g61
sbatp8326
Rp8327
(dp8328
g16
VPP
p8329
sbatp8330
Rp8331
(dp8332
g16
VNP
p8333
sbatp8334
Rp8335
(dp8336
g16
VVP
p8337
sbatp8338
Rp8339
(dp8340
g16
g61
sbatp8341
Rp8342
(dp8343
g16
VROOT
p8344
sbasg211
(icmyPackage
CorE
p8345
(dp8346
g214
(lp8347
(I0
I0
tp8348
a(I0
I4
tp8349
asg218
g5
(g6
g7
(lp8350
g8074
ag8079
ag8085
ag8093
ag8100
atp8351
Rp8352
(dp8353
g16
g229
sbsbsg219
(icmyPackage
CorE
p8354
(dp8355
g214
(lp8356
(I0
I17
tp8357
a(I0
I30
tp8358
asg218
g8331
sbsg230
(icmyPackage
pattern
p8359
(dp8360
g233
I4
sg234
I1
sg235
(lp8361
(lp8362
S'result'
p8363
aa(lp8364
S'is'
p8365
aasg241
(lp8366
I4
aI2
aI1
asg243
(lp8367
S'Amazing things will happen. The result of this trading is a market that has done what markets do: allocate resources to more productive use.'
p8368
asg246
I135
sg247
(lp8369
(lp8370
S'&C'
p8371
aS'(,/./;/--)'
p8372
aS'&ONE'
p8373
aS'(&adj)'
p8374
aa(lp8375
S'(of &THIS (&NP))'
p8376
aa(lp8377
S'&NP@R@'
p8378
aS'(&Clause@R@)'
p8379
aasbsg254
(lp8380
(isxpPackage
sxpSent
p8381
(dp8382
g258
(lp8383
I23
aI24
asg260
VAlso, as suggested by the experimental result, among the four corpora, FCE corpus is a comparably good resource for training correction detection models with our current feature set
p8384
sg262
I10
sg246
I113
sg263
I31
sbasba(icmyPackage
CELink
p8385
(dp8386
g3
(lp8387
g8342
ag5
(g6
g7
(lp8388
g5
(g6
g7
(lp8389
g5
(g6
g7
(lp8390
g5
(g6
g7
(lp8391
VOne
p8392
atp8393
Rp8394
(dp8395
g16
VCD
p8396
sbag5
(g6
g7
(lp8397
Vreason
p8398
atp8399
Rp8400
(dp8401
g16
VNN
p8402
sbatp8403
Rp8404
(dp8405
g16
VNP
p8406
sbag5
(g6
g7
(lp8407
g5
(g6
g7
(lp8408
Vis
p8409
atp8410
Rp8411
(dp8412
g16
VVBZ
p8413
sbag5
(g6
g7
(lp8414
g5
(g6
g7
(lp8415
Vthat
p8416
atp8417
Rp8418
(dp8419
g16
VIN
p8420
sbag5
(g6
g7
(lp8421
g5
(g6
g7
(lp8422
g5
(g6
g7
(lp8423
VFCE
p8424
atp8425
Rp8426
(dp8427
g16
VNNP
p8428
sbag5
(g6
g7
(lp8429
Vcorpus
p8430
atp8431
Rp8432
(dp8433
g16
VNNP
p8434
sbatp8435
Rp8436
(dp8437
g16
VNP
p8438
sbag5
(g6
g7
(lp8439
g5
(g6
g7
(lp8440
Vhas
p8441
atp8442
Rp8443
(dp8444
g16
VVBZ
p8445
sbag5
(g6
g7
(lp8446
g5
(g6
g7
(lp8447
g5
(g6
g7
(lp8448
g5
(g6
g7
(lp8449
Vmany
p8450
atp8451
Rp8452
(dp8453
g16
VRB
p8454
sbag5
(g6
g7
(lp8455
Vmore
p8456
atp8457
Rp8458
(dp8459
g16
VJJR
p8460
sbatp8461
Rp8462
(dp8463
g16
VADJP
p8464
sbag5
(g6
g7
(lp8465
Vtraining
p8466
atp8467
Rp8468
(dp8469
g16
VNN
p8470
sbag5
(g6
g7
(lp8471
Vinstances
p8472
atp8473
Rp8474
(dp8475
g16
VNNS
p8476
sbatp8477
Rp8478
(dp8479
g16
VNP
p8480
sbag5
(g6
g7
(lp8481
g67
atp8482
Rp8483
(dp8484
g16
g67
sbag5
(g6
g7
(lp8485
g5
(g6
g7
(lp8486
g5
(g6
g7
(lp8487
Vwhich
p8488
atp8489
Rp8490
(dp8491
g16
VWDT
p8492
sbatp8493
Rp8494
(dp8495
g16
VWHNP
p8496
sbag5
(g6
g7
(lp8497
g5
(g6
g7
(lp8498
g5
(g6
g7
(lp8499
Vbenefits
p8500
atp8501
Rp8502
(dp8503
g16
VVBZ
p8504
sbag5
(g6
g7
(lp8505
g5
(g6
g7
(lp8506
Vmodel
p8507
atp8508
Rp8509
(dp8510
g16
VNN
p8511
sbag5
(g6
g7
(lp8512
Vtraining
p8513
atp8514
Rp8515
(dp8516
g16
VNN
p8517
sbatp8518
Rp8519
(dp8520
g16
VNP
p8521
sbatp8522
Rp8523
(dp8524
g16
VVP
p8525
sbatp8526
Rp8527
(dp8528
g16
g61
sbatp8529
Rp8530
(dp8531
g16
VSBAR
p8532
sbatp8533
Rp8534
(dp8535
g16
VNP
p8536
sbatp8537
Rp8538
(dp8539
g16
VVP
p8540
sbatp8541
Rp8542
(dp8543
g16
g61
sbatp8544
Rp8545
(dp8546
g16
VSBAR
p8547
sbatp8548
Rp8549
(dp8550
g16
VVP
p8551
sbatp8552
Rp8553
(dp8554
g16
g61
sbatp8555
Rp8556
(dp8557
g16
VROOT
p8558
sbasg211
(icmyPackage
CorE
p8559
(dp8560
g214
(lp8561
(I1
I4
tp8562
a(I1
I15
tp8563
asg218
g8542
sbsg219
(icmyPackage
CorE
p8564
(dp8565
g214
(lp8566
(I0
I0
tp8567
a(I0
I30
tp8568
asg218
g8342
sbsg230
(icmyPackage
pattern
p8569
(dp8570
g233
I1
sg234
I1
sg235
(lp8571
(lp8572
S'reason'
p8573
aa(lp8574
(lp8575
S'that'
p8576
aS'because'
p8577
aaasg241
(lp8578
I4
aI2
aI1
asg243
(lp8579
S'Amazing things will happen. The main reason was that the operation effect of Danjiangkou reservoir for runoff was more in the low water period than in the flood period.'
p8580
asg246
I140
sg247
(lp8581
(lp8582
S'&R'
p8583
aS'(,/./;/--)'
p8584
aS'&ONE'
p8585
aS'(&ADJ)'
p8586
aa(lp8587
S'(for &THIS (&NP))'
p8588
aS'&BE'
p8589
aa(lp8590
S'&C'
p8591
aasbsg254
(lp8592
g8381
a(isxpPackage
sxpSent
p8593
(dp8594
g258
(lp8595
I24
asg260
VOne reason is that FCE corpus has many more training instances, which benefits model training
p8596
sg262
I10
sg246
I114
sg263
I31
sbasba.