(lp0
(icmyPackage
CELink
p1
(dp2
S'PTreelst'
p3
(lp4
ccopy_reg
_reconstructor
p5
(cnltk.tree
Tree
p6
c__builtin__
list
p7
(lp8
g5
(g6
g7
(lp9
g5
(g6
g7
(lp10
g5
(g6
g7
(lp11
VWe
p12
atp13
Rp14
(dp15
S'_label'
p16
VPRP
p17
sbatp18
Rp19
(dp20
g16
VNP
p21
sbag5
(g6
g7
(lp22
g5
(g6
g7
(lp23
Vpropose
p24
atp25
Rp26
(dp27
g16
VVBP
p28
sbag5
(g6
g7
(lp29
g5
(g6
g7
(lp30
Va
p31
atp32
Rp33
(dp34
g16
VDT
p35
sbag5
(g6
g7
(lp36
Vnovel
p37
atp38
Rp39
(dp40
g16
VNN
p41
sbag5
(g6
g7
(lp42
Vapproach
p43
atp44
Rp45
(dp46
g16
VNN
p47
sbatp48
Rp49
(dp50
g16
VNP
p51
sbag5
(g6
g7
(lp52
g5
(g6
g7
(lp53
Vto
p54
atp55
Rp56
(dp57
g16
VTO
p58
sbag5
(g6
g7
(lp59
g5
(g6
g7
(lp60
g5
(g6
g7
(lp61
Vcross-lingual
p62
atp63
Rp64
(dp65
g16
VJJ
p66
sbag5
(g6
g7
(lp67
Vmodel
p68
atp69
Rp70
(dp71
g16
VNN
p72
sbag5
(g6
g7
(lp73
Vtransfer
p74
atp75
Rp76
(dp77
g16
VNN
p78
sbatp79
Rp80
(dp81
g16
VNP
p82
sbag5
(g6
g7
(lp83
g5
(g6
g7
(lp84
Vbased
p85
atp86
Rp87
(dp88
g16
VVBN
p89
sbag5
(g6
g7
(lp90
g5
(g6
g7
(lp91
Von
p92
atp93
Rp94
(dp95
g16
VIN
p96
sbag5
(g6
g7
(lp97
g5
(g6
g7
(lp98
Vfeature
p99
atp100
Rp101
(dp102
g16
VNN
p103
sbag5
(g6
g7
(lp104
Vrepresentation
p105
atp106
Rp107
(dp108
g16
VNN
p109
sbag5
(g6
g7
(lp110
Vprojection
p111
atp112
Rp113
(dp114
g16
VNN
p115
sbatp116
Rp117
(dp118
g16
VNP
p119
sbatp120
Rp121
(dp122
g16
VPP
p123
sbatp124
Rp125
(dp126
g16
VVP
p127
sbatp128
Rp129
(dp130
g16
VNP
p131
sbatp132
Rp133
(dp134
g16
VPP
p135
sbatp136
Rp137
(dp138
g16
VVP
p139
sbatp140
Rp141
(dp142
g16
VS
p143
sbatp144
Rp145
(dp146
g16
VROOT
p147
sbasS'cause'
p148
(icmyPackage
CorE
p149
(dp150
S'span'
p151
(lp152
(I0
I11
tp153
a(I0
I13
tp154
asS'PTree'
p155
g117
sbsS'effect'
p156
(icmyPackage
CorE
p157
(dp158
g151
(lp159
(I0
I0
tp160
a(I0
I8
tp161
asg155
g5
(g6
g7
(lp162
g19
ag26
ag49
ag56
ag80
atp163
Rp164
(dp165
g16
S'ROOT'
p166
sbsbsS'pt'
p167
(icmyPackage
pattern
p168
(dp169
S'pfreq'
p170
I0
sS'moresent'
p171
I0
sS'main_token'
p172
(lp173
(lp174
S'based'
p175
aS'on'
p176
aasS'ptype'
p177
(lp178
I2
aI1
aI1
asS'cases'
p179
(lp180
S'He said he planned to announce details of legislation on Sunday based on a Republican plan that would provide a short-term solution'
p181
asS'id'
p182
I48
sS'constraints'
p183
(lp184
(lp185
S'&R'
p186
aS'(,)'
p187
aS'(&ADV)'
p188
aa(lp189
S'&V-ing/&NP@C@'
p190
aS'(&Clause@C@)'
p191
aasbsS'sInfo'
p192
(lp193
(isxpPackage
sxpSent
p194
(dp195
S'sysCEidlst'
p196
(lp197
I0
asS'sentence_text'
p198
VWe propose a novel approach to cross-lingual model transfer based on feature representation projection
p199
sS'id_sec'
p200
I1
sg182
I0
sS'id_para'
p201
I0
sbasba(icmyPackage
CELink
p202
(dp203
g3
(lp204
g5
(g6
g7
(lp205
g5
(g6
g7
(lp206
g5
(g6
g7
(lp207
g5
(g6
g7
(lp208
VOnce
p209
atp210
Rp211
(dp212
g16
VIN
p213
sbag5
(g6
g7
(lp214
g5
(g6
g7
(lp215
g5
(g6
g7
(lp216
Vthis
p217
atp218
Rp219
(dp220
g16
VDT
p221
sbatp222
Rp223
(dp224
g16
VNP
p225
sbag5
(g6
g7
(lp226
g5
(g6
g7
(lp227
Vis
p228
atp229
Rp230
(dp231
g16
VVBZ
p232
sbag5
(g6
g7
(lp233
g5
(g6
g7
(lp234
Vachieved
p235
atp236
Rp237
(dp238
g16
VVBN
p239
sbatp240
Rp241
(dp242
g16
VVP
p243
sbatp244
Rp245
(dp246
g16
VVP
p247
sbatp248
Rp249
(dp250
g16
g143
sbatp251
Rp252
(dp253
g16
VSBAR
p254
sbag5
(g6
g7
(lp255
V,
p256
atp257
Rp258
(dp259
g16
g256
sbag5
(g6
g7
(lp260
g5
(g6
g7
(lp261
g5
(g6
g7
(lp262
Vinstances
p263
atp264
Rp265
(dp266
g16
VNNS
p267
sbatp268
Rp269
(dp270
g16
VNP
p271
sbag5
(g6
g7
(lp272
g5
(g6
g7
(lp273
Vfrom
p274
atp275
Rp276
(dp277
g16
VIN
p278
sbag5
(g6
g7
(lp279
g5
(g6
g7
(lp280
Vboth
p281
atp282
Rp283
(dp284
g16
VDT
p285
sbag5
(g6
g7
(lp286
Vlanguages
p287
atp288
Rp289
(dp290
g16
VNNS
p291
sbatp292
Rp293
(dp294
g16
VNP
p295
sbatp296
Rp297
(dp298
g16
VPP
p299
sbatp300
Rp301
(dp302
g16
VNP
p303
sbag5
(g6
g7
(lp304
g5
(g6
g7
(lp305
Vcan
p306
atp307
Rp308
(dp309
g16
VMD
p310
sbag5
(g6
g7
(lp311
g5
(g6
g7
(lp312
Vbe
p313
atp314
Rp315
(dp316
g16
VVB
p317
sbag5
(g6
g7
(lp318
g5
(g6
g7
(lp319
Vmapped
p320
atp321
Rp322
(dp323
g16
VVBN
p324
sbag5
(g6
g7
(lp325
g5
(g6
g7
(lp326
Vinto
p327
atp328
Rp329
(dp330
g16
VIN
p331
sbag5
(g6
g7
(lp332
g5
(g6
g7
(lp333
g5
(g6
g7
(lp334
Vthis
p335
atp336
Rp337
(dp338
g16
VDT
p339
sbag5
(g6
g7
(lp340
Vspace
p341
atp342
Rp343
(dp344
g16
VNN
p345
sbatp346
Rp347
(dp348
g16
VNP
p349
sbag5
(g6
g7
(lp350
Vand
p351
atp352
Rp353
(dp354
g16
VCC
p355
sbag5
(g6
g7
(lp356
g5
(g6
g7
(lp357
g5
(g6
g7
(lp358
g31
atp359
Rp360
(dp361
g16
VDT
p362
sbag5
(g6
g7
(lp363
Vmodel
p364
atp365
Rp366
(dp367
g16
VNN
p368
sbatp369
Rp370
(dp371
g16
VNP
p372
sbag5
(g6
g7
(lp373
g5
(g6
g7
(lp374
Vtrained
p375
atp376
Rp377
(dp378
g16
VVBN
p379
sbag5
(g6
g7
(lp380
g5
(g6
g7
(lp381
Von
p382
atp383
Rp384
(dp385
g16
VIN
p386
sbag5
(g6
g7
(lp387
g5
(g6
g7
(lp388
g5
(g6
g7
(lp389
Vthe
p390
atp391
Rp392
(dp393
g16
VDT
p394
sbag5
(g6
g7
(lp395
Vsource-language
p396
atp397
Rp398
(dp399
g16
VJJ
p400
sbag5
(g6
g7
(lp401
Vdata
p402
atp403
Rp404
(dp405
g16
VNNS
p406
sbatp407
Rp408
(dp409
g16
VNP
p410
sbag5
(g6
g7
(lp411
g5
(g6
g7
(lp412
g5
(g6
g7
(lp413
Vdirectly
p414
atp415
Rp416
(dp417
g16
VRB
p418
sbatp419
Rp420
(dp421
g16
VADVP
p422
sbag5
(g6
g7
(lp423
Vapplied
p424
atp425
Rp426
(dp427
g16
VVBN
p428
sbag5
(g6
g7
(lp429
g5
(g6
g7
(lp430
Vto
p431
atp432
Rp433
(dp434
g16
VTO
p435
sbag5
(g6
g7
(lp436
g5
(g6
g7
(lp437
Vthe
p438
atp439
Rp440
(dp441
g16
VDT
p442
sbag5
(g6
g7
(lp443
Vtarget
p444
atp445
Rp446
(dp447
g16
VNN
p448
sbag5
(g6
g7
(lp449
Vlanguage
p450
atp451
Rp452
(dp453
g16
VNN
p454
sbatp455
Rp456
(dp457
g16
VNP
p458
sbatp459
Rp460
(dp461
g16
VPP
p462
sbatp463
Rp464
(dp465
g16
VVP
p466
sbatp467
Rp468
(dp469
g16
VNP
p470
sbatp471
Rp472
(dp473
g16
VPP
p474
sbatp475
Rp476
(dp477
g16
VVP
p478
sbatp479
Rp480
(dp481
g16
VNP
p482
sbatp483
Rp484
(dp485
g16
VNP
p486
sbatp487
Rp488
(dp489
g16
VPP
p490
sbatp491
Rp492
(dp493
g16
VVP
p494
sbatp495
Rp496
(dp497
g16
VVP
p498
sbatp499
Rp500
(dp501
g16
VVP
p502
sbatp503
Rp504
(dp505
g16
g143
sbatp506
Rp507
(dp508
g16
VROOT
p509
sbasg148
(icmyPackage
CorE
p510
(dp511
g151
(lp512
(I0
I1
tp513
a(I0
I3
tp514
asg155
g249
sbsg156
(icmyPackage
CorE
p515
(dp516
g151
(lp517
(I0
I5
tp518
a(I0
I28
tp519
asg155
g5
(g6
g7
(lp520
g301
ag500
atp521
Rp522
(dp523
g16
g166
sbsbsg167
(icmyPackage
pattern
p524
(dp525
g170
I0
sg171
I0
sg172
(lp526
(lp527
(lp528
S'if'
p529
aS'once'
p530
aaa(lp531
S','
p532
aasg177
(lp533
I1
aI1
aI1
asg179
(lp534
S'If some light and mobile detection devices can be invented in the future, many new applications can be imagined, for example, people can get some services while thinking.'
p535
asg182
I15
sg183
(lp536
(lp537
a(lp538
S'&C@Complete@'
p539
aa(lp540
S'&R@Complete@'
p541
aasbsg192
(lp542
(isxpPackage
sxpSent
p543
(dp544
g196
(lp545
I1
asg198
VOnce this is achieved, instances from both languages can be mapped into this space and a model trained on the source-language data directly applied to the target language
p546
sg200
I2
sg182
I9
sg201
I3
sbasba(icmyPackage
CELink
p547
(dp548
g3
(lp549
g5
(g6
g7
(lp550
g5
(g6
g7
(lp551
g5
(g6
g7
(lp552
g5
(g6
g7
(lp553
VIf
p554
atp555
Rp556
(dp557
g16
VIN
p558
sbag5
(g6
g7
(lp559
g5
(g6
g7
(lp560
g5
(g6
g7
(lp561
Vparallel
p562
atp563
Rp564
(dp565
g16
VJJ
p566
sbag5
(g6
g7
(lp567
Vdata
p568
atp569
Rp570
(dp571
g16
VNNS
p572
sbatp573
Rp574
(dp575
g16
VNP
p576
sbag5
(g6
g7
(lp577
g5
(g6
g7
(lp578
Vis
p579
atp580
Rp581
(dp582
g16
VVBZ
p583
sbag5
(g6
g7
(lp584
g5
(g6
g7
(lp585
Vavailable
p586
atp587
Rp588
(dp589
g16
VJJ
p590
sbatp591
Rp592
(dp593
g16
VADJP
p594
sbatp595
Rp596
(dp597
g16
VVP
p598
sbatp599
Rp600
(dp601
g16
g143
sbatp602
Rp603
(dp604
g16
VSBAR
p605
sbag5
(g6
g7
(lp606
g256
atp607
Rp608
(dp609
g16
g256
sbag5
(g6
g7
(lp610
g5
(g6
g7
(lp611
Vit
p612
atp613
Rp614
(dp615
g16
VPRP
p616
sbatp617
Rp618
(dp619
g16
VNP
p620
sbag5
(g6
g7
(lp621
g5
(g6
g7
(lp622
Vcan
p623
atp624
Rp625
(dp626
g16
VMD
p627
sbag5
(g6
g7
(lp628
g5
(g6
g7
(lp629
Vbe
p630
atp631
Rp632
(dp633
g16
VVB
p634
sbag5
(g6
g7
(lp635
g5
(g6
g7
(lp636
g5
(g6
g7
(lp637
Vfurther
p638
atp639
Rp640
(dp641
g16
VRBR
p642
sbatp643
Rp644
(dp645
g16
VADVP
p646
sbag5
(g6
g7
(lp647
Vused
p648
atp649
Rp650
(dp651
g16
VVBN
p652
sbag5
(g6
g7
(lp653
g5
(g6
g7
(lp654
g5
(g6
g7
(lp655
Vto
p656
atp657
Rp658
(dp659
g16
VTO
p660
sbag5
(g6
g7
(lp661
g5
(g6
g7
(lp662
Venforce
p663
atp664
Rp665
(dp666
g16
VVB
p667
sbag5
(g6
g7
(lp668
g5
(g6
g7
(lp669
Vmodel
p670
atp671
Rp672
(dp673
g16
VNN
p674
sbag5
(g6
g7
(lp675
Vagreement
p676
atp677
Rp678
(dp679
g16
VNN
p680
sbatp681
Rp682
(dp683
g16
VNP
p684
sbag5
(g6
g7
(lp685
g5
(g6
g7
(lp686
Von
p687
atp688
Rp689
(dp690
g16
VIN
p691
sbag5
(g6
g7
(lp692
g5
(g6
g7
(lp693
Vthis
p694
atp695
Rp696
(dp697
g16
VDT
p698
sbag5
(g6
g7
(lp699
Vdata
p700
atp701
Rp702
(dp703
g16
VNN
p704
sbag5
(g6
g7
(lp705
g5
(g6
g7
(lp706
g5
(g6
g7
(lp707
Vto
p708
atp709
Rp710
(dp711
g16
VTO
p712
sbag5
(g6
g7
(lp713
g5
(g6
g7
(lp714
Vadjust
p715
atp716
Rp717
(dp718
g16
VVB
p719
sbag5
(g6
g7
(lp720
g5
(g6
g7
(lp721
Vfor
p722
atp723
Rp724
(dp725
g16
VIN
p726
sbag5
(g6
g7
(lp727
g5
(g6
g7
(lp728
g5
(g6
g7
(lp729
Vdiscrepancies
p730
atp731
Rp732
(dp733
g16
VNNS
p734
sbatp735
Rp736
(dp737
g16
VNP
p738
sbag5
(g6
g7
(lp739
g5
(g6
g7
(lp740
Vbetween
p741
atp742
Rp743
(dp744
g16
VIN
p745
sbag5
(g6
g7
(lp746
g5
(g6
g7
(lp747
Vthe
p748
atp749
Rp750
(dp751
g16
VDT
p752
sbag5
(g6
g7
(lp753
Vtwo
p754
atp755
Rp756
(dp757
g16
VCD
p758
sbag5
(g6
g7
(lp759
Vlanguages
p760
atp761
Rp762
(dp763
g16
VNNS
p764
sbatp765
Rp766
(dp767
g16
VNP
p768
sbatp769
Rp770
(dp771
g16
VPP
p772
sbatp773
Rp774
(dp775
g16
VNP
p776
sbatp777
Rp778
(dp779
g16
VPP
p780
sbatp781
Rp782
(dp783
g16
VVP
p784
sbatp785
Rp786
(dp787
g16
VVP
p788
sbatp789
Rp790
(dp791
g16
g143
sbatp792
Rp793
(dp794
g16
VNP
p795
sbatp796
Rp797
(dp798
g16
VPP
p799
sbag5
(g6
g7
(lp800
g256
atp801
Rp802
(dp803
g16
g256
sbag5
(g6
g7
(lp804
g5
(g6
g7
(lp805
Vfor
p806
atp807
Rp808
(dp809
g16
VIN
p810
sbag5
(g6
g7
(lp811
g5
(g6
g7
(lp812
g5
(g6
g7
(lp813
Vexample
p814
atp815
Rp816
(dp817
g16
VNN
p818
sbatp819
Rp820
(dp821
g16
VNP
p822
sbag5
(g6
g7
(lp823
g5
(g6
g7
(lp824
Vby
p825
atp826
Rp827
(dp828
g16
VIN
p829
sbag5
(g6
g7
(lp830
g5
(g6
g7
(lp831
g5
(g6
g7
(lp832
Vmeans
p833
atp834
Rp835
(dp836
g16
VNNS
p837
sbatp838
Rp839
(dp840
g16
VNP
p841
sbag5
(g6
g7
(lp842
g5
(g6
g7
(lp843
Vof
p844
atp845
Rp846
(dp847
g16
VIN
p848
sbag5
(g6
g7
(lp849
g5
(g6
g7
(lp850
Vprojected
p851
atp852
Rp853
(dp854
g16
VVBN
p855
sbag5
(g6
g7
(lp856
Vtransfer
p857
atp858
Rp859
(dp860
g16
VNN
p861
sbag5
(g6
g7
(lp862
V-LSB-
p863
atp864
Rp865
(dp866
g16
VVBG
p867
sbag5
(g6
g7
(lp868
V-RSB-
p869
atp870
Rp871
(dp872
g16
VNNS
p873
sbatp874
Rp875
(dp876
g16
VNP
p877
sbatp878
Rp879
(dp880
g16
VPP
p881
sbatp882
Rp883
(dp884
g16
VNP
p885
sbatp886
Rp887
(dp888
g16
VPP
p889
sbatp890
Rp891
(dp892
g16
VNP
p893
sbatp894
Rp895
(dp896
g16
VPP
p897
sbatp898
Rp899
(dp900
g16
VVP
p901
sbatp902
Rp903
(dp904
g16
VVP
p905
sbatp906
Rp907
(dp908
g16
g143
sbatp909
Rp910
(dp911
g16
VVP
p912
sbatp913
Rp914
(dp915
g16
VVP
p916
sbatp917
Rp918
(dp919
g16
VVP
p920
sbatp921
Rp922
(dp923
g16
g143
sbatp924
Rp925
(dp926
g16
VROOT
p927
sbasg148
(icmyPackage
CorE
p928
(dp929
g151
(lp930
(I0
I1
tp931
a(I0
I4
tp932
asg155
g600
sbsg156
(icmyPackage
CorE
p933
(dp934
g151
(lp935
(I0
I6
tp936
a(I0
I35
tp937
asg155
g5
(g6
g7
(lp938
g618
ag918
atp939
Rp940
(dp941
g16
g166
sbsbsg167
g524
sg192
(lp942
(isxpPackage
sxpSent
p943
(dp944
g196
(lp945
I2
asg198
VIf parallel data is available, it can be further used to enforce model agreement on this data to adjust for discrepancies between the two languages, for example by means of projected transfer []
p946
sg200
I2
sg182
I10
sg201
I3
sbasba(icmyPackage
CELink
p947
(dp948
g3
(lp949
g5
(g6
g7
(lp950
g5
(g6
g7
(lp951
g5
(g6
g7
(lp952
g5
(g6
g7
(lp953
VThe
p954
atp955
Rp956
(dp957
g16
VDT
p958
sbag5
(g6
g7
(lp959
Vtransfer
p960
atp961
Rp962
(dp963
g16
VNN
p964
sbag5
(g6
g7
(lp965
g5
(g6
g7
(lp966
g5
(g6
g7
(lp967
g5
(g6
g7
(lp968
Vitself
p969
atp970
Rp971
(dp972
g16
VPRP
p973
sbatp974
Rp975
(dp976
g16
VNP
p977
sbag5
(g6
g7
(lp978
g5
(g6
g7
(lp979
Valso
p980
atp981
Rp982
(dp983
g16
VRB
p984
sbatp985
Rp986
(dp987
g16
VADVP
p988
sbag5
(g6
g7
(lp989
g5
(g6
g7
(lp990
Vintroduces
p991
atp992
Rp993
(dp994
g16
VVBZ
p995
sbag5
(g6
g7
(lp996
g5
(g6
g7
(lp997
g5
(g6
g7
(lp998
Verrors
p999
atp1000
Rp1001
(dp1002
g16
VNNS
p1003
sbatp1004
Rp1005
(dp1006
g16
VNP
p1007
sbag5
(g6
g7
(lp1008
g5
(g6
g7
(lp1009
Vdue
p1010
atp1011
Rp1012
(dp1013
g16
VJJ
p1014
sbag5
(g6
g7
(lp1015
g5
(g6
g7
(lp1016
Vto
p1017
atp1018
Rp1019
(dp1020
g16
VTO
p1021
sbag5
(g6
g7
(lp1022
g5
(g6
g7
(lp1023
Vtranslation
p1024
atp1025
Rp1026
(dp1027
g16
VNN
p1028
sbag5
(g6
g7
(lp1029
Vshifts
p1030
atp1031
Rp1032
(dp1033
g16
VNNS
p1034
sbatp1035
Rp1036
(dp1037
g16
VNP
p1038
sbatp1039
Rp1040
(dp1041
g16
VPP
p1042
sbatp1043
Rp1044
(dp1045
g16
VADJP
p1046
sbag5
(g6
g7
(lp1047
g5
(g6
g7
(lp1048
g5
(g6
g7
(lp1049
V-LSB-
p1050
atp1051
Rp1052
(dp1053
g16
VVBG
p1054
sbag5
(g6
g7
(lp1055
g5
(g6
g7
(lp1056
g5
(g6
g7
(lp1057
V-RSB-
p1058
atp1059
Rp1060
(dp1061
g16
VJJ
p1062
sbag5
(g6
g7
(lp1063
Vand
p1064
atp1065
Rp1066
(dp1067
g16
VCC
p1068
sbag5
(g6
g7
(lp1069
Vword
p1070
atp1071
Rp1072
(dp1073
g16
VNN
p1074
sbag5
(g6
g7
(lp1075
Valignment
p1076
atp1077
Rp1078
(dp1079
g16
VNN
p1080
sbag5
(g6
g7
(lp1081
Verrors
p1082
atp1083
Rp1084
(dp1085
g16
VNNS
p1086
sbatp1087
Rp1088
(dp1089
g16
VNP
p1090
sbag5
(g6
g7
(lp1091
g256
atp1092
Rp1093
(dp1094
g16
g256
sbag5
(g6
g7
(lp1095
g5
(g6
g7
(lp1096
g5
(g6
g7
(lp1097
Vwhich
p1098
atp1099
Rp1100
(dp1101
g16
VWDT
p1102
sbatp1103
Rp1104
(dp1105
g16
VWHNP
p1106
sbag5
(g6
g7
(lp1107
g5
(g6
g7
(lp1108
g5
(g6
g7
(lp1109
Vmay
p1110
atp1111
Rp1112
(dp1113
g16
VMD
p1114
sbag5
(g6
g7
(lp1115
g5
(g6
g7
(lp1116
Vlead
p1117
atp1118
Rp1119
(dp1120
g16
VVB
p1121
sbag5
(g6
g7
(lp1122
g5
(g6
g7
(lp1123
Vto
p1124
atp1125
Rp1126
(dp1127
g16
VTO
p1128
sbag5
(g6
g7
(lp1129
g5
(g6
g7
(lp1130
Vinaccurate
p1131
atp1132
Rp1133
(dp1134
g16
VJJ
p1135
sbag5
(g6
g7
(lp1136
Vpredictions
p1137
atp1138
Rp1139
(dp1140
g16
VNNS
p1141
sbatp1142
Rp1143
(dp1144
g16
VNP
p1145
sbatp1146
Rp1147
(dp1148
g16
VPP
p1149
sbatp1150
Rp1151
(dp1152
g16
VVP
p1153
sbatp1154
Rp1155
(dp1156
g16
VVP
p1157
sbatp1158
Rp1159
(dp1160
g16
g143
sbatp1161
Rp1162
(dp1163
g16
VSBAR
p1164
sbatp1165
Rp1166
(dp1167
g16
VNP
p1168
sbatp1169
Rp1170
(dp1171
g16
VVP
p1172
sbatp1173
Rp1174
(dp1175
g16
g143
sbatp1176
Rp1177
(dp1178
g16
g143
sbatp1179
Rp1180
(dp1181
g16
VVP
p1182
sbatp1183
Rp1184
(dp1185
g16
g143
sbatp1186
Rp1187
(dp1188
g16
VSBAR
p1189
sbatp1190
Rp1191
(dp1192
g16
VNP
p1193
sbatp1194
Rp1195
(dp1196
g16
VFRAG
p1197
sbatp1198
Rp1199
(dp1200
g16
VROOT
p1201
sbasg148
(icmyPackage
CorE
p1202
(dp1203
g151
(lp1204
(I0
I8
tp1205
a(I0
I9
tp1206
asg155
g1036
sbsg156
(icmyPackage
CorE
p1207
(dp1208
g151
(lp1209
(I0
I10
tp1210
a(I0
I22
tp1211
asg155
g1174
sbsg167
(icmyPackage
pattern
p1212
(dp1213
g170
I0
sg171
I0
sg172
(lp1214
(lp1215
S'due'
p1216
aS'to'
p1217
aasg177
(lp1218
I2
aI1
aI1
asg179
(lp1219
S'Due to limitations in size and legal rules, our efforts did not blossom'
p1220
asg182
I71
sg183
(lp1221
(lp1222
a(lp1223
S'&NP@C@'
p1224
aS'(,)'
p1225
aS'&R'
p1226
aasbsg192
(lp1227
(isxpPackage
sxpSent
p1228
(dp1229
g196
(lp1230
I3
asg198
VThe transfer itself also introduces errors due to translation shifts [] and word alignment errors, which may lead to inaccurate predictions
p1231
sg200
I2
sg182
I18
sg201
I5
sbasba(icmyPackage
CELink
p1232
(dp1233
g3
(lp1234
g5
(g6
g7
(lp1235
g5
(g6
g7
(lp1236
g5
(g6
g7
(lp1237
g5
(g6
g7
(lp1238
VThese
p1239
atp1240
Rp1241
(dp1242
g16
VDT
p1243
sbag5
(g6
g7
(lp1244
Vissues
p1245
atp1246
Rp1247
(dp1248
g16
VNNS
p1249
sbatp1250
Rp1251
(dp1252
g16
VNP
p1253
sbag5
(g6
g7
(lp1254
g5
(g6
g7
(lp1255
Vare
p1256
atp1257
Rp1258
(dp1259
g16
VVBP
p1260
sbag5
(g6
g7
(lp1261
g5
(g6
g7
(lp1262
Vgenerally
p1263
atp1264
Rp1265
(dp1266
g16
VRB
p1267
sbatp1268
Rp1269
(dp1270
g16
VADVP
p1271
sbag5
(g6
g7
(lp1272
g5
(g6
g7
(lp1273
Vhandled
p1274
atp1275
Rp1276
(dp1277
g16
VVBN
p1278
sbag5
(g6
g7
(lp1279
g5
(g6
g7
(lp1280
g5
(g6
g7
(lp1281
g5
(g6
g7
(lp1282
Vusing
p1283
atp1284
Rp1285
(dp1286
g16
VVBG
p1287
sbag5
(g6
g7
(lp1288
g5
(g6
g7
(lp1289
Vheuristics
p1290
atp1291
Rp1292
(dp1293
g16
VJJ
p1294
sbag5
(g6
g7
(lp1295
V-LSB-
p1296
atp1297
Rp1298
(dp1299
g16
VJJ
p1300
sbag5
(g6
g7
(lp1301
V-RSB-
p1302
atp1303
Rp1304
(dp1305
g16
VNNS
p1306
sbatp1307
Rp1308
(dp1309
g16
VNP
p1310
sbatp1311
Rp1312
(dp1313
g16
VVP
p1314
sbag5
(g6
g7
(lp1315
Vand
p1316
atp1317
Rp1318
(dp1319
g16
VCC
p1320
sbag5
(g6
g7
(lp1321
g5
(g6
g7
(lp1322
Vfiltering
p1323
atp1324
Rp1325
(dp1326
g16
VVBG
p1327
sbag5
(g6
g7
(lp1328
g256
atp1329
Rp1330
(dp1331
g16
g256
sbag5
(g6
g7
(lp1332
g5
(g6
g7
(lp1333
Vfor
p1334
atp1335
Rp1336
(dp1337
g16
VIN
p1338
sbag5
(g6
g7
(lp1339
g5
(g6
g7
(lp1340
Vexample
p1341
atp1342
Rp1343
(dp1344
g16
VNN
p1345
sbatp1346
Rp1347
(dp1348
g16
VNP
p1349
sbatp1350
Rp1351
(dp1352
g16
VPP
p1353
sbag5
(g6
g7
(lp1354
g5
(g6
g7
(lp1355
Vbased
p1356
atp1357
Rp1358
(dp1359
g16
VVBN
p1360
sbag5
(g6
g7
(lp1361
g5
(g6
g7
(lp1362
Von
p1363
atp1364
Rp1365
(dp1366
g16
VIN
p1367
sbag5
(g6
g7
(lp1368
g5
(g6
g7
(lp1369
Valignment
p1370
atp1371
Rp1372
(dp1373
g16
VJJ
p1374
sbag5
(g6
g7
(lp1375
Vcoverage
p1376
atp1377
Rp1378
(dp1379
g16
VNN
p1380
sbag5
(g6
g7
(lp1381
V-LSB-
p1382
atp1383
Rp1384
(dp1385
g16
VNNP
p1386
sbag5
(g6
g7
(lp1387
V-RSB-
p1388
atp1389
Rp1390
(dp1391
g16
VNNP
p1392
sbatp1393
Rp1394
(dp1395
g16
VNP
p1396
sbatp1397
Rp1398
(dp1399
g16
VPP
p1400
sbatp1401
Rp1402
(dp1403
g16
VPP
p1404
sbatp1405
Rp1406
(dp1407
g16
VVP
p1408
sbatp1409
Rp1410
(dp1411
g16
VVP
p1412
sbatp1413
Rp1414
(dp1415
g16
g143
sbatp1416
Rp1417
(dp1418
g16
VVP
p1419
sbatp1420
Rp1421
(dp1422
g16
VVP
p1423
sbatp1424
Rp1425
(dp1426
g16
g143
sbatp1427
Rp1428
(dp1429
g16
VROOT
p1430
sbasg148
(icmyPackage
CorE
p1431
(dp1432
g151
(lp1433
(I0
I16
tp1434
a(I0
I19
tp1435
asg155
g1394
sbsg156
(icmyPackage
CorE
p1436
(dp1437
g151
(lp1438
(I0
I0
tp1439
a(I0
I13
tp1440
asg155
g5
(g6
g7
(lp1441
g1251
ag1258
ag1269
ag1276
ag1312
ag1318
ag1325
ag1330
ag1351
atp1442
Rp1443
(dp1444
g16
g166
sbsbsg167
g168
sg192
(lp1445
(isxpPackage
sxpSent
p1446
(dp1447
g196
(lp1448
I4
asg198
VThese issues are generally handled using heuristics [] and filtering, for example based on alignment coverage []
p1449
sg200
I2
sg182
I19
sg201
I5
sbasba(icmyPackage
CELink
p1450
(dp1451
g3
(lp1452
g5
(g6
g7
(lp1453
g5
(g6
g7
(lp1454
g5
(g6
g7
(lp1455
g5
(g6
g7
(lp1456
VThe
p1457
atp1458
Rp1459
(dp1460
g16
VDT
p1461
sbag5
(g6
g7
(lp1462
Vapproach
p1463
atp1464
Rp1465
(dp1466
g16
VNN
p1467
sbatp1468
Rp1469
(dp1470
g16
VNP
p1471
sbag5
(g6
g7
(lp1472
g5
(g6
g7
(lp1473
Vproposed
p1474
atp1475
Rp1476
(dp1477
g16
VVBD
p1478
sbag5
(g6
g7
(lp1479
g5
(g6
g7
(lp1480
g5
(g6
g7
(lp1481
g5
(g6
g7
(lp1482
g5
(g6
g7
(lp1483
Vhere
p1484
atp1485
Rp1486
(dp1487
g16
VRB
p1488
sbatp1489
Rp1490
(dp1491
g16
VNP
p1492
sbag5
(g6
g7
(lp1493
g256
atp1494
Rp1495
(dp1496
g16
g256
sbag5
(g6
g7
(lp1497
g5
(g6
g7
(lp1498
g5
(g6
g7
(lp1499
Vwhich
p1500
atp1501
Rp1502
(dp1503
g16
VWDT
p1504
sbatp1505
Rp1506
(dp1507
g16
VWHNP
p1508
sbag5
(g6
g7
(lp1509
g5
(g6
g7
(lp1510
g5
(g6
g7
(lp1511
Vwe
p1512
atp1513
Rp1514
(dp1515
g16
VPRP
p1516
sbatp1517
Rp1518
(dp1519
g16
VNP
p1520
sbag5
(g6
g7
(lp1521
g5
(g6
g7
(lp1522
Vwill
p1523
atp1524
Rp1525
(dp1526
g16
VMD
p1527
sbag5
(g6
g7
(lp1528
g5
(g6
g7
(lp1529
Vrefer
p1530
atp1531
Rp1532
(dp1533
g16
VVB
p1534
sbag5
(g6
g7
(lp1535
g5
(g6
g7
(lp1536
Vto
p1537
atp1538
Rp1539
(dp1540
g16
VTO
p1541
sbag5
(g6
g7
(lp1542
g5
(g6
g7
(lp1543
g5
(g6
g7
(lp1544
Vas
p1545
atp1546
Rp1547
(dp1548
g16
VRB
p1549
sbag5
(g6
g7
(lp1550
Vfeature
p1551
atp1552
Rp1553
(dp1554
g16
VNN
p1555
sbag5
(g6
g7
(lp1556
Vrepresentation
p1557
atp1558
Rp1559
(dp1560
g16
VNN
p1561
sbag5
(g6
g7
(lp1562
Vprojection
p1563
atp1564
Rp1565
(dp1566
g16
VNN
p1567
sbatp1568
Rp1569
(dp1570
g16
VNP
p1571
sbag5
(g6
g7
(lp1572
g5
(g6
g7
(lp1573
V-LRB-
p1574
atp1575
Rp1576
(dp1577
g16
V-LRB-
p1578
sbag5
(g6
g7
(lp1579
g5
(g6
g7
(lp1580
VFRP
p1581
atp1582
Rp1583
(dp1584
g16
VNNP
p1585
sbatp1586
Rp1587
(dp1588
g16
VNP
p1589
sbag5
(g6
g7
(lp1590
V-RRB-
p1591
atp1592
Rp1593
(dp1594
g16
V-RRB-
p1595
sbatp1596
Rp1597
(dp1598
g16
VPRN
p1599
sbatp1600
Rp1601
(dp1602
g16
VNP
p1603
sbatp1604
Rp1605
(dp1606
g16
VPP
p1607
sbatp1608
Rp1609
(dp1610
g16
VVP
p1611
sbatp1612
Rp1613
(dp1614
g16
VVP
p1615
sbatp1616
Rp1617
(dp1618
g16
g143
sbatp1619
Rp1620
(dp1621
g16
VSBAR
p1622
sbag5
(g6
g7
(lp1623
g256
atp1624
Rp1625
(dp1626
g16
g256
sbatp1627
Rp1628
(dp1629
g16
VNP
p1630
sbag5
(g6
g7
(lp1631
g5
(g6
g7
(lp1632
g5
(g6
g7
(lp1633
Vconstitutes
p1634
atp1635
Rp1636
(dp1637
g16
VVBZ
p1638
sbag5
(g6
g7
(lp1639
g5
(g6
g7
(lp1640
Van
p1641
atp1642
Rp1643
(dp1644
g16
VDT
p1645
sbag5
(g6
g7
(lp1646
Valternative
p1647
atp1648
Rp1649
(dp1650
g16
VNN
p1651
sbatp1652
Rp1653
(dp1654
g16
VNP
p1655
sbag5
(g6
g7
(lp1656
g5
(g6
g7
(lp1657
Vto
p1658
atp1659
Rp1660
(dp1661
g16
VTO
p1662
sbag5
(g6
g7
(lp1663
g5
(g6
g7
(lp1664
Vdirect
p1665
atp1666
Rp1667
(dp1668
g16
VJJ
p1669
sbag5
(g6
g7
(lp1670
Vmodel
p1671
atp1672
Rp1673
(dp1674
g16
VNN
p1675
sbag5
(g6
g7
(lp1676
Vtransfer
p1677
atp1678
Rp1679
(dp1680
g16
VNN
p1681
sbag5
(g6
g7
(lp1682
Vand
p1683
atp1684
Rp1685
(dp1686
g16
VCC
p1687
sbag5
(g6
g7
(lp1688
Vannotation
p1689
atp1690
Rp1691
(dp1692
g16
VNN
p1693
sbag5
(g6
g7
(lp1694
Vprojection
p1695
atp1696
Rp1697
(dp1698
g16
VNN
p1699
sbatp1700
Rp1701
(dp1702
g16
VNP
p1703
sbatp1704
Rp1705
(dp1706
g16
VPP
p1707
sbatp1708
Rp1709
(dp1710
g16
VVP
p1711
sbag5
(g6
g7
(lp1712
Vand
p1713
atp1714
Rp1715
(dp1716
g16
VCC
p1717
sbag5
(g6
g7
(lp1718
g5
(g6
g7
(lp1719
Vcan
p1720
atp1721
Rp1722
(dp1723
g16
VMD
p1724
sbag5
(g6
g7
(lp1725
g5
(g6
g7
(lp1726
Vbe
p1727
atp1728
Rp1729
(dp1730
g16
VVB
p1731
sbag5
(g6
g7
(lp1732
g5
(g6
g7
(lp1733
Vseen
p1734
atp1735
Rp1736
(dp1737
g16
VVBN
p1738
sbag5
(g6
g7
(lp1739
g5
(g6
g7
(lp1740
Vas
p1741
atp1742
Rp1743
(dp1744
g16
VIN
p1745
sbag5
(g6
g7
(lp1746
g5
(g6
g7
(lp1747
g5
(g6
g7
(lp1748
g31
atp1749
Rp1750
(dp1751
g16
VDT
p1752
sbag5
(g6
g7
(lp1753
Vcompromise
p1754
atp1755
Rp1756
(dp1757
g16
VNN
p1758
sbatp1759
Rp1760
(dp1761
g16
VNP
p1762
sbag5
(g6
g7
(lp1763
g5
(g6
g7
(lp1764
Vbetween
p1765
atp1766
Rp1767
(dp1768
g16
VIN
p1769
sbag5
(g6
g7
(lp1770
g5
(g6
g7
(lp1771
Vthe
p1772
atp1773
Rp1774
(dp1775
g16
VDT
p1776
sbag5
(g6
g7
(lp1777
Vtwo
p1778
atp1779
Rp1780
(dp1781
g16
VCD
p1782
sbatp1783
Rp1784
(dp1785
g16
VNP
p1786
sbatp1787
Rp1788
(dp1789
g16
VPP
p1790
sbatp1791
Rp1792
(dp1793
g16
VNP
p1794
sbatp1795
Rp1796
(dp1797
g16
VPP
p1798
sbatp1799
Rp1800
(dp1801
g16
VVP
p1802
sbatp1803
Rp1804
(dp1805
g16
VVP
p1806
sbatp1807
Rp1808
(dp1809
g16
VVP
p1810
sbatp1811
Rp1812
(dp1813
g16
VVP
p1814
sbatp1815
Rp1816
(dp1817
g16
g143
sbatp1818
Rp1819
(dp1820
g16
VSBAR
p1821
sbatp1822
Rp1823
(dp1824
g16
VVP
p1825
sbatp1826
Rp1827
(dp1828
g16
g143
sbatp1829
Rp1830
(dp1831
g16
VROOT
p1832
sbasg148
(icmyPackage
CorE
p1833
(dp1834
g151
(lp1835
(I0
I11
tp1836
a(I0
I37
tp1837
asg155
g5
(g6
g7
(lp1838
g1553
ag1559
ag1565
ag1597
ag1625
ag1812
atp1839
Rp1840
(dp1841
g16
g166
sbsbsg156
(icmyPackage
CorE
p1842
(dp1843
g151
(lp1844
(I0
I6
tp1845
a(I0
I9
tp1846
asg155
g5
(g6
g7
(lp1847
g1518
ag1525
ag1532
ag1539
atp1848
Rp1849
(dp1850
g16
g166
sbsbsg167
(icmyPackage
pattern
p1851
(dp1852
g170
I26
sg171
I1
sg172
(lp1853
(lp1854
S'as'
p1855
aasg177
(lp1856
I3
aI1
aI1
asg179
(lp1857
S'You do not need to worry about the operation, as the software is very easy to use.'
p1858
asg182
I80
sg183
(lp1859
(lp1860
S'&R@Complete@'
p1861
aS'(,)'
p1862
aS'(-such/-same/-seem/-regard/-regards/-regarded/-view/-views/-viewed/-denote/-denoted/-denotes)'
p1863
aa(lp1864
S'(-if/-follow/-follows/-&adv)'
p1865
aS'&C@Complete@'
p1866
aasbsg192
(lp1867
(isxpPackage
sxpSent
p1868
(dp1869
g196
(lp1870
I5
asg198
VThe approach proposed here, which we will refer to as feature representation projection ( FRP ), constitutes an alternative to direct model transfer and annotation projection and can be seen as a compromise between the two
p1871
sg200
I3
sg182
I20
sg201
I6
sbasba(icmyPackage
CELink
p1872
(dp1873
g3
(lp1874
g5
(g6
g7
(lp1875
g5
(g6
g7
(lp1876
g5
(g6
g7
(lp1877
g5
(g6
g7
(lp1878
VCompared
p1879
atp1880
Rp1881
(dp1882
g16
VVBN
p1883
sbag5
(g6
g7
(lp1884
g5
(g6
g7
(lp1885
Vto
p1886
atp1887
Rp1888
(dp1889
g16
VTO
p1890
sbag5
(g6
g7
(lp1891
g5
(g6
g7
(lp1892
Vannotation
p1893
atp1894
Rp1895
(dp1896
g16
VNN
p1897
sbag5
(g6
g7
(lp1898
Vprojection
p1899
atp1900
Rp1901
(dp1902
g16
VNN
p1903
sbatp1904
Rp1905
(dp1906
g16
VNP
p1907
sbatp1908
Rp1909
(dp1910
g16
VPP
p1911
sbatp1912
Rp1913
(dp1914
g16
VPP
p1915
sbag5
(g6
g7
(lp1916
g256
atp1917
Rp1918
(dp1919
g16
g256
sbag5
(g6
g7
(lp1920
g5
(g6
g7
(lp1921
Vour
p1922
atp1923
Rp1924
(dp1925
g16
VPRP$
p1926
sbag5
(g6
g7
(lp1927
Vapproach
p1928
atp1929
Rp1930
(dp1931
g16
VNN
p1932
sbatp1933
Rp1934
(dp1935
g16
VNP
p1936
sbag5
(g6
g7
(lp1937
g5
(g6
g7
(lp1938
Vmay
p1939
atp1940
Rp1941
(dp1942
g16
VMD
p1943
sbag5
(g6
g7
(lp1944
g5
(g6
g7
(lp1945
Vbe
p1946
atp1947
Rp1948
(dp1949
g16
VVB
p1950
sbag5
(g6
g7
(lp1951
g5
(g6
g7
(lp1952
Vexpected
p1953
atp1954
Rp1955
(dp1956
g16
VVBN
p1957
sbag5
(g6
g7
(lp1958
g5
(g6
g7
(lp1959
g5
(g6
g7
(lp1960
Vto
p1961
atp1962
Rp1963
(dp1964
g16
VTO
p1965
sbag5
(g6
g7
(lp1966
g5
(g6
g7
(lp1967
Vbe
p1968
atp1969
Rp1970
(dp1971
g16
VVB
p1972
sbag5
(g6
g7
(lp1973
g5
(g6
g7
(lp1974
Vless
p1975
atp1976
Rp1977
(dp1978
g16
VRBR
p1979
sbag5
(g6
g7
(lp1980
Vsensitive
p1981
atp1982
Rp1983
(dp1984
g16
VJJ
p1985
sbag5
(g6
g7
(lp1986
g5
(g6
g7
(lp1987
g5
(g6
g7
(lp1988
Vto
p1989
atp1990
Rp1991
(dp1992
g16
VTO
p1993
sbag5
(g6
g7
(lp1994
g5
(g6
g7
(lp1995
Vparallel
p1996
atp1997
Rp1998
(dp1999
g16
VVB
p2000
sbag5
(g6
g7
(lp2001
g5
(g6
g7
(lp2002
Vdata
p2003
atp2004
Rp2005
(dp2006
g16
VNN
p2007
sbag5
(g6
g7
(lp2008
Vquality
p2009
atp2010
Rp2011
(dp2012
g16
VNN
p2013
sbatp2014
Rp2015
(dp2016
g16
VNP
p2017
sbatp2018
Rp2019
(dp2020
g16
VVP
p2021
sbatp2022
Rp2023
(dp2024
g16
VVP
p2025
sbatp2026
Rp2027
(dp2028
g16
g143
sbatp2029
Rp2030
(dp2031
g16
VADJP
p2032
sbag5
(g6
g7
(lp2033
g256
atp2034
Rp2035
(dp2036
g16
g256
sbag5
(g6
g7
(lp2037
g5
(g6
g7
(lp2038
Vsince
p2039
atp2040
Rp2041
(dp2042
g16
VIN
p2043
sbag5
(g6
g7
(lp2044
g5
(g6
g7
(lp2045
g5
(g6
g7
(lp2046
Vwe
p2047
atp2048
Rp2049
(dp2050
g16
VPRP
p2051
sbatp2052
Rp2053
(dp2054
g16
VNP
p2055
sbag5
(g6
g7
(lp2056
g5
(g6
g7
(lp2057
Vdo
p2058
atp2059
Rp2060
(dp2061
g16
VVBP
p2062
sbag5
(g6
g7
(lp2063
Vnot
p2064
atp2065
Rp2066
(dp2067
g16
VRB
p2068
sbag5
(g6
g7
(lp2069
g5
(g6
g7
(lp2070
Vhave
p2071
atp2072
Rp2073
(dp2074
g16
VVB
p2075
sbag5
(g6
g7
(lp2076
g5
(g6
g7
(lp2077
g5
(g6
g7
(lp2078
Vto
p2079
atp2080
Rp2081
(dp2082
g16
VTO
p2083
sbag5
(g6
g7
(lp2084
g5
(g6
g7
(lp2085
Vcommit
p2086
atp2087
Rp2088
(dp2089
g16
VVB
p2090
sbag5
(g6
g7
(lp2091
g5
(g6
g7
(lp2092
Vto
p2093
atp2094
Rp2095
(dp2096
g16
VTO
p2097
sbag5
(g6
g7
(lp2098
g5
(g6
g7
(lp2099
g31
atp2100
Rp2101
(dp2102
g16
VDT
p2103
sbag5
(g6
g7
(lp2104
Vparticular
p2105
atp2106
Rp2107
(dp2108
g16
VJJ
p2109
sbag5
(g6
g7
(lp2110
Vprediction
p2111
atp2112
Rp2113
(dp2114
g16
VNN
p2115
sbatp2116
Rp2117
(dp2118
g16
VNP
p2119
sbatp2120
Rp2121
(dp2122
g16
VPP
p2123
sbag5
(g6
g7
(lp2124
g5
(g6
g7
(lp2125
Von
p2126
atp2127
Rp2128
(dp2129
g16
VIN
p2130
sbag5
(g6
g7
(lp2131
g5
(g6
g7
(lp2132
g5
(g6
g7
(lp2133
g31
atp2134
Rp2135
(dp2136
g16
VDT
p2137
sbag5
(g6
g7
(lp2138
Vgiven
p2139
atp2140
Rp2141
(dp2142
g16
VVBN
p2143
sbag5
(g6
g7
(lp2144
Vinstance
p2145
atp2146
Rp2147
(dp2148
g16
VNN
p2149
sbatp2150
Rp2151
(dp2152
g16
VNP
p2153
sbag5
(g6
g7
(lp2154
g5
(g6
g7
(lp2155
Vfrom
p2156
atp2157
Rp2158
(dp2159
g16
VIN
p2160
sbag5
(g6
g7
(lp2161
g5
(g6
g7
(lp2162
Vparallel
p2163
atp2164
Rp2165
(dp2166
g16
VJJ
p2167
sbag5
(g6
g7
(lp2168
Vdata
p2169
atp2170
Rp2171
(dp2172
g16
VNNS
p2173
sbatp2174
Rp2175
(dp2176
g16
VNP
p2177
sbatp2178
Rp2179
(dp2180
g16
VPP
p2181
sbatp2182
Rp2183
(dp2184
g16
VNP
p2185
sbatp2186
Rp2187
(dp2188
g16
VPP
p2189
sbatp2190
Rp2191
(dp2192
g16
VVP
p2193
sbatp2194
Rp2195
(dp2196
g16
VVP
p2197
sbatp2198
Rp2199
(dp2200
g16
g143
sbatp2201
Rp2202
(dp2203
g16
VVP
p2204
sbatp2205
Rp2206
(dp2207
g16
VVP
p2208
sbatp2209
Rp2210
(dp2211
g16
g143
sbatp2212
Rp2213
(dp2214
g16
VSBAR
p2215
sbatp2216
Rp2217
(dp2218
g16
VVP
p2219
sbatp2220
Rp2221
(dp2222
g16
VVP
p2223
sbatp2224
Rp2225
(dp2226
g16
g143
sbatp2227
Rp2228
(dp2229
g16
VVP
p2230
sbatp2231
Rp2232
(dp2233
g16
VVP
p2234
sbatp2235
Rp2236
(dp2237
g16
VVP
p2238
sbatp2239
Rp2240
(dp2241
g16
g143
sbatp2242
Rp2243
(dp2244
g16
VROOT
p2245
sbasg148
(icmyPackage
CorE
p2246
(dp2247
g151
(lp2248
(I0
I20
tp2249
a(I0
I36
tp2250
asg155
g2210
sbsg156
(icmyPackage
CorE
p2251
(dp2252
g151
(lp2253
(I0
I0
tp2254
a(I0
I17
tp2255
asg155
g5
(g6
g7
(lp2256
g1913
ag1918
ag1934
ag1941
ag1948
ag1955
ag1963
ag1970
ag2030
atp2257
Rp2258
(dp2259
g16
g166
sbsbsg167
(icmyPackage
pattern
p2260
(dp2261
g170
I23
sg171
I1
sg172
(lp2262
(lp2263
S'since'
p2264
aasg177
(lp2265
I3
aI1
aI1
asg179
(lp2266
S'This is one of the simplest cases since the surface is so thin.'
p2267
aS'He could not answer the question, since he had not made up his mind.'
p2268
aS'That manager has been a basket case here since his wife left him.'
p2269
asg182
I79
sg183
(lp2270
(lp2271
S'&R@NCTime@'
p2272
aS'(,)'
p2273
aa(lp2274
S'&C@NCTime@'
p2275
aasbsg192
(lp2276
(isxpPackage
sxpSent
p2277
(dp2278
g196
(lp2279
I6
asg198
VCompared to annotation projection, our approach may be expected to be less sensitive to parallel data quality, since we do not have to commit to a particular prediction on a given instance from parallel data
p2280
sg200
I3
sg182
I26
sg201
I8
sbasba(icmyPackage
CELink
p2281
(dp2282
g3
(lp2283
g5
(g6
g7
(lp2284
g5
(g6
g7
(lp2285
g5
(g6
g7
(lp2286
g5
(g6
g7
(lp2287
VWe
p2288
atp2289
Rp2290
(dp2291
g16
VPRP
p2292
sbatp2293
Rp2294
(dp2295
g16
VNP
p2296
sbag5
(g6
g7
(lp2297
g5
(g6
g7
(lp2298
g5
(g6
g7
(lp2299
Valso
p2300
atp2301
Rp2302
(dp2303
g16
VRB
p2304
sbatp2305
Rp2306
(dp2307
g16
VADVP
p2308
sbag5
(g6
g7
(lp2309
Vbelieve
p2310
atp2311
Rp2312
(dp2313
g16
VVBP
p2314
sbag5
(g6
g7
(lp2315
g5
(g6
g7
(lp2316
Vthat
p2317
atp2318
Rp2319
(dp2320
g16
VIN
p2321
sbag5
(g6
g7
(lp2322
g5
(g6
g7
(lp2323
g5
(g6
g7
(lp2324
VFRP
p2325
atp2326
Rp2327
(dp2328
g16
VNNP
p2329
sbatp2330
Rp2331
(dp2332
g16
VNP
p2333
sbag5
(g6
g7
(lp2334
g5
(g6
g7
(lp2335
Vmay
p2336
atp2337
Rp2338
(dp2339
g16
VMD
p2340
sbag5
(g6
g7
(lp2341
g5
(g6
g7
(lp2342
g5
(g6
g7
(lp2343
Vprofit
p2344
atp2345
Rp2346
(dp2347
g16
VVB
p2348
sbag5
(g6
g7
(lp2349
g5
(g6
g7
(lp2350
Vfrom
p2351
atp2352
Rp2353
(dp2354
g16
VIN
p2355
sbag5
(g6
g7
(lp2356
g5
(g6
g7
(lp2357
g5
(g6
g7
(lp2358
Vusing
p2359
atp2360
Rp2361
(dp2362
g16
VVBG
p2363
sbag5
(g6
g7
(lp2364
g5
(g6
g7
(lp2365
g5
(g6
g7
(lp2366
Vother
p2367
atp2368
Rp2369
(dp2370
g16
VJJ
p2371
sbag5
(g6
g7
(lp2372
Vsources
p2373
atp2374
Rp2375
(dp2376
g16
VNNS
p2377
sbatp2378
Rp2379
(dp2380
g16
VNP
p2381
sbag5
(g6
g7
(lp2382
g5
(g6
g7
(lp2383
Vof
p2384
atp2385
Rp2386
(dp2387
g16
VIN
p2388
sbag5
(g6
g7
(lp2389
g5
(g6
g7
(lp2390
Vinformation
p2391
atp2392
Rp2393
(dp2394
g16
VNN
p2395
sbatp2396
Rp2397
(dp2398
g16
VNP
p2399
sbatp2400
Rp2401
(dp2402
g16
VPP
p2403
sbatp2404
Rp2405
(dp2406
g16
VNP
p2407
sbag5
(g6
g7
(lp2408
g5
(g6
g7
(lp2409
Vabout
p2410
atp2411
Rp2412
(dp2413
g16
VIN
p2414
sbag5
(g6
g7
(lp2415
g5
(g6
g7
(lp2416
g5
(g6
g7
(lp2417
Vthe
p2418
atp2419
Rp2420
(dp2421
g16
VDT
p2422
sbag5
(g6
g7
(lp2423
Vcorrespondence
p2424
atp2425
Rp2426
(dp2427
g16
VNN
p2428
sbatp2429
Rp2430
(dp2431
g16
VNP
p2432
sbag5
(g6
g7
(lp2433
g5
(g6
g7
(lp2434
Vbetween
p2435
atp2436
Rp2437
(dp2438
g16
VIN
p2439
sbag5
(g6
g7
(lp2440
g5
(g6
g7
(lp2441
Vsource
p2442
atp2443
Rp2444
(dp2445
g16
VNN
p2446
sbag5
(g6
g7
(lp2447
Vand
p2448
atp2449
Rp2450
(dp2451
g16
VCC
p2452
sbag5
(g6
g7
(lp2453
Vtarget
p2454
atp2455
Rp2456
(dp2457
g16
VNN
p2458
sbag5
(g6
g7
(lp2459
Vfeature
p2460
atp2461
Rp2462
(dp2463
g16
VNN
p2464
sbag5
(g6
g7
(lp2465
Vrepresentations
p2466
atp2467
Rp2468
(dp2469
g16
VNNS
p2470
sbatp2471
Rp2472
(dp2473
g16
VNP
p2474
sbatp2475
Rp2476
(dp2477
g16
VPP
p2478
sbag5
(g6
g7
(lp2479
g256
atp2480
Rp2481
(dp2482
g16
g256
sbag5
(g6
g7
(lp2483
g5
(g6
g7
(lp2484
Vsuch
p2485
atp2486
Rp2487
(dp2488
g16
VJJ
p2489
sbag5
(g6
g7
(lp2490
Vas
p2491
atp2492
Rp2493
(dp2494
g16
VIN
p2495
sbag5
(g6
g7
(lp2496
g5
(g6
g7
(lp2497
Vdictionary
p2498
atp2499
Rp2500
(dp2501
g16
VNN
p2502
sbag5
(g6
g7
(lp2503
Ventries
p2504
atp2505
Rp2506
(dp2507
g16
VNNS
p2508
sbatp2509
Rp2510
(dp2511
g16
VNP
p2512
sbatp2513
Rp2514
(dp2515
g16
VPP
p2516
sbatp2517
Rp2518
(dp2519
g16
VNP
p2520
sbatp2521
Rp2522
(dp2523
g16
VPP
p2524
sbatp2525
Rp2526
(dp2527
g16
VVP
p2528
sbatp2529
Rp2530
(dp2531
g16
g143
sbatp2532
Rp2533
(dp2534
g16
VPP
p2535
sbatp2536
Rp2537
(dp2538
g16
VVP
p2539
sbag5
(g6
g7
(lp2540
g256
atp2541
Rp2542
(dp2543
g16
g256
sbag5
(g6
g7
(lp2544
Vand
p2545
atp2546
Rp2547
(dp2548
g16
VCC
p2549
sbag5
(g6
g7
(lp2550
g5
(g6
g7
(lp2551
Vthus
p2552
atp2553
Rp2554
(dp2555
g16
VRB
p2556
sbatp2557
Rp2558
(dp2559
g16
VADVP
p2560
sbag5
(g6
g7
(lp2561
g5
(g6
g7
(lp2562
Vhave
p2563
atp2564
Rp2565
(dp2566
g16
VVB
p2567
sbag5
(g6
g7
(lp2568
g5
(g6
g7
(lp2569
g5
(g6
g7
(lp2570
Van
p2571
atp2572
Rp2573
(dp2574
g16
VDT
p2575
sbag5
(g6
g7
(lp2576
Vedge
p2577
atp2578
Rp2579
(dp2580
g16
VNN
p2581
sbatp2582
Rp2583
(dp2584
g16
VNP
p2585
sbag5
(g6
g7
(lp2586
g5
(g6
g7
(lp2587
Vover
p2588
atp2589
Rp2590
(dp2591
g16
VIN
p2592
sbag5
(g6
g7
(lp2593
g5
(g6
g7
(lp2594
g5
(g6
g7
(lp2595
Vannotation
p2596
atp2597
Rp2598
(dp2599
g16
VNN
p2600
sbag5
(g6
g7
(lp2601
Vprojection
p2602
atp2603
Rp2604
(dp2605
g16
VNN
p2606
sbatp2607
Rp2608
(dp2609
g16
VNP
p2610
sbag5
(g6
g7
(lp2611
g5
(g6
g7
(lp2612
Vin
p2613
atp2614
Rp2615
(dp2616
g16
VIN
p2617
sbag5
(g6
g7
(lp2618
g5
(g6
g7
(lp2619
Vthose
p2620
atp2621
Rp2622
(dp2623
g16
VDT
p2624
sbag5
(g6
g7
(lp2625
Vcases
p2626
atp2627
Rp2628
(dp2629
g16
VNNS
p2630
sbatp2631
Rp2632
(dp2633
g16
VNP
p2634
sbatp2635
Rp2636
(dp2637
g16
VPP
p2638
sbatp2639
Rp2640
(dp2641
g16
VNP
p2642
sbatp2643
Rp2644
(dp2645
g16
VPP
p2646
sbatp2647
Rp2648
(dp2649
g16
VNP
p2650
sbag5
(g6
g7
(lp2651
g5
(g6
g7
(lp2652
g5
(g6
g7
(lp2653
Vwhere
p2654
atp2655
Rp2656
(dp2657
g16
VWRB
p2658
sbatp2659
Rp2660
(dp2661
g16
VWHADVP
p2662
sbag5
(g6
g7
(lp2663
g5
(g6
g7
(lp2664
g5
(g6
g7
(lp2665
g5
(g6
g7
(lp2666
Vthe
p2667
atp2668
Rp2669
(dp2670
g16
VDT
p2671
sbag5
(g6
g7
(lp2672
Vamount
p2673
atp2674
Rp2675
(dp2676
g16
VNN
p2677
sbatp2678
Rp2679
(dp2680
g16
VNP
p2681
sbag5
(g6
g7
(lp2682
g5
(g6
g7
(lp2683
Vof
p2684
atp2685
Rp2686
(dp2687
g16
VIN
p2688
sbag5
(g6
g7
(lp2689
g5
(g6
g7
(lp2690
g5
(g6
g7
(lp2691
Vparallel
p2692
atp2693
Rp2694
(dp2695
g16
VJJ
p2696
sbag5
(g6
g7
(lp2697
Vdata
p2698
atp2699
Rp2700
(dp2701
g16
VNNS
p2702
sbatp2703
Rp2704
(dp2705
g16
VNP
p2706
sbag5
(g6
g7
(lp2707
g5
(g6
g7
(lp2708
Vavailable
p2709
atp2710
Rp2711
(dp2712
g16
VJJ
p2713
sbatp2714
Rp2715
(dp2716
g16
VADJP
p2717
sbatp2718
Rp2719
(dp2720
g16
VNP
p2721
sbatp2722
Rp2723
(dp2724
g16
VPP
p2725
sbatp2726
Rp2727
(dp2728
g16
VNP
p2729
sbag5
(g6
g7
(lp2730
g5
(g6
g7
(lp2731
Vis
p2732
atp2733
Rp2734
(dp2735
g16
VVBZ
p2736
sbag5
(g6
g7
(lp2737
g5
(g6
g7
(lp2738
Vlimited
p2739
atp2740
Rp2741
(dp2742
g16
VJJ
p2743
sbatp2744
Rp2745
(dp2746
g16
VADJP
p2747
sbatp2748
Rp2749
(dp2750
g16
VVP
p2751
sbatp2752
Rp2753
(dp2754
g16
g143
sbatp2755
Rp2756
(dp2757
g16
VSBAR
p2758
sbatp2759
Rp2760
(dp2761
g16
VVP
p2762
sbatp2763
Rp2764
(dp2765
g16
VVP
p2766
sbatp2767
Rp2768
(dp2769
g16
VVP
p2770
sbatp2771
Rp2772
(dp2773
g16
g143
sbatp2774
Rp2775
(dp2776
g16
VSBAR
p2777
sbatp2778
Rp2779
(dp2780
g16
VVP
p2781
sbatp2782
Rp2783
(dp2784
g16
g143
sbatp2785
Rp2786
(dp2787
g16
VROOT
p2788
sbasg148
(icmyPackage
CorE
p2789
(dp2790
g151
(lp2791
(I0
I0
tp2792
a(I0
I26
tp2793
asg155
g5
(g6
g7
(lp2794
g2294
ag2306
ag2312
ag2319
ag2331
ag2338
ag2537
atp2795
Rp2796
(dp2797
g16
g166
sbsbsg156
(icmyPackage
CorE
p2798
(dp2799
g151
(lp2800
(I0
I30
tp2801
a(I0
I47
tp2802
asg155
g2760
sbsg167
(icmyPackage
pattern
p2803
(dp2804
g170
I35
sg171
I1
sg172
(lp2805
(lp2806
S'thus'
p2807
aasg177
(lp2808
I1
aI1
aI1
asg179
(lp2809
S'Japan will be on the dark side of the Earth, and thus will lack the warming influence of the Sun.'
p2810
asg182
I2
sg183
(lp2811
(lp2812
S'&C'
p2813
aS'(,/;/./--)'
p2814
aS'(&AND)'
p2815
aa(lp2816
S'&R'
p2817
aasbsg192
(lp2818
(isxpPackage
sxpSent
p2819
(dp2820
g196
(lp2821
I7
asg198
VWe also believe that FRP may profit from using other sources of information about the correspondence between source and target feature representations, such as dictionary entries, and thus have an edge over annotation projection in those cases where the amount of parallel data available is limited
p2822
sg200
I3
sg182
I27
sg201
I8
sbasba(icmyPackage
CELink
p2823
(dp2824
g3
(lp2825
g5
(g6
g7
(lp2826
g5
(g6
g7
(lp2827
g5
(g6
g7
(lp2828
g5
(g6
g7
(lp2829
VFor
p2830
atp2831
Rp2832
(dp2833
g16
VIN
p2834
sbag5
(g6
g7
(lp2835
g5
(g6
g7
(lp2836
g5
(g6
g7
(lp2837
Vthe
p2838
atp2839
Rp2840
(dp2841
g16
VDT
p2842
sbag5
(g6
g7
(lp2843
Vsake
p2844
atp2845
Rp2846
(dp2847
g16
VNN
p2848
sbatp2849
Rp2850
(dp2851
g16
VNP
p2852
sbag5
(g6
g7
(lp2853
g5
(g6
g7
(lp2854
Vof
p2855
atp2856
Rp2857
(dp2858
g16
VIN
p2859
sbag5
(g6
g7
(lp2860
g5
(g6
g7
(lp2861
Vsimplicity
p2862
atp2863
Rp2864
(dp2865
g16
VNN
p2866
sbatp2867
Rp2868
(dp2869
g16
VNP
p2870
sbatp2871
Rp2872
(dp2873
g16
VPP
p2874
sbatp2875
Rp2876
(dp2877
g16
VNP
p2878
sbatp2879
Rp2880
(dp2881
g16
VPP
p2882
sbag5
(g6
g7
(lp2883
g5
(g6
g7
(lp2884
Vwe
p2885
atp2886
Rp2887
(dp2888
g16
VPRP
p2889
sbatp2890
Rp2891
(dp2892
g16
VNP
p2893
sbag5
(g6
g7
(lp2894
g5
(g6
g7
(lp2895
Vcast
p2896
atp2897
Rp2898
(dp2899
g16
VVBD
p2900
sbag5
(g6
g7
(lp2901
g5
(g6
g7
(lp2902
Vit
p2903
atp2904
Rp2905
(dp2906
g16
VPRP
p2907
sbatp2908
Rp2909
(dp2910
g16
VNP
p2911
sbag5
(g6
g7
(lp2912
g5
(g6
g7
(lp2913
Vas
p2914
atp2915
Rp2916
(dp2917
g16
VIN
p2918
sbag5
(g6
g7
(lp2919
g5
(g6
g7
(lp2920
g31
atp2921
Rp2922
(dp2923
g16
VDT
p2924
sbag5
(g6
g7
(lp2925
Vmulticlass
p2926
atp2927
Rp2928
(dp2929
g16
VJJ
p2930
sbag5
(g6
g7
(lp2931
Vclassification
p2932
atp2933
Rp2934
(dp2935
g16
VNN
p2936
sbag5
(g6
g7
(lp2937
Vproblem
p2938
atp2939
Rp2940
(dp2941
g16
VNN
p2942
sbatp2943
Rp2944
(dp2945
g16
VNP
p2946
sbatp2947
Rp2948
(dp2949
g16
VPP
p2950
sbag5
(g6
g7
(lp2951
g256
atp2952
Rp2953
(dp2954
g16
g256
sbag5
(g6
g7
(lp2955
g5
(g6
g7
(lp2956
g5
(g6
g7
(lp2957
Vignoring
p2958
atp2959
Rp2960
(dp2961
g16
VVBG
p2962
sbag5
(g6
g7
(lp2963
g5
(g6
g7
(lp2964
g5
(g6
g7
(lp2965
Vthe
p2966
atp2967
Rp2968
(dp2969
g16
VDT
p2970
sbag5
(g6
g7
(lp2971
Vinteraction
p2972
atp2973
Rp2974
(dp2975
g16
VNN
p2976
sbatp2977
Rp2978
(dp2979
g16
VNP
p2980
sbag5
(g6
g7
(lp2981
g5
(g6
g7
(lp2982
Vbetween
p2983
atp2984
Rp2985
(dp2986
g16
VIN
p2987
sbag5
(g6
g7
(lp2988
g5
(g6
g7
(lp2989
Vdifferent
p2990
atp2991
Rp2992
(dp2993
g16
VJJ
p2994
sbag5
(g6
g7
(lp2995
Varguments
p2996
atp2997
Rp2998
(dp2999
g16
VNNS
p3000
sbatp3001
Rp3002
(dp3003
g16
VNP
p3004
sbatp3005
Rp3006
(dp3007
g16
VPP
p3008
sbatp3009
Rp3010
(dp3011
g16
VNP
p3012
sbag5
(g6
g7
(lp3013
g5
(g6
g7
(lp3014
Vin
p3015
atp3016
Rp3017
(dp3018
g16
VIN
p3019
sbag5
(g6
g7
(lp3020
g5
(g6
g7
(lp3021
g31
atp3022
Rp3023
(dp3024
g16
VDT
p3025
sbag5
(g6
g7
(lp3026
Vpredicate
p3027
atp3028
Rp3029
(dp3030
g16
VNN
p3031
sbatp3032
Rp3033
(dp3034
g16
VNP
p3035
sbatp3036
Rp3037
(dp3038
g16
VPP
p3039
sbatp3040
Rp3041
(dp3042
g16
VVP
p3043
sbatp3044
Rp3045
(dp3046
g16
g143
sbatp3047
Rp3048
(dp3049
g16
VVP
p3050
sbatp3051
Rp3052
(dp3053
g16
g143
sbatp3054
Rp3055
(dp3056
g16
VROOT
p3057
sbasg148
(icmyPackage
CorE
p3058
(dp3059
g151
(lp3060
(I0
I4
tp3061
ag3061
asg155
g2868
sbsg156
(icmyPackage
CorE
p3062
(dp3063
g151
(lp3064
(I0
I14
tp3065
a(I0
I22
tp3066
asg155
g3045
sbsg167
(icmyPackage
pattern
p3067
(dp3068
g170
I2
sg171
I0
sg172
(lp3069
(lp3070
S'for'
p3071
aS'the'
p3072
aS'sake'
p3073
aS'of'
p3074
aa(lp3075
g532
aasg177
(lp3076
I2
aI1
aI1
asg179
(lp3077
S'For the sake of public health, the American Red Cross should be trying to identify the infectious agent that is in our blood.'
p3078
aS'For the sake of taking care of him, his younger brother Became his shadow, never leaving him alone for years.'
p3079
asg182
I61
sg183
(lp3080
(lp3081
a(lp3082
S'&V-ing/&NP@C@'
p3083
aa(lp3084
S'&R'
p3085
aasbsg192
(lp3086
(isxpPackage
sxpSent
p3087
(dp3088
g196
(lp3089
I8
asg198
VFor the sake of simplicity we cast it as a multiclass classification problem, ignoring the interaction between different arguments in a predicate
p3090
sg200
I4
sg182
I32
sg201
I11
sbasba(icmyPackage
CELink
p3091
(dp3092
g3
(lp3093
g5
(g6
g7
(lp3094
g5
(g6
g7
(lp3095
g5
(g6
g7
(lp3096
g5
(g6
g7
(lp3097
VOur
p3098
atp3099
Rp3100
(dp3101
g16
VPRP$
p3102
sbag5
(g6
g7
(lp3103
Vobjective
p3104
atp3105
Rp3106
(dp3107
g16
VNN
p3108
sbatp3109
Rp3110
(dp3111
g16
VNP
p3112
sbag5
(g6
g7
(lp3113
g5
(g6
g7
(lp3114
Vis
p3115
atp3116
Rp3117
(dp3118
g16
VVBZ
p3119
sbag5
(g6
g7
(lp3120
g5
(g6
g7
(lp3121
g5
(g6
g7
(lp3122
Vto
p3123
atp3124
Rp3125
(dp3126
g16
VTO
p3127
sbag5
(g6
g7
(lp3128
g5
(g6
g7
(lp3129
Vmake
p3130
atp3131
Rp3132
(dp3133
g16
VVB
p3134
sbag5
(g6
g7
(lp3135
g5
(g6
g7
(lp3136
Vthe
p3137
atp3138
Rp3139
(dp3140
g16
VDT
p3141
sbag5
(g6
g7
(lp3142
Vfeature
p3143
atp3144
Rp3145
(dp3146
g16
VNN
p3147
sbag5
(g6
g7
(lp3148
Vrepresentation
p3149
atp3150
Rp3151
(dp3152
g16
VNN
p3153
sbatp3154
Rp3155
(dp3156
g16
VNP
p3157
sbag5
(g6
g7
(lp3158
g5
(g6
g7
(lp3159
g5
(g6
g7
(lp3160
Vsufficiently
p3161
atp3162
Rp3163
(dp3164
g16
VRB
p3165
sbag5
(g6
g7
(lp3166
Vcompact
p3167
atp3168
Rp3169
(dp3170
g16
VRB
p3171
sbatp3172
Rp3173
(dp3174
g16
VADVP
p3175
sbag5
(g6
g7
(lp3176
g5
(g6
g7
(lp3177
Vthat
p3178
atp3179
Rp3180
(dp3181
g16
VIN
p3182
sbag5
(g6
g7
(lp3183
g5
(g6
g7
(lp3184
g5
(g6
g7
(lp3185
g5
(g6
g7
(lp3186
Vthe
p3187
atp3188
Rp3189
(dp3190
g16
VDT
p3191
sbag5
(g6
g7
(lp3192
Vmapping
p3193
atp3194
Rp3195
(dp3196
g16
VNN
p3197
sbatp3198
Rp3199
(dp3200
g16
VNP
p3201
sbag5
(g6
g7
(lp3202
g5
(g6
g7
(lp3203
Vbetween
p3204
atp3205
Rp3206
(dp3207
g16
VIN
p3208
sbag5
(g6
g7
(lp3209
g5
(g6
g7
(lp3210
Vsource
p3211
atp3212
Rp3213
(dp3214
g16
VNN
p3215
sbag5
(g6
g7
(lp3216
Vand
p3217
atp3218
Rp3219
(dp3220
g16
VCC
p3221
sbag5
(g6
g7
(lp3222
Vtarget
p3223
atp3224
Rp3225
(dp3226
g16
VNN
p3227
sbag5
(g6
g7
(lp3228
Vfeature
p3229
atp3230
Rp3231
(dp3232
g16
VNN
p3233
sbag5
(g6
g7
(lp3234
Vspaces
p3235
atp3236
Rp3237
(dp3238
g16
VNNS
p3239
sbatp3240
Rp3241
(dp3242
g16
VNP
p3243
sbatp3244
Rp3245
(dp3246
g16
VPP
p3247
sbatp3248
Rp3249
(dp3250
g16
VNP
p3251
sbag5
(g6
g7
(lp3252
g5
(g6
g7
(lp3253
Vcould
p3254
atp3255
Rp3256
(dp3257
g16
VMD
p3258
sbag5
(g6
g7
(lp3259
g5
(g6
g7
(lp3260
Vbe
p3261
atp3262
Rp3263
(dp3264
g16
VVB
p3265
sbag5
(g6
g7
(lp3266
g5
(g6
g7
(lp3267
g5
(g6
g7
(lp3268
Vreliably
p3269
atp3270
Rp3271
(dp3272
g16
VRB
p3273
sbatp3274
Rp3275
(dp3276
g16
VADVP
p3277
sbag5
(g6
g7
(lp3278
Vestimated
p3279
atp3280
Rp3281
(dp3282
g16
VVBN
p3283
sbag5
(g6
g7
(lp3284
g5
(g6
g7
(lp3285
Vfrom
p3286
atp3287
Rp3288
(dp3289
g16
VIN
p3290
sbag5
(g6
g7
(lp3291
g5
(g6
g7
(lp3292
g5
(g6
g7
(lp3293
g31
atp3294
Rp3295
(dp3296
g16
VDT
p3297
sbag5
(g6
g7
(lp3298
Vlimited
p3299
atp3300
Rp3301
(dp3302
g16
VJJ
p3303
sbag5
(g6
g7
(lp3304
Vamount
p3305
atp3306
Rp3307
(dp3308
g16
VNN
p3309
sbatp3310
Rp3311
(dp3312
g16
VNP
p3313
sbag5
(g6
g7
(lp3314
g5
(g6
g7
(lp3315
Vof
p3316
atp3317
Rp3318
(dp3319
g16
VIN
p3320
sbag5
(g6
g7
(lp3321
g5
(g6
g7
(lp3322
Vparallel
p3323
atp3324
Rp3325
(dp3326
g16
VJJ
p3327
sbag5
(g6
g7
(lp3328
Vdata
p3329
atp3330
Rp3331
(dp3332
g16
VNNS
p3333
sbatp3334
Rp3335
(dp3336
g16
VNP
p3337
sbatp3338
Rp3339
(dp3340
g16
VPP
p3341
sbatp3342
Rp3343
(dp3344
g16
VNP
p3345
sbatp3346
Rp3347
(dp3348
g16
VPP
p3349
sbag5
(g6
g7
(lp3350
g256
atp3351
Rp3352
(dp3353
g16
g256
sbag5
(g6
g7
(lp3354
g5
(g6
g7
(lp3355
Vwhile
p3356
atp3357
Rp3358
(dp3359
g16
VIN
p3360
sbag5
(g6
g7
(lp3361
g5
(g6
g7
(lp3362
g5
(g6
g7
(lp3363
Vpreserving
p3364
atp3365
Rp3366
(dp3367
g16
VVBG
p3368
sbag5
(g6
g7
(lp3369
g256
atp3370
Rp3371
(dp3372
g16
g256
sbag5
(g6
g7
(lp3373
g5
(g6
g7
(lp3374
Vinsofar
p3375
atp3376
Rp3377
(dp3378
g16
VRB
p3379
sbag5
(g6
g7
(lp3380
g5
(g6
g7
(lp3381
g5
(g6
g7
(lp3382
Vas
p3383
atp3384
Rp3385
(dp3386
g16
VRB
p3387
sbag5
(g6
g7
(lp3388
Vpossible
p3389
atp3390
Rp3391
(dp3392
g16
VJJ
p3393
sbatp3394
Rp3395
(dp3396
g16
VADJP
p3397
sbag5
(g6
g7
(lp3398
g256
atp3399
Rp3400
(dp3401
g16
g256
sbag5
(g6
g7
(lp3402
g5
(g6
g7
(lp3403
g5
(g6
g7
(lp3404
Vthe
p3405
atp3406
Rp3407
(dp3408
g16
VDT
p3409
sbag5
(g6
g7
(lp3410
Vinformation
p3411
atp3412
Rp3413
(dp3414
g16
VNN
p3415
sbatp3416
Rp3417
(dp3418
g16
VNP
p3419
sbag5
(g6
g7
(lp3420
g5
(g6
g7
(lp3421
Vrelevant
p3422
atp3423
Rp3424
(dp3425
g16
VJJ
p3426
sbag5
(g6
g7
(lp3427
g5
(g6
g7
(lp3428
Vfor
p3429
atp3430
Rp3431
(dp3432
g16
VIN
p3433
sbag5
(g6
g7
(lp3434
g5
(g6
g7
(lp3435
Vclassification
p3436
atp3437
Rp3438
(dp3439
g16
VNN
p3440
sbatp3441
Rp3442
(dp3443
g16
VNP
p3444
sbatp3445
Rp3446
(dp3447
g16
VPP
p3448
sbatp3449
Rp3450
(dp3451
g16
VADJP
p3452
sbatp3453
Rp3454
(dp3455
g16
VNP
p3456
sbatp3457
Rp3458
(dp3459
g16
VFRAG
p3460
sbatp3461
Rp3462
(dp3463
g16
VPP
p3464
sbatp3465
Rp3466
(dp3467
g16
VVP
p3468
sbatp3469
Rp3470
(dp3471
g16
g143
sbatp3472
Rp3473
(dp3474
g16
VSBAR
p3475
sbatp3476
Rp3477
(dp3478
g16
VVP
p3479
sbatp3480
Rp3481
(dp3482
g16
VVP
p3483
sbatp3484
Rp3485
(dp3486
g16
VVP
p3487
sbatp3488
Rp3489
(dp3490
g16
g143
sbatp3491
Rp3492
(dp3493
g16
VSBAR
p3494
sbatp3495
Rp3496
(dp3497
g16
VADVP
p3498
sbatp3499
Rp3500
(dp3501
g16
VVP
p3502
sbatp3503
Rp3504
(dp3505
g16
VVP
p3506
sbatp3507
Rp3508
(dp3509
g16
g143
sbatp3510
Rp3511
(dp3512
g16
VVP
p3513
sbatp3514
Rp3515
(dp3516
g16
g143
sbatp3517
Rp3518
(dp3519
g16
VROOT
p3520
sbag5
(g6
g7
(lp3521
g5
(g6
g7
(lp3522
g5
(g6
g7
(lp3523
g5
(g6
g7
(lp3524
VEstimating
p3525
atp3526
Rp3527
(dp3528
g16
VVBG
p3529
sbag5
(g6
g7
(lp3530
g5
(g6
g7
(lp3531
Vthe
p3532
atp3533
Rp3534
(dp3535
g16
VDT
p3536
sbag5
(g6
g7
(lp3537
Vmapping
p3538
atp3539
Rp3540
(dp3541
g16
VNN
p3542
sbatp3543
Rp3544
(dp3545
g16
VNP
p3546
sbag5
(g6
g7
(lp3547
g5
(g6
g7
(lp3548
Vdirectly
p3549
atp3550
Rp3551
(dp3552
g16
VRB
p3553
sbatp3554
Rp3555
(dp3556
g16
VADVP
p3557
sbag5
(g6
g7
(lp3558
g5
(g6
g7
(lp3559
Vfrom
p3560
atp3561
Rp3562
(dp3563
g16
VIN
p3564
sbag5
(g6
g7
(lp3565
g5
(g6
g7
(lp3566
Vraw
p3567
atp3568
Rp3569
(dp3570
g16
VJJ
p3571
sbag5
(g6
g7
(lp3572
Vcategorical
p3573
atp3574
Rp3575
(dp3576
g16
VNN
p3577
sbatp3578
Rp3579
(dp3580
g16
VNP
p3581
sbatp3582
Rp3583
(dp3584
g16
VPP
p3585
sbatp3586
Rp3587
(dp3588
g16
VVP
p3589
sbag5
(g6
g7
(lp3590
g5
(g6
g7
(lp3591
Vfeatures
p3592
atp3593
Rp3594
(dp3595
g16
VVBZ
p3596
sbag5
(g6
g7
(lp3597
g5
(g6
g7
(lp3598
g5
(g6
g7
(lp3599
V-LRB-
p3600
atp3601
Rp3602
(dp3603
g16
V-LRB-
p3604
sbag5
(g6
g7
(lp3605
g5
(g6
g7
(lp3606
g5
(g6
g7
(lp3607
Vu
p3608
atp3609
Rp3610
(dp3611
g16
VNNP
p3612
sbag5
(g6
g7
(lp3613
V'
p3614
atp3615
Rp3616
(dp3617
g16
VPOS
p3618
sbatp3619
Rp3620
(dp3621
g16
VNP
p3622
sbag5
(g6
g7
(lp3623
V\u005c
p3624
atp3625
Rp3626
(dp3627
g16
VJJ
p3628
sbag5
(g6
g7
(lp3629
Vu03a9
p3630
atp3631
Rp3632
(dp3633
g16
VNNS
p3634
sbag5
(g6
g7
(lp3635
g3614
atp3636
Rp3637
(dp3638
g16
V''
p3639
sbag5
(g6
g7
(lp3640
V0
p3641
atp3642
Rp3643
(dp3644
g16
VNN
p3645
sbatp3646
Rp3647
(dp3648
g16
VNP
p3649
sbag5
(g6
g7
(lp3650
V-RRB-
p3651
atp3652
Rp3653
(dp3654
g16
V-RRB-
p3655
sbag5
(g6
g7
(lp3656
g5
(g6
g7
(lp3657
Vis
p3658
atp3659
Rp3660
(dp3661
g16
VVBZ
p3662
sbag5
(g6
g7
(lp3663
g5
(g6
g7
(lp3664
Vboth
p3665
atp3666
Rp3667
(dp3668
g16
VDT
p3669
sbag5
(g6
g7
(lp3670
g5
(g6
g7
(lp3671
Vcomputationally
p3672
atp3673
Rp3674
(dp3675
g16
VRB
p3676
sbag5
(g6
g7
(lp3677
Vexpensive
p3678
atp3679
Rp3680
(dp3681
g16
VJJ
p3682
sbatp3683
Rp3684
(dp3685
g16
VADJP
p3686
sbag5
(g6
g7
(lp3687
Vand
p3688
atp3689
Rp3690
(dp3691
g16
VCC
p3692
sbag5
(g6
g7
(lp3693
g5
(g6
g7
(lp3694
Vlikely
p3695
atp3696
Rp3697
(dp3698
g16
VRB
p3699
sbag5
(g6
g7
(lp3700
Vinaccurate
p3701
atp3702
Rp3703
(dp3704
g16
VJJ
p3705
sbatp3706
Rp3707
(dp3708
g16
VADJP
p3709
sbatp3710
Rp3711
(dp3712
g16
VADJP
p3713
sbatp3714
Rp3715
(dp3716
g16
VVP
p3717
sbatp3718
Rp3719
(dp3720
g16
g143
sbatp3721
Rp3722
(dp3723
g16
VSBAR
p3724
sbatp3725
Rp3726
(dp3727
g16
VVP
p3728
sbag5
(g6
g7
(lp3729
g5
(g6
g7
(lp3730
g5
(g6
g7
(lp3731
g5
(g6
g7
(lp3732
g3608
atp3733
Rp3734
(dp3735
g16
VNNP
p3736
sbag5
(g6
g7
(lp3737
g3614
atp3738
Rp3739
(dp3740
g16
VPOS
p3741
sbatp3742
Rp3743
(dp3744
g16
VNP
p3745
sbag5
(g6
g7
(lp3746
V\u005c
p3747
atp3748
Rp3749
(dp3750
g16
VNN
p3751
sbag5
(g6
g7
(lp3752
Vu2013
p3753
atp3754
Rp3755
(dp3756
g16
VNN
p3757
sbag5
(g6
g7
(lp3758
g3614
atp3759
Rp3760
(dp3761
g16
V''
p3762
sbatp3763
Rp3764
(dp3765
g16
VNP
p3766
sbag5
(g6
g7
(lp3767
g5
(g6
g7
(lp3768
Vusing
p3769
atp3770
Rp3771
(dp3772
g16
VVBG
p3773
sbag5
(g6
g7
(lp3774
g5
(g6
g7
(lp3775
g5
(g6
g7
(lp3776
Vone-hot
p3777
atp3778
Rp3779
(dp3780
g16
VJJ
p3781
sbag5
(g6
g7
(lp3782
Vencoding
p3783
atp3784
Rp3785
(dp3786
g16
VNN
p3787
sbatp3788
Rp3789
(dp3790
g16
VNP
p3791
sbag5
(g6
g7
(lp3792
g5
(g6
g7
(lp3793
g5
(g6
g7
(lp3794
g5
(g6
g7
(lp3795
g5
(g6
g7
(lp3796
Vthe
p3797
atp3798
Rp3799
(dp3800
g16
VDT
p3801
sbag5
(g6
g7
(lp3802
Vfeature
p3803
atp3804
Rp3805
(dp3806
g16
VNN
p3807
sbag5
(g6
g7
(lp3808
Vvectors
p3809
atp3810
Rp3811
(dp3812
g16
VNNS
p3813
sbatp3814
Rp3815
(dp3816
g16
VNP
p3817
sbag5
(g6
g7
(lp3818
g5
(g6
g7
(lp3819
Vin
p3820
atp3821
Rp3822
(dp3823
g16
VIN
p3824
sbag5
(g6
g7
(lp3825
g5
(g6
g7
(lp3826
Vour
p3827
atp3828
Rp3829
(dp3830
g16
VPRP$
p3831
sbag5
(g6
g7
(lp3832
Vexperiments
p3833
atp3834
Rp3835
(dp3836
g16
VNNS
p3837
sbatp3838
Rp3839
(dp3840
g16
VNP
p3841
sbatp3842
Rp3843
(dp3844
g16
VPP
p3845
sbatp3846
Rp3847
(dp3848
g16
VNP
p3849
sbag5
(g6
g7
(lp3850
g5
(g6
g7
(lp3851
Vwould
p3852
atp3853
Rp3854
(dp3855
g16
VMD
p3856
sbag5
(g6
g7
(lp3857
g5
(g6
g7
(lp3858
Vhave
p3859
atp3860
Rp3861
(dp3862
g16
VVB
p3863
sbag5
(g6
g7
(lp3864
g5
(g6
g7
(lp3865
g5
(g6
g7
(lp3866
g5
(g6
g7
(lp3867
Vtens
p3868
atp3869
Rp3870
(dp3871
g16
VNNS
p3872
sbag5
(g6
g7
(lp3873
Vof
p3874
atp3875
Rp3876
(dp3877
g16
VIN
p3878
sbag5
(g6
g7
(lp3879
Vthousands
p3880
atp3881
Rp3882
(dp3883
g16
VNNS
p3884
sbatp3885
Rp3886
(dp3887
g16
VQP
p3888
sbatp3889
Rp3890
(dp3891
g16
VNP
p3892
sbag5
(g6
g7
(lp3893
g5
(g6
g7
(lp3894
Vof
p3895
atp3896
Rp3897
(dp3898
g16
VIN
p3899
sbag5
(g6
g7
(lp3900
g5
(g6
g7
(lp3901
Vcomponents
p3902
atp3903
Rp3904
(dp3905
g16
VNNS
p3906
sbatp3907
Rp3908
(dp3909
g16
VNP
p3910
sbatp3911
Rp3912
(dp3913
g16
VPP
p3914
sbatp3915
Rp3916
(dp3917
g16
VNP
p3918
sbatp3919
Rp3920
(dp3921
g16
VVP
p3922
sbatp3923
Rp3924
(dp3925
g16
VVP
p3926
sbatp3927
Rp3928
(dp3929
g16
g143
sbatp3930
Rp3931
(dp3932
g16
VSBAR
p3933
sbatp3934
Rp3935
(dp3936
g16
VNP
p3937
sbatp3938
Rp3939
(dp3940
g16
VVP
p3941
sbatp3942
Rp3943
(dp3944
g16
VNP
p3945
sbatp3946
Rp3947
(dp3948
g16
VSINV
p3949
sbatp3950
Rp3951
(dp3952
g16
VROOT
p3953
sbasg148
(icmyPackage
CorE
p3954
(dp3955
g151
(lp3956
(I0
I36
tp3957
a(I1
I42
tp3958
asg155
g5
(g6
g7
(lp3959
g3391
ag3400
ag3454
ag3587
ag3726
ag3764
ag3771
ag3789
ag3847
ag3854
ag3861
ag3890
ag3897
atp3960
Rp3961
(dp3962
g16
g166
sbsbsg156
(icmyPackage
CorE
p3963
(dp3964
g151
(lp3965
(I0
I0
tp3966
a(I0
I34
tp3967
asg155
g5
(g6
g7
(lp3968
g3110
ag3117
ag3125
ag3132
ag3155
ag3173
ag3180
ag3249
ag3256
ag3263
ag3275
ag3281
ag3347
ag3352
ag3358
ag3366
ag3371
ag3377
atp3969
Rp3970
(dp3971
g16
g166
sbsbsg167
g1851
sg192
(lp3972
(isxpPackage
sxpSent
p3973
(dp3974
g196
(lp3975
I9
asg198
VOur objective is to make the feature representation sufficiently compact that the mapping between source and target feature spaces could be reliably estimated from a limited amount of parallel data, while preserving, insofar as possible, the information relevant for classification
p3976
sg200
I6
sg182
I43
sg201
I18
sba(isxpPackage
sxpSent
p3977
(dp3978
g196
(lp3979
I9
aI10
asg198
VEstimating the mapping directly from raw categorical features ( u'\u005cu03a9' 0 ) is both computationally expensive and likely inaccurate u'\u005cu2013' using one-hot encoding the feature vectors in our experiments would have tens of thousands of components
p3980
sg200
I6
sg182
I44
sg201
I19
sbasba(icmyPackage
CELink
p3981
(dp3982
g3
(lp3983
g3951
asg148
(icmyPackage
CorE
p3984
(dp3985
g151
(lp3986
(I0
I0
tp3987
a(I0
I6
tp3988
asg155
g3587
sbsg156
(icmyPackage
CorE
p3989
(dp3990
g151
(lp3991
(I0
I7
tp3992
a(I0
I27
tp3993
asg155
g5
(g6
g7
(lp3994
g3726
ag3764
atp3995
Rp3996
(dp3997
g16
g166
sbsbsg167
(icmyPackage
pattern
p3998
(dp3999
g170
I30
sg171
I0
sg172
(lp4000
sg177
(lp4001
I3
aI2
aI1
asg179
(lp4002
S'Being over here we tend to be a bit isolated.'
p4003
aS'Not being sure of the word, he turned it up in the dictionary.'
p4004
asg182
I81
sg183
(lp4005
(lp4006
S'&V-ing@C@'
p4007
aS'(,)'
p4008
aS'&R@Complete@'
p4009
aasbsg192
(lp4010
g3977
asba(icmyPackage
CELink
p4011
(dp4012
g3
(lp4013
g5
(g6
g7
(lp4014
g5
(g6
g7
(lp4015
g5
(g6
g7
(lp4016
g5
(g6
g7
(lp4017
VWe
p4018
atp4019
Rp4020
(dp4021
g16
VPRP
p4022
sbatp4023
Rp4024
(dp4025
g16
VNP
p4026
sbag5
(g6
g7
(lp4027
g5
(g6
g7
(lp4028
Vwill
p4029
atp4030
Rp4031
(dp4032
g16
VMD
p4033
sbag5
(g6
g7
(lp4034
g5
(g6
g7
(lp4035
Vrefer
p4036
atp4037
Rp4038
(dp4039
g16
VVB
p4040
sbag5
(g6
g7
(lp4041
g5
(g6
g7
(lp4042
Vto
p4043
atp4044
Rp4045
(dp4046
g16
VTO
p4047
sbag5
(g6
g7
(lp4048
g5
(g6
g7
(lp4049
g5
(g6
g7
(lp4050
Vthis
p4051
atp4052
Rp4053
(dp4054
g16
VDT
p4055
sbag5
(g6
g7
(lp4056
Vrepresentation
p4057
atp4058
Rp4059
(dp4060
g16
VNN
p4061
sbatp4062
Rp4063
(dp4064
g16
VNP
p4065
sbag5
(g6
g7
(lp4066
g5
(g6
g7
(lp4067
Vas
p4068
atp4069
Rp4070
(dp4071
g16
VIN
p4072
sbag5
(g6
g7
(lp4073
g5
(g6
g7
(lp4074
g5
(g6
g7
(lp4075
g5
(g6
g7
(lp4076
g3608
atp4077
Rp4078
(dp4079
g16
VNNP
p4080
sbag5
(g6
g7
(lp4081
g3614
atp4082
Rp4083
(dp4084
g16
VPOS
p4085
sbatp4086
Rp4087
(dp4088
g16
VNP
p4089
sbag5
(g6
g7
(lp4090
V\u005c
p4091
atp4092
Rp4093
(dp4094
g16
VNN
p4095
sbag5
(g6
g7
(lp4096
Vu03a9
p4097
atp4098
Rp4099
(dp4100
g16
VNN
p4101
sbag5
(g6
g7
(lp4102
g3614
atp4103
Rp4104
(dp4105
g16
V''
p4106
sbatp4107
Rp4108
(dp4109
g16
VNP
p4110
sbag5
(g6
g7
(lp4111
g5
(g6
g7
(lp4112
V1
p4113
atp4114
Rp4115
(dp4116
g16
VCD
p4117
sbatp4118
Rp4119
(dp4120
g16
VNP
p4121
sbatp4122
Rp4123
(dp4124
g16
VNP
p4125
sbatp4126
Rp4127
(dp4128
g16
VPP
p4129
sbatp4130
Rp4131
(dp4132
g16
VNP
p4133
sbatp4134
Rp4135
(dp4136
g16
VPP
p4137
sbatp4138
Rp4139
(dp4140
g16
VVP
p4141
sbatp4142
Rp4143
(dp4144
g16
VVP
p4145
sbatp4146
Rp4147
(dp4148
g16
g143
sbatp4149
Rp4150
(dp4151
g16
VROOT
p4152
sbag5
(g6
g7
(lp4153
g5
(g6
g7
(lp4154
g5
(g6
g7
(lp4155
g5
(g6
g7
(lp4156
g5
(g6
g7
(lp4157
VTo
p4158
atp4159
Rp4160
(dp4161
g16
VTO
p4162
sbag5
(g6
g7
(lp4163
g5
(g6
g7
(lp4164
Vgo
p4165
atp4166
Rp4167
(dp4168
g16
VVB
p4169
sbag5
(g6
g7
(lp4170
Vfurther
p4171
atp4172
Rp4173
(dp4174
g16
VRBR
p4175
sbatp4176
Rp4177
(dp4178
g16
VVP
p4179
sbatp4180
Rp4181
(dp4182
g16
VVP
p4183
sbatp4184
Rp4185
(dp4186
g16
g143
sbag5
(g6
g7
(lp4187
g256
atp4188
Rp4189
(dp4190
g16
g256
sbag5
(g6
g7
(lp4191
g5
(g6
g7
(lp4192
Vone
p4193
atp4194
Rp4195
(dp4196
g16
VPRP
p4197
sbatp4198
Rp4199
(dp4200
g16
VNP
p4201
sbag5
(g6
g7
(lp4202
g5
(g6
g7
(lp4203
Vcan
p4204
atp4205
Rp4206
(dp4207
g16
VMD
p4208
sbag5
(g6
g7
(lp4209
g256
atp4210
Rp4211
(dp4212
g16
g256
sbag5
(g6
g7
(lp4213
g5
(g6
g7
(lp4214
Vfor
p4215
atp4216
Rp4217
(dp4218
g16
VIN
p4219
sbag5
(g6
g7
(lp4220
g5
(g6
g7
(lp4221
Vexample
p4222
atp4223
Rp4224
(dp4225
g16
VNN
p4226
sbatp4227
Rp4228
(dp4229
g16
VNP
p4230
sbatp4231
Rp4232
(dp4233
g16
VPP
p4234
sbag5
(g6
g7
(lp4235
g256
atp4236
Rp4237
(dp4238
g16
g256
sbag5
(g6
g7
(lp4239
g5
(g6
g7
(lp4240
Vapply
p4241
atp4242
Rp4243
(dp4244
g16
VVB
p4245
sbag5
(g6
g7
(lp4246
g5
(g6
g7
(lp4247
Vdimensionality
p4248
atp4249
Rp4250
(dp4251
g16
VJJ
p4252
sbag5
(g6
g7
(lp4253
Vreduction
p4254
atp4255
Rp4256
(dp4257
g16
VNN
p4258
sbag5
(g6
g7
(lp4259
Vtechniques
p4260
atp4261
Rp4262
(dp4263
g16
VNNS
p4264
sbatp4265
Rp4266
(dp4267
g16
VNP
p4268
sbag5
(g6
g7
(lp4269
g5
(g6
g7
(lp4270
g5
(g6
g7
(lp4271
Vto
p4272
atp4273
Rp4274
(dp4275
g16
VTO
p4276
sbag5
(g6
g7
(lp4277
g5
(g6
g7
(lp4278
g5
(g6
g7
(lp4279
Vobtain
p4280
atp4281
Rp4282
(dp4283
g16
VVB
p4284
sbag5
(g6
g7
(lp4285
g5
(g6
g7
(lp4286
g5
(g6
g7
(lp4287
g31
atp4288
Rp4289
(dp4290
g16
VDT
p4291
sbag5
(g6
g7
(lp4292
Vmore
p4293
atp4294
Rp4295
(dp4296
g16
VJJR
p4297
sbag5
(g6
g7
(lp4298
Vcompact
p4299
atp4300
Rp4301
(dp4302
g16
VJJ
p4303
sbag5
(g6
g7
(lp4304
Vrepresentation
p4305
atp4306
Rp4307
(dp4308
g16
VNN
p4309
sbatp4310
Rp4311
(dp4312
g16
VNP
p4313
sbag5
(g6
g7
(lp4314
g5
(g6
g7
(lp4315
Vof
p4316
atp4317
Rp4318
(dp4319
g16
VIN
p4320
sbag5
(g6
g7
(lp4321
g5
(g6
g7
(lp4322
g5
(g6
g7
(lp4323
g3608
atp4324
Rp4325
(dp4326
g16
VNNP
p4327
sbag5
(g6
g7
(lp4328
g3614
atp4329
Rp4330
(dp4331
g16
VPOS
p4332
sbatp4333
Rp4334
(dp4335
g16
VNP
p4336
sbag5
(g6
g7
(lp4337
V\u005c
p4338
atp4339
Rp4340
(dp4341
g16
VJJ
p4342
sbag5
(g6
g7
(lp4343
Vu03a9
p4344
atp4345
Rp4346
(dp4347
g16
VNNS
p4348
sbatp4349
Rp4350
(dp4351
g16
VNP
p4352
sbatp4353
Rp4354
(dp4355
g16
VPP
p4356
sbatp4357
Rp4358
(dp4359
g16
VNP
p4360
sbag5
(g6
g7
(lp4361
g3614
atp4362
Rp4363
(dp4364
g16
V''
p4365
sbag5
(g6
g7
(lp4366
g5
(g6
g7
(lp4367
g4113
atp4368
Rp4369
(dp4370
g16
VCD
p4371
sbatp4372
Rp4373
(dp4374
g16
VNP
p4375
sbag5
(g6
g7
(lp4376
g5
(g6
g7
(lp4377
Vby
p4378
atp4379
Rp4380
(dp4381
g16
VIN
p4382
sbag5
(g6
g7
(lp4383
g5
(g6
g7
(lp4384
g5
(g6
g7
(lp4385
Veliminating
p4386
atp4387
Rp4388
(dp4389
g16
VVBG
p4390
sbag5
(g6
g7
(lp4391
g5
(g6
g7
(lp4392
Vredundancy
p4393
atp4394
Rp4395
(dp4396
g16
VRB
p4397
sbatp4398
Rp4399
(dp4400
g16
VADVP
p4401
sbatp4402
Rp4403
(dp4404
g16
VVP
p4405
sbatp4406
Rp4407
(dp4408
g16
g143
sbatp4409
Rp4410
(dp4411
g16
VPP
p4412
sbatp4413
Rp4414
(dp4415
g16
VVP
p4416
sbag5
(g6
g7
(lp4417
Vor
p4418
atp4419
Rp4420
(dp4421
g16
VCC
p4422
sbag5
(g6
g7
(lp4423
g5
(g6
g7
(lp4424
g5
(g6
g7
(lp4425
Vdefine
p4426
atp4427
Rp4428
(dp4429
g16
VVB
p4430
sbag5
(g6
g7
(lp4431
g5
(g6
g7
(lp4432
Vauxiliary
p4433
atp4434
Rp4435
(dp4436
g16
VJJ
p4437
sbag5
(g6
g7
(lp4438
Vtasks
p4439
atp4440
Rp4441
(dp4442
g16
VNNS
p4443
sbatp4444
Rp4445
(dp4446
g16
VNP
p4447
sbatp4448
Rp4449
(dp4450
g16
VVP
p4451
sbag5
(g6
g7
(lp4452
Vand
p4453
atp4454
Rp4455
(dp4456
g16
VCC
p4457
sbag5
(g6
g7
(lp4458
g5
(g6
g7
(lp4459
Vproduce
p4460
atp4461
Rp4462
(dp4463
g16
VVB
p4464
sbag5
(g6
g7
(lp4465
g5
(g6
g7
(lp4466
g5
(g6
g7
(lp4467
g31
atp4468
Rp4469
(dp4470
g16
VDT
p4471
sbag5
(g6
g7
(lp4472
Vvector
p4473
atp4474
Rp4475
(dp4476
g16
VNN
p4477
sbag5
(g6
g7
(lp4478
Vrepresentation
p4479
atp4480
Rp4481
(dp4482
g16
VNN
p4483
sbatp4484
Rp4485
(dp4486
g16
VNP
p4487
sbag5
(g6
g7
(lp4488
g5
(g6
g7
(lp4489
Vuseful
p4490
atp4491
Rp4492
(dp4493
g16
VJJ
p4494
sbag5
(g6
g7
(lp4495
g5
(g6
g7
(lp4496
Vfor
p4497
atp4498
Rp4499
(dp4500
g16
VIN
p4501
sbag5
(g6
g7
(lp4502
g5
(g6
g7
(lp4503
Vthose
p4504
atp4505
Rp4506
(dp4507
g16
VDT
p4508
sbag5
(g6
g7
(lp4509
Vtasks
p4510
atp4511
Rp4512
(dp4513
g16
VNNS
p4514
sbatp4515
Rp4516
(dp4517
g16
VNP
p4518
sbatp4519
Rp4520
(dp4521
g16
VPP
p4522
sbatp4523
Rp4524
(dp4525
g16
VADJP
p4526
sbatp4527
Rp4528
(dp4529
g16
g143
sbatp4530
Rp4531
(dp4532
g16
VVP
p4533
sbatp4534
Rp4535
(dp4536
g16
VVP
p4537
sbatp4538
Rp4539
(dp4540
g16
VVP
p4541
sbatp4542
Rp4543
(dp4544
g16
VVP
p4545
sbatp4546
Rp4547
(dp4548
g16
g143
sbatp4549
Rp4550
(dp4551
g16
VVP
p4552
sbatp4553
Rp4554
(dp4555
g16
VVP
p4556
sbatp4557
Rp4558
(dp4559
g16
g143
sbatp4560
Rp4561
(dp4562
g16
VROOT
p4563
sbasg148
(icmyPackage
CorE
p4564
(dp4565
g151
(lp4566
(I0
I7
tp4567
a(I1
I27
tp4568
asg155
g5
(g6
g7
(lp4569
g4123
ag4185
ag4189
ag4199
ag4206
ag4211
ag4232
ag4237
ag4243
ag4266
ag4274
ag4282
ag4358
ag4363
ag4373
ag4380
atp4570
Rp4571
(dp4572
g16
g166
sbsbsg156
(icmyPackage
CorE
p4573
(dp4574
g151
(lp4575
(I0
I0
tp4576
a(I0
I5
tp4577
asg155
g5
(g6
g7
(lp4578
g4024
ag4031
ag4038
ag4045
ag4063
atp4579
Rp4580
(dp4581
g16
g166
sbsbsg167
g1851
sg192
(lp4582
(isxpPackage
sxpSent
p4583
(dp4584
g196
(lp4585
I11
asg198
VWe will refer to this representation as u'\u005cu03a9' 1
p4586
sg200
I6
sg182
I48
sg201
I19
sba(isxpPackage
sxpSent
p4587
(dp4588
g196
(lp4589
I11
aI12
asg198
VTo go further, one can, for example, apply dimensionality reduction techniques to obtain a more compact representation of u'\u005cu03a9' 1 by eliminating redundancy or define auxiliary tasks and produce a vector representation useful for those tasks
p4590
sg200
I6
sg182
I49
sg201
I20
sbasba(icmyPackage
CELink
p4591
(dp4592
g3
(lp4593
g4561
asg148
(icmyPackage
CorE
p4594
(dp4595
g151
(lp4596
(I0
I28
tp4597
a(I0
I29
tp4598
asg155
g4407
sbsg156
(icmyPackage
CorE
p4599
(dp4600
g151
(lp4601
(I0
I30
tp4602
a(I0
I42
tp4603
asg155
g5
(g6
g7
(lp4604
g4420
ag4535
atp4605
Rp4606
(dp4607
g16
g166
sbsbsg167
(icmyPackage
pattern
p4608
(dp4609
g170
I0
sg171
I0
sg172
(lp4610
(lp4611
(lp4612
S'by'
p4613
aS'through'
p4614
aaasg177
(lp4615
I2
aI1
aI1
asg179
(lp4616
S'By extracting comments and comparisons of the cited articles and then organizing them according to the time of publication discovers and displays how the area has developed as a research literature.'
p4617
asg182
I67
sg183
(lp4618
(lp4619
a(lp4620
S'&V-ing@C@'
p4621
aS'&R'
p4622
aasbsg192
(lp4623
g4587
asba(icmyPackage
CELink
p4624
(dp4625
g3
(lp4626
g5
(g6
g7
(lp4627
g5
(g6
g7
(lp4628
g5
(g6
g7
(lp4629
g5
(g6
g7
(lp4630
VBoth
p4631
atp4632
Rp4633
(dp4634
g16
VDT
p4635
sbag5
(g6
g7
(lp4636
Vbaselines
p4637
atp4638
Rp4639
(dp4640
g16
VNNS
p4641
sbatp4642
Rp4643
(dp4644
g16
VNP
p4645
sbag5
(g6
g7
(lp4646
g5
(g6
g7
(lp4647
Vare
p4648
atp4649
Rp4650
(dp4651
g16
VVBP
p4652
sbag5
(g6
g7
(lp4653
g5
(g6
g7
(lp4654
Vusing
p4655
atp4656
Rp4657
(dp4658
g16
VVBG
p4659
sbag5
(g6
g7
(lp4660
g5
(g6
g7
(lp4661
g5
(g6
g7
(lp4662
Vthe
p4663
atp4664
Rp4665
(dp4666
g16
VDT
p4667
sbag5
(g6
g7
(lp4668
Vsame
p4669
atp4670
Rp4671
(dp4672
g16
VJJ
p4673
sbag5
(g6
g7
(lp4674
Vset
p4675
atp4676
Rp4677
(dp4678
g16
VNN
p4679
sbatp4680
Rp4681
(dp4682
g16
VNP
p4683
sbag5
(g6
g7
(lp4684
g5
(g6
g7
(lp4685
Vof
p4686
atp4687
Rp4688
(dp4689
g16
VIN
p4690
sbag5
(g6
g7
(lp4691
g5
(g6
g7
(lp4692
Vfeatures
p4693
atp4694
Rp4695
(dp4696
g16
VNNS
p4697
sbatp4698
Rp4699
(dp4700
g16
VNP
p4701
sbatp4702
Rp4703
(dp4704
g16
VPP
p4705
sbatp4706
Rp4707
(dp4708
g16
VNP
p4709
sbag5
(g6
g7
(lp4710
g5
(g6
g7
(lp4711
Vas
p4712
atp4713
Rp4714
(dp4715
g16
VIN
p4716
sbag5
(g6
g7
(lp4717
g5
(g6
g7
(lp4718
g5
(g6
g7
(lp4719
Vthe
p4720
atp4721
Rp4722
(dp4723
g16
VDT
p4724
sbag5
(g6
g7
(lp4725
Vproposed
p4726
atp4727
Rp4728
(dp4729
g16
VVBN
p4730
sbag5
(g6
g7
(lp4731
Vmodel
p4732
atp4733
Rp4734
(dp4735
g16
VNN
p4736
sbatp4737
Rp4738
(dp4739
g16
VNP
p4740
sbag5
(g6
g7
(lp4741
g256
atp4742
Rp4743
(dp4744
g16
g256
sbag5
(g6
g7
(lp4745
g5
(g6
g7
(lp4746
Vas
p4747
atp4748
Rp4749
(dp4750
g16
VIN
p4751
sbag5
(g6
g7
(lp4752
g5
(g6
g7
(lp4753
g5
(g6
g7
(lp4754
Vdescribed
p4755
atp4756
Rp4757
(dp4758
g16
VVBD
p4759
sbag5
(g6
g7
(lp4760
g5
(g6
g7
(lp4761
Vearlier
p4762
atp4763
Rp4764
(dp4765
g16
VRBR
p4766
sbatp4767
Rp4768
(dp4769
g16
VADVP
p4770
sbatp4771
Rp4772
(dp4773
g16
VVP
p4774
sbatp4775
Rp4776
(dp4777
g16
g143
sbatp4778
Rp4779
(dp4780
g16
VSBAR
p4781
sbatp4782
Rp4783
(dp4784
g16
VNP
p4785
sbatp4786
Rp4787
(dp4788
g16
VPP
p4789
sbatp4790
Rp4791
(dp4792
g16
VVP
p4793
sbatp4794
Rp4795
(dp4796
g16
VVP
p4797
sbatp4798
Rp4799
(dp4800
g16
g143
sbatp4801
Rp4802
(dp4803
g16
VROOT
p4804
sbag5
(g6
g7
(lp4805
g5
(g6
g7
(lp4806
g5
(g6
g7
(lp4807
g5
(g6
g7
(lp4808
g5
(g6
g7
(lp4809
VThe
p4810
atp4811
Rp4812
(dp4813
g16
VDT
p4814
sbag5
(g6
g7
(lp4815
Vshared
p4816
atp4817
Rp4818
(dp4819
g16
VVBN
p4820
sbag5
(g6
g7
(lp4821
Vfeature
p4822
atp4823
Rp4824
(dp4825
g16
VNN
p4826
sbag5
(g6
g7
(lp4827
Vrepresentation
p4828
atp4829
Rp4830
(dp4831
g16
VNN
p4832
sbatp4833
Rp4834
(dp4835
g16
VNP
p4836
sbag5
(g6
g7
(lp4837
g5
(g6
g7
(lp4838
Vfor
p4839
atp4840
Rp4841
(dp4842
g16
VIN
p4843
sbag5
(g6
g7
(lp4844
g5
(g6
g7
(lp4845
Vdirect
p4846
atp4847
Rp4848
(dp4849
g16
VJJ
p4850
sbag5
(g6
g7
(lp4851
Vtransfer
p4852
atp4853
Rp4854
(dp4855
g16
VNN
p4856
sbatp4857
Rp4858
(dp4859
g16
VNP
p4860
sbatp4861
Rp4862
(dp4863
g16
VPP
p4864
sbatp4865
Rp4866
(dp4867
g16
VNP
p4868
sbag5
(g6
g7
(lp4869
g5
(g6
g7
(lp4870
Vis
p4871
atp4872
Rp4873
(dp4874
g16
VVBZ
p4875
sbag5
(g6
g7
(lp4876
g5
(g6
g7
(lp4877
Vderived
p4878
atp4879
Rp4880
(dp4881
g16
VVBN
p4882
sbag5
(g6
g7
(lp4883
g5
(g6
g7
(lp4884
Vfrom
p4885
atp4886
Rp4887
(dp4888
g16
VIN
p4889
sbag5
(g6
g7
(lp4890
g5
(g6
g7
(lp4891
g5
(g6
g7
(lp4892
g3608
atp4893
Rp4894
(dp4895
g16
VNNP
p4896
sbag5
(g6
g7
(lp4897
g3614
atp4898
Rp4899
(dp4900
g16
VPOS
p4901
sbatp4902
Rp4903
(dp4904
g16
VNP
p4905
sbag5
(g6
g7
(lp4906
g5
(g6
g7
(lp4907
g5
(g6
g7
(lp4908
V\u005c
p4909
atp4910
Rp4911
(dp4912
g16
VVBG
p4913
sbag5
(g6
g7
(lp4914
g5
(g6
g7
(lp4915
g5
(g6
g7
(lp4916
Vu03a9
p4917
atp4918
Rp4919
(dp4920
g16
VNNP
p4921
sbag5
(g6
g7
(lp4922
g3614
atp4923
Rp4924
(dp4925
g16
VPOS
p4926
sbatp4927
Rp4928
(dp4929
g16
VNP
p4930
sbag5
(g6
g7
(lp4931
g5
(g6
g7
(lp4932
g3641
atp4933
Rp4934
(dp4935
g16
VJJ
p4936
sbag5
(g6
g7
(lp4937
g5
(g6
g7
(lp4938
Vby
p4939
atp4940
Rp4941
(dp4942
g16
VIN
p4943
sbag5
(g6
g7
(lp4944
g5
(g6
g7
(lp4945
g5
(g6
g7
(lp4946
Vreplacing
p4947
atp4948
Rp4949
(dp4950
g16
VVBG
p4951
sbag5
(g6
g7
(lp4952
g5
(g6
g7
(lp4953
Vlanguage-specific
p4954
atp4955
Rp4956
(dp4957
g16
VJJ
p4958
sbag5
(g6
g7
(lp4959
Vpart-of-speech
p4960
atp4961
Rp4962
(dp4963
g16
VJJ
p4964
sbag5
(g6
g7
(lp4965
Vtags
p4966
atp4967
Rp4968
(dp4969
g16
VNNS
p4970
sbatp4971
Rp4972
(dp4973
g16
VNP
p4974
sbag5
(g6
g7
(lp4975
g5
(g6
g7
(lp4976
Vwith
p4977
atp4978
Rp4979
(dp4980
g16
VIN
p4981
sbag5
(g6
g7
(lp4982
g5
(g6
g7
(lp4983
Vuniversal
p4984
atp4985
Rp4986
(dp4987
g16
VJJ
p4988
sbag5
(g6
g7
(lp4989
Vones
p4990
atp4991
Rp4992
(dp4993
g16
VNNS
p4994
sbatp4995
Rp4996
(dp4997
g16
VNP
p4998
sbatp4999
Rp5000
(dp5001
g16
VPP
p5002
sbatp5003
Rp5004
(dp5005
g16
VVP
p5006
sbatp5007
Rp5008
(dp5009
g16
g143
sbatp5010
Rp5011
(dp5012
g16
VPP
p5013
sbatp5014
Rp5015
(dp5016
g16
VADJP
p5017
sbag5
(g6
g7
(lp5018
V-LSB-
p5019
atp5020
Rp5021
(dp5022
g16
VJJ
p5023
sbag5
(g6
g7
(lp5024
V-RSB-
p5025
atp5026
Rp5027
(dp5028
g16
VNN
p5029
sbatp5030
Rp5031
(dp5032
g16
VNP
p5033
sbatp5034
Rp5035
(dp5036
g16
VVP
p5037
sbag5
(g6
g7
(lp5038
Vand
p5039
atp5040
Rp5041
(dp5042
g16
VCC
p5043
sbag5
(g6
g7
(lp5044
g5
(g6
g7
(lp5045
Vadding
p5046
atp5047
Rp5048
(dp5049
g16
VVBG
p5050
sbag5
(g6
g7
(lp5051
g5
(g6
g7
(lp5052
Vcross-lingual
p5053
atp5054
Rp5055
(dp5056
g16
VJJ
p5057
sbag5
(g6
g7
(lp5058
Vword
p5059
atp5060
Rp5061
(dp5062
g16
VNN
p5063
sbag5
(g6
g7
(lp5064
Vclusters
p5065
atp5066
Rp5067
(dp5068
g16
VNNS
p5069
sbatp5070
Rp5071
(dp5072
g16
VNP
p5073
sbag5
(g6
g7
(lp5074
g5
(g6
g7
(lp5075
g5
(g6
g7
(lp5076
V-LSB-
p5077
atp5078
Rp5079
(dp5080
g16
VNNP
p5081
sbag5
(g6
g7
(lp5082
V-RSB-
p5083
atp5084
Rp5085
(dp5086
g16
VNNP
p5087
sbatp5088
Rp5089
(dp5090
g16
VNP
p5091
sbag5
(g6
g7
(lp5092
g5
(g6
g7
(lp5093
Vto
p5094
atp5095
Rp5096
(dp5097
g16
VTO
p5098
sbag5
(g6
g7
(lp5099
g5
(g6
g7
(lp5100
Vword
p5101
atp5102
Rp5103
(dp5104
g16
VNN
p5105
sbag5
(g6
g7
(lp5106
Vtypes
p5107
atp5108
Rp5109
(dp5110
g16
VNNS
p5111
sbatp5112
Rp5113
(dp5114
g16
VNP
p5115
sbatp5116
Rp5117
(dp5118
g16
VPP
p5119
sbatp5120
Rp5121
(dp5122
g16
VNP
p5123
sbatp5124
Rp5125
(dp5126
g16
VVP
p5127
sbatp5128
Rp5129
(dp5130
g16
VVP
p5131
sbatp5132
Rp5133
(dp5134
g16
g143
sbatp5135
Rp5136
(dp5137
g16
VPP
p5138
sbatp5139
Rp5140
(dp5141
g16
VVP
p5142
sbatp5143
Rp5144
(dp5145
g16
VVP
p5146
sbatp5147
Rp5148
(dp5149
g16
g143
sbatp5150
Rp5151
(dp5152
g16
VROOT
p5153
sbasg148
(icmyPackage
CorE
p5154
(dp5155
g151
(lp5156
(I0
I10
tp5157
a(I1
I34
tp5158
asg155
g5
(g6
g7
(lp5159
g4783
ag4866
ag4873
ag4880
ag4887
ag4903
ag5035
ag5041
ag5048
ag5071
ag5089
ag5096
ag5103
atp5160
Rp5161
(dp5162
g16
g166
sbsbsg156
(icmyPackage
CorE
p5163
(dp5164
g151
(lp5165
(I0
I0
tp5166
a(I0
I8
tp5167
asg155
g5
(g6
g7
(lp5168
g4643
ag4650
ag4657
ag4707
atp5169
Rp5170
(dp5171
g16
g166
sbsbsg167
g1851
sg192
(lp5172
(isxpPackage
sxpSent
p5173
(dp5174
g196
(lp5175
I13
asg198
VBoth baselines are using the same set of features as the proposed model, as described earlier
p5176
sg200
I7
sg182
I52
sg201
I21
sba(isxpPackage
sxpSent
p5177
(dp5178
g196
(lp5179
I13
aI14
asg198
VThe shared feature representation for direct transfer is derived from u'\u005cu03a9' 0 by replacing language-specific part-of-speech tags with universal ones [] and adding cross-lingual word clusters [] to word types
p5180
sg200
I7
sg182
I53
sg201
I22
sbasba(icmyPackage
CELink
p5181
(dp5182
g3
(lp5183
g5151
asg148
(icmyPackage
CorE
p5184
(dp5185
g151
(lp5186
(I0
I17
tp5187
a(I0
I23
tp5188
asg155
g5008
sbsg156
(icmyPackage
CorE
p5189
(dp5190
g151
(lp5191
(I0
I24
tp5192
a(I0
I35
tp5193
asg155
g5
(g6
g7
(lp5194
g5021
ag5027
ag5041
ag5125
atp5195
Rp5196
(dp5197
g16
g166
sbsbsg167
g4608
sg192
(lp5198
g5177
asba(icmyPackage
CELink
p5199
(dp5200
g3
(lp5201
g5
(g6
g7
(lp5202
g5
(g6
g7
(lp5203
g5
(g6
g7
(lp5204
g5
(g6
g7
(lp5205
VThe
p5206
atp5207
Rp5208
(dp5209
g16
VDT
p5210
sbag5
(g6
g7
(lp5211
Vword
p5212
atp5213
Rp5214
(dp5215
g16
VNN
p5216
sbatp5217
Rp5218
(dp5219
g16
VNP
p5220
sbag5
(g6
g7
(lp5221
g5
(g6
g7
(lp5222
Vtypes
p5223
atp5224
Rp5225
(dp5226
g16
VVBZ
p5227
sbag5
(g6
g7
(lp5228
g5
(g6
g7
(lp5229
g5
(g6
g7
(lp5230
g5
(g6
g7
(lp5231
Vthemselves
p5232
atp5233
Rp5234
(dp5235
g16
VPRP
p5236
sbatp5237
Rp5238
(dp5239
g16
VNP
p5240
sbag5
(g6
g7
(lp5241
g5
(g6
g7
(lp5242
Vare
p5243
atp5244
Rp5245
(dp5246
g16
VVBP
p5247
sbag5
(g6
g7
(lp5248
g5
(g6
g7
(lp5249
g5
(g6
g7
(lp5250
Vleft
p5251
atp5252
Rp5253
(dp5254
g16
VVBN
p5255
sbag5
(g6
g7
(lp5256
g5
(g6
g7
(lp5257
Vas
p5258
atp5259
Rp5260
(dp5261
g16
VIN
p5262
sbag5
(g6
g7
(lp5263
g5
(g6
g7
(lp5264
g5
(g6
g7
(lp5265
Vthey
p5266
atp5267
Rp5268
(dp5269
g16
VPRP
p5270
sbatp5271
Rp5272
(dp5273
g16
VNP
p5274
sbag5
(g6
g7
(lp5275
g5
(g6
g7
(lp5276
Vare
p5277
atp5278
Rp5279
(dp5280
g16
VVBP
p5281
sbag5
(g6
g7
(lp5282
g5
(g6
g7
(lp5283
Vin
p5284
atp5285
Rp5286
(dp5287
g16
VIN
p5288
sbag5
(g6
g7
(lp5289
g5
(g6
g7
(lp5290
Vthe
p5291
atp5292
Rp5293
(dp5294
g16
VDT
p5295
sbag5
(g6
g7
(lp5296
Vsource
p5297
atp5298
Rp5299
(dp5300
g16
VNN
p5301
sbag5
(g6
g7
(lp5302
Vlanguage
p5303
atp5304
Rp5305
(dp5306
g16
VNN
p5307
sbatp5308
Rp5309
(dp5310
g16
VNP
p5311
sbatp5312
Rp5313
(dp5314
g16
VPP
p5315
sbatp5316
Rp5317
(dp5318
g16
VVP
p5319
sbatp5320
Rp5321
(dp5322
g16
g143
sbatp5323
Rp5324
(dp5325
g16
VSBAR
p5326
sbatp5327
Rp5328
(dp5329
g16
VVP
p5330
sbag5
(g6
g7
(lp5331
Vand
p5332
atp5333
Rp5334
(dp5335
g16
VCC
p5336
sbag5
(g6
g7
(lp5337
g5
(g6
g7
(lp5338
Vreplaced
p5339
atp5340
Rp5341
(dp5342
g16
VVBN
p5343
sbag5
(g6
g7
(lp5344
g5
(g6
g7
(lp5345
Vwith
p5346
atp5347
Rp5348
(dp5349
g16
VIN
p5350
sbag5
(g6
g7
(lp5351
g5
(g6
g7
(lp5352
Vtheir
p5353
atp5354
Rp5355
(dp5356
g16
VPRP$
p5357
sbag5
(g6
g7
(lp5358
Vgloss
p5359
atp5360
Rp5361
(dp5362
g16
VJJ
p5363
sbag5
(g6
g7
(lp5364
Vtranslations
p5365
atp5366
Rp5367
(dp5368
g16
VNNS
p5369
sbatp5370
Rp5371
(dp5372
g16
VNP
p5373
sbatp5374
Rp5375
(dp5376
g16
VPP
p5377
sbag5
(g6
g7
(lp5378
g5
(g6
g7
(lp5379
Vin
p5380
atp5381
Rp5382
(dp5383
g16
VIN
p5384
sbag5
(g6
g7
(lp5385
g5
(g6
g7
(lp5386
g5
(g6
g7
(lp5387
Vthe
p5388
atp5389
Rp5390
(dp5391
g16
VDT
p5392
sbag5
(g6
g7
(lp5393
Vtarget
p5394
atp5395
Rp5396
(dp5397
g16
VNN
p5398
sbatp5399
Rp5400
(dp5401
g16
VNP
p5402
sbag5
(g6
g7
(lp5403
g5
(g6
g7
(lp5404
g5
(g6
g7
(lp5405
Vone
p5406
atp5407
Rp5408
(dp5409
g16
VCD
p5410
sbag5
(g6
g7
(lp5411
V-LSB-
p5412
atp5413
Rp5414
(dp5415
g16
VNNS
p5416
sbatp5417
Rp5418
(dp5419
g16
VNP
p5420
sbag5
(g6
g7
(lp5421
V-RSB-
p5422
atp5423
Rp5424
(dp5425
g16
VJJ
p5426
sbatp5427
Rp5428
(dp5429
g16
VADJP
p5430
sbatp5431
Rp5432
(dp5433
g16
VNP
p5434
sbatp5435
Rp5436
(dp5437
g16
VPP
p5438
sbatp5439
Rp5440
(dp5441
g16
VVP
p5442
sbatp5443
Rp5444
(dp5445
g16
VVP
p5446
sbatp5447
Rp5448
(dp5449
g16
VVP
p5450
sbatp5451
Rp5452
(dp5453
g16
g143
sbatp5454
Rp5455
(dp5456
g16
VSBAR
p5457
sbatp5458
Rp5459
(dp5460
g16
VVP
p5461
sbatp5462
Rp5463
(dp5464
g16
g143
sbatp5465
Rp5466
(dp5467
g16
VROOT
p5468
sbasg148
(icmyPackage
CorE
p5469
(dp5470
g151
(lp5471
(I0
I7
tp5472
a(I0
I24
tp5473
asg155
g5
(g6
g7
(lp5474
g5321
ag5334
ag5440
atp5475
Rp5476
(dp5477
g16
g166
sbsbsg156
(icmyPackage
CorE
p5478
(dp5479
g151
(lp5480
(I0
I0
tp5481
a(I0
I5
tp5482
asg155
g5
(g6
g7
(lp5483
g5218
ag5225
ag5238
ag5245
ag5253
atp5484
Rp5485
(dp5486
g16
g166
sbsbsg167
g1851
sg192
(lp5487
(isxpPackage
sxpSent
p5488
(dp5489
g196
(lp5490
I15
asg198
VThe word types themselves are left as they are in the source language and replaced with their gloss translations in the target one []
p5491
sg200
I7
sg182
I54
sg201
I22
sbasba(icmyPackage
CELink
p5492
(dp5493
g3
(lp5494
g5
(g6
g7
(lp5495
g5
(g6
g7
(lp5496
g5
(g6
g7
(lp5497
g5
(g6
g7
(lp5498
VIn
p5499
atp5500
Rp5501
(dp5502
g16
VIN
p5503
sbag5
(g6
g7
(lp5504
g5
(g6
g7
(lp5505
VEnglish-Czech
p5506
atp5507
Rp5508
(dp5509
g16
VNNP
p5510
sbag5
(g6
g7
(lp5511
Vand
p5512
atp5513
Rp5514
(dp5515
g16
VCC
p5516
sbag5
(g6
g7
(lp5517
VCzech-English
p5518
atp5519
Rp5520
(dp5521
g16
VNNP
p5522
sbatp5523
Rp5524
(dp5525
g16
VNP
p5526
sbatp5527
Rp5528
(dp5529
g16
VPP
p5530
sbag5
(g6
g7
(lp5531
g5
(g6
g7
(lp5532
Vwe
p5533
atp5534
Rp5535
(dp5536
g16
VPRP
p5537
sbatp5538
Rp5539
(dp5540
g16
VNP
p5541
sbag5
(g6
g7
(lp5542
g5
(g6
g7
(lp5543
g5
(g6
g7
(lp5544
Valso
p5545
atp5546
Rp5547
(dp5548
g16
VRB
p5549
sbatp5550
Rp5551
(dp5552
g16
VADVP
p5553
sbag5
(g6
g7
(lp5554
Vuse
p5555
atp5556
Rp5557
(dp5558
g16
VVBP
p5559
sbag5
(g6
g7
(lp5560
g5
(g6
g7
(lp5561
g5
(g6
g7
(lp5562
Vthe
p5563
atp5564
Rp5565
(dp5566
g16
VDT
p5567
sbag5
(g6
g7
(lp5568
Vdependency
p5569
atp5570
Rp5571
(dp5572
g16
VJJ
p5573
sbag5
(g6
g7
(lp5574
Vrelation
p5575
atp5576
Rp5577
(dp5578
g16
VNN
p5579
sbag5
(g6
g7
(lp5580
Vinformation
p5581
atp5582
Rp5583
(dp5584
g16
VNN
p5585
sbatp5586
Rp5587
(dp5588
g16
VNP
p5589
sbag5
(g6
g7
(lp5590
g256
atp5591
Rp5592
(dp5593
g16
g256
sbag5
(g6
g7
(lp5594
g5
(g6
g7
(lp5595
Vsince
p5596
atp5597
Rp5598
(dp5599
g16
VIN
p5600
sbag5
(g6
g7
(lp5601
g5
(g6
g7
(lp5602
g5
(g6
g7
(lp5603
Vthe
p5604
atp5605
Rp5606
(dp5607
g16
VDT
p5608
sbag5
(g6
g7
(lp5609
Vannotations
p5610
atp5611
Rp5612
(dp5613
g16
VNNS
p5614
sbatp5615
Rp5616
(dp5617
g16
VNP
p5618
sbag5
(g6
g7
(lp5619
g5
(g6
g7
(lp5620
Vare
p5621
atp5622
Rp5623
(dp5624
g16
VVBP
p5625
sbag5
(g6
g7
(lp5626
g5
(g6
g7
(lp5627
Vpartly
p5628
atp5629
Rp5630
(dp5631
g16
VRB
p5632
sbag5
(g6
g7
(lp5633
Vcompatible
p5634
atp5635
Rp5636
(dp5637
g16
VJJ
p5638
sbatp5639
Rp5640
(dp5641
g16
VADJP
p5642
sbatp5643
Rp5644
(dp5645
g16
VVP
p5646
sbatp5647
Rp5648
(dp5649
g16
g143
sbatp5650
Rp5651
(dp5652
g16
VSBAR
p5653
sbatp5654
Rp5655
(dp5656
g16
VNP
p5657
sbatp5658
Rp5659
(dp5660
g16
VVP
p5661
sbatp5662
Rp5663
(dp5664
g16
g143
sbatp5665
Rp5666
(dp5667
g16
VROOT
p5668
sbasg148
(icmyPackage
CorE
p5669
(dp5670
g151
(lp5671
(I0
I13
tp5672
a(I0
I17
tp5673
asg155
g5648
sbsg156
(icmyPackage
CorE
p5674
(dp5675
g151
(lp5676
(I0
I0
tp5677
a(I0
I10
tp5678
asg155
g5
(g6
g7
(lp5679
g5528
ag5539
ag5551
ag5557
ag5587
atp5680
Rp5681
(dp5682
g16
g166
sbsbsg167
g2260
sg192
(lp5683
(isxpPackage
sxpSent
p5684
(dp5685
g196
(lp5686
I16
asg198
VIn English-Czech and Czech-English we also use the dependency relation information, since the annotations are partly compatible
p5687
sg200
I7
sg182
I55
sg201
I22
sbasba(icmyPackage
CELink
p5688
(dp5689
g3
(lp5690
g5
(g6
g7
(lp5691
g5
(g6
g7
(lp5692
g5
(g6
g7
(lp5693
g5
(g6
g7
(lp5694
VThese
p5695
atp5696
Rp5697
(dp5698
g16
VDT
p5699
sbag5
(g6
g7
(lp5700
Vclassifiers
p5701
atp5702
Rp5703
(dp5704
g16
VNNS
p5705
sbatp5706
Rp5707
(dp5708
g16
VNP
p5709
sbag5
(g6
g7
(lp5710
g5
(g6
g7
(lp5711
Vare
p5712
atp5713
Rp5714
(dp5715
g16
VVBP
p5716
sbag5
(g6
g7
(lp5717
g5
(g6
g7
(lp5718
Vimplemented
p5719
atp5720
Rp5721
(dp5722
g16
VVBN
p5723
sbag5
(g6
g7
(lp5724
g5
(g6
g7
(lp5725
g5
(g6
g7
(lp5726
Vusing
p5727
atp5728
Rp5729
(dp5730
g16
VVBG
p5731
sbag5
(g6
g7
(lp5732
g5
(g6
g7
(lp5733
VPylearn2
p5734
atp5735
Rp5736
(dp5737
g16
VJJ
p5738
sbag5
(g6
g7
(lp5739
V-LSB-
p5740
atp5741
Rp5742
(dp5743
g16
VJJ
p5744
sbag5
(g6
g7
(lp5745
V-RSB-
p5746
atp5747
Rp5748
(dp5749
g16
VNNS
p5750
sbatp5751
Rp5752
(dp5753
g16
VNP
p5754
sbatp5755
Rp5756
(dp5757
g16
VVP
p5758
sbatp5759
Rp5760
(dp5761
g16
g143
sbag5
(g6
g7
(lp5762
g256
atp5763
Rp5764
(dp5765
g16
g256
sbag5
(g6
g7
(lp5766
g5
(g6
g7
(lp5767
Vbased
p5768
atp5769
Rp5770
(dp5771
g16
VVBN
p5772
sbag5
(g6
g7
(lp5773
g5
(g6
g7
(lp5774
Von
p5775
atp5776
Rp5777
(dp5778
g16
VIN
p5779
sbag5
(g6
g7
(lp5780
g5
(g6
g7
(lp5781
VTheano
p5782
atp5783
Rp5784
(dp5785
g16
VNNP
p5786
sbag5
(g6
g7
(lp5787
V-LSB-
p5788
atp5789
Rp5790
(dp5791
g16
VNNP
p5792
sbag5
(g6
g7
(lp5793
V-RSB-
p5794
atp5795
Rp5796
(dp5797
g16
VNNP
p5798
sbatp5799
Rp5800
(dp5801
g16
VNP
p5802
sbatp5803
Rp5804
(dp5805
g16
VPP
p5806
sbatp5807
Rp5808
(dp5809
g16
VPP
p5810
sbatp5811
Rp5812
(dp5813
g16
VVP
p5814
sbatp5815
Rp5816
(dp5817
g16
VVP
p5818
sbatp5819
Rp5820
(dp5821
g16
g143
sbatp5822
Rp5823
(dp5824
g16
VROOT
p5825
sbasg148
(icmyPackage
CorE
p5826
(dp5827
g151
(lp5828
(I0
I11
tp5829
a(I0
I13
tp5830
asg155
g5800
sbsg156
(icmyPackage
CorE
p5831
(dp5832
g151
(lp5833
(I0
I0
tp5834
a(I0
I7
tp5835
asg155
g5
(g6
g7
(lp5836
g5707
ag5714
ag5721
ag5760
atp5837
Rp5838
(dp5839
g16
g166
sbsbsg167
g168
sg192
(lp5840
(isxpPackage
sxpSent
p5841
(dp5842
g196
(lp5843
I17
asg198
VThese classifiers are implemented using Pylearn2 [] , based on Theano []
p5844
sg200
I8
sg182
I62
sg201
I24
sbasba(icmyPackage
CELink
p5845
(dp5846
g3
(lp5847
g5
(g6
g7
(lp5848
g5
(g6
g7
(lp5849
g5
(g6
g7
(lp5850
VIn
p5851
atp5852
Rp5853
(dp5854
g16
VIN
p5855
sbag5
(g6
g7
(lp5856
g5
(g6
g7
(lp5857
g5
(g6
g7
(lp5858
g5
(g6
g7
(lp5859
Vthe
p5860
atp5861
Rp5862
(dp5863
g16
VDT
p5864
sbag5
(g6
g7
(lp5865
Vauthors
p5866
atp5867
Rp5868
(dp5869
g16
VNNS
p5870
sbatp5871
Rp5872
(dp5873
g16
VNP
p5874
sbag5
(g6
g7
(lp5875
g5
(g6
g7
(lp5876
Vconsider
p5877
atp5878
Rp5879
(dp5880
g16
VVBP
p5881
sbag5
(g6
g7
(lp5882
g5
(g6
g7
(lp5883
g5
(g6
g7
(lp5884
Vembeddings
p5885
atp5886
Rp5887
(dp5888
g16
VNNS
p5889
sbatp5890
Rp5891
(dp5892
g16
VNP
p5893
sbag5
(g6
g7
(lp5894
g5
(g6
g7
(lp5895
Vof
p5896
atp5897
Rp5898
(dp5899
g16
VIN
p5900
sbag5
(g6
g7
(lp5901
g5
(g6
g7
(lp5902
g5
(g6
g7
(lp5903
Vup
p5904
atp5905
Rp5906
(dp5907
g16
VIN
p5908
sbag5
(g6
g7
(lp5909
Vto
p5910
atp5911
Rp5912
(dp5913
g16
VTO
p5914
sbag5
(g6
g7
(lp5915
V800
p5916
atp5917
Rp5918
(dp5919
g16
VCD
p5920
sbatp5921
Rp5922
(dp5923
g16
VQP
p5924
sbag5
(g6
g7
(lp5925
Vdimensions
p5926
atp5927
Rp5928
(dp5929
g16
VNNS
p5930
sbatp5931
Rp5932
(dp5933
g16
VNP
p5934
sbatp5935
Rp5936
(dp5937
g16
VPP
p5938
sbatp5939
Rp5940
(dp5941
g16
VNP
p5942
sbatp5943
Rp5944
(dp5945
g16
VVP
p5946
sbatp5947
Rp5948
(dp5949
g16
g143
sbag5
(g6
g7
(lp5950
g256
atp5951
Rp5952
(dp5953
g16
g256
sbag5
(g6
g7
(lp5954
Vbut
p5955
atp5956
Rp5957
(dp5958
g16
VCC
p5959
sbag5
(g6
g7
(lp5960
g5
(g6
g7
(lp5961
g5
(g6
g7
(lp5962
Vwe
p5963
atp5964
Rp5965
(dp5966
g16
VPRP
p5967
sbatp5968
Rp5969
(dp5970
g16
VNP
p5971
sbag5
(g6
g7
(lp5972
g5
(g6
g7
(lp5973
Vwould
p5974
atp5975
Rp5976
(dp5977
g16
VMD
p5978
sbag5
(g6
g7
(lp5979
Vnot
p5980
atp5981
Rp5982
(dp5983
g16
VRB
p5984
sbag5
(g6
g7
(lp5985
g5
(g6
g7
(lp5986
Vexpect
p5987
atp5988
Rp5989
(dp5990
g16
VVB
p5991
sbag5
(g6
g7
(lp5992
g5
(g6
g7
(lp5993
g5
(g6
g7
(lp5994
Vto
p5995
atp5996
Rp5997
(dp5998
g16
VTO
p5999
sbag5
(g6
g7
(lp6000
g5
(g6
g7
(lp6001
Vbenefit
p6002
atp6003
Rp6004
(dp6005
g16
VVB
p6006
sbag5
(g6
g7
(lp6007
g5
(g6
g7
(lp6008
Vas
p6009
atp6010
Rp6011
(dp6012
g16
VRB
p6013
sbag5
(g6
g7
(lp6014
Vmuch
p6015
atp6016
Rp6017
(dp6018
g16
VRB
p6019
sbatp6020
Rp6021
(dp6022
g16
VADVP
p6023
sbag5
(g6
g7
(lp6024
g5
(g6
g7
(lp6025
Vfrom
p6026
atp6027
Rp6028
(dp6029
g16
VIN
p6030
sbag5
(g6
g7
(lp6031
g5
(g6
g7
(lp6032
Vlarger
p6033
atp6034
Rp6035
(dp6036
g16
VJJR
p6037
sbag5
(g6
g7
(lp6038
Vvectors
p6039
atp6040
Rp6041
(dp6042
g16
VNNS
p6043
sbatp6044
Rp6045
(dp6046
g16
VNP
p6047
sbatp6048
Rp6049
(dp6050
g16
VPP
p6051
sbag5
(g6
g7
(lp6052
g5
(g6
g7
(lp6053
Vsince
p6054
atp6055
Rp6056
(dp6057
g16
VIN
p6058
sbag5
(g6
g7
(lp6059
g5
(g6
g7
(lp6060
g5
(g6
g7
(lp6061
Vwe
p6062
atp6063
Rp6064
(dp6065
g16
VPRP
p6066
sbatp6067
Rp6068
(dp6069
g16
VNP
p6070
sbag5
(g6
g7
(lp6071
g5
(g6
g7
(lp6072
Vare
p6073
atp6074
Rp6075
(dp6076
g16
VVBP
p6077
sbag5
(g6
g7
(lp6078
g5
(g6
g7
(lp6079
Vusing
p6080
atp6081
Rp6082
(dp6083
g16
VVBG
p6084
sbag5
(g6
g7
(lp6085
g5
(g6
g7
(lp6086
g31
atp6087
Rp6088
(dp6089
g16
VDT
p6090
sbag5
(g6
g7
(lp6091
g5
(g6
g7
(lp6092
Vmuch
p6093
atp6094
Rp6095
(dp6096
g16
VRB
p6097
sbag5
(g6
g7
(lp6098
Vsmaller
p6099
atp6100
Rp6101
(dp6102
g16
VJJR
p6103
sbatp6104
Rp6105
(dp6106
g16
VADJP
p6107
sbag5
(g6
g7
(lp6108
Vcorpus
p6109
atp6110
Rp6111
(dp6112
g16
VNN
p6113
sbatp6114
Rp6115
(dp6116
g16
VNP
p6117
sbag5
(g6
g7
(lp6118
g5
(g6
g7
(lp6119
g5
(g6
g7
(lp6120
Vto
p6121
atp6122
Rp6123
(dp6124
g16
VTO
p6125
sbag5
(g6
g7
(lp6126
g5
(g6
g7
(lp6127
Vtrain
p6128
atp6129
Rp6130
(dp6131
g16
VVB
p6132
sbag5
(g6
g7
(lp6133
g5
(g6
g7
(lp6134
Vthem
p6135
atp6136
Rp6137
(dp6138
g16
VPRP
p6139
sbatp6140
Rp6141
(dp6142
g16
VNP
p6143
sbatp6144
Rp6145
(dp6146
g16
VVP
p6147
sbatp6148
Rp6149
(dp6150
g16
VVP
p6151
sbatp6152
Rp6153
(dp6154
g16
g143
sbatp6155
Rp6156
(dp6157
g16
VVP
p6158
sbatp6159
Rp6160
(dp6161
g16
VVP
p6162
sbatp6163
Rp6164
(dp6165
g16
g143
sbatp6166
Rp6167
(dp6168
g16
VSBAR
p6169
sbatp6170
Rp6171
(dp6172
g16
VVP
p6173
sbatp6174
Rp6175
(dp6176
g16
VVP
p6177
sbatp6178
Rp6179
(dp6180
g16
g143
sbatp6181
Rp6182
(dp6183
g16
VVP
p6184
sbatp6185
Rp6186
(dp6187
g16
VVP
p6188
sbatp6189
Rp6190
(dp6191
g16
g143
sbatp6192
Rp6193
(dp6194
g16
g143
sbatp6195
Rp6196
(dp6197
g16
VSBAR
p6198
sbatp6199
Rp6200
(dp6201
g16
VROOT
p6202
sbasg148
(icmyPackage
CorE
p6203
(dp6204
g151
(lp6205
(I0
I24
tp6206
a(I0
I33
tp6207
asg155
g6164
sbsg156
(icmyPackage
CorE
p6208
(dp6209
g151
(lp6210
(I0
I0
tp6211
a(I0
I22
tp6212
asg155
g5
(g6
g7
(lp6213
g5853
ag5948
ag5952
ag5957
ag5969
ag5976
ag5982
ag5989
ag5997
ag6004
ag6021
ag6049
atp6214
Rp6215
(dp6216
g16
g166
sbsbsg167
g2260
sg192
(lp6217
(isxpPackage
sxpSent
p6218
(dp6219
g196
(lp6220
I18
asg198
VIn the authors consider embeddings of up to 800 dimensions, but we would not expect to benefit as much from larger vectors since we are using a much smaller corpus to train them
p6221
sg200
I8
sg182
I66
sg201
I25
sbasba(icmyPackage
CELink
p6222
(dp6223
g3
(lp6224
g5
(g6
g7
(lp6225
g5
(g6
g7
(lp6226
g5
(g6
g7
(lp6227
g5
(g6
g7
(lp6228
VWe
p6229
atp6230
Rp6231
(dp6232
g16
VPRP
p6233
sbatp6234
Rp6235
(dp6236
g16
VNP
p6237
sbag5
(g6
g7
(lp6238
g5
(g6
g7
(lp6239
Vdid
p6240
atp6241
Rp6242
(dp6243
g16
VVBD
p6244
sbag5
(g6
g7
(lp6245
Vnot
p6246
atp6247
Rp6248
(dp6249
g16
VRB
p6250
sbag5
(g6
g7
(lp6251
g5
(g6
g7
(lp6252
Vtune
p6253
atp6254
Rp6255
(dp6256
g16
VVB
p6257
sbag5
(g6
g7
(lp6258
g5
(g6
g7
(lp6259
g5
(g6
g7
(lp6260
Vthe
p6261
atp6262
Rp6263
(dp6264
g16
VDT
p6265
sbag5
(g6
g7
(lp6266
Vsize
p6267
atp6268
Rp6269
(dp6270
g16
VNN
p6271
sbatp6272
Rp6273
(dp6274
g16
VNP
p6275
sbag5
(g6
g7
(lp6276
g5
(g6
g7
(lp6277
Vof
p6278
atp6279
Rp6280
(dp6281
g16
VIN
p6282
sbag5
(g6
g7
(lp6283
g5
(g6
g7
(lp6284
Vthe
p6285
atp6286
Rp6287
(dp6288
g16
VDT
p6289
sbag5
(g6
g7
(lp6290
Vword
p6291
atp6292
Rp6293
(dp6294
g16
VNN
p6295
sbag5
(g6
g7
(lp6296
Vrepresentation
p6297
atp6298
Rp6299
(dp6300
g16
VNN
p6301
sbatp6302
Rp6303
(dp6304
g16
VNP
p6305
sbatp6306
Rp6307
(dp6308
g16
VPP
p6309
sbatp6310
Rp6311
(dp6312
g16
VNP
p6313
sbag5
(g6
g7
(lp6314
g5
(g6
g7
(lp6315
Vto
p6316
atp6317
Rp6318
(dp6319
g16
VTO
p6320
sbag5
(g6
g7
(lp6321
g5
(g6
g7
(lp6322
Vour
p6323
atp6324
Rp6325
(dp6326
g16
VPRP$
p6327
sbag5
(g6
g7
(lp6328
Vtask
p6329
atp6330
Rp6331
(dp6332
g16
VNN
p6333
sbatp6334
Rp6335
(dp6336
g16
VNP
p6337
sbatp6338
Rp6339
(dp6340
g16
VPP
p6341
sbag5
(g6
g7
(lp6342
g256
atp6343
Rp6344
(dp6345
g16
g256
sbag5
(g6
g7
(lp6346
g5
(g6
g7
(lp6347
Vas
p6348
atp6349
Rp6350
(dp6351
g16
VIN
p6352
sbag5
(g6
g7
(lp6353
g5
(g6
g7
(lp6354
g5
(g6
g7
(lp6355
g5
(g6
g7
(lp6356
Vthis
p6357
atp6358
Rp6359
(dp6360
g16
VDT
p6361
sbatp6362
Rp6363
(dp6364
g16
VNP
p6365
sbag5
(g6
g7
(lp6366
g5
(g6
g7
(lp6367
Vwould
p6368
atp6369
Rp6370
(dp6371
g16
VMD
p6372
sbag5
(g6
g7
(lp6373
Vnot
p6374
atp6375
Rp6376
(dp6377
g16
VRB
p6378
sbag5
(g6
g7
(lp6379
g5
(g6
g7
(lp6380
Vbe
p6381
atp6382
Rp6383
(dp6384
g16
VVB
p6385
sbag5
(g6
g7
(lp6386
g5
(g6
g7
(lp6387
Vappropriate
p6388
atp6389
Rp6390
(dp6391
g16
VJJ
p6392
sbag5
(g6
g7
(lp6393
g5
(g6
g7
(lp6394
Vin
p6395
atp6396
Rp6397
(dp6398
g16
VIN
p6399
sbag5
(g6
g7
(lp6400
g5
(g6
g7
(lp6401
g31
atp6402
Rp6403
(dp6404
g16
VDT
p6405
sbag5
(g6
g7
(lp6406
Vcross-lingual
p6407
atp6408
Rp6409
(dp6410
g16
VJJ
p6411
sbag5
(g6
g7
(lp6412
Vtransfer
p6413
atp6414
Rp6415
(dp6416
g16
VNN
p6417
sbag5
(g6
g7
(lp6418
Vsetup
p6419
atp6420
Rp6421
(dp6422
g16
VNN
p6423
sbatp6424
Rp6425
(dp6426
g16
VNP
p6427
sbatp6428
Rp6429
(dp6430
g16
VPP
p6431
sbatp6432
Rp6433
(dp6434
g16
VADJP
p6435
sbatp6436
Rp6437
(dp6438
g16
VVP
p6439
sbatp6440
Rp6441
(dp6442
g16
VVP
p6443
sbatp6444
Rp6445
(dp6446
g16
g143
sbag5
(g6
g7
(lp6447
g256
atp6448
Rp6449
(dp6450
g16
g256
sbag5
(g6
g7
(lp6451
Vbut
p6452
atp6453
Rp6454
(dp6455
g16
VCC
p6456
sbag5
(g6
g7
(lp6457
g5
(g6
g7
(lp6458
g5
(g6
g7
(lp6459
Vwe
p6460
atp6461
Rp6462
(dp6463
g16
VPRP
p6464
sbatp6465
Rp6466
(dp6467
g16
VNP
p6468
sbag5
(g6
g7
(lp6469
g5
(g6
g7
(lp6470
Vobserve
p6471
atp6472
Rp6473
(dp6474
g16
VVBP
p6475
sbag5
(g6
g7
(lp6476
g5
(g6
g7
(lp6477
Vthat
p6478
atp6479
Rp6480
(dp6481
g16
VIN
p6482
sbag5
(g6
g7
(lp6483
g5
(g6
g7
(lp6484
g5
(g6
g7
(lp6485
Vthe
p6486
atp6487
Rp6488
(dp6489
g16
VDT
p6490
sbag5
(g6
g7
(lp6491
Vclassifier
p6492
atp6493
Rp6494
(dp6495
g16
VNN
p6496
sbatp6497
Rp6498
(dp6499
g16
VNP
p6500
sbag5
(g6
g7
(lp6501
g5
(g6
g7
(lp6502
Vis
p6503
atp6504
Rp6505
(dp6506
g16
VVBZ
p6507
sbag5
(g6
g7
(lp6508
g5
(g6
g7
(lp6509
g5
(g6
g7
(lp6510
Vrelatively
p6511
atp6512
Rp6513
(dp6514
g16
VRB
p6515
sbag5
(g6
g7
(lp6516
Vrobust
p6517
atp6518
Rp6519
(dp6520
g16
VJJ
p6521
sbag5
(g6
g7
(lp6522
g5
(g6
g7
(lp6523
Vto
p6524
atp6525
Rp6526
(dp6527
g16
VTO
p6528
sbag5
(g6
g7
(lp6529
g5
(g6
g7
(lp6530
g5
(g6
g7
(lp6531
Vtheir
p6532
atp6533
Rp6534
(dp6535
g16
VPRP$
p6536
sbag5
(g6
g7
(lp6537
Vdimension
p6538
atp6539
Rp6540
(dp6541
g16
VNN
p6542
sbatp6543
Rp6544
(dp6545
g16
VNP
p6546
sbag5
(g6
g7
(lp6547
g5
(g6
g7
(lp6548
g5
(g6
g7
(lp6549
Vwhen
p6550
atp6551
Rp6552
(dp6553
g16
VWRB
p6554
sbatp6555
Rp6556
(dp6557
g16
VWHADVP
p6558
sbag5
(g6
g7
(lp6559
g5
(g6
g7
(lp6560
g5
(g6
g7
(lp6561
g5
(g6
g7
(lp6562
Vevaluated
p6563
atp6564
Rp6565
(dp6566
g16
VVBN
p6567
sbag5
(g6
g7
(lp6568
g5
(g6
g7
(lp6569
Von
p6570
atp6571
Rp6572
(dp6573
g16
VIN
p6574
sbag5
(g6
g7
(lp6575
g5
(g6
g7
(lp6576
g5
(g6
g7
(lp6577
Vsource
p6578
atp6579
Rp6580
(dp6581
g16
VNN
p6582
sbag5
(g6
g7
(lp6583
Vlanguage
p6584
atp6585
Rp6586
(dp6587
g16
VNN
p6588
sbatp6589
Rp6590
(dp6591
g16
VNP
p6592
sbag5
(g6
g7
(lp6593
g5
(g6
g7
(lp6594
g3608
atp6595
Rp6596
(dp6597
g16
VVBN
p6598
sbag5
(g6
g7
(lp6599
g3614
atp6600
Rp6601
(dp6602
g16
V''
p6603
sbag5
(g6
g7
(lp6604
g5
(g6
g7
(lp6605
V\u005c
p6606
atp6607
Rp6608
(dp6609
g16
VJJ
p6610
sbag5
(g6
g7
(lp6611
Vu2013
p6612
atp6613
Rp6614
(dp6615
g16
VNNS
p6616
sbatp6617
Rp6618
(dp6619
g16
VNP
p6620
sbag5
(g6
g7
(lp6621
g3614
atp6622
Rp6623
(dp6624
g16
V''
p6625
sbag5
(g6
g7
(lp6626
g5
(g6
g7
(lp6627
Vin
p6628
atp6629
Rp6630
(dp6631
g16
VIN
p6632
sbag5
(g6
g7
(lp6633
g5
(g6
g7
(lp6634
Vour
p6635
atp6636
Rp6637
(dp6638
g16
VPRP$
p6639
sbag5
(g6
g7
(lp6640
Vexperiments
p6641
atp6642
Rp6643
(dp6644
g16
VNNS
p6645
sbatp6646
Rp6647
(dp6648
g16
VNP
p6649
sbatp6650
Rp6651
(dp6652
g16
VPP
p6653
sbag5
(g6
g7
(lp6654
g5
(g6
g7
(lp6655
g5
(g6
g7
(lp6656
Vthe
p6657
atp6658
Rp6659
(dp6660
g16
VDT
p6661
sbag5
(g6
g7
(lp6662
Vperformance
p6663
atp6664
Rp6665
(dp6666
g16
VNN
p6667
sbatp6668
Rp6669
(dp6670
g16
VNP
p6671
sbag5
(g6
g7
(lp6672
g5
(g6
g7
(lp6673
Vof
p6674
atp6675
Rp6676
(dp6677
g16
VIN
p6678
sbag5
(g6
g7
(lp6679
g5
(g6
g7
(lp6680
Vthe
p6681
atp6682
Rp6683
(dp6684
g16
VDT
p6685
sbag5
(g6
g7
(lp6686
Vmonolingual
p6687
atp6688
Rp6689
(dp6690
g16
VJJ
p6691
sbag5
(g6
g7
(lp6692
Vclassifier
p6693
atp6694
Rp6695
(dp6696
g16
VNN
p6697
sbatp6698
Rp6699
(dp6700
g16
VNP
p6701
sbatp6702
Rp6703
(dp6704
g16
VPP
p6705
sbatp6706
Rp6707
(dp6708
g16
VNP
p6709
sbatp6710
Rp6711
(dp6712
g16
VVP
p6713
sbatp6714
Rp6715
(dp6716
g16
VNP
p6717
sbatp6718
Rp6719
(dp6720
g16
VPP
p6721
sbatp6722
Rp6723
(dp6724
g16
VVP
p6725
sbatp6726
Rp6727
(dp6728
g16
g143
sbag5
(g6
g7
(lp6729
g5
(g6
g7
(lp6730
g5
(g6
g7
(lp6731
Vdoes
p6732
atp6733
Rp6734
(dp6735
g16
VVBZ
p6736
sbag5
(g6
g7
(lp6737
Vnot
p6738
atp6739
Rp6740
(dp6741
g16
VRB
p6742
sbag5
(g6
g7
(lp6743
g5
(g6
g7
(lp6744
Vimprove
p6745
atp6746
Rp6747
(dp6748
g16
VVB
p6749
sbag5
(g6
g7
(lp6750
g5
(g6
g7
(lp6751
Vsignificantly
p6752
atp6753
Rp6754
(dp6755
g16
VRB
p6756
sbatp6757
Rp6758
(dp6759
g16
VADVP
p6760
sbag5
(g6
g7
(lp6761
g5
(g6
g7
(lp6762
Vif
p6763
atp6764
Rp6765
(dp6766
g16
VIN
p6767
sbag5
(g6
g7
(lp6768
g5
(g6
g7
(lp6769
g5
(g6
g7
(lp6770
Vthe
p6771
atp6772
Rp6773
(dp6774
g16
VDT
p6775
sbag5
(g6
g7
(lp6776
Vdimension
p6777
atp6778
Rp6779
(dp6780
g16
VNN
p6781
sbatp6782
Rp6783
(dp6784
g16
VNP
p6785
sbag5
(g6
g7
(lp6786
g5
(g6
g7
(lp6787
Vis
p6788
atp6789
Rp6790
(dp6791
g16
VVBZ
p6792
sbag5
(g6
g7
(lp6793
g5
(g6
g7
(lp6794
Vincreased
p6795
atp6796
Rp6797
(dp6798
g16
VVBN
p6799
sbag5
(g6
g7
(lp6800
g5
(g6
g7
(lp6801
Vpast
p6802
atp6803
Rp6804
(dp6805
g16
VIN
p6806
sbag5
(g6
g7
(lp6807
g5
(g6
g7
(lp6808
V300
p6809
atp6810
Rp6811
(dp6812
g16
VCD
p6813
sbatp6814
Rp6815
(dp6816
g16
VNP
p6817
sbatp6818
Rp6819
(dp6820
g16
VPP
p6821
sbatp6822
Rp6823
(dp6824
g16
VVP
p6825
sbatp6826
Rp6827
(dp6828
g16
VVP
p6829
sbatp6830
Rp6831
(dp6832
g16
g143
sbatp6833
Rp6834
(dp6835
g16
VSBAR
p6836
sbatp6837
Rp6838
(dp6839
g16
VVP
p6840
sbatp6841
Rp6842
(dp6843
g16
VVP
p6844
sbag5
(g6
g7
(lp6845
Vand
p6846
atp6847
Rp6848
(dp6849
g16
VCC
p6850
sbag5
(g6
g7
(lp6851
g5
(g6
g7
(lp6852
Vdecreases
p6853
atp6854
Rp6855
(dp6856
g16
VVBZ
p6857
sbag5
(g6
g7
(lp6858
g5
(g6
g7
(lp6859
Vonly
p6860
atp6861
Rp6862
(dp6863
g16
VRB
p6864
sbatp6865
Rp6866
(dp6867
g16
VADVP
p6868
sbag5
(g6
g7
(lp6869
g5
(g6
g7
(lp6870
Vby
p6871
atp6872
Rp6873
(dp6874
g16
VIN
p6875
sbag5
(g6
g7
(lp6876
g5
(g6
g7
(lp6877
g31
atp6878
Rp6879
(dp6880
g16
VDT
p6881
sbag5
(g6
g7
(lp6882
Vsmall
p6883
atp6884
Rp6885
(dp6886
g16
VJJ
p6887
sbag5
(g6
g7
(lp6888
Vmargin
p6889
atp6890
Rp6891
(dp6892
g16
VNN
p6893
sbatp6894
Rp6895
(dp6896
g16
VNP
p6897
sbatp6898
Rp6899
(dp6900
g16
VPP
p6901
sbatp6902
Rp6903
(dp6904
g16
VVP
p6905
sbatp6906
Rp6907
(dp6908
g16
VVP
p6909
sbatp6910
Rp6911
(dp6912
g16
g143
sbatp6913
Rp6914
(dp6915
g16
VSBAR
p6916
sbatp6917
Rp6918
(dp6919
g16
VNP
p6920
sbatp6921
Rp6922
(dp6923
g16
VPP
p6924
sbatp6925
Rp6926
(dp6927
g16
VADJP
p6928
sbag5
(g6
g7
(lp6929
g5
(g6
g7
(lp6930
V-LRB-
p6931
atp6932
Rp6933
(dp6934
g16
V-LRB-
p6935
sbag5
(g6
g7
(lp6936
g5
(g6
g7
(lp6937
g5
(g6
g7
(lp6938
Vless
p6939
atp6940
Rp6941
(dp6942
g16
VJJR
p6943
sbag5
(g6
g7
(lp6944
Vthan
p6945
atp6946
Rp6947
(dp6948
g16
VIN
p6949
sbag5
(g6
g7
(lp6950
Vone
p6951
atp6952
Rp6953
(dp6954
g16
VCD
p6955
sbatp6956
Rp6957
(dp6958
g16
VQP
p6959
sbag5
(g6
g7
(lp6960
Vabsolute
p6961
atp6962
Rp6963
(dp6964
g16
VNN
p6965
sbag5
(g6
g7
(lp6966
Vpoint
p6967
atp6968
Rp6969
(dp6970
g16
VNN
p6971
sbatp6972
Rp6973
(dp6974
g16
VNP
p6975
sbag5
(g6
g7
(lp6976
V-RRB-
p6977
atp6978
Rp6979
(dp6980
g16
V-RRB-
p6981
sbatp6982
Rp6983
(dp6984
g16
VPRN
p6985
sbag5
(g6
g7
(lp6986
g5
(g6
g7
(lp6987
Vif
p6988
atp6989
Rp6990
(dp6991
g16
VIN
p6992
sbag5
(g6
g7
(lp6993
g5
(g6
g7
(lp6994
g5
(g6
g7
(lp6995
Vit
p6996
atp6997
Rp6998
(dp6999
g16
VPRP
p7000
sbatp7001
Rp7002
(dp7003
g16
VNP
p7004
sbag5
(g6
g7
(lp7005
g5
(g6
g7
(lp7006
Vis
p7007
atp7008
Rp7009
(dp7010
g16
VVBZ
p7011
sbag5
(g6
g7
(lp7012
g5
(g6
g7
(lp7013
Vreduced
p7014
atp7015
Rp7016
(dp7017
g16
VVBN
p7018
sbag5
(g6
g7
(lp7019
g5
(g6
g7
(lp7020
Vto
p7021
atp7022
Rp7023
(dp7024
g16
VTO
p7025
sbag5
(g6
g7
(lp7026
g5
(g6
g7
(lp7027
V100
p7028
atp7029
Rp7030
(dp7031
g16
VCD
p7032
sbatp7033
Rp7034
(dp7035
g16
VNP
p7036
sbatp7037
Rp7038
(dp7039
g16
VPP
p7040
sbatp7041
Rp7042
(dp7043
g16
VVP
p7044
sbatp7045
Rp7046
(dp7047
g16
VVP
p7048
sbatp7049
Rp7050
(dp7051
g16
g143
sbatp7052
Rp7053
(dp7054
g16
VSBAR
p7055
sbatp7056
Rp7057
(dp7058
g16
VADJP
p7059
sbatp7060
Rp7061
(dp7062
g16
VVP
p7063
sbatp7064
Rp7065
(dp7066
g16
g143
sbatp7067
Rp7068
(dp7069
g16
VSBAR
p7070
sbatp7071
Rp7072
(dp7073
g16
VVP
p7074
sbatp7075
Rp7076
(dp7077
g16
g143
sbatp7078
Rp7079
(dp7080
g16
g143
sbatp7081
Rp7082
(dp7083
g16
VSBAR
p7084
sbatp7085
Rp7086
(dp7087
g16
VVP
p7088
sbatp7089
Rp7090
(dp7091
g16
VVP
p7092
sbatp7093
Rp7094
(dp7095
g16
g143
sbatp7096
Rp7097
(dp7098
g16
VROOT
p7099
sbasg148
(icmyPackage
CorE
p7100
(dp7101
g151
(lp7102
(I0
I15
tp7103
a(I0
I26
tp7104
asg155
g5
(g6
g7
(lp7105
g6445
ag6449
ag6454
atp7106
Rp7107
(dp7108
g16
g166
sbsbsg156
(icmyPackage
CorE
p7109
(dp7110
g151
(lp7111
(I0
I0
tp7112
a(I0
I12
tp7113
asg155
g5
(g6
g7
(lp7114
g6235
ag6242
ag6248
ag6255
ag6311
ag6339
atp7115
Rp7116
(dp7117
g16
g166
sbsbsg167
g1851
sg192
(lp7118
(isxpPackage
sxpSent
p7119
(dp7120
g196
(lp7121
I19
asg198
VWe did not tune the size of the word representation to our task, as this would not be appropriate in a cross-lingual transfer setup, but we observe that the classifier is relatively robust to their dimension when evaluated on source language u'\u005cu2013' in our experiments the performance of the monolingual classifier does not improve significantly if the dimension is increased past 300 and decreases only by a small margin (less than one absolute point) if it is reduced to 100
p7122
sg200
I8
sg182
I67
sg201
I25
sbasba(icmyPackage
CELink
p7123
(dp7124
g3
(lp7125
g5
(g6
g7
(lp7126
g5
(g6
g7
(lp7127
g5
(g6
g7
(lp7128
g5
(g6
g7
(lp7129
VIt
p7130
atp7131
Rp7132
(dp7133
g16
VPRP
p7134
sbatp7135
Rp7136
(dp7137
g16
VNP
p7138
sbag5
(g6
g7
(lp7139
g5
(g6
g7
(lp7140
Vshould
p7141
atp7142
Rp7143
(dp7144
g16
VMD
p7145
sbag5
(g6
g7
(lp7146
g5
(g6
g7
(lp7147
Vbe
p7148
atp7149
Rp7150
(dp7151
g16
VVB
p7152
sbag5
(g6
g7
(lp7153
g5
(g6
g7
(lp7154
Vnoted
p7155
atp7156
Rp7157
(dp7158
g16
VVBN
p7159
sbag5
(g6
g7
(lp7160
g256
atp7161
Rp7162
(dp7163
g16
g256
sbag5
(g6
g7
(lp7164
g5
(g6
g7
(lp7165
Vhowever
p7166
atp7167
Rp7168
(dp7169
g16
VRB
p7170
sbatp7171
Rp7172
(dp7173
g16
VADVP
p7174
sbag5
(g6
g7
(lp7175
g256
atp7176
Rp7177
(dp7178
g16
g256
sbag5
(g6
g7
(lp7179
g5
(g6
g7
(lp7180
Vthat
p7181
atp7182
Rp7183
(dp7184
g16
VIN
p7185
sbag5
(g6
g7
(lp7186
g5
(g6
g7
(lp7187
g5
(g6
g7
(lp7188
g5
(g6
g7
(lp7189
Vthe
p7190
atp7191
Rp7192
(dp7193
g16
VDT
p7194
sbag5
(g6
g7
(lp7195
Vdimension
p7196
atp7197
Rp7198
(dp7199
g16
VNN
p7200
sbatp7201
Rp7202
(dp7203
g16
VNP
p7204
sbag5
(g6
g7
(lp7205
g5
(g6
g7
(lp7206
g5
(g6
g7
(lp7207
Vthat
p7208
atp7209
Rp7210
(dp7211
g16
VWDT
p7212
sbatp7213
Rp7214
(dp7215
g16
VWHNP
p7216
sbag5
(g6
g7
(lp7217
g5
(g6
g7
(lp7218
g5
(g6
g7
(lp7219
Vis
p7220
atp7221
Rp7222
(dp7223
g16
VVBZ
p7224
sbag5
(g6
g7
(lp7225
g5
(g6
g7
(lp7226
Voptimal
p7227
atp7228
Rp7229
(dp7230
g16
VJJ
p7231
sbag5
(g6
g7
(lp7232
g5
(g6
g7
(lp7233
Vin
p7234
atp7235
Rp7236
(dp7237
g16
VIN
p7238
sbag5
(g6
g7
(lp7239
g5
(g6
g7
(lp7240
Vthis
p7241
atp7242
Rp7243
(dp7244
g16
VDT
p7245
sbag5
(g6
g7
(lp7246
Vsense
p7247
atp7248
Rp7249
(dp7250
g16
VNN
p7251
sbatp7252
Rp7253
(dp7254
g16
VNP
p7255
sbatp7256
Rp7257
(dp7258
g16
VPP
p7259
sbatp7260
Rp7261
(dp7262
g16
VADJP
p7263
sbatp7264
Rp7265
(dp7266
g16
VVP
p7267
sbatp7268
Rp7269
(dp7270
g16
g143
sbatp7271
Rp7272
(dp7273
g16
VSBAR
p7274
sbatp7275
Rp7276
(dp7277
g16
VNP
p7278
sbag5
(g6
g7
(lp7279
g5
(g6
g7
(lp7280
Vis
p7281
atp7282
Rp7283
(dp7284
g16
VVBZ
p7285
sbag5
(g6
g7
(lp7286
Vnot
p7287
atp7288
Rp7289
(dp7290
g16
VRB
p7291
sbag5
(g6
g7
(lp7292
g5
(g6
g7
(lp7293
Vnecessarily
p7294
atp7295
Rp7296
(dp7297
g16
VRB
p7298
sbatp7299
Rp7300
(dp7301
g16
VADVP
p7302
sbag5
(g6
g7
(lp7303
g5
(g6
g7
(lp7304
g5
(g6
g7
(lp7305
Vthe
p7306
atp7307
Rp7308
(dp7309
g16
VDT
p7310
sbag5
(g6
g7
(lp7311
Vbest
p7312
atp7313
Rp7314
(dp7315
g16
VJJS
p7316
sbag5
(g6
g7
(lp7317
Vchoice
p7318
atp7319
Rp7320
(dp7321
g16
VNN
p7322
sbatp7323
Rp7324
(dp7325
g16
VNP
p7326
sbag5
(g6
g7
(lp7327
g5
(g6
g7
(lp7328
Vfor
p7329
atp7330
Rp7331
(dp7332
g16
VIN
p7333
sbag5
(g6
g7
(lp7334
g5
(g6
g7
(lp7335
VFRP
p7336
atp7337
Rp7338
(dp7339
g16
VNNP
p7340
sbatp7341
Rp7342
(dp7343
g16
VNP
p7344
sbatp7345
Rp7346
(dp7347
g16
VPP
p7348
sbatp7349
Rp7350
(dp7351
g16
VNP
p7352
sbag5
(g6
g7
(lp7353
g256
atp7354
Rp7355
(dp7356
g16
g256
sbag5
(g6
g7
(lp7357
g5
(g6
g7
(lp7358
Vespecially
p7359
atp7360
Rp7361
(dp7362
g16
VRB
p7363
sbag5
(g6
g7
(lp7364
Vif
p7365
atp7366
Rp7367
(dp7368
g16
VIN
p7369
sbag5
(g6
g7
(lp7370
g5
(g6
g7
(lp7371
g5
(g6
g7
(lp7372
g5
(g6
g7
(lp7373
Vthe
p7374
atp7375
Rp7376
(dp7377
g16
VDT
p7378
sbag5
(g6
g7
(lp7379
Vamount
p7380
atp7381
Rp7382
(dp7383
g16
VNN
p7384
sbatp7385
Rp7386
(dp7387
g16
VNP
p7388
sbag5
(g6
g7
(lp7389
g5
(g6
g7
(lp7390
Vof
p7391
atp7392
Rp7393
(dp7394
g16
VIN
p7395
sbag5
(g6
g7
(lp7396
g5
(g6
g7
(lp7397
Vavailable
p7398
atp7399
Rp7400
(dp7401
g16
VJJ
p7402
sbag5
(g6
g7
(lp7403
Vparallel
p7404
atp7405
Rp7406
(dp7407
g16
VJJ
p7408
sbag5
(g6
g7
(lp7409
Vdata
p7410
atp7411
Rp7412
(dp7413
g16
VNNS
p7414
sbatp7415
Rp7416
(dp7417
g16
VNP
p7418
sbatp7419
Rp7420
(dp7421
g16
VPP
p7422
sbatp7423
Rp7424
(dp7425
g16
VNP
p7426
sbag5
(g6
g7
(lp7427
g5
(g6
g7
(lp7428
Vis
p7429
atp7430
Rp7431
(dp7432
g16
VVBZ
p7433
sbag5
(g6
g7
(lp7434
g5
(g6
g7
(lp7435
Vlimited
p7436
atp7437
Rp7438
(dp7439
g16
VJJ
p7440
sbatp7441
Rp7442
(dp7443
g16
VADJP
p7444
sbatp7445
Rp7446
(dp7447
g16
VVP
p7448
sbatp7449
Rp7450
(dp7451
g16
g143
sbatp7452
Rp7453
(dp7454
g16
VSBAR
p7455
sbatp7456
Rp7457
(dp7458
g16
VVP
p7459
sbatp7460
Rp7461
(dp7462
g16
g143
sbatp7463
Rp7464
(dp7465
g16
VSBAR
p7466
sbatp7467
Rp7468
(dp7469
g16
VVP
p7470
sbatp7471
Rp7472
(dp7473
g16
VVP
p7474
sbatp7475
Rp7476
(dp7477
g16
VVP
p7478
sbatp7479
Rp7480
(dp7481
g16
g143
sbatp7482
Rp7483
(dp7484
g16
VROOT
p7485
sbasg148
(icmyPackage
CorE
p7486
(dp7487
g151
(lp7488
(I0
I27
tp7489
a(I0
I34
tp7490
asg155
g7450
sbsg156
(icmyPackage
CorE
p7491
(dp7492
g151
(lp7493
(I0
I0
tp7494
a(I0
I25
tp7495
asg155
g5
(g6
g7
(lp7496
g7136
ag7143
ag7150
ag7157
ag7162
ag7172
ag7177
ag7183
ag7276
ag7283
ag7289
ag7300
ag7350
ag7355
ag7361
atp7497
Rp7498
(dp7499
g16
g166
sbsbsg167
(icmyPackage
pattern
p7500
(dp7501
g170
I0
sg171
I0
sg172
(lp7502
(lp7503
S'if'
p7504
aasg177
(lp7505
I1
aI1
aI1
asg179
(lp7506
S'An effective knowledge flow network enables a research team to be very powerful in generating new knowledge if every node can innovate and output new knowledge to appropriate members.'
p7507
asg182
I14
sg183
(lp7508
(lp7509
S'&R@Complete@'
p7510
aa(lp7511
S'&C@Complete@'
p7512
aasbsg192
(lp7513
(isxpPackage
sxpSent
p7514
(dp7515
g196
(lp7516
I20
asg198
VIt should be noted, however, that the dimension that is optimal in this sense is not necessarily the best choice for FRP , especially if the amount of available parallel data is limited
p7517
sg200
I8
sg182
I68
sg201
I25
sbasba(icmyPackage
CELink
p7518
(dp7519
g3
(lp7520
g5
(g6
g7
(lp7521
g5
(g6
g7
(lp7522
g5
(g6
g7
(lp7523
g5
(g6
g7
(lp7524
VSince
p7525
atp7526
Rp7527
(dp7528
g16
VIN
p7529
sbag5
(g6
g7
(lp7530
g5
(g6
g7
(lp7531
g5
(g6
g7
(lp7532
Vthe
p7533
atp7534
Rp7535
(dp7536
g16
VDT
p7537
sbag5
(g6
g7
(lp7538
Vsize
p7539
atp7540
Rp7541
(dp7542
g16
VNN
p7543
sbatp7544
Rp7545
(dp7546
g16
VNP
p7547
sbag5
(g6
g7
(lp7548
g5
(g6
g7
(lp7549
Vof
p7550
atp7551
Rp7552
(dp7553
g16
VIN
p7554
sbag5
(g6
g7
(lp7555
g5
(g6
g7
(lp7556
g5
(g6
g7
(lp7557
Vthe
p7558
atp7559
Rp7560
(dp7561
g16
VDT
p7562
sbag5
(g6
g7
(lp7563
Vlatter
p7564
atp7565
Rp7566
(dp7567
g16
VJJ
p7568
sbag5
(g6
g7
(lp7569
Vdataset
p7570
atp7571
Rp7572
(dp7573
g16
VNN
p7574
sbatp7575
Rp7576
(dp7577
g16
VNP
p7578
sbag5
(g6
g7
(lp7579
g5
(g6
g7
(lp7580
g5
(g6
g7
(lp7581
g5
(g6
g7
(lp7582
Vis
p7583
atp7584
Rp7585
(dp7586
g16
VVBZ
p7587
sbag5
(g6
g7
(lp7588
g5
(g6
g7
(lp7589
Vrelatively
p7590
atp7591
Rp7592
(dp7593
g16
VRB
p7594
sbag5
(g6
g7
(lp7595
Vsmall
p7596
atp7597
Rp7598
(dp7599
g16
VJJ
p7600
sbatp7601
Rp7602
(dp7603
g16
VADJP
p7604
sbatp7605
Rp7606
(dp7607
g16
VVP
p7608
sbatp7609
Rp7610
(dp7611
g16
g143
sbatp7612
Rp7613
(dp7614
g16
VSBAR
p7615
sbatp7616
Rp7617
(dp7618
g16
VNP
p7619
sbatp7620
Rp7621
(dp7622
g16
VPP
p7623
sbatp7624
Rp7625
(dp7626
g16
VNP
p7627
sbatp7628
Rp7629
(dp7630
g16
VPP
p7631
sbag5
(g6
g7
(lp7632
g5
(g6
g7
(lp7633
g3608
atp7634
Rp7635
(dp7636
g16
VVBP
p7637
sbag5
(g6
g7
(lp7638
g3614
atp7639
Rp7640
(dp7641
g16
V``
p7642
sbag5
(g6
g7
(lp7643
g5
(g6
g7
(lp7644
V\u005c
p7645
atp7646
Rp7647
(dp7648
g16
VJJ
p7649
sbag5
(g6
g7
(lp7650
Vu2013
p7651
atp7652
Rp7653
(dp7654
g16
VNNS
p7655
sbatp7656
Rp7657
(dp7658
g16
VNP
p7659
sbag5
(g6
g7
(lp7660
g3614
atp7661
Rp7662
(dp7663
g16
V''
p7664
sbatp7665
Rp7666
(dp7667
g16
VVP
p7668
sbag5
(g6
g7
(lp7669
g5
(g6
g7
(lp7670
g5
(g6
g7
(lp7671
g5
(g6
g7
(lp7672
Vone
p7673
atp7674
Rp7675
(dp7676
g16
VCD
p7677
sbag5
(g6
g7
(lp7678
Vthousand
p7679
atp7680
Rp7681
(dp7682
g16
VCD
p7683
sbatp7684
Rp7685
(dp7686
g16
VQP
p7687
sbag5
(g6
g7
(lp7688
Vsentences
p7689
atp7690
Rp7691
(dp7692
g16
VNNS
p7693
sbatp7694
Rp7695
(dp7696
g16
VNP
p7697
sbag5
(g6
g7
(lp7698
g5
(g6
g7
(lp7699
g3608
atp7700
Rp7701
(dp7702
g16
VVBG
p7703
sbag5
(g6
g7
(lp7704
g3614
atp7705
Rp7706
(dp7707
g16
V''
p7708
sbag5
(g6
g7
(lp7709
g5
(g6
g7
(lp7710
V\u005c
p7711
atp7712
Rp7713
(dp7714
g16
VJJ
p7715
sbag5
(g6
g7
(lp7716
Vu2013
p7717
atp7718
Rp7719
(dp7720
g16
VNNS
p7721
sbatp7722
Rp7723
(dp7724
g16
VNP
p7725
sbag5
(g6
g7
(lp7726
g3614
atp7727
Rp7728
(dp7729
g16
V''
p7730
sbag5
(g6
g7
(lp7731
g5
(g6
g7
(lp7732
g5
(g6
g7
(lp7733
g5
(g6
g7
(lp7734
Vwe
p7735
atp7736
Rp7737
(dp7738
g16
VPRP
p7739
sbatp7740
Rp7741
(dp7742
g16
VNP
p7743
sbag5
(g6
g7
(lp7744
g5
(g6
g7
(lp7745
g5
(g6
g7
(lp7746
Vreserve
p7747
atp7748
Rp7749
(dp7750
g16
VVBP
p7751
sbag5
(g6
g7
(lp7752
g5
(g6
g7
(lp7753
g5
(g6
g7
(lp7754
Vthe
p7755
atp7756
Rp7757
(dp7758
g16
VDT
p7759
sbag5
(g6
g7
(lp7760
Vwhole
p7761
atp7762
Rp7763
(dp7764
g16
VJJ
p7765
sbag5
(g6
g7
(lp7766
Vdataset
p7767
atp7768
Rp7769
(dp7770
g16
VNN
p7771
sbatp7772
Rp7773
(dp7774
g16
VNP
p7775
sbag5
(g6
g7
(lp7776
g5
(g6
g7
(lp7777
Vfor
p7778
atp7779
Rp7780
(dp7781
g16
VIN
p7782
sbag5
(g6
g7
(lp7783
g5
(g6
g7
(lp7784
Vtesting
p7785
atp7786
Rp7787
(dp7788
g16
VNN
p7789
sbatp7790
Rp7791
(dp7792
g16
VNP
p7793
sbatp7794
Rp7795
(dp7796
g16
VPP
p7797
sbatp7798
Rp7799
(dp7800
g16
VNP
p7801
sbatp7802
Rp7803
(dp7804
g16
VVP
p7805
sbag5
(g6
g7
(lp7806
Vand
p7807
atp7808
Rp7809
(dp7810
g16
VCC
p7811
sbag5
(g6
g7
(lp7812
g5
(g6
g7
(lp7813
Vonly
p7814
atp7815
Rp7816
(dp7817
g16
VRB
p7818
sbatp7819
Rp7820
(dp7821
g16
VADVP
p7822
sbag5
(g6
g7
(lp7823
g5
(g6
g7
(lp7824
Vevaluate
p7825
atp7826
Rp7827
(dp7828
g16
VVB
p7829
sbag5
(g6
g7
(lp7830
g5
(g6
g7
(lp7831
Vtransfer
p7832
atp7833
Rp7834
(dp7835
g16
VNN
p7836
sbatp7837
Rp7838
(dp7839
g16
VNP
p7840
sbag5
(g6
g7
(lp7841
g5
(g6
g7
(lp7842
Vfrom
p7843
atp7844
Rp7845
(dp7846
g16
VIN
p7847
sbag5
(g6
g7
(lp7848
g5
(g6
g7
(lp7849
VEnglish
p7850
atp7851
Rp7852
(dp7853
g16
VNNP
p7854
sbatp7855
Rp7856
(dp7857
g16
VNP
p7858
sbatp7859
Rp7860
(dp7861
g16
VPP
p7862
sbag5
(g6
g7
(lp7863
g5
(g6
g7
(lp7864
Vto
p7865
atp7866
Rp7867
(dp7868
g16
VTO
p7869
sbag5
(g6
g7
(lp7870
g5
(g6
g7
(lp7871
VFrench
p7872
atp7873
Rp7874
(dp7875
g16
VNNP
p7876
sbatp7877
Rp7878
(dp7879
g16
VNP
p7880
sbatp7881
Rp7882
(dp7883
g16
VPP
p7884
sbatp7885
Rp7886
(dp7887
g16
VVP
p7888
sbatp7889
Rp7890
(dp7891
g16
VVP
p7892
sbatp7893
Rp7894
(dp7895
g16
g143
sbag5
(g6
g7
(lp7896
g256
atp7897
Rp7898
(dp7899
g16
g256
sbag5
(g6
g7
(lp7900
Vbut
p7901
atp7902
Rp7903
(dp7904
g16
VCC
p7905
sbag5
(g6
g7
(lp7906
g5
(g6
g7
(lp7907
g5
(g6
g7
(lp7908
Vnot
p7909
atp7910
Rp7911
(dp7912
g16
VRB
p7913
sbag5
(g6
g7
(lp7914
Vthe
p7915
atp7916
Rp7917
(dp7918
g16
VDT
p7919
sbag5
(g6
g7
(lp7920
Vother
p7921
atp7922
Rp7923
(dp7924
g16
VJJ
p7925
sbag5
(g6
g7
(lp7926
Vway
p7927
atp7928
Rp7929
(dp7930
g16
VNN
p7931
sbatp7932
Rp7933
(dp7934
g16
VNP
p7935
sbag5
(g6
g7
(lp7936
g5
(g6
g7
(lp7937
Varound
p7938
atp7939
Rp7940
(dp7941
g16
VRB
p7942
sbatp7943
Rp7944
(dp7945
g16
VADVP
p7946
sbatp7947
Rp7948
(dp7949
g16
g143
sbatp7950
Rp7951
(dp7952
g16
VSBAR
p7953
sbatp7954
Rp7955
(dp7956
g16
VVP
p7957
sbatp7958
Rp7959
(dp7960
g16
VNP
p7961
sbatp7962
Rp7963
(dp7964
g16
VSINV
p7965
sbatp7966
Rp7967
(dp7968
g16
VROOT
p7969
sbasg148
(icmyPackage
CorE
p7970
(dp7971
g151
(lp7972
(I0
I1
tp7973
a(I0
I37
tp7974
asg155
g5
(g6
g7
(lp7975
g7625
ag7666
ag7695
ag7701
ag7706
ag7723
ag7728
ag7894
atp7976
Rp7977
(dp7978
g16
g166
sbsbsg156
(icmyPackage
CorE
p7979
(dp7980
g151
(lp7981
(I0
I39
tp7982
a(I0
I44
tp7983
asg155
g5
(g6
g7
(lp7984
g7903
ag7948
atp7985
Rp7986
(dp7987
g16
g166
sbsbsg167
(icmyPackage
pattern
p7988
(dp7989
g170
I15
sg171
I0
sg172
(lp7990
(lp7991
S'since'
p7992
aa(lp7993
g532
aasg177
(lp7994
I3
aI1
aI1
asg179
(lp7995
S'But, since the herpes virus does not always show its symptoms, prevention is not fool proof.'
p7996
asg182
I78
sg183
(lp7997
(lp7998
a(lp7999
S'&C@NCTime@'
p8000
aa(lp8001
S'&R@NCTime@'
p8002
aasbsg192
(lp8003
(isxpPackage
sxpSent
p8004
(dp8005
g196
(lp8006
I21
asg198
VSince the size of the latter dataset is relatively small u'\u005cu2013' one thousand sentences u'\u005cu2013' we reserve the whole dataset for testing and only evaluate transfer from English to French, but not the other way around
p8007
sg200
I9
sg182
I73
sg201
I26
sbasba(icmyPackage
CELink
p8008
(dp8009
g3
(lp8010
g5
(g6
g7
(lp8011
g5
(g6
g7
(lp8012
g5
(g6
g7
(lp8013
g5
(g6
g7
(lp8014
g5
(g6
g7
(lp8015
VDatasets
p8016
atp8017
Rp8018
(dp8019
g16
VNNS
p8020
sbatp8021
Rp8022
(dp8023
g16
VNP
p8024
sbag5
(g6
g7
(lp8025
g5
(g6
g7
(lp8026
Vfor
p8027
atp8028
Rp8029
(dp8030
g16
VIN
p8031
sbag5
(g6
g7
(lp8032
g5
(g6
g7
(lp8033
Vother
p8034
atp8035
Rp8036
(dp8037
g16
VJJ
p8038
sbag5
(g6
g7
(lp8039
Vlanguages
p8040
atp8041
Rp8042
(dp8043
g16
VNNS
p8044
sbatp8045
Rp8046
(dp8047
g16
VNP
p8048
sbatp8049
Rp8050
(dp8051
g16
VPP
p8052
sbatp8053
Rp8054
(dp8055
g16
VNP
p8056
sbag5
(g6
g7
(lp8057
g5
(g6
g7
(lp8058
Vare
p8059
atp8060
Rp8061
(dp8062
g16
VVBP
p8063
sbag5
(g6
g7
(lp8064
g5
(g6
g7
(lp8065
Vsufficiently
p8066
atp8067
Rp8068
(dp8069
g16
VRB
p8070
sbag5
(g6
g7
(lp8071
Vlarge
p8072
atp8073
Rp8074
(dp8075
g16
VJJ
p8076
sbatp8077
Rp8078
(dp8079
g16
VADJP
p8080
sbag5
(g6
g7
(lp8081
g256
atp8082
Rp8083
(dp8084
g16
g256
sbag5
(g6
g7
(lp8085
g5
(g6
g7
(lp8086
Vso
p8087
atp8088
Rp8089
(dp8090
g16
VIN
p8091
sbag5
(g6
g7
(lp8092
g5
(g6
g7
(lp8093
g5
(g6
g7
(lp8094
Vwe
p8095
atp8096
Rp8097
(dp8098
g16
VPRP
p8099
sbatp8100
Rp8101
(dp8102
g16
VNP
p8103
sbag5
(g6
g7
(lp8104
g5
(g6
g7
(lp8105
g5
(g6
g7
(lp8106
Vtake
p8107
atp8108
Rp8109
(dp8110
g16
VVB
p8111
sbag5
(g6
g7
(lp8112
g5
(g6
g7
(lp8113
g5
(g6
g7
(lp8114
g5
(g6
g7
(lp8115
V30
p8116
atp8117
Rp8118
(dp8119
g16
VCD
p8120
sbag5
(g6
g7
(lp8121
Vthousand
p8122
atp8123
Rp8124
(dp8125
g16
VCD
p8126
sbatp8127
Rp8128
(dp8129
g16
VQP
p8130
sbag5
(g6
g7
(lp8131
Vsamples
p8132
atp8133
Rp8134
(dp8135
g16
VNNS
p8136
sbatp8137
Rp8138
(dp8139
g16
VNP
p8140
sbag5
(g6
g7
(lp8141
g5
(g6
g7
(lp8142
Vfor
p8143
atp8144
Rp8145
(dp8146
g16
VIN
p8147
sbag5
(g6
g7
(lp8148
g5
(g6
g7
(lp8149
Vtesting
p8150
atp8151
Rp8152
(dp8153
g16
VNN
p8154
sbatp8155
Rp8156
(dp8157
g16
VNP
p8158
sbatp8159
Rp8160
(dp8161
g16
VPP
p8162
sbatp8163
Rp8164
(dp8165
g16
VNP
p8166
sbatp8167
Rp8168
(dp8169
g16
VVP
p8170
sbag5
(g6
g7
(lp8171
Vand
p8172
atp8173
Rp8174
(dp8175
g16
VCC
p8176
sbag5
(g6
g7
(lp8177
g5
(g6
g7
(lp8178
Vuse
p8179
atp8180
Rp8181
(dp8182
g16
VVB
p8183
sbag5
(g6
g7
(lp8184
g5
(g6
g7
(lp8185
Vthe
p8186
atp8187
Rp8188
(dp8189
g16
VDT
p8190
sbag5
(g6
g7
(lp8191
Vrest
p8192
atp8193
Rp8194
(dp8195
g16
VNN
p8196
sbatp8197
Rp8198
(dp8199
g16
VNP
p8200
sbag5
(g6
g7
(lp8201
g5
(g6
g7
(lp8202
Vas
p8203
atp8204
Rp8205
(dp8206
g16
VIN
p8207
sbag5
(g6
g7
(lp8208
g5
(g6
g7
(lp8209
Vtraining
p8210
atp8211
Rp8212
(dp8213
g16
VNN
p8214
sbag5
(g6
g7
(lp8215
Vdata
p8216
atp8217
Rp8218
(dp8219
g16
VNNS
p8220
sbatp8221
Rp8222
(dp8223
g16
VNP
p8224
sbatp8225
Rp8226
(dp8227
g16
VPP
p8228
sbatp8229
Rp8230
(dp8231
g16
VVP
p8232
sbatp8233
Rp8234
(dp8235
g16
VVP
p8236
sbatp8237
Rp8238
(dp8239
g16
g143
sbatp8240
Rp8241
(dp8242
g16
VSBAR
p8243
sbatp8244
Rp8245
(dp8246
g16
VVP
p8247
sbatp8248
Rp8249
(dp8250
g16
g143
sbatp8251
Rp8252
(dp8253
g16
VROOT
p8254
sbasg148
(icmyPackage
CorE
p8255
(dp8256
g151
(lp8257
(I0
I0
tp8258
a(I0
I6
tp8259
asg155
g5
(g6
g7
(lp8260
g8054
ag8061
ag8078
atp8261
Rp8262
(dp8263
g16
g166
sbsbsg156
(icmyPackage
CorE
p8264
(dp8265
g151
(lp8266
(I0
I9
tp8267
a(I0
I22
tp8268
asg155
g8238
sbsg167
(icmyPackage
pattern
p8269
(dp8270
g170
I265
sg171
I1
sg172
(lp8271
(lp8272
S'so'
p8273
aasg177
(lp8274
I1
aI1
aI1
asg179
(lp8275
S'It was not long before he saw me looking at him, and so he began to move.'
p8276
asg182
I0
sg183
(lp8277
(lp8278
S'&C'
p8279
aS'(,/;/./--)'
p8280
aS'(&AND)'
p8281
aa(lp8282
S'(-far)'
p8283
aS'(,)'
p8284
aS'&R'
p8285
aasbsg192
(lp8286
(isxpPackage
sxpSent
p8287
(dp8288
g196
(lp8289
I22
asg198
VDatasets for other languages are sufficiently large, so we take 30 thousand samples for testing and use the rest as training data
p8290
sg200
I9
sg182
I74
sg201
I26
sbasba(icmyPackage
CELink
p8291
(dp8292
g3
(lp8293
g5
(g6
g7
(lp8294
g5
(g6
g7
(lp8295
g5
(g6
g7
(lp8296
g5
(g6
g7
(lp8297
VPlease
p8298
atp8299
Rp8300
(dp8301
g16
VVB
p8302
sbag5
(g6
g7
(lp8303
g5
(g6
g7
(lp8304
Vnote
p8305
atp8306
Rp8307
(dp8308
g16
VNN
p8309
sbatp8310
Rp8311
(dp8312
g16
VNP
p8313
sbag5
(g6
g7
(lp8314
g5
(g6
g7
(lp8315
Vthat
p8316
atp8317
Rp8318
(dp8319
g16
VIN
p8320
sbag5
(g6
g7
(lp8321
g5
(g6
g7
(lp8322
g5
(g6
g7
(lp8323
Vwe
p8324
atp8325
Rp8326
(dp8327
g16
VPRP
p8328
sbatp8329
Rp8330
(dp8331
g16
VNP
p8332
sbag5
(g6
g7
(lp8333
g5
(g6
g7
(lp8334
Vreport
p8335
atp8336
Rp8337
(dp8338
g16
VVBP
p8339
sbag5
(g6
g7
(lp8340
g5
(g6
g7
(lp8341
g5
(g6
g7
(lp8342
Vonly
p8343
atp8344
Rp8345
(dp8346
g16
VRB
p8347
sbag5
(g6
g7
(lp8348
g31
atp8349
Rp8350
(dp8351
g16
VDT
p8352
sbag5
(g6
g7
(lp8353
Vsingle
p8354
atp8355
Rp8356
(dp8357
g16
VJJ
p8358
sbag5
(g6
g7
(lp8359
Vvalue
p8360
atp8361
Rp8362
(dp8363
g16
VNN
p8364
sbatp8365
Rp8366
(dp8367
g16
VNP
p8368
sbag5
(g6
g7
(lp8369
g5
(g6
g7
(lp8370
Vfor
p8371
atp8372
Rp8373
(dp8374
g16
VIN
p8375
sbag5
(g6
g7
(lp8376
g5
(g6
g7
(lp8377
Vdirect
p8378
atp8379
Rp8380
(dp8381
g16
VJJ
p8382
sbag5
(g6
g7
(lp8383
Vtransfer
p8384
atp8385
Rp8386
(dp8387
g16
VNN
p8388
sbatp8389
Rp8390
(dp8391
g16
VNP
p8392
sbatp8393
Rp8394
(dp8395
g16
VPP
p8396
sbatp8397
Rp8398
(dp8399
g16
VNP
p8400
sbag5
(g6
g7
(lp8401
g256
atp8402
Rp8403
(dp8404
g16
g256
sbag5
(g6
g7
(lp8405
g5
(g6
g7
(lp8406
Vsince
p8407
atp8408
Rp8409
(dp8410
g16
VIN
p8411
sbag5
(g6
g7
(lp8412
g5
(g6
g7
(lp8413
g5
(g6
g7
(lp8414
Vthis
p8415
atp8416
Rp8417
(dp8418
g16
VDT
p8419
sbag5
(g6
g7
(lp8420
Vapproach
p8421
atp8422
Rp8423
(dp8424
g16
VNN
p8425
sbatp8426
Rp8427
(dp8428
g16
VNP
p8429
sbag5
(g6
g7
(lp8430
g5
(g6
g7
(lp8431
Vdoes
p8432
atp8433
Rp8434
(dp8435
g16
VVBZ
p8436
sbag5
(g6
g7
(lp8437
Vnot
p8438
atp8439
Rp8440
(dp8441
g16
VRB
p8442
sbag5
(g6
g7
(lp8443
g5
(g6
g7
(lp8444
Vexplicitly
p8445
atp8446
Rp8447
(dp8448
g16
VRB
p8449
sbatp8450
Rp8451
(dp8452
g16
VADVP
p8453
sbag5
(g6
g7
(lp8454
g5
(g6
g7
(lp8455
Vrely
p8456
atp8457
Rp8458
(dp8459
g16
VVB
p8460
sbag5
(g6
g7
(lp8461
g5
(g6
g7
(lp8462
Von
p8463
atp8464
Rp8465
(dp8466
g16
VIN
p8467
sbag5
(g6
g7
(lp8468
g5
(g6
g7
(lp8469
Vparallel
p8470
atp8471
Rp8472
(dp8473
g16
VJJ
p8474
sbag5
(g6
g7
(lp8475
Vdata
p8476
atp8477
Rp8478
(dp8479
g16
VNNS
p8480
sbatp8481
Rp8482
(dp8483
g16
VNP
p8484
sbatp8485
Rp8486
(dp8487
g16
VPP
p8488
sbatp8489
Rp8490
(dp8491
g16
VVP
p8492
sbatp8493
Rp8494
(dp8495
g16
VVP
p8496
sbatp8497
Rp8498
(dp8499
g16
g143
sbatp8500
Rp8501
(dp8502
g16
VSBAR
p8503
sbatp8504
Rp8505
(dp8506
g16
VVP
p8507
sbatp8508
Rp8509
(dp8510
g16
g143
sbatp8511
Rp8512
(dp8513
g16
VSBAR
p8514
sbatp8515
Rp8516
(dp8517
g16
VVP
p8518
sbatp8519
Rp8520
(dp8521
g16
g143
sbatp8522
Rp8523
(dp8524
g16
VROOT
p8525
sbasg148
(icmyPackage
CorE
p8526
(dp8527
g151
(lp8528
(I0
I14
tp8529
a(I0
I22
tp8530
asg155
g8498
sbsg156
(icmyPackage
CorE
p8531
(dp8532
g151
(lp8533
(I0
I0
tp8534
a(I0
I11
tp8535
asg155
g5
(g6
g7
(lp8536
g8300
ag8311
ag8318
ag8330
ag8337
ag8398
atp8537
Rp8538
(dp8539
g16
g166
sbsbsg167
g2260
sg192
(lp8540
(isxpPackage
sxpSent
p8541
(dp8542
g196
(lp8543
I23
asg198
VPlease note that we report only a single value for direct transfer, since this approach does not explicitly rely on parallel data
p8544
sg200
I10
sg182
I81
sg201
I30
sbasba(icmyPackage
CELink
p8545
(dp8546
g3
(lp8547
g5
(g6
g7
(lp8548
g5
(g6
g7
(lp8549
g5
(g6
g7
(lp8550
g5
(g6
g7
(lp8551
VApart
p8552
atp8553
Rp8554
(dp8555
g16
VRB
p8556
sbatp8557
Rp8558
(dp8559
g16
VADVP
p8560
sbag5
(g6
g7
(lp8561
Vfrom
p8562
atp8563
Rp8564
(dp8565
g16
VIN
p8566
sbag5
(g6
g7
(lp8567
g5
(g6
g7
(lp8568
g5
(g6
g7
(lp8569
Vthe
p8570
atp8571
Rp8572
(dp8573
g16
VDT
p8574
sbag5
(g6
g7
(lp8575
Vwork
p8576
atp8577
Rp8578
(dp8579
g16
VNN
p8580
sbatp8581
Rp8582
(dp8583
g16
VNP
p8584
sbag5
(g6
g7
(lp8585
g5
(g6
g7
(lp8586
Von
p8587
atp8588
Rp8589
(dp8590
g16
VIN
p8591
sbag5
(g6
g7
(lp8592
g5
(g6
g7
(lp8593
g5
(g6
g7
(lp8594
Vdirect/projected
p8595
atp8596
Rp8597
(dp8598
g16
VJJ
p8599
sbag5
(g6
g7
(lp8600
Vtransfer
p8601
atp8602
Rp8603
(dp8604
g16
VNN
p8605
sbag5
(g6
g7
(lp8606
Vand
p8607
atp8608
Rp8609
(dp8610
g16
VCC
p8611
sbag5
(g6
g7
(lp8612
Vannotation
p8613
atp8614
Rp8615
(dp8616
g16
VNN
p8617
sbag5
(g6
g7
(lp8618
Vprojection
p8619
atp8620
Rp8621
(dp8622
g16
VNN
p8623
sbatp8624
Rp8625
(dp8626
g16
VNP
p8627
sbag5
(g6
g7
(lp8628
g5
(g6
g7
(lp8629
Vmentioned
p8630
atp8631
Rp8632
(dp8633
g16
VVBN
p8634
sbag5
(g6
g7
(lp8635
g5
(g6
g7
(lp8636
Vabove
p8637
atp8638
Rp8639
(dp8640
g16
VIN
p8641
sbag5
(g6
g7
(lp8642
g5
(g6
g7
(lp8643
g256
atp8644
Rp8645
(dp8646
g16
g256
sbag5
(g6
g7
(lp8647
g5
(g6
g7
(lp8648
g5
(g6
g7
(lp8649
Vthe
p8650
atp8651
Rp8652
(dp8653
g16
VDT
p8654
sbag5
(g6
g7
(lp8655
Vproposed
p8656
atp8657
Rp8658
(dp8659
g16
VJJ
p8660
sbag5
(g6
g7
(lp8661
Vmethod
p8662
atp8663
Rp8664
(dp8665
g16
VNN
p8666
sbatp8667
Rp8668
(dp8669
g16
VNP
p8670
sbag5
(g6
g7
(lp8671
g5
(g6
g7
(lp8672
Vcan
p8673
atp8674
Rp8675
(dp8676
g16
VMD
p8677
sbag5
(g6
g7
(lp8678
g5
(g6
g7
(lp8679
Vbe
p8680
atp8681
Rp8682
(dp8683
g16
VVB
p8684
sbag5
(g6
g7
(lp8685
g5
(g6
g7
(lp8686
Vseen
p8687
atp8688
Rp8689
(dp8690
g16
VVBN
p8691
sbag5
(g6
g7
(lp8692
g5
(g6
g7
(lp8693
Vas
p8694
atp8695
Rp8696
(dp8697
g16
VIN
p8698
sbag5
(g6
g7
(lp8699
g5
(g6
g7
(lp8700
g5
(g6
g7
(lp8701
g31
atp8702
Rp8703
(dp8704
g16
VDT
p8705
sbag5
(g6
g7
(lp8706
g5
(g6
g7
(lp8707
Vmore
p8708
atp8709
Rp8710
(dp8711
g16
VRBR
p8712
sbag5
(g6
g7
(lp8713
Vexplicit
p8714
atp8715
Rp8716
(dp8717
g16
VJJ
p8718
sbatp8719
Rp8720
(dp8721
g16
VADJP
p8722
sbag5
(g6
g7
(lp8723
Vkind
p8724
atp8725
Rp8726
(dp8727
g16
VNN
p8728
sbatp8729
Rp8730
(dp8731
g16
VNP
p8732
sbag5
(g6
g7
(lp8733
g5
(g6
g7
(lp8734
Vof
p8735
atp8736
Rp8737
(dp8738
g16
VIN
p8739
sbag5
(g6
g7
(lp8740
g5
(g6
g7
(lp8741
Vdomain
p8742
atp8743
Rp8744
(dp8745
g16
VNN
p8746
sbag5
(g6
g7
(lp8747
Vadaptation
p8748
atp8749
Rp8750
(dp8751
g16
VNN
p8752
sbatp8753
Rp8754
(dp8755
g16
VNP
p8756
sbatp8757
Rp8758
(dp8759
g16
VPP
p8760
sbatp8761
Rp8762
(dp8763
g16
VNP
p8764
sbatp8765
Rp8766
(dp8767
g16
VPP
p8768
sbatp8769
Rp8770
(dp8771
g16
VVP
p8772
sbatp8773
Rp8774
(dp8775
g16
VVP
p8776
sbatp8777
Rp8778
(dp8779
g16
VVP
p8780
sbatp8781
Rp8782
(dp8783
g16
g143
sbag5
(g6
g7
(lp8784
g256
atp8785
Rp8786
(dp8787
g16
g256
sbatp8788
Rp8789
(dp8790
g16
VPRN
p8791
sbag5
(g6
g7
(lp8792
g5
(g6
g7
(lp8793
g5
(g6
g7
(lp8794
g5
(g6
g7
(lp8795
Vsimilar
p8796
atp8797
Rp8798
(dp8799
g16
VJJ
p8800
sbag5
(g6
g7
(lp8801
Vto
p8802
atp8803
Rp8804
(dp8805
g16
VTO
p8806
sbatp8807
Rp8808
(dp8809
g16
VQP
p8810
sbatp8811
Rp8812
(dp8813
g16
VNP
p8814
sbag5
(g6
g7
(lp8815
g5
(g6
g7
(lp8816
Vor
p8817
atp8818
Rp8819
(dp8820
g16
VCC
p8821
sbatp8822
Rp8823
(dp8824
g16
VADVP
p8825
sbatp8826
Rp8827
(dp8828
g16
VNP
p8829
sbatp8830
Rp8831
(dp8832
g16
VPP
p8833
sbatp8834
Rp8835
(dp8836
g16
VVP
p8837
sbatp8838
Rp8839
(dp8840
g16
VNP
p8841
sbatp8842
Rp8843
(dp8844
g16
VPP
p8845
sbatp8846
Rp8847
(dp8848
g16
VNP
p8849
sbatp8850
Rp8851
(dp8852
g16
VPP
p8853
sbatp8854
Rp8855
(dp8856
g16
VROOT
p8857
sbag5
(g6
g7
(lp8858
g5
(g6
g7
(lp8859
g5
(g6
g7
(lp8860
g5
(g6
g7
(lp8861
VIt
p8862
atp8863
Rp8864
(dp8865
g16
VPRP
p8866
sbatp8867
Rp8868
(dp8869
g16
VNP
p8870
sbag5
(g6
g7
(lp8871
g5
(g6
g7
(lp8872
Vis
p8873
atp8874
Rp8875
(dp8876
g16
VVBZ
p8877
sbag5
(g6
g7
(lp8878
g5
(g6
g7
(lp8879
Valso
p8880
atp8881
Rp8882
(dp8883
g16
VRB
p8884
sbatp8885
Rp8886
(dp8887
g16
VADVP
p8888
sbag5
(g6
g7
(lp8889
g5
(g6
g7
(lp8890
g5
(g6
g7
(lp8891
Vsomewhat
p8892
atp8893
Rp8894
(dp8895
g16
VRB
p8896
sbag5
(g6
g7
(lp8897
Vsimilar
p8898
atp8899
Rp8900
(dp8901
g16
VJJ
p8902
sbatp8903
Rp8904
(dp8905
g16
VADJP
p8906
sbag5
(g6
g7
(lp8907
g5
(g6
g7
(lp8908
Vin
p8909
atp8910
Rp8911
(dp8912
g16
VIN
p8913
sbag5
(g6
g7
(lp8914
g5
(g6
g7
(lp8915
Vspirit
p8916
atp8917
Rp8918
(dp8919
g16
VNN
p8920
sbatp8921
Rp8922
(dp8923
g16
VNP
p8924
sbatp8925
Rp8926
(dp8927
g16
VPP
p8928
sbag5
(g6
g7
(lp8929
g5
(g6
g7
(lp8930
Vto
p8931
atp8932
Rp8933
(dp8934
g16
VTO
p8935
sbatp8936
Rp8937
(dp8938
g16
VPP
p8939
sbatp8940
Rp8941
(dp8942
g16
VADJP
p8943
sbag5
(g6
g7
(lp8944
g256
atp8945
Rp8946
(dp8947
g16
g256
sbag5
(g6
g7
(lp8948
g5
(g6
g7
(lp8949
g5
(g6
g7
(lp8950
Vwhere
p8951
atp8952
Rp8953
(dp8954
g16
VWRB
p8955
sbatp8956
Rp8957
(dp8958
g16
VWHADVP
p8959
sbag5
(g6
g7
(lp8960
g5
(g6
g7
(lp8961
g5
(g6
g7
(lp8962
g5
(g6
g7
(lp8963
g31
atp8964
Rp8965
(dp8966
g16
VDT
p8967
sbag5
(g6
g7
(lp8968
Vsmall
p8969
atp8970
Rp8971
(dp8972
g16
VJJ
p8973
sbag5
(g6
g7
(lp8974
Vnumber
p8975
atp8976
Rp8977
(dp8978
g16
VNN
p8979
sbatp8980
Rp8981
(dp8982
g16
VNP
p8983
sbag5
(g6
g7
(lp8984
g5
(g6
g7
(lp8985
Vof
p8986
atp8987
Rp8988
(dp8989
g16
VIN
p8990
sbag5
(g6
g7
(lp8991
g5
(g6
g7
(lp8992
Vword
p8993
atp8994
Rp8995
(dp8996
g16
VNN
p8997
sbag5
(g6
g7
(lp8998
Vtranslation
p8999
atp9000
Rp9001
(dp9002
g16
VNN
p9003
sbag5
(g6
g7
(lp9004
Vpairs
p9005
atp9006
Rp9007
(dp9008
g16
VNNS
p9009
sbatp9010
Rp9011
(dp9012
g16
VNP
p9013
sbatp9014
Rp9015
(dp9016
g16
VPP
p9017
sbatp9018
Rp9019
(dp9020
g16
VNP
p9021
sbag5
(g6
g7
(lp9022
g5
(g6
g7
(lp9023
Vare
p9024
atp9025
Rp9026
(dp9027
g16
VVBP
p9028
sbag5
(g6
g7
(lp9029
g5
(g6
g7
(lp9030
Vused
p9031
atp9032
Rp9033
(dp9034
g16
VVBN
p9035
sbag5
(g6
g7
(lp9036
g5
(g6
g7
(lp9037
g5
(g6
g7
(lp9038
Vto
p9039
atp9040
Rp9041
(dp9042
g16
VTO
p9043
sbag5
(g6
g7
(lp9044
g5
(g6
g7
(lp9045
g5
(g6
g7
(lp9046
Vestimate
p9047
atp9048
Rp9049
(dp9050
g16
VVB
p9051
sbag5
(g6
g7
(lp9052
g5
(g6
g7
(lp9053
g5
(g6
g7
(lp9054
g31
atp9055
Rp9056
(dp9057
g16
VDT
p9058
sbag5
(g6
g7
(lp9059
Vmapping
p9060
atp9061
Rp9062
(dp9063
g16
VNN
p9064
sbatp9065
Rp9066
(dp9067
g16
VNP
p9068
sbag5
(g6
g7
(lp9069
g5
(g6
g7
(lp9070
Vbetween
p9071
atp9072
Rp9073
(dp9074
g16
VIN
p9075
sbag5
(g6
g7
(lp9076
g5
(g6
g7
(lp9077
g5
(g6
g7
(lp9078
Vdistributed
p9079
atp9080
Rp9081
(dp9082
g16
VVBN
p9083
sbag5
(g6
g7
(lp9084
Vrepresentations
p9085
atp9086
Rp9087
(dp9088
g16
VNNS
p9089
sbatp9090
Rp9091
(dp9092
g16
VNP
p9093
sbag5
(g6
g7
(lp9094
g5
(g6
g7
(lp9095
Vof
p9096
atp9097
Rp9098
(dp9099
g16
VIN
p9100
sbag5
(g6
g7
(lp9101
g5
(g6
g7
(lp9102
g5
(g6
g7
(lp9103
Vwords
p9104
atp9105
Rp9106
(dp9107
g16
VNNS
p9108
sbatp9109
Rp9110
(dp9111
g16
VNP
p9112
sbag5
(g6
g7
(lp9113
g5
(g6
g7
(lp9114
Vin
p9115
atp9116
Rp9117
(dp9118
g16
VIN
p9119
sbag5
(g6
g7
(lp9120
g5
(g6
g7
(lp9121
Vtwo
p9122
atp9123
Rp9124
(dp9125
g16
VCD
p9126
sbag5
(g6
g7
(lp9127
Vdifferent
p9128
atp9129
Rp9130
(dp9131
g16
VJJ
p9132
sbag5
(g6
g7
(lp9133
Vlanguages
p9134
atp9135
Rp9136
(dp9137
g16
VNNS
p9138
sbatp9139
Rp9140
(dp9141
g16
VNP
p9142
sbatp9143
Rp9144
(dp9145
g16
VPP
p9146
sbatp9147
Rp9148
(dp9149
g16
VNP
p9150
sbatp9151
Rp9152
(dp9153
g16
VPP
p9154
sbatp9155
Rp9156
(dp9157
g16
VNP
p9158
sbatp9159
Rp9160
(dp9161
g16
VPP
p9162
sbatp9163
Rp9164
(dp9165
g16
VNP
p9166
sbatp9167
Rp9168
(dp9169
g16
VVP
p9170
sbag5
(g6
g7
(lp9171
Vand
p9172
atp9173
Rp9174
(dp9175
g16
VCC
p9176
sbag5
(g6
g7
(lp9177
g5
(g6
g7
(lp9178
Vbuild
p9179
atp9180
Rp9181
(dp9182
g16
VVB
p9183
sbag5
(g6
g7
(lp9184
g5
(g6
g7
(lp9185
g31
atp9186
Rp9187
(dp9188
g16
VDT
p9189
sbag5
(g6
g7
(lp9190
Vword
p9191
atp9192
Rp9193
(dp9194
g16
VNN
p9195
sbag5
(g6
g7
(lp9196
Vtranslation
p9197
atp9198
Rp9199
(dp9200
g16
VNN
p9201
sbag5
(g6
g7
(lp9202
Vmodel
p9203
atp9204
Rp9205
(dp9206
g16
VNN
p9207
sbatp9208
Rp9209
(dp9210
g16
VNP
p9211
sbatp9212
Rp9213
(dp9214
g16
VVP
p9215
sbatp9216
Rp9217
(dp9218
g16
VVP
p9219
sbatp9220
Rp9221
(dp9222
g16
VVP
p9223
sbatp9224
Rp9225
(dp9226
g16
g143
sbatp9227
Rp9228
(dp9229
g16
VVP
p9230
sbatp9231
Rp9232
(dp9233
g16
VVP
p9234
sbatp9235
Rp9236
(dp9237
g16
g143
sbatp9238
Rp9239
(dp9240
g16
VSBAR
p9241
sbatp9242
Rp9243
(dp9244
g16
VVP
p9245
sbatp9246
Rp9247
(dp9248
g16
g143
sbatp9249
Rp9250
(dp9251
g16
VROOT
p9252
sbasg148
(icmyPackage
CorE
p9253
(dp9254
g151
(lp9255
(I0
I20
tp9256
a(I1
I36
tp9257
asg155
g5
(g6
g7
(lp9258
g8762
ag8786
ag8827
ag8868
ag8875
ag8886
ag8941
ag8946
ag8957
ag9019
ag9026
ag9033
ag9041
ag9168
ag9174
ag9181
ag9187
ag9193
ag9199
atp9259
Rp9260
(dp9261
g16
g166
sbsbsg156
(icmyPackage
CorE
p9262
(dp9263
g151
(lp9264
(I0
I0
tp9265
a(I0
I18
tp9266
asg155
g5
(g6
g7
(lp9267
g8558
ag8564
ag8582
ag8589
ag8625
ag8632
ag8639
ag8645
ag8668
ag8675
ag8682
ag8689
atp9268
Rp9269
(dp9270
g16
g166
sbsbsg167
g1851
sg192
(lp9271
(isxpPackage
sxpSent
p9272
(dp9273
g196
(lp9274
I24
asg198
VApart from the work on direct/projected transfer and annotation projection mentioned above, the proposed method can be seen as a more explicit kind of domain adaptation, similar to or
p9275
sg200
I11
sg182
I86
sg201
I33
sba(isxpPackage
sxpSent
p9276
(dp9277
g196
(lp9278
I24
asg198
VIt is also somewhat similar in spirit to , where a small number of word translation pairs are used to estimate a mapping between distributed representations of words in two different languages and build a word translation model
p9279
sg200
I11
sg182
I87
sg201
I34
sbasba(icmyPackage
CELink
p9280
(dp9281
g3
(lp9282
g5
(g6
g7
(lp9283
g5
(g6
g7
(lp9284
g5
(g6
g7
(lp9285
g5
(g6
g7
(lp9286
VSince
p9287
atp9288
Rp9289
(dp9290
g16
VIN
p9291
sbag5
(g6
g7
(lp9292
g5
(g6
g7
(lp9293
g5
(g6
g7
(lp9294
Vwe
p9295
atp9296
Rp9297
(dp9298
g16
VPRP
p9299
sbatp9300
Rp9301
(dp9302
g16
VNP
p9303
sbag5
(g6
g7
(lp9304
g5
(g6
g7
(lp9305
Vare
p9306
atp9307
Rp9308
(dp9309
g16
VVBP
p9310
sbag5
(g6
g7
(lp9311
g5
(g6
g7
(lp9312
Vusing
p9313
atp9314
Rp9315
(dp9316
g16
VVBG
p9317
sbag5
(g6
g7
(lp9318
g5
(g6
g7
(lp9319
g5
(g6
g7
(lp9320
g31
atp9321
Rp9322
(dp9323
g16
VDT
p9324
sbag5
(g6
g7
(lp9325
g5
(g6
g7
(lp9326
Vrelatively
p9327
atp9328
Rp9329
(dp9330
g16
VRB
p9331
sbag5
(g6
g7
(lp9332
Vsmall
p9333
atp9334
Rp9335
(dp9336
g16
VJJ
p9337
sbatp9338
Rp9339
(dp9340
g16
VADJP
p9341
sbag5
(g6
g7
(lp9342
Vset
p9343
atp9344
Rp9345
(dp9346
g16
VNN
p9347
sbatp9348
Rp9349
(dp9350
g16
VNP
p9351
sbag5
(g6
g7
(lp9352
g5
(g6
g7
(lp9353
Vof
p9354
atp9355
Rp9356
(dp9357
g16
VIN
p9358
sbag5
(g6
g7
(lp9359
g5
(g6
g7
(lp9360
Vfeatures
p9361
atp9362
Rp9363
(dp9364
g16
VNNS
p9365
sbatp9366
Rp9367
(dp9368
g16
VNP
p9369
sbatp9370
Rp9371
(dp9372
g16
VPP
p9373
sbatp9374
Rp9375
(dp9376
g16
VNP
p9377
sbag5
(g6
g7
(lp9378
g5
(g6
g7
(lp9379
g5
(g6
g7
(lp9380
Vto
p9381
atp9382
Rp9383
(dp9384
g16
VTO
p9385
sbag5
(g6
g7
(lp9386
g5
(g6
g7
(lp9387
Vstart
p9388
atp9389
Rp9390
(dp9391
g16
VVB
p9392
sbag5
(g6
g7
(lp9393
g5
(g6
g7
(lp9394
Vwith
p9395
atp9396
Rp9397
(dp9398
g16
VIN
p9399
sbatp9400
Rp9401
(dp9402
g16
VPP
p9403
sbatp9404
Rp9405
(dp9406
g16
VVP
p9407
sbatp9408
Rp9409
(dp9410
g16
VVP
p9411
sbatp9412
Rp9413
(dp9414
g16
g143
sbatp9415
Rp9416
(dp9417
g16
VVP
p9418
sbatp9419
Rp9420
(dp9421
g16
VVP
p9422
sbatp9423
Rp9424
(dp9425
g16
g143
sbatp9426
Rp9427
(dp9428
g16
VSBAR
p9429
sbag5
(g6
g7
(lp9430
g256
atp9431
Rp9432
(dp9433
g16
g256
sbag5
(g6
g7
(lp9434
g5
(g6
g7
(lp9435
Vthis
p9436
atp9437
Rp9438
(dp9439
g16
VDT
p9440
sbatp9441
Rp9442
(dp9443
g16
VNP
p9444
sbag5
(g6
g7
(lp9445
g5
(g6
g7
(lp9446
Vdoes
p9447
atp9448
Rp9449
(dp9450
g16
VVBZ
p9451
sbag5
(g6
g7
(lp9452
Vnot
p9453
atp9454
Rp9455
(dp9456
g16
VRB
p9457
sbag5
(g6
g7
(lp9458
g5
(g6
g7
(lp9459
Vpresent
p9460
atp9461
Rp9462
(dp9463
g16
VVB
p9464
sbag5
(g6
g7
(lp9465
g5
(g6
g7
(lp9466
g5
(g6
g7
(lp9467
Vmuch
p9468
atp9469
Rp9470
(dp9471
g16
VRB
p9472
sbatp9473
Rp9474
(dp9475
g16
VNP
p9476
sbag5
(g6
g7
(lp9477
g5
(g6
g7
(lp9478
Vof
p9479
atp9480
Rp9481
(dp9482
g16
VIN
p9483
sbag5
(g6
g7
(lp9484
g5
(g6
g7
(lp9485
g31
atp9486
Rp9487
(dp9488
g16
VDT
p9489
sbag5
(g6
g7
(lp9490
Vproblem
p9491
atp9492
Rp9493
(dp9494
g16
VNN
p9495
sbatp9496
Rp9497
(dp9498
g16
VNP
p9499
sbatp9500
Rp9501
(dp9502
g16
VPP
p9503
sbatp9504
Rp9505
(dp9506
g16
VNP
p9507
sbatp9508
Rp9509
(dp9510
g16
VVP
p9511
sbatp9512
Rp9513
(dp9514
g16
VVP
p9515
sbatp9516
Rp9517
(dp9518
g16
g143
sbatp9519
Rp9520
(dp9521
g16
VROOT
p9522
sbasg148
(icmyPackage
CorE
p9523
(dp9524
g151
(lp9525
(I0
I1
tp9526
a(I0
I12
tp9527
asg155
g9424
sbsg156
(icmyPackage
CorE
p9528
(dp9529
g151
(lp9530
(I0
I14
tp9531
a(I0
I21
tp9532
asg155
g5
(g6
g7
(lp9533
g9442
ag9513
atp9534
Rp9535
(dp9536
g16
g166
sbsbsg167
g7988
sg192
(lp9537
(isxpPackage
sxpSent
p9538
(dp9539
g196
(lp9540
I25
asg198
VSince we are using a relatively small set of features to start with, this does not present much of a problem
p9541
sg200
I13
sg182
I93
sg201
I38
sbasba(icmyPackage
CELink
p9542
(dp9543
g3
(lp9544
g5
(g6
g7
(lp9545
g5
(g6
g7
(lp9546
g5
(g6
g7
(lp9547
g5
(g6
g7
(lp9548
VFor
p9549
atp9550
Rp9551
(dp9552
g16
VIN
p9553
sbag5
(g6
g7
(lp9554
g5
(g6
g7
(lp9555
Vsource
p9556
atp9557
Rp9558
(dp9559
g16
VNN
p9560
sbag5
(g6
g7
(lp9561
Vlanguage
p9562
atp9563
Rp9564
(dp9565
g16
VNN
p9566
sbatp9567
Rp9568
(dp9569
g16
VNP
p9570
sbatp9571
Rp9572
(dp9573
g16
VPP
p9574
sbag5
(g6
g7
(lp9575
g256
atp9576
Rp9577
(dp9578
g16
g256
sbag5
(g6
g7
(lp9579
g5
(g6
g7
(lp9580
Vthis
p9581
atp9582
Rp9583
(dp9584
g16
VDT
p9585
sbatp9586
Rp9587
(dp9588
g16
VNP
p9589
sbag5
(g6
g7
(lp9590
g5
(g6
g7
(lp9591
Vis
p9592
atp9593
Rp9594
(dp9595
g16
VVBZ
p9596
sbag5
(g6
g7
(lp9597
g5
(g6
g7
(lp9598
Vrelatively
p9599
atp9600
Rp9601
(dp9602
g16
VRB
p9603
sbag5
(g6
g7
(lp9604
Vstraightforward
p9605
atp9606
Rp9607
(dp9608
g16
VJJ
p9609
sbatp9610
Rp9611
(dp9612
g16
VADJP
p9613
sbag5
(g6
g7
(lp9614
g256
atp9615
Rp9616
(dp9617
g16
g256
sbag5
(g6
g7
(lp9618
g5
(g6
g7
(lp9619
Vas
p9620
atp9621
Rp9622
(dp9623
g16
VIN
p9624
sbag5
(g6
g7
(lp9625
g5
(g6
g7
(lp9626
g5
(g6
g7
(lp9627
Vthe
p9628
atp9629
Rp9630
(dp9631
g16
VDT
p9632
sbag5
(g6
g7
(lp9633
Vintermediate
p9634
atp9635
Rp9636
(dp9637
g16
VJJ
p9638
sbag5
(g6
g7
(lp9639
Vrepresentation
p9640
atp9641
Rp9642
(dp9643
g16
VNN
p9644
sbatp9645
Rp9646
(dp9647
g16
VNP
p9648
sbag5
(g6
g7
(lp9649
g5
(g6
g7
(lp9650
Vcan
p9651
atp9652
Rp9653
(dp9654
g16
VMD
p9655
sbag5
(g6
g7
(lp9656
g5
(g6
g7
(lp9657
Vbe
p9658
atp9659
Rp9660
(dp9661
g16
VVB
p9662
sbag5
(g6
g7
(lp9663
g5
(g6
g7
(lp9664
Vdirectly
p9665
atp9666
Rp9667
(dp9668
g16
VRB
p9669
sbag5
(g6
g7
(lp9670
Vtuned
p9671
atp9672
Rp9673
(dp9674
g16
VVBN
p9675
sbag5
(g6
g7
(lp9676
g5
(g6
g7
(lp9677
Vfor
p9678
atp9679
Rp9680
(dp9681
g16
VIN
p9682
sbag5
(g6
g7
(lp9683
g5
(g6
g7
(lp9684
g5
(g6
g7
(lp9685
Vthe
p9686
atp9687
Rp9688
(dp9689
g16
VDT
p9690
sbag5
(g6
g7
(lp9691
Vproblem
p9692
atp9693
Rp9694
(dp9695
g16
VNN
p9696
sbatp9697
Rp9698
(dp9699
g16
VNP
p9700
sbag5
(g6
g7
(lp9701
g5
(g6
g7
(lp9702
Vin
p9703
atp9704
Rp9705
(dp9706
g16
VIN
p9707
sbag5
(g6
g7
(lp9708
g5
(g6
g7
(lp9709
g5
(g6
g7
(lp9710
Vquestion
p9711
atp9712
Rp9713
(dp9714
g16
VNN
p9715
sbatp9716
Rp9717
(dp9718
g16
VNP
p9719
sbag5
(g6
g7
(lp9720
g5
(g6
g7
(lp9721
Vusing
p9722
atp9723
Rp9724
(dp9725
g16
VVBG
p9726
sbag5
(g6
g7
(lp9727
g5
(g6
g7
(lp9728
Vlabeled
p9729
atp9730
Rp9731
(dp9732
g16
VJJ
p9733
sbag5
(g6
g7
(lp9734
Vtraining
p9735
atp9736
Rp9737
(dp9738
g16
VNN
p9739
sbag5
(g6
g7
(lp9740
Vdata
p9741
atp9742
Rp9743
(dp9744
g16
VNNS
p9745
sbatp9746
Rp9747
(dp9748
g16
VNP
p9749
sbatp9750
Rp9751
(dp9752
g16
VVP
p9753
sbatp9754
Rp9755
(dp9756
g16
VNP
p9757
sbatp9758
Rp9759
(dp9760
g16
VPP
p9761
sbatp9762
Rp9763
(dp9764
g16
VNP
p9765
sbatp9766
Rp9767
(dp9768
g16
VPP
p9769
sbatp9770
Rp9771
(dp9772
g16
VADJP
p9773
sbatp9774
Rp9775
(dp9776
g16
VVP
p9777
sbatp9778
Rp9779
(dp9780
g16
VVP
p9781
sbatp9782
Rp9783
(dp9784
g16
g143
sbatp9785
Rp9786
(dp9787
g16
VSBAR
p9788
sbatp9789
Rp9790
(dp9791
g16
VVP
p9792
sbatp9793
Rp9794
(dp9795
g16
g143
sbatp9796
Rp9797
(dp9798
g16
VROOT
p9799
sbasg148
(icmyPackage
CorE
p9800
(dp9801
g151
(lp9802
(I0
I10
tp9803
a(I0
I25
tp9804
asg155
g9783
sbsg156
(icmyPackage
CorE
p9805
(dp9806
g151
(lp9807
(I0
I0
tp9808
a(I0
I7
tp9809
asg155
g5
(g6
g7
(lp9810
g9572
ag9577
ag9587
ag9594
ag9611
atp9811
Rp9812
(dp9813
g16
g166
sbsbsg167
g1851
sg192
(lp9814
(isxpPackage
sxpSent
p9815
(dp9816
g196
(lp9817
I26
asg198
VFor source language, this is relatively straightforward, as the intermediate representation can be directly tuned for the problem in question using labeled training data
p9818
sg200
I13
sg182
I95
sg201
I39
sbasba.