(lp0
(icmyPackage
CELink
p1
(dp2
S'PTreelst'
p3
(lp4
ccopy_reg
_reconstructor
p5
(cnltk.tree
Tree
p6
c__builtin__
list
p7
(lp8
g5
(g6
g7
(lp9
g5
(g6
g7
(lp10
g5
(g6
g7
(lp11
VThis
p12
atp13
Rp14
(dp15
S'_label'
p16
VDT
p17
sbag5
(g6
g7
(lp18
Vapproach
p19
atp20
Rp21
(dp22
g16
VNN
p23
sbatp24
Rp25
(dp26
g16
VNP
p27
sbag5
(g6
g7
(lp28
g5
(g6
g7
(lp29
Vis
p30
atp31
Rp32
(dp33
g16
VVBZ
p34
sbag5
(g6
g7
(lp35
g5
(g6
g7
(lp36
Vadvantageous
p37
atp38
Rp39
(dp40
g16
VJJ
p41
sbatp42
Rp43
(dp44
g16
VADJP
p45
sbag5
(g6
g7
(lp46
g5
(g6
g7
(lp47
Vif
p48
atp49
Rp50
(dp51
g16
VIN
p52
sbag5
(g6
g7
(lp53
g5
(g6
g7
(lp54
g5
(g6
g7
(lp55
g5
(g6
g7
(lp56
g5
(g6
g7
(lp57
Vlarge
p58
atp59
Rp60
(dp61
g16
VJJ
p62
sbag5
(g6
g7
(lp63
Vamounts
p64
atp65
Rp66
(dp67
g16
VNNS
p68
sbatp69
Rp70
(dp71
g16
VNP
p72
sbag5
(g6
g7
(lp73
g5
(g6
g7
(lp74
Vof
p75
atp76
Rp77
(dp78
g16
VIN
p79
sbag5
(g6
g7
(lp80
g5
(g6
g7
(lp81
Vin-domain
p82
atp83
Rp84
(dp85
g16
VJJ
p86
sbag5
(g6
g7
(lp87
Vsentence-parallel
p88
atp89
Rp90
(dp91
g16
VJJ
p92
sbag5
(g6
g7
(lp93
Vdata
p94
atp95
Rp96
(dp97
g16
VNNS
p98
sbatp99
Rp100
(dp101
g16
VNP
p102
sbatp103
Rp104
(dp105
g16
VPP
p106
sbatp107
Rp108
(dp109
g16
VNP
p110
sbag5
(g6
g7
(lp111
g5
(g6
g7
(lp112
Vare
p113
atp114
Rp115
(dp116
g16
VVBP
p117
sbag5
(g6
g7
(lp118
g5
(g6
g7
(lp119
Vavailable
p120
atp121
Rp122
(dp123
g16
VJJ
p124
sbag5
(g6
g7
(lp125
g5
(g6
g7
(lp126
g5
(g6
g7
(lp127
Vto
p128
atp129
Rp130
(dp131
g16
VTO
p132
sbag5
(g6
g7
(lp133
g5
(g6
g7
(lp134
Vtrain
p135
atp136
Rp137
(dp138
g16
VVB
p139
sbag5
(g6
g7
(lp140
g5
(g6
g7
(lp141
VSMT
p142
atp143
Rp144
(dp145
g16
VNNP
p146
sbag5
(g6
g7
(lp147
Vsystems
p148
atp149
Rp150
(dp151
g16
VNNS
p152
sbatp153
Rp154
(dp155
g16
VNP
p156
sbatp157
Rp158
(dp159
g16
VVP
p160
sbatp161
Rp162
(dp163
g16
VVP
p164
sbatp165
Rp166
(dp167
g16
VS
p168
sbatp169
Rp170
(dp171
g16
VADJP
p172
sbatp173
Rp174
(dp175
g16
VVP
p176
sbatp177
Rp178
(dp179
g16
g168
sbag5
(g6
g7
(lp180
V,
p181
atp182
Rp183
(dp184
g16
g181
sbag5
(g6
g7
(lp185
Vbut
p186
atp187
Rp188
(dp189
g16
VCC
p190
sbag5
(g6
g7
(lp191
g5
(g6
g7
(lp192
g5
(g6
g7
(lp193
g5
(g6
g7
(lp194
Vrelevance
p195
atp196
Rp197
(dp198
g16
VNN
p199
sbag5
(g6
g7
(lp200
Vrankings
p201
atp202
Rp203
(dp204
g16
VNNS
p205
sbatp206
Rp207
(dp208
g16
VNP
p209
sbag5
(g6
g7
(lp210
g5
(g6
g7
(lp211
Vto
p212
atp213
Rp214
(dp215
g16
VTO
p216
sbag5
(g6
g7
(lp217
g5
(g6
g7
(lp218
Vtrain
p219
atp220
Rp221
(dp222
g16
VNN
p223
sbag5
(g6
g7
(lp224
Vretrieval
p225
atp226
Rp227
(dp228
g16
VNN
p229
sbag5
(g6
g7
(lp230
Vmodels
p231
atp232
Rp233
(dp234
g16
VNNS
p235
sbatp236
Rp237
(dp238
g16
VNP
p239
sbatp240
Rp241
(dp242
g16
VPP
p243
sbatp244
Rp245
(dp246
g16
VNP
p247
sbag5
(g6
g7
(lp248
g5
(g6
g7
(lp249
Vare
p250
atp251
Rp252
(dp253
g16
VVBP
p254
sbag5
(g6
g7
(lp255
Vnot
p256
atp257
Rp258
(dp259
g16
VRB
p260
sbatp261
Rp262
(dp263
g16
VVP
p264
sbatp265
Rp266
(dp267
g16
g168
sbatp268
Rp269
(dp270
g16
g168
sbatp271
Rp272
(dp273
g16
VSBAR
p274
sbatp275
Rp276
(dp277
g16
VVP
p278
sbatp279
Rp280
(dp281
g16
g168
sbatp282
Rp283
(dp284
g16
VROOT
p285
sbasS'cause'
p286
(icmyPackage
CorE
p287
(dp288
S'span'
p289
(lp290
(I0
I5
tp291
a(I0
I16
tp292
asS'PTree'
p293
g178
sbsS'effect'
p294
(icmyPackage
CorE
p295
(dp296
g289
(lp297
(I0
I18
tp298
a(I0
I26
tp299
asg293
g5
(g6
g7
(lp300
g188
ag266
atp301
Rp302
(dp303
g16
S'ROOT'
p304
sbsbsS'pt'
p305
(icmyPackage
pattern
p306
(dp307
S'pfreq'
p308
I0
sS'moresent'
p309
I0
sS'main_token'
p310
(lp311
(lp312
(lp313
S'if'
p314
aS'once'
p315
aaa(lp316
S','
p317
aasS'ptype'
p318
(lp319
I1
aI1
aI1
asS'cases'
p320
(lp321
S'If some light and mobile detection devices can be invented in the future, many new applications can be imagined, for example, people can get some services while thinking.'
p322
asS'id'
p323
I15
sS'constraints'
p324
(lp325
(lp326
a(lp327
S'&C@Complete@'
p328
aa(lp329
S'&R@Complete@'
p330
aasbsS'sInfo'
p331
(lp332
(isxpPackage
sxpSent
p333
(dp334
S'sysCEidlst'
p335
(lp336
I0
asS'sentence_text'
p337
VThis approach is advantageous if large amounts of in-domain sentence-parallel data are available to train SMT systems, but relevance rankings to train retrieval models are not
p338
sS'id_sec'
p339
I2
sg323
I4
sS'id_para'
p340
I1
sbasba(icmyPackage
CELink
p341
(dp342
g3
(lp343
g5
(g6
g7
(lp344
g5
(g6
g7
(lp345
g5
(g6
g7
(lp346
g5
(g6
g7
(lp347
VFor
p348
atp349
Rp350
(dp351
g16
VIN
p352
sbag5
(g6
g7
(lp353
g5
(g6
g7
(lp354
Vexample
p355
atp356
Rp357
(dp358
g16
VNN
p359
sbatp360
Rp361
(dp362
g16
VNP
p363
sbatp364
Rp365
(dp366
g16
VPP
p367
sbag5
(g6
g7
(lp368
g181
atp369
Rp370
(dp371
g16
g181
sbag5
(g6
g7
(lp372
g5
(g6
g7
(lp373
Vin
p374
atp375
Rp376
(dp377
g16
VIN
p378
sbag5
(g6
g7
(lp379
g5
(g6
g7
(lp380
Vpatent
p381
atp382
Rp383
(dp384
g16
VJJ
p385
sbag5
(g6
g7
(lp386
Vprior
p387
atp388
Rp389
(dp390
g16
VJJ
p391
sbag5
(g6
g7
(lp392
Vart
p393
atp394
Rp395
(dp396
g16
VNN
p397
sbag5
(g6
g7
(lp398
Vsearch
p399
atp400
Rp401
(dp402
g16
VNN
p403
sbatp404
Rp405
(dp406
g16
VNP
p407
sbatp408
Rp409
(dp410
g16
VPP
p411
sbag5
(g6
g7
(lp412
g181
atp413
Rp414
(dp415
g16
g181
sbag5
(g6
g7
(lp416
g5
(g6
g7
(lp417
g5
(g6
g7
(lp418
Vpatents
p419
atp420
Rp421
(dp422
g16
VNNS
p423
sbatp424
Rp425
(dp426
g16
VNP
p427
sbag5
(g6
g7
(lp428
g5
(g6
g7
(lp429
Vgranted
p430
atp431
Rp432
(dp433
g16
VVBN
p434
sbag5
(g6
g7
(lp435
g5
(g6
g7
(lp436
Vat
p437
atp438
Rp439
(dp440
g16
VIN
p441
sbag5
(g6
g7
(lp442
g5
(g6
g7
(lp443
Vany
p444
atp445
Rp446
(dp447
g16
VDT
p448
sbag5
(g6
g7
(lp449
Vpatent
p450
atp451
Rp452
(dp453
g16
VNN
p454
sbag5
(g6
g7
(lp455
Voffice
p456
atp457
Rp458
(dp459
g16
VNN
p460
sbatp461
Rp462
(dp463
g16
VNP
p464
sbatp465
Rp466
(dp467
g16
VPP
p468
sbag5
(g6
g7
(lp469
g5
(g6
g7
(lp470
Vworldwide
p471
atp472
Rp473
(dp474
g16
VRB
p475
sbatp476
Rp477
(dp478
g16
VADVP
p479
sbatp480
Rp481
(dp482
g16
VVP
p483
sbatp484
Rp485
(dp486
g16
VNP
p487
sbag5
(g6
g7
(lp488
g5
(g6
g7
(lp489
Vare
p490
atp491
Rp492
(dp493
g16
VVBP
p494
sbag5
(g6
g7
(lp495
g5
(g6
g7
(lp496
Vconsidered
p497
atp498
Rp499
(dp500
g16
VVBN
p501
sbag5
(g6
g7
(lp502
g5
(g6
g7
(lp503
Vrelevant
p504
atp505
Rp506
(dp507
g16
VJJ
p508
sbatp509
Rp510
(dp511
g16
VADJP
p512
sbag5
(g6
g7
(lp513
g5
(g6
g7
(lp514
Vif
p515
atp516
Rp517
(dp518
g16
VIN
p519
sbag5
(g6
g7
(lp520
g5
(g6
g7
(lp521
g5
(g6
g7
(lp522
Vthey
p523
atp524
Rp525
(dp526
g16
VPRP
p527
sbatp528
Rp529
(dp530
g16
VNP
p531
sbag5
(g6
g7
(lp532
g5
(g6
g7
(lp533
Vconstitute
p534
atp535
Rp536
(dp537
g16
VVBP
p538
sbag5
(g6
g7
(lp539
g5
(g6
g7
(lp540
g5
(g6
g7
(lp541
Vprior
p542
atp543
Rp544
(dp545
g16
VJJ
p546
sbag5
(g6
g7
(lp547
Vart
p548
atp549
Rp550
(dp551
g16
VNN
p552
sbatp553
Rp554
(dp555
g16
VNP
p556
sbag5
(g6
g7
(lp557
g5
(g6
g7
(lp558
Vwith
p559
atp560
Rp561
(dp562
g16
VIN
p563
sbag5
(g6
g7
(lp564
g5
(g6
g7
(lp565
Vrespect
p566
atp567
Rp568
(dp569
g16
VNN
p570
sbatp571
Rp572
(dp573
g16
VNP
p574
sbatp575
Rp576
(dp577
g16
VPP
p578
sbatp579
Rp580
(dp581
g16
VNP
p582
sbag5
(g6
g7
(lp583
g5
(g6
g7
(lp584
Vto
p585
atp586
Rp587
(dp588
g16
VTO
p589
sbag5
(g6
g7
(lp590
g5
(g6
g7
(lp591
g5
(g6
g7
(lp592
Vthe
p593
atp594
Rp595
(dp596
g16
VDT
p597
sbag5
(g6
g7
(lp598
Vinvention
p599
atp600
Rp601
(dp602
g16
VNN
p603
sbatp604
Rp605
(dp606
g16
VNP
p607
sbag5
(g6
g7
(lp608
g5
(g6
g7
(lp609
Vclaimed
p610
atp611
Rp612
(dp613
g16
VVBN
p614
sbag5
(g6
g7
(lp615
g5
(g6
g7
(lp616
Vin
p617
atp618
Rp619
(dp620
g16
VIN
p621
sbag5
(g6
g7
(lp622
g5
(g6
g7
(lp623
Vthe
p624
atp625
Rp626
(dp627
g16
VDT
p628
sbag5
(g6
g7
(lp629
Vquery
p630
atp631
Rp632
(dp633
g16
VJJ
p634
sbag5
(g6
g7
(lp635
Vpatent
p636
atp637
Rp638
(dp639
g16
VNN
p640
sbatp641
Rp642
(dp643
g16
VNP
p644
sbatp645
Rp646
(dp647
g16
VPP
p648
sbatp649
Rp650
(dp651
g16
VVP
p652
sbatp653
Rp654
(dp655
g16
VNP
p656
sbatp657
Rp658
(dp659
g16
VPP
p660
sbatp661
Rp662
(dp663
g16
VVP
p664
sbatp665
Rp666
(dp667
g16
g168
sbatp668
Rp669
(dp670
g16
VSBAR
p671
sbatp672
Rp673
(dp674
g16
VVP
p675
sbatp676
Rp677
(dp678
g16
VVP
p679
sbatp680
Rp681
(dp682
g16
g168
sbatp683
Rp684
(dp685
g16
VROOT
p686
sbasg286
(icmyPackage
CorE
p687
(dp688
g289
(lp689
(I0
I20
tp690
a(I0
I33
tp691
asg293
g666
sbsg294
(icmyPackage
CorE
p692
(dp693
g289
(lp694
(I0
I0
tp695
a(I0
I18
tp696
asg293
g5
(g6
g7
(lp697
g365
ag370
ag409
ag414
ag485
ag492
ag499
ag510
atp698
Rp699
(dp700
g16
g304
sbsbsg305
(icmyPackage
pattern
p701
(dp702
g308
I0
sg309
I0
sg310
(lp703
(lp704
S'if'
p705
aasg318
(lp706
I1
aI1
aI1
asg320
(lp707
S'An effective knowledge flow network enables a research team to be very powerful in generating new knowledge if every node can innovate and output new knowledge to appropriate members.'
p708
asg323
I14
sg324
(lp709
(lp710
S'&R@Complete@'
p711
aa(lp712
S'&C@Complete@'
p713
aasbsg331
(lp714
(isxpPackage
sxpSent
p715
(dp716
g335
(lp717
I1
asg337
VFor example, in patent prior art search, patents granted at any patent office worldwide are considered relevant if they constitute prior art with respect to the invention claimed in the query patent
p718
sg339
I2
sg323
I7
sg340
I2
sbasba(icmyPackage
CELink
p719
(dp720
g3
(lp721
g5
(g6
g7
(lp722
g5
(g6
g7
(lp723
g5
(g6
g7
(lp724
g5
(g6
g7
(lp725
VSince
p726
atp727
Rp728
(dp729
g16
VIN
p730
sbag5
(g6
g7
(lp731
g5
(g6
g7
(lp732
g5
(g6
g7
(lp733
Vpatent
p734
atp735
Rp736
(dp737
g16
VNN
p738
sbag5
(g6
g7
(lp739
Vapplicants
p740
atp741
Rp742
(dp743
g16
VNNS
p744
sbag5
(g6
g7
(lp745
Vand
p746
atp747
Rp748
(dp749
g16
VCC
p750
sbag5
(g6
g7
(lp751
Vlawyers
p752
atp753
Rp754
(dp755
g16
VNNS
p756
sbatp757
Rp758
(dp759
g16
VNP
p760
sbag5
(g6
g7
(lp761
g5
(g6
g7
(lp762
Vare
p763
atp764
Rp765
(dp766
g16
VVBP
p767
sbag5
(g6
g7
(lp768
g5
(g6
g7
(lp769
Vrequired
p770
atp771
Rp772
(dp773
g16
VVBN
p774
sbag5
(g6
g7
(lp775
g5
(g6
g7
(lp776
g5
(g6
g7
(lp777
Vto
p778
atp779
Rp780
(dp781
g16
VTO
p782
sbag5
(g6
g7
(lp783
g5
(g6
g7
(lp784
Vlist
p785
atp786
Rp787
(dp788
g16
VVB
p789
sbag5
(g6
g7
(lp790
g5
(g6
g7
(lp791
Vrelevant
p792
atp793
Rp794
(dp795
g16
VJJ
p796
sbag5
(g6
g7
(lp797
Vprior
p798
atp799
Rp800
(dp801
g16
VJJ
p802
sbag5
(g6
g7
(lp803
Vwork
p804
atp805
Rp806
(dp807
g16
VNN
p808
sbatp809
Rp810
(dp811
g16
VNP
p812
sbag5
(g6
g7
(lp813
g5
(g6
g7
(lp814
Vexplicitly
p815
atp816
Rp817
(dp818
g16
VRB
p819
sbatp820
Rp821
(dp822
g16
VADVP
p823
sbag5
(g6
g7
(lp824
g5
(g6
g7
(lp825
Vin
p826
atp827
Rp828
(dp829
g16
VIN
p830
sbag5
(g6
g7
(lp831
g5
(g6
g7
(lp832
Vthe
p833
atp834
Rp835
(dp836
g16
VDT
p837
sbag5
(g6
g7
(lp838
Vpatent
p839
atp840
Rp841
(dp842
g16
VNN
p843
sbag5
(g6
g7
(lp844
Vapplication
p845
atp846
Rp847
(dp848
g16
VNN
p849
sbatp850
Rp851
(dp852
g16
VNP
p853
sbatp854
Rp855
(dp856
g16
VPP
p857
sbatp858
Rp859
(dp860
g16
VVP
p861
sbatp862
Rp863
(dp864
g16
VVP
p865
sbatp866
Rp867
(dp868
g16
g168
sbatp869
Rp870
(dp871
g16
VVP
p872
sbatp873
Rp874
(dp875
g16
VVP
p876
sbatp877
Rp878
(dp879
g16
g168
sbatp880
Rp881
(dp882
g16
VSBAR
p883
sbag5
(g6
g7
(lp884
g181
atp885
Rp886
(dp887
g16
g181
sbag5
(g6
g7
(lp888
g5
(g6
g7
(lp889
Vpatent
p890
atp891
Rp892
(dp893
g16
VNN
p894
sbag5
(g6
g7
(lp895
Vcitations
p896
atp897
Rp898
(dp899
g16
VNNS
p900
sbatp901
Rp902
(dp903
g16
VNP
p904
sbag5
(g6
g7
(lp905
g5
(g6
g7
(lp906
Vcan
p907
atp908
Rp909
(dp910
g16
VMD
p911
sbag5
(g6
g7
(lp912
g5
(g6
g7
(lp913
Vbe
p914
atp915
Rp916
(dp917
g16
VVB
p918
sbag5
(g6
g7
(lp919
g5
(g6
g7
(lp920
Vused
p921
atp922
Rp923
(dp924
g16
VVBN
p925
sbag5
(g6
g7
(lp926
g5
(g6
g7
(lp927
g5
(g6
g7
(lp928
Vto
p929
atp930
Rp931
(dp932
g16
VTO
p933
sbag5
(g6
g7
(lp934
g5
(g6
g7
(lp935
g5
(g6
g7
(lp936
Vautomatically
p937
atp938
Rp939
(dp940
g16
VRB
p941
sbatp942
Rp943
(dp944
g16
VADVP
p945
sbag5
(g6
g7
(lp946
Vextract
p947
atp948
Rp949
(dp950
g16
VVB
p951
sbag5
(g6
g7
(lp952
g5
(g6
g7
(lp953
g5
(g6
g7
(lp954
Vlarge
p955
atp956
Rp957
(dp958
g16
VJJ
p959
sbag5
(g6
g7
(lp960
Vamounts
p961
atp962
Rp963
(dp964
g16
VNNS
p965
sbatp966
Rp967
(dp968
g16
VNP
p969
sbag5
(g6
g7
(lp970
g5
(g6
g7
(lp971
Vof
p972
atp973
Rp974
(dp975
g16
VIN
p976
sbag5
(g6
g7
(lp977
g5
(g6
g7
(lp978
Vrelevance
p979
atp980
Rp981
(dp982
g16
VNN
p983
sbag5
(g6
g7
(lp984
Vjudgments
p985
atp986
Rp987
(dp988
g16
VNNS
p989
sbatp990
Rp991
(dp992
g16
VNP
p993
sbatp994
Rp995
(dp996
g16
VPP
p997
sbatp998
Rp999
(dp1000
g16
VNP
p1001
sbag5
(g6
g7
(lp1002
g5
(g6
g7
(lp1003
Vacross
p1004
atp1005
Rp1006
(dp1007
g16
VIN
p1008
sbag5
(g6
g7
(lp1009
g5
(g6
g7
(lp1010
g5
(g6
g7
(lp1011
Vlanguages
p1012
atp1013
Rp1014
(dp1015
g16
VNNS
p1016
sbatp1017
Rp1018
(dp1019
g16
VNP
p1020
sbag5
(g6
g7
(lp1021
g5
(g6
g7
(lp1022
V-LSB-
p1023
atp1024
Rp1025
(dp1026
g16
VVBG
p1027
sbag5
(g6
g7
(lp1028
g5
(g6
g7
(lp1029
V12
p1030
atp1031
Rp1032
(dp1033
g16
VCD
p1034
sbag5
(g6
g7
(lp1035
V-RSB-
p1036
atp1037
Rp1038
(dp1039
g16
VNNS
p1040
sbatp1041
Rp1042
(dp1043
g16
VNP
p1044
sbatp1045
Rp1046
(dp1047
g16
VVP
p1048
sbatp1049
Rp1050
(dp1051
g16
VNP
p1052
sbatp1053
Rp1054
(dp1055
g16
VPP
p1056
sbatp1057
Rp1058
(dp1059
g16
VVP
p1060
sbatp1061
Rp1062
(dp1063
g16
VVP
p1064
sbatp1065
Rp1066
(dp1067
g16
g168
sbatp1068
Rp1069
(dp1070
g16
VVP
p1071
sbatp1072
Rp1073
(dp1074
g16
VVP
p1075
sbatp1076
Rp1077
(dp1078
g16
VVP
p1079
sbatp1080
Rp1081
(dp1082
g16
g168
sbatp1083
Rp1084
(dp1085
g16
VROOT
p1086
sbasg286
(icmyPackage
CorE
p1087
(dp1088
g289
(lp1089
(I0
I1
tp1090
a(I0
I16
tp1091
asg293
g878
sbsg294
(icmyPackage
CorE
p1092
(dp1093
g289
(lp1094
(I0
I18
tp1095
a(I0
I35
tp1096
asg293
g5
(g6
g7
(lp1097
g902
ag1077
atp1098
Rp1099
(dp1100
g16
g304
sbsbsg305
(icmyPackage
pattern
p1101
(dp1102
g308
I15
sg309
I0
sg310
(lp1103
(lp1104
S'since'
p1105
aa(lp1106
g317
aasg318
(lp1107
I3
aI1
aI1
asg320
(lp1108
S'But, since the herpes virus does not always show its symptoms, prevention is not fool proof.'
p1109
asg323
I78
sg324
(lp1110
(lp1111
a(lp1112
S'&C@NCTime@'
p1113
aa(lp1114
S'&R@NCTime@'
p1115
aasbsg331
(lp1116
(isxpPackage
sxpSent
p1117
(dp1118
g335
(lp1119
I2
asg337
VSince patent applicants and lawyers are required to list relevant prior work explicitly in the patent application, patent citations can be used to automatically extract large amounts of relevance judgments across languages [ 12 ]
p1120
sg339
I2
sg323
I8
sg340
I2
sbasba(icmyPackage
CELink
p1121
(dp1122
g3
(lp1123
g5
(g6
g7
(lp1124
g5
(g6
g7
(lp1125
g5
(g6
g7
(lp1126
g5
(g6
g7
(lp1127
VSince
p1128
atp1129
Rp1130
(dp1131
g16
VIN
p1132
sbag5
(g6
g7
(lp1133
g5
(g6
g7
(lp1134
g5
(g6
g7
(lp1135
Vauthors
p1136
atp1137
Rp1138
(dp1139
g16
VNNS
p1140
sbatp1141
Rp1142
(dp1143
g16
VNP
p1144
sbag5
(g6
g7
(lp1145
g5
(g6
g7
(lp1146
Vare
p1147
atp1148
Rp1149
(dp1150
g16
VVBP
p1151
sbag5
(g6
g7
(lp1152
g5
(g6
g7
(lp1153
Vencouraged
p1154
atp1155
Rp1156
(dp1157
g16
VVBN
p1158
sbag5
(g6
g7
(lp1159
g5
(g6
g7
(lp1160
g5
(g6
g7
(lp1161
g5
(g6
g7
(lp1162
Vto
p1163
atp1164
Rp1165
(dp1166
g16
VTO
p1167
sbag5
(g6
g7
(lp1168
g5
(g6
g7
(lp1169
Vavoid
p1170
atp1171
Rp1172
(dp1173
g16
VVB
p1174
sbag5
(g6
g7
(lp1175
g5
(g6
g7
(lp1176
Vorphan
p1177
atp1178
Rp1179
(dp1180
g16
VJJ
p1181
sbag5
(g6
g7
(lp1182
Varticles
p1183
atp1184
Rp1185
(dp1186
g16
VNNS
p1187
sbatp1188
Rp1189
(dp1190
g16
VNP
p1191
sbatp1192
Rp1193
(dp1194
g16
VVP
p1195
sbatp1196
Rp1197
(dp1198
g16
VVP
p1199
sbag5
(g6
g7
(lp1200
Vand
p1201
atp1202
Rp1203
(dp1204
g16
VCC
p1205
sbag5
(g6
g7
(lp1206
g5
(g6
g7
(lp1207
Vto
p1208
atp1209
Rp1210
(dp1211
g16
VTO
p1212
sbag5
(g6
g7
(lp1213
g5
(g6
g7
(lp1214
Vcite
p1215
atp1216
Rp1217
(dp1218
g16
VVB
p1219
sbag5
(g6
g7
(lp1220
g5
(g6
g7
(lp1221
Vtheir
p1222
atp1223
Rp1224
(dp1225
g16
VPRP$
p1226
sbag5
(g6
g7
(lp1227
Vsources
p1228
atp1229
Rp1230
(dp1231
g16
VNNS
p1232
sbatp1233
Rp1234
(dp1235
g16
VNP
p1236
sbatp1237
Rp1238
(dp1239
g16
VVP
p1240
sbatp1241
Rp1242
(dp1243
g16
VVP
p1244
sbatp1245
Rp1246
(dp1247
g16
VVP
p1248
sbatp1249
Rp1250
(dp1251
g16
g168
sbatp1252
Rp1253
(dp1254
g16
VVP
p1255
sbatp1256
Rp1257
(dp1258
g16
VVP
p1259
sbatp1260
Rp1261
(dp1262
g16
g168
sbatp1263
Rp1264
(dp1265
g16
VSBAR
p1266
sbag5
(g6
g7
(lp1267
g181
atp1268
Rp1269
(dp1270
g16
g181
sbag5
(g6
g7
(lp1271
g5
(g6
g7
(lp1272
VWikipedia
p1273
atp1274
Rp1275
(dp1276
g16
VNNP
p1277
sbatp1278
Rp1279
(dp1280
g16
VNP
p1281
sbag5
(g6
g7
(lp1282
g5
(g6
g7
(lp1283
Vhas
p1284
atp1285
Rp1286
(dp1287
g16
VVBZ
p1288
sbag5
(g6
g7
(lp1289
g5
(g6
g7
(lp1290
Va
p1291
atp1292
Rp1293
(dp1294
g16
VDT
p1295
sbag5
(g6
g7
(lp1296
g5
(g6
g7
(lp1297
Vrich
p1298
atp1299
Rp1300
(dp1301
g16
VJJ
p1302
sbag5
(g6
g7
(lp1303
g5
(g6
g7
(lp1304
g5
(g6
g7
(lp1305
Vlinking
p1306
atp1307
Rp1308
(dp1309
g16
VVBG
p1310
sbag5
(g6
g7
(lp1311
g5
(g6
g7
(lp1312
g5
(g6
g7
(lp1313
Vstructure
p1314
atp1315
Rp1316
(dp1317
g16
VNN
p1318
sbatp1319
Rp1320
(dp1321
g16
VNP
p1322
sbag5
(g6
g7
(lp1323
g5
(g6
g7
(lp1324
Vbetween
p1325
atp1326
Rp1327
(dp1328
g16
VIN
p1329
sbag5
(g6
g7
(lp1330
g5
(g6
g7
(lp1331
g5
(g6
g7
(lp1332
Vrelated
p1333
atp1334
Rp1335
(dp1336
g16
VVBN
p1337
sbag5
(g6
g7
(lp1338
Varticles
p1339
atp1340
Rp1341
(dp1342
g16
VNNS
p1343
sbatp1344
Rp1345
(dp1346
g16
VNP
p1347
sbag5
(g6
g7
(lp1348
g181
atp1349
Rp1350
(dp1351
g16
g181
sbag5
(g6
g7
(lp1352
g5
(g6
g7
(lp1353
g5
(g6
g7
(lp1354
Vwhich
p1355
atp1356
Rp1357
(dp1358
g16
VWDT
p1359
sbatp1360
Rp1361
(dp1362
g16
VWHNP
p1363
sbag5
(g6
g7
(lp1364
g5
(g6
g7
(lp1365
g5
(g6
g7
(lp1366
Vcan
p1367
atp1368
Rp1369
(dp1370
g16
VMD
p1371
sbag5
(g6
g7
(lp1372
g5
(g6
g7
(lp1373
Vbe
p1374
atp1375
Rp1376
(dp1377
g16
VVB
p1378
sbag5
(g6
g7
(lp1379
g5
(g6
g7
(lp1380
Vexploited
p1381
atp1382
Rp1383
(dp1384
g16
VVBN
p1385
sbag5
(g6
g7
(lp1386
g5
(g6
g7
(lp1387
g5
(g6
g7
(lp1388
Vto
p1389
atp1390
Rp1391
(dp1392
g16
VTO
p1393
sbag5
(g6
g7
(lp1394
g5
(g6
g7
(lp1395
Vcreate
p1396
atp1397
Rp1398
(dp1399
g16
VVB
p1400
sbag5
(g6
g7
(lp1401
g5
(g6
g7
(lp1402
g5
(g6
g7
(lp1403
Vrelevance
p1404
atp1405
Rp1406
(dp1407
g16
VNN
p1408
sbag5
(g6
g7
(lp1409
Vlinks
p1410
atp1411
Rp1412
(dp1413
g16
VNNS
p1414
sbatp1415
Rp1416
(dp1417
g16
VNP
p1418
sbag5
(g6
g7
(lp1419
g5
(g6
g7
(lp1420
Vbetween
p1421
atp1422
Rp1423
(dp1424
g16
VIN
p1425
sbag5
(g6
g7
(lp1426
g5
(g6
g7
(lp1427
g5
(g6
g7
(lp1428
Varticles
p1429
atp1430
Rp1431
(dp1432
g16
VNNS
p1433
sbatp1434
Rp1435
(dp1436
g16
VNP
p1437
sbag5
(g6
g7
(lp1438
g5
(g6
g7
(lp1439
Vacross
p1440
atp1441
Rp1442
(dp1443
g16
VIN
p1444
sbag5
(g6
g7
(lp1445
g5
(g6
g7
(lp1446
Vlanguages
p1447
atp1448
Rp1449
(dp1450
g16
VNNS
p1451
sbatp1452
Rp1453
(dp1454
g16
VNP
p1455
sbatp1456
Rp1457
(dp1458
g16
VPP
p1459
sbatp1460
Rp1461
(dp1462
g16
VNP
p1463
sbatp1464
Rp1465
(dp1466
g16
VPP
p1467
sbatp1468
Rp1469
(dp1470
g16
VNP
p1471
sbatp1472
Rp1473
(dp1474
g16
VVP
p1475
sbatp1476
Rp1477
(dp1478
g16
VVP
p1479
sbatp1480
Rp1481
(dp1482
g16
g168
sbatp1483
Rp1484
(dp1485
g16
VVP
p1486
sbatp1487
Rp1488
(dp1489
g16
VVP
p1490
sbatp1491
Rp1492
(dp1493
g16
VVP
p1494
sbatp1495
Rp1496
(dp1497
g16
g168
sbatp1498
Rp1499
(dp1500
g16
VSBAR
p1501
sbatp1502
Rp1503
(dp1504
g16
VNP
p1505
sbatp1506
Rp1507
(dp1508
g16
VPP
p1509
sbatp1510
Rp1511
(dp1512
g16
VNP
p1513
sbatp1514
Rp1515
(dp1516
g16
VVP
p1517
sbatp1518
Rp1519
(dp1520
g16
g168
sbatp1521
Rp1522
(dp1523
g16
VADJP
p1524
sbag5
(g6
g7
(lp1525
g5
(g6
g7
(lp1526
V-LSB-
p1527
atp1528
Rp1529
(dp1530
g16
VCD
p1531
sbag5
(g6
g7
(lp1532
V2
p1533
atp1534
Rp1535
(dp1536
g16
VCD
p1537
sbatp1538
Rp1539
(dp1540
g16
VQP
p1541
sbag5
(g6
g7
(lp1542
V-RSB-
p1543
atp1544
Rp1545
(dp1546
g16
VNN
p1547
sbatp1548
Rp1549
(dp1550
g16
VNP
p1551
sbatp1552
Rp1553
(dp1554
g16
VVP
p1555
sbatp1556
Rp1557
(dp1558
g16
g168
sbatp1559
Rp1560
(dp1561
g16
VROOT
p1562
sbasg286
(icmyPackage
CorE
p1563
(dp1564
g289
(lp1565
(I0
I1
tp1566
a(I0
I12
tp1567
asg293
g1261
sbsg294
(icmyPackage
CorE
p1568
(dp1569
g289
(lp1570
(I0
I14
tp1571
a(I0
I38
tp1572
asg293
g5
(g6
g7
(lp1573
g1279
ag1553
atp1574
Rp1575
(dp1576
g16
g304
sbsbsg305
g1101
sg331
(lp1577
(isxpPackage
sxpSent
p1578
(dp1579
g335
(lp1580
I3
asg337
VSince authors are encouraged to avoid orphan articles and to cite their sources, Wikipedia has a rich linking structure between related articles, which can be exploited to create relevance links between articles across languages [ 2 ]
p1581
sg339
I2
sg323
I10
sg340
I2
sbasba(icmyPackage
CELink
p1582
(dp1583
g3
(lp1584
g5
(g6
g7
(lp1585
g5
(g6
g7
(lp1586
g5
(g6
g7
(lp1587
V2013
p1588
atp1589
Rp1590
(dp1591
g16
VVB
p1592
sbag5
(g6
g7
(lp1593
V-RRB-
p1594
atp1595
Rp1596
(dp1597
g16
V-RRB-
p1598
sbag5
(g6
g7
(lp1599
g5
(g6
g7
(lp1600
Vadvocate
p1601
atp1602
Rp1603
(dp1604
g16
VNN
p1605
sbatp1606
Rp1607
(dp1608
g16
VNP
p1609
sbag5
(g6
g7
(lp1610
g5
(g6
g7
(lp1611
g5
(g6
g7
(lp1612
Vthe
p1613
atp1614
Rp1615
(dp1616
g16
VDT
p1617
sbag5
(g6
g7
(lp1618
Vuse
p1619
atp1620
Rp1621
(dp1622
g16
VNN
p1623
sbatp1624
Rp1625
(dp1626
g16
VNP
p1627
sbag5
(g6
g7
(lp1628
Vof
p1629
atp1630
Rp1631
(dp1632
g16
VIN
p1633
sbag5
(g6
g7
(lp1634
g5
(g6
g7
(lp1635
g5
(g6
g7
(lp1636
Vdense
p1637
atp1638
Rp1639
(dp1640
g16
VJJ
p1641
sbag5
(g6
g7
(lp1642
Vfeatures
p1643
atp1644
Rp1645
(dp1646
g16
VNNS
p1647
sbatp1648
Rp1649
(dp1650
g16
VNP
p1651
sbag5
(g6
g7
(lp1652
g5
(g6
g7
(lp1653
Vencoding
p1654
atp1655
Rp1656
(dp1657
g16
VVBG
p1658
sbag5
(g6
g7
(lp1659
g5
(g6
g7
(lp1660
g5
(g6
g7
(lp1661
Vdomain
p1662
atp1663
Rp1664
(dp1665
g16
VNN
p1666
sbag5
(g6
g7
(lp1667
Vknowledge
p1668
atp1669
Rp1670
(dp1671
g16
VNN
p1672
sbatp1673
Rp1674
(dp1675
g16
VNP
p1676
sbag5
(g6
g7
(lp1677
g5
(g6
g7
(lp1678
Von
p1679
atp1680
Rp1681
(dp1682
g16
VIN
p1683
sbag5
(g6
g7
(lp1684
g5
(g6
g7
(lp1685
Vinventors
p1686
atp1687
Rp1688
(dp1689
g16
VNNS
p1690
sbag5
(g6
g7
(lp1691
g181
atp1692
Rp1693
(dp1694
g16
g181
sbag5
(g6
g7
(lp1695
Vassignees
p1696
atp1697
Rp1698
(dp1699
g16
VNNS
p1700
sbag5
(g6
g7
(lp1701
g181
atp1702
Rp1703
(dp1704
g16
g181
sbag5
(g6
g7
(lp1705
Vlocation
p1706
atp1707
Rp1708
(dp1709
g16
VNN
p1710
sbag5
(g6
g7
(lp1711
Vand
p1712
atp1713
Rp1714
(dp1715
g16
VCC
p1716
sbag5
(g6
g7
(lp1717
Vdate
p1718
atp1719
Rp1720
(dp1721
g16
VNN
p1722
sbatp1723
Rp1724
(dp1725
g16
VNP
p1726
sbatp1727
Rp1728
(dp1729
g16
VPP
p1730
sbatp1731
Rp1732
(dp1733
g16
VNP
p1734
sbag5
(g6
g7
(lp1735
g181
atp1736
Rp1737
(dp1738
g16
g181
sbag5
(g6
g7
(lp1739
g5
(g6
g7
(lp1740
g5
(g6
g7
(lp1741
Vtogether
p1742
atp1743
Rp1744
(dp1745
g16
VRB
p1746
sbatp1747
Rp1748
(dp1749
g16
VADVP
p1750
sbag5
(g6
g7
(lp1751
Vwith
p1752
atp1753
Rp1754
(dp1755
g16
VIN
p1756
sbag5
(g6
g7
(lp1757
g5
(g6
g7
(lp1758
g5
(g6
g7
(lp1759
Vdense
p1760
atp1761
Rp1762
(dp1763
g16
VJJ
p1764
sbag5
(g6
g7
(lp1765
Vsimilarity
p1766
atp1767
Rp1768
(dp1769
g16
VNN
p1770
sbag5
(g6
g7
(lp1771
Vscores
p1772
atp1773
Rp1774
(dp1775
g16
VNNS
p1776
sbatp1777
Rp1778
(dp1779
g16
VNP
p1780
sbag5
(g6
g7
(lp1781
g5
(g6
g7
(lp1782
Vbased
p1783
atp1784
Rp1785
(dp1786
g16
VVBN
p1787
sbag5
(g6
g7
(lp1788
g5
(g6
g7
(lp1789
Von
p1790
atp1791
Rp1792
(dp1793
g16
VIN
p1794
sbag5
(g6
g7
(lp1795
g5
(g6
g7
(lp1796
g5
(g6
g7
(lp1797
Vbag-of-word
p1798
atp1799
Rp1800
(dp1801
g16
VJJ
p1802
sbag5
(g6
g7
(lp1803
Vrepresentations
p1804
atp1805
Rp1806
(dp1807
g16
VNNS
p1808
sbatp1809
Rp1810
(dp1811
g16
VNP
p1812
sbag5
(g6
g7
(lp1813
g5
(g6
g7
(lp1814
Vof
p1815
atp1816
Rp1817
(dp1818
g16
VIN
p1819
sbag5
(g6
g7
(lp1820
g5
(g6
g7
(lp1821
Vpatents
p1822
atp1823
Rp1824
(dp1825
g16
VNNS
p1826
sbatp1827
Rp1828
(dp1829
g16
VNP
p1830
sbatp1831
Rp1832
(dp1833
g16
VPP
p1834
sbatp1835
Rp1836
(dp1837
g16
VNP
p1838
sbatp1839
Rp1840
(dp1841
g16
VPP
p1842
sbatp1843
Rp1844
(dp1845
g16
VVP
p1846
sbatp1847
Rp1848
(dp1849
g16
VNP
p1850
sbatp1851
Rp1852
(dp1853
g16
VPP
p1854
sbatp1855
Rp1856
(dp1857
g16
VVP
p1858
sbatp1859
Rp1860
(dp1861
g16
VNP
p1862
sbatp1863
Rp1864
(dp1865
g16
VPP
p1866
sbatp1867
Rp1868
(dp1869
g16
VVP
p1870
sbatp1871
Rp1872
(dp1873
g16
VROOT
p1874
sbasg286
(icmyPackage
CorE
p1875
(dp1876
g289
(lp1877
(I0
I27
tp1878
a(I0
I30
tp1879
asg293
g1836
sbsg294
(icmyPackage
CorE
p1880
(dp1881
g289
(lp1882
(I0
I0
tp1883
a(I0
I24
tp1884
asg293
g5
(g6
g7
(lp1885
g1590
ag1596
ag1607
ag1625
ag1631
ag1649
ag1656
ag1732
ag1737
ag1748
ag1754
ag1778
atp1886
Rp1887
(dp1888
g16
g304
sbsbsg305
(icmyPackage
pattern
p1889
(dp1890
g308
I0
sg309
I0
sg310
(lp1891
(lp1892
S'based'
p1893
aS'on'
p1894
aasg318
(lp1895
I2
aI1
aI1
asg320
(lp1896
S'He said he planned to announce details of legislation on Sunday based on a Republican plan that would provide a short-term solution'
p1897
asg323
I48
sg324
(lp1898
(lp1899
S'&R'
p1900
aS'(,)'
p1901
aS'(&ADV)'
p1902
aa(lp1903
S'&V-ing/&NP@C@'
p1904
aS'(&Clause@C@)'
p1905
aasbsg331
(lp1906
(isxpPackage
sxpSent
p1907
(dp1908
g335
(lp1909
I4
asg337
V2013 ) advocate the use of dense features encoding domain knowledge on inventors, assignees, location and date, together with dense similarity scores based on bag-of-word representations of patents
p1910
sg339
I2
sg323
I13
sg340
I3
sbasba(icmyPackage
CELink
p1911
(dp1912
g3
(lp1913
g5
(g6
g7
(lp1914
g5
(g6
g7
(lp1915
g5
(g6
g7
(lp1916
g5
(g6
g7
(lp1917
VFurthermore
p1918
atp1919
Rp1920
(dp1921
g16
VRB
p1922
sbatp1923
Rp1924
(dp1925
g16
VADVP
p1926
sbag5
(g6
g7
(lp1927
g181
atp1928
Rp1929
(dp1930
g16
g181
sbag5
(g6
g7
(lp1931
g5
(g6
g7
(lp1932
Vwe
p1933
atp1934
Rp1935
(dp1936
g16
VPRP
p1937
sbatp1938
Rp1939
(dp1940
g16
VNP
p1941
sbag5
(g6
g7
(lp1942
g5
(g6
g7
(lp1943
Vshow
p1944
atp1945
Rp1946
(dp1947
g16
VVBP
p1948
sbag5
(g6
g7
(lp1949
g5
(g6
g7
(lp1950
Vthat
p1951
atp1952
Rp1953
(dp1954
g16
VIN
p1955
sbag5
(g6
g7
(lp1956
g5
(g6
g7
(lp1957
g5
(g6
g7
(lp1958
Vour
p1959
atp1960
Rp1961
(dp1962
g16
VPRP$
p1963
sbag5
(g6
g7
(lp1964
Vapproach
p1965
atp1966
Rp1967
(dp1968
g16
VNN
p1969
sbatp1970
Rp1971
(dp1972
g16
VNP
p1973
sbag5
(g6
g7
(lp1974
g5
(g6
g7
(lp1975
Vcan
p1976
atp1977
Rp1978
(dp1979
g16
VMD
p1980
sbag5
(g6
g7
(lp1981
g5
(g6
g7
(lp1982
Vbe
p1983
atp1984
Rp1985
(dp1986
g16
VVB
p1987
sbag5
(g6
g7
(lp1988
g5
(g6
g7
(lp1989
Vseen
p1990
atp1991
Rp1992
(dp1993
g16
VVBN
p1994
sbag5
(g6
g7
(lp1995
g5
(g6
g7
(lp1996
Vas
p1997
atp1998
Rp1999
(dp2000
g16
VIN
p2001
sbag5
(g6
g7
(lp2002
g5
(g6
g7
(lp2003
g5
(g6
g7
(lp2004
Vsupervised
p2005
atp2006
Rp2007
(dp2008
g16
VJJ
p2009
sbag5
(g6
g7
(lp2010
Vmodel
p2011
atp2012
Rp2013
(dp2014
g16
VNN
p2015
sbag5
(g6
g7
(lp2016
Vcombination
p2017
atp2018
Rp2019
(dp2020
g16
VNN
p2021
sbatp2022
Rp2023
(dp2024
g16
VNP
p2025
sbag5
(g6
g7
(lp2026
g5
(g6
g7
(lp2027
g5
(g6
g7
(lp2028
Vthat
p2029
atp2030
Rp2031
(dp2032
g16
VWDT
p2033
sbatp2034
Rp2035
(dp2036
g16
VWHNP
p2037
sbag5
(g6
g7
(lp2038
g5
(g6
g7
(lp2039
g5
(g6
g7
(lp2040
Vallows
p2041
atp2042
Rp2043
(dp2044
g16
VVBZ
p2045
sbag5
(g6
g7
(lp2046
g5
(g6
g7
(lp2047
g5
(g6
g7
(lp2048
Vto
p2049
atp2050
Rp2051
(dp2052
g16
VTO
p2053
sbag5
(g6
g7
(lp2054
g5
(g6
g7
(lp2055
Vcombine
p2056
atp2057
Rp2058
(dp2059
g16
VVB
p2060
sbag5
(g6
g7
(lp2061
g5
(g6
g7
(lp2062
VSMT-based
p2063
atp2064
Rp2065
(dp2066
g16
VJJ
p2067
sbag5
(g6
g7
(lp2068
Vand
p2069
atp2070
Rp2071
(dp2072
g16
VCC
p2073
sbag5
(g6
g7
(lp2074
Vranking-based
p2075
atp2076
Rp2077
(dp2078
g16
VJJ
p2079
sbag5
(g6
g7
(lp2080
Vapproaches
p2081
atp2082
Rp2083
(dp2084
g16
VNNS
p2085
sbatp2086
Rp2087
(dp2088
g16
VNP
p2089
sbag5
(g6
g7
(lp2090
g5
(g6
g7
(lp2091
Vfor
p2092
atp2093
Rp2094
(dp2095
g16
VIN
p2096
sbag5
(g6
g7
(lp2097
g5
(g6
g7
(lp2098
Vfurther
p2099
atp2100
Rp2101
(dp2102
g16
VJJ
p2103
sbag5
(g6
g7
(lp2104
Vsubstantial
p2105
atp2106
Rp2107
(dp2108
g16
VJJ
p2109
sbag5
(g6
g7
(lp2110
Vimprovements
p2111
atp2112
Rp2113
(dp2114
g16
VNNS
p2115
sbatp2116
Rp2117
(dp2118
g16
VNP
p2119
sbatp2120
Rp2121
(dp2122
g16
VPP
p2123
sbatp2124
Rp2125
(dp2126
g16
VVP
p2127
sbatp2128
Rp2129
(dp2130
g16
VVP
p2131
sbatp2132
Rp2133
(dp2134
g16
g168
sbatp2135
Rp2136
(dp2137
g16
VVP
p2138
sbatp2139
Rp2140
(dp2141
g16
g168
sbatp2142
Rp2143
(dp2144
g16
VSBAR
p2145
sbatp2146
Rp2147
(dp2148
g16
VNP
p2149
sbatp2150
Rp2151
(dp2152
g16
VPP
p2153
sbatp2154
Rp2155
(dp2156
g16
VVP
p2157
sbatp2158
Rp2159
(dp2160
g16
VVP
p2161
sbatp2162
Rp2163
(dp2164
g16
VVP
p2165
sbatp2166
Rp2167
(dp2168
g16
g168
sbatp2169
Rp2170
(dp2171
g16
VSBAR
p2172
sbatp2173
Rp2174
(dp2175
g16
VVP
p2176
sbatp2177
Rp2178
(dp2179
g16
g168
sbatp2180
Rp2181
(dp2182
g16
VROOT
p2183
sbag5
(g6
g7
(lp2184
g5
(g6
g7
(lp2185
g5
(g6
g7
(lp2186
g5
(g6
g7
(lp2187
VWe
p2188
atp2189
Rp2190
(dp2191
g16
VPRP
p2192
sbatp2193
Rp2194
(dp2195
g16
VNP
p2196
sbag5
(g6
g7
(lp2197
g5
(g6
g7
(lp2198
Vconjecture
p2199
atp2200
Rp2201
(dp2202
g16
VVBZ
p2203
sbag5
(g6
g7
(lp2204
g5
(g6
g7
(lp2205
Vthat
p2206
atp2207
Rp2208
(dp2209
g16
VIN
p2210
sbag5
(g6
g7
(lp2211
g5
(g6
g7
(lp2212
g5
(g6
g7
(lp2213
Vthe
p2214
atp2215
Rp2216
(dp2217
g16
VDT
p2218
sbag5
(g6
g7
(lp2219
Vgains
p2220
atp2221
Rp2222
(dp2223
g16
VNNS
p2224
sbatp2225
Rp2226
(dp2227
g16
VNP
p2228
sbag5
(g6
g7
(lp2229
g5
(g6
g7
(lp2230
Vare
p2231
atp2232
Rp2233
(dp2234
g16
VVBP
p2235
sbag5
(g6
g7
(lp2236
g5
(g6
g7
(lp2237
Vdue
p2238
atp2239
Rp2240
(dp2241
g16
VJJ
p2242
sbag5
(g6
g7
(lp2243
g5
(g6
g7
(lp2244
g5
(g6
g7
(lp2245
Vto
p2246
atp2247
Rp2248
(dp2249
g16
VTO
p2250
sbag5
(g6
g7
(lp2251
g5
(g6
g7
(lp2252
Vorthogonal
p2253
atp2254
Rp2255
(dp2256
g16
VVB
p2257
sbag5
(g6
g7
(lp2258
g5
(g6
g7
(lp2259
g5
(g6
g7
(lp2260
g5
(g6
g7
(lp2261
Vinformation
p2262
atp2263
Rp2264
(dp2265
g16
VNN
p2266
sbatp2267
Rp2268
(dp2269
g16
VNP
p2270
sbag5
(g6
g7
(lp2271
g5
(g6
g7
(lp2272
Vcontributed
p2273
atp2274
Rp2275
(dp2276
g16
VVBN
p2277
sbag5
(g6
g7
(lp2278
g5
(g6
g7
(lp2279
Vby
p2280
atp2281
Rp2282
(dp2283
g16
VIN
p2284
sbag5
(g6
g7
(lp2285
g5
(g6
g7
(lp2286
Vdomain-knowledge
p2287
atp2288
Rp2289
(dp2290
g16
VJJ
p2291
sbag5
(g6
g7
(lp2292
g181
atp2293
Rp2294
(dp2295
g16
g181
sbag5
(g6
g7
(lp2296
Vranking-based
p2297
atp2298
Rp2299
(dp2300
g16
VJJ
p2301
sbag5
(g6
g7
(lp2302
Vword
p2303
atp2304
Rp2305
(dp2306
g16
VNN
p2307
sbag5
(g6
g7
(lp2308
Vassociations
p2309
atp2310
Rp2311
(dp2312
g16
VNNS
p2313
sbatp2314
Rp2315
(dp2316
g16
VNP
p2317
sbatp2318
Rp2319
(dp2320
g16
VPP
p2321
sbatp2322
Rp2323
(dp2324
g16
VVP
p2325
sbatp2326
Rp2327
(dp2328
g16
VNP
p2329
sbag5
(g6
g7
(lp2330
g181
atp2331
Rp2332
(dp2333
g16
g181
sbag5
(g6
g7
(lp2334
Vand
p2335
atp2336
Rp2337
(dp2338
g16
VCC
p2339
sbag5
(g6
g7
(lp2340
g5
(g6
g7
(lp2341
Vtranslation-based
p2342
atp2343
Rp2344
(dp2345
g16
VJJ
p2346
sbag5
(g6
g7
(lp2347
Vinformation
p2348
atp2349
Rp2350
(dp2351
g16
VNN
p2352
sbatp2353
Rp2354
(dp2355
g16
VNP
p2356
sbatp2357
Rp2358
(dp2359
g16
VNP
p2360
sbatp2361
Rp2362
(dp2363
g16
VVP
p2364
sbatp2365
Rp2366
(dp2367
g16
VVP
p2368
sbatp2369
Rp2370
(dp2371
g16
g168
sbatp2372
Rp2373
(dp2374
g16
VADJP
p2375
sbatp2376
Rp2377
(dp2378
g16
VVP
p2379
sbatp2380
Rp2381
(dp2382
g16
g168
sbatp2383
Rp2384
(dp2385
g16
VSBAR
p2386
sbatp2387
Rp2388
(dp2389
g16
VVP
p2390
sbatp2391
Rp2392
(dp2393
g16
g168
sbatp2394
Rp2395
(dp2396
g16
VROOT
p2397
sbasg286
(icmyPackage
CorE
p2398
(dp2399
g289
(lp2400
(I0
I11
tp2401
a(I1
I19
tp2402
asg293
g5
(g6
g7
(lp2403
g2147
ag2194
ag2201
ag2208
ag2226
ag2233
ag2240
ag2248
ag2255
ag2327
ag2332
ag2337
ag2344
atp2404
Rp2405
(dp2406
g16
g304
sbsbsg294
(icmyPackage
CorE
p2407
(dp2408
g289
(lp2409
(I0
I0
tp2410
a(I0
I9
tp2411
asg293
g5
(g6
g7
(lp2412
g1924
ag1929
ag1939
ag1946
ag1953
ag1971
ag1978
ag1985
ag1992
atp2413
Rp2414
(dp2415
g16
g304
sbsbsg305
(icmyPackage
pattern
p2416
(dp2417
g308
I26
sg309
I1
sg310
(lp2418
(lp2419
S'as'
p2420
aasg318
(lp2421
I3
aI1
aI1
asg320
(lp2422
S'You do not need to worry about the operation, as the software is very easy to use.'
p2423
asg323
I80
sg324
(lp2424
(lp2425
S'&R@Complete@'
p2426
aS'(,)'
p2427
aS'(-such/-same/-seem/-regard/-regards/-regarded/-view/-views/-viewed/-denote/-denoted/-denotes)'
p2428
aa(lp2429
S'(-if/-follow/-follows/-&adv)'
p2430
aS'&C@Complete@'
p2431
aasbsg331
(lp2432
(isxpPackage
sxpSent
p2433
(dp2434
g335
(lp2435
I5
asg337
VFurthermore, we show that our approach can be seen as supervised model combination that allows to combine SMT-based and ranking-based approaches for further substantial improvements
p2436
sg339
I2
sg323
I21
sg340
I4
sba(isxpPackage
sxpSent
p2437
(dp2438
g335
(lp2439
I5
asg337
VWe conjecture that the gains are due to orthogonal information contributed by domain-knowledge, ranking-based word associations, and translation-based information
p2440
sg339
I2
sg323
I22
sg340
I4
sbasba(icmyPackage
CELink
p2441
(dp2442
g3
(lp2443
g5
(g6
g7
(lp2444
g5
(g6
g7
(lp2445
g5
(g6
g7
(lp2446
g5
(g6
g7
(lp2447
g5
(g6
g7
(lp2448
VThe
p2449
atp2450
Rp2451
(dp2452
g16
VDT
p2453
sbag5
(g6
g7
(lp2454
Vadvantage
p2455
atp2456
Rp2457
(dp2458
g16
VNN
p2459
sbatp2460
Rp2461
(dp2462
g16
VNP
p2463
sbag5
(g6
g7
(lp2464
g5
(g6
g7
(lp2465
Vof
p2466
atp2467
Rp2468
(dp2469
g16
VIN
p2470
sbag5
(g6
g7
(lp2471
g5
(g6
g7
(lp2472
Vthis
p2473
atp2474
Rp2475
(dp2476
g16
VDT
p2477
sbag5
(g6
g7
(lp2478
Vtechnique
p2479
atp2480
Rp2481
(dp2482
g16
VNN
p2483
sbatp2484
Rp2485
(dp2486
g16
VNP
p2487
sbatp2488
Rp2489
(dp2490
g16
VPP
p2491
sbatp2492
Rp2493
(dp2494
g16
VNP
p2495
sbag5
(g6
g7
(lp2496
g5
(g6
g7
(lp2497
Vis
p2498
atp2499
Rp2500
(dp2501
g16
VVBZ
p2502
sbag5
(g6
g7
(lp2503
g5
(g6
g7
(lp2504
g5
(g6
g7
(lp2505
Van
p2506
atp2507
Rp2508
(dp2509
g16
VDT
p2510
sbag5
(g6
g7
(lp2511
Vimplicit
p2512
atp2513
Rp2514
(dp2515
g16
VJJ
p2516
sbag5
(g6
g7
(lp2517
Vquery
p2518
atp2519
Rp2520
(dp2521
g16
VJJ
p2522
sbag5
(g6
g7
(lp2523
Vexpansion
p2524
atp2525
Rp2526
(dp2527
g16
VNN
p2528
sbag5
(g6
g7
(lp2529
Veffect
p2530
atp2531
Rp2532
(dp2533
g16
VNN
p2534
sbatp2535
Rp2536
(dp2537
g16
VNP
p2538
sbag5
(g6
g7
(lp2539
g5
(g6
g7
(lp2540
Vdue
p2541
atp2542
Rp2543
(dp2544
g16
VJJ
p2545
sbag5
(g6
g7
(lp2546
g5
(g6
g7
(lp2547
Vto
p2548
atp2549
Rp2550
(dp2551
g16
VTO
p2552
sbag5
(g6
g7
(lp2553
g5
(g6
g7
(lp2554
g5
(g6
g7
(lp2555
Vthe
p2556
atp2557
Rp2558
(dp2559
g16
VDT
p2560
sbag5
(g6
g7
(lp2561
Vuse
p2562
atp2563
Rp2564
(dp2565
g16
VNN
p2566
sbatp2567
Rp2568
(dp2569
g16
VNP
p2570
sbag5
(g6
g7
(lp2571
g5
(g6
g7
(lp2572
Vof
p2573
atp2574
Rp2575
(dp2576
g16
VIN
p2577
sbag5
(g6
g7
(lp2578
g5
(g6
g7
(lp2579
g5
(g6
g7
(lp2580
Vprobability
p2581
atp2582
Rp2583
(dp2584
g16
VNN
p2585
sbag5
(g6
g7
(lp2586
Vdistributions
p2587
atp2588
Rp2589
(dp2590
g16
VNNS
p2591
sbatp2592
Rp2593
(dp2594
g16
VNP
p2595
sbag5
(g6
g7
(lp2596
g5
(g6
g7
(lp2597
Vover
p2598
atp2599
Rp2600
(dp2601
g16
VIN
p2602
sbag5
(g6
g7
(lp2603
g5
(g6
g7
(lp2604
g5
(g6
g7
(lp2605
Vterm
p2606
atp2607
Rp2608
(dp2609
g16
VNN
p2610
sbag5
(g6
g7
(lp2611
Vtranslations
p2612
atp2613
Rp2614
(dp2615
g16
VNNS
p2616
sbatp2617
Rp2618
(dp2619
g16
VNP
p2620
sbag5
(g6
g7
(lp2621
g5
(g6
g7
(lp2622
V-LSB-
p2623
atp2624
Rp2625
(dp2626
g16
VVBG
p2627
sbag5
(g6
g7
(lp2628
g5
(g6
g7
(lp2629
V27
p2630
atp2631
Rp2632
(dp2633
g16
VCD
p2634
sbag5
(g6
g7
(lp2635
V-RSB-
p2636
atp2637
Rp2638
(dp2639
g16
VNNS
p2640
sbatp2641
Rp2642
(dp2643
g16
VNP
p2644
sbatp2645
Rp2646
(dp2647
g16
VVP
p2648
sbatp2649
Rp2650
(dp2651
g16
VNP
p2652
sbatp2653
Rp2654
(dp2655
g16
VPP
p2656
sbatp2657
Rp2658
(dp2659
g16
VNP
p2660
sbatp2661
Rp2662
(dp2663
g16
VPP
p2664
sbatp2665
Rp2666
(dp2667
g16
VNP
p2668
sbatp2669
Rp2670
(dp2671
g16
VPP
p2672
sbatp2673
Rp2674
(dp2675
g16
VADJP
p2676
sbatp2677
Rp2678
(dp2679
g16
VNP
p2680
sbatp2681
Rp2682
(dp2683
g16
VVP
p2684
sbatp2685
Rp2686
(dp2687
g16
g168
sbatp2688
Rp2689
(dp2690
g16
VROOT
p2691
sbasg286
(icmyPackage
CorE
p2692
(dp2693
g289
(lp2694
(I0
I13
tp2695
a(I0
I23
tp2696
asg293
g2666
sbsg294
(icmyPackage
CorE
p2697
(dp2698
g289
(lp2699
(I0
I0
tp2700
a(I0
I10
tp2701
asg293
g5
(g6
g7
(lp2702
g2493
ag2500
ag2536
atp2703
Rp2704
(dp2705
g16
g304
sbsbsg305
(icmyPackage
pattern
p2706
(dp2707
g308
I0
sg309
I0
sg310
(lp2708
(lp2709
S'due'
p2710
aS'to'
p2711
aasg318
(lp2712
I2
aI1
aI1
asg320
(lp2713
S'Data stored on hard disks is at higher risk due to the mechanical nature of the device.'
p2714
asg323
I72
sg324
(lp2715
(lp2716
S'&R'
p2717
aa(lp2718
S'&NP@C@'
p2719
aasbsg331
(lp2720
(isxpPackage
sxpSent
p2721
(dp2722
g335
(lp2723
I6
asg337
VThe advantage of this technique is an implicit query expansion effect due to the use of probability distributions over term translations [ 27 ]
p2724
sg339
I3
sg323
I28
sg340
I6
sbasba(icmyPackage
CELink
p2725
(dp2726
g3
(lp2727
g5
(g6
g7
(lp2728
g5
(g6
g7
(lp2729
g5
(g6
g7
(lp2730
g5
(g6
g7
(lp2731
g5
(g6
g7
(lp2732
V2012
p2733
atp2734
Rp2735
(dp2736
g16
VVB
p2737
sbag5
(g6
g7
(lp2738
V-RRB-
p2739
atp2740
Rp2741
(dp2742
g16
V-RRB-
p2743
sbag5
(g6
g7
(lp2744
g5
(g6
g7
(lp2745
Vbrought
p2746
atp2747
Rp2748
(dp2749
g16
VVBN
p2750
sbag5
(g6
g7
(lp2751
g5
(g6
g7
(lp2752
VSMT
p2753
atp2754
Rp2755
(dp2756
g16
VNNP
p2757
sbatp2758
Rp2759
(dp2760
g16
VNP
p2761
sbag5
(g6
g7
(lp2762
g5
(g6
g7
(lp2763
Vback
p2764
atp2765
Rp2766
(dp2767
g16
VRB
p2768
sbag5
(g6
g7
(lp2769
g5
(g6
g7
(lp2770
Vinto
p2771
atp2772
Rp2773
(dp2774
g16
VIN
p2775
sbag5
(g6
g7
(lp2776
g5
(g6
g7
(lp2777
Vthis
p2778
atp2779
Rp2780
(dp2781
g16
VDT
p2782
sbag5
(g6
g7
(lp2783
Vparadigm
p2784
atp2785
Rp2786
(dp2787
g16
VNN
p2788
sbatp2789
Rp2790
(dp2791
g16
VNP
p2792
sbatp2793
Rp2794
(dp2795
g16
VPP
p2796
sbatp2797
Rp2798
(dp2799
g16
VADVP
p2800
sbag5
(g6
g7
(lp2801
g5
(g6
g7
(lp2802
Vby
p2803
atp2804
Rp2805
(dp2806
g16
VIN
p2807
sbag5
(g6
g7
(lp2808
g5
(g6
g7
(lp2809
g5
(g6
g7
(lp2810
Vprojecting
p2811
atp2812
Rp2813
(dp2814
g16
VVBG
p2815
sbag5
(g6
g7
(lp2816
g5
(g6
g7
(lp2817
Vterms
p2818
atp2819
Rp2820
(dp2821
g16
VNNS
p2822
sbatp2823
Rp2824
(dp2825
g16
VNP
p2826
sbag5
(g6
g7
(lp2827
g5
(g6
g7
(lp2828
Vfrom
p2829
atp2830
Rp2831
(dp2832
g16
VIN
p2833
sbag5
(g6
g7
(lp2834
g5
(g6
g7
(lp2835
Vn
p2836
atp2837
Rp2838
(dp2839
g16
VNN
p2840
sbatp2841
Rp2842
(dp2843
g16
VNP
p2844
sbatp2845
Rp2846
(dp2847
g16
VPP
p2848
sbatp2849
Rp2850
(dp2851
g16
VVP
p2852
sbatp2853
Rp2854
(dp2855
g16
g168
sbatp2856
Rp2857
(dp2858
g16
VPP
p2859
sbatp2860
Rp2861
(dp2862
g16
VVP
p2863
sbatp2864
Rp2865
(dp2866
g16
VVP
p2867
sbag5
(g6
g7
(lp2868
V-
p2869
atp2870
Rp2871
(dp2872
g16
V:
p2873
sbag5
(g6
g7
(lp2874
g5
(g6
g7
(lp2875
g5
(g6
g7
(lp2876
Vbest
p2877
atp2878
Rp2879
(dp2880
g16
VJJS
p2881
sbag5
(g6
g7
(lp2882
Vtranslations
p2883
atp2884
Rp2885
(dp2886
g16
VNNS
p2887
sbatp2888
Rp2889
(dp2890
g16
VNP
p2891
sbag5
(g6
g7
(lp2892
g5
(g6
g7
(lp2893
Vfrom
p2894
atp2895
Rp2896
(dp2897
g16
VIN
p2898
sbag5
(g6
g7
(lp2899
g5
(g6
g7
(lp2900
Vsynchronous
p2901
atp2902
Rp2903
(dp2904
g16
VJJ
p2905
sbag5
(g6
g7
(lp2906
Vcontext-free
p2907
atp2908
Rp2909
(dp2910
g16
VJJ
p2911
sbag5
(g6
g7
(lp2912
Vgrammars
p2913
atp2914
Rp2915
(dp2916
g16
VNNS
p2917
sbatp2918
Rp2919
(dp2920
g16
VNP
p2921
sbatp2922
Rp2923
(dp2924
g16
VPP
p2925
sbatp2926
Rp2927
(dp2928
g16
VVP
p2929
sbatp2930
Rp2931
(dp2932
g16
VVP
p2933
sbatp2934
Rp2935
(dp2936
g16
g168
sbatp2937
Rp2938
(dp2939
g16
VROOT
p2940
sbasg286
(icmyPackage
CorE
p2941
(dp2942
g289
(lp2943
(I0
I9
tp2944
a(I0
I12
tp2945
asg293
g2854
sbsg294
(icmyPackage
CorE
p2946
(dp2947
g289
(lp2948
(I0
I13
tp2949
a(I0
I19
tp2950
asg293
g5
(g6
g7
(lp2951
g2871
ag2927
atp2952
Rp2953
(dp2954
g16
g304
sbsbsg305
(icmyPackage
pattern
p2955
(dp2956
g308
I0
sg309
I0
sg310
(lp2957
(lp2958
(lp2959
S'by'
p2960
aS'through'
p2961
aaasg318
(lp2962
I2
aI1
aI1
asg320
(lp2963
S'By extracting comments and comparisons of the cited articles and then organizing them according to the time of publication discovers and displays how the area has developed as a research literature.'
p2964
asg323
I67
sg324
(lp2965
(lp2966
a(lp2967
S'&V-ing@C@'
p2968
aS'&R'
p2969
aasbsg331
(lp2970
(isxpPackage
sxpSent
p2971
(dp2972
g335
(lp2973
I7
asg337
V2012 ) brought SMT back into this paradigm by projecting terms from n -best translations from synchronous context-free grammars
p2974
sg339
I3
sg323
I30
sg340
I6
sbasba(icmyPackage
CELink
p2975
(dp2976
g3
(lp2977
g5
(g6
g7
(lp2978
g5
(g6
g7
(lp2979
g5
(g6
g7
(lp2980
g5
(g6
g7
(lp2981
VWe
p2982
atp2983
Rp2984
(dp2985
g16
VPRP
p2986
sbatp2987
Rp2988
(dp2989
g16
VNP
p2990
sbag5
(g6
g7
(lp2991
g5
(g6
g7
(lp2992
Vwill
p2993
atp2994
Rp2995
(dp2996
g16
VMD
p2997
sbag5
(g6
g7
(lp2998
g5
(g6
g7
(lp2999
g5
(g6
g7
(lp3000
Vrefer
p3001
atp3002
Rp3003
(dp3004
g16
VVB
p3005
sbag5
(g6
g7
(lp3006
g5
(g6
g7
(lp3007
Vto
p3008
atp3009
Rp3010
(dp3011
g16
VTO
p3012
sbag5
(g6
g7
(lp3013
g5
(g6
g7
(lp3014
VDT
p3015
atp3016
Rp3017
(dp3018
g16
VNNP
p3019
sbag5
(g6
g7
(lp3020
Vand
p3021
atp3022
Rp3023
(dp3024
g16
VCC
p3025
sbag5
(g6
g7
(lp3026
VPSQ
p3027
atp3028
Rp3029
(dp3030
g16
VNNP
p3031
sbatp3032
Rp3033
(dp3034
g16
VNP
p3035
sbatp3036
Rp3037
(dp3038
g16
VPP
p3039
sbag5
(g6
g7
(lp3040
g5
(g6
g7
(lp3041
Vas
p3042
atp3043
Rp3044
(dp3045
g16
VIN
p3046
sbag5
(g6
g7
(lp3047
g5
(g6
g7
(lp3048
g5
(g6
g7
(lp3049
VSMT-based
p3050
atp3051
Rp3052
(dp3053
g16
VJJ
p3054
sbag5
(g6
g7
(lp3055
Vmodels
p3056
atp3057
Rp3058
(dp3059
g16
VNNS
p3060
sbatp3061
Rp3062
(dp3063
g16
VNP
p3064
sbag5
(g6
g7
(lp3065
g5
(g6
g7
(lp3066
g5
(g6
g7
(lp3067
Vthat
p3068
atp3069
Rp3070
(dp3071
g16
VWDT
p3072
sbatp3073
Rp3074
(dp3075
g16
VWHNP
p3076
sbag5
(g6
g7
(lp3077
g5
(g6
g7
(lp3078
g5
(g6
g7
(lp3079
Vtranslate
p3080
atp3081
Rp3082
(dp3083
g16
VVB
p3084
sbag5
(g6
g7
(lp3085
g5
(g6
g7
(lp3086
g1291
atp3087
Rp3088
(dp3089
g16
VDT
p3090
sbag5
(g6
g7
(lp3091
Vquery
p3092
atp3093
Rp3094
(dp3095
g16
VNN
p3096
sbatp3097
Rp3098
(dp3099
g16
VNP
p3100
sbatp3101
Rp3102
(dp3103
g16
VVP
p3104
sbatp3105
Rp3106
(dp3107
g16
g168
sbatp3108
Rp3109
(dp3110
g16
VSBAR
p3111
sbatp3112
Rp3113
(dp3114
g16
VNP
p3115
sbatp3116
Rp3117
(dp3118
g16
VPP
p3119
sbatp3120
Rp3121
(dp3122
g16
VVP
p3123
sbag5
(g6
g7
(lp3124
g181
atp3125
Rp3126
(dp3127
g16
g181
sbag5
(g6
g7
(lp3128
Vand
p3129
atp3130
Rp3131
(dp3132
g16
VCC
p3133
sbag5
(g6
g7
(lp3134
g5
(g6
g7
(lp3135
Vthen
p3136
atp3137
Rp3138
(dp3139
g16
VRB
p3140
sbatp3141
Rp3142
(dp3143
g16
VADVP
p3144
sbag5
(g6
g7
(lp3145
g5
(g6
g7
(lp3146
Vperform
p3147
atp3148
Rp3149
(dp3150
g16
VVB
p3151
sbag5
(g6
g7
(lp3152
g5
(g6
g7
(lp3153
Vmonolingual
p3154
atp3155
Rp3156
(dp3157
g16
VJJ
p3158
sbag5
(g6
g7
(lp3159
Vretrieval
p3160
atp3161
Rp3162
(dp3163
g16
VNN
p3164
sbatp3165
Rp3166
(dp3167
g16
VNP
p3168
sbag5
(g6
g7
(lp3169
g5
(g6
g7
(lp3170
g5
(g6
g7
(lp3171
Vusing
p3172
atp3173
Rp3174
(dp3175
g16
VVBG
p3176
sbag5
(g6
g7
(lp3177
g5
(g6
g7
(lp3178
VBM25
p3179
atp3180
Rp3181
(dp3182
g16
VNNP
p3183
sbatp3184
Rp3185
(dp3186
g16
VNP
p3187
sbatp3188
Rp3189
(dp3190
g16
VVP
p3191
sbatp3192
Rp3193
(dp3194
g16
g168
sbatp3195
Rp3196
(dp3197
g16
VVP
p3198
sbatp3199
Rp3200
(dp3201
g16
VVP
p3202
sbatp3203
Rp3204
(dp3205
g16
VVP
p3206
sbatp3207
Rp3208
(dp3209
g16
g168
sbatp3210
Rp3211
(dp3212
g16
VROOT
p3213
sbag5
(g6
g7
(lp3214
g5
(g6
g7
(lp3215
g5
(g6
g7
(lp3216
g5
(g6
g7
(lp3217
VTranslation
p3218
atp3219
Rp3220
(dp3221
g16
VNN
p3222
sbatp3223
Rp3224
(dp3225
g16
VNP
p3226
sbag5
(g6
g7
(lp3227
g5
(g6
g7
(lp3228
Vis
p3229
atp3230
Rp3231
(dp3232
g16
VVBZ
p3233
sbag5
(g6
g7
(lp3234
g5
(g6
g7
(lp3235
Vagnostic
p3236
atp3237
Rp3238
(dp3239
g16
VJJ
p3240
sbag5
(g6
g7
(lp3241
g5
(g6
g7
(lp3242
Vof
p3243
atp3244
Rp3245
(dp3246
g16
VIN
p3247
sbag5
(g6
g7
(lp3248
g5
(g6
g7
(lp3249
Vthe
p3250
atp3251
Rp3252
(dp3253
g16
VDT
p3254
sbag5
(g6
g7
(lp3255
Vretrieval
p3256
atp3257
Rp3258
(dp3259
g16
VNN
p3260
sbag5
(g6
g7
(lp3261
Vtask
p3262
atp3263
Rp3264
(dp3265
g16
VNN
p3266
sbatp3267
Rp3268
(dp3269
g16
VNP
p3270
sbatp3271
Rp3272
(dp3273
g16
VPP
p3274
sbatp3275
Rp3276
(dp3277
g16
VADJP
p3278
sbatp3279
Rp3280
(dp3281
g16
VVP
p3282
sbatp3283
Rp3284
(dp3285
g16
g168
sbatp3286
Rp3287
(dp3288
g16
VROOT
p3289
sbasg286
(icmyPackage
CorE
p3290
(dp3291
g289
(lp3292
(I0
I8
tp3293
a(I1
I3
tp3294
asg293
g5
(g6
g7
(lp3295
g3113
ag3126
ag3131
ag3142
ag3196
ag3224
ag3231
ag3238
ag3245
atp3296
Rp3297
(dp3298
g16
g304
sbsbsg294
(icmyPackage
CorE
p3299
(dp3300
g289
(lp3301
(I0
I0
tp3302
a(I0
I6
tp3303
asg293
g5
(g6
g7
(lp3304
g2988
ag2995
ag3003
ag3037
atp3305
Rp3306
(dp3307
g16
g304
sbsbsg305
g2416
sg331
(lp3308
(isxpPackage
sxpSent
p3309
(dp3310
g335
(lp3311
I8
asg337
VWe will refer to DT and PSQ as SMT-based models that translate a query, and then perform monolingual retrieval using BM25
p3312
sg339
I4
sg323
I41
sg340
I9
sba(isxpPackage
sxpSent
p3313
(dp3314
g335
(lp3315
I8
asg337
VTranslation is agnostic of the retrieval task
p3316
sg339
I4
sg323
I42
sg340
I9
sbasba(icmyPackage
CELink
p3317
(dp3318
g3
(lp3319
g5
(g6
g7
(lp3320
g5
(g6
g7
(lp3321
g5
(g6
g7
(lp3322
g5
(g6
g7
(lp3323
VWe
p3324
atp3325
Rp3326
(dp3327
g16
VPRP
p3328
sbatp3329
Rp3330
(dp3331
g16
VNP
p3332
sbag5
(g6
g7
(lp3333
g5
(g6
g7
(lp3334
Vpresent
p3335
atp3336
Rp3337
(dp3338
g16
VVBP
p3339
sbag5
(g6
g7
(lp3340
g5
(g6
g7
(lp3341
Vtwo
p3342
atp3343
Rp3344
(dp3345
g16
VCD
p3346
sbag5
(g6
g7
(lp3347
Vmethods
p3348
atp3349
Rp3350
(dp3351
g16
VNNS
p3352
sbatp3353
Rp3354
(dp3355
g16
VNP
p3356
sbag5
(g6
g7
(lp3357
g5
(g6
g7
(lp3358
Vfor
p3359
atp3360
Rp3361
(dp3362
g16
VIN
p3363
sbag5
(g6
g7
(lp3364
g5
(g6
g7
(lp3365
g5
(g6
g7
(lp3366
Voptimizing
p3367
atp3368
Rp3369
(dp3370
g16
VVBG
p3371
sbag5
(g6
g7
(lp3372
g5
(g6
g7
(lp3373
g5
(g6
g7
(lp3374
VW
p3375
atp3376
Rp3377
(dp3378
g16
VNNP
p3379
sbatp3380
Rp3381
(dp3382
g16
VNP
p3383
sbag5
(g6
g7
(lp3384
g5
(g6
g7
(lp3385
Vin
p3386
atp3387
Rp3388
(dp3389
g16
VIN
p3390
sbag5
(g6
g7
(lp3391
g5
(g6
g7
(lp3392
Vthe
p3393
atp3394
Rp3395
(dp3396
g16
VDT
p3397
sbag5
(g6
g7
(lp3398
Vfollowing
p3399
atp3400
Rp3401
(dp3402
g16
VNN
p3403
sbatp3404
Rp3405
(dp3406
g16
VNP
p3407
sbatp3408
Rp3409
(dp3410
g16
VPP
p3411
sbatp3412
Rp3413
(dp3414
g16
VNP
p3415
sbatp3416
Rp3417
(dp3418
g16
VVP
p3419
sbatp3420
Rp3421
(dp3422
g16
g168
sbatp3423
Rp3424
(dp3425
g16
VPP
p3426
sbatp3427
Rp3428
(dp3429
g16
VVP
p3430
sbatp3431
Rp3432
(dp3433
g16
g168
sbatp3434
Rp3435
(dp3436
g16
VROOT
p3437
sbasg286
(icmyPackage
CorE
p3438
(dp3439
g289
(lp3440
(I0
I5
tp3441
a(I0
I9
tp3442
asg293
g3421
sbsg294
(icmyPackage
CorE
p3443
(dp3444
g289
(lp3445
(I0
I0
tp3446
a(I0
I3
tp3447
asg293
g5
(g6
g7
(lp3448
g3330
ag3337
ag3354
atp3449
Rp3450
(dp3451
g16
g304
sbsbsg305
(icmyPackage
pattern
p3452
(dp3453
g308
I25
sg309
I0
sg310
(lp3454
(lp3455
S'for'
p3456
aasg318
(lp3457
I2
aI1
aI1
asg320
(lp3458
S'She was angry with him for being late.'
p3459
asg323
I44
sg324
(lp3460
(lp3461
S'&R'
p3462
aa(lp3463
S'&V-ing@C@'
p3464
aasbsg331
(lp3465
(isxpPackage
sxpSent
p3466
(dp3467
g335
(lp3468
I9
asg337
VWe present two methods for optimizing W in the following
p3469
sg339
I4
sg323
I48
sg340
I11
sbasba(icmyPackage
CELink
p3470
(dp3471
g3
(lp3472
g5
(g6
g7
(lp3473
g5
(g6
g7
(lp3474
g5
(g6
g7
(lp3475
g5
(g6
g7
(lp3476
VMemory
p3477
atp3478
Rp3479
(dp3480
g16
VNN
p3481
sbag5
(g6
g7
(lp3482
Vusage
p3483
atp3484
Rp3485
(dp3486
g16
VNN
p3487
sbatp3488
Rp3489
(dp3490
g16
VNP
p3491
sbag5
(g6
g7
(lp3492
g5
(g6
g7
(lp3493
Vwas
p3494
atp3495
Rp3496
(dp3497
g16
VVBD
p3498
sbag5
(g6
g7
(lp3499
g5
(g6
g7
(lp3500
Vreduced
p3501
atp3502
Rp3503
(dp3504
g16
VVBN
p3505
sbag5
(g6
g7
(lp3506
g5
(g6
g7
(lp3507
g5
(g6
g7
(lp3508
Vusing
p3509
atp3510
Rp3511
(dp3512
g16
VVBG
p3513
sbag5
(g6
g7
(lp3514
g5
(g6
g7
(lp3515
Vthe
p3516
atp3517
Rp3518
(dp3519
g16
VDT
p3520
sbag5
(g6
g7
(lp3521
Vsame
p3522
atp3523
Rp3524
(dp3525
g16
VJJ
p3526
sbag5
(g6
g7
(lp3527
Vhashing
p3528
atp3529
Rp3530
(dp3531
g16
VJJ
p3532
sbag5
(g6
g7
(lp3533
Vtechnique
p3534
atp3535
Rp3536
(dp3537
g16
VNN
p3538
sbatp3539
Rp3540
(dp3541
g16
VNP
p3542
sbag5
(g6
g7
(lp3543
g5
(g6
g7
(lp3544
Vas
p3545
atp3546
Rp3547
(dp3548
g16
VRB
p3549
sbag5
(g6
g7
(lp3550
Vfor
p3551
atp3552
Rp3553
(dp3554
g16
VIN
p3555
sbag5
(g6
g7
(lp3556
g5
(g6
g7
(lp3557
g5
(g6
g7
(lp3558
Vboosting
p3559
atp3560
Rp3561
(dp3562
g16
VVBG
p3563
sbatp3564
Rp3565
(dp3566
g16
VVP
p3567
sbatp3568
Rp3569
(dp3570
g16
g168
sbatp3571
Rp3572
(dp3573
g16
VPP
p3574
sbatp3575
Rp3576
(dp3577
g16
VVP
p3578
sbatp3579
Rp3580
(dp3581
g16
g168
sbatp3582
Rp3583
(dp3584
g16
VVP
p3585
sbatp3586
Rp3587
(dp3588
g16
VVP
p3589
sbatp3590
Rp3591
(dp3592
g16
g168
sbatp3593
Rp3594
(dp3595
g16
VROOT
p3596
sbasg286
(icmyPackage
CorE
p3597
(dp3598
g289
(lp3599
(I0
I11
tp3600
ag3600
asg293
g3569
sbsg294
(icmyPackage
CorE
p3601
(dp3602
g289
(lp3603
(I0
I0
tp3604
a(I0
I9
tp3605
asg293
g5
(g6
g7
(lp3606
g3489
ag3496
ag3503
ag3511
ag3540
ag3547
atp3607
Rp3608
(dp3609
g16
g304
sbsbsg305
g3452
sg331
(lp3610
(isxpPackage
sxpSent
p3611
(dp3612
g335
(lp3613
I10
asg337
VMemory usage was reduced using the same hashing technique as for boosting
p3614
sg339
I4
sg323
I61
sg340
I15
sbasba(icmyPackage
CELink
p3615
(dp3616
g3
(lp3617
g5
(g6
g7
(lp3618
g5
(g6
g7
(lp3619
g5
(g6
g7
(lp3620
g5
(g6
g7
(lp3621
VDomain
p3622
atp3623
Rp3624
(dp3625
g16
VVBG
p3626
sbag5
(g6
g7
(lp3627
g5
(g6
g7
(lp3628
Vknowledge
p3629
atp3630
Rp3631
(dp3632
g16
VNN
p3633
sbag5
(g6
g7
(lp3634
Vfeatures
p3635
atp3636
Rp3637
(dp3638
g16
VNNS
p3639
sbatp3640
Rp3641
(dp3642
g16
VNP
p3643
sbag5
(g6
g7
(lp3644
g5
(g6
g7
(lp3645
Vfor
p3646
atp3647
Rp3648
(dp3649
g16
VIN
p3650
sbag5
(g6
g7
(lp3651
g5
(g6
g7
(lp3652
Vpatents
p3653
atp3654
Rp3655
(dp3656
g16
VNNS
p3657
sbatp3658
Rp3659
(dp3660
g16
VNP
p3661
sbatp3662
Rp3663
(dp3664
g16
VPP
p3665
sbatp3666
Rp3667
(dp3668
g16
VVP
p3669
sbag5
(g6
g7
(lp3670
g5
(g6
g7
(lp3671
Vwere
p3672
atp3673
Rp3674
(dp3675
g16
VVBD
p3676
sbag5
(g6
g7
(lp3677
g5
(g6
g7
(lp3678
Vinspired
p3679
atp3680
Rp3681
(dp3682
g16
VVBN
p3683
sbag5
(g6
g7
(lp3684
g5
(g6
g7
(lp3685
Vby
p3686
atp3687
Rp3688
(dp3689
g16
VIN
p3690
sbag5
(g6
g7
(lp3691
g5
(g6
g7
(lp3692
g5
(g6
g7
(lp3693
VGuo
p3694
atp3695
Rp3696
(dp3697
g16
VNNP
p3698
sbatp3699
Rp3700
(dp3701
g16
VNP
p3702
sbag5
(g6
g7
(lp3703
Vand
p3704
atp3705
Rp3706
(dp3707
g16
VCC
p3708
sbag5
(g6
g7
(lp3709
g5
(g6
g7
(lp3710
g5
(g6
g7
(lp3711
VGomes
p3712
atp3713
Rp3714
(dp3715
g16
VNNP
p3716
sbatp3717
Rp3718
(dp3719
g16
VNP
p3720
sbag5
(g6
g7
(lp3721
V-LRB-
p3722
atp3723
Rp3724
(dp3725
g16
V-LRB-
p3726
sbag5
(g6
g7
(lp3727
g5
(g6
g7
(lp3728
g5
(g6
g7
(lp3729
V2009
p3730
atp3731
Rp3732
(dp3733
g16
VCD
p3734
sbatp3735
Rp3736
(dp3737
g16
VNP
p3738
sbag5
(g6
g7
(lp3739
g5
(g6
g7
(lp3740
g5
(g6
g7
(lp3741
g5
(g6
g7
(lp3742
g1291
atp3743
Rp3744
(dp3745
g16
VDT
p3746
sbag5
(g6
g7
(lp3747
Vfeature
p3748
atp3749
Rp3750
(dp3751
g16
VNN
p3752
sbatp3753
Rp3754
(dp3755
g16
VNP
p3756
sbag5
(g6
g7
(lp3757
g5
(g6
g7
(lp3758
Vfires
p3759
atp3760
Rp3761
(dp3762
g16
VVBZ
p3763
sbag5
(g6
g7
(lp3764
g5
(g6
g7
(lp3765
Vif
p3766
atp3767
Rp3768
(dp3769
g16
VIN
p3770
sbag5
(g6
g7
(lp3771
g5
(g6
g7
(lp3772
g5
(g6
g7
(lp3773
Vtwo
p3774
atp3775
Rp3776
(dp3777
g16
VCD
p3778
sbag5
(g6
g7
(lp3779
Vpatents
p3780
atp3781
Rp3782
(dp3783
g16
VNNS
p3784
sbatp3785
Rp3786
(dp3787
g16
VNP
p3788
sbag5
(g6
g7
(lp3789
g5
(g6
g7
(lp3790
Vshare
p3791
atp3792
Rp3793
(dp3794
g16
VVBP
p3795
sbag5
(g6
g7
(lp3796
g5
(g6
g7
(lp3797
Vsimilar
p3798
atp3799
Rp3800
(dp3801
g16
VJJ
p3802
sbag5
(g6
g7
(lp3803
Vaspects
p3804
atp3805
Rp3806
(dp3807
g16
VNNS
p3808
sbatp3809
Rp3810
(dp3811
g16
VNP
p3812
sbatp3813
Rp3814
(dp3815
g16
VVP
p3816
sbatp3817
Rp3818
(dp3819
g16
g168
sbatp3820
Rp3821
(dp3822
g16
VSBAR
p3823
sbatp3824
Rp3825
(dp3826
g16
VVP
p3827
sbatp3828
Rp3829
(dp3830
g16
g168
sbatp3831
Rp3832
(dp3833
g16
VSBAR
p3834
sbatp3835
Rp3836
(dp3837
g16
VNP
p3838
sbag5
(g6
g7
(lp3839
g181
atp3840
Rp3841
(dp3842
g16
g181
sbatp3843
Rp3844
(dp3845
g16
VNP
p3846
sbatp3847
Rp3848
(dp3849
g16
VNP
p3850
sbatp3851
Rp3852
(dp3853
g16
VPP
p3854
sbatp3855
Rp3856
(dp3857
g16
VVP
p3858
sbatp3859
Rp3860
(dp3861
g16
VVP
p3862
sbag5
(g6
g7
(lp3863
g5
(g6
g7
(lp3864
g5
(g6
g7
(lp3865
Ve.g.
p3866
atp3867
Rp3868
(dp3869
g16
VNNP
p3870
sbatp3871
Rp3872
(dp3873
g16
VNP
p3874
sbag5
(g6
g7
(lp3875
g181
atp3876
Rp3877
(dp3878
g16
g181
sbag5
(g6
g7
(lp3879
g5
(g6
g7
(lp3880
g1291
atp3881
Rp3882
(dp3883
g16
VDT
p3884
sbag5
(g6
g7
(lp3885
Vcommon
p3886
atp3887
Rp3888
(dp3889
g16
VJJ
p3890
sbag5
(g6
g7
(lp3891
Vinventor
p3892
atp3893
Rp3894
(dp3895
g16
VNN
p3896
sbatp3897
Rp3898
(dp3899
g16
VNP
p3900
sbatp3901
Rp3902
(dp3903
g16
VNP
p3904
sbatp3905
Rp3906
(dp3907
g16
VSINV
p3908
sbatp3909
Rp3910
(dp3911
g16
VROOT
p3912
sbasg286
(icmyPackage
CorE
p3913
(dp3914
g289
(lp3915
(I0
I17
tp3916
a(I0
I22
tp3917
asg293
g5
(g6
g7
(lp3918
g3818
ag3841
atp3919
Rp3920
(dp3921
g16
g304
sbsbsg294
(icmyPackage
CorE
p3922
(dp3923
g289
(lp3924
(I0
I0
tp3925
a(I0
I15
tp3926
asg293
g5
(g6
g7
(lp3927
g3667
ag3674
ag3681
ag3688
ag3700
ag3706
ag3718
ag3724
ag3736
ag3754
ag3761
atp3928
Rp3929
(dp3930
g16
g304
sbsbsg305
g701
sg331
(lp3931
(isxpPackage
sxpSent
p3932
(dp3933
g335
(lp3934
I11
aI12
asg337
VDomain knowledge features for patents were inspired by Guo and Gomes ( 2009 a feature fires if two patents share similar aspects, e.g., a common inventor
p3935
sg339
I4
sg323
I62
sg340
I16
sbasba(icmyPackage
CELink
p3936
(dp3937
g3
(lp3938
g3910
ag5
(g6
g7
(lp3939
g5
(g6
g7
(lp3940
g5
(g6
g7
(lp3941
g5
(g6
g7
(lp3942
VAs
p3943
atp3944
Rp3945
(dp3946
g16
VIN
p3947
sbag5
(g6
g7
(lp3948
g5
(g6
g7
(lp3949
g5
(g6
g7
(lp3950
Vwe
p3951
atp3952
Rp3953
(dp3954
g16
VPRP
p3955
sbatp3956
Rp3957
(dp3958
g16
VNP
p3959
sbag5
(g6
g7
(lp3960
g5
(g6
g7
(lp3961
Vdo
p3962
atp3963
Rp3964
(dp3965
g16
VVBP
p3966
sbag5
(g6
g7
(lp3967
Vnot
p3968
atp3969
Rp3970
(dp3971
g16
VRB
p3972
sbag5
(g6
g7
(lp3973
g5
(g6
g7
(lp3974
Vhave
p3975
atp3976
Rp3977
(dp3978
g16
VVB
p3979
sbag5
(g6
g7
(lp3980
g5
(g6
g7
(lp3981
Vaccess
p3982
atp3983
Rp3984
(dp3985
g16
VNN
p3986
sbatp3987
Rp3988
(dp3989
g16
VNP
p3990
sbag5
(g6
g7
(lp3991
g5
(g6
g7
(lp3992
g5
(g6
g7
(lp3993
Vto
p3994
atp3995
Rp3996
(dp3997
g16
VTO
p3998
sbag5
(g6
g7
(lp3999
g5
(g6
g7
(lp4000
Vaddress
p4001
atp4002
Rp4003
(dp4004
g16
VVB
p4005
sbag5
(g6
g7
(lp4006
g5
(g6
g7
(lp4007
Vdata
p4008
atp4009
Rp4010
(dp4011
g16
VNNS
p4012
sbatp4013
Rp4014
(dp4015
g16
VNP
p4016
sbatp4017
Rp4018
(dp4019
g16
VVP
p4020
sbatp4021
Rp4022
(dp4023
g16
VVP
p4024
sbatp4025
Rp4026
(dp4027
g16
g168
sbatp4028
Rp4029
(dp4030
g16
VVP
p4031
sbatp4032
Rp4033
(dp4034
g16
VVP
p4035
sbatp4036
Rp4037
(dp4038
g16
g168
sbatp4039
Rp4040
(dp4041
g16
VSBAR
p4042
sbag5
(g6
g7
(lp4043
g181
atp4044
Rp4045
(dp4046
g16
g181
sbag5
(g6
g7
(lp4047
g5
(g6
g7
(lp4048
Vwe
p4049
atp4050
Rp4051
(dp4052
g16
VPRP
p4053
sbatp4054
Rp4055
(dp4056
g16
VNP
p4057
sbag5
(g6
g7
(lp4058
g5
(g6
g7
(lp4059
g5
(g6
g7
(lp4060
Vomit
p4061
atp4062
Rp4063
(dp4064
g16
VVBP
p4065
sbag5
(g6
g7
(lp4066
g5
(g6
g7
(lp4067
Vgeolocation
p4068
atp4069
Rp4070
(dp4071
g16
VNN
p4072
sbag5
(g6
g7
(lp4073
Vfeatures
p4074
atp4075
Rp4076
(dp4077
g16
VNNS
p4078
sbatp4079
Rp4080
(dp4081
g16
VNP
p4082
sbatp4083
Rp4084
(dp4085
g16
VVP
p4086
sbag5
(g6
g7
(lp4087
Vand
p4088
atp4089
Rp4090
(dp4091
g16
VCC
p4092
sbag5
(g6
g7
(lp4093
g5
(g6
g7
(lp4094
g5
(g6
g7
(lp4095
Vinstead
p4096
atp4097
Rp4098
(dp4099
g16
VRB
p4100
sbatp4101
Rp4102
(dp4103
g16
VADVP
p4104
sbag5
(g6
g7
(lp4105
Vadd
p4106
atp4107
Rp4108
(dp4109
g16
VVBP
p4110
sbag5
(g6
g7
(lp4111
g5
(g6
g7
(lp4112
g5
(g6
g7
(lp4113
Vfeatures
p4114
atp4115
Rp4116
(dp4117
g16
VNNS
p4118
sbatp4119
Rp4120
(dp4121
g16
VNP
p4122
sbag5
(g6
g7
(lp4123
g5
(g6
g7
(lp4124
g5
(g6
g7
(lp4125
Vthat
p4126
atp4127
Rp4128
(dp4129
g16
VWDT
p4130
sbatp4131
Rp4132
(dp4133
g16
VWHNP
p4134
sbag5
(g6
g7
(lp4135
g5
(g6
g7
(lp4136
g5
(g6
g7
(lp4137
Vevaluate
p4138
atp4139
Rp4140
(dp4141
g16
VVB
p4142
sbag5
(g6
g7
(lp4143
g5
(g6
g7
(lp4144
g5
(g6
g7
(lp4145
Vsimilarity
p4146
atp4147
Rp4148
(dp4149
g16
VNN
p4150
sbag5
(g6
g7
(lp4151
Vw.r.t
p4152
atp4153
Rp4154
(dp4155
g16
VNN
p4156
sbag5
(g6
g7
(lp4157
Vpatent
p4158
atp4159
Rp4160
(dp4161
g16
VNN
p4162
sbag5
(g6
g7
(lp4163
Vclasses
p4164
atp4165
Rp4166
(dp4167
g16
VNNS
p4168
sbatp4169
Rp4170
(dp4171
g16
VNP
p4172
sbag5
(g6
g7
(lp4173
g5
(g6
g7
(lp4174
Vextracted
p4175
atp4176
Rp4177
(dp4178
g16
VVBN
p4179
sbag5
(g6
g7
(lp4180
g5
(g6
g7
(lp4181
Vfrom
p4182
atp4183
Rp4184
(dp4185
g16
VIN
p4186
sbag5
(g6
g7
(lp4187
g5
(g6
g7
(lp4188
VIPC
p4189
atp4190
Rp4191
(dp4192
g16
VNNP
p4193
sbag5
(g6
g7
(lp4194
Vcodes
p4195
atp4196
Rp4197
(dp4198
g16
VNNS
p4199
sbatp4200
Rp4201
(dp4202
g16
VNP
p4203
sbatp4204
Rp4205
(dp4206
g16
VPP
p4207
sbatp4208
Rp4209
(dp4210
g16
VVP
p4211
sbatp4212
Rp4213
(dp4214
g16
VNP
p4215
sbatp4216
Rp4217
(dp4218
g16
VVP
p4219
sbatp4220
Rp4221
(dp4222
g16
g168
sbatp4223
Rp4224
(dp4225
g16
VSBAR
p4226
sbatp4227
Rp4228
(dp4229
g16
VNP
p4230
sbatp4231
Rp4232
(dp4233
g16
VVP
p4234
sbatp4235
Rp4236
(dp4237
g16
VVP
p4238
sbatp4239
Rp4240
(dp4241
g16
g168
sbatp4242
Rp4243
(dp4244
g16
VROOT
p4245
sbasg286
(icmyPackage
CorE
p4246
(dp4247
g289
(lp4248
(I1
I1
tp4249
a(I1
I23
tp4250
asg293
g5
(g6
g7
(lp4251
g4037
ag4045
ag4055
ag4084
ag4090
ag4102
ag4108
ag4120
ag4132
ag4140
ag4170
atp4252
Rp4253
(dp4254
g16
g304
sbsbsg294
(icmyPackage
CorE
p4255
(dp4256
g289
(lp4257
(I0
I1
tp4258
a(I0
I27
tp4259
asg293
g5
(g6
g7
(lp4260
g3641
ag3663
ag3860
ag3902
atp4261
Rp4262
(dp4263
g16
g304
sbsbsg305
g2416
sg331
(lp4264
g3932
a(isxpPackage
sxpSent
p4265
(dp4266
g335
(lp4267
I12
asg337
VAs we do not have access to address data, we omit geolocation features and instead add features that evaluate similarity w.r.t patent classes extracted from IPC codes
p4268
sg339
I4
sg323
I63
sg340
I16
sbasba(icmyPackage
CELink
p4269
(dp4270
g3
(lp4271
g5
(g6
g7
(lp4272
g5
(g6
g7
(lp4273
g5
(g6
g7
(lp4274
g5
(g6
g7
(lp4275
g5
(g6
g7
(lp4276
VThe
p4277
atp4278
Rp4279
(dp4280
g16
VDT
p4281
sbag5
(g6
g7
(lp4282
Vintersection
p4283
atp4284
Rp4285
(dp4286
g16
VNN
p4287
sbatp4288
Rp4289
(dp4290
g16
VNP
p4291
sbag5
(g6
g7
(lp4292
g5
(g6
g7
(lp4293
Vbetween
p4294
atp4295
Rp4296
(dp4297
g16
VIN
p4298
sbag5
(g6
g7
(lp4299
g5
(g6
g7
(lp4300
Vtarget
p4301
atp4302
Rp4303
(dp4304
g16
VNN
p4305
sbatp4306
Rp4307
(dp4308
g16
VNP
p4309
sbatp4310
Rp4311
(dp4312
g16
VPP
p4313
sbatp4314
Rp4315
(dp4316
g16
VNP
p4317
sbag5
(g6
g7
(lp4318
g5
(g6
g7
(lp4319
Vset
p4320
atp4321
Rp4322
(dp4323
g16
VVBD
p4324
sbag5
(g6
g7
(lp4325
g5
(g6
g7
(lp4326
g5
(g6
g7
(lp4327
g5
(g6
g7
(lp4328
g5
(g6
g7
(lp4329
VT
p4330
atp4331
Rp4332
(dp4333
g16
VNNP
p4334
sbag5
(g6
g7
(lp4335
g2836
atp4336
Rp4337
(dp4338
g16
VNNP
p4339
sbatp4340
Rp4341
(dp4342
g16
VNP
p4343
sbag5
(g6
g7
(lp4344
Vand
p4345
atp4346
Rp4347
(dp4348
g16
VCC
p4349
sbag5
(g6
g7
(lp4350
g5
(g6
g7
(lp4351
Vthe
p4352
atp4353
Rp4354
(dp4355
g16
VDT
p4356
sbag5
(g6
g7
(lp4357
Vsource
p4358
atp4359
Rp4360
(dp4361
g16
VNN
p4362
sbag5
(g6
g7
(lp4363
Vcategory
p4364
atp4365
Rp4366
(dp4367
g16
VNN
p4368
sbatp4369
Rp4370
(dp4371
g16
VNP
p4372
sbatp4373
Rp4374
(dp4375
g16
VNP
p4376
sbag5
(g6
g7
(lp4377
g5
(g6
g7
(lp4378
Vset
p4379
atp4380
Rp4381
(dp4382
g16
VVBD
p4383
sbag5
(g6
g7
(lp4384
g5
(g6
g7
(lp4385
g5
(g6
g7
(lp4386
g5
(g6
g7
(lp4387
g168
atp4388
Rp4389
(dp4390
g16
VNNP
p4391
sbatp4392
Rp4393
(dp4394
g16
VNP
p4395
sbag5
(g6
g7
(lp4396
g5
(g6
g7
(lp4397
Vreflects
p4398
atp4399
Rp4400
(dp4401
g16
VVBZ
p4402
sbag5
(g6
g7
(lp4403
g5
(g6
g7
(lp4404
g5
(g6
g7
(lp4405
g5
(g6
g7
(lp4406
g5
(g6
g7
(lp4407
Vthe
p4408
atp4409
Rp4410
(dp4411
g16
VDT
p4412
sbag5
(g6
g7
(lp4413
Vcategory
p4414
atp4415
Rp4416
(dp4417
g16
VNN
p4418
sbag5
(g6
g7
(lp4419
Vlevel
p4420
atp4421
Rp4422
(dp4423
g16
VNN
p4424
sbag5
(g6
g7
(lp4425
Vsimilarity
p4426
atp4427
Rp4428
(dp4429
g16
VNN
p4430
sbatp4431
Rp4432
(dp4433
g16
VNP
p4434
sbag5
(g6
g7
(lp4435
g5
(g6
g7
(lp4436
Vbetween
p4437
atp4438
Rp4439
(dp4440
g16
VIN
p4441
sbag5
(g6
g7
(lp4442
g5
(g6
g7
(lp4443
g5
(g6
g7
(lp4444
Vquery
p4445
atp4446
Rp4447
(dp4448
g16
VNN
p4449
sbag5
(g6
g7
(lp4450
Vand
p4451
atp4452
Rp4453
(dp4454
g16
VCC
p4455
sbag5
(g6
g7
(lp4456
Vdocument
p4457
atp4458
Rp4459
(dp4460
g16
VNN
p4461
sbatp4462
Rp4463
(dp4464
g16
VNP
p4465
sbag5
(g6
g7
(lp4466
g181
atp4467
Rp4468
(dp4469
g16
g181
sbag5
(g6
g7
(lp4470
g5
(g6
g7
(lp4471
g5
(g6
g7
(lp4472
Vwhich
p4473
atp4474
Rp4475
(dp4476
g16
VWDT
p4477
sbatp4478
Rp4479
(dp4480
g16
VWHNP
p4481
sbag5
(g6
g7
(lp4482
g5
(g6
g7
(lp4483
g5
(g6
g7
(lp4484
Vwe
p4485
atp4486
Rp4487
(dp4488
g16
VPRP
p4489
sbatp4490
Rp4491
(dp4492
g16
VNP
p4493
sbag5
(g6
g7
(lp4494
g5
(g6
g7
(lp4495
Vcalculate
p4496
atp4497
Rp4498
(dp4499
g16
VVB
p4500
sbag5
(g6
g7
(lp4501
g5
(g6
g7
(lp4502
Vas
p4503
atp4504
Rp4505
(dp4506
g16
VIN
p4507
sbag5
(g6
g7
(lp4508
g5
(g6
g7
(lp4509
g5
(g6
g7
(lp4510
g1291
atp4511
Rp4512
(dp4513
g16
VDT
p4514
sbag5
(g6
g7
(lp4515
Vmutual
p4516
atp4517
Rp4518
(dp4519
g16
VJJ
p4520
sbag5
(g6
g7
(lp4521
Vcontainment
p4522
atp4523
Rp4524
(dp4525
g16
VNN
p4526
sbag5
(g6
g7
(lp4527
Vscore
p4528
atp4529
Rp4530
(dp4531
g16
VNN
p4532
sbatp4533
Rp4534
(dp4535
g16
VNP
p4536
sbag5
(g6
g7
(lp4537
g5
(g6
g7
(lp4538
Vs
p4539
atp4540
Rp4541
(dp4542
g16
VVBZ
p4543
sbag5
(g6
g7
(lp4544
g5
(g6
g7
(lp4545
g2836
atp4546
Rp4547
(dp4548
g16
VVBN
p4549
sbag5
(g6
g7
(lp4550
g5
(g6
g7
(lp4551
g5
(g6
g7
(lp4552
V=
p4553
atp4554
Rp4555
(dp4556
g16
VSYM
p4557
sbag5
(g6
g7
(lp4558
g5
(g6
g7
(lp4559
V1
p4560
atp4561
Rp4562
(dp4563
g16
VCD
p4564
sbag5
(g6
g7
(lp4565
g1533
atp4566
Rp4567
(dp4568
g16
VCD
p4569
sbatp4570
Rp4571
(dp4572
g16
VNP
p4573
sbatp4574
Rp4575
(dp4576
g16
VVP
p4577
sbatp4578
Rp4579
(dp4580
g16
g168
sbatp4581
Rp4582
(dp4583
g16
VVP
p4584
sbatp4585
Rp4586
(dp4587
g16
VVP
p4588
sbatp4589
Rp4590
(dp4591
g16
g168
sbatp4592
Rp4593
(dp4594
g16
VSBAR
p4595
sbatp4596
Rp4597
(dp4598
g16
VVP
p4599
sbatp4600
Rp4601
(dp4602
g16
g168
sbatp4603
Rp4604
(dp4605
g16
VSBAR
p4606
sbatp4607
Rp4608
(dp4609
g16
VNP
p4610
sbatp4611
Rp4612
(dp4613
g16
VPP
p4614
sbatp4615
Rp4616
(dp4617
g16
VNP
p4618
sbag5
(g6
g7
(lp4619
g5
(g6
g7
(lp4620
Vu
p4621
atp4622
Rp4623
(dp4624
g16
VVBP
p4625
sbag5
(g6
g7
(lp4626
V'
p4627
atp4628
Rp4629
(dp4630
g16
V''
p4631
sbag5
(g6
g7
(lp4632
g5
(g6
g7
(lp4633
V\u005c
p4634
atp4635
Rp4636
(dp4637
g16
VJJ
p4638
sbag5
(g6
g7
(lp4639
Vu2062
p4640
atp4641
Rp4642
(dp4643
g16
VNNS
p4644
sbatp4645
Rp4646
(dp4647
g16
VNP
p4648
sbag5
(g6
g7
(lp4649
g4627
atp4650
Rp4651
(dp4652
g16
V''
p4653
sbatp4654
Rp4655
(dp4656
g16
VVP
p4657
sbatp4658
Rp4659
(dp4660
g16
g168
sbatp4661
Rp4662
(dp4663
g16
VSBAR
p4664
sbatp4665
Rp4666
(dp4667
g16
VVP
p4668
sbatp4669
Rp4670
(dp4671
g16
g168
sbatp4672
Rp4673
(dp4674
g16
VSBAR
p4675
sbatp4676
Rp4677
(dp4678
g16
VVP
p4679
sbatp4680
Rp4681
(dp4682
g16
g168
sbatp4683
Rp4684
(dp4685
g16
VSBAR
p4686
sbatp4687
Rp4688
(dp4689
g16
VVP
p4690
sbatp4691
Rp4692
(dp4693
g16
g168
sbatp4694
Rp4695
(dp4696
g16
VROOT
p4697
sbasg286
(icmyPackage
CorE
p4698
(dp4699
g289
(lp4700
(I0
I27
tp4701
a(I0
I40
tp4702
asg293
g5
(g6
g7
(lp4703
g4590
ag4655
atp4704
Rp4705
(dp4706
g16
g304
sbsbsg294
(icmyPackage
CorE
p4707
(dp4708
g289
(lp4709
(I0
I0
tp4710
a(I0
I25
tp4711
asg293
g5
(g6
g7
(lp4712
g4315
ag4322
ag4374
ag4381
ag4393
ag4400
ag4432
ag4439
ag4463
ag4468
ag4479
ag4491
ag4498
atp4713
Rp4714
(dp4715
g16
g304
sbsbsg305
g2416
sg331
(lp4716
(isxpPackage
sxpSent
p4717
(dp4718
g335
(lp4719
I13
asg337
VThe intersection between target set T n and the source category set S reflects the category level similarity between query and document, which we calculate as a mutual containment score s n = 1 2 u'\u005cu2062'
p4720
sg339
I4
sg323
I69
sg340
I17
sbasba(icmyPackage
CELink
p4721
(dp4722
g3
(lp4723
g5
(g6
g7
(lp4724
g5
(g6
g7
(lp4725
g5
(g6
g7
(lp4726
g5
(g6
g7
(lp4727
g5
(g6
g7
(lp4728
VOptimization
p4729
atp4730
Rp4731
(dp4732
g16
VNNP
p4733
sbatp4734
Rp4735
(dp4736
g16
VNP
p4737
sbag5
(g6
g7
(lp4738
g5
(g6
g7
(lp4739
Vfor
p4740
atp4741
Rp4742
(dp4743
g16
VIN
p4744
sbag5
(g6
g7
(lp4745
g5
(g6
g7
(lp4746
g5
(g6
g7
(lp4747
Vthese
p4748
atp4749
Rp4750
(dp4751
g16
VDT
p4752
sbag5
(g6
g7
(lp4753
Vadditional
p4754
atp4755
Rp4756
(dp4757
g16
VJJ
p4758
sbag5
(g6
g7
(lp4759
Vmodels
p4760
atp4761
Rp4762
(dp4763
g16
VNNS
p4764
sbatp4765
Rp4766
(dp4767
g16
VNP
p4768
sbag5
(g6
g7
(lp4769
g5
(g6
g7
(lp4770
Vincluding
p4771
atp4772
Rp4773
(dp4774
g16
VVBG
p4775
sbag5
(g6
g7
(lp4776
g5
(g6
g7
(lp4777
Vdomain
p4778
atp4779
Rp4780
(dp4781
g16
VNN
p4782
sbag5
(g6
g7
(lp4783
Vknowledge
p4784
atp4785
Rp4786
(dp4787
g16
VNN
p4788
sbag5
(g6
g7
(lp4789
Vfeatures
p4790
atp4791
Rp4792
(dp4793
g16
VNNS
p4794
sbatp4795
Rp4796
(dp4797
g16
VNP
p4798
sbatp4799
Rp4800
(dp4801
g16
VPP
p4802
sbatp4803
Rp4804
(dp4805
g16
VNP
p4806
sbatp4807
Rp4808
(dp4809
g16
VPP
p4810
sbatp4811
Rp4812
(dp4813
g16
VNP
p4814
sbag5
(g6
g7
(lp4815
g5
(g6
g7
(lp4816
Vwas
p4817
atp4818
Rp4819
(dp4820
g16
VVBD
p4821
sbag5
(g6
g7
(lp4822
g5
(g6
g7
(lp4823
Vdone
p4824
atp4825
Rp4826
(dp4827
g16
VVBN
p4828
sbag5
(g6
g7
(lp4829
g5
(g6
g7
(lp4830
Vby
p4831
atp4832
Rp4833
(dp4834
g16
VIN
p4835
sbag5
(g6
g7
(lp4836
g5
(g6
g7
(lp4837
g5
(g6
g7
(lp4838
Voverloading
p4839
atp4840
Rp4841
(dp4842
g16
VVBG
p4843
sbag5
(g6
g7
(lp4844
g5
(g6
g7
(lp4845
g5
(g6
g7
(lp4846
g5
(g6
g7
(lp4847
g5
(g6
g7
(lp4848
Vthe
p4849
atp4850
Rp4851
(dp4852
g16
VDT
p4853
sbag5
(g6
g7
(lp4854
Vvector
p4855
atp4856
Rp4857
(dp4858
g16
VNN
p4859
sbag5
(g6
g7
(lp4860
Vrepresentation
p4861
atp4862
Rp4863
(dp4864
g16
VNN
p4865
sbatp4866
Rp4867
(dp4868
g16
VNP
p4869
sbag5
(g6
g7
(lp4870
g5
(g6
g7
(lp4871
Vof
p4872
atp4873
Rp4874
(dp4875
g16
VIN
p4876
sbag5
(g6
g7
(lp4877
g5
(g6
g7
(lp4878
g5
(g6
g7
(lp4879
g5
(g6
g7
(lp4880
g5
(g6
g7
(lp4881
Vqueries
p4882
atp4883
Rp4884
(dp4885
g16
VNNP
p4886
sbag5
(g6
g7
(lp4887
g4621
atp4888
Rp4889
(dp4890
g16
VNNP
p4891
sbag5
(g6
g7
(lp4892
g4627
atp4893
Rp4894
(dp4895
g16
VPOS
p4896
sbatp4897
Rp4898
(dp4899
g16
VNP
p4900
sbag5
(g6
g7
(lp4901
V\u005c
p4902
atp4903
Rp4904
(dp4905
g16
VJJ
p4906
sbag5
(g6
g7
(lp4907
g5
(g6
g7
(lp4908
Vud835
p4909
atp4910
Rp4911
(dp4912
g16
VNNP
p4913
sbag5
(g6
g7
(lp4914
g4627
atp4915
Rp4916
(dp4917
g16
VPOS
p4918
sbatp4919
Rp4920
(dp4921
g16
VNP
p4922
sbag5
(g6
g7
(lp4923
g4621
atp4924
Rp4925
(dp4926
g16
VNN
p4927
sbag5
(g6
g7
(lp4928
g4627
atp4929
Rp4930
(dp4931
g16
V''
p4932
sbatp4933
Rp4934
(dp4935
g16
VNP
p4936
sbag5
(g6
g7
(lp4937
g5
(g6
g7
(lp4938
V\u005c
p4939
atp4940
Rp4941
(dp4942
g16
VJJ
p4943
sbag5
(g6
g7
(lp4944
Vudc2a
p4945
atp4946
Rp4947
(dp4948
g16
VNNS
p4949
sbatp4950
Rp4951
(dp4952
g16
VNP
p4953
sbatp4954
Rp4955
(dp4956
g16
VNP
p4957
sbag5
(g6
g7
(lp4958
g4627
atp4959
Rp4960
(dp4961
g16
V''
p4962
sbag5
(g6
g7
(lp4963
Vand
p4964
atp4965
Rp4966
(dp4967
g16
VCC
p4968
sbag5
(g6
g7
(lp4969
g5
(g6
g7
(lp4970
g5
(g6
g7
(lp4971
Vdocuments
p4972
atp4973
Rp4974
(dp4975
g16
VNNS
p4976
sbatp4977
Rp4978
(dp4979
g16
VNP
p4980
sbag5
(g6
g7
(lp4981
g5
(g6
g7
(lp4982
g5
(g6
g7
(lp4983
g4621
atp4984
Rp4985
(dp4986
g16
VNNP
p4987
sbag5
(g6
g7
(lp4988
g4627
atp4989
Rp4990
(dp4991
g16
VPOS
p4992
sbatp4993
Rp4994
(dp4995
g16
VNP
p4996
sbag5
(g6
g7
(lp4997
V\u005c
p4998
atp4999
Rp5000
(dp5001
g16
VJJ
p5002
sbag5
(g6
g7
(lp5003
Vud835
p5004
atp5005
Rp5006
(dp5007
g16
VJJ
p5008
sbag5
(g6
g7
(lp5009
g4627
atp5010
Rp5011
(dp5012
g16
V''
p5013
sbag5
(g6
g7
(lp5014
g4621
atp5015
Rp5016
(dp5017
g16
VNN
p5018
sbatp5019
Rp5020
(dp5021
g16
VNP
p5022
sbatp5023
Rp5024
(dp5025
g16
VNP
p5026
sbatp5027
Rp5028
(dp5029
g16
VNP
p5030
sbatp5031
Rp5032
(dp5033
g16
VPP
p5034
sbag5
(g6
g7
(lp5035
g4627
atp5036
Rp5037
(dp5038
g16
VPOS
p5039
sbatp5040
Rp5041
(dp5042
g16
VNP
p5043
sbag5
(g6
g7
(lp5044
V\u005c
p5045
atp5046
Rp5047
(dp5048
g16
VNNP
p5049
sbag5
(g6
g7
(lp5050
Vudc1d
p5051
atp5052
Rp5053
(dp5054
g16
VNNP
p5055
sbag5
(g6
g7
(lp5056
g4627
atp5057
Rp5058
(dp5059
g16
V''
p5060
sbatp5061
Rp5062
(dp5063
g16
VNP
p5064
sbag5
(g6
g7
(lp5065
g5
(g6
g7
(lp5066
Vin
p5067
atp5068
Rp5069
(dp5070
g16
VIN
p5071
sbag5
(g6
g7
(lp5072
g5
(g6
g7
(lp5073
Vthe
p5074
atp5075
Rp5076
(dp5077
g16
VDT
p5078
sbag5
(g6
g7
(lp5079
VVW
p5080
atp5081
Rp5082
(dp5083
g16
VNNP
p5084
sbag5
(g6
g7
(lp5085
Vlinear
p5086
atp5087
Rp5088
(dp5089
g16
VJJ
p5090
sbag5
(g6
g7
(lp5091
Vlearner
p5092
atp5093
Rp5094
(dp5095
g16
VNN
p5096
sbatp5097
Rp5098
(dp5099
g16
VNP
p5100
sbatp5101
Rp5102
(dp5103
g16
VPP
p5104
sbatp5105
Rp5106
(dp5107
g16
VNP
p5108
sbatp5109
Rp5110
(dp5111
g16
VVP
p5112
sbatp5113
Rp5114
(dp5115
g16
g168
sbatp5116
Rp5117
(dp5118
g16
VPP
p5119
sbatp5120
Rp5121
(dp5122
g16
VVP
p5123
sbatp5124
Rp5125
(dp5126
g16
VVP
p5127
sbatp5128
Rp5129
(dp5130
g16
g168
sbatp5131
Rp5132
(dp5133
g16
VROOT
p5134
sbasg286
(icmyPackage
CorE
p5135
(dp5136
g289
(lp5137
(I0
I12
tp5138
a(I0
I44
tp5139
asg293
g5114
sbsg294
(icmyPackage
CorE
p5140
(dp5141
g289
(lp5142
(I0
I0
tp5143
a(I0
I10
tp5144
asg293
g5
(g6
g7
(lp5145
g4812
ag4819
ag4826
atp5146
Rp5147
(dp5148
g16
g304
sbsbsg305
(icmyPackage
pattern
p5149
(dp5150
g308
I0
sg309
I0
sg310
(lp5151
(lp5152
(lp5153
S'by'
p5154
aS'through'
p5155
aaasg318
(lp5156
I2
aI1
aI1
asg320
(lp5157
S'The similar relation can be detected by analyzing the contents of nodes based on such approaches as the Latent Semantic Analysis (LSA) and the Vector Space Model (VSM)'
p5158
asg323
I68
sg324
(lp5159
(lp5160
S'&R@Complete@'
p5161
aa(lp5162
S'&V-ing@C@'
p5163
aasbsg331
(lp5164
(isxpPackage
sxpSent
p5165
(dp5166
g335
(lp5167
I14
asg337
VOptimization for these additional models including domain knowledge features was done by overloading the vector representation of queries u'\u005cud835' u'\u005cudc2a' and documents u'\u005cud835' u'\u005cudc1d' in the VW linear learner
p5168
sg339
I4
sg323
I77
sg340
I18
sbasba(icmyPackage
CELink
p5169
(dp5170
g3
(lp5171
g5
(g6
g7
(lp5172
g5
(g6
g7
(lp5173
g5
(g6
g7
(lp5174
g5
(g6
g7
(lp5175
VIn
p5176
atp5177
Rp5178
(dp5179
g16
VIN
p5180
sbag5
(g6
g7
(lp5181
g5
(g6
g7
(lp5182
g5
(g6
g7
(lp5183
Vaddition
p5184
atp5185
Rp5186
(dp5187
g16
VNN
p5188
sbatp5189
Rp5190
(dp5191
g16
VNP
p5192
sbag5
(g6
g7
(lp5193
g5
(g6
g7
(lp5194
Vto
p5195
atp5196
Rp5197
(dp5198
g16
VTO
p5199
sbag5
(g6
g7
(lp5200
g5
(g6
g7
(lp5201
Vdense
p5202
atp5203
Rp5204
(dp5205
g16
VJJ
p5206
sbag5
(g6
g7
(lp5207
Vdomain-knowledge
p5208
atp5209
Rp5210
(dp5211
g16
VJJ
p5212
sbag5
(g6
g7
(lp5213
Vfeatures
p5214
atp5215
Rp5216
(dp5217
g16
VNNS
p5218
sbatp5219
Rp5220
(dp5221
g16
VNP
p5222
sbatp5223
Rp5224
(dp5225
g16
VPP
p5226
sbatp5227
Rp5228
(dp5229
g16
VNP
p5230
sbatp5231
Rp5232
(dp5233
g16
VPP
p5234
sbag5
(g6
g7
(lp5235
g181
atp5236
Rp5237
(dp5238
g16
g181
sbag5
(g6
g7
(lp5239
g5
(g6
g7
(lp5240
Vwe
p5241
atp5242
Rp5243
(dp5244
g16
VPRP
p5245
sbatp5246
Rp5247
(dp5248
g16
VNP
p5249
sbag5
(g6
g7
(lp5250
g5
(g6
g7
(lp5251
Vincorporate
p5252
atp5253
Rp5254
(dp5255
g16
VVBD
p5256
sbag5
(g6
g7
(lp5257
g5
(g6
g7
(lp5258
g5
(g6
g7
(lp5259
Varbitrary
p5260
atp5261
Rp5262
(dp5263
g16
VJJ
p5264
sbatp5265
Rp5266
(dp5267
g16
VADJP
p5268
sbag5
(g6
g7
(lp5269
Vranking
p5270
atp5271
Rp5272
(dp5273
g16
VJJ
p5274
sbag5
(g6
g7
(lp5275
Vmodels
p5276
atp5277
Rp5278
(dp5279
g16
VNNS
p5280
sbatp5281
Rp5282
(dp5283
g16
VNP
p5284
sbag5
(g6
g7
(lp5285
g5
(g6
g7
(lp5286
Vas
p5287
atp5288
Rp5289
(dp5290
g16
VIN
p5291
sbag5
(g6
g7
(lp5292
g5
(g6
g7
(lp5293
g5
(g6
g7
(lp5294
Vdense
p5295
atp5296
Rp5297
(dp5298
g16
VJJ
p5299
sbag5
(g6
g7
(lp5300
Vfeatures
p5301
atp5302
Rp5303
(dp5304
g16
VNNS
p5305
sbatp5306
Rp5307
(dp5308
g16
VNP
p5309
sbag5
(g6
g7
(lp5310
g5
(g6
g7
(lp5311
g5
(g6
g7
(lp5312
Vwhose
p5313
atp5314
Rp5315
(dp5316
g16
VWP$
p5317
sbag5
(g6
g7
(lp5318
Vvalue
p5319
atp5320
Rp5321
(dp5322
g16
VNN
p5323
sbatp5324
Rp5325
(dp5326
g16
VWHNP
p5327
sbag5
(g6
g7
(lp5328
g5
(g6
g7
(lp5329
g5
(g6
g7
(lp5330
Vis
p5331
atp5332
Rp5333
(dp5334
g16
VVBZ
p5335
sbag5
(g6
g7
(lp5336
g5
(g6
g7
(lp5337
g5
(g6
g7
(lp5338
Vthe
p5339
atp5340
Rp5341
(dp5342
g16
VDT
p5343
sbag5
(g6
g7
(lp5344
Vscore
p5345
atp5346
Rp5347
(dp5348
g16
VNN
p5349
sbatp5350
Rp5351
(dp5352
g16
VNP
p5353
sbag5
(g6
g7
(lp5354
g5
(g6
g7
(lp5355
Vof
p5356
atp5357
Rp5358
(dp5359
g16
VIN
p5360
sbag5
(g6
g7
(lp5361
g5
(g6
g7
(lp5362
Vthe
p5363
atp5364
Rp5365
(dp5366
g16
VDT
p5367
sbag5
(g6
g7
(lp5368
Vranking
p5369
atp5370
Rp5371
(dp5372
g16
VJJ
p5373
sbag5
(g6
g7
(lp5374
Vmodel
p5375
atp5376
Rp5377
(dp5378
g16
VNN
p5379
sbatp5380
Rp5381
(dp5382
g16
VNP
p5383
sbatp5384
Rp5385
(dp5386
g16
VPP
p5387
sbatp5388
Rp5389
(dp5390
g16
VNP
p5391
sbatp5392
Rp5393
(dp5394
g16
VVP
p5395
sbatp5396
Rp5397
(dp5398
g16
g168
sbatp5399
Rp5400
(dp5401
g16
VSBAR
p5402
sbatp5403
Rp5404
(dp5405
g16
VNP
p5406
sbatp5407
Rp5408
(dp5409
g16
VPP
p5410
sbatp5411
Rp5412
(dp5413
g16
VVP
p5414
sbatp5415
Rp5416
(dp5417
g16
g168
sbatp5418
Rp5419
(dp5420
g16
VROOT
p5421
sbag5
(g6
g7
(lp5422
g5
(g6
g7
(lp5423
g5
(g6
g7
(lp5424
g5
(g6
g7
(lp5425
VTraining
p5426
atp5427
Rp5428
(dp5429
g16
VVBG
p5430
sbag5
(g6
g7
(lp5431
Vdata
p5432
atp5433
Rp5434
(dp5435
g16
VNNS
p5436
sbatp5437
Rp5438
(dp5439
g16
VNP
p5440
sbag5
(g6
g7
(lp5441
g5
(g6
g7
(lp5442
Vwas
p5443
atp5444
Rp5445
(dp5446
g16
VVBD
p5447
sbag5
(g6
g7
(lp5448
g5
(g6
g7
(lp5449
Vsampled
p5450
atp5451
Rp5452
(dp5453
g16
VVBN
p5454
sbag5
(g6
g7
(lp5455
g5
(g6
g7
(lp5456
Vfrom
p5457
atp5458
Rp5459
(dp5460
g16
VIN
p5461
sbag5
(g6
g7
(lp5462
g5
(g6
g7
(lp5463
g5
(g6
g7
(lp5464
Vthe
p5465
atp5466
Rp5467
(dp5468
g16
VDT
p5469
sbag5
(g6
g7
(lp5470
Vdev
p5471
atp5472
Rp5473
(dp5474
g16
VNN
p5475
sbatp5476
Rp5477
(dp5478
g16
VNP
p5479
sbag5
(g6
g7
(lp5480
g5
(g6
g7
(lp5481
Vset
p5482
atp5483
Rp5484
(dp5485
g16
VVBN
p5486
sbag5
(g6
g7
(lp5487
Vand
p5488
atp5489
Rp5490
(dp5491
g16
VCC
p5492
sbag5
(g6
g7
(lp5493
Vprocessed
p5494
atp5495
Rp5496
(dp5497
g16
VVBN
p5498
sbag5
(g6
g7
(lp5499
g5
(g6
g7
(lp5500
Vwith
p5501
atp5502
Rp5503
(dp5504
g16
VIN
p5505
sbag5
(g6
g7
(lp5506
g5
(g6
g7
(lp5507
VVW
p5508
atp5509
Rp5510
(dp5511
g16
VNNP
p5512
sbatp5513
Rp5514
(dp5515
g16
VNP
p5516
sbatp5517
Rp5518
(dp5519
g16
VPP
p5520
sbatp5521
Rp5522
(dp5523
g16
VVP
p5524
sbatp5525
Rp5526
(dp5527
g16
VNP
p5528
sbatp5529
Rp5530
(dp5531
g16
VPP
p5532
sbatp5533
Rp5534
(dp5535
g16
VVP
p5536
sbatp5537
Rp5538
(dp5539
g16
VVP
p5540
sbatp5541
Rp5542
(dp5543
g16
g168
sbatp5544
Rp5545
(dp5546
g16
VROOT
p5547
sbasg286
(icmyPackage
CorE
p5548
(dp5549
g289
(lp5550
(I0
I13
tp5551
a(I1
I10
tp5552
asg293
g5
(g6
g7
(lp5553
g5404
ag5438
ag5445
ag5452
ag5459
ag5477
ag5484
ag5490
ag5496
ag5503
atp5554
Rp5555
(dp5556
g16
g304
sbsbsg294
(icmyPackage
CorE
p5557
(dp5558
g289
(lp5559
(I0
I0
tp5560
a(I0
I11
tp5561
asg293
g5
(g6
g7
(lp5562
g5232
ag5237
ag5247
ag5254
ag5282
atp5563
Rp5564
(dp5565
g16
g304
sbsbsg305
g2416
sg331
(lp5566
(isxpPackage
sxpSent
p5567
(dp5568
g335
(lp5569
I15
asg337
VIn addition to dense domain-knowledge features, we incorporate arbitrary ranking models as dense features whose value is the score of the ranking model
p5570
sg339
I10
sg323
I85
sg340
I20
sba(isxpPackage
sxpSent
p5571
(dp5572
g335
(lp5573
I15
asg337
VTraining data was sampled from the dev set and processed with VW
p5574
sg339
I10
sg323
I86
sg340
I20
sbasba(icmyPackage
CELink
p5575
(dp5576
g3
(lp5577
g5
(g6
g7
(lp5578
g5
(g6
g7
(lp5579
g5
(g6
g7
(lp5580
g5
(g6
g7
(lp5581
VEN
p5582
atp5583
Rp5584
(dp5585
g16
VNNP
p5586
sbag5
(g6
g7
(lp5587
Vpatents
p5588
atp5589
Rp5590
(dp5591
g16
VNNS
p5592
sbatp5593
Rp5594
(dp5595
g16
VNP
p5596
sbag5
(g6
g7
(lp5597
g5
(g6
g7
(lp5598
Vare
p5599
atp5600
Rp5601
(dp5602
g16
VVBP
p5603
sbag5
(g6
g7
(lp5604
g5
(g6
g7
(lp5605
g5
(g6
g7
(lp5606
Vregarded
p5607
atp5608
Rp5609
(dp5610
g16
VVBN
p5611
sbag5
(g6
g7
(lp5612
g5
(g6
g7
(lp5613
Vas
p5614
atp5615
Rp5616
(dp5617
g16
VRB
p5618
sbag5
(g6
g7
(lp5619
Vrelevant
p5620
atp5621
Rp5622
(dp5623
g16
VJJ
p5624
sbag5
(g6
g7
(lp5625
g5
(g6
g7
(lp5626
Vwith
p5627
atp5628
Rp5629
(dp5630
g16
VIN
p5631
sbag5
(g6
g7
(lp5632
g5
(g6
g7
(lp5633
g5
(g6
g7
(lp5634
Vlevel
p5635
atp5636
Rp5637
(dp5638
g16
VNN
p5639
sbatp5640
Rp5641
(dp5642
g16
VNP
p5643
sbag5
(g6
g7
(lp5644
g5
(g6
g7
(lp5645
V-LRB-
p5646
atp5647
Rp5648
(dp5649
g16
V-LRB-
p5650
sbag5
(g6
g7
(lp5651
g5
(g6
g7
(lp5652
V3
p5653
atp5654
Rp5655
(dp5656
g16
VCD
p5657
sbatp5658
Rp5659
(dp5660
g16
VNP
p5661
sbag5
(g6
g7
(lp5662
V-RRB-
p5663
atp5664
Rp5665
(dp5666
g16
V-RRB-
p5667
sbatp5668
Rp5669
(dp5670
g16
VPRN
p5671
sbatp5672
Rp5673
(dp5674
g16
VNP
p5675
sbatp5676
Rp5677
(dp5678
g16
VPP
p5679
sbatp5680
Rp5681
(dp5682
g16
VADJP
p5683
sbag5
(g6
g7
(lp5684
g5
(g6
g7
(lp5685
Vto
p5686
atp5687
Rp5688
(dp5689
g16
VTO
p5690
sbag5
(g6
g7
(lp5691
g5
(g6
g7
(lp5692
g1291
atp5693
Rp5694
(dp5695
g16
VDT
p5696
sbag5
(g6
g7
(lp5697
VJP
p5698
atp5699
Rp5700
(dp5701
g16
VNNP
p5702
sbag5
(g6
g7
(lp5703
Vquery
p5704
atp5705
Rp5706
(dp5707
g16
VNN
p5708
sbag5
(g6
g7
(lp5709
Vpatent
p5710
atp5711
Rp5712
(dp5713
g16
VNN
p5714
sbatp5715
Rp5716
(dp5717
g16
VNP
p5718
sbatp5719
Rp5720
(dp5721
g16
VPP
p5722
sbag5
(g6
g7
(lp5723
g181
atp5724
Rp5725
(dp5726
g16
g181
sbag5
(g6
g7
(lp5727
g5
(g6
g7
(lp5728
Vif
p5729
atp5730
Rp5731
(dp5732
g16
VIN
p5733
sbag5
(g6
g7
(lp5734
g5
(g6
g7
(lp5735
g5
(g6
g7
(lp5736
Vthey
p5737
atp5738
Rp5739
(dp5740
g16
VPRP
p5741
sbatp5742
Rp5743
(dp5744
g16
VNP
p5745
sbag5
(g6
g7
(lp5746
g5
(g6
g7
(lp5747
Vare
p5748
atp5749
Rp5750
(dp5751
g16
VVBP
p5752
sbag5
(g6
g7
(lp5753
g5
(g6
g7
(lp5754
Vin
p5755
atp5756
Rp5757
(dp5758
g16
VIN
p5759
sbag5
(g6
g7
(lp5760
g5
(g6
g7
(lp5761
g5
(g6
g7
(lp5762
g1291
atp5763
Rp5764
(dp5765
g16
VDT
p5766
sbag5
(g6
g7
(lp5767
Vfamily
p5768
atp5769
Rp5770
(dp5771
g16
VNN
p5772
sbag5
(g6
g7
(lp5773
Vrelationship
p5774
atp5775
Rp5776
(dp5777
g16
VNN
p5778
sbatp5779
Rp5780
(dp5781
g16
VNP
p5782
sbag5
(g6
g7
(lp5783
g5
(g6
g7
(lp5784
V-LRB-
p5785
atp5786
Rp5787
(dp5788
g16
V-LRB-
p5789
sbag5
(g6
g7
(lp5790
g5
(g6
g7
(lp5791
g5
(g6
g7
(lp5792
Ve.g.
p5793
atp5794
Rp5795
(dp5796
g16
VNNP
p5797
sbatp5798
Rp5799
(dp5800
g16
VNP
p5801
sbag5
(g6
g7
(lp5802
g181
atp5803
Rp5804
(dp5805
g16
g181
sbag5
(g6
g7
(lp5806
g5
(g6
g7
(lp5807
g181
atp5808
Rp5809
(dp5810
g16
g181
sbag5
(g6
g7
(lp5811
Vsame
p5812
atp5813
Rp5814
(dp5815
g16
VJJ
p5816
sbag5
(g6
g7
(lp5817
Vinvention
p5818
atp5819
Rp5820
(dp5821
g16
VNN
p5822
sbatp5823
Rp5824
(dp5825
g16
VNP
p5826
sbatp5827
Rp5828
(dp5829
g16
VNP
p5830
sbag5
(g6
g7
(lp5831
V-RRB-
p5832
atp5833
Rp5834
(dp5835
g16
V-RRB-
p5836
sbatp5837
Rp5838
(dp5839
g16
VPRN
p5840
sbatp5841
Rp5842
(dp5843
g16
VNP
p5844
sbatp5845
Rp5846
(dp5847
g16
VPP
p5848
sbatp5849
Rp5850
(dp5851
g16
VVP
p5852
sbatp5853
Rp5854
(dp5855
g16
g168
sbatp5856
Rp5857
(dp5858
g16
VSBAR
p5859
sbatp5860
Rp5861
(dp5862
g16
VVP
p5863
sbag5
(g6
g7
(lp5864
g181
atp5865
Rp5866
(dp5867
g16
g181
sbag5
(g6
g7
(lp5868
g5
(g6
g7
(lp5869
Vcited
p5870
atp5871
Rp5872
(dp5873
g16
VVBN
p5874
sbag5
(g6
g7
(lp5875
g5
(g6
g7
(lp5876
Vby
p5877
atp5878
Rp5879
(dp5880
g16
VIN
p5881
sbag5
(g6
g7
(lp5882
g5
(g6
g7
(lp5883
g5
(g6
g7
(lp5884
Vthe
p5885
atp5886
Rp5887
(dp5888
g16
VDT
p5889
sbag5
(g6
g7
(lp5890
Vpatent
p5891
atp5892
Rp5893
(dp5894
g16
VNN
p5895
sbag5
(g6
g7
(lp5896
Vexaminer
p5897
atp5898
Rp5899
(dp5900
g16
VNN
p5901
sbatp5902
Rp5903
(dp5904
g16
VNP
p5905
sbag5
(g6
g7
(lp5906
g5
(g6
g7
(lp5907
V-LRB-
p5908
atp5909
Rp5910
(dp5911
g16
V-LRB-
p5912
sbag5
(g6
g7
(lp5913
g5
(g6
g7
(lp5914
g1533
atp5915
Rp5916
(dp5917
g16
VCD
p5918
sbatp5919
Rp5920
(dp5921
g16
VNP
p5922
sbag5
(g6
g7
(lp5923
V-RRB-
p5924
atp5925
Rp5926
(dp5927
g16
V-RRB-
p5928
sbatp5929
Rp5930
(dp5931
g16
VPRN
p5932
sbatp5933
Rp5934
(dp5935
g16
VNP
p5936
sbatp5937
Rp5938
(dp5939
g16
VPP
p5940
sbatp5941
Rp5942
(dp5943
g16
VVP
p5944
sbag5
(g6
g7
(lp5945
g181
atp5946
Rp5947
(dp5948
g16
g181
sbag5
(g6
g7
(lp5949
Vor
p5950
atp5951
Rp5952
(dp5953
g16
VCC
p5954
sbag5
(g6
g7
(lp5955
g5
(g6
g7
(lp5956
Vcited
p5957
atp5958
Rp5959
(dp5960
g16
VVBN
p5961
sbag5
(g6
g7
(lp5962
g5
(g6
g7
(lp5963
g5
(g6
g7
(lp5964
g5
(g6
g7
(lp5965
Vby
p5966
atp5967
Rp5968
(dp5969
g16
VIN
p5970
sbag5
(g6
g7
(lp5971
Vthe
p5972
atp5973
Rp5974
(dp5975
g16
VDT
p5976
sbatp5977
Rp5978
(dp5979
g16
VADVP
p5980
sbag5
(g6
g7
(lp5981
Vapplicant
p5982
atp5983
Rp5984
(dp5985
g16
VVB
p5986
sbag5
(g6
g7
(lp5987
V-LRB-
p5988
atp5989
Rp5990
(dp5991
g16
V-LRB-
p5992
sbag5
(g6
g7
(lp5993
g5
(g6
g7
(lp5994
g4560
atp5995
Rp5996
(dp5997
g16
VCD
p5998
sbatp5999
Rp6000
(dp6001
g16
VNP
p6002
sbatp6003
Rp6004
(dp6005
g16
VVP
p6006
sbatp6007
Rp6008
(dp6009
g16
g168
sbatp6010
Rp6011
(dp6012
g16
VVP
p6013
sbatp6014
Rp6015
(dp6016
g16
VVP
p6017
sbatp6018
Rp6019
(dp6020
g16
VVP
p6021
sbatp6022
Rp6023
(dp6024
g16
g168
sbatp6025
Rp6026
(dp6027
g16
VROOT
p6028
sbasg286
(icmyPackage
CorE
p6029
(dp6030
g289
(lp6031
(I0
I18
tp6032
a(I0
I47
tp6033
asg293
g5
(g6
g7
(lp6034
g5854
ag5866
ag5942
ag5947
ag5952
ag6011
atp6035
Rp6036
(dp6037
g16
g304
sbsbsg294
(icmyPackage
CorE
p6038
(dp6039
g289
(lp6040
(I0
I0
tp6041
a(I0
I16
tp6042
asg293
g5
(g6
g7
(lp6043
g5594
ag5601
ag5609
ag5681
ag5720
ag5725
atp6044
Rp6045
(dp6046
g16
g304
sbsbsg305
g701
sg331
(lp6047
(isxpPackage
sxpSent
p6048
(dp6049
g335
(lp6050
I16
asg337
VEN patents are regarded as relevant with level (3) to a JP query patent, if they are in a family relationship (e.g.,, same invention), cited by the patent examiner (2), or cited by the applicant (1
p6051
sg339
I13
sg323
I89
sg340
I21
sbasba(icmyPackage
CELink
p6052
(dp6053
g3
(lp6054
g5
(g6
g7
(lp6055
g5
(g6
g7
(lp6056
g5
(g6
g7
(lp6057
g5
(g6
g7
(lp6058
VThe
p6059
atp6060
Rp6061
(dp6062
g16
VDT
p6063
sbag5
(g6
g7
(lp6064
Vinformation
p6065
atp6066
Rp6067
(dp6068
g16
VNN
p6069
sbag5
(g6
g7
(lp6070
Vneed
p6071
atp6072
Rp6073
(dp6074
g16
VNN
p6075
sbatp6076
Rp6077
(dp6078
g16
VNP
p6079
sbag5
(g6
g7
(lp6080
g5
(g6
g7
(lp6081
Vmay
p6082
atp6083
Rp6084
(dp6085
g16
VMD
p6086
sbag5
(g6
g7
(lp6087
g5
(g6
g7
(lp6088
Vbe
p6089
atp6090
Rp6091
(dp6092
g16
VVB
p6093
sbag5
(g6
g7
(lp6094
g5
(g6
g7
(lp6095
Vparaphrased
p6096
atp6097
Rp6098
(dp6099
g16
VVBN
p6100
sbag5
(g6
g7
(lp6101
g5
(g6
g7
(lp6102
Vas
p6103
atp6104
Rp6105
(dp6106
g16
VIN
p6107
sbag5
(g6
g7
(lp6108
g5
(g6
g7
(lp6109
g5
(g6
g7
(lp6110
g1291
atp6111
Rp6112
(dp6113
g16
VDT
p6114
sbag5
(g6
g7
(lp6115
Vhigh-level
p6116
atp6117
Rp6118
(dp6119
g16
VJJ
p6120
sbag5
(g6
g7
(lp6121
Vdefinition
p6122
atp6123
Rp6124
(dp6125
g16
VNN
p6126
sbatp6127
Rp6128
(dp6129
g16
VNP
p6130
sbag5
(g6
g7
(lp6131
g5
(g6
g7
(lp6132
Vof
p6133
atp6134
Rp6135
(dp6136
g16
VIN
p6137
sbag5
(g6
g7
(lp6138
g5
(g6
g7
(lp6139
Vthe
p6140
atp6141
Rp6142
(dp6143
g16
VDT
p6144
sbag5
(g6
g7
(lp6145
Vtopic
p6146
atp6147
Rp6148
(dp6149
g16
VNN
p6150
sbatp6151
Rp6152
(dp6153
g16
VNP
p6154
sbatp6155
Rp6156
(dp6157
g16
VPP
p6158
sbatp6159
Rp6160
(dp6161
g16
VNP
p6162
sbatp6163
Rp6164
(dp6165
g16
VPP
p6166
sbatp6167
Rp6168
(dp6169
g16
VVP
p6170
sbatp6171
Rp6172
(dp6173
g16
VVP
p6174
sbatp6175
Rp6176
(dp6177
g16
VVP
p6178
sbatp6179
Rp6180
(dp6181
g16
g168
sbatp6182
Rp6183
(dp6184
g16
VROOT
p6185
sbag5
(g6
g7
(lp6186
g5
(g6
g7
(lp6187
g5
(g6
g7
(lp6188
g5
(g6
g7
(lp6189
VSince
p6190
atp6191
Rp6192
(dp6193
g16
VIN
p6194
sbag5
(g6
g7
(lp6195
g5
(g6
g7
(lp6196
g5
(g6
g7
(lp6197
Vtypically
p6198
atp6199
Rp6200
(dp6201
g16
VRB
p6202
sbatp6203
Rp6204
(dp6205
g16
VADVP
p6206
sbag5
(g6
g7
(lp6207
g5
(g6
g7
(lp6208
g5
(g6
g7
(lp6209
Vthe
p6210
atp6211
Rp6212
(dp6213
g16
VDT
p6214
sbag5
(g6
g7
(lp6215
Vfirst
p6216
atp6217
Rp6218
(dp6219
g16
VJJ
p6220
sbag5
(g6
g7
(lp6221
Vsentence
p6222
atp6223
Rp6224
(dp6225
g16
VNN
p6226
sbatp6227
Rp6228
(dp6229
g16
VNP
p6230
sbag5
(g6
g7
(lp6231
g5
(g6
g7
(lp6232
Vof
p6233
atp6234
Rp6235
(dp6236
g16
VIN
p6237
sbag5
(g6
g7
(lp6238
g5
(g6
g7
(lp6239
Vany
p6240
atp6241
Rp6242
(dp6243
g16
VDT
p6244
sbag5
(g6
g7
(lp6245
VWikipedia
p6246
atp6247
Rp6248
(dp6249
g16
VNNP
p6250
sbag5
(g6
g7
(lp6251
Varticle
p6252
atp6253
Rp6254
(dp6255
g16
VNN
p6256
sbatp6257
Rp6258
(dp6259
g16
VNP
p6260
sbatp6261
Rp6262
(dp6263
g16
VPP
p6264
sbatp6265
Rp6266
(dp6267
g16
VNP
p6268
sbag5
(g6
g7
(lp6269
g5
(g6
g7
(lp6270
Vis
p6271
atp6272
Rp6273
(dp6274
g16
VVBZ
p6275
sbag5
(g6
g7
(lp6276
g5
(g6
g7
(lp6277
Vsuch
p6278
atp6279
Rp6280
(dp6281
g16
VPDT
p6282
sbag5
(g6
g7
(lp6283
g1291
atp6284
Rp6285
(dp6286
g16
VDT
p6287
sbag5
(g6
g7
(lp6288
Vwell-formed
p6289
atp6290
Rp6291
(dp6292
g16
VJJ
p6293
sbag5
(g6
g7
(lp6294
Vdefinition
p6295
atp6296
Rp6297
(dp6298
g16
VNN
p6299
sbatp6300
Rp6301
(dp6302
g16
VNP
p6303
sbatp6304
Rp6305
(dp6306
g16
VVP
p6307
sbatp6308
Rp6309
(dp6310
g16
g168
sbatp6311
Rp6312
(dp6313
g16
VSBAR
p6314
sbag5
(g6
g7
(lp6315
g181
atp6316
Rp6317
(dp6318
g16
g181
sbag5
(g6
g7
(lp6319
g5
(g6
g7
(lp6320
Vthis
p6321
atp6322
Rp6323
(dp6324
g16
VDT
p6325
sbatp6326
Rp6327
(dp6328
g16
VNP
p6329
sbag5
(g6
g7
(lp6330
g5
(g6
g7
(lp6331
Vallows
p6332
atp6333
Rp6334
(dp6335
g16
VVBZ
p6336
sbag5
(g6
g7
(lp6337
g5
(g6
g7
(lp6338
g5
(g6
g7
(lp6339
Vus
p6340
atp6341
Rp6342
(dp6343
g16
VPRP
p6344
sbatp6345
Rp6346
(dp6347
g16
VNP
p6348
sbag5
(g6
g7
(lp6349
g5
(g6
g7
(lp6350
Vto
p6351
atp6352
Rp6353
(dp6354
g16
VTO
p6355
sbag5
(g6
g7
(lp6356
g5
(g6
g7
(lp6357
Vextract
p6358
atp6359
Rp6360
(dp6361
g16
VVB
p6362
sbag5
(g6
g7
(lp6363
g5
(g6
g7
(lp6364
g5
(g6
g7
(lp6365
g1291
atp6366
Rp6367
(dp6368
g16
VDT
p6369
sbag5
(g6
g7
(lp6370
Vlarge
p6371
atp6372
Rp6373
(dp6374
g16
VJJ
p6375
sbag5
(g6
g7
(lp6376
Vset
p6377
atp6378
Rp6379
(dp6380
g16
VNN
p6381
sbatp6382
Rp6383
(dp6384
g16
VNP
p6385
sbag5
(g6
g7
(lp6386
g5
(g6
g7
(lp6387
Vof
p6388
atp6389
Rp6390
(dp6391
g16
VIN
p6392
sbag5
(g6
g7
(lp6393
g5
(g6
g7
(lp6394
Vone
p6395
atp6396
Rp6397
(dp6398
g16
VCD
p6399
sbag5
(g6
g7
(lp6400
Vsentence
p6401
atp6402
Rp6403
(dp6404
g16
VNN
p6405
sbag5
(g6
g7
(lp6406
Vqueries
p6407
atp6408
Rp6409
(dp6410
g16
VNNS
p6411
sbatp6412
Rp6413
(dp6414
g16
VNP
p6415
sbatp6416
Rp6417
(dp6418
g16
VPP
p6419
sbatp6420
Rp6421
(dp6422
g16
VNP
p6423
sbag5
(g6
g7
(lp6424
g5
(g6
g7
(lp6425
Vfrom
p6426
atp6427
Rp6428
(dp6429
g16
VIN
p6430
sbag5
(g6
g7
(lp6431
g5
(g6
g7
(lp6432
VWikipedia
p6433
atp6434
Rp6435
(dp6436
g16
VNNP
p6437
sbag5
(g6
g7
(lp6438
Varticles
p6439
atp6440
Rp6441
(dp6442
g16
VNNS
p6443
sbatp6444
Rp6445
(dp6446
g16
VNP
p6447
sbatp6448
Rp6449
(dp6450
g16
VPP
p6451
sbatp6452
Rp6453
(dp6454
g16
VVP
p6455
sbatp6456
Rp6457
(dp6458
g16
VVP
p6459
sbatp6460
Rp6461
(dp6462
g16
g168
sbatp6463
Rp6464
(dp6465
g16
VVP
p6466
sbatp6467
Rp6468
(dp6469
g16
g168
sbatp6470
Rp6471
(dp6472
g16
VROOT
p6473
sbasg286
(icmyPackage
CorE
p6474
(dp6475
g289
(lp6476
(I0
I7
tp6477
a(I1
I28
tp6478
asg293
g5
(g6
g7
(lp6479
g6160
ag6312
ag6317
ag6327
ag6334
ag6346
ag6353
ag6360
ag6421
ag6428
ag6435
atp6480
Rp6481
(dp6482
g16
g304
sbsbsg294
(icmyPackage
CorE
p6483
(dp6484
g289
(lp6485
(I0
I0
tp6486
a(I0
I5
tp6487
asg293
g5
(g6
g7
(lp6488
g6077
ag6084
ag6091
ag6098
atp6489
Rp6490
(dp6491
g16
g304
sbsbsg305
g2416
sg331
(lp6492
(isxpPackage
sxpSent
p6493
(dp6494
g335
(lp6495
I17
asg337
VThe information need may be paraphrased as a high-level definition of the topic
p6496
sg339
I13
sg323
I96
sg340
I22
sba(isxpPackage
sxpSent
p6497
(dp6498
g335
(lp6499
I17
aI18
asg337
VSince typically the first sentence of any Wikipedia article is such a well-formed definition, this allows us to extract a large set of one sentence queries from Wikipedia articles
p6500
sg339
I13
sg323
I97
sg340
I22
sbasba(icmyPackage
CELink
p6501
(dp6502
g3
(lp6503
g6471
asg286
(icmyPackage
CorE
p6504
(dp6505
g289
(lp6506
(I0
I1
tp6507
a(I0
I13
tp6508
asg293
g6309
sbsg294
(icmyPackage
CorE
p6509
(dp6510
g289
(lp6511
(I0
I15
tp6512
a(I0
I29
tp6513
asg293
g5
(g6
g7
(lp6514
g6327
ag6464
atp6515
Rp6516
(dp6517
g16
g304
sbsbsg305
g1101
sg331
(lp6518
g6497
asba(icmyPackage
CELink
p6519
(dp6520
g3
(lp6521
g5
(g6
g7
(lp6522
g5
(g6
g7
(lp6523
g5
(g6
g7
(lp6524
g5
(g6
g7
(lp6525
VSince
p6526
atp6527
Rp6528
(dp6529
g16
VIN
p6530
sbag5
(g6
g7
(lp6531
g5
(g6
g7
(lp6532
g5
(g6
g7
(lp6533
VWikipedia
p6534
atp6535
Rp6536
(dp6537
g16
VNNP
p6538
sbag5
(g6
g7
(lp6539
Varticles
p6540
atp6541
Rp6542
(dp6543
g16
VNNS
p6544
sbatp6545
Rp6546
(dp6547
g16
VNP
p6548
sbag5
(g6
g7
(lp6549
g5
(g6
g7
(lp6550
Vvary
p6551
atp6552
Rp6553
(dp6554
g16
VVBP
p6555
sbag5
(g6
g7
(lp6556
g5
(g6
g7
(lp6557
Vgreatly
p6558
atp6559
Rp6560
(dp6561
g16
VRB
p6562
sbatp6563
Rp6564
(dp6565
g16
VADVP
p6566
sbag5
(g6
g7
(lp6567
g5
(g6
g7
(lp6568
Vin
p6569
atp6570
Rp6571
(dp6572
g16
VIN
p6573
sbag5
(g6
g7
(lp6574
g5
(g6
g7
(lp6575
Vlength
p6576
atp6577
Rp6578
(dp6579
g16
VNN
p6580
sbatp6581
Rp6582
(dp6583
g16
VNP
p6584
sbatp6585
Rp6586
(dp6587
g16
VPP
p6588
sbatp6589
Rp6590
(dp6591
g16
VVP
p6592
sbatp6593
Rp6594
(dp6595
g16
g168
sbatp6596
Rp6597
(dp6598
g16
VSBAR
p6599
sbag5
(g6
g7
(lp6600
g181
atp6601
Rp6602
(dp6603
g16
g181
sbag5
(g6
g7
(lp6604
g5
(g6
g7
(lp6605
Vwe
p6606
atp6607
Rp6608
(dp6609
g16
VPRP
p6610
sbatp6611
Rp6612
(dp6613
g16
VNP
p6614
sbag5
(g6
g7
(lp6615
g5
(g6
g7
(lp6616
Vrestricted
p6617
atp6618
Rp6619
(dp6620
g16
VVBD
p6621
sbag5
(g6
g7
(lp6622
g5
(g6
g7
(lp6623
VEN
p6624
atp6625
Rp6626
(dp6627
g16
VNNP
p6628
sbag5
(g6
g7
(lp6629
Vdocuments
p6630
atp6631
Rp6632
(dp6633
g16
VNNS
p6634
sbatp6635
Rp6636
(dp6637
g16
VNP
p6638
sbag5
(g6
g7
(lp6639
g5
(g6
g7
(lp6640
Vto
p6641
atp6642
Rp6643
(dp6644
g16
VTO
p6645
sbag5
(g6
g7
(lp6646
g5
(g6
g7
(lp6647
Vthe
p6648
atp6649
Rp6650
(dp6651
g16
VDT
p6652
sbag5
(g6
g7
(lp6653
Vfirst
p6654
atp6655
Rp6656
(dp6657
g16
VJJ
p6658
sbag5
(g6
g7
(lp6659
V200
p6660
atp6661
Rp6662
(dp6663
g16
VCD
p6664
sbag5
(g6
g7
(lp6665
Vwords
p6666
atp6667
Rp6668
(dp6669
g16
VNNS
p6670
sbatp6671
Rp6672
(dp6673
g16
VNP
p6674
sbatp6675
Rp6676
(dp6677
g16
VPP
p6678
sbag5
(g6
g7
(lp6679
g5
(g6
g7
(lp6680
Vafter
p6681
atp6682
Rp6683
(dp6684
g16
VIN
p6685
sbag5
(g6
g7
(lp6686
g5
(g6
g7
(lp6687
g5
(g6
g7
(lp6688
Vextracting
p6689
atp6690
Rp6691
(dp6692
g16
VVBG
p6693
sbag5
(g6
g7
(lp6694
g5
(g6
g7
(lp6695
Vthe
p6696
atp6697
Rp6698
(dp6699
g16
VDT
p6700
sbag5
(g6
g7
(lp6701
Vlink
p6702
atp6703
Rp6704
(dp6705
g16
VNN
p6706
sbag5
(g6
g7
(lp6707
Vgraph
p6708
atp6709
Rp6710
(dp6711
g16
VNN
p6712
sbatp6713
Rp6714
(dp6715
g16
VNP
p6716
sbag5
(g6
g7
(lp6717
g5
(g6
g7
(lp6718
g5
(g6
g7
(lp6719
Vto
p6720
atp6721
Rp6722
(dp6723
g16
VTO
p6724
sbag5
(g6
g7
(lp6725
g5
(g6
g7
(lp6726
Vreduce
p6727
atp6728
Rp6729
(dp6730
g16
VVB
p6731
sbag5
(g6
g7
(lp6732
g5
(g6
g7
(lp6733
g5
(g6
g7
(lp6734
Vthe
p6735
atp6736
Rp6737
(dp6738
g16
VDT
p6739
sbag5
(g6
g7
(lp6740
Vnumber
p6741
atp6742
Rp6743
(dp6744
g16
VNN
p6745
sbatp6746
Rp6747
(dp6748
g16
VNP
p6749
sbag5
(g6
g7
(lp6750
g5
(g6
g7
(lp6751
Vof
p6752
atp6753
Rp6754
(dp6755
g16
VIN
p6756
sbag5
(g6
g7
(lp6757
g5
(g6
g7
(lp6758
g5
(g6
g7
(lp6759
Vfeatures
p6760
atp6761
Rp6762
(dp6763
g16
VNNS
p6764
sbatp6765
Rp6766
(dp6767
g16
VNP
p6768
sbag5
(g6
g7
(lp6769
g5
(g6
g7
(lp6770
Vfor
p6771
atp6772
Rp6773
(dp6774
g16
VIN
p6775
sbag5
(g6
g7
(lp6776
g5
(g6
g7
(lp6777
VBM
p6778
atp6779
Rp6780
(dp6781
g16
VNNP
p6782
sbag5
(g6
g7
(lp6783
Vand
p6784
atp6785
Rp6786
(dp6787
g16
VCC
p6788
sbag5
(g6
g7
(lp6789
VVW
p6790
atp6791
Rp6792
(dp6793
g16
VNNP
p6794
sbag5
(g6
g7
(lp6795
Vmodels
p6796
atp6797
Rp6798
(dp6799
g16
VNNS
p6800
sbatp6801
Rp6802
(dp6803
g16
VNP
p6804
sbatp6805
Rp6806
(dp6807
g16
VPP
p6808
sbatp6809
Rp6810
(dp6811
g16
VNP
p6812
sbatp6813
Rp6814
(dp6815
g16
VPP
p6816
sbatp6817
Rp6818
(dp6819
g16
VNP
p6820
sbatp6821
Rp6822
(dp6823
g16
VVP
p6824
sbatp6825
Rp6826
(dp6827
g16
VVP
p6828
sbatp6829
Rp6830
(dp6831
g16
g168
sbatp6832
Rp6833
(dp6834
g16
VVP
p6835
sbatp6836
Rp6837
(dp6838
g16
g168
sbatp6839
Rp6840
(dp6841
g16
VPP
p6842
sbatp6843
Rp6844
(dp6845
g16
VVP
p6846
sbatp6847
Rp6848
(dp6849
g16
g168
sbatp6850
Rp6851
(dp6852
g16
VROOT
p6853
sbasg286
(icmyPackage
CorE
p6854
(dp6855
g289
(lp6856
(I0
I1
tp6857
a(I0
I6
tp6858
asg293
g6594
sbsg294
(icmyPackage
CorE
p6859
(dp6860
g289
(lp6861
(I0
I8
tp6862
a(I0
I32
tp6863
asg293
g5
(g6
g7
(lp6864
g6612
ag6844
atp6865
Rp6866
(dp6867
g16
g304
sbsbsg305
g1101
sg331
(lp6868
(isxpPackage
sxpSent
p6869
(dp6870
g335
(lp6871
I19
asg337
VSince Wikipedia articles vary greatly in length, we restricted EN documents to the first 200 words after extracting the link graph to reduce the number of features for BM and VW models
p6872
sg339
I13
sg323
I105
sg340
I23
sbasba(icmyPackage
CELink
p6873
(dp6874
g3
(lp6875
g5
(g6
g7
(lp6876
g5
(g6
g7
(lp6877
g5
(g6
g7
(lp6878
g5
(g6
g7
(lp6879
g5
(g6
g7
(lp6880
VTo
p6881
atp6882
Rp6883
(dp6884
g16
VTO
p6885
sbag5
(g6
g7
(lp6886
g5
(g6
g7
(lp6887
Vreduce
p6888
atp6889
Rp6890
(dp6891
g16
VVB
p6892
sbag5
(g6
g7
(lp6893
g5
(g6
g7
(lp6894
Vthe
p6895
atp6896
Rp6897
(dp6898
g16
VDT
p6899
sbag5
(g6
g7
(lp6900
VEN
p6901
atp6902
Rp6903
(dp6904
g16
VNNP
p6905
sbag5
(g6
g7
(lp6906
Vvocabulary
p6907
atp6908
Rp6909
(dp6910
g16
VNN
p6911
sbatp6912
Rp6913
(dp6914
g16
VNP
p6915
sbag5
(g6
g7
(lp6916
g5
(g6
g7
(lp6917
Vto
p6918
atp6919
Rp6920
(dp6921
g16
VTO
p6922
sbag5
(g6
g7
(lp6923
g5
(g6
g7
(lp6924
g1291
atp6925
Rp6926
(dp6927
g16
VDT
p6928
sbag5
(g6
g7
(lp6929
Vcomparable
p6930
atp6931
Rp6932
(dp6933
g16
VJJ
p6934
sbag5
(g6
g7
(lp6935
Vsize
p6936
atp6937
Rp6938
(dp6939
g16
VNN
p6940
sbatp6941
Rp6942
(dp6943
g16
VNP
p6944
sbatp6945
Rp6946
(dp6947
g16
VPP
p6948
sbatp6949
Rp6950
(dp6951
g16
VVP
p6952
sbatp6953
Rp6954
(dp6955
g16
VVP
p6956
sbatp6957
Rp6958
(dp6959
g16
g168
sbag5
(g6
g7
(lp6960
g181
atp6961
Rp6962
(dp6963
g16
g181
sbag5
(g6
g7
(lp6964
g5
(g6
g7
(lp6965
Vwe
p6966
atp6967
Rp6968
(dp6969
g16
VPRP
p6970
sbatp6971
Rp6972
(dp6973
g16
VNP
p6974
sbag5
(g6
g7
(lp6975
g5
(g6
g7
(lp6976
Vapplied
p6977
atp6978
Rp6979
(dp6980
g16
VVBD
p6981
sbag5
(g6
g7
(lp6982
g5
(g6
g7
(lp6983
g5
(g6
g7
(lp6984
g5
(g6
g7
(lp6985
g5
(g6
g7
(lp6986
Vsimilar
p6987
atp6988
Rp6989
(dp6990
g16
VJJ
p6991
sbag5
(g6
g7
(lp6992
Vpreprocessing
p6993
atp6994
Rp6995
(dp6996
g16
VVBG
p6997
sbatp6998
Rp6999
(dp7000
g16
VNP
p7001
sbag5
(g6
g7
(lp7002
Vand
p7003
atp7004
Rp7005
(dp7006
g16
VCC
p7007
sbag5
(g6
g7
(lp7008
g5
(g6
g7
(lp7009
g5
(g6
g7
(lp7010
VCFH
p7011
atp7012
Rp7013
(dp7014
g16
VNNP
p7015
sbatp7016
Rp7017
(dp7018
g16
VNP
p7019
sbag5
(g6
g7
(lp7020
g5
(g6
g7
(lp7021
Vwith
p7022
atp7023
Rp7024
(dp7025
g16
VIN
p7026
sbag5
(g6
g7
(lp7027
g5
(g6
g7
(lp7028
g5
(g6
g7
(lp7029
VF
p7030
atp7031
Rp7032
(dp7033
g16
VNN
p7034
sbatp7035
Rp7036
(dp7037
g16
VNP
p7038
sbag5
(g6
g7
(lp7039
g5
(g6
g7
(lp7040
g5
(g6
g7
(lp7041
g5
(g6
g7
(lp7042
g4553
atp7043
Rp7044
(dp7045
g16
VSYM
p7046
sbag5
(g6
g7
(lp7047
g5
(g6
g7
(lp7048
V30k
p7049
atp7050
Rp7051
(dp7052
g16
VNNS
p7053
sbag5
(g6
g7
(lp7054
Vand
p7055
atp7056
Rp7057
(dp7058
g16
VCC
p7059
sbag5
(g6
g7
(lp7060
Vk
p7061
atp7062
Rp7063
(dp7064
g16
VNN
p7065
sbatp7066
Rp7067
(dp7068
g16
VNP
p7069
sbatp7070
Rp7071
(dp7072
g16
VVP
p7073
sbatp7074
Rp7075
(dp7076
g16
g168
sbatp7077
Rp7078
(dp7079
g16
VSBAR
p7080
sbatp7081
Rp7082
(dp7083
g16
VNP
p7084
sbatp7085
Rp7086
(dp7087
g16
VPP
p7088
sbatp7089
Rp7090
(dp7091
g16
VNP
p7092
sbatp7093
Rp7094
(dp7095
g16
VNP
p7096
sbag5
(g6
g7
(lp7097
g5
(g6
g7
(lp7098
g4553
atp7099
Rp7100
(dp7101
g16
VSYM
p7102
sbag5
(g6
g7
(lp7103
g5
(g6
g7
(lp7104
V5
p7105
atp7106
Rp7107
(dp7108
g16
VCD
p7109
sbatp7110
Rp7111
(dp7112
g16
VNP
p7113
sbatp7114
Rp7115
(dp7116
g16
VVP
p7117
sbatp7118
Rp7119
(dp7120
g16
g168
sbatp7121
Rp7122
(dp7123
g16
VSBAR
p7124
sbatp7125
Rp7126
(dp7127
g16
VVP
p7128
sbatp7129
Rp7130
(dp7131
g16
g168
sbatp7132
Rp7133
(dp7134
g16
VROOT
p7135
sbag5
(g6
g7
(lp7136
g5
(g6
g7
(lp7137
g5
(g6
g7
(lp7138
g5
(g6
g7
(lp7139
VSince
p7140
atp7141
Rp7142
(dp7143
g16
VIN
p7144
sbag5
(g6
g7
(lp7145
g5
(g6
g7
(lp7146
g5
(g6
g7
(lp7147
Vfor
p7148
atp7149
Rp7150
(dp7151
g16
VIN
p7152
sbag5
(g6
g7
(lp7153
g5
(g6
g7
(lp7154
VWikipedia
p7155
atp7156
Rp7157
(dp7158
g16
VNNP
p7159
sbag5
(g6
g7
(lp7160
Vdata
p7161
atp7162
Rp7163
(dp7164
g16
VNNS
p7165
sbatp7166
Rp7167
(dp7168
g16
VNP
p7169
sbatp7170
Rp7171
(dp7172
g16
VPP
p7173
sbag5
(g6
g7
(lp7174
g181
atp7175
Rp7176
(dp7177
g16
g181
sbag5
(g6
g7
(lp7178
g5
(g6
g7
(lp7179
Vthe
p7180
atp7181
Rp7182
(dp7183
g16
VDT
p7184
sbag5
(g6
g7
(lp7185
VDE
p7186
atp7187
Rp7188
(dp7189
g16
VNNP
p7190
sbag5
(g6
g7
(lp7191
Vand
p7192
atp7193
Rp7194
(dp7195
g16
VCC
p7196
sbag5
(g6
g7
(lp7197
VEN
p7198
atp7199
Rp7200
(dp7201
g16
VNNP
p7202
sbag5
(g6
g7
(lp7203
Vvocabularies
p7204
atp7205
Rp7206
(dp7207
g16
VNNS
p7208
sbatp7209
Rp7210
(dp7211
g16
VNP
p7212
sbag5
(g6
g7
(lp7213
g5
(g6
g7
(lp7214
Vwere
p7215
atp7216
Rp7217
(dp7218
g16
VVBD
p7219
sbag5
(g6
g7
(lp7220
g5
(g6
g7
(lp7221
Vboth
p7222
atp7223
Rp7224
(dp7225
g16
VDT
p7226
sbag5
(g6
g7
(lp7227
Vlarge
p7228
atp7229
Rp7230
(dp7231
g16
VJJ
p7232
sbatp7233
Rp7234
(dp7235
g16
VADJP
p7236
sbag5
(g6
g7
(lp7237
g5
(g6
g7
(lp7238
V-LRB-
p7239
atp7240
Rp7241
(dp7242
g16
V-LRB-
p7243
sbag5
(g6
g7
(lp7244
g5
(g6
g7
(lp7245
g5
(g6
g7
(lp7246
V6.7
p7247
atp7248
Rp7249
(dp7250
g16
VCD
p7251
sbag5
(g6
g7
(lp7252
VM
p7253
atp7254
Rp7255
(dp7256
g16
VNNS
p7257
sbatp7258
Rp7259
(dp7260
g16
VNP
p7261
sbag5
(g6
g7
(lp7262
Vand
p7263
atp7264
Rp7265
(dp7266
g16
VCC
p7267
sbag5
(g6
g7
(lp7268
g5
(g6
g7
(lp7269
V6M
p7270
atp7271
Rp7272
(dp7273
g16
VCD
p7274
sbatp7275
Rp7276
(dp7277
g16
VNP
p7278
sbatp7279
Rp7280
(dp7281
g16
VNP
p7282
sbag5
(g6
g7
(lp7283
V-RRB-
p7284
atp7285
Rp7286
(dp7287
g16
V-RRB-
p7288
sbatp7289
Rp7290
(dp7291
g16
VPRN
p7292
sbatp7293
Rp7294
(dp7295
g16
VVP
p7296
sbatp7297
Rp7298
(dp7299
g16
g168
sbatp7300
Rp7301
(dp7302
g16
VSBAR
p7303
sbag5
(g6
g7
(lp7304
g181
atp7305
Rp7306
(dp7307
g16
g181
sbag5
(g6
g7
(lp7308
g5
(g6
g7
(lp7309
Vwe
p7310
atp7311
Rp7312
(dp7313
g16
VPRP
p7314
sbatp7315
Rp7316
(dp7317
g16
VNP
p7318
sbag5
(g6
g7
(lp7319
g5
(g6
g7
(lp7320
g5
(g6
g7
(lp7321
Vused
p7322
atp7323
Rp7324
(dp7325
g16
VVBD
p7326
sbag5
(g6
g7
(lp7327
g5
(g6
g7
(lp7328
g5
(g6
g7
(lp7329
g5
(g6
g7
(lp7330
g5
(g6
g7
(lp7331
Vthe
p7332
atp7333
Rp7334
(dp7335
g16
VDT
p7336
sbag5
(g6
g7
(lp7337
Vsame
p7338
atp7339
Rp7340
(dp7341
g16
VJJ
p7342
sbatp7343
Rp7344
(dp7345
g16
VNP
p7346
sbag5
(g6
g7
(lp7347
g5
(g6
g7
(lp7348
Vfiltering
p7349
atp7350
Rp7351
(dp7352
g16
VVBG
p7353
sbag5
(g6
g7
(lp7354
Vand
p7355
atp7356
Rp7357
(dp7358
g16
VCC
p7359
sbag5
(g6
g7
(lp7360
Vpreprocessing
p7361
atp7362
Rp7363
(dp7364
g16
VVBG
p7365
sbag5
(g6
g7
(lp7366
g5
(g6
g7
(lp7367
Vas
p7368
atp7369
Rp7370
(dp7371
g16
VIN
p7372
sbag5
(g6
g7
(lp7373
g5
(g6
g7
(lp7374
Vfor
p7375
atp7376
Rp7377
(dp7378
g16
VIN
p7379
sbag5
(g6
g7
(lp7380
g5
(g6
g7
(lp7381
Vthe
p7382
atp7383
Rp7384
(dp7385
g16
VDT
p7386
sbag5
(g6
g7
(lp7387
Vpatent
p7388
atp7389
Rp7390
(dp7391
g16
VNN
p7392
sbag5
(g6
g7
(lp7393
Vdata
p7394
atp7395
Rp7396
(dp7397
g16
VNNS
p7398
sbatp7399
Rp7400
(dp7401
g16
VNP
p7402
sbatp7403
Rp7404
(dp7405
g16
VPP
p7406
sbatp7407
Rp7408
(dp7409
g16
VPP
p7410
sbag5
(g6
g7
(lp7411
g5
(g6
g7
(lp7412
Vbefore
p7413
atp7414
Rp7415
(dp7416
g16
VIN
p7417
sbag5
(g6
g7
(lp7418
g5
(g6
g7
(lp7419
g5
(g6
g7
(lp7420
Vapplying
p7421
atp7422
Rp7423
(dp7424
g16
VVBG
p7425
sbag5
(g6
g7
(lp7426
g5
(g6
g7
(lp7427
g5
(g6
g7
(lp7428
VCFH
p7429
atp7430
Rp7431
(dp7432
g16
VNNP
p7433
sbatp7434
Rp7435
(dp7436
g16
VNP
p7437
sbag5
(g6
g7
(lp7438
g5
(g6
g7
(lp7439
Vwith
p7440
atp7441
Rp7442
(dp7443
g16
VIN
p7444
sbag5
(g6
g7
(lp7445
g5
(g6
g7
(lp7446
g7030
atp7447
Rp7448
(dp7449
g16
VNN
p7450
sbatp7451
Rp7452
(dp7453
g16
VNP
p7454
sbatp7455
Rp7456
(dp7457
g16
VPP
p7458
sbatp7459
Rp7460
(dp7461
g16
VNP
p7462
sbatp7463
Rp7464
(dp7465
g16
VVP
p7466
sbatp7467
Rp7468
(dp7469
g16
g168
sbatp7470
Rp7471
(dp7472
g16
VPP
p7473
sbatp7474
Rp7475
(dp7476
g16
VVP
p7477
sbatp7478
Rp7479
(dp7480
g16
VNP
p7481
sbag5
(g6
g7
(lp7482
g5
(g6
g7
(lp7483
g4553
atp7484
Rp7485
(dp7486
g16
VSYM
p7487
sbag5
(g6
g7
(lp7488
g5
(g6
g7
(lp7489
V40k
p7490
atp7491
Rp7492
(dp7493
g16
VNNS
p7494
sbatp7495
Rp7496
(dp7497
g16
VNP
p7498
sbatp7499
Rp7500
(dp7501
g16
VVP
p7502
sbatp7503
Rp7504
(dp7505
g16
g168
sbatp7506
Rp7507
(dp7508
g16
VSBAR
p7509
sbatp7510
Rp7511
(dp7512
g16
VVP
p7513
sbag5
(g6
g7
(lp7514
Vand
p7515
atp7516
Rp7517
(dp7518
g16
VCC
p7519
sbag5
(g6
g7
(lp7520
g5
(g6
g7
(lp7521
g7061
atp7522
Rp7523
(dp7524
g16
VVBD
p7525
sbag5
(g6
g7
(lp7526
g5
(g6
g7
(lp7527
g5
(g6
g7
(lp7528
g4553
atp7529
Rp7530
(dp7531
g16
VSYM
p7532
sbag5
(g6
g7
(lp7533
g5
(g6
g7
(lp7534
g7105
atp7535
Rp7536
(dp7537
g16
VCD
p7538
sbatp7539
Rp7540
(dp7541
g16
VNP
p7542
sbatp7543
Rp7544
(dp7545
g16
VVP
p7546
sbatp7547
Rp7548
(dp7549
g16
g168
sbag5
(g6
g7
(lp7550
g5
(g6
g7
(lp7551
Von
p7552
atp7553
Rp7554
(dp7555
g16
VIN
p7556
sbag5
(g6
g7
(lp7557
g5
(g6
g7
(lp7558
Vboth
p7559
atp7560
Rp7561
(dp7562
g16
VDT
p7563
sbag5
(g6
g7
(lp7564
Vsides
p7565
atp7566
Rp7567
(dp7568
g16
VNNS
p7569
sbatp7570
Rp7571
(dp7572
g16
VNP
p7573
sbatp7574
Rp7575
(dp7576
g16
VPP
p7577
sbatp7578
Rp7579
(dp7580
g16
VVP
p7581
sbatp7582
Rp7583
(dp7584
g16
VVP
p7585
sbatp7586
Rp7587
(dp7588
g16
g168
sbatp7589
Rp7590
(dp7591
g16
VROOT
p7592
sbasg286
(icmyPackage
CorE
p7593
(dp7594
g289
(lp7595
(I1
I1
tp7596
a(I1
I45
tp7597
asg293
g5
(g6
g7
(lp7598
g7298
ag7306
ag7316
ag7583
atp7599
Rp7600
(dp7601
g16
g304
sbsbsg294
(icmyPackage
CorE
p7602
(dp7603
g289
(lp7604
(I0
I0
tp7605
a(I0
I23
tp7606
asg293
g7133
sbsg305
(icmyPackage
pattern
p7607
(dp7608
g308
I23
sg309
I1
sg310
(lp7609
(lp7610
S'since'
p7611
aasg318
(lp7612
I3
aI1
aI1
asg320
(lp7613
S'This is one of the simplest cases since the surface is so thin.'
p7614
aS'He could not answer the question, since he had not made up his mind.'
p7615
aS'That manager has been a basket case here since his wife left him.'
p7616
asg323
I79
sg324
(lp7617
(lp7618
S'&R@NCTime@'
p7619
aS'(,)'
p7620
aa(lp7621
S'&C@NCTime@'
p7622
aasbsg331
(lp7623
(isxpPackage
sxpSent
p7624
(dp7625
g335
(lp7626
I20
asg337
VTo reduce the EN vocabulary to a comparable size, we applied similar preprocessing and CFH with F =30k and k =5
p7627
sg339
I13
sg323
I111
sg340
I24
sba(isxpPackage
sxpSent
p7628
(dp7629
g335
(lp7630
I20
asg337
VSince for Wikipedia data, the DE and EN vocabularies were both large (6.7M and 6M), we used the same filtering and preprocessing as for the patent data before applying CFH with F =40k and k =5 on both sides
p7631
sg339
I13
sg323
I112
sg340
I24
sbasba(icmyPackage
CELink
p7632
(dp7633
g3
(lp7634
g5
(g6
g7
(lp7635
g5
(g6
g7
(lp7636
g5
(g6
g7
(lp7637
g5
(g6
g7
(lp7638
VLinLearn
p7639
atp7640
Rp7641
(dp7642
g16
VNNP
p7643
sbatp7644
Rp7645
(dp7646
g16
VNP
p7647
sbag5
(g6
g7
(lp7648
g5
(g6
g7
(lp7649
Vdenotes
p7650
atp7651
Rp7652
(dp7653
g16
VVBZ
p7654
sbag5
(g6
g7
(lp7655
g5
(g6
g7
(lp7656
Vmodel
p7657
atp7658
Rp7659
(dp7660
g16
VNN
p7661
sbag5
(g6
g7
(lp7662
Vcombination
p7663
atp7664
Rp7665
(dp7666
g16
VNN
p7667
sbatp7668
Rp7669
(dp7670
g16
VNP
p7671
sbag5
(g6
g7
(lp7672
g5
(g6
g7
(lp7673
Vby
p7674
atp7675
Rp7676
(dp7677
g16
VIN
p7678
sbag5
(g6
g7
(lp7679
g5
(g6
g7
(lp7680
g5
(g6
g7
(lp7681
Voverloading
p7682
atp7683
Rp7684
(dp7685
g16
VVBG
p7686
sbag5
(g6
g7
(lp7687
g5
(g6
g7
(lp7688
g5
(g6
g7
(lp7689
g5
(g6
g7
(lp7690
g5
(g6
g7
(lp7691
Vthe
p7692
atp7693
Rp7694
(dp7695
g16
VDT
p7696
sbag5
(g6
g7
(lp7697
Vvector
p7698
atp7699
Rp7700
(dp7701
g16
VNN
p7702
sbag5
(g6
g7
(lp7703
Vrepresentation
p7704
atp7705
Rp7706
(dp7707
g16
VNN
p7708
sbatp7709
Rp7710
(dp7711
g16
VNP
p7712
sbag5
(g6
g7
(lp7713
g5
(g6
g7
(lp7714
Vof
p7715
atp7716
Rp7717
(dp7718
g16
VIN
p7719
sbag5
(g6
g7
(lp7720
g5
(g6
g7
(lp7721
g5
(g6
g7
(lp7722
g5
(g6
g7
(lp7723
g5
(g6
g7
(lp7724
Vqueries
p7725
atp7726
Rp7727
(dp7728
g16
VNNP
p7729
sbag5
(g6
g7
(lp7730
g4621
atp7731
Rp7732
(dp7733
g16
VNNP
p7734
sbag5
(g6
g7
(lp7735
g4627
atp7736
Rp7737
(dp7738
g16
VPOS
p7739
sbatp7740
Rp7741
(dp7742
g16
VNP
p7743
sbag5
(g6
g7
(lp7744
V\u005c
p7745
atp7746
Rp7747
(dp7748
g16
VJJ
p7749
sbag5
(g6
g7
(lp7750
g5
(g6
g7
(lp7751
Vud835
p7752
atp7753
Rp7754
(dp7755
g16
VNNP
p7756
sbag5
(g6
g7
(lp7757
g4627
atp7758
Rp7759
(dp7760
g16
VPOS
p7761
sbatp7762
Rp7763
(dp7764
g16
VNP
p7765
sbag5
(g6
g7
(lp7766
g4621
atp7767
Rp7768
(dp7769
g16
VNN
p7770
sbag5
(g6
g7
(lp7771
g4627
atp7772
Rp7773
(dp7774
g16
V''
p7775
sbatp7776
Rp7777
(dp7778
g16
VNP
p7779
sbag5
(g6
g7
(lp7780
g5
(g6
g7
(lp7781
V\u005c
p7782
atp7783
Rp7784
(dp7785
g16
VJJ
p7786
sbag5
(g6
g7
(lp7787
Vudc2a
p7788
atp7789
Rp7790
(dp7791
g16
VNNS
p7792
sbatp7793
Rp7794
(dp7795
g16
VNP
p7796
sbatp7797
Rp7798
(dp7799
g16
VNP
p7800
sbag5
(g6
g7
(lp7801
g4627
atp7802
Rp7803
(dp7804
g16
V''
p7805
sbag5
(g6
g7
(lp7806
Vand
p7807
atp7808
Rp7809
(dp7810
g16
VCC
p7811
sbag5
(g6
g7
(lp7812
g5
(g6
g7
(lp7813
g5
(g6
g7
(lp7814
Vdocuments
p7815
atp7816
Rp7817
(dp7818
g16
VNNS
p7819
sbatp7820
Rp7821
(dp7822
g16
VNP
p7823
sbag5
(g6
g7
(lp7824
g5
(g6
g7
(lp7825
g5
(g6
g7
(lp7826
g4621
atp7827
Rp7828
(dp7829
g16
VNNP
p7830
sbag5
(g6
g7
(lp7831
g4627
atp7832
Rp7833
(dp7834
g16
VPOS
p7835
sbatp7836
Rp7837
(dp7838
g16
VNP
p7839
sbag5
(g6
g7
(lp7840
V\u005c
p7841
atp7842
Rp7843
(dp7844
g16
VJJ
p7845
sbag5
(g6
g7
(lp7846
Vud835
p7847
atp7848
Rp7849
(dp7850
g16
VJJ
p7851
sbag5
(g6
g7
(lp7852
g4627
atp7853
Rp7854
(dp7855
g16
V''
p7856
sbag5
(g6
g7
(lp7857
g4621
atp7858
Rp7859
(dp7860
g16
VNN
p7861
sbatp7862
Rp7863
(dp7864
g16
VNP
p7865
sbatp7866
Rp7867
(dp7868
g16
VNP
p7869
sbatp7870
Rp7871
(dp7872
g16
VNP
p7873
sbatp7874
Rp7875
(dp7876
g16
VPP
p7877
sbag5
(g6
g7
(lp7878
g4627
atp7879
Rp7880
(dp7881
g16
VPOS
p7882
sbatp7883
Rp7884
(dp7885
g16
VNP
p7886
sbag5
(g6
g7
(lp7887
V\u005c
p7888
atp7889
Rp7890
(dp7891
g16
VNNP
p7892
sbag5
(g6
g7
(lp7893
Vudc1d
p7894
atp7895
Rp7896
(dp7897
g16
VNNP
p7898
sbag5
(g6
g7
(lp7899
g4627
atp7900
Rp7901
(dp7902
g16
V''
p7903
sbatp7904
Rp7905
(dp7906
g16
VNP
p7907
sbag5
(g6
g7
(lp7908
g5
(g6
g7
(lp7909
Vin
p7910
atp7911
Rp7912
(dp7913
g16
VIN
p7914
sbag5
(g6
g7
(lp7915
g5
(g6
g7
(lp7916
Vthe
p7917
atp7918
Rp7919
(dp7920
g16
VDT
p7921
sbag5
(g6
g7
(lp7922
VVW
p7923
atp7924
Rp7925
(dp7926
g16
VNNP
p7927
sbag5
(g6
g7
(lp7928
Vlinear
p7929
atp7930
Rp7931
(dp7932
g16
VJJ
p7933
sbag5
(g6
g7
(lp7934
Vlearner
p7935
atp7936
Rp7937
(dp7938
g16
VNN
p7939
sbatp7940
Rp7941
(dp7942
g16
VNP
p7943
sbatp7944
Rp7945
(dp7946
g16
VPP
p7947
sbatp7948
Rp7949
(dp7950
g16
VNP
p7951
sbag5
(g6
g7
(lp7952
g5
(g6
g7
(lp7953
Vby
p7954
atp7955
Rp7956
(dp7957
g16
VIN
p7958
sbag5
(g6
g7
(lp7959
g5
(g6
g7
(lp7960
g5
(g6
g7
(lp7961
Vincorporating
p7962
atp7963
Rp7964
(dp7965
g16
VVBG
p7966
sbag5
(g6
g7
(lp7967
g5
(g6
g7
(lp7968
g5
(g6
g7
(lp7969
Varbitrary
p7970
atp7971
Rp7972
(dp7973
g16
VJJ
p7974
sbatp7975
Rp7976
(dp7977
g16
VADJP
p7978
sbag5
(g6
g7
(lp7979
Vranking
p7980
atp7981
Rp7982
(dp7983
g16
VJJ
p7984
sbag5
(g6
g7
(lp7985
Vmodels
p7986
atp7987
Rp7988
(dp7989
g16
VNNS
p7990
sbatp7991
Rp7992
(dp7993
g16
VNP
p7994
sbag5
(g6
g7
(lp7995
g5
(g6
g7
(lp7996
Vas
p7997
atp7998
Rp7999
(dp8000
g16
VIN
p8001
sbag5
(g6
g7
(lp8002
g5
(g6
g7
(lp8003
Vdense
p8004
atp8005
Rp8006
(dp8007
g16
VJJ
p8008
sbag5
(g6
g7
(lp8009
Vfeatures
p8010
atp8011
Rp8012
(dp8013
g16
VNNS
p8014
sbatp8015
Rp8016
(dp8017
g16
VNP
p8018
sbatp8019
Rp8020
(dp8021
g16
VPP
p8022
sbatp8023
Rp8024
(dp8025
g16
VVP
p8026
sbatp8027
Rp8028
(dp8029
g16
g168
sbatp8030
Rp8031
(dp8032
g16
VPP
p8033
sbatp8034
Rp8035
(dp8036
g16
VVP
p8037
sbatp8038
Rp8039
(dp8040
g16
g168
sbatp8041
Rp8042
(dp8043
g16
VPP
p8044
sbatp8045
Rp8046
(dp8047
g16
VVP
p8048
sbatp8049
Rp8050
(dp8051
g16
g168
sbatp8052
Rp8053
(dp8054
g16
VROOT
p8055
sbag5
(g6
g7
(lp8056
g5
(g6
g7
(lp8057
g5
(g6
g7
(lp8058
g5
(g6
g7
(lp8059
VIn
p8060
atp8061
Rp8062
(dp8063
g16
VIN
p8064
sbag5
(g6
g7
(lp8065
g5
(g6
g7
(lp8066
g5
(g6
g7
(lp8067
Vdifference
p8068
atp8069
Rp8070
(dp8071
g16
VNN
p8072
sbatp8073
Rp8074
(dp8075
g16
VNP
p8076
sbag5
(g6
g7
(lp8077
g5
(g6
g7
(lp8078
Vto
p8079
atp8080
Rp8081
(dp8082
g16
VTO
p8083
sbag5
(g6
g7
(lp8084
g5
(g6
g7
(lp8085
g5
(g6
g7
(lp8086
Vgrid
p8087
atp8088
Rp8089
(dp8090
g16
VNN
p8091
sbag5
(g6
g7
(lp8092
Vsearch
p8093
atp8094
Rp8095
(dp8096
g16
VNN
p8097
sbatp8098
Rp8099
(dp8100
g16
VNP
p8101
sbag5
(g6
g7
(lp8102
g5
(g6
g7
(lp8103
Vfor
p8104
atp8105
Rp8106
(dp8107
g16
VIN
p8108
sbag5
(g6
g7
(lp8109
g5
(g6
g7
(lp8110
VBorda
p8111
atp8112
Rp8113
(dp8114
g16
VNNP
p8115
sbatp8116
Rp8117
(dp8118
g16
VNP
p8119
sbatp8120
Rp8121
(dp8122
g16
VPP
p8123
sbatp8124
Rp8125
(dp8126
g16
VNP
p8127
sbatp8128
Rp8129
(dp8130
g16
VPP
p8131
sbatp8132
Rp8133
(dp8134
g16
VNP
p8135
sbatp8136
Rp8137
(dp8138
g16
VPP
p8139
sbag5
(g6
g7
(lp8140
g181
atp8141
Rp8142
(dp8143
g16
g181
sbag5
(g6
g7
(lp8144
g5
(g6
g7
(lp8145
g5
(g6
g7
(lp8146
Voptimal
p8147
atp8148
Rp8149
(dp8150
g16
VJJ
p8151
sbag5
(g6
g7
(lp8152
Vweights
p8153
atp8154
Rp8155
(dp8156
g16
VNNS
p8157
sbatp8158
Rp8159
(dp8160
g16
VNP
p8161
sbag5
(g6
g7
(lp8162
g5
(g6
g7
(lp8163
Vfor
p8164
atp8165
Rp8166
(dp8167
g16
VIN
p8168
sbag5
(g6
g7
(lp8169
g5
(g6
g7
(lp8170
g5
(g6
g7
(lp8171
Vthe
p8172
atp8173
Rp8174
(dp8175
g16
VDT
p8176
sbag5
(g6
g7
(lp8177
Vlinear
p8178
atp8179
Rp8180
(dp8181
g16
VJJ
p8182
sbag5
(g6
g7
(lp8183
Vcombination
p8184
atp8185
Rp8186
(dp8187
g16
VNN
p8188
sbatp8189
Rp8190
(dp8191
g16
VNP
p8192
sbag5
(g6
g7
(lp8193
g5
(g6
g7
(lp8194
Vof
p8195
atp8196
Rp8197
(dp8198
g16
VIN
p8199
sbag5
(g6
g7
(lp8200
g5
(g6
g7
(lp8201
Vincorporated
p8202
atp8203
Rp8204
(dp8205
g16
VJJ
p8206
sbag5
(g6
g7
(lp8207
Vranking
p8208
atp8209
Rp8210
(dp8211
g16
VJJ
p8212
sbag5
(g6
g7
(lp8213
Vmodels
p8214
atp8215
Rp8216
(dp8217
g16
VNNS
p8218
sbatp8219
Rp8220
(dp8221
g16
VNP
p8222
sbatp8223
Rp8224
(dp8225
g16
VPP
p8226
sbatp8227
Rp8228
(dp8229
g16
VNP
p8230
sbatp8231
Rp8232
(dp8233
g16
VPP
p8234
sbatp8235
Rp8236
(dp8237
g16
VNP
p8238
sbag5
(g6
g7
(lp8239
g5
(g6
g7
(lp8240
Vcan
p8241
atp8242
Rp8243
(dp8244
g16
VMD
p8245
sbag5
(g6
g7
(lp8246
g5
(g6
g7
(lp8247
Vbe
p8248
atp8249
Rp8250
(dp8251
g16
VVB
p8252
sbag5
(g6
g7
(lp8253
g5
(g6
g7
(lp8254
Vlearned
p8255
atp8256
Rp8257
(dp8258
g16
VVBN
p8259
sbag5
(g6
g7
(lp8260
g5
(g6
g7
(lp8261
Vautomatically
p8262
atp8263
Rp8264
(dp8265
g16
VRB
p8266
sbatp8267
Rp8268
(dp8269
g16
VADVP
p8270
sbatp8271
Rp8272
(dp8273
g16
VVP
p8274
sbatp8275
Rp8276
(dp8277
g16
VVP
p8278
sbatp8279
Rp8280
(dp8281
g16
VVP
p8282
sbatp8283
Rp8284
(dp8285
g16
g168
sbatp8286
Rp8287
(dp8288
g16
VROOT
p8289
sbasg286
(icmyPackage
CorE
p8290
(dp8291
g289
(lp8292
(I0
I44
tp8293
a(I1
I20
tp8294
asg293
g5
(g6
g7
(lp8295
g8016
ag8137
ag8142
ag8236
ag8243
ag8250
ag8257
atp8296
Rp8297
(dp8298
g16
g304
sbsbsg294
(icmyPackage
CorE
p8299
(dp8300
g289
(lp8301
(I0
I0
tp8302
a(I0
I42
tp8303
asg293
g5
(g6
g7
(lp8304
g7645
ag7652
ag7669
ag7676
ag7684
ag7949
ag7956
ag7964
ag7992
atp8305
Rp8306
(dp8307
g16
g304
sbsbsg305
g2416
sg331
(lp8308
(isxpPackage
sxpSent
p8309
(dp8310
g335
(lp8311
I21
asg337
VLinLearn denotes model combination by overloading the vector representation of queries u'\u005cud835' u'\u005cudc2a' and documents u'\u005cud835' u'\u005cudc1d' in the VW linear learner by incorporating arbitrary ranking models as dense features
p8312
sg339
I18
sg323
I138
sg340
I30
sba(isxpPackage
sxpSent
p8313
(dp8314
g335
(lp8315
I21
asg337
VIn difference to grid search for Borda , optimal weights for the linear combination of incorporated ranking models can be learned automatically
p8316
sg339
I18
sg323
I139
sg340
I30
sbasba(icmyPackage
CELink
p8317
(dp8318
g3
(lp8319
g5
(g6
g7
(lp8320
g5
(g6
g7
(lp8321
g5
(g6
g7
(lp8322
g5
(g6
g7
(lp8323
VWe
p8324
atp8325
Rp8326
(dp8327
g16
VPRP
p8328
sbatp8329
Rp8330
(dp8331
g16
VNP
p8332
sbag5
(g6
g7
(lp8333
g5
(g6
g7
(lp8334
Vdo
p8335
atp8336
Rp8337
(dp8338
g16
VVBP
p8339
sbag5
(g6
g7
(lp8340
Vnot
p8341
atp8342
Rp8343
(dp8344
g16
VRB
p8345
sbag5
(g6
g7
(lp8346
g5
(g6
g7
(lp8347
Vreport
p8348
atp8349
Rp8350
(dp8351
g16
VVB
p8352
sbag5
(g6
g7
(lp8353
g5
(g6
g7
(lp8354
Vcombination
p8355
atp8356
Rp8357
(dp8358
g16
VNN
p8359
sbag5
(g6
g7
(lp8360
Vresults
p8361
atp8362
Rp8363
(dp8364
g16
VNNS
p8365
sbatp8366
Rp8367
(dp8368
g16
VNP
p8369
sbag5
(g6
g7
(lp8370
g5
(g6
g7
(lp8371
Vincluding
p8372
atp8373
Rp8374
(dp8375
g16
VVBG
p8376
sbag5
(g6
g7
(lp8377
g5
(g6
g7
(lp8378
g5
(g6
g7
(lp8379
Vthe
p8380
atp8381
Rp8382
(dp8383
g16
VDT
p8384
sbag5
(g6
g7
(lp8385
Vsparse
p8386
atp8387
Rp8388
(dp8389
g16
VJJ
p8390
sbag5
(g6
g7
(lp8391
VBM
p8392
atp8393
Rp8394
(dp8395
g16
VNNP
p8396
sbag5
(g6
g7
(lp8397
Vmodel
p8398
atp8399
Rp8400
(dp8401
g16
VNN
p8402
sbatp8403
Rp8404
(dp8405
g16
VNP
p8406
sbag5
(g6
g7
(lp8407
g5
(g6
g7
(lp8408
Vsince
p8409
atp8410
Rp8411
(dp8412
g16
VIN
p8413
sbag5
(g6
g7
(lp8414
g5
(g6
g7
(lp8415
g5
(g6
g7
(lp8416
Vthey
p8417
atp8418
Rp8419
(dp8420
g16
VPRP
p8421
sbatp8422
Rp8423
(dp8424
g16
VNP
p8425
sbag5
(g6
g7
(lp8426
g5
(g6
g7
(lp8427
Vwere
p8428
atp8429
Rp8430
(dp8431
g16
VVBD
p8432
sbag5
(g6
g7
(lp8433
g5
(g6
g7
(lp8434
g5
(g6
g7
(lp8435
Vconsistently
p8436
atp8437
Rp8438
(dp8439
g16
VRB
p8440
sbag5
(g6
g7
(lp8441
Vlower
p8442
atp8443
Rp8444
(dp8445
g16
VJJR
p8446
sbatp8447
Rp8448
(dp8449
g16
VADJP
p8450
sbag5
(g6
g7
(lp8451
g5
(g6
g7
(lp8452
Vthan
p8453
atp8454
Rp8455
(dp8456
g16
VIN
p8457
sbag5
(g6
g7
(lp8458
g5
(g6
g7
(lp8459
Vthe
p8460
atp8461
Rp8462
(dp8463
g16
VDT
p8464
sbag5
(g6
g7
(lp8465
Vones
p8466
atp8467
Rp8468
(dp8469
g16
VNNS
p8470
sbatp8471
Rp8472
(dp8473
g16
VNP
p8474
sbatp8475
Rp8476
(dp8477
g16
VPP
p8478
sbatp8479
Rp8480
(dp8481
g16
VADJP
p8482
sbag5
(g6
g7
(lp8483
g5
(g6
g7
(lp8484
Vwith
p8485
atp8486
Rp8487
(dp8488
g16
VIN
p8489
sbag5
(g6
g7
(lp8490
g5
(g6
g7
(lp8491
Vthe
p8492
atp8493
Rp8494
(dp8495
g16
VDT
p8496
sbag5
(g6
g7
(lp8497
Vsparse
p8498
atp8499
Rp8500
(dp8501
g16
VJJ
p8502
sbag5
(g6
g7
(lp8503
VVW
p8504
atp8505
Rp8506
(dp8507
g16
VNNP
p8508
sbag5
(g6
g7
(lp8509
Vmodel
p8510
atp8511
Rp8512
(dp8513
g16
VNN
p8514
sbatp8515
Rp8516
(dp8517
g16
VNP
p8518
sbatp8519
Rp8520
(dp8521
g16
VPP
p8522
sbatp8523
Rp8524
(dp8525
g16
VVP
p8526
sbatp8527
Rp8528
(dp8529
g16
g168
sbatp8530
Rp8531
(dp8532
g16
VSBAR
p8533
sbatp8534
Rp8535
(dp8536
g16
VNP
p8537
sbatp8538
Rp8539
(dp8540
g16
VPP
p8541
sbatp8542
Rp8543
(dp8544
g16
VVP
p8545
sbatp8546
Rp8547
(dp8548
g16
VVP
p8549
sbatp8550
Rp8551
(dp8552
g16
g168
sbatp8553
Rp8554
(dp8555
g16
VROOT
p8556
sbasg286
(icmyPackage
CorE
p8557
(dp8558
g289
(lp8559
(I0
I12
tp8560
a(I0
I23
tp8561
asg293
g8528
sbsg294
(icmyPackage
CorE
p8562
(dp8563
g289
(lp8564
(I0
I0
tp8565
a(I0
I10
tp8566
asg293
g5
(g6
g7
(lp8567
g8330
ag8337
ag8343
ag8350
ag8367
ag8374
ag8404
atp8568
Rp8569
(dp8570
g16
g304
sbsbsg305
g7607
sg331
(lp8571
(isxpPackage
sxpSent
p8572
(dp8573
g335
(lp8574
I22
asg337
VWe do not report combination results including the sparse BM model since they were consistently lower than the ones with the sparse VW model
p8575
sg339
I18
sg323
I141
sg340
I30
sbasba(icmyPackage
CELink
p8576
(dp8577
g3
(lp8578
g5
(g6
g7
(lp8579
g5
(g6
g7
(lp8580
g5
(g6
g7
(lp8581
g5
(g6
g7
(lp8582
VAs
p8583
atp8584
Rp8585
(dp8586
g16
VIN
p8587
sbag5
(g6
g7
(lp8588
g5
(g6
g7
(lp8589
g5
(g6
g7
(lp8590
Vcan
p8591
atp8592
Rp8593
(dp8594
g16
VMD
p8595
sbag5
(g6
g7
(lp8596
g5
(g6
g7
(lp8597
Vbe
p8598
atp8599
Rp8600
(dp8601
g16
VVB
p8602
sbag5
(g6
g7
(lp8603
g5
(g6
g7
(lp8604
Vseen
p8605
atp8606
Rp8607
(dp8608
g16
VVBN
p8609
sbag5
(g6
g7
(lp8610
g5
(g6
g7
(lp8611
Vfrom
p8612
atp8613
Rp8614
(dp8615
g16
VIN
p8616
sbag5
(g6
g7
(lp8617
g5
(g6
g7
(lp8618
g5
(g6
g7
(lp8619
Vinspecting
p8620
atp8621
Rp8622
(dp8623
g16
VVBG
p8624
sbag5
(g6
g7
(lp8625
g5
(g6
g7
(lp8626
Vthe
p8627
atp8628
Rp8629
(dp8630
g16
VDT
p8631
sbag5
(g6
g7
(lp8632
g5
(g6
g7
(lp8633
g5
(g6
g7
(lp8634
Vtwo
p8635
atp8636
Rp8637
(dp8638
g16
VCD
p8639
sbag5
(g6
g7
(lp8640
Vblocks
p8641
atp8642
Rp8643
(dp8644
g16
VNNS
p8645
sbatp8646
Rp8647
(dp8648
g16
VNP
p8649
sbag5
(g6
g7
(lp8650
g5
(g6
g7
(lp8651
Vof
p8652
atp8653
Rp8654
(dp8655
g16
VIN
p8656
sbag5
(g6
g7
(lp8657
g5
(g6
g7
(lp8658
Vresults
p8659
atp8660
Rp8661
(dp8662
g16
VNNS
p8663
sbatp8664
Rp8665
(dp8666
g16
VNP
p8667
sbatp8668
Rp8669
(dp8670
g16
VPP
p8671
sbatp8672
Rp8673
(dp8674
g16
VNP
p8675
sbag5
(g6
g7
(lp8676
g181
atp8677
Rp8678
(dp8679
g16
g181
sbag5
(g6
g7
(lp8680
g5
(g6
g7
(lp8681
g5
(g6
g7
(lp8682
Vone
p8683
atp8684
Rp8685
(dp8686
g16
VCD
p8687
sbatp8688
Rp8689
(dp8690
g16
VNP
p8691
sbag5
(g6
g7
(lp8692
g5
(g6
g7
(lp8693
Vfor
p8694
atp8695
Rp8696
(dp8697
g16
VIN
p8698
sbag5
(g6
g7
(lp8699
g5
(g6
g7
(lp8700
Vpatents
p8701
atp8702
Rp8703
(dp8704
g16
VNNS
p8705
sbatp8706
Rp8707
(dp8708
g16
VNP
p8709
sbatp8710
Rp8711
(dp8712
g16
VPP
p8713
sbatp8714
Rp8715
(dp8716
g16
VNP
p8717
sbag5
(g6
g7
(lp8718
g181
atp8719
Rp8720
(dp8721
g16
g181
sbag5
(g6
g7
(lp8722
g5
(g6
g7
(lp8723
g5
(g6
g7
(lp8724
Vone
p8725
atp8726
Rp8727
(dp8728
g16
VCD
p8729
sbatp8730
Rp8731
(dp8732
g16
VNP
p8733
sbag5
(g6
g7
(lp8734
g5
(g6
g7
(lp8735
Vfor
p8736
atp8737
Rp8738
(dp8739
g16
VIN
p8740
sbag5
(g6
g7
(lp8741
g5
(g6
g7
(lp8742
VWikipedia
p8743
atp8744
Rp8745
(dp8746
g16
VNNP
p8747
sbatp8748
Rp8749
(dp8750
g16
VNP
p8751
sbatp8752
Rp8753
(dp8754
g16
VPP
p8755
sbatp8756
Rp8757
(dp8758
g16
VNP
p8759
sbatp8760
Rp8761
(dp8762
g16
VNP
p8763
sbatp8764
Rp8765
(dp8766
g16
VVP
p8767
sbatp8768
Rp8769
(dp8770
g16
g168
sbatp8771
Rp8772
(dp8773
g16
VPP
p8774
sbatp8775
Rp8776
(dp8777
g16
VVP
p8778
sbatp8779
Rp8780
(dp8781
g16
VVP
p8782
sbatp8783
Rp8784
(dp8785
g16
VVP
p8786
sbatp8787
Rp8788
(dp8789
g16
g168
sbatp8790
Rp8791
(dp8792
g16
VSBAR
p8793
sbag5
(g6
g7
(lp8794
g181
atp8795
Rp8796
(dp8797
g16
g181
sbag5
(g6
g7
(lp8798
g5
(g6
g7
(lp8799
Vwe
p8800
atp8801
Rp8802
(dp8803
g16
VPRP
p8804
sbatp8805
Rp8806
(dp8807
g16
VNP
p8808
sbag5
(g6
g7
(lp8809
g5
(g6
g7
(lp8810
Vfind
p8811
atp8812
Rp8813
(dp8814
g16
VVBP
p8815
sbag5
(g6
g7
(lp8816
g5
(g6
g7
(lp8817
g5
(g6
g7
(lp8818
Vthe
p8819
atp8820
Rp8821
(dp8822
g16
VDT
p8823
sbag5
(g6
g7
(lp8824
Vsame
p8825
atp8826
Rp8827
(dp8828
g16
VJJ
p8829
sbag5
(g6
g7
(lp8830
Vsystem
p8831
atp8832
Rp8833
(dp8834
g16
VNN
p8835
sbag5
(g6
g7
(lp8836
Vrankings
p8837
atp8838
Rp8839
(dp8840
g16
VNNS
p8841
sbatp8842
Rp8843
(dp8844
g16
VNP
p8845
sbag5
(g6
g7
(lp8846
g5
(g6
g7
(lp8847
Von
p8848
atp8849
Rp8850
(dp8851
g16
VIN
p8852
sbag5
(g6
g7
(lp8853
g5
(g6
g7
(lp8854
Vboth
p8855
atp8856
Rp8857
(dp8858
g16
VDT
p8859
sbag5
(g6
g7
(lp8860
Vdatasets
p8861
atp8862
Rp8863
(dp8864
g16
VNNS
p8865
sbatp8866
Rp8867
(dp8868
g16
VNP
p8869
sbatp8870
Rp8871
(dp8872
g16
VPP
p8873
sbatp8874
Rp8875
(dp8876
g16
VNP
p8877
sbatp8878
Rp8879
(dp8880
g16
VVP
p8881
sbatp8882
Rp8883
(dp8884
g16
g168
sbatp8885
Rp8886
(dp8887
g16
VROOT
p8888
sbag5
(g6
g7
(lp8889
g5
(g6
g7
(lp8890
g5
(g6
g7
(lp8891
g5
(g6
g7
(lp8892
VIn
p8893
atp8894
Rp8895
(dp8896
g16
VIN
p8897
sbag5
(g6
g7
(lp8898
g5
(g6
g7
(lp8899
Vboth
p8900
atp8901
Rp8902
(dp8903
g16
VDT
p8904
sbag5
(g6
g7
(lp8905
Vcases
p8906
atp8907
Rp8908
(dp8909
g16
VNNS
p8910
sbatp8911
Rp8912
(dp8913
g16
VNP
p8914
sbatp8915
Rp8916
(dp8917
g16
VPP
p8918
sbag5
(g6
g7
(lp8919
g181
atp8920
Rp8921
(dp8922
g16
g181
sbag5
(g6
g7
(lp8923
g5
(g6
g7
(lp8924
Vas
p8925
atp8926
Rp8927
(dp8928
g16
VIN
p8929
sbag5
(g6
g7
(lp8930
g5
(g6
g7
(lp8931
Vstandalone
p8932
atp8933
Rp8934
(dp8935
g16
VJJ
p8936
sbag5
(g6
g7
(lp8937
Vsystems
p8938
atp8939
Rp8940
(dp8941
g16
VNNS
p8942
sbatp8943
Rp8944
(dp8945
g16
VNP
p8946
sbatp8947
Rp8948
(dp8949
g16
VPP
p8950
sbag5
(g6
g7
(lp8951
g181
atp8952
Rp8953
(dp8954
g16
g181
sbag5
(g6
g7
(lp8955
g5
(g6
g7
(lp8956
VDT
p8957
atp8958
Rp8959
(dp8960
g16
VNNP
p8961
sbag5
(g6
g7
(lp8962
Vand
p8963
atp8964
Rp8965
(dp8966
g16
VCC
p8967
sbag5
(g6
g7
(lp8968
VPSQ
p8969
atp8970
Rp8971
(dp8972
g16
VNNP
p8973
sbatp8974
Rp8975
(dp8976
g16
VNP
p8977
sbag5
(g6
g7
(lp8978
g5
(g6
g7
(lp8979
Vare
p8980
atp8981
Rp8982
(dp8983
g16
VVBP
p8984
sbag5
(g6
g7
(lp8985
g5
(g6
g7
(lp8986
g5
(g6
g7
(lp8987
Vvery
p8988
atp8989
Rp8990
(dp8991
g16
VRB
p8992
sbag5
(g6
g7
(lp8993
Vclose
p8994
atp8995
Rp8996
(dp8997
g16
VJJ
p8998
sbatp8999
Rp9000
(dp9001
g16
VADJP
p9002
sbag5
(g6
g7
(lp9003
Vand
p9004
atp9005
Rp9006
(dp9007
g16
VCC
p9008
sbag5
(g6
g7
(lp9009
g5
(g6
g7
(lp9010
Vfar
p9011
atp9012
Rp9013
(dp9014
g16
VRB
p9015
sbag5
(g6
g7
(lp9016
Vbetter
p9017
atp9018
Rp9019
(dp9020
g16
VJJR
p9021
sbatp9022
Rp9023
(dp9024
g16
VADJP
p9025
sbatp9026
Rp9027
(dp9028
g16
VADJP
p9029
sbag5
(g6
g7
(lp9030
g5
(g6
g7
(lp9031
Vthan
p9032
atp9033
Rp9034
(dp9035
g16
VIN
p9036
sbag5
(g6
g7
(lp9037
g5
(g6
g7
(lp9038
g5
(g6
g7
(lp9039
g5
(g6
g7
(lp9040
Vany
p9041
atp9042
Rp9043
(dp9044
g16
VDT
p9045
sbag5
(g6
g7
(lp9046
Vranking
p9047
atp9048
Rp9049
(dp9050
g16
VJJ
p9051
sbag5
(g6
g7
(lp9052
Vapproach
p9053
atp9054
Rp9055
(dp9056
g16
VNN
p9057
sbatp9058
Rp9059
(dp9060
g16
VNP
p9061
sbag5
(g6
g7
(lp9062
g181
atp9063
Rp9064
(dp9065
g16
g181
sbag5
(g6
g7
(lp9066
g5
(g6
g7
(lp9067
Virrespective
p9068
atp9069
Rp9070
(dp9071
g16
VRB
p9072
sbag5
(g6
g7
(lp9073
g5
(g6
g7
(lp9074
Vof
p9075
atp9076
Rp9077
(dp9078
g16
VIN
p9079
sbag5
(g6
g7
(lp9080
g5
(g6
g7
(lp9081
Vthe
p9082
atp9083
Rp9084
(dp9085
g16
VDT
p9086
sbag5
(g6
g7
(lp9087
Vobjective
p9088
atp9089
Rp9090
(dp9091
g16
VJJ
p9092
sbag5
(g6
g7
(lp9093
Vfunction
p9094
atp9095
Rp9096
(dp9097
g16
VNN
p9098
sbatp9099
Rp9100
(dp9101
g16
VNP
p9102
sbatp9103
Rp9104
(dp9105
g16
VPP
p9106
sbatp9107
Rp9108
(dp9109
g16
VADVP
p9110
sbatp9111
Rp9112
(dp9113
g16
VNP
p9114
sbag5
(g6
g7
(lp9115
Vor
p9116
atp9117
Rp9118
(dp9119
g16
VCC
p9120
sbag5
(g6
g7
(lp9121
g5
(g6
g7
(lp9122
g5
(g6
g7
(lp9123
Vthe
p9124
atp9125
Rp9126
(dp9127
g16
VDT
p9128
sbag5
(g6
g7
(lp9129
Vchoice
p9130
atp9131
Rp9132
(dp9133
g16
VNN
p9134
sbatp9135
Rp9136
(dp9137
g16
VNP
p9138
sbag5
(g6
g7
(lp9139
g5
(g6
g7
(lp9140
Vof
p9141
atp9142
Rp9143
(dp9144
g16
VIN
p9145
sbag5
(g6
g7
(lp9146
g5
(g6
g7
(lp9147
Vsparse
p9148
atp9149
Rp9150
(dp9151
g16
VJJ
p9152
sbag5
(g6
g7
(lp9153
Vor
p9154
atp9155
Rp9156
(dp9157
g16
VCC
p9158
sbag5
(g6
g7
(lp9159
Vdense
p9160
atp9161
Rp9162
(dp9163
g16
VJJ
p9164
sbag5
(g6
g7
(lp9165
Vfeatures
p9166
atp9167
Rp9168
(dp9169
g16
VNNS
p9170
sbatp9171
Rp9172
(dp9173
g16
VNP
p9174
sbatp9175
Rp9176
(dp9177
g16
VPP
p9178
sbatp9179
Rp9180
(dp9181
g16
VNP
p9182
sbatp9183
Rp9184
(dp9185
g16
VNP
p9186
sbatp9187
Rp9188
(dp9189
g16
VPP
p9190
sbatp9191
Rp9192
(dp9193
g16
VVP
p9194
sbatp9195
Rp9196
(dp9197
g16
g168
sbatp9198
Rp9199
(dp9200
g16
VROOT
p9201
sbasg286
(icmyPackage
CorE
p9202
(dp9203
g289
(lp9204
(I1
I5
tp9205
a(I1
I34
tp9206
asg293
g5
(g6
g7
(lp9207
g8944
ag8953
ag8975
ag9192
atp9208
Rp9209
(dp9210
g16
g304
sbsbsg294
(icmyPackage
CorE
p9211
(dp9212
g289
(lp9213
(I0
I1
tp9214
a(I1
I2
tp9215
asg293
g5
(g6
g7
(lp9216
g8788
ag8796
ag8806
ag8879
ag8916
atp9217
Rp9218
(dp9219
g16
g304
sbsbsg305
g2416
sg331
(lp9220
(isxpPackage
sxpSent
p9221
(dp9222
g335
(lp9223
I23
asg337
VAs can be seen from inspecting the two blocks of results, one for patents, one for Wikipedia, we find the same system rankings on both datasets
p9224
sg339
I18
sg323
I153
sg340
I40
sba(isxpPackage
sxpSent
p9225
(dp9226
g335
(lp9227
I23
asg337
VIn both cases, as standalone systems, DT and PSQ are very close and far better than any ranking approach, irrespective of the objective function or the choice of sparse or dense features
p9228
sg339
I18
sg323
I154
sg340
I40
sbasba(icmyPackage
CELink
p9229
(dp9230
g3
(lp9231
g5
(g6
g7
(lp9232
g5
(g6
g7
(lp9233
g5
(g6
g7
(lp9234
g5
(g6
g7
(lp9235
VThe
p9236
atp9237
Rp9238
(dp9239
g16
VDT
p9240
sbag5
(g6
g7
(lp9241
Vbest
p9242
atp9243
Rp9244
(dp9245
g16
VJJS
p9246
sbag5
(g6
g7
(lp9247
Vresult
p9248
atp9249
Rp9250
(dp9251
g16
VNN
p9252
sbatp9253
Rp9254
(dp9255
g16
VNP
p9256
sbag5
(g6
g7
(lp9257
g5
(g6
g7
(lp9258
Vis
p9259
atp9260
Rp9261
(dp9262
g16
VVBZ
p9263
sbag5
(g6
g7
(lp9264
g5
(g6
g7
(lp9265
Vachieved
p9266
atp9267
Rp9268
(dp9269
g16
VVBN
p9270
sbag5
(g6
g7
(lp9271
g5
(g6
g7
(lp9272
Vby
p9273
atp9274
Rp9275
(dp9276
g16
VIN
p9277
sbag5
(g6
g7
(lp9278
g5
(g6
g7
(lp9279
g5
(g6
g7
(lp9280
Vcombining
p9281
atp9282
Rp9283
(dp9284
g16
VVBG
p9285
sbag5
(g6
g7
(lp9286
g5
(g6
g7
(lp9287
VDT
p9288
atp9289
Rp9290
(dp9291
g16
VNNP
p9292
sbag5
(g6
g7
(lp9293
Vand
p9294
atp9295
Rp9296
(dp9297
g16
VCC
p9298
sbag5
(g6
g7
(lp9299
VPSQ
p9300
atp9301
Rp9302
(dp9303
g16
VNNP
p9304
sbatp9305
Rp9306
(dp9307
g16
VNP
p9308
sbag5
(g6
g7
(lp9309
g5
(g6
g7
(lp9310
Vwith
p9311
atp9312
Rp9313
(dp9314
g16
VIN
p9315
sbag5
(g6
g7
(lp9316
g5
(g6
g7
(lp9317
VDK
p9318
atp9319
Rp9320
(dp9321
g16
VNNP
p9322
sbag5
(g6
g7
(lp9323
Vand
p9324
atp9325
Rp9326
(dp9327
g16
VCC
p9328
sbag5
(g6
g7
(lp9329
VVW
p9330
atp9331
Rp9332
(dp9333
g16
VNNP
p9334
sbatp9335
Rp9336
(dp9337
g16
VNP
p9338
sbatp9339
Rp9340
(dp9341
g16
VPP
p9342
sbatp9343
Rp9344
(dp9345
g16
VVP
p9346
sbatp9347
Rp9348
(dp9349
g16
g168
sbatp9350
Rp9351
(dp9352
g16
VPP
p9353
sbatp9354
Rp9355
(dp9356
g16
VVP
p9357
sbatp9358
Rp9359
(dp9360
g16
VVP
p9361
sbatp9362
Rp9363
(dp9364
g16
g168
sbatp9365
Rp9366
(dp9367
g16
VROOT
p9368
sbasg286
(icmyPackage
CorE
p9369
(dp9370
g289
(lp9371
(I0
I6
tp9372
a(I0
I13
tp9373
asg293
g9348
sbsg294
(icmyPackage
CorE
p9374
(dp9375
g289
(lp9376
(I0
I0
tp9377
a(I0
I4
tp9378
asg293
g5
(g6
g7
(lp9379
g9254
ag9261
ag9268
atp9380
Rp9381
(dp9382
g16
g304
sbsbsg305
g5149
sg331
(lp9383
(isxpPackage
sxpSent
p9384
(dp9385
g335
(lp9386
I24
aI25
asg337
VThe best result is achieved by combining DT and PSQ with DK and VW
p9387
sg339
I18
sg323
I156
sg340
I40
sbasba(icmyPackage
CELink
p9388
(dp9389
g3
(lp9390
g9366
ag5
(g6
g7
(lp9391
g5
(g6
g7
(lp9392
g5
(g6
g7
(lp9393
g5
(g6
g7
(lp9394
VThis
p9395
atp9396
Rp9397
(dp9398
g16
VDT
p9399
sbatp9400
Rp9401
(dp9402
g16
VNP
p9403
sbag5
(g6
g7
(lp9404
g5
(g6
g7
(lp9405
Vis
p9406
atp9407
Rp9408
(dp9409
g16
VVBZ
p9410
sbag5
(g6
g7
(lp9411
g5
(g6
g7
(lp9412
Vdue
p9413
atp9414
Rp9415
(dp9416
g16
VJJ
p9417
sbag5
(g6
g7
(lp9418
g5
(g6
g7
(lp9419
g5
(g6
g7
(lp9420
Vto
p9421
atp9422
Rp9423
(dp9424
g16
VTO
p9425
sbag5
(g6
g7
(lp9426
g5
(g6
g7
(lp9427
g5
(g6
g7
(lp9428
Vthe
p9429
atp9430
Rp9431
(dp9432
g16
VDT
p9433
sbag5
(g6
g7
(lp9434
g5
(g6
g7
(lp9435
Valready
p9436
atp9437
Rp9438
(dp9439
g16
VRB
p9440
sbag5
(g6
g7
(lp9441
Vhigh
p9442
atp9443
Rp9444
(dp9445
g16
VJJ
p9446
sbatp9447
Rp9448
(dp9449
g16
VADJP
p9450
sbag5
(g6
g7
(lp9451
Vscores
p9452
atp9453
Rp9454
(dp9455
g16
VNNS
p9456
sbatp9457
Rp9458
(dp9459
g16
VNP
p9460
sbag5
(g6
g7
(lp9461
g5
(g6
g7
(lp9462
Vof
p9463
atp9464
Rp9465
(dp9466
g16
VIN
p9467
sbag5
(g6
g7
(lp9468
g5
(g6
g7
(lp9469
Vthe
p9470
atp9471
Rp9472
(dp9473
g16
VDT
p9474
sbag5
(g6
g7
(lp9475
Vcombined
p9476
atp9477
Rp9478
(dp9479
g16
VJJ
p9480
sbag5
(g6
g7
(lp9481
Vmodels
p9482
atp9483
Rp9484
(dp9485
g16
VNNS
p9486
sbatp9487
Rp9488
(dp9489
g16
VNP
p9490
sbatp9491
Rp9492
(dp9493
g16
VPP
p9494
sbatp9495
Rp9496
(dp9497
g16
VNP
p9498
sbatp9499
Rp9500
(dp9501
g16
VPP
p9502
sbag5
(g6
g7
(lp9503
g181
atp9504
Rp9505
(dp9506
g16
g181
sbag5
(g6
g7
(lp9507
g5
(g6
g7
(lp9508
Vbut
p9509
atp9510
Rp9511
(dp9512
g16
VCC
p9513
sbag5
(g6
g7
(lp9514
Valso
p9515
atp9516
Rp9517
(dp9518
g16
VRB
p9519
sbatp9520
Rp9521
(dp9522
g16
VCONJP
p9523
sbag5
(g6
g7
(lp9524
g5
(g6
g7
(lp9525
Vto
p9526
atp9527
Rp9528
(dp9529
g16
VTO
p9530
sbag5
(g6
g7
(lp9531
g5
(g6
g7
(lp9532
g5
(g6
g7
(lp9533
Vthe
p9534
atp9535
Rp9536
(dp9537
g16
VDT
p9538
sbag5
(g6
g7
(lp9539
Vcombination
p9540
atp9541
Rp9542
(dp9543
g16
VNN
p9544
sbatp9545
Rp9546
(dp9547
g16
VNP
p9548
sbag5
(g6
g7
(lp9549
g5
(g6
g7
(lp9550
Vof
p9551
atp9552
Rp9553
(dp9554
g16
VIN
p9555
sbag5
(g6
g7
(lp9556
g5
(g6
g7
(lp9557
g5
(g6
g7
(lp9558
Vyet
p9559
atp9560
Rp9561
(dp9562
g16
VRB
p9563
sbag5
(g6
g7
(lp9564
Vother
p9565
atp9566
Rp9567
(dp9568
g16
VJJ
p9569
sbag5
(g6
g7
(lp9570
Vtypes
p9571
atp9572
Rp9573
(dp9574
g16
VNNS
p9575
sbatp9576
Rp9577
(dp9578
g16
VNP
p9579
sbag5
(g6
g7
(lp9580
g5
(g6
g7
(lp9581
Vof
p9582
atp9583
Rp9584
(dp9585
g16
VIN
p9586
sbag5
(g6
g7
(lp9587
g5
(g6
g7
(lp9588
Vorthogonal
p9589
atp9590
Rp9591
(dp9592
g16
VJJ
p9593
sbag5
(g6
g7
(lp9594
Vinformation
p9595
atp9596
Rp9597
(dp9598
g16
VNN
p9599
sbatp9600
Rp9601
(dp9602
g16
VNP
p9603
sbatp9604
Rp9605
(dp9606
g16
VPP
p9607
sbatp9608
Rp9609
(dp9610
g16
VNP
p9611
sbatp9612
Rp9613
(dp9614
g16
VPP
p9615
sbatp9616
Rp9617
(dp9618
g16
VNP
p9619
sbatp9620
Rp9621
(dp9622
g16
VPP
p9623
sbatp9624
Rp9625
(dp9626
g16
VPP
p9627
sbatp9628
Rp9629
(dp9630
g16
VADJP
p9631
sbatp9632
Rp9633
(dp9634
g16
VVP
p9635
sbatp9636
Rp9637
(dp9638
g16
g168
sbatp9639
Rp9640
(dp9641
g16
VROOT
p9642
sbasg286
(icmyPackage
CorE
p9643
(dp9644
g289
(lp9645
(I1
I4
tp9646
a(I1
I13
tp9647
asg293
g5
(g6
g7
(lp9648
g9496
ag9505
ag9511
atp9649
Rp9650
(dp9651
g16
g304
sbsbsg294
(icmyPackage
CorE
p9652
(dp9653
g289
(lp9654
(I0
I0
tp9655
a(I0
I13
tp9656
asg293
g9366
sbsg305
(icmyPackage
pattern
p9657
(dp9658
g308
I5
sg309
I1
sg310
(lp9659
(lp9660
S'due'
p9661
aS'to'
p9662
aasg318
(lp9663
I4
aI1
aI2
asg320
(lp9664
S'Amazing things will happen. This is due to the fact that the space between does not belong to any of the cultures that refract one another.'
p9665
aS'But the difference between Java code and XSD remains; this is due to the fundamental nature of the mismatch between the two technologies.'
p9666
asg323
I102
sg324
(lp9667
(lp9668
S'&R'
p9669
aS'(,/./;/--)'
p9670
aS'(&AND)'
p9671
aS'&THIS'
p9672
aS'&BE'
p9673
aa(lp9674
S'&NP@C@'
p9675
aS'(&Clause@C@)'
p9676
aasbsg331
(lp9677
g9384
a(isxpPackage
sxpSent
p9678
(dp9679
g335
(lp9680
I25
asg337
VThis is due to the already high scores of the combined models, but also to the combination of yet other types of orthogonal information
p9681
sg339
I18
sg323
I157
sg340
I40
sbasba(icmyPackage
CELink
p9682
(dp9683
g3
(lp9684
g5
(g6
g7
(lp9685
g5
(g6
g7
(lp9686
g5
(g6
g7
(lp9687
g5
(g6
g7
(lp9688
VBorda
p9689
atp9690
Rp9691
(dp9692
g16
VNNP
p9693
sbag5
(g6
g7
(lp9694
Vvoting
p9695
atp9696
Rp9697
(dp9698
g16
VNN
p9699
sbatp9700
Rp9701
(dp9702
g16
VNP
p9703
sbag5
(g6
g7
(lp9704
g5
(g6
g7
(lp9705
Vgives
p9706
atp9707
Rp9708
(dp9709
g16
VVBZ
p9710
sbag5
(g6
g7
(lp9711
g5
(g6
g7
(lp9712
g5
(g6
g7
(lp9713
Vthe
p9714
atp9715
Rp9716
(dp9717
g16
VDT
p9718
sbag5
(g6
g7
(lp9719
Vbest
p9720
atp9721
Rp9722
(dp9723
g16
VJJS
p9724
sbag5
(g6
g7
(lp9725
Vresult
p9726
atp9727
Rp9728
(dp9729
g16
VNN
p9730
sbatp9731
Rp9732
(dp9733
g16
VNP
p9734
sbag5
(g6
g7
(lp9735
g5
(g6
g7
(lp9736
Vunder
p9737
atp9738
Rp9739
(dp9740
g16
VIN
p9741
sbag5
(g6
g7
(lp9742
g5
(g6
g7
(lp9743
VMAP
p9744
atp9745
Rp9746
(dp9747
g16
VNNP
p9748
sbatp9749
Rp9750
(dp9751
g16
VNP
p9752
sbatp9753
Rp9754
(dp9755
g16
VPP
p9756
sbag5
(g6
g7
(lp9757
g5
(g6
g7
(lp9758
g5
(g6
g7
(lp9759
Vwhich
p9760
atp9761
Rp9762
(dp9763
g16
VWDT
p9764
sbatp9765
Rp9766
(dp9767
g16
VWHNP
p9768
sbag5
(g6
g7
(lp9769
g5
(g6
g7
(lp9770
g5
(g6
g7
(lp9771
Vis
p9772
atp9773
Rp9774
(dp9775
g16
VVBZ
p9776
sbag5
(g6
g7
(lp9777
g5
(g6
g7
(lp9778
Vprobably
p9779
atp9780
Rp9781
(dp9782
g16
VRB
p9783
sbatp9784
Rp9785
(dp9786
g16
VADVP
p9787
sbag5
(g6
g7
(lp9788
g5
(g6
g7
(lp9789
Vdue
p9790
atp9791
Rp9792
(dp9793
g16
VJJ
p9794
sbag5
(g6
g7
(lp9795
g5
(g6
g7
(lp9796
Vto
p9797
atp9798
Rp9799
(dp9800
g16
VTO
p9801
sbag5
(g6
g7
(lp9802
g5
(g6
g7
(lp9803
g5
(g6
g7
(lp9804
Vthe
p9805
atp9806
Rp9807
(dp9808
g16
VDT
p9809
sbag5
(g6
g7
(lp9810
Vadjustment
p9811
atp9812
Rp9813
(dp9814
g16
VNN
p9815
sbatp9816
Rp9817
(dp9818
g16
VNP
p9819
sbag5
(g6
g7
(lp9820
g5
(g6
g7
(lp9821
Vof
p9822
atp9823
Rp9824
(dp9825
g16
VIN
p9826
sbag5
(g6
g7
(lp9827
g5
(g6
g7
(lp9828
g5
(g6
g7
(lp9829
Vthe
p9830
atp9831
Rp9832
(dp9833
g16
VDT
p9834
sbag5
(g6
g7
(lp9835
Vinterpolation
p9836
atp9837
Rp9838
(dp9839
g16
VNN
p9840
sbag5
(g6
g7
(lp9841
Vparameter
p9842
atp9843
Rp9844
(dp9845
g16
VNN
p9846
sbatp9847
Rp9848
(dp9849
g16
VNP
p9850
sbag5
(g6
g7
(lp9851
g5
(g6
g7
(lp9852
Vfor
p9853
atp9854
Rp9855
(dp9856
g16
VIN
p9857
sbag5
(g6
g7
(lp9858
g5
(g6
g7
(lp9859
VMAP
p9860
atp9861
Rp9862
(dp9863
g16
VNNP
p9864
sbatp9865
Rp9866
(dp9867
g16
VNP
p9868
sbatp9869
Rp9870
(dp9871
g16
VPP
p9872
sbatp9873
Rp9874
(dp9875
g16
VNP
p9876
sbatp9877
Rp9878
(dp9879
g16
VPP
p9880
sbatp9881
Rp9882
(dp9883
g16
VNP
p9884
sbatp9885
Rp9886
(dp9887
g16
VPP
p9888
sbatp9889
Rp9890
(dp9891
g16
VADJP
p9892
sbag5
(g6
g7
(lp9893
g5
(g6
g7
(lp9894
Von
p9895
atp9896
Rp9897
(dp9898
g16
VIN
p9899
sbag5
(g6
g7
(lp9900
g5
(g6
g7
(lp9901
Vthe
p9902
atp9903
Rp9904
(dp9905
g16
VDT
p9906
sbag5
(g6
g7
(lp9907
Vdevelopment
p9908
atp9909
Rp9910
(dp9911
g16
VNN
p9912
sbag5
(g6
g7
(lp9913
Vset
p9914
atp9915
Rp9916
(dp9917
g16
VNN
p9918
sbatp9919
Rp9920
(dp9921
g16
VNP
p9922
sbatp9923
Rp9924
(dp9925
g16
VPP
p9926
sbatp9927
Rp9928
(dp9929
g16
VVP
p9930
sbatp9931
Rp9932
(dp9933
g16
g168
sbatp9934
Rp9935
(dp9936
g16
VSBAR
p9937
sbatp9938
Rp9939
(dp9940
g16
VNP
p9941
sbatp9942
Rp9943
(dp9944
g16
VVP
p9945
sbatp9946
Rp9947
(dp9948
g16
g168
sbatp9949
Rp9950
(dp9951
g16
VROOT
p9952
sbasg286
(icmyPackage
CorE
p9953
(dp9954
g289
(lp9955
(I0
I13
tp9956
a(I0
I24
tp9957
asg293
g5
(g6
g7
(lp9958
g9882
ag9924
atp9959
Rp9960
(dp9961
g16
g304
sbsbsg294
(icmyPackage
CorE
p9962
(dp9963
g289
(lp9964
(I0
I0
tp9965
a(I0
I10
tp9966
asg293
g5
(g6
g7
(lp9967
g9701
ag9708
ag9732
ag9754
ag9766
ag9774
ag9785
atp9968
Rp9969
(dp9970
g16
g304
sbsbsg305
g2706
sg331
(lp9971
(isxpPackage
sxpSent
p9972
(dp9973
g335
(lp9974
I26
asg337
VBorda voting gives the best result under MAP which is probably due to the adjustment of the interpolation parameter for MAP on the development set
p9975
sg339
I18
sg323
I158
sg340
I40
sbasba(icmyPackage
CELink
p9976
(dp9977
g3
(lp9978
g5
(g6
g7
(lp9979
g5
(g6
g7
(lp9980
g5
(g6
g7
(lp9981
g5
(g6
g7
(lp9982
VUnder
p9983
atp9984
Rp9985
(dp9986
g16
VIN
p9987
sbag5
(g6
g7
(lp9988
g5
(g6
g7
(lp9989
VNDCG
p9990
atp9991
Rp9992
(dp9993
g16
VNNP
p9994
sbag5
(g6
g7
(lp9995
Vand
p9996
atp9997
Rp9998
(dp9999
g16
VCC
p10000
sbag5
(g6
g7
(lp10001
VPRES
p10002
atp10003
Rp10004
(dp10005
g16
VNNP
p10006
sbatp10007
Rp10008
(dp10009
g16
VNP
p10010
sbatp10011
Rp10012
(dp10013
g16
VPP
p10014
sbag5
(g6
g7
(lp10015
g181
atp10016
Rp10017
(dp10018
g16
g181
sbag5
(g6
g7
(lp10019
g5
(g6
g7
(lp10020
VLinLearn
p10021
atp10022
Rp10023
(dp10024
g16
VNNP
p10025
sbatp10026
Rp10027
(dp10028
g16
VNP
p10029
sbag5
(g6
g7
(lp10030
g5
(g6
g7
(lp10031
Vachieves
p10032
atp10033
Rp10034
(dp10035
g16
VVBZ
p10036
sbag5
(g6
g7
(lp10037
g5
(g6
g7
(lp10038
Vthe
p10039
atp10040
Rp10041
(dp10042
g16
VDT
p10043
sbag5
(g6
g7
(lp10044
Vbest
p10045
atp10046
Rp10047
(dp10048
g16
VJJS
p10049
sbag5
(g6
g7
(lp10050
Vresults
p10051
atp10052
Rp10053
(dp10054
g16
VNNS
p10055
sbatp10056
Rp10057
(dp10058
g16
VNP
p10059
sbag5
(g6
g7
(lp10060
g181
atp10061
Rp10062
(dp10063
g16
g181
sbag5
(g6
g7
(lp10064
g5
(g6
g7
(lp10065
g5
(g6
g7
(lp10066
Vshowing
p10067
atp10068
Rp10069
(dp10070
g16
VVBG
p10071
sbag5
(g6
g7
(lp10072
g5
(g6
g7
(lp10073
g5
(g6
g7
(lp10074
Vthe
p10075
atp10076
Rp10077
(dp10078
g16
VDT
p10079
sbag5
(g6
g7
(lp10080
Vadvantage
p10081
atp10082
Rp10083
(dp10084
g16
VNN
p10085
sbatp10086
Rp10087
(dp10088
g16
VNP
p10089
sbag5
(g6
g7
(lp10090
g5
(g6
g7
(lp10091
Vof
p10092
atp10093
Rp10094
(dp10095
g16
VIN
p10096
sbag5
(g6
g7
(lp10097
g5
(g6
g7
(lp10098
g5
(g6
g7
(lp10099
Vautomatically
p10100
atp10101
Rp10102
(dp10103
g16
VRB
p10104
sbatp10105
Rp10106
(dp10107
g16
VADVP
p10108
sbag5
(g6
g7
(lp10109
g5
(g6
g7
(lp10110
Vlearning
p10111
atp10112
Rp10113
(dp10114
g16
VVBG
p10115
sbag5
(g6
g7
(lp10116
g5
(g6
g7
(lp10117
g5
(g6
g7
(lp10118
Vcombination
p10119
atp10120
Rp10121
(dp10122
g16
VNN
p10123
sbag5
(g6
g7
(lp10124
Vweights
p10125
atp10126
Rp10127
(dp10128
g16
VNNS
p10129
sbatp10130
Rp10131
(dp10132
g16
VNP
p10133
sbag5
(g6
g7
(lp10134
g5
(g6
g7
(lp10135
g5
(g6
g7
(lp10136
Vthat
p10137
atp10138
Rp10139
(dp10140
g16
VWDT
p10141
sbatp10142
Rp10143
(dp10144
g16
VWHNP
p10145
sbag5
(g6
g7
(lp10146
g5
(g6
g7
(lp10147
g5
(g6
g7
(lp10148
Vleads
p10149
atp10150
Rp10151
(dp10152
g16
VVBZ
p10153
sbag5
(g6
g7
(lp10154
g5
(g6
g7
(lp10155
Vto
p10156
atp10157
Rp10158
(dp10159
g16
VTO
p10160
sbag5
(g6
g7
(lp10161
g5
(g6
g7
(lp10162
Vstable
p10163
atp10164
Rp10165
(dp10166
g16
VJJ
p10167
sbag5
(g6
g7
(lp10168
Vresults
p10169
atp10170
Rp10171
(dp10172
g16
VNNS
p10173
sbatp10174
Rp10175
(dp10176
g16
VNP
p10177
sbatp10178
Rp10179
(dp10180
g16
VPP
p10181
sbag5
(g6
g7
(lp10182
g5
(g6
g7
(lp10183
Vacross
p10184
atp10185
Rp10186
(dp10187
g16
VIN
p10188
sbag5
(g6
g7
(lp10189
g5
(g6
g7
(lp10190
Vvarious
p10191
atp10192
Rp10193
(dp10194
g16
VJJ
p10195
sbag5
(g6
g7
(lp10196
Vmetrics
p10197
atp10198
Rp10199
(dp10200
g16
VNNS
p10201
sbatp10202
Rp10203
(dp10204
g16
VNP
p10205
sbatp10206
Rp10207
(dp10208
g16
VPP
p10209
sbatp10210
Rp10211
(dp10212
g16
VVP
p10213
sbatp10214
Rp10215
(dp10216
g16
g168
sbatp10217
Rp10218
(dp10219
g16
VSBAR
p10220
sbatp10221
Rp10222
(dp10223
g16
VNP
p10224
sbatp10225
Rp10226
(dp10227
g16
VVP
p10228
sbatp10229
Rp10230
(dp10231
g16
g168
sbatp10232
Rp10233
(dp10234
g16
VPP
p10235
sbatp10236
Rp10237
(dp10238
g16
VNP
p10239
sbatp10240
Rp10241
(dp10242
g16
VVP
p10243
sbatp10244
Rp10245
(dp10246
g16
g168
sbatp10247
Rp10248
(dp10249
g16
VVP
p10250
sbatp10251
Rp10252
(dp10253
g16
g168
sbatp10254
Rp10255
(dp10256
g16
VROOT
p10257
sbasg286
(icmyPackage
CorE
p10258
(dp10259
g289
(lp10260
(I0
I0
tp10261
a(I0
I18
tp10262
asg293
g5
(g6
g7
(lp10263
g10012
ag10017
ag10027
ag10034
ag10057
ag10062
ag10069
ag10087
ag10094
ag10106
ag10113
ag10131
atp10264
Rp10265
(dp10266
g16
g304
sbsbsg294
(icmyPackage
CorE
p10267
(dp10268
g289
(lp10269
(I0
I22
tp10270
a(I0
I26
tp10271
asg293
g5
(g6
g7
(lp10272
g10175
ag10207
atp10273
Rp10274
(dp10275
g16
g304
sbsbsg305
(icmyPackage
pattern
p10276
(dp10277
g308
I0
sg309
I1
sg310
(lp10278
(lp10279
(lp10280
S'lead'
p10281
aS'leads'
p10282
aS'led'
p10283
aaS'to'
p10284
aasg318
(lp10285
I4
aI1
aI1
asg320
(lp10286
S"Representation and its summarization are separated. This leads to the separation of author's meaning, summarizer's understanding, and readers' understanding."
p10287
asg323
I95
sg324
(lp10288
(lp10289
S'&C'
p10290
aS'(,/./;/--)'
p10291
aS'&this'
p10292
aS'(&adj)'
p10293
aS'(&N)'
p10294
aS'(&CAN/have/has/had)'
p10295
aS'(&ADV)'
p10296
aa(lp10297
S'&NP@R@'
p10298
aasbsg331
(lp10299
(isxpPackage
sxpSent
p10300
(dp10301
g335
(lp10302
I27
asg337
VUnder NDCG and PRES, LinLearn achieves the best results, showing the advantage of automatically learning combination weights that leads to stable results across various metrics
p10303
sg339
I18
sg323
I159
sg340
I40
sbasba(icmyPackage
CELink
p10304
(dp10305
g3
(lp10306
g5
(g6
g7
(lp10307
g5
(g6
g7
(lp10308
g5
(g6
g7
(lp10309
g5
(g6
g7
(lp10310
VWe
p10311
atp10312
Rp10313
(dp10314
g16
VPRP
p10315
sbatp10316
Rp10317
(dp10318
g16
VNP
p10319
sbag5
(g6
g7
(lp10320
g5
(g6
g7
(lp10321
Vconjecture
p10322
atp10323
Rp10324
(dp10325
g16
VVBZ
p10326
sbag5
(g6
g7
(lp10327
g5
(g6
g7
(lp10328
Vthat
p10329
atp10330
Rp10331
(dp10332
g16
VIN
p10333
sbag5
(g6
g7
(lp10334
g5
(g6
g7
(lp10335
g5
(g6
g7
(lp10336
Vif
p10337
atp10338
Rp10339
(dp10340
g16
VIN
p10341
sbag5
(g6
g7
(lp10342
g5
(g6
g7
(lp10343
g5
(g6
g7
(lp10344
g5
(g6
g7
(lp10345
Vthese
p10346
atp10347
Rp10348
(dp10349
g16
VDT
p10350
sbag5
(g6
g7
(lp10351
Vtypes
p10352
atp10353
Rp10354
(dp10355
g16
VNNS
p10356
sbatp10357
Rp10358
(dp10359
g16
VNP
p10360
sbag5
(g6
g7
(lp10361
g5
(g6
g7
(lp10362
Vof
p10363
atp10364
Rp10365
(dp10366
g16
VIN
p10367
sbag5
(g6
g7
(lp10368
g5
(g6
g7
(lp10369
Vinformation
p10370
atp10371
Rp10372
(dp10373
g16
VNN
p10374
sbag5
(g6
g7
(lp10375
Vsources
p10376
atp10377
Rp10378
(dp10379
g16
VNNS
p10380
sbatp10381
Rp10382
(dp10383
g16
VNP
p10384
sbatp10385
Rp10386
(dp10387
g16
VPP
p10388
sbatp10389
Rp10390
(dp10391
g16
VNP
p10392
sbag5
(g6
g7
(lp10393
g5
(g6
g7
(lp10394
Vare
p10395
atp10396
Rp10397
(dp10398
g16
VVBP
p10399
sbag5
(g6
g7
(lp10400
g5
(g6
g7
(lp10401
Vavailable
p10402
atp10403
Rp10404
(dp10405
g16
VJJ
p10406
sbatp10407
Rp10408
(dp10409
g16
VADJP
p10410
sbatp10411
Rp10412
(dp10413
g16
VVP
p10414
sbatp10415
Rp10416
(dp10417
g16
g168
sbatp10418
Rp10419
(dp10420
g16
VSBAR
p10421
sbag5
(g6
g7
(lp10422
g181
atp10423
Rp10424
(dp10425
g16
g181
sbag5
(g6
g7
(lp10426
g5
(g6
g7
(lp10427
g1291
atp10428
Rp10429
(dp10430
g16
VDT
p10431
sbag5
(g6
g7
(lp10432
Vsupervised
p10433
atp10434
Rp10435
(dp10436
g16
VJJ
p10437
sbag5
(g6
g7
(lp10438
Vranking
p10439
atp10440
Rp10441
(dp10442
g16
VJJ
p10443
sbag5
(g6
g7
(lp10444
Vapproach
p10445
atp10446
Rp10447
(dp10448
g16
VNN
p10449
sbatp10450
Rp10451
(dp10452
g16
VNP
p10453
sbag5
(g6
g7
(lp10454
g5
(g6
g7
(lp10455
Vwill
p10456
atp10457
Rp10458
(dp10459
g16
VMD
p10460
sbag5
(g6
g7
(lp10461
g5
(g6
g7
(lp10462
Vyield
p10463
atp10464
Rp10465
(dp10466
g16
VVB
p10467
sbag5
(g6
g7
(lp10468
g5
(g6
g7
(lp10469
g5
(g6
g7
(lp10470
Vsuperior
p10471
atp10472
Rp10473
(dp10474
g16
VJJ
p10475
sbag5
(g6
g7
(lp10476
Vresults
p10477
atp10478
Rp10479
(dp10480
g16
VNNS
p10481
sbatp10482
Rp10483
(dp10484
g16
VNP
p10485
sbag5
(g6
g7
(lp10486
g5
(g6
g7
(lp10487
Vin
p10488
atp10489
Rp10490
(dp10491
g16
VIN
p10492
sbag5
(g6
g7
(lp10493
g5
(g6
g7
(lp10494
Vother
p10495
atp10496
Rp10497
(dp10498
g16
VJJ
p10499
sbag5
(g6
g7
(lp10500
Vretrieval
p10501
atp10502
Rp10503
(dp10504
g16
VNN
p10505
sbag5
(g6
g7
(lp10506
Vscenarios
p10507
atp10508
Rp10509
(dp10510
g16
VNNS
p10511
sbatp10512
Rp10513
(dp10514
g16
VNP
p10515
sbatp10516
Rp10517
(dp10518
g16
VPP
p10519
sbatp10520
Rp10521
(dp10522
g16
VNP
p10523
sbag5
(g6
g7
(lp10524
g5
(g6
g7
(lp10525
Vas
p10526
atp10527
Rp10528
(dp10529
g16
VRB
p10530
sbag5
(g6
g7
(lp10531
Vwell
p10532
atp10533
Rp10534
(dp10535
g16
VRB
p10536
sbatp10537
Rp10538
(dp10539
g16
VADVP
p10540
sbatp10541
Rp10542
(dp10543
g16
VVP
p10544
sbatp10545
Rp10546
(dp10547
g16
VVP
p10548
sbatp10549
Rp10550
(dp10551
g16
g168
sbatp10552
Rp10553
(dp10554
g16
VSBAR
p10555
sbatp10556
Rp10557
(dp10558
g16
VVP
p10559
sbatp10560
Rp10561
(dp10562
g16
g168
sbatp10563
Rp10564
(dp10565
g16
VROOT
p10566
sbasg286
(icmyPackage
CorE
p10567
(dp10568
g289
(lp10569
(I0
I4
tp10570
a(I0
I10
tp10571
asg293
g10416
sbsg294
(icmyPackage
CorE
p10572
(dp10573
g289
(lp10574
(I0
I12
tp10575
a(I0
I25
tp10576
asg293
g5
(g6
g7
(lp10577
g10451
ag10546
atp10578
Rp10579
(dp10580
g16
g304
sbsbsg305
g306
sg331
(lp10581
(isxpPackage
sxpSent
p10582
(dp10583
g335
(lp10584
I28
asg337
VWe conjecture that if these types of information sources are available, a supervised ranking approach will yield superior results in other retrieval scenarios as well
p10585
sg339
I21
sg323
I163
sg340
I41
sbasba.