(lp0
(icmyPackage
CELink
p1
(dp2
S'PTreelst'
p3
(lp4
ccopy_reg
_reconstructor
p5
(cnltk.tree
Tree
p6
c__builtin__
list
p7
(lp8
g5
(g6
g7
(lp9
g5
(g6
g7
(lp10
g5
(g6
g7
(lp11
g5
(g6
g7
(lp12
VTo
p13
atp14
Rp15
(dp16
S'_label'
p17
VTO
p18
sbag5
(g6
g7
(lp19
g5
(g6
g7
(lp20
Vsupport
p21
atp22
Rp23
(dp24
g17
VVB
p25
sbag5
(g6
g7
(lp26
g5
(g6
g7
(lp27
g5
(g6
g7
(lp28
g5
(g6
g7
(lp29
Vempirical
p30
atp31
Rp32
(dp33
g17
VJJ
p34
sbag5
(g6
g7
(lp35
Vstudy
p36
atp37
Rp38
(dp39
g17
VNN
p40
sbatp41
Rp42
(dp43
g17
VNP
p44
sbag5
(g6
g7
(lp45
g5
(g6
g7
(lp46
Vof
p47
atp48
Rp49
(dp50
g17
VIN
p51
sbag5
(g6
g7
(lp52
g5
(g6
g7
(lp53
Vonline
p54
atp55
Rp56
(dp57
g17
VJJ
p58
sbag5
(g6
g7
(lp59
Vprivacy
p60
atp61
Rp62
(dp63
g17
VNN
p64
sbag5
(g6
g7
(lp65
Vpolicies
p66
atp67
Rp68
(dp69
g17
VNNS
p70
sbatp71
Rp72
(dp73
g17
VNP
p74
sbatp75
Rp76
(dp77
g17
VPP
p78
sbatp79
Rp80
(dp81
g17
VNP
p82
sbag5
(g6
g7
(lp83
V,
p84
atp85
Rp86
(dp87
g17
g84
sbag5
(g6
g7
(lp88
g5
(g6
g7
(lp89
Vas
p90
atp91
Rp92
(dp93
g17
VRB
p94
sbag5
(g6
g7
(lp95
Vwell
p96
atp97
Rp98
(dp99
g17
VRB
p100
sbag5
(g6
g7
(lp101
Vas
p102
atp103
Rp104
(dp105
g17
VIN
p106
sbatp107
Rp108
(dp109
g17
VCONJP
p110
sbag5
(g6
g7
(lp111
g5
(g6
g7
(lp112
g5
(g6
g7
(lp113
Vtools
p114
atp115
Rp116
(dp117
g17
VNNS
p118
sbatp119
Rp120
(dp121
g17
VNP
p122
sbag5
(g6
g7
(lp123
g5
(g6
g7
(lp124
Vfor
p125
atp126
Rp127
(dp128
g17
VIN
p129
sbag5
(g6
g7
(lp130
g5
(g6
g7
(lp131
Vusers
p132
atp133
Rp134
(dp135
g17
VNNS
p136
sbatp137
Rp138
(dp139
g17
VNP
p140
sbatp141
Rp142
(dp143
g17
VPP
p144
sbatp145
Rp146
(dp147
g17
VNP
p148
sbatp149
Rp150
(dp151
g17
VNP
p152
sbag5
(g6
g7
(lp153
g5
(g6
g7
(lp154
Vwith
p155
atp156
Rp157
(dp158
g17
VIN
p159
sbag5
(g6
g7
(lp160
g5
(g6
g7
(lp161
Vprivacy
p162
atp163
Rp164
(dp165
g17
VNN
p166
sbag5
(g6
g7
(lp167
Vconcerns
p168
atp169
Rp170
(dp171
g17
VNNS
p172
sbatp173
Rp174
(dp175
g17
VNP
p176
sbatp177
Rp178
(dp179
g17
VPP
p180
sbatp181
Rp182
(dp183
g17
VVP
p184
sbatp185
Rp186
(dp187
g17
VVP
p188
sbatp189
Rp190
(dp191
g17
VS
p192
sbag5
(g6
g7
(lp193
g84
atp194
Rp195
(dp196
g17
g84
sbag5
(g6
g7
(lp197
g5
(g6
g7
(lp198
Vwe
p199
atp200
Rp201
(dp202
g17
VPRP
p203
sbatp204
Rp205
(dp206
g17
VNP
p207
sbag5
(g6
g7
(lp208
g5
(g6
g7
(lp209
Vconsider
p210
atp211
Rp212
(dp213
g17
VVBP
p214
sbag5
(g6
g7
(lp215
g5
(g6
g7
(lp216
g5
(g6
g7
(lp217
Vthe
p218
atp219
Rp220
(dp221
g17
VDT
p222
sbag5
(g6
g7
(lp223
Vproblem
p224
atp225
Rp226
(dp227
g17
VNN
p228
sbatp229
Rp230
(dp231
g17
VNP
p232
sbag5
(g6
g7
(lp233
g5
(g6
g7
(lp234
Vof
p235
atp236
Rp237
(dp238
g17
VIN
p239
sbag5
(g6
g7
(lp240
g5
(g6
g7
(lp241
g5
(g6
g7
(lp242
Valigning
p243
atp244
Rp245
(dp246
g17
VVBG
p247
sbag5
(g6
g7
(lp248
Vsections
p249
atp250
Rp251
(dp252
g17
VNNS
p253
sbatp254
Rp255
(dp256
g17
VNP
p257
sbag5
(g6
g7
(lp258
g5
(g6
g7
(lp259
Vof
p260
atp261
Rp262
(dp263
g17
VIN
p264
sbag5
(g6
g7
(lp265
g5
(g6
g7
(lp266
Va
p267
atp268
Rp269
(dp270
g17
VDT
p271
sbag5
(g6
g7
(lp272
Vthousand
p273
atp274
Rp275
(dp276
g17
VCD
p277
sbag5
(g6
g7
(lp278
Vpolicy
p279
atp280
Rp281
(dp282
g17
VNN
p283
sbag5
(g6
g7
(lp284
Vdocuments
p285
atp286
Rp287
(dp288
g17
VNNS
p289
sbatp290
Rp291
(dp292
g17
VNP
p293
sbatp294
Rp295
(dp296
g17
VPP
p297
sbatp298
Rp299
(dp300
g17
VNP
p301
sbatp302
Rp303
(dp304
g17
VPP
p305
sbatp306
Rp307
(dp308
g17
VNP
p309
sbag5
(g6
g7
(lp310
g84
atp311
Rp312
(dp313
g17
g84
sbag5
(g6
g7
(lp314
g5
(g6
g7
(lp315
Vbased
p316
atp317
Rp318
(dp319
g17
VVBN
p320
sbag5
(g6
g7
(lp321
g5
(g6
g7
(lp322
Von
p323
atp324
Rp325
(dp326
g17
VIN
p327
sbag5
(g6
g7
(lp328
g5
(g6
g7
(lp329
g5
(g6
g7
(lp330
Vthe
p331
atp332
Rp333
(dp334
g17
VDT
p335
sbag5
(g6
g7
(lp336
Vissues
p337
atp338
Rp339
(dp340
g17
VNNS
p341
sbatp342
Rp343
(dp344
g17
VNP
p345
sbag5
(g6
g7
(lp346
g5
(g6
g7
(lp347
g5
(g6
g7
(lp348
g5
(g6
g7
(lp349
Vthey
p350
atp351
Rp352
(dp353
g17
VPRP
p354
sbatp355
Rp356
(dp357
g17
VNP
p358
sbag5
(g6
g7
(lp359
g5
(g6
g7
(lp360
Vaddress
p361
atp362
Rp363
(dp364
g17
VVBP
p365
sbatp366
Rp367
(dp368
g17
VVP
p369
sbatp370
Rp371
(dp372
g17
g192
sbatp373
Rp374
(dp375
g17
VSBAR
p376
sbatp377
Rp378
(dp379
g17
VNP
p380
sbatp381
Rp382
(dp383
g17
VPP
p384
sbatp385
Rp386
(dp387
g17
VPP
p388
sbatp389
Rp390
(dp391
g17
VVP
p392
sbatp393
Rp394
(dp395
g17
g192
sbatp396
Rp397
(dp398
g17
VROOT
p399
sbasS'cause'
p400
(icmyPackage
CorE
p401
(dp402
S'span'
p403
(lp404
(I0
I34
tp405
a(I0
I37
tp406
asS'PTree'
p407
g378
sbsS'effect'
p408
(icmyPackage
CorE
p409
(dp410
g403
(lp411
(I0
I0
tp412
a(I0
I30
tp413
asg407
g5
(g6
g7
(lp414
g190
ag195
ag205
ag212
ag307
atp415
Rp416
(dp417
g17
S'ROOT'
p418
sbsbsS'pt'
p419
(icmyPackage
pattern
p420
(dp421
S'pfreq'
p422
I0
sS'moresent'
p423
I0
sS'main_token'
p424
(lp425
(lp426
S'based'
p427
aS'on'
p428
aasS'ptype'
p429
(lp430
I2
aI1
aI1
asS'cases'
p431
(lp432
S'He said he planned to announce details of legislation on Sunday based on a Republican plan that would provide a short-term solution'
p433
asS'id'
p434
I48
sS'constraints'
p435
(lp436
(lp437
S'&R'
p438
aS'(,)'
p439
aS'(&ADV)'
p440
aa(lp441
S'&V-ing/&NP@C@'
p442
aS'(&Clause@C@)'
p443
aasbsS'sInfo'
p444
(lp445
(isxpPackage
sxpSent
p446
(dp447
S'sysCEidlst'
p448
(lp449
I0
asS'sentence_text'
p450
VTo support empirical study of online privacy policies, as well as tools for users with privacy concerns, we consider the problem of aligning sections of a thousand policy documents, based on the issues they address
p451
sS'id_sec'
p452
I1
sg434
I0
sS'id_para'
p453
I0
sbasba(icmyPackage
CELink
p454
(dp455
g3
(lp456
g5
(g6
g7
(lp457
g5
(g6
g7
(lp458
g5
(g6
g7
(lp459
g5
(g6
g7
(lp460
VPrivacy
p461
atp462
Rp463
(dp464
g17
VJJ
p465
sbag5
(g6
g7
(lp466
Vpolicy
p467
atp468
Rp469
(dp470
g17
VNN
p471
sbag5
(g6
g7
(lp472
Vdocuments
p473
atp474
Rp475
(dp476
g17
VNNS
p477
sbatp478
Rp479
(dp480
g17
VNP
p481
sbag5
(g6
g7
(lp482
g5
(g6
g7
(lp483
Vare
p484
atp485
Rp486
(dp487
g17
VVBP
p488
sbag5
(g6
g7
(lp489
g5
(g6
g7
(lp490
Vverbose
p491
atp492
Rp493
(dp494
g17
VJJ
p495
sbatp496
Rp497
(dp498
g17
VADJP
p499
sbag5
(g6
g7
(lp500
g84
atp501
Rp502
(dp503
g17
g84
sbag5
(g6
g7
(lp504
g5
(g6
g7
(lp505
g5
(g6
g7
(lp506
Voften
p507
atp508
Rp509
(dp510
g17
VRB
p511
sbatp512
Rp513
(dp514
g17
VADVP
p515
sbag5
(g6
g7
(lp516
g5
(g6
g7
(lp517
Vesoteric
p518
atp519
Rp520
(dp521
g17
VVBG
p522
sbag5
(g6
g7
(lp523
g5
(g6
g7
(lp524
Vlegal
p525
atp526
Rp527
(dp528
g17
VJJ
p529
sbag5
(g6
g7
(lp530
Vdocuments
p531
atp532
Rp533
(dp534
g17
VNNS
p535
sbatp536
Rp537
(dp538
g17
VNP
p539
sbag5
(g6
g7
(lp540
g5
(g6
g7
(lp541
Vthat
p542
atp543
Rp544
(dp545
g17
VIN
p546
sbag5
(g6
g7
(lp547
g5
(g6
g7
(lp548
g5
(g6
g7
(lp549
Vmany
p550
atp551
Rp552
(dp553
g17
VJJ
p554
sbag5
(g6
g7
(lp555
Vpeople
p556
atp557
Rp558
(dp559
g17
VNNS
p560
sbatp561
Rp562
(dp563
g17
VNP
p564
sbag5
(g6
g7
(lp565
g5
(g6
g7
(lp566
Vencounter
p567
atp568
Rp569
(dp570
g17
VVB
p571
sbag5
(g6
g7
(lp572
g5
(g6
g7
(lp573
Vas
p574
atp575
Rp576
(dp577
g17
VIN
p578
sbag5
(g6
g7
(lp579
g5
(g6
g7
(lp580
g5
(g6
g7
(lp581
Vclients
p582
atp583
Rp584
(dp585
g17
VNNS
p586
sbatp587
Rp588
(dp589
g17
VNP
p590
sbag5
(g6
g7
(lp591
g5
(g6
g7
(lp592
Vof
p593
atp594
Rp595
(dp596
g17
VIN
p597
sbag5
(g6
g7
(lp598
g5
(g6
g7
(lp599
g5
(g6
g7
(lp600
Vcompanies
p601
atp602
Rp603
(dp604
g17
VNNS
p605
sbatp606
Rp607
(dp608
g17
VNP
p609
sbag5
(g6
g7
(lp610
g5
(g6
g7
(lp611
g5
(g6
g7
(lp612
Vthat
p613
atp614
Rp615
(dp616
g17
VWDT
p617
sbatp618
Rp619
(dp620
g17
VWHNP
p621
sbag5
(g6
g7
(lp622
g5
(g6
g7
(lp623
g5
(g6
g7
(lp624
Vprovide
p625
atp626
Rp627
(dp628
g17
VVBP
p629
sbag5
(g6
g7
(lp630
g5
(g6
g7
(lp631
g5
(g6
g7
(lp632
Vservices
p633
atp634
Rp635
(dp636
g17
VNNS
p637
sbatp638
Rp639
(dp640
g17
VNP
p641
sbag5
(g6
g7
(lp642
g5
(g6
g7
(lp643
Von
p644
atp645
Rp646
(dp647
g17
VIN
p648
sbag5
(g6
g7
(lp649
g5
(g6
g7
(lp650
Vthe
p651
atp652
Rp653
(dp654
g17
VDT
p655
sbag5
(g6
g7
(lp656
Vweb
p657
atp658
Rp659
(dp660
g17
VNN
p661
sbatp662
Rp663
(dp664
g17
VNP
p665
sbatp666
Rp667
(dp668
g17
VPP
p669
sbatp670
Rp671
(dp672
g17
VNP
p673
sbatp674
Rp675
(dp676
g17
VVP
p677
sbatp678
Rp679
(dp680
g17
g192
sbatp681
Rp682
(dp683
g17
VSBAR
p684
sbatp685
Rp686
(dp687
g17
VNP
p688
sbatp689
Rp690
(dp691
g17
VPP
p692
sbatp693
Rp694
(dp695
g17
VNP
p696
sbatp697
Rp698
(dp699
g17
VPP
p700
sbatp701
Rp702
(dp703
g17
VVP
p704
sbatp705
Rp706
(dp707
g17
g192
sbatp708
Rp709
(dp710
g17
VSBAR
p711
sbatp712
Rp713
(dp714
g17
VVP
p715
sbatp716
Rp717
(dp718
g17
g192
sbatp719
Rp720
(dp721
g17
VVP
p722
sbatp723
Rp724
(dp725
g17
g192
sbatp726
Rp727
(dp728
g17
VROOT
p729
sbag5
(g6
g7
(lp730
g5
(g6
g7
(lp731
g5
(g6
g7
(lp732
g5
(g6
g7
(lp733
g5
(g6
g7
(lp734
VMcDonald
p735
atp736
Rp737
(dp738
g17
VNNP
p739
sbag5
(g6
g7
(lp740
Vand
p741
atp742
Rp743
(dp744
g17
VCC
p745
sbag5
(g6
g7
(lp746
VCranor
p747
atp748
Rp749
(dp750
g17
VNNP
p751
sbatp752
Rp753
(dp754
g17
VNP
p755
sbag5
(g6
g7
(lp756
g5
(g6
g7
(lp757
V-LRB-
p758
atp759
Rp760
(dp761
g17
V-LRB-
p762
sbag5
(g6
g7
(lp763
g5
(g6
g7
(lp764
V2008
p765
atp766
Rp767
(dp768
g17
VCD
p769
sbatp770
Rp771
(dp772
g17
VNP
p773
sbag5
(g6
g7
(lp774
V-RRB-
p775
atp776
Rp777
(dp778
g17
V-RRB-
p779
sbatp780
Rp781
(dp782
g17
VPRN
p783
sbatp784
Rp785
(dp786
g17
VNP
p787
sbag5
(g6
g7
(lp788
g5
(g6
g7
(lp789
g5
(g6
g7
(lp790
Vshowed
p791
atp792
Rp793
(dp794
g17
VVBD
p795
sbag5
(g6
g7
(lp796
g5
(g6
g7
(lp797
Vthat
p798
atp799
Rp800
(dp801
g17
VIN
p802
sbag5
(g6
g7
(lp803
g84
atp804
Rp805
(dp806
g17
g84
sbag5
(g6
g7
(lp807
g5
(g6
g7
(lp808
g5
(g6
g7
(lp809
Vif
p810
atp811
Rp812
(dp813
g17
VIN
p814
sbag5
(g6
g7
(lp815
g5
(g6
g7
(lp816
g5
(g6
g7
(lp817
Vusers
p818
atp819
Rp820
(dp821
g17
VNNS
p822
sbatp823
Rp824
(dp825
g17
VNP
p826
sbag5
(g6
g7
(lp827
g5
(g6
g7
(lp828
Vwere
p829
atp830
Rp831
(dp832
g17
VVBD
p833
sbag5
(g6
g7
(lp834
g5
(g6
g7
(lp835
g5
(g6
g7
(lp836
Vto
p837
atp838
Rp839
(dp840
g17
VTO
p841
sbag5
(g6
g7
(lp842
g5
(g6
g7
(lp843
Vread
p844
atp845
Rp846
(dp847
g17
VVB
p848
sbag5
(g6
g7
(lp849
g5
(g6
g7
(lp850
g5
(g6
g7
(lp851
Vthe
p852
atp853
Rp854
(dp855
g17
VDT
p856
sbag5
(g6
g7
(lp857
Vprivacy
p858
atp859
Rp860
(dp861
g17
VNN
p862
sbag5
(g6
g7
(lp863
Vpolicies
p864
atp865
Rp866
(dp867
g17
VNNS
p868
sbatp869
Rp870
(dp871
g17
VNP
p872
sbag5
(g6
g7
(lp873
g5
(g6
g7
(lp874
Vof
p875
atp876
Rp877
(dp878
g17
VIN
p879
sbag5
(g6
g7
(lp880
g5
(g6
g7
(lp881
g5
(g6
g7
(lp882
Vevery
p883
atp884
Rp885
(dp886
g17
VDT
p887
sbag5
(g6
g7
(lp888
Vwebsite
p889
atp890
Rp891
(dp892
g17
VNN
p893
sbatp894
Rp895
(dp896
g17
VNP
p897
sbag5
(g6
g7
(lp898
g5
(g6
g7
(lp899
g5
(g6
g7
(lp900
g5
(g6
g7
(lp901
Vthey
p902
atp903
Rp904
(dp905
g17
VPRP
p906
sbatp907
Rp908
(dp909
g17
VNP
p910
sbag5
(g6
g7
(lp911
g5
(g6
g7
(lp912
Vaccess
p913
atp914
Rp915
(dp916
g17
VVB
p917
sbag5
(g6
g7
(lp918
g5
(g6
g7
(lp919
Vduring
p920
atp921
Rp922
(dp923
g17
VIN
p924
sbag5
(g6
g7
(lp925
g5
(g6
g7
(lp926
g5
(g6
g7
(lp927
Vthe
p928
atp929
Rp930
(dp931
g17
VDT
p932
sbag5
(g6
g7
(lp933
Vcourse
p934
atp935
Rp936
(dp937
g17
VNN
p938
sbatp939
Rp940
(dp941
g17
VNP
p942
sbag5
(g6
g7
(lp943
g5
(g6
g7
(lp944
Vof
p945
atp946
Rp947
(dp948
g17
VIN
p949
sbag5
(g6
g7
(lp950
g5
(g6
g7
(lp951
g267
atp952
Rp953
(dp954
g17
VDT
p955
sbag5
(g6
g7
(lp956
Vyear
p957
atp958
Rp959
(dp960
g17
VNN
p961
sbatp962
Rp963
(dp964
g17
VNP
p965
sbatp966
Rp967
(dp968
g17
VPP
p969
sbatp970
Rp971
(dp972
g17
VNP
p973
sbatp974
Rp975
(dp976
g17
VPP
p977
sbatp978
Rp979
(dp980
g17
VVP
p981
sbatp982
Rp983
(dp984
g17
g192
sbatp985
Rp986
(dp987
g17
VSBAR
p988
sbatp989
Rp990
(dp991
g17
VNP
p992
sbatp993
Rp994
(dp995
g17
VPP
p996
sbatp997
Rp998
(dp999
g17
VNP
p1000
sbatp1001
Rp1002
(dp1003
g17
VVP
p1004
sbatp1005
Rp1006
(dp1007
g17
VVP
p1008
sbatp1009
Rp1010
(dp1011
g17
g192
sbatp1012
Rp1013
(dp1014
g17
VVP
p1015
sbatp1016
Rp1017
(dp1018
g17
g192
sbatp1019
Rp1020
(dp1021
g17
VSBAR
p1022
sbag5
(g6
g7
(lp1023
g84
atp1024
Rp1025
(dp1026
g17
g84
sbag5
(g6
g7
(lp1027
g5
(g6
g7
(lp1028
Vthey
p1029
atp1030
Rp1031
(dp1032
g17
VPRP
p1033
sbatp1034
Rp1035
(dp1036
g17
VNP
p1037
sbag5
(g6
g7
(lp1038
g5
(g6
g7
(lp1039
Vwould
p1040
atp1041
Rp1042
(dp1043
g17
VMD
p1044
sbag5
(g6
g7
(lp1045
g5
(g6
g7
(lp1046
Vend
p1047
atp1048
Rp1049
(dp1050
g17
VVB
p1051
sbag5
(g6
g7
(lp1052
g5
(g6
g7
(lp1053
Vup
p1054
atp1055
Rp1056
(dp1057
g17
VRP
p1058
sbatp1059
Rp1060
(dp1061
g17
VPRT
p1062
sbag5
(g6
g7
(lp1063
g5
(g6
g7
(lp1064
g5
(g6
g7
(lp1065
Vspending
p1066
atp1067
Rp1068
(dp1069
g17
VVBG
p1070
sbag5
(g6
g7
(lp1071
g5
(g6
g7
(lp1072
g5
(g6
g7
(lp1073
g267
atp1074
Rp1075
(dp1076
g17
VDT
p1077
sbag5
(g6
g7
(lp1078
Vsubstantial
p1079
atp1080
Rp1081
(dp1082
g17
VJJ
p1083
sbag5
(g6
g7
(lp1084
Vamount
p1085
atp1086
Rp1087
(dp1088
g17
VNN
p1089
sbatp1090
Rp1091
(dp1092
g17
VNP
p1093
sbag5
(g6
g7
(lp1094
g5
(g6
g7
(lp1095
Vof
p1096
atp1097
Rp1098
(dp1099
g17
VIN
p1100
sbag5
(g6
g7
(lp1101
g5
(g6
g7
(lp1102
g5
(g6
g7
(lp1103
Vtheir
p1104
atp1105
Rp1106
(dp1107
g17
VPRP$
p1108
sbag5
(g6
g7
(lp1109
Vtime
p1110
atp1111
Rp1112
(dp1113
g17
VNN
p1114
sbatp1115
Rp1116
(dp1117
g17
VNP
p1118
sbag5
(g6
g7
(lp1119
g5
(g6
g7
(lp1120
Vdoing
p1121
atp1122
Rp1123
(dp1124
g17
VVBG
p1125
sbag5
(g6
g7
(lp1126
g5
(g6
g7
(lp1127
Vjust
p1128
atp1129
Rp1130
(dp1131
g17
VRB
p1132
sbag5
(g6
g7
(lp1133
Vthat
p1134
atp1135
Rp1136
(dp1137
g17
VDT
p1138
sbatp1139
Rp1140
(dp1141
g17
VNP
p1142
sbatp1143
Rp1144
(dp1145
g17
VVP
p1146
sbatp1147
Rp1148
(dp1149
g17
VNP
p1150
sbatp1151
Rp1152
(dp1153
g17
VPP
p1154
sbatp1155
Rp1156
(dp1157
g17
VNP
p1158
sbatp1159
Rp1160
(dp1161
g17
VVP
p1162
sbatp1163
Rp1164
(dp1165
g17
g192
sbatp1166
Rp1167
(dp1168
g17
VVP
p1169
sbatp1170
Rp1171
(dp1172
g17
VVP
p1173
sbatp1174
Rp1175
(dp1176
g17
g192
sbatp1177
Rp1178
(dp1179
g17
VSBAR
p1180
sbatp1181
Rp1182
(dp1183
g17
VVP
p1184
sbag5
(g6
g7
(lp1185
Vand
p1186
atp1187
Rp1188
(dp1189
g17
VCC
p1190
sbag5
(g6
g7
(lp1191
g5
(g6
g7
(lp1192
Vwould
p1193
atp1194
Rp1195
(dp1196
g17
VMD
p1197
sbag5
(g6
g7
(lp1198
g5
(g6
g7
(lp1199
Voften
p1200
atp1201
Rp1202
(dp1203
g17
VRB
p1204
sbag5
(g6
g7
(lp1205
Vstill
p1206
atp1207
Rp1208
(dp1209
g17
VRB
p1210
sbag5
(g6
g7
(lp1211
Vnot
p1212
atp1213
Rp1214
(dp1215
g17
VRB
p1216
sbatp1217
Rp1218
(dp1219
g17
VADVP
p1220
sbag5
(g6
g7
(lp1221
g5
(g6
g7
(lp1222
Vbe
p1223
atp1224
Rp1225
(dp1226
g17
VVB
p1227
sbag5
(g6
g7
(lp1228
g5
(g6
g7
(lp1229
Vable
p1230
atp1231
Rp1232
(dp1233
g17
VJJ
p1234
sbag5
(g6
g7
(lp1235
g5
(g6
g7
(lp1236
g5
(g6
g7
(lp1237
Vto
p1238
atp1239
Rp1240
(dp1241
g17
VTO
p1242
sbag5
(g6
g7
(lp1243
g5
(g6
g7
(lp1244
Vanswer
p1245
atp1246
Rp1247
(dp1248
g17
VVB
p1249
sbag5
(g6
g7
(lp1250
g5
(g6
g7
(lp1251
Vbasic
p1252
atp1253
Rp1254
(dp1255
g17
VJJ
p1256
sbag5
(g6
g7
(lp1257
Vquestions
p1258
atp1259
Rp1260
(dp1261
g17
VNNS
p1262
sbatp1263
Rp1264
(dp1265
g17
VNP
p1266
sbag5
(g6
g7
(lp1267
g5
(g6
g7
(lp1268
Vabout
p1269
atp1270
Rp1271
(dp1272
g17
VIN
p1273
sbag5
(g6
g7
(lp1274
g5
(g6
g7
(lp1275
g5
(g6
g7
(lp1276
Vwhat
p1277
atp1278
Rp1279
(dp1280
g17
VWP
p1281
sbatp1282
Rp1283
(dp1284
g17
VWHNP
p1285
sbag5
(g6
g7
(lp1286
g5
(g6
g7
(lp1287
g5
(g6
g7
(lp1288
Vthese
p1289
atp1290
Rp1291
(dp1292
g17
VDT
p1293
sbag5
(g6
g7
(lp1294
Vpolicies
p1295
atp1296
Rp1297
(dp1298
g17
VNNS
p1299
sbatp1300
Rp1301
(dp1302
g17
VNP
p1303
sbag5
(g6
g7
(lp1304
g5
(g6
g7
(lp1305
Vreally
p1306
atp1307
Rp1308
(dp1309
g17
VRB
p1310
sbatp1311
Rp1312
(dp1313
g17
VADVP
p1314
sbag5
(g6
g7
(lp1315
g5
(g6
g7
(lp1316
Vsay
p1317
atp1318
Rp1319
(dp1320
g17
VVBP
p1321
sbatp1322
Rp1323
(dp1324
g17
VVP
p1325
sbatp1326
Rp1327
(dp1328
g17
g192
sbatp1329
Rp1330
(dp1331
g17
VSBAR
p1332
sbatp1333
Rp1334
(dp1335
g17
VPP
p1336
sbatp1337
Rp1338
(dp1339
g17
VVP
p1340
sbatp1341
Rp1342
(dp1343
g17
VVP
p1344
sbatp1345
Rp1346
(dp1347
g17
g192
sbatp1348
Rp1349
(dp1350
g17
VADJP
p1351
sbatp1352
Rp1353
(dp1354
g17
VVP
p1355
sbatp1356
Rp1357
(dp1358
g17
VVP
p1359
sbatp1360
Rp1361
(dp1362
g17
VVP
p1363
sbatp1364
Rp1365
(dp1366
g17
g192
sbatp1367
Rp1368
(dp1369
g17
VROOT
p1370
sbasg400
(icmyPackage
CorE
p1371
(dp1372
g403
(lp1373
(I0
I15
tp1374
a(I1
I58
tp1375
asg407
g5
(g6
g7
(lp1376
g694
ag785
ag1182
ag1188
ag1195
ag1218
ag1225
ag1232
ag1240
ag1247
ag1264
ag1271
ag1283
ag1301
ag1312
atp1377
Rp1378
(dp1379
g17
g418
sbsbsg408
(icmyPackage
CorE
p1380
(dp1381
g403
(lp1382
(I0
I0
tp1383
a(I0
I13
tp1384
asg407
g5
(g6
g7
(lp1385
g479
ag486
ag497
ag502
ag513
ag520
ag537
ag544
ag562
ag569
atp1386
Rp1387
(dp1388
g17
g418
sbsbsg419
(icmyPackage
pattern
p1389
(dp1390
g422
I26
sg423
I1
sg424
(lp1391
(lp1392
S'as'
p1393
aasg429
(lp1394
I3
aI1
aI1
asg431
(lp1395
S'You do not need to worry about the operation, as the software is very easy to use.'
p1396
asg434
I80
sg435
(lp1397
(lp1398
S'&R@Complete@'
p1399
aS'(,)'
p1400
aS'(-such/-same/-seem/-regard/-regards/-regarded/-view/-views/-viewed/-denote/-denoted/-denotes)'
p1401
aa(lp1402
S'(-if/-follow/-follows/-&adv)'
p1403
aS'&C@Complete@'
p1404
aasbsg444
(lp1405
(isxpPackage
sxpSent
p1406
(dp1407
g448
(lp1408
I1
asg450
VPrivacy policy documents are verbose, often esoteric legal documents that many people encounter as clients of companies that provide services on the web
p1409
sg452
I2
sg434
I3
sg453
I2
sba(isxpPackage
sxpSent
p1410
(dp1411
g448
(lp1412
I1
aI2
asg450
VMcDonald and Cranor ( 2008 ) showed that, if users were to read the privacy policies of every website they access during the course of a year, they would end up spending a substantial amount of their time doing just that and would often still not be able to answer basic questions about what these policies really say
p1413
sg452
I2
sg434
I4
sg453
I2
sbasba(icmyPackage
CELink
p1414
(dp1415
g3
(lp1416
g1368
asg400
(icmyPackage
CorE
p1417
(dp1418
g403
(lp1419
(I0
I10
tp1420
a(I0
I27
tp1421
asg407
g1017
sbsg408
(icmyPackage
CorE
p1422
(dp1423
g403
(lp1424
(I0
I29
tp1425
a(I0
I59
tp1426
asg407
g5
(g6
g7
(lp1427
g1035
ag1171
ag1188
ag1357
atp1428
Rp1429
(dp1430
g17
g418
sbsbsg419
(icmyPackage
pattern
p1431
(dp1432
g422
I0
sg423
I0
sg424
(lp1433
(lp1434
(lp1435
S'if'
p1436
aS'once'
p1437
aaa(lp1438
S','
p1439
aasg429
(lp1440
I1
aI1
aI1
asg431
(lp1441
S'If some light and mobile detection devices can be invented in the future, many new applications can be imagined, for example, people can get some services while thinking.'
p1442
asg434
I15
sg435
(lp1443
(lp1444
a(lp1445
S'&C@Complete@'
p1446
aa(lp1447
S'&R@Complete@'
p1448
aasbsg444
(lp1449
g1410
asba(icmyPackage
CELink
p1450
(dp1451
g3
(lp1452
g5
(g6
g7
(lp1453
g5
(g6
g7
(lp1454
g5
(g6
g7
(lp1455
g5
(g6
g7
(lp1456
VUnsurprisingly
p1457
atp1458
Rp1459
(dp1460
g17
VRB
p1461
sbatp1462
Rp1463
(dp1464
g17
VADVP
p1465
sbag5
(g6
g7
(lp1466
g84
atp1467
Rp1468
(dp1469
g17
g84
sbag5
(g6
g7
(lp1470
g5
(g6
g7
(lp1471
Vmany
p1472
atp1473
Rp1474
(dp1475
g17
VJJ
p1476
sbag5
(g6
g7
(lp1477
Vpeople
p1478
atp1479
Rp1480
(dp1481
g17
VNNS
p1482
sbatp1483
Rp1484
(dp1485
g17
VNP
p1486
sbag5
(g6
g7
(lp1487
g5
(g6
g7
(lp1488
Vdo
p1489
atp1490
Rp1491
(dp1492
g17
VVBP
p1493
sbag5
(g6
g7
(lp1494
Vnot
p1495
atp1496
Rp1497
(dp1498
g17
VRB
p1499
sbag5
(g6
g7
(lp1500
g5
(g6
g7
(lp1501
Vread
p1502
atp1503
Rp1504
(dp1505
g17
VVB
p1506
sbag5
(g6
g7
(lp1507
g5
(g6
g7
(lp1508
g5
(g6
g7
(lp1509
Vthem
p1510
atp1511
Rp1512
(dp1513
g17
VPRP
p1514
sbatp1515
Rp1516
(dp1517
g17
VNP
p1518
sbag5
(g6
g7
(lp1519
g5
(g6
g7
(lp1520
V-LSB-
p1521
atp1522
Rp1523
(dp1524
g17
VVBG
p1525
sbag5
(g6
g7
(lp1526
g5
(g6
g7
(lp1527
V9
p1528
atp1529
Rp1530
(dp1531
g17
VCD
p1532
sbag5
(g6
g7
(lp1533
V-RSB-
p1534
atp1535
Rp1536
(dp1537
g17
VNNS
p1538
sbatp1539
Rp1540
(dp1541
g17
VNP
p1542
sbatp1543
Rp1544
(dp1545
g17
VVP
p1546
sbatp1547
Rp1548
(dp1549
g17
g192
sbatp1550
Rp1551
(dp1552
g17
VVP
p1553
sbatp1554
Rp1555
(dp1556
g17
VVP
p1557
sbatp1558
Rp1559
(dp1560
g17
g192
sbatp1561
Rp1562
(dp1563
g17
VROOT
p1564
sbag5
(g6
g7
(lp1565
g5
(g6
g7
(lp1566
g5
(g6
g7
(lp1567
g5
(g6
g7
(lp1568
VSuch
p1569
atp1570
Rp1571
(dp1572
g17
VJJ
p1573
sbag5
(g6
g7
(lp1574
Vpolicies
p1575
atp1576
Rp1577
(dp1578
g17
VNNS
p1579
sbatp1580
Rp1581
(dp1582
g17
VNP
p1583
sbag5
(g6
g7
(lp1584
g5
(g6
g7
(lp1585
g5
(g6
g7
(lp1586
Vtherefore
p1587
atp1588
Rp1589
(dp1590
g17
VRB
p1591
sbatp1592
Rp1593
(dp1594
g17
VADVP
p1595
sbag5
(g6
g7
(lp1596
Voffer
p1597
atp1598
Rp1599
(dp1600
g17
VVBP
p1601
sbag5
(g6
g7
(lp1602
g5
(g6
g7
(lp1603
g5
(g6
g7
(lp1604
Van
p1605
atp1606
Rp1607
(dp1608
g17
VDT
p1609
sbag5
(g6
g7
(lp1610
Vexcellent
p1611
atp1612
Rp1613
(dp1614
g17
VJJ
p1615
sbag5
(g6
g7
(lp1616
Vopportunity
p1617
atp1618
Rp1619
(dp1620
g17
VNN
p1621
sbatp1622
Rp1623
(dp1624
g17
VNP
p1625
sbag5
(g6
g7
(lp1626
g5
(g6
g7
(lp1627
Vfor
p1628
atp1629
Rp1630
(dp1631
g17
VIN
p1632
sbag5
(g6
g7
(lp1633
g5
(g6
g7
(lp1634
VNLP
p1635
atp1636
Rp1637
(dp1638
g17
VNNP
p1639
sbag5
(g6
g7
(lp1640
Vtools
p1641
atp1642
Rp1643
(dp1644
g17
VNNS
p1645
sbatp1646
Rp1647
(dp1648
g17
VNP
p1649
sbatp1650
Rp1651
(dp1652
g17
VPP
p1653
sbag5
(g6
g7
(lp1654
g5
(g6
g7
(lp1655
g5
(g6
g7
(lp1656
Vthat
p1657
atp1658
Rp1659
(dp1660
g17
VWDT
p1661
sbatp1662
Rp1663
(dp1664
g17
VWHNP
p1665
sbag5
(g6
g7
(lp1666
g5
(g6
g7
(lp1667
g5
(g6
g7
(lp1668
g5
(g6
g7
(lp1669
Vsummarize
p1670
atp1671
Rp1672
(dp1673
g17
VVB
p1674
sbag5
(g6
g7
(lp1675
Vor
p1676
atp1677
Rp1678
(dp1679
g17
VCC
p1680
sbag5
(g6
g7
(lp1681
Vextract
p1682
atp1683
Rp1684
(dp1685
g17
VVB
p1686
sbag5
(g6
g7
(lp1687
g5
(g6
g7
(lp1688
Vkey
p1689
atp1690
Rp1691
(dp1692
g17
VJJ
p1693
sbag5
(g6
g7
(lp1694
Vinformation
p1695
atp1696
Rp1697
(dp1698
g17
VNN
p1699
sbatp1700
Rp1701
(dp1702
g17
VNP
p1703
sbag5
(g6
g7
(lp1704
g5
(g6
g7
(lp1705
Vthat
p1706
atp1707
Rp1708
(dp1709
g17
VIN
p1710
sbag5
(g6
g7
(lp1711
g5
(g6
g7
(lp1712
V-LRB-
p1713
atp1714
Rp1715
(dp1716
g17
V-LRB-
p1717
sbag5
(g6
g7
(lp1718
g5
(g6
g7
(lp1719
Vi
p1720
atp1721
Rp1722
(dp1723
g17
VFW
p1724
sbatp1725
Rp1726
(dp1727
g17
VNP
p1728
sbag5
(g6
g7
(lp1729
V-RRB-
p1730
atp1731
Rp1732
(dp1733
g17
V-RRB-
p1734
sbag5
(g6
g7
(lp1735
g5
(g6
g7
(lp1736
g5
(g6
g7
(lp1737
Vhelps
p1738
atp1739
Rp1740
(dp1741
g17
VVBZ
p1742
sbag5
(g6
g7
(lp1743
g5
(g6
g7
(lp1744
g5
(g6
g7
(lp1745
Vusers
p1746
atp1747
Rp1748
(dp1749
g17
VNNS
p1750
sbatp1751
Rp1752
(dp1753
g17
VNP
p1754
sbag5
(g6
g7
(lp1755
g5
(g6
g7
(lp1756
Vunderstand
p1757
atp1758
Rp1759
(dp1760
g17
VVB
p1761
sbag5
(g6
g7
(lp1762
g5
(g6
g7
(lp1763
g5
(g6
g7
(lp1764
Vthe
p1765
atp1766
Rp1767
(dp1768
g17
VDT
p1769
sbag5
(g6
g7
(lp1770
Vimplications
p1771
atp1772
Rp1773
(dp1774
g17
VNNS
p1775
sbatp1776
Rp1777
(dp1778
g17
VNP
p1779
sbag5
(g6
g7
(lp1780
g5
(g6
g7
(lp1781
Vof
p1782
atp1783
Rp1784
(dp1785
g17
VIN
p1786
sbag5
(g6
g7
(lp1787
g5
(g6
g7
(lp1788
g5
(g6
g7
(lp1789
Vagreeing
p1790
atp1791
Rp1792
(dp1793
g17
VVBG
p1794
sbag5
(g6
g7
(lp1795
g5
(g6
g7
(lp1796
Vto
p1797
atp1798
Rp1799
(dp1800
g17
VTO
p1801
sbag5
(g6
g7
(lp1802
g5
(g6
g7
(lp1803
Vthese
p1804
atp1805
Rp1806
(dp1807
g17
VDT
p1808
sbag5
(g6
g7
(lp1809
Vpolicies
p1810
atp1811
Rp1812
(dp1813
g17
VNNS
p1814
sbatp1815
Rp1816
(dp1817
g17
VNP
p1818
sbatp1819
Rp1820
(dp1821
g17
VPP
p1822
sbatp1823
Rp1824
(dp1825
g17
VVP
p1826
sbatp1827
Rp1828
(dp1829
g17
g192
sbatp1830
Rp1831
(dp1832
g17
VPP
p1833
sbatp1834
Rp1835
(dp1836
g17
VNP
p1837
sbatp1838
Rp1839
(dp1840
g17
VVP
p1841
sbatp1842
Rp1843
(dp1844
g17
g192
sbatp1845
Rp1846
(dp1847
g17
VVP
p1848
sbag5
(g6
g7
(lp1849
Vand
p1850
atp1851
Rp1852
(dp1853
g17
VCC
p1854
sbag5
(g6
g7
(lp1855
g5
(g6
g7
(lp1856
g5
(g6
g7
(lp1857
V-LRB-
p1858
atp1859
Rp1860
(dp1861
g17
V-LRB-
p1862
sbag5
(g6
g7
(lp1863
g5
(g6
g7
(lp1864
Vii
p1865
atp1866
Rp1867
(dp1868
g17
VNN
p1869
sbatp1870
Rp1871
(dp1872
g17
VNP
p1873
sbag5
(g6
g7
(lp1874
V-RRB-
p1875
atp1876
Rp1877
(dp1878
g17
V-RRB-
p1879
sbatp1880
Rp1881
(dp1882
g17
VPRN
p1883
sbag5
(g6
g7
(lp1884
Vhelps
p1885
atp1886
Rp1887
(dp1888
g17
VVBZ
p1889
sbag5
(g6
g7
(lp1890
g5
(g6
g7
(lp1891
g5
(g6
g7
(lp1892
Vlegal
p1893
atp1894
Rp1895
(dp1896
g17
VJJ
p1897
sbag5
(g6
g7
(lp1898
Vanalysts
p1899
atp1900
Rp1901
(dp1902
g17
VNNS
p1903
sbatp1904
Rp1905
(dp1906
g17
VNP
p1907
sbag5
(g6
g7
(lp1908
g5
(g6
g7
(lp1909
g5
(g6
g7
(lp1910
g5
(g6
g7
(lp1911
Vunderstand
p1912
atp1913
Rp1914
(dp1915
g17
VVBP
p1916
sbag5
(g6
g7
(lp1917
g5
(g6
g7
(lp1918
g5
(g6
g7
(lp1919
Vthe
p1920
atp1921
Rp1922
(dp1923
g17
VDT
p1924
sbag5
(g6
g7
(lp1925
Vcontents
p1926
atp1927
Rp1928
(dp1929
g17
VNNS
p1930
sbatp1931
Rp1932
(dp1933
g17
VNP
p1934
sbag5
(g6
g7
(lp1935
g5
(g6
g7
(lp1936
Vof
p1937
atp1938
Rp1939
(dp1940
g17
VIN
p1941
sbag5
(g6
g7
(lp1942
g5
(g6
g7
(lp1943
Vthese
p1944
atp1945
Rp1946
(dp1947
g17
VDT
p1948
sbag5
(g6
g7
(lp1949
Vpolicies
p1950
atp1951
Rp1952
(dp1953
g17
VNNS
p1954
sbatp1955
Rp1956
(dp1957
g17
VNP
p1958
sbatp1959
Rp1960
(dp1961
g17
VPP
p1962
sbatp1963
Rp1964
(dp1965
g17
VNP
p1966
sbatp1967
Rp1968
(dp1969
g17
VVP
p1970
sbatp1971
Rp1972
(dp1973
g17
g192
sbatp1974
Rp1975
(dp1976
g17
VSBAR
p1977
sbatp1978
Rp1979
(dp1980
g17
VNP
p1981
sbatp1982
Rp1983
(dp1984
g17
VVP
p1985
sbatp1986
Rp1987
(dp1988
g17
VVP
p1989
sbatp1990
Rp1991
(dp1992
g17
g192
sbatp1993
Rp1994
(dp1995
g17
VSBAR
p1996
sbatp1997
Rp1998
(dp1999
g17
VVP
p2000
sbag5
(g6
g7
(lp2001
Vand
p2002
atp2003
Rp2004
(dp2005
g17
VCC
p2006
sbag5
(g6
g7
(lp2007
g5
(g6
g7
(lp2008
Vmake
p2009
atp2010
Rp2011
(dp2012
g17
VVB
p2013
sbag5
(g6
g7
(lp2014
g5
(g6
g7
(lp2015
Vrecommendations
p2016
atp2017
Rp2018
(dp2019
g17
VNNS
p2020
sbatp2021
Rp2022
(dp2023
g17
VNP
p2024
sbag5
(g6
g7
(lp2025
g5
(g6
g7
(lp2026
Von
p2027
atp2028
Rp2029
(dp2030
g17
VIN
p2031
sbag5
(g6
g7
(lp2032
g5
(g6
g7
(lp2033
g5
(g6
g7
(lp2034
Vhow
p2035
atp2036
Rp2037
(dp2038
g17
VWRB
p2039
sbatp2040
Rp2041
(dp2042
g17
VWHADVP
p2043
sbag5
(g6
g7
(lp2044
g5
(g6
g7
(lp2045
g5
(g6
g7
(lp2046
Vthey
p2047
atp2048
Rp2049
(dp2050
g17
VPRP
p2051
sbatp2052
Rp2053
(dp2054
g17
VNP
p2055
sbag5
(g6
g7
(lp2056
g5
(g6
g7
(lp2057
Vcan
p2058
atp2059
Rp2060
(dp2061
g17
VMD
p2062
sbag5
(g6
g7
(lp2063
g5
(g6
g7
(lp2064
Vbe
p2065
atp2066
Rp2067
(dp2068
g17
VVB
p2069
sbag5
(g6
g7
(lp2070
g5
(g6
g7
(lp2071
g5
(g6
g7
(lp2072
Vimproved
p2073
atp2074
Rp2075
(dp2076
g17
VVBN
p2077
sbatp2078
Rp2079
(dp2080
g17
VVP
p2081
sbag5
(g6
g7
(lp2082
Vor
p2083
atp2084
Rp2085
(dp2086
g17
VCC
p2087
sbag5
(g6
g7
(lp2088
g5
(g6
g7
(lp2089
Vmade
p2090
atp2091
Rp2092
(dp2093
g17
VVBN
p2094
sbag5
(g6
g7
(lp2095
g5
(g6
g7
(lp2096
g5
(g6
g7
(lp2097
Vmore
p2098
atp2099
Rp2100
(dp2101
g17
VRBR
p2102
sbag5
(g6
g7
(lp2103
Vclear
p2104
atp2105
Rp2106
(dp2107
g17
VJJ
p2108
sbatp2109
Rp2110
(dp2111
g17
VADJP
p2112
sbatp2113
Rp2114
(dp2115
g17
g192
sbatp2116
Rp2117
(dp2118
g17
VVP
p2119
sbatp2120
Rp2121
(dp2122
g17
VVP
p2123
sbatp2124
Rp2125
(dp2126
g17
VVP
p2127
sbatp2128
Rp2129
(dp2130
g17
VVP
p2131
sbatp2132
Rp2133
(dp2134
g17
g192
sbatp2135
Rp2136
(dp2137
g17
VSBAR
p2138
sbatp2139
Rp2140
(dp2141
g17
VPP
p2142
sbatp2143
Rp2144
(dp2145
g17
VVP
p2146
sbatp2147
Rp2148
(dp2149
g17
VVP
p2150
sbatp2151
Rp2152
(dp2153
g17
g192
sbatp2154
Rp2155
(dp2156
g17
VSBAR
p2157
sbatp2158
Rp2159
(dp2160
g17
VNP
p2161
sbatp2162
Rp2163
(dp2164
g17
VVP
p2165
sbatp2166
Rp2167
(dp2168
g17
g192
sbatp2169
Rp2170
(dp2171
g17
VROOT
p2172
sbasg400
(icmyPackage
CorE
p2173
(dp2174
g403
(lp2175
(I0
I1
tp2176
a(I1
I1
tp2177
asg407
g5
(g6
g7
(lp2178
g1468
ag1484
ag1555
ag1581
atp2179
Rp2180
(dp2181
g17
g418
sbsbsg408
(icmyPackage
CorE
p2182
(dp2183
g403
(lp2184
(I1
I3
tp2185
a(I1
I55
tp2186
asg407
g5
(g6
g7
(lp2187
g1599
ag2159
atp2188
Rp2189
(dp2190
g17
g418
sbsbsg419
(icmyPackage
pattern
p2191
(dp2192
g422
I62
sg423
I1
sg424
(lp2193
(lp2194
S'therefore'
p2195
aasg429
(lp2196
I1
aI1
aI1
asg431
(lp2197
S'He never lies; therefore, everyone likes to make friends with him.'
p2198
asg434
I1
sg435
(lp2199
(lp2200
S'&C'
p2201
aS'(,/;/./--)'
p2202
aS'(&AND)'
p2203
aa(lp2204
S'(,)'
p2205
aS'&R'
p2206
aasbsg444
(lp2207
(isxpPackage
sxpSent
p2208
(dp2209
g448
(lp2210
I3
asg450
VUnsurprisingly, many people do not read them [ 9 ]
p2211
sg452
I2
sg434
I5
sg453
I2
sba(isxpPackage
sxpSent
p2212
(dp2213
g448
(lp2214
I3
asg450
VSuch policies therefore offer an excellent opportunity for NLP tools that summarize or extract key information that (i) helps users understand the implications of agreeing to these policies and (ii) helps legal analysts understand the contents of these policies and make recommendations on how they can be improved or made more clear
p2215
sg452
I2
sg434
I6
sg453
I3
sbasba(icmyPackage
CELink
p2216
(dp2217
g3
(lp2218
g5
(g6
g7
(lp2219
g5
(g6
g7
(lp2220
g5
(g6
g7
(lp2221
g5
(g6
g7
(lp2222
g5
(g6
g7
(lp2223
g5
(g6
g7
(lp2224
g5
(g6
g7
(lp2225
V3
p2226
atp2227
Rp2228
(dp2229
g17
VCD
p2230
sbag5
(g6
g7
(lp2231
g2226
atp2232
Rp2233
(dp2234
g17
VCD
p2235
sbatp2236
Rp2237
(dp2238
g17
VQP
p2239
sbatp2240
Rp2241
(dp2242
g17
VNP
p2243
sbag5
(g6
g7
(lp2244
g5
(g6
g7
(lp2245
g5
(g6
g7
(lp2246
g5
(g6
g7
(lp2247
VThe
p2248
atp2249
Rp2250
(dp2251
g17
VDT
p2252
sbag5
(g6
g7
(lp2253
Vu
p2254
atp2255
Rp2256
(dp2257
g17
VNN
p2258
sbag5
(g6
g7
(lp2259
V'
p2260
atp2261
Rp2262
(dp2263
g17
VPOS
p2264
sbatp2265
Rp2266
(dp2267
g17
VNP
p2268
sbag5
(g6
g7
(lp2269
V\u005c
p2270
atp2271
Rp2272
(dp2273
g17
VNN
p2274
sbatp2275
Rp2276
(dp2277
g17
VNP
p2278
sbag5
(g6
g7
(lp2279
g5
(g6
g7
(lp2280
g5
(g6
g7
(lp2281
g5
(g6
g7
(lp2282
Vu201c
p2283
atp2284
Rp2285
(dp2286
g17
VNNP
p2287
sbag5
(g6
g7
(lp2288
g2260
atp2289
Rp2290
(dp2291
g17
VPOS
p2292
sbatp2293
Rp2294
(dp2295
g17
VNP
p2296
sbag5
(g6
g7
(lp2297
VAdult
p2298
atp2299
Rp2300
(dp2301
g17
VNNP
p2302
sbag5
(g6
g7
(lp2303
g2254
atp2304
Rp2305
(dp2306
g17
VNN
p2307
sbatp2308
Rp2309
(dp2310
g17
VNP
p2311
sbag5
(g6
g7
(lp2312
g2260
atp2313
Rp2314
(dp2315
g17
V''
p2316
sbag5
(g6
g7
(lp2317
g5
(g6
g7
(lp2318
V\u005c
p2319
atp2320
Rp2321
(dp2322
g17
VVBG
p2323
sbag5
(g6
g7
(lp2324
g5
(g6
g7
(lp2325
g5
(g6
g7
(lp2326
Vu201d
p2327
atp2328
Rp2329
(dp2330
g17
VNNP
p2331
sbag5
(g6
g7
(lp2332
g2260
atp2333
Rp2334
(dp2335
g17
VPOS
p2336
sbatp2337
Rp2338
(dp2339
g17
VNP
p2340
sbag5
(g6
g7
(lp2341
Vcategory
p2342
atp2343
Rp2344
(dp2345
g17
VNN
p2346
sbatp2347
Rp2348
(dp2349
g17
VNP
p2350
sbatp2351
Rp2352
(dp2353
g17
VVP
p2354
sbatp2355
Rp2356
(dp2357
g17
VNP
p2358
sbatp2359
Rp2360
(dp2361
g17
VPP
p2362
sbatp2363
Rp2364
(dp2365
g17
VNP
p2366
sbag5
(g6
g7
(lp2367
g5
(g6
g7
(lp2368
Vwas
p2369
atp2370
Rp2371
(dp2372
g17
VVBD
p2373
sbag5
(g6
g7
(lp2374
g5
(g6
g7
(lp2375
Vexcluded
p2376
atp2377
Rp2378
(dp2379
g17
VVBN
p2380
sbatp2381
Rp2382
(dp2383
g17
VVP
p2384
sbatp2385
Rp2386
(dp2387
g17
VVP
p2388
sbatp2389
Rp2390
(dp2391
g17
g192
sbag5
(g6
g7
(lp2392
V;
p2393
atp2394
Rp2395
(dp2396
g17
V:
p2397
sbag5
(g6
g7
(lp2398
g5
(g6
g7
(lp2399
g5
(g6
g7
(lp2400
g5
(g6
g7
(lp2401
g5
(g6
g7
(lp2402
g5
(g6
g7
(lp2403
Vthe
p2404
atp2405
Rp2406
(dp2407
g17
VDT
p2408
sbag5
(g6
g7
(lp2409
g2254
atp2410
Rp2411
(dp2412
g17
VNN
p2413
sbag5
(g6
g7
(lp2414
g2260
atp2415
Rp2416
(dp2417
g17
VPOS
p2418
sbatp2419
Rp2420
(dp2421
g17
VNP
p2422
sbag5
(g6
g7
(lp2423
V\u005c
p2424
atp2425
Rp2426
(dp2427
g17
VJJ
p2428
sbag5
(g6
g7
(lp2429
Vu201c
p2430
atp2431
Rp2432
(dp2433
g17
VNNS
p2434
sbag5
(g6
g7
(lp2435
g2260
atp2436
Rp2437
(dp2438
g17
VPOS
p2439
sbatp2440
Rp2441
(dp2442
g17
VNP
p2443
sbag5
(g6
g7
(lp2444
VWorld
p2445
atp2446
Rp2447
(dp2448
g17
VNNP
p2449
sbag5
(g6
g7
(lp2450
g2254
atp2451
Rp2452
(dp2453
g17
VNNP
p2454
sbag5
(g6
g7
(lp2455
g2260
atp2456
Rp2457
(dp2458
g17
V''
p2459
sbatp2460
Rp2461
(dp2462
g17
VNP
p2463
sbag5
(g6
g7
(lp2464
g5
(g6
g7
(lp2465
V\u005c
p2466
atp2467
Rp2468
(dp2469
g17
VVBG
p2470
sbag5
(g6
g7
(lp2471
g5
(g6
g7
(lp2472
g5
(g6
g7
(lp2473
Vu201d
p2474
atp2475
Rp2476
(dp2477
g17
VNNP
p2478
sbag5
(g6
g7
(lp2479
g2260
atp2480
Rp2481
(dp2482
g17
VPOS
p2483
sbatp2484
Rp2485
(dp2486
g17
VNP
p2487
sbag5
(g6
g7
(lp2488
Vcategory
p2489
atp2490
Rp2491
(dp2492
g17
VNN
p2493
sbatp2494
Rp2495
(dp2496
g17
VNP
p2497
sbatp2498
Rp2499
(dp2500
g17
VVP
p2501
sbatp2502
Rp2503
(dp2504
g17
VNP
p2505
sbag5
(g6
g7
(lp2506
g5
(g6
g7
(lp2507
Vwas
p2508
atp2509
Rp2510
(dp2511
g17
VVBD
p2512
sbag5
(g6
g7
(lp2513
g5
(g6
g7
(lp2514
Vexcluded
p2515
atp2516
Rp2517
(dp2518
g17
VVBN
p2519
sbag5
(g6
g7
(lp2520
g5
(g6
g7
(lp2521
Vsince
p2522
atp2523
Rp2524
(dp2525
g17
VIN
p2526
sbag5
(g6
g7
(lp2527
g5
(g6
g7
(lp2528
g5
(g6
g7
(lp2529
Vit
p2530
atp2531
Rp2532
(dp2533
g17
VPRP
p2534
sbatp2535
Rp2536
(dp2537
g17
VNP
p2538
sbag5
(g6
g7
(lp2539
g5
(g6
g7
(lp2540
Vcontains
p2541
atp2542
Rp2543
(dp2544
g17
VVBZ
p2545
sbag5
(g6
g7
(lp2546
g5
(g6
g7
(lp2547
g5
(g6
g7
(lp2548
g5
(g6
g7
(lp2549
Vmainly
p2550
atp2551
Rp2552
(dp2553
g17
VRB
p2554
sbag5
(g6
g7
(lp2555
Vpopular
p2556
atp2557
Rp2558
(dp2559
g17
VJJ
p2560
sbatp2561
Rp2562
(dp2563
g17
VADJP
p2564
sbag5
(g6
g7
(lp2565
Vwebsites
p2566
atp2567
Rp2568
(dp2569
g17
VNNS
p2570
sbatp2571
Rp2572
(dp2573
g17
VNP
p2574
sbag5
(g6
g7
(lp2575
g5
(g6
g7
(lp2576
Vin
p2577
atp2578
Rp2579
(dp2580
g17
VIN
p2581
sbag5
(g6
g7
(lp2582
g5
(g6
g7
(lp2583
Vdifferent
p2584
atp2585
Rp2586
(dp2587
g17
VJJ
p2588
sbag5
(g6
g7
(lp2589
Vlanguages
p2590
atp2591
Rp2592
(dp2593
g17
VNNS
p2594
sbatp2595
Rp2596
(dp2597
g17
VNP
p2598
sbatp2599
Rp2600
(dp2601
g17
VPP
p2602
sbatp2603
Rp2604
(dp2605
g17
VNP
p2606
sbatp2607
Rp2608
(dp2609
g17
VVP
p2610
sbatp2611
Rp2612
(dp2613
g17
g192
sbatp2614
Rp2615
(dp2616
g17
VSBAR
p2617
sbatp2618
Rp2619
(dp2620
g17
VVP
p2621
sbatp2622
Rp2623
(dp2624
g17
VVP
p2625
sbatp2626
Rp2627
(dp2628
g17
g192
sbag5
(g6
g7
(lp2629
g84
atp2630
Rp2631
(dp2632
g17
g84
sbag5
(g6
g7
(lp2633
Vand
p2634
atp2635
Rp2636
(dp2637
g17
VCC
p2638
sbag5
(g6
g7
(lp2639
g5
(g6
g7
(lp2640
g5
(g6
g7
(lp2641
Vwe
p2642
atp2643
Rp2644
(dp2645
g17
VPRP
p2646
sbatp2647
Rp2648
(dp2649
g17
VNP
p2650
sbag5
(g6
g7
(lp2651
g5
(g6
g7
(lp2652
Vopted
p2653
atp2654
Rp2655
(dp2656
g17
VVBD
p2657
sbag5
(g6
g7
(lp2658
g5
(g6
g7
(lp2659
g5
(g6
g7
(lp2660
Vto
p2661
atp2662
Rp2663
(dp2664
g17
VTO
p2665
sbag5
(g6
g7
(lp2666
g5
(g6
g7
(lp2667
Vfocus
p2668
atp2669
Rp2670
(dp2671
g17
VVB
p2672
sbag5
(g6
g7
(lp2673
g5
(g6
g7
(lp2674
Von
p2675
atp2676
Rp2677
(dp2678
g17
VIN
p2679
sbag5
(g6
g7
(lp2680
g5
(g6
g7
(lp2681
g5
(g6
g7
(lp2682
Vpolicies
p2683
atp2684
Rp2685
(dp2686
g17
VNNS
p2687
sbatp2688
Rp2689
(dp2690
g17
VNP
p2691
sbag5
(g6
g7
(lp2692
g5
(g6
g7
(lp2693
Vin
p2694
atp2695
Rp2696
(dp2697
g17
VIN
p2698
sbag5
(g6
g7
(lp2699
g5
(g6
g7
(lp2700
VEnglish
p2701
atp2702
Rp2703
(dp2704
g17
VNNP
p2705
sbatp2706
Rp2707
(dp2708
g17
VNP
p2709
sbatp2710
Rp2711
(dp2712
g17
VPP
p2713
sbatp2714
Rp2715
(dp2716
g17
VNP
p2717
sbatp2718
Rp2719
(dp2720
g17
VPP
p2721
sbag5
(g6
g7
(lp2722
g5
(g6
g7
(lp2723
Vin
p2724
atp2725
Rp2726
(dp2727
g17
VIN
p2728
sbag5
(g6
g7
(lp2729
g5
(g6
g7
(lp2730
g5
(g6
g7
(lp2731
Vthis
p2732
atp2733
Rp2734
(dp2735
g17
VDT
p2736
sbag5
(g6
g7
(lp2737
Vfirst
p2738
atp2739
Rp2740
(dp2741
g17
VJJ
p2742
sbag5
(g6
g7
(lp2743
Vstage
p2744
atp2745
Rp2746
(dp2747
g17
VNN
p2748
sbatp2749
Rp2750
(dp2751
g17
VNP
p2752
sbag5
(g6
g7
(lp2753
g5
(g6
g7
(lp2754
Vof
p2755
atp2756
Rp2757
(dp2758
g17
VIN
p2759
sbag5
(g6
g7
(lp2760
g5
(g6
g7
(lp2761
Vresearch
p2762
atp2763
Rp2764
(dp2765
g17
VNN
p2766
sbatp2767
Rp2768
(dp2769
g17
VNP
p2770
sbatp2771
Rp2772
(dp2773
g17
VPP
p2774
sbatp2775
Rp2776
(dp2777
g17
VNP
p2778
sbatp2779
Rp2780
(dp2781
g17
VPP
p2782
sbag5
(g6
g7
(lp2783
g84
atp2784
Rp2785
(dp2786
g17
g84
sbag5
(g6
g7
(lp2787
g5
(g6
g7
(lp2788
Vthough
p2789
atp2790
Rp2791
(dp2792
g17
VIN
p2793
sbag5
(g6
g7
(lp2794
g5
(g6
g7
(lp2795
g5
(g6
g7
(lp2796
Vmulitlingual
p2797
atp2798
Rp2799
(dp2800
g17
VJJ
p2801
sbag5
(g6
g7
(lp2802
Vpolicy
p2803
atp2804
Rp2805
(dp2806
g17
VNN
p2807
sbag5
(g6
g7
(lp2808
Vanalysis
p2809
atp2810
Rp2811
(dp2812
g17
VNN
p2813
sbatp2814
Rp2815
(dp2816
g17
VNP
p2817
sbag5
(g6
g7
(lp2818
g5
(g6
g7
(lp2819
Vpresents
p2820
atp2821
Rp2822
(dp2823
g17
VVBZ
p2824
sbag5
(g6
g7
(lp2825
g5
(g6
g7
(lp2826
g5
(g6
g7
(lp2827
Vinteresting
p2828
atp2829
Rp2830
(dp2831
g17
VJJ
p2832
sbag5
(g6
g7
(lp2833
Vchallenges
p2834
atp2835
Rp2836
(dp2837
g17
VNNS
p2838
sbatp2839
Rp2840
(dp2841
g17
VNP
p2842
sbag5
(g6
g7
(lp2843
g5
(g6
g7
(lp2844
Vfor
p2845
atp2846
Rp2847
(dp2848
g17
VIN
p2849
sbag5
(g6
g7
(lp2850
g5
(g6
g7
(lp2851
Vfuture
p2852
atp2853
Rp2854
(dp2855
g17
VJJ
p2856
sbag5
(g6
g7
(lp2857
Vwork
p2858
atp2859
Rp2860
(dp2861
g17
VNN
p2862
sbatp2863
Rp2864
(dp2865
g17
VNP
p2866
sbatp2867
Rp2868
(dp2869
g17
VPP
p2870
sbatp2871
Rp2872
(dp2873
g17
VNP
p2874
sbatp2875
Rp2876
(dp2877
g17
VVP
p2878
sbatp2879
Rp2880
(dp2881
g17
g192
sbatp2882
Rp2883
(dp2884
g17
VSBAR
p2885
sbatp2886
Rp2887
(dp2888
g17
VVP
p2889
sbatp2890
Rp2891
(dp2892
g17
VVP
p2893
sbatp2894
Rp2895
(dp2896
g17
g192
sbatp2897
Rp2898
(dp2899
g17
VVP
p2900
sbatp2901
Rp2902
(dp2903
g17
g192
sbatp2904
Rp2905
(dp2906
g17
g192
sbatp2907
Rp2908
(dp2909
g17
VROOT
p2910
sbasg400
(icmyPackage
CorE
p2911
(dp2912
g403
(lp2913
(I0
I34
tp2914
a(I0
I41
tp2915
asg407
g2612
sbsg408
(icmyPackage
CorE
p2916
(dp2917
g403
(lp2918
(I0
I43
tp2919
a(I0
I54
tp2920
asg407
g5
(g6
g7
(lp2921
g2636
ag2648
ag2655
ag2663
ag2670
ag2719
ag2726
ag2734
ag2740
atp2922
Rp2923
(dp2924
g17
g418
sbsbsg419
(icmyPackage
pattern
p2925
(dp2926
g422
I15
sg423
I0
sg424
(lp2927
(lp2928
S'since'
p2929
aa(lp2930
g1439
aasg429
(lp2931
I3
aI1
aI1
asg431
(lp2932
S'But, since the herpes virus does not always show its symptoms, prevention is not fool proof.'
p2933
asg434
I78
sg435
(lp2934
(lp2935
a(lp2936
S'&C@NCTime@'
p2937
aa(lp2938
S'&R@NCTime@'
p2939
aasbsg444
(lp2940
(isxpPackage
sxpSent
p2941
(dp2942
g448
(lp2943
I4
asg450
V3 3 The u'\u005cu201c' Adult u'\u005cu201d' category was excluded; the u'\u005cu201c' World u'\u005cu201d' category was excluded since it contains mainly popular websites in different languages, and we opted to focus on policies in English in this first stage of research, though mulitlingual policy analysis presents interesting challenges for future work
p2944
sg452
I3
sg434
I24
sg453
I10
sbasba(icmyPackage
CELink
p2945
(dp2946
g3
(lp2947
g5
(g6
g7
(lp2948
g5
(g6
g7
(lp2949
g5
(g6
g7
(lp2950
g5
(g6
g7
(lp2951
VSince
p2952
atp2953
Rp2954
(dp2955
g17
VIN
p2956
sbag5
(g6
g7
(lp2957
g5
(g6
g7
(lp2958
g5
(g6
g7
(lp2959
Vevery
p2960
atp2961
Rp2962
(dp2963
g17
VDT
p2964
sbag5
(g6
g7
(lp2965
Vsite
p2966
atp2967
Rp2968
(dp2969
g17
VNN
p2970
sbatp2971
Rp2972
(dp2973
g17
VNP
p2974
sbag5
(g6
g7
(lp2975
g5
(g6
g7
(lp2976
Vis
p2977
atp2978
Rp2979
(dp2980
g17
VVBZ
p2981
sbag5
(g6
g7
(lp2982
g5
(g6
g7
(lp2983
Vdifferent
p2984
atp2985
Rp2986
(dp2987
g17
VJJ
p2988
sbatp2989
Rp2990
(dp2991
g17
VADJP
p2992
sbag5
(g6
g7
(lp2993
g5
(g6
g7
(lp2994
g5
(g6
g7
(lp2995
Vin
p2996
atp2997
Rp2998
(dp2999
g17
VIN
p3000
sbag5
(g6
g7
(lp3001
g5
(g6
g7
(lp3002
g5
(g6
g7
(lp3003
g5
(g6
g7
(lp3004
g5
(g6
g7
(lp3005
g5
(g6
g7
(lp3006
Vits
p3007
atp3008
Rp3009
(dp3010
g17
VPRP$
p3011
sbag5
(g6
g7
(lp3012
Vplacement
p3013
atp3014
Rp3015
(dp3016
g17
VNN
p3017
sbatp3018
Rp3019
(dp3020
g17
VNP
p3021
sbag5
(g6
g7
(lp3022
g5
(g6
g7
(lp3023
Vof
p3024
atp3025
Rp3026
(dp3027
g17
VIN
p3028
sbag5
(g6
g7
(lp3029
g5
(g6
g7
(lp3030
Vthe
p3031
atp3032
Rp3033
(dp3034
g17
VDT
p3035
sbag5
(g6
g7
(lp3036
Vdocument
p3037
atp3038
Rp3039
(dp3040
g17
VNN
p3041
sbatp3042
Rp3043
(dp3044
g17
VNP
p3045
sbatp3046
Rp3047
(dp3048
g17
VPP
p3049
sbatp3050
Rp3051
(dp3052
g17
VNP
p3053
sbag5
(g6
g7
(lp3054
V-LRB-
p3055
atp3056
Rp3057
(dp3058
g17
V-LRB-
p3059
sbag5
(g6
g7
(lp3060
g5
(g6
g7
(lp3061
Ve.g.
p3062
atp3063
Rp3064
(dp3065
g17
VNNP
p3066
sbatp3067
Rp3068
(dp3069
g17
VNP
p3070
sbag5
(g6
g7
(lp3071
g84
atp3072
Rp3073
(dp3074
g17
g84
sbatp3075
Rp3076
(dp3077
g17
VNP
p3078
sbag5
(g6
g7
(lp3079
g84
atp3080
Rp3081
(dp3082
g17
g84
sbag5
(g6
g7
(lp3083
g5
(g6
g7
(lp3084
Vburied
p3085
atp3086
Rp3087
(dp3088
g17
VVBN
p3089
sbag5
(g6
g7
(lp3090
g5
(g6
g7
(lp3091
Vdeep
p3092
atp3093
Rp3094
(dp3095
g17
VRB
p3096
sbatp3097
Rp3098
(dp3099
g17
VADVP
p3100
sbag5
(g6
g7
(lp3101
g5
(g6
g7
(lp3102
Vwithin
p3103
atp3104
Rp3105
(dp3106
g17
VIN
p3107
sbag5
(g6
g7
(lp3108
g5
(g6
g7
(lp3109
Vthe
p3110
atp3111
Rp3112
(dp3113
g17
VDT
p3114
sbag5
(g6
g7
(lp3115
Vwebsite
p3116
atp3117
Rp3118
(dp3119
g17
VNN
p3120
sbatp3121
Rp3122
(dp3123
g17
VNP
p3124
sbatp3125
Rp3126
(dp3127
g17
VPP
p3128
sbatp3129
Rp3130
(dp3131
g17
VVP
p3132
sbag5
(g6
g7
(lp3133
g84
atp3134
Rp3135
(dp3136
g17
g84
sbatp3137
Rp3138
(dp3139
g17
VNP
p3140
sbag5
(g6
g7
(lp3141
g5
(g6
g7
(lp3142
Vdistributed
p3143
atp3144
Rp3145
(dp3146
g17
VVBN
p3147
sbag5
(g6
g7
(lp3148
g5
(g6
g7
(lp3149
Vacross
p3150
atp3151
Rp3152
(dp3153
g17
VIN
p3154
sbag5
(g6
g7
(lp3155
g5
(g6
g7
(lp3156
g5
(g6
g7
(lp3157
g5
(g6
g7
(lp3158
Vseveral
p3159
atp3160
Rp3161
(dp3162
g17
VJJ
p3163
sbag5
(g6
g7
(lp3164
Vpages
p3165
atp3166
Rp3167
(dp3168
g17
VNNS
p3169
sbatp3170
Rp3171
(dp3172
g17
VNP
p3173
sbag5
(g6
g7
(lp3174
g84
atp3175
Rp3176
(dp3177
g17
g84
sbag5
(g6
g7
(lp3178
Vor
p3179
atp3180
Rp3181
(dp3182
g17
VCC
p3183
sbag5
(g6
g7
(lp3184
g5
(g6
g7
(lp3185
g5
(g6
g7
(lp3186
Vmingled
p3187
atp3188
Rp3189
(dp3190
g17
VNN
p3191
sbatp3192
Rp3193
(dp3194
g17
VNP
p3195
sbag5
(g6
g7
(lp3196
g5
(g6
g7
(lp3197
g5
(g6
g7
(lp3198
Vtogether
p3199
atp3200
Rp3201
(dp3202
g17
VRB
p3203
sbatp3204
Rp3205
(dp3206
g17
VADVP
p3207
sbag5
(g6
g7
(lp3208
Vwith
p3209
atp3210
Rp3211
(dp3212
g17
VIN
p3213
sbag5
(g6
g7
(lp3214
g5
(g6
g7
(lp3215
g5
(g6
g7
(lp3216
VTerms
p3217
atp3218
Rp3219
(dp3220
g17
VNNS
p3221
sbatp3222
Rp3223
(dp3224
g17
VNP
p3225
sbag5
(g6
g7
(lp3226
g5
(g6
g7
(lp3227
Vof
p3228
atp3229
Rp3230
(dp3231
g17
VIN
p3232
sbag5
(g6
g7
(lp3233
g5
(g6
g7
(lp3234
VService
p3235
atp3236
Rp3237
(dp3238
g17
VNNP
p3239
sbatp3240
Rp3241
(dp3242
g17
VNP
p3243
sbatp3244
Rp3245
(dp3246
g17
VPP
p3247
sbatp3248
Rp3249
(dp3250
g17
VNP
p3251
sbatp3252
Rp3253
(dp3254
g17
VPP
p3255
sbatp3256
Rp3257
(dp3258
g17
VNP
p3259
sbag5
(g6
g7
(lp3260
V-RRB-
p3261
atp3262
Rp3263
(dp3264
g17
V-RRB-
p3265
sbatp3266
Rp3267
(dp3268
g17
VNP
p3269
sbag5
(g6
g7
(lp3270
Vand
p3271
atp3272
Rp3273
(dp3274
g17
VCC
p3275
sbag5
(g6
g7
(lp3276
g5
(g6
g7
(lp3277
g5
(g6
g7
(lp3278
Vformat
p3279
atp3280
Rp3281
(dp3282
g17
VNN
p3283
sbatp3284
Rp3285
(dp3286
g17
VNP
p3287
sbag5
(g6
g7
(lp3288
V-LRB-
p3289
atp3290
Rp3291
(dp3292
g17
V-LRB-
p3293
sbag5
(g6
g7
(lp3294
g5
(g6
g7
(lp3295
Ve.g.
p3296
atp3297
Rp3298
(dp3299
g17
VNNP
p3300
sbatp3301
Rp3302
(dp3303
g17
VNP
p3304
sbag5
(g6
g7
(lp3305
g84
atp3306
Rp3307
(dp3308
g17
g84
sbag5
(g6
g7
(lp3309
g5
(g6
g7
(lp3310
g84
atp3311
Rp3312
(dp3313
g17
g84
sbag5
(g6
g7
(lp3314
g5
(g6
g7
(lp3315
VHTML
p3316
atp3317
Rp3318
(dp3319
g17
VNNP
p3320
sbatp3321
Rp3322
(dp3323
g17
VNP
p3324
sbag5
(g6
g7
(lp3325
g84
atp3326
Rp3327
(dp3328
g17
g84
sbag5
(g6
g7
(lp3329
g5
(g6
g7
(lp3330
VPDF
p3331
atp3332
Rp3333
(dp3334
g17
VNNP
p3335
sbatp3336
Rp3337
(dp3338
g17
VNP
p3339
sbag5
(g6
g7
(lp3340
g84
atp3341
Rp3342
(dp3343
g17
g84
sbag5
(g6
g7
(lp3344
g5
(g6
g7
(lp3345
Vetc.
p3346
atp3347
Rp3348
(dp3349
g17
VNNP
p3350
sbatp3351
Rp3352
(dp3353
g17
VNP
p3354
sbag5
(g6
g7
(lp3355
V-RRB-
p3356
atp3357
Rp3358
(dp3359
g17
V-RRB-
p3360
sbag5
(g6
g7
(lp3361
g84
atp3362
Rp3363
(dp3364
g17
g84
sbatp3365
Rp3366
(dp3367
g17
VPRN
p3368
sbatp3369
Rp3370
(dp3371
g17
VNP
p3372
sbatp3373
Rp3374
(dp3375
g17
VNP
p3376
sbatp3377
Rp3378
(dp3379
g17
VPP
p3380
sbatp3381
Rp3382
(dp3383
g17
VVP
p3384
sbatp3385
Rp3386
(dp3387
g17
g192
sbatp3388
Rp3389
(dp3390
g17
VSBAR
p3391
sbag5
(g6
g7
(lp3392
Vand
p3393
atp3394
Rp3395
(dp3396
g17
VCC
p3397
sbag5
(g6
g7
(lp3398
g5
(g6
g7
(lp3399
Vsince
p3400
atp3401
Rp3402
(dp3403
g17
VIN
p3404
sbag5
(g6
g7
(lp3405
g5
(g6
g7
(lp3406
g5
(g6
g7
(lp3407
Vwe
p3408
atp3409
Rp3410
(dp3411
g17
VPRP
p3412
sbatp3413
Rp3414
(dp3415
g17
VNP
p3416
sbag5
(g6
g7
(lp3417
g5
(g6
g7
(lp3418
Vwish
p3419
atp3420
Rp3421
(dp3422
g17
VVBP
p3423
sbag5
(g6
g7
(lp3424
g5
(g6
g7
(lp3425
g5
(g6
g7
(lp3426
Vto
p3427
atp3428
Rp3429
(dp3430
g17
VTO
p3431
sbag5
(g6
g7
(lp3432
g5
(g6
g7
(lp3433
Vpreserve
p3434
atp3435
Rp3436
(dp3437
g17
VVB
p3438
sbag5
(g6
g7
(lp3439
g5
(g6
g7
(lp3440
Vas
p3441
atp3442
Rp3443
(dp3444
g17
VIN
p3445
sbag5
(g6
g7
(lp3446
g5
(g6
g7
(lp3447
g5
(g6
g7
(lp3448
Vmuch
p3449
atp3450
Rp3451
(dp3452
g17
VJJ
p3453
sbag5
(g6
g7
(lp3454
Vdocument
p3455
atp3456
Rp3457
(dp3458
g17
VNN
p3459
sbag5
(g6
g7
(lp3460
Vstructure
p3461
atp3462
Rp3463
(dp3464
g17
VNN
p3465
sbatp3466
Rp3467
(dp3468
g17
VNP
p3469
sbag5
(g6
g7
(lp3470
g5
(g6
g7
(lp3471
g5
(g6
g7
(lp3472
Vas
p3473
atp3474
Rp3475
(dp3476
g17
VRB
p3477
sbag5
(g6
g7
(lp3478
Vpossible
p3479
atp3480
Rp3481
(dp3482
g17
VJJ
p3483
sbatp3484
Rp3485
(dp3486
g17
VADJP
p3487
sbag5
(g6
g7
(lp3488
g5
(g6
g7
(lp3489
V-LRB-
p3490
atp3491
Rp3492
(dp3493
g17
V-LRB-
p3494
sbag5
(g6
g7
(lp3495
g5
(g6
g7
(lp3496
g5
(g6
g7
(lp3497
Ve.g.
p3498
atp3499
Rp3500
(dp3501
g17
VNNP
p3502
sbag5
(g6
g7
(lp3503
g84
atp3504
Rp3505
(dp3506
g17
g84
sbatp3507
Rp3508
(dp3509
g17
VNP
p3510
sbag5
(g6
g7
(lp3511
g84
atp3512
Rp3513
(dp3514
g17
g84
sbag5
(g6
g7
(lp3515
g5
(g6
g7
(lp3516
Vsection
p3517
atp3518
Rp3519
(dp3520
g17
VNN
p3521
sbatp3522
Rp3523
(dp3524
g17
VNP
p3525
sbag5
(g6
g7
(lp3526
g5
(g6
g7
(lp3527
Vlabels
p3528
atp3529
Rp3530
(dp3531
g17
VVBZ
p3532
sbatp3533
Rp3534
(dp3535
g17
VVP
p3536
sbatp3537
Rp3538
(dp3539
g17
g192
sbag5
(g6
g7
(lp3540
V-RRB-
p3541
atp3542
Rp3543
(dp3544
g17
V-RRB-
p3545
sbatp3546
Rp3547
(dp3548
g17
VPRN
p3549
sbatp3550
Rp3551
(dp3552
g17
VADJP
p3553
sbatp3554
Rp3555
(dp3556
g17
VNP
p3557
sbatp3558
Rp3559
(dp3560
g17
VPP
p3561
sbatp3562
Rp3563
(dp3564
g17
VVP
p3565
sbatp3566
Rp3567
(dp3568
g17
VVP
p3569
sbatp3570
Rp3571
(dp3572
g17
g192
sbatp3573
Rp3574
(dp3575
g17
VVP
p3576
sbatp3577
Rp3578
(dp3579
g17
g192
sbatp3580
Rp3581
(dp3582
g17
VSBAR
p3583
sbatp3584
Rp3585
(dp3586
g17
VSBAR
p3587
sbatp3588
Rp3589
(dp3590
g17
VVP
p3591
sbatp3592
Rp3593
(dp3594
g17
g192
sbatp3595
Rp3596
(dp3597
g17
VSBAR
p3598
sbag5
(g6
g7
(lp3599
g84
atp3600
Rp3601
(dp3602
g17
g84
sbag5
(g6
g7
(lp3603
g5
(g6
g7
(lp3604
Vfull
p3605
atp3606
Rp3607
(dp3608
g17
VJJ
p3609
sbag5
(g6
g7
(lp3610
Vautomation
p3611
atp3612
Rp3613
(dp3614
g17
VNN
p3615
sbatp3616
Rp3617
(dp3618
g17
VNP
p3619
sbag5
(g6
g7
(lp3620
g5
(g6
g7
(lp3621
Vwas
p3622
atp3623
Rp3624
(dp3625
g17
VVBD
p3626
sbag5
(g6
g7
(lp3627
Vnot
p3628
atp3629
Rp3630
(dp3631
g17
VRB
p3632
sbag5
(g6
g7
(lp3633
g5
(g6
g7
(lp3634
g267
atp3635
Rp3636
(dp3637
g17
VDT
p3638
sbag5
(g6
g7
(lp3639
Vviable
p3640
atp3641
Rp3642
(dp3643
g17
VJJ
p3644
sbag5
(g6
g7
(lp3645
Vsolution
p3646
atp3647
Rp3648
(dp3649
g17
VNN
p3650
sbatp3651
Rp3652
(dp3653
g17
VNP
p3654
sbatp3655
Rp3656
(dp3657
g17
VVP
p3658
sbatp3659
Rp3660
(dp3661
g17
g192
sbatp3662
Rp3663
(dp3664
g17
VROOT
p3665
sbasg400
(icmyPackage
CorE
p3666
(dp3667
g403
(lp3668
(I0
I49
tp3669
a(I0
I60
tp3670
asg407
g5
(g6
g7
(lp3671
g3414
ag3421
ag3429
ag3436
ag3443
ag3467
ag3485
ag3492
ag3500
atp3672
Rp3673
(dp3674
g17
g418
sbsbsg408
(icmyPackage
CorE
p3675
(dp3676
g403
(lp3677
(I0
I62
tp3678
a(I0
I73
tp3679
asg407
g5
(g6
g7
(lp3680
g3513
ag3523
ag3534
ag3543
ag3601
ag3617
ag3656
atp3681
Rp3682
(dp3683
g17
g418
sbsbsg419
g2925
sg444
(lp3684
(isxpPackage
sxpSent
p3685
(dp3686
g448
(lp3687
I5
aI6
asg450
VSince every site is different in its placement of the document (e.g.,, buried deep within the website, distributed across several pages, or mingled together with Terms of Service) and format (e.g.,, HTML, PDF, etc.), and since we wish to preserve as much document structure as possible (e.g.,, section labels), full automation was not a viable solution
p3688
sg452
I3
sg434
I29
sg453
I11
sbasba(icmyPackage
CELink
p3689
(dp3690
g3
(lp3691
g3663
ag5
(g6
g7
(lp3692
g5
(g6
g7
(lp3693
g5
(g6
g7
(lp3694
g5
(g6
g7
(lp3695
VWe
p3696
atp3697
Rp3698
(dp3699
g17
VPRP
p3700
sbatp3701
Rp3702
(dp3703
g17
VNP
p3704
sbag5
(g6
g7
(lp3705
g5
(g6
g7
(lp3706
g5
(g6
g7
(lp3707
Vtherefore
p3708
atp3709
Rp3710
(dp3711
g17
VRB
p3712
sbatp3713
Rp3714
(dp3715
g17
VADVP
p3716
sbag5
(g6
g7
(lp3717
Vcrowdsourced
p3718
atp3719
Rp3720
(dp3721
g17
VVBD
p3722
sbag5
(g6
g7
(lp3723
g5
(g6
g7
(lp3724
g5
(g6
g7
(lp3725
Vthe
p3726
atp3727
Rp3728
(dp3729
g17
VDT
p3730
sbag5
(g6
g7
(lp3731
Vprivacy
p3732
atp3733
Rp3734
(dp3735
g17
VNN
p3736
sbag5
(g6
g7
(lp3737
Vpolicy
p3738
atp3739
Rp3740
(dp3741
g17
VNN
p3742
sbag5
(g6
g7
(lp3743
Vdocument
p3744
atp3745
Rp3746
(dp3747
g17
VNN
p3748
sbag5
(g6
g7
(lp3749
Vcollection
p3750
atp3751
Rp3752
(dp3753
g17
VNN
p3754
sbatp3755
Rp3756
(dp3757
g17
VNP
p3758
sbag5
(g6
g7
(lp3759
g5
(g6
g7
(lp3760
Vusing
p3761
atp3762
Rp3763
(dp3764
g17
VVBG
p3765
sbag5
(g6
g7
(lp3766
g5
(g6
g7
(lp3767
VAmazon
p3768
atp3769
Rp3770
(dp3771
g17
VNNP
p3772
sbag5
(g6
g7
(lp3773
VMechanical
p3774
atp3775
Rp3776
(dp3777
g17
VNNP
p3778
sbag5
(g6
g7
(lp3779
VTurk
p3780
atp3781
Rp3782
(dp3783
g17
VNNP
p3784
sbatp3785
Rp3786
(dp3787
g17
VNP
p3788
sbatp3789
Rp3790
(dp3791
g17
VVP
p3792
sbatp3793
Rp3794
(dp3795
g17
VNP
p3796
sbatp3797
Rp3798
(dp3799
g17
VVP
p3800
sbatp3801
Rp3802
(dp3803
g17
g192
sbatp3804
Rp3805
(dp3806
g17
VROOT
p3807
sbasg400
(icmyPackage
CorE
p3808
(dp3809
g403
(lp3810
(I0
I1
tp3811
a(I1
I0
tp3812
asg407
g5
(g6
g7
(lp3813
g3593
ag3601
ag3617
ag3656
ag3702
atp3814
Rp3815
(dp3816
g17
g418
sbsbsg408
(icmyPackage
CorE
p3817
(dp3818
g403
(lp3819
(I1
I2
tp3820
a(I1
I11
tp3821
asg407
g5
(g6
g7
(lp3822
g3720
ag3794
atp3823
Rp3824
(dp3825
g17
g418
sbsbsg419
g2191
sg444
(lp3826
g3685
a(isxpPackage
sxpSent
p3827
(dp3828
g448
(lp3829
I6
asg450
VWe therefore crowdsourced the privacy policy document collection using Amazon Mechanical Turk
p3830
sg452
I3
sg434
I30
sg453
I12
sbasba(icmyPackage
CELink
p3831
(dp3832
g3
(lp3833
g5
(g6
g7
(lp3834
g5
(g6
g7
(lp3835
g5
(g6
g7
(lp3836
g5
(g6
g7
(lp3837
VWe
p3838
atp3839
Rp3840
(dp3841
g17
VPRP
p3842
sbatp3843
Rp3844
(dp3845
g17
VNP
p3846
sbag5
(g6
g7
(lp3847
g5
(g6
g7
(lp3848
Vare
p3849
atp3850
Rp3851
(dp3852
g17
VVBP
p3853
sbag5
(g6
g7
(lp3854
g5
(g6
g7
(lp3855
Vinspired
p3856
atp3857
Rp3858
(dp3859
g17
VVBN
p3860
sbag5
(g6
g7
(lp3861
g5
(g6
g7
(lp3862
Vby
p3863
atp3864
Rp3865
(dp3866
g17
VIN
p3867
sbag5
(g6
g7
(lp3868
g5
(g6
g7
(lp3869
Vmultiple
p3870
atp3871
Rp3872
(dp3873
g17
VJJ
p3874
sbag5
(g6
g7
(lp3875
Vsequence
p3876
atp3877
Rp3878
(dp3879
g17
VNN
p3880
sbag5
(g6
g7
(lp3881
Valignment
p3882
atp3883
Rp3884
(dp3885
g17
VNN
p3886
sbag5
(g6
g7
(lp3887
Vmethods
p3888
atp3889
Rp3890
(dp3891
g17
VNNS
p3892
sbatp3893
Rp3894
(dp3895
g17
VNP
p3896
sbatp3897
Rp3898
(dp3899
g17
VPP
p3900
sbag5
(g6
g7
(lp3901
g5
(g6
g7
(lp3902
g5
(g6
g7
(lp3903
Vin
p3904
atp3905
Rp3906
(dp3907
g17
VIN
p3908
sbag5
(g6
g7
(lp3909
g5
(g6
g7
(lp3910
g5
(g6
g7
(lp3911
Vcomputational
p3912
atp3913
Rp3914
(dp3915
g17
VJJ
p3916
sbag5
(g6
g7
(lp3917
Vbiology
p3918
atp3919
Rp3920
(dp3921
g17
VNN
p3922
sbatp3923
Rp3924
(dp3925
g17
VNP
p3926
sbag5
(g6
g7
(lp3927
g5
(g6
g7
(lp3928
V-LSB-
p3929
atp3930
Rp3931
(dp3932
g17
VVBG
p3933
sbag5
(g6
g7
(lp3934
g5
(g6
g7
(lp3935
g5
(g6
g7
(lp3936
V8
p3937
atp3938
Rp3939
(dp3940
g17
VCD
p3941
sbag5
(g6
g7
(lp3942
V-RSB-
p3943
atp3944
Rp3945
(dp3946
g17
VCD
p3947
sbatp3948
Rp3949
(dp3950
g17
VQP
p3951
sbatp3952
Rp3953
(dp3954
g17
VNP
p3955
sbatp3956
Rp3957
(dp3958
g17
VVP
p3959
sbatp3960
Rp3961
(dp3962
g17
VNP
p3963
sbatp3964
Rp3965
(dp3966
g17
VPP
p3967
sbag5
(g6
g7
(lp3968
Vand
p3969
atp3970
Rp3971
(dp3972
g17
VCC
p3973
sbag5
(g6
g7
(lp3974
g5
(g6
g7
(lp3975
Vby
p3976
atp3977
Rp3978
(dp3979
g17
VIN
p3980
sbag5
(g6
g7
(lp3981
g5
(g6
g7
(lp3982
g5
(g6
g7
(lp3983
g5
(g6
g7
(lp3984
VBarzilay
p3985
atp3986
Rp3987
(dp3988
g17
VNNP
p3989
sbag5
(g6
g7
(lp3990
Vand
p3991
atp3992
Rp3993
(dp3994
g17
VCC
p3995
sbag5
(g6
g7
(lp3996
VLee
p3997
atp3998
Rp3999
(dp4000
g17
VNNP
p4001
sbatp4002
Rp4003
(dp4004
g17
VNP
p4005
sbag5
(g6
g7
(lp4006
g5
(g6
g7
(lp4007
V-LRB-
p4008
atp4009
Rp4010
(dp4011
g17
V-LRB-
p4012
sbag5
(g6
g7
(lp4013
g5
(g6
g7
(lp4014
V2004
p4015
atp4016
Rp4017
(dp4018
g17
VCD
p4019
sbatp4020
Rp4021
(dp4022
g17
VNP
p4023
sbag5
(g6
g7
(lp4024
V-RRB-
p4025
atp4026
Rp4027
(dp4028
g17
V-RRB-
p4029
sbatp4030
Rp4031
(dp4032
g17
VPRN
p4033
sbatp4034
Rp4035
(dp4036
g17
VNP
p4037
sbag5
(g6
g7
(lp4038
g84
atp4039
Rp4040
(dp4041
g17
g84
sbag5
(g6
g7
(lp4042
g5
(g6
g7
(lp4043
g5
(g6
g7
(lp4044
Vwho
p4045
atp4046
Rp4047
(dp4048
g17
VWP
p4049
sbatp4050
Rp4051
(dp4052
g17
VWHNP
p4053
sbag5
(g6
g7
(lp4054
g5
(g6
g7
(lp4055
g5
(g6
g7
(lp4056
Vdescribed
p4057
atp4058
Rp4059
(dp4060
g17
VVBD
p4061
sbag5
(g6
g7
(lp4062
g5
(g6
g7
(lp4063
g5
(g6
g7
(lp4064
g267
atp4065
Rp4066
(dp4067
g17
VDT
p4068
sbag5
(g6
g7
(lp4069
Vhidden
p4070
atp4071
Rp4072
(dp4073
g17
VJJ
p4074
sbag5
(g6
g7
(lp4075
VMarkov
p4076
atp4077
Rp4078
(dp4079
g17
VNNP
p4080
sbag5
(g6
g7
(lp4081
Vmodel
p4082
atp4083
Rp4084
(dp4085
g17
VNN
p4086
sbatp4087
Rp4088
(dp4089
g17
VNP
p4090
sbag5
(g6
g7
(lp4091
g5
(g6
g7
(lp4092
V-LRB-
p4093
atp4094
Rp4095
(dp4096
g17
V-LRB-
p4097
sbag5
(g6
g7
(lp4098
g5
(g6
g7
(lp4099
VHMM
p4100
atp4101
Rp4102
(dp4103
g17
VNNP
p4104
sbatp4105
Rp4106
(dp4107
g17
VNP
p4108
sbag5
(g6
g7
(lp4109
V-RRB-
p4110
atp4111
Rp4112
(dp4113
g17
V-RRB-
p4114
sbatp4115
Rp4116
(dp4117
g17
VPRN
p4118
sbatp4119
Rp4120
(dp4121
g17
VNP
p4122
sbag5
(g6
g7
(lp4123
g5
(g6
g7
(lp4124
Vfor
p4125
atp4126
Rp4127
(dp4128
g17
VIN
p4129
sbag5
(g6
g7
(lp4130
g5
(g6
g7
(lp4131
g5
(g6
g7
(lp4132
Vdocument
p4133
atp4134
Rp4135
(dp4136
g17
VNN
p4137
sbag5
(g6
g7
(lp4138
Vcontent
p4139
atp4140
Rp4141
(dp4142
g17
VNN
p4143
sbatp4144
Rp4145
(dp4146
g17
VNP
p4147
sbag5
(g6
g7
(lp4148
g5
(g6
g7
(lp4149
g5
(g6
g7
(lp4150
Vwhere
p4151
atp4152
Rp4153
(dp4154
g17
VWRB
p4155
sbatp4156
Rp4157
(dp4158
g17
VWHADVP
p4159
sbag5
(g6
g7
(lp4160
g5
(g6
g7
(lp4161
g5
(g6
g7
(lp4162
Veach
p4163
atp4164
Rp4165
(dp4166
g17
VDT
p4167
sbag5
(g6
g7
(lp4168
Vstate
p4169
atp4170
Rp4171
(dp4172
g17
VNN
p4173
sbatp4174
Rp4175
(dp4176
g17
VNP
p4177
sbag5
(g6
g7
(lp4178
g5
(g6
g7
(lp4179
g5
(g6
g7
(lp4180
Vcorresponds
p4181
atp4182
Rp4183
(dp4184
g17
VVBZ
p4185
sbag5
(g6
g7
(lp4186
g5
(g6
g7
(lp4187
Vto
p4188
atp4189
Rp4190
(dp4191
g17
VTO
p4192
sbag5
(g6
g7
(lp4193
g5
(g6
g7
(lp4194
g267
atp4195
Rp4196
(dp4197
g17
VDT
p4198
sbag5
(g6
g7
(lp4199
Vdistinct
p4200
atp4201
Rp4202
(dp4203
g17
VJJ
p4204
sbag5
(g6
g7
(lp4205
Vtopic
p4206
atp4207
Rp4208
(dp4209
g17
VNN
p4210
sbatp4211
Rp4212
(dp4213
g17
VNP
p4214
sbatp4215
Rp4216
(dp4217
g17
VPP
p4218
sbatp4219
Rp4220
(dp4221
g17
VVP
p4222
sbag5
(g6
g7
(lp4223
Vand
p4224
atp4225
Rp4226
(dp4227
g17
VCC
p4228
sbag5
(g6
g7
(lp4229
g5
(g6
g7
(lp4230
Vgenerates
p4231
atp4232
Rp4233
(dp4234
g17
VVBZ
p4235
sbag5
(g6
g7
(lp4236
g5
(g6
g7
(lp4237
g5
(g6
g7
(lp4238
Vsentences
p4239
atp4240
Rp4241
(dp4242
g17
VNNS
p4243
sbatp4244
Rp4245
(dp4246
g17
VNP
p4247
sbag5
(g6
g7
(lp4248
g5
(g6
g7
(lp4249
Vrelevant
p4250
atp4251
Rp4252
(dp4253
g17
VJJ
p4254
sbag5
(g6
g7
(lp4255
g5
(g6
g7
(lp4256
Vto
p4257
atp4258
Rp4259
(dp4260
g17
VTO
p4261
sbag5
(g6
g7
(lp4262
g5
(g6
g7
(lp4263
Vthat
p4264
atp4265
Rp4266
(dp4267
g17
VDT
p4268
sbag5
(g6
g7
(lp4269
Vtopic
p4270
atp4271
Rp4272
(dp4273
g17
VNN
p4274
sbatp4275
Rp4276
(dp4277
g17
VNP
p4278
sbatp4279
Rp4280
(dp4281
g17
VPP
p4282
sbatp4283
Rp4284
(dp4285
g17
VADJP
p4286
sbatp4287
Rp4288
(dp4289
g17
g192
sbatp4290
Rp4291
(dp4292
g17
VVP
p4293
sbatp4294
Rp4295
(dp4296
g17
VVP
p4297
sbatp4298
Rp4299
(dp4300
g17
g192
sbatp4301
Rp4302
(dp4303
g17
VSBAR
p4304
sbatp4305
Rp4306
(dp4307
g17
VNP
p4308
sbatp4309
Rp4310
(dp4311
g17
VPP
p4312
sbag5
(g6
g7
(lp4313
g5
(g6
g7
(lp4314
Vaccording
p4315
atp4316
Rp4317
(dp4318
g17
VVBG
p4319
sbag5
(g6
g7
(lp4320
g5
(g6
g7
(lp4321
Vto
p4322
atp4323
Rp4324
(dp4325
g17
VTO
p4326
sbag5
(g6
g7
(lp4327
g5
(g6
g7
(lp4328
g267
atp4329
Rp4330
(dp4331
g17
VDT
p4332
sbag5
(g6
g7
(lp4333
Vlanguage
p4334
atp4335
Rp4336
(dp4337
g17
VNN
p4338
sbag5
(g6
g7
(lp4339
Vmodel
p4340
atp4341
Rp4342
(dp4343
g17
VNN
p4344
sbatp4345
Rp4346
(dp4347
g17
VNP
p4348
sbatp4349
Rp4350
(dp4351
g17
VPP
p4352
sbatp4353
Rp4354
(dp4355
g17
VPP
p4356
sbatp4357
Rp4358
(dp4359
g17
VVP
p4360
sbatp4361
Rp4362
(dp4363
g17
g192
sbatp4364
Rp4365
(dp4366
g17
VSBAR
p4367
sbatp4368
Rp4369
(dp4370
g17
VNP
p4371
sbatp4372
Rp4373
(dp4374
g17
VPP
p4375
sbatp4376
Rp4377
(dp4378
g17
VPP
p4379
sbatp4380
Rp4381
(dp4382
g17
VVP
p4383
sbatp4384
Rp4385
(dp4386
g17
VVP
p4387
sbatp4388
Rp4389
(dp4390
g17
g192
sbatp4391
Rp4392
(dp4393
g17
VROOT
p4394
sbasg400
(icmyPackage
CorE
p4395
(dp4396
g403
(lp4397
(I0
I52
tp4398
a(I0
I54
tp4399
asg407
g4346
sbsg408
(icmyPackage
CorE
p4400
(dp4401
g403
(lp4402
(I0
I0
tp4403
a(I0
I49
tp4404
asg407
g5
(g6
g7
(lp4405
g3844
ag3851
ag3858
ag3898
ag3965
ag3971
ag3978
ag4035
ag4040
ag4051
ag4059
ag4120
ag4310
atp4406
Rp4407
(dp4408
g17
g418
sbsbsg419
(icmyPackage
pattern
p4409
(dp4410
g422
I0
sg423
I0
sg424
(lp4411
(lp4412
S'according'
p4413
aS'to'
p4414
aasg429
(lp4415
I2
aI1
aI1
asg431
(lp4416
S'There could be different ways to arrange pictures in displays but picture should be selected according to the core sentences and arranged near the core sentences according to the semantic locality principle.'
p4417
asg434
I55
sg435
(lp4418
(lp4419
S'&R'
p4420
aS'(,)'
p4421
aa(lp4422
S'&NP@C@'
p4423
aasbsg444
(lp4424
(isxpPackage
sxpSent
p4425
(dp4426
g448
(lp4427
I7
asg450
VWe are inspired by multiple sequence alignment methods in computational biology [ 8 ] and by Barzilay and Lee ( 2004 ) , who described a hidden Markov model (HMM) for document content where each state corresponds to a distinct topic and generates sentences relevant to that topic according to a language model
p4428
sg452
I4
sg434
I40
sg453
I15
sbasba(icmyPackage
CELink
p4429
(dp4430
g3
(lp4431
g5
(g6
g7
(lp4432
g5
(g6
g7
(lp4433
g5
(g6
g7
(lp4434
g5
(g6
g7
(lp4435
VChoose
p4436
atp4437
Rp4438
(dp4439
g17
VVB
p4440
sbag5
(g6
g7
(lp4441
g5
(g6
g7
(lp4442
g267
atp4443
Rp4444
(dp4445
g17
VDT
p4446
sbag5
(g6
g7
(lp4447
Vstart
p4448
atp4449
Rp4450
(dp4451
g17
VNN
p4452
sbag5
(g6
g7
(lp4453
Vstate
p4454
atp4455
Rp4456
(dp4457
g17
VNN
p4458
sbatp4459
Rp4460
(dp4461
g17
VNP
p4462
sbag5
(g6
g7
(lp4463
g5
(g6
g7
(lp4464
Vy
p4465
atp4466
Rp4467
(dp4468
g17
VVB
p4469
sbag5
(g6
g7
(lp4470
g5
(g6
g7
(lp4471
V1
p4472
atp4473
Rp4474
(dp4475
g17
VCD
p4476
sbatp4477
Rp4478
(dp4479
g17
VNP
p4480
sbag5
(g6
g7
(lp4481
g5
(g6
g7
(lp4482
Vfrom
p4483
atp4484
Rp4485
(dp4486
g17
VIN
p4487
sbag5
(g6
g7
(lp4488
g5
(g6
g7
(lp4489
g5
(g6
g7
(lp4490
g2254
atp4491
Rp4492
(dp4493
g17
VNNP
p4494
sbag5
(g6
g7
(lp4495
g2260
atp4496
Rp4497
(dp4498
g17
VPOS
p4499
sbatp4500
Rp4501
(dp4502
g17
VNP
p4503
sbag5
(g6
g7
(lp4504
g5
(g6
g7
(lp4505
g5
(g6
g7
(lp4506
g5
(g6
g7
(lp4507
V\u005c
p4508
atp4509
Rp4510
(dp4511
g17
VNNP
p4512
sbag5
(g6
g7
(lp4513
Vud835
p4514
atp4515
Rp4516
(dp4517
g17
VNNP
p4518
sbag5
(g6
g7
(lp4519
g2260
atp4520
Rp4521
(dp4522
g17
VPOS
p4523
sbatp4524
Rp4525
(dp4526
g17
VNP
p4527
sbag5
(g6
g7
(lp4528
g2254
atp4529
Rp4530
(dp4531
g17
VNN
p4532
sbag5
(g6
g7
(lp4533
g2260
atp4534
Rp4535
(dp4536
g17
VPOS
p4537
sbatp4538
Rp4539
(dp4540
g17
VNP
p4541
sbag5
(g6
g7
(lp4542
V\u005c
p4543
atp4544
Rp4545
(dp4546
g17
VJJ
p4547
sbag5
(g6
g7
(lp4548
Vudcae
p4549
atp4550
Rp4551
(dp4552
g17
VNN
p4553
sbatp4554
Rp4555
(dp4556
g17
VNP
p4557
sbatp4558
Rp4559
(dp4560
g17
VNP
p4561
sbatp4562
Rp4563
(dp4564
g17
VPP
p4565
sbag5
(g6
g7
(lp4566
g2260
atp4567
Rp4568
(dp4569
g17
V''
p4570
sbag5
(g6
g7
(lp4571
g5
(g6
g7
(lp4572
Vaccording
p4573
atp4574
Rp4575
(dp4576
g17
VVBG
p4577
sbag5
(g6
g7
(lp4578
g5
(g6
g7
(lp4579
Vto
p4580
atp4581
Rp4582
(dp4583
g17
VTO
p4584
sbag5
(g6
g7
(lp4585
g5
(g6
g7
(lp4586
Vthe
p4587
atp4588
Rp4589
(dp4590
g17
VDT
p4591
sbag5
(g6
g7
(lp4592
Vstart-state
p4593
atp4594
Rp4595
(dp4596
g17
VJJ
p4597
sbag5
(g6
g7
(lp4598
Vdistribution
p4599
atp4600
Rp4601
(dp4602
g17
VNN
p4603
sbatp4604
Rp4605
(dp4606
g17
VNP
p4607
sbatp4608
Rp4609
(dp4610
g17
VPP
p4611
sbatp4612
Rp4613
(dp4614
g17
VPP
p4615
sbatp4616
Rp4617
(dp4618
g17
VVP
p4619
sbatp4620
Rp4621
(dp4622
g17
VVP
p4623
sbatp4624
Rp4625
(dp4626
g17
g192
sbatp4627
Rp4628
(dp4629
g17
VROOT
p4630
sbasg400
(icmyPackage
CorE
p4631
(dp4632
g403
(lp4633
(I0
I19
tp4634
a(I0
I21
tp4635
asg407
g4605
sbsg408
(icmyPackage
CorE
p4636
(dp4637
g403
(lp4638
(I0
I0
tp4639
a(I0
I16
tp4640
asg407
g5
(g6
g7
(lp4641
g4438
ag4460
ag4467
ag4478
ag4563
ag4568
atp4642
Rp4643
(dp4644
g17
g418
sbsbsg419
g4409
sg444
(lp4645
(isxpPackage
sxpSent
p4646
(dp4647
g448
(lp4648
I8
asg450
VChoose a start state y 1 from u'\u005cud835' u'\u005cudcae' according to the start-state distribution
p4649
sg452
I4
sg434
I46
sg453
I17
sbasba(icmyPackage
CELink
p4650
(dp4651
g3
(lp4652
g5
(g6
g7
(lp4653
g5
(g6
g7
(lp4654
g5
(g6
g7
(lp4655
g5
(g6
g7
(lp4656
VSample
p4657
atp4658
Rp4659
(dp4660
g17
VVB
p4661
sbag5
(g6
g7
(lp4662
g5
(g6
g7
(lp4663
g5
(g6
g7
(lp4664
Vthe
p4665
atp4666
Rp4667
(dp4668
g17
VDT
p4669
sbag5
(g6
g7
(lp4670
Vt
p4671
atp4672
Rp4673
(dp4674
g17
VNN
p4675
sbag5
(g6
g7
(lp4676
Vth
p4677
atp4678
Rp4679
(dp4680
g17
VNN
p4681
sbag5
(g6
g7
(lp4682
Vsection
p4683
atp4684
Rp4685
(dp4686
g17
VNN
p4687
sbatp4688
Rp4689
(dp4690
g17
VNP
p4691
sbag5
(g6
g7
(lp4692
g5
(g6
g7
(lp4693
Vof
p4694
atp4695
Rp4696
(dp4697
g17
VIN
p4698
sbag5
(g6
g7
(lp4699
g5
(g6
g7
(lp4700
Vthe
p4701
atp4702
Rp4703
(dp4704
g17
VDT
p4705
sbag5
(g6
g7
(lp4706
Vdocument
p4707
atp4708
Rp4709
(dp4710
g17
VNN
p4711
sbatp4712
Rp4713
(dp4714
g17
VNP
p4715
sbatp4716
Rp4717
(dp4718
g17
VPP
p4719
sbatp4720
Rp4721
(dp4722
g17
VNP
p4723
sbag5
(g6
g7
(lp4724
g5
(g6
g7
(lp4725
Vby
p4726
atp4727
Rp4728
(dp4729
g17
VIN
p4730
sbag5
(g6
g7
(lp4731
g5
(g6
g7
(lp4732
g5
(g6
g7
(lp4733
Vdrawing
p4734
atp4735
Rp4736
(dp4737
g17
VVBG
p4738
sbag5
(g6
g7
(lp4739
g5
(g6
g7
(lp4740
g5
(g6
g7
(lp4741
g267
atp4742
Rp4743
(dp4744
g17
VDT
p4745
sbag5
(g6
g7
(lp4746
Vbag
p4747
atp4748
Rp4749
(dp4750
g17
VNN
p4751
sbatp4752
Rp4753
(dp4754
g17
VNP
p4755
sbag5
(g6
g7
(lp4756
g5
(g6
g7
(lp4757
Vof
p4758
atp4759
Rp4760
(dp4761
g17
VIN
p4762
sbag5
(g6
g7
(lp4763
g5
(g6
g7
(lp4764
g5
(g6
g7
(lp4765
Vterms
p4766
atp4767
Rp4768
(dp4769
g17
VNNS
p4770
sbatp4771
Rp4772
(dp4773
g17
VNP
p4774
sbag5
(g6
g7
(lp4775
g84
atp4776
Rp4777
(dp4778
g17
g84
sbag5
(g6
g7
(lp4779
g5
(g6
g7
(lp4780
g5
(g6
g7
(lp4781
g5
(g6
g7
(lp4782
g2254
atp4783
Rp4784
(dp4785
g17
VNNP
p4786
sbag5
(g6
g7
(lp4787
g2260
atp4788
Rp4789
(dp4790
g17
VPOS
p4791
sbatp4792
Rp4793
(dp4794
g17
VNP
p4795
sbag5
(g6
g7
(lp4796
V\u005c
p4797
atp4798
Rp4799
(dp4800
g17
VJJ
p4801
sbag5
(g6
g7
(lp4802
g5
(g6
g7
(lp4803
Vud835
p4804
atp4805
Rp4806
(dp4807
g17
VNNP
p4808
sbag5
(g6
g7
(lp4809
g2260
atp4810
Rp4811
(dp4812
g17
VPOS
p4813
sbatp4814
Rp4815
(dp4816
g17
VNP
p4817
sbag5
(g6
g7
(lp4818
g2254
atp4819
Rp4820
(dp4821
g17
VNN
p4822
sbag5
(g6
g7
(lp4823
g2260
atp4824
Rp4825
(dp4826
g17
V''
p4827
sbatp4828
Rp4829
(dp4830
g17
VNP
p4831
sbag5
(g6
g7
(lp4832
g5
(g6
g7
(lp4833
g5
(g6
g7
(lp4834
V\u005c
p4835
atp4836
Rp4837
(dp4838
g17
VNNP
p4839
sbag5
(g6
g7
(lp4840
Vudc90
p4841
atp4842
Rp4843
(dp4844
g17
VNNP
p4845
sbag5
(g6
g7
(lp4846
g2260
atp4847
Rp4848
(dp4849
g17
VPOS
p4850
sbatp4851
Rp4852
(dp4853
g17
VNP
p4854
sbag5
(g6
g7
(lp4855
g4671
atp4856
Rp4857
(dp4858
g17
VNN
p4859
sbatp4860
Rp4861
(dp4862
g17
VNP
p4863
sbatp4864
Rp4865
(dp4866
g17
VNP
p4867
sbag5
(g6
g7
(lp4868
g84
atp4869
Rp4870
(dp4871
g17
g84
sbatp4872
Rp4873
(dp4874
g17
VNP
p4875
sbatp4876
Rp4877
(dp4878
g17
VPP
p4879
sbatp4880
Rp4881
(dp4882
g17
VNP
p4883
sbag5
(g6
g7
(lp4884
g5
(g6
g7
(lp4885
Vaccording
p4886
atp4887
Rp4888
(dp4889
g17
VVBG
p4890
sbag5
(g6
g7
(lp4891
g5
(g6
g7
(lp4892
Vto
p4893
atp4894
Rp4895
(dp4896
g17
VTO
p4897
sbag5
(g6
g7
(lp4898
g5
(g6
g7
(lp4899
g5
(g6
g7
(lp4900
Vthe
p4901
atp4902
Rp4903
(dp4904
g17
VDT
p4905
sbag5
(g6
g7
(lp4906
Vemission
p4907
atp4908
Rp4909
(dp4910
g17
VNN
p4911
sbag5
(g6
g7
(lp4912
Vmultinomial
p4913
atp4914
Rp4915
(dp4916
g17
VNN
p4917
sbag5
(g6
g7
(lp4918
Vdistribution
p4919
atp4920
Rp4921
(dp4922
g17
VNN
p4923
sbatp4924
Rp4925
(dp4926
g17
VNP
p4927
sbag5
(g6
g7
(lp4928
g5
(g6
g7
(lp4929
Vfor
p4930
atp4931
Rp4932
(dp4933
g17
VIN
p4934
sbag5
(g6
g7
(lp4935
g5
(g6
g7
(lp4936
Vstate
p4937
atp4938
Rp4939
(dp4940
g17
VNN
p4941
sbag5
(g6
g7
(lp4942
g4465
atp4943
Rp4944
(dp4945
g17
VNN
p4946
sbag5
(g6
g7
(lp4947
g4671
atp4948
Rp4949
(dp4950
g17
VNN
p4951
sbatp4952
Rp4953
(dp4954
g17
VNP
p4955
sbatp4956
Rp4957
(dp4958
g17
VPP
p4959
sbatp4960
Rp4961
(dp4962
g17
VNP
p4963
sbatp4964
Rp4965
(dp4966
g17
VPP
p4967
sbatp4968
Rp4969
(dp4970
g17
VPP
p4971
sbatp4972
Rp4973
(dp4974
g17
VVP
p4975
sbatp4976
Rp4977
(dp4978
g17
g192
sbatp4979
Rp4980
(dp4981
g17
VPP
p4982
sbatp4983
Rp4984
(dp4985
g17
VVP
p4986
sbatp4987
Rp4988
(dp4989
g17
g192
sbatp4990
Rp4991
(dp4992
g17
VROOT
p4993
sbasg400
(icmyPackage
CorE
p4994
(dp4995
g403
(lp4996
(I0
I29
tp4997
a(I0
I36
tp4998
asg407
g4961
sbsg408
(icmyPackage
CorE
p4999
(dp5000
g403
(lp5001
(I0
I0
tp5002
a(I0
I25
tp5003
asg407
g5
(g6
g7
(lp5004
g4659
ag4721
ag4728
ag4736
ag4753
ag4760
ag4772
ag4777
ag4865
atp5005
Rp5006
(dp5007
g17
g418
sbsbsg419
g4409
sg444
(lp5008
(isxpPackage
sxpSent
p5009
(dp5010
g448
(lp5011
I9
asg450
VSample the t th section of the document by drawing a bag of terms, u'\u005cud835' u'\u005cudc90' t , according to the emission multinomial distribution for state y t
p5012
sg452
I4
sg434
I48
sg453
I19
sbasba(icmyPackage
CELink
p5013
(dp5014
g3
(lp5015
g5
(g6
g7
(lp5016
g5
(g6
g7
(lp5017
g5
(g6
g7
(lp5018
g5
(g6
g7
(lp5019
g5
(g6
g7
(lp5020
g5
(g6
g7
(lp5021
V4
p5022
atp5023
Rp5024
(dp5025
g17
VCD
p5026
sbag5
(g6
g7
(lp5027
g5022
atp5028
Rp5029
(dp5030
g17
VCD
p5031
sbatp5032
Rp5033
(dp5034
g17
VQP
p5035
sbatp5036
Rp5037
(dp5038
g17
VNP
p5039
sbag5
(g6
g7
(lp5040
g5
(g6
g7
(lp5041
g5
(g6
g7
(lp5042
g5
(g6
g7
(lp5043
VThe
p5044
atp5045
Rp5046
(dp5047
g17
VDT
p5048
sbag5
(g6
g7
(lp5049
Vemission
p5050
atp5051
Rp5052
(dp5053
g17
VNN
p5054
sbag5
(g6
g7
(lp5055
Vdistributions
p5056
atp5057
Rp5058
(dp5059
g17
VNNS
p5060
sbatp5061
Rp5062
(dp5063
g17
VNP
p5064
sbag5
(g6
g7
(lp5065
g5
(g6
g7
(lp5066
Vare
p5067
atp5068
Rp5069
(dp5070
g17
VVBP
p5071
sbag5
(g6
g7
(lp5072
Vnot
p5073
atp5074
Rp5075
(dp5076
g17
VRB
p5077
sbag5
(g6
g7
(lp5078
g5
(g6
g7
(lp5079
g5
(g6
g7
(lp5080
g5
(g6
g7
(lp5081
g5
(g6
g7
(lp5082
g267
atp5083
Rp5084
(dp5085
g17
VDT
p5086
sbag5
(g6
g7
(lp5087
Vproper
p5088
atp5089
Rp5090
(dp5091
g17
VJJ
p5092
sbag5
(g6
g7
(lp5093
Vlanguage
p5094
atp5095
Rp5096
(dp5097
g17
VNN
p5098
sbatp5099
Rp5100
(dp5101
g17
VNP
p5102
sbag5
(g6
g7
(lp5103
g5
(g6
g7
(lp5104
Vmodels
p5105
atp5106
Rp5107
(dp5108
g17
VNNS
p5109
sbatp5110
Rp5111
(dp5112
g17
VNP
p5113
sbatp5114
Rp5115
(dp5116
g17
VNP
p5117
sbag5
(g6
g7
(lp5118
V-LRB-
p5119
atp5120
Rp5121
(dp5122
g17
V-LRB-
p5123
sbag5
(g6
g7
(lp5124
g5
(g6
g7
(lp5125
Ve.g.
p5126
atp5127
Rp5128
(dp5129
g17
VNNP
p5130
sbatp5131
Rp5132
(dp5133
g17
VNP
p5134
sbag5
(g6
g7
(lp5135
g84
atp5136
Rp5137
(dp5138
g17
g84
sbatp5139
Rp5140
(dp5141
g17
VNP
p5142
sbag5
(g6
g7
(lp5143
g84
atp5144
Rp5145
(dp5146
g17
g84
sbag5
(g6
g7
(lp5147
g5
(g6
g7
(lp5148
g5
(g6
g7
(lp5149
g5
(g6
g7
(lp5150
g267
atp5151
Rp5152
(dp5153
g17
VDT
p5154
sbag5
(g6
g7
(lp5155
Vbigram
p5156
atp5157
Rp5158
(dp5159
g17
VNN
p5160
sbatp5161
Rp5162
(dp5163
g17
VNP
p5164
sbag5
(g6
g7
(lp5165
g5
(g6
g7
(lp5166
Vmay
p5167
atp5168
Rp5169
(dp5170
g17
VMD
p5171
sbag5
(g6
g7
(lp5172
g5
(g6
g7
(lp5173
Vbe
p5174
atp5175
Rp5176
(dp5177
g17
VVB
p5178
sbag5
(g6
g7
(lp5179
g5
(g6
g7
(lp5180
Vgenerated
p5181
atp5182
Rp5183
(dp5184
g17
VVBN
p5185
sbag5
(g6
g7
(lp5186
g5
(g6
g7
(lp5187
Vby
p5188
atp5189
Rp5190
(dp5191
g17
VIN
p5192
sbag5
(g6
g7
(lp5193
g5
(g6
g7
(lp5194
g5
(g6
g7
(lp5195
Vas
p5196
atp5197
Rp5198
(dp5199
g17
VRB
p5200
sbag5
(g6
g7
(lp5201
Vmany
p5202
atp5203
Rp5204
(dp5205
g17
VJJ
p5206
sbag5
(g6
g7
(lp5207
Vas
p5208
atp5209
Rp5210
(dp5211
g17
VIN
p5212
sbag5
(g6
g7
(lp5213
Vthree
p5214
atp5215
Rp5216
(dp5217
g17
VCD
p5218
sbatp5219
Rp5220
(dp5221
g17
VQP
p5222
sbatp5223
Rp5224
(dp5225
g17
VNP
p5226
sbatp5227
Rp5228
(dp5229
g17
VPP
p5230
sbatp5231
Rp5232
(dp5233
g17
VVP
p5234
sbatp5235
Rp5236
(dp5237
g17
VVP
p5238
sbatp5239
Rp5240
(dp5241
g17
VVP
p5242
sbatp5243
Rp5244
(dp5245
g17
g192
sbatp5246
Rp5247
(dp5248
g17
VSBAR
p5249
sbatp5250
Rp5251
(dp5252
g17
VNP
p5253
sbatp5254
Rp5255
(dp5256
g17
VVP
p5257
sbatp5258
Rp5259
(dp5260
g17
g192
sbatp5261
Rp5262
(dp5263
g17
VSBAR
p5264
sbatp5265
Rp5266
(dp5267
g17
VNP
p5268
sbag5
(g6
g7
(lp5269
g5
(g6
g7
(lp5270
Vdraws
p5271
atp5272
Rp5273
(dp5274
g17
VVBZ
p5275
sbag5
(g6
g7
(lp5276
g5
(g6
g7
(lp5277
Vfrom
p5278
atp5279
Rp5280
(dp5281
g17
VIN
p5282
sbag5
(g6
g7
(lp5283
g5
(g6
g7
(lp5284
Vthe
p5285
atp5286
Rp5287
(dp5288
g17
VDT
p5289
sbag5
(g6
g7
(lp5290
Vemission
p5291
atp5292
Rp5293
(dp5294
g17
VNN
p5295
sbag5
(g6
g7
(lp5296
Vdistribution
p5297
atp5298
Rp5299
(dp5300
g17
VNN
p5301
sbatp5302
Rp5303
(dp5304
g17
VNP
p5305
sbatp5306
Rp5307
(dp5308
g17
VPP
p5309
sbag5
(g6
g7
(lp5310
g5
(g6
g7
(lp5311
Vonce
p5312
atp5313
Rp5314
(dp5315
g17
VIN
p5316
sbag5
(g6
g7
(lp5317
g5
(g6
g7
(lp5318
g5
(g6
g7
(lp5319
Vfor
p5320
atp5321
Rp5322
(dp5323
g17
VIN
p5324
sbag5
(g6
g7
(lp5325
g5
(g6
g7
(lp5326
Veach
p5327
atp5328
Rp5329
(dp5330
g17
VDT
p5331
sbag5
(g6
g7
(lp5332
Vunigram
p5333
atp5334
Rp5335
(dp5336
g17
VNN
p5337
sbatp5338
Rp5339
(dp5340
g17
VNP
p5341
sbatp5342
Rp5343
(dp5344
g17
VPP
p5345
sbag5
(g6
g7
(lp5346
g5
(g6
g7
(lp5347
Vit
p5348
atp5349
Rp5350
(dp5351
g17
VPRP
p5352
sbatp5353
Rp5354
(dp5355
g17
VNP
p5356
sbag5
(g6
g7
(lp5357
g5
(g6
g7
(lp5358
g5
(g6
g7
(lp5359
Vcontains
p5360
atp5361
Rp5362
(dp5363
g17
VVBZ
p5364
sbatp5365
Rp5366
(dp5367
g17
VVP
p5368
sbag5
(g6
g7
(lp5369
Vand
p5370
atp5371
Rp5372
(dp5373
g17
VCC
p5374
sbag5
(g6
g7
(lp5375
g5
(g6
g7
(lp5376
g5
(g6
g7
(lp5377
Vonce
p5378
atp5379
Rp5380
(dp5381
g17
VRB
p5382
sbatp5383
Rp5384
(dp5385
g17
VADVP
p5386
sbag5
(g6
g7
(lp5387
g5
(g6
g7
(lp5388
Vfor
p5389
atp5390
Rp5391
(dp5392
g17
VIN
p5393
sbag5
(g6
g7
(lp5394
g5
(g6
g7
(lp5395
Vthe
p5396
atp5397
Rp5398
(dp5399
g17
VDT
p5400
sbag5
(g6
g7
(lp5401
Vbigram
p5402
atp5403
Rp5404
(dp5405
g17
VNN
p5406
sbatp5407
Rp5408
(dp5409
g17
VNP
p5410
sbatp5411
Rp5412
(dp5413
g17
VPP
p5414
sbatp5415
Rp5416
(dp5417
g17
VVP
p5418
sbatp5419
Rp5420
(dp5421
g17
VVP
p5422
sbatp5423
Rp5424
(dp5425
g17
g192
sbatp5426
Rp5427
(dp5428
g17
VSBAR
p5429
sbatp5430
Rp5431
(dp5432
g17
VVP
p5433
sbatp5434
Rp5435
(dp5436
g17
g192
sbatp5437
Rp5438
(dp5439
g17
VROOT
p5440
sbag5
(g6
g7
(lp5441
g5
(g6
g7
(lp5442
g5
(g6
g7
(lp5443
g5
(g6
g7
(lp5444
VSample
p5445
atp5446
Rp5447
(dp5448
g17
VVBZ
p5449
sbatp5450
Rp5451
(dp5452
g17
VVP
p5453
sbag5
(g6
g7
(lp5454
g5
(g6
g7
(lp5455
g5
(g6
g7
(lp5456
Vthe
p5457
atp5458
Rp5459
(dp5460
g17
VDT
p5461
sbag5
(g6
g7
(lp5462
Vnext
p5463
atp5464
Rp5465
(dp5466
g17
VJJ
p5467
sbag5
(g6
g7
(lp5468
Vstate
p5469
atp5470
Rp5471
(dp5472
g17
VNN
p5473
sbatp5474
Rp5475
(dp5476
g17
VNP
p5477
sbag5
(g6
g7
(lp5478
g84
atp5479
Rp5480
(dp5481
g17
g84
sbag5
(g6
g7
(lp5482
g5
(g6
g7
(lp5483
g5
(g6
g7
(lp5484
g4465
atp5485
Rp5486
(dp5487
g17
VNN
p5488
sbag5
(g6
g7
(lp5489
g4671
atp5490
Rp5491
(dp5492
g17
VNN
p5493
sbatp5494
Rp5495
(dp5496
g17
VNP
p5497
sbag5
(g6
g7
(lp5498
g5
(g6
g7
(lp5499
g5
(g6
g7
(lp5500
V+
p5501
atp5502
Rp5503
(dp5504
g17
VCD
p5505
sbag5
(g6
g7
(lp5506
g4472
atp5507
Rp5508
(dp5509
g17
VCD
p5510
sbatp5511
Rp5512
(dp5513
g17
VQP
p5514
sbatp5515
Rp5516
(dp5517
g17
VNP
p5518
sbatp5519
Rp5520
(dp5521
g17
VNP
p5522
sbatp5523
Rp5524
(dp5525
g17
VNP
p5526
sbag5
(g6
g7
(lp5527
g84
atp5528
Rp5529
(dp5530
g17
g84
sbag5
(g6
g7
(lp5531
g5
(g6
g7
(lp5532
Vaccording
p5533
atp5534
Rp5535
(dp5536
g17
VVBG
p5537
sbag5
(g6
g7
(lp5538
g5
(g6
g7
(lp5539
Vto
p5540
atp5541
Rp5542
(dp5543
g17
VTO
p5544
sbag5
(g6
g7
(lp5545
g5
(g6
g7
(lp5546
g5
(g6
g7
(lp5547
g5
(g6
g7
(lp5548
Vthe
p5549
atp5550
Rp5551
(dp5552
g17
VDT
p5553
sbag5
(g6
g7
(lp5554
Vtransition
p5555
atp5556
Rp5557
(dp5558
g17
VNN
p5559
sbag5
(g6
g7
(lp5560
Vdistribution
p5561
atp5562
Rp5563
(dp5564
g17
VNN
p5565
sbatp5566
Rp5567
(dp5568
g17
VNP
p5569
sbag5
(g6
g7
(lp5570
g5
(g6
g7
(lp5571
Vover
p5572
atp5573
Rp5574
(dp5575
g17
VIN
p5576
sbag5
(g6
g7
(lp5577
g5
(g6
g7
(lp5578
g5
(g6
g7
(lp5579
g2254
atp5580
Rp5581
(dp5582
g17
VNNP
p5583
sbag5
(g6
g7
(lp5584
g2260
atp5585
Rp5586
(dp5587
g17
VPOS
p5588
sbatp5589
Rp5590
(dp5591
g17
VNP
p5592
sbag5
(g6
g7
(lp5593
V\u005c
p5594
atp5595
Rp5596
(dp5597
g17
VJJ
p5598
sbag5
(g6
g7
(lp5599
Vud835
p5600
atp5601
Rp5602
(dp5603
g17
VNNS
p5604
sbag5
(g6
g7
(lp5605
g2260
atp5606
Rp5607
(dp5608
g17
V''
p5609
sbag5
(g6
g7
(lp5610
g2254
atp5611
Rp5612
(dp5613
g17
VNN
p5614
sbatp5615
Rp5616
(dp5617
g17
VNP
p5618
sbatp5619
Rp5620
(dp5621
g17
VPP
p5622
sbag5
(g6
g7
(lp5623
g2260
atp5624
Rp5625
(dp5626
g17
VPOS
p5627
sbatp5628
Rp5629
(dp5630
g17
VNP
p5631
sbag5
(g6
g7
(lp5632
g5
(g6
g7
(lp5633
V\u005c
p5634
atp5635
Rp5636
(dp5637
g17
VJJ
p5638
sbatp5639
Rp5640
(dp5641
g17
VADJP
p5642
sbag5
(g6
g7
(lp5643
Vudcae
p5644
atp5645
Rp5646
(dp5647
g17
VNN
p5648
sbag5
(g6
g7
(lp5649
g2260
atp5650
Rp5651
(dp5652
g17
V''
p5653
sbatp5654
Rp5655
(dp5656
g17
VNP
p5657
sbatp5658
Rp5659
(dp5660
g17
VPP
p5661
sbatp5662
Rp5663
(dp5664
g17
VPP
p5665
sbatp5666
Rp5667
(dp5668
g17
VSINV
p5669
sbatp5670
Rp5671
(dp5672
g17
VROOT
p5673
sbasg400
(icmyPackage
CorE
p5674
(dp5675
g403
(lp5676
(I0
I22
tp5677
a(I1
I25
tp5678
asg407
g5
(g6
g7
(lp5679
g5204
ag5210
ag5216
ag5431
ag5671
atp5680
Rp5681
(dp5682
g17
g418
sbsbsg408
(icmyPackage
CorE
p5683
(dp5684
g403
(lp5685
(I0
I0
tp5686
a(I0
I20
tp5687
asg407
g5
(g6
g7
(lp5688
g5037
ag5062
ag5069
ag5075
ag5140
ag5145
ag5162
ag5169
ag5176
ag5183
ag5190
atp5689
Rp5690
(dp5691
g17
g418
sbsbsg419
g1389
sg444
(lp5692
(isxpPackage
sxpSent
p5693
(dp5694
g448
(lp5695
I10
asg450
V4 4 The emission distributions are not a proper language models (e.g.,, a bigram may be generated by as many as three draws from the emission distribution once for each unigram it contains and once for the bigram
p5696
sg452
I4
sg434
I51
sg453
I19
sba(isxpPackage
sxpSent
p5697
(dp5698
g448
(lp5699
I10
aI11
asg450
VSample the next state, y t + 1 , according to the transition distribution over u'\u005cud835' u'\u005cudcae'
p5700
sg452
I4
sg434
I52
sg453
I20
sbasba(icmyPackage
CELink
p5701
(dp5702
g3
(lp5703
g5671
asg400
(icmyPackage
CorE
p5704
(dp5705
g403
(lp5706
(I0
I12
tp5707
a(I0
I25
tp5708
asg407
g5655
sbsg408
(icmyPackage
CorE
p5709
(dp5710
g403
(lp5711
(I0
I0
tp5712
a(I0
I8
tp5713
asg407
g5
(g6
g7
(lp5714
g5451
ag5524
atp5715
Rp5716
(dp5717
g17
g418
sbsbsg419
g4409
sg444
(lp5718
g5697
asba(icmyPackage
CELink
p5719
(dp5720
g3
(lp5721
g5
(g6
g7
(lp5722
g5
(g6
g7
(lp5723
g5
(g6
g7
(lp5724
g5
(g6
g7
(lp5725
VIndeed
p5726
atp5727
Rp5728
(dp5729
g17
VRB
p5730
sbatp5731
Rp5732
(dp5733
g17
VADVP
p5734
sbag5
(g6
g7
(lp5735
g84
atp5736
Rp5737
(dp5738
g17
g84
sbag5
(g6
g7
(lp5739
g5
(g6
g7
(lp5740
Vour
p5741
atp5742
Rp5743
(dp5744
g17
VPRP$
p5745
sbag5
(g6
g7
(lp5746
Vmodel
p5747
atp5748
Rp5749
(dp5750
g17
VNN
p5751
sbatp5752
Rp5753
(dp5754
g17
VNP
p5755
sbag5
(g6
g7
(lp5756
g5
(g6
g7
(lp5757
Vdoes
p5758
atp5759
Rp5760
(dp5761
g17
VVBZ
p5762
sbag5
(g6
g7
(lp5763
Vnot
p5764
atp5765
Rp5766
(dp5767
g17
VRB
p5768
sbag5
(g6
g7
(lp5769
g5
(g6
g7
(lp5770
Veven
p5771
atp5772
Rp5773
(dp5774
g17
VRB
p5775
sbatp5776
Rp5777
(dp5778
g17
VADVP
p5779
sbag5
(g6
g7
(lp5780
g5
(g6
g7
(lp5781
Vgenerate
p5782
atp5783
Rp5784
(dp5785
g17
VVB
p5786
sbag5
(g6
g7
(lp5787
g5
(g6
g7
(lp5788
g5
(g6
g7
(lp5789
Vthese
p5790
atp5791
Rp5792
(dp5793
g17
VDT
p5794
sbag5
(g6
g7
(lp5795
Vlengths
p5796
atp5797
Rp5798
(dp5799
g17
VNNS
p5800
sbatp5801
Rp5802
(dp5803
g17
VNP
p5804
sbag5
(g6
g7
(lp5805
g84
atp5806
Rp5807
(dp5808
g17
g84
sbag5
(g6
g7
(lp5809
g5
(g6
g7
(lp5810
Vsince
p5811
atp5812
Rp5813
(dp5814
g17
VIN
p5815
sbag5
(g6
g7
(lp5816
g5
(g6
g7
(lp5817
g5
(g6
g7
(lp5818
g5
(g6
g7
(lp5819
Vdoing
p5820
atp5821
Rp5822
(dp5823
g17
VVBG
p5824
sbag5
(g6
g7
(lp5825
g5
(g6
g7
(lp5826
Vso
p5827
atp5828
Rp5829
(dp5830
g17
VRB
p5831
sbatp5832
Rp5833
(dp5834
g17
VADVP
p5835
sbatp5836
Rp5837
(dp5838
g17
VVP
p5839
sbatp5840
Rp5841
(dp5842
g17
g192
sbag5
(g6
g7
(lp5843
g5
(g6
g7
(lp5844
Vwould
p5845
atp5846
Rp5847
(dp5848
g17
VMD
p5849
sbag5
(g6
g7
(lp5850
g5
(g6
g7
(lp5851
Vforce
p5852
atp5853
Rp5854
(dp5855
g17
VVB
p5856
sbag5
(g6
g7
(lp5857
g5
(g6
g7
(lp5858
Vthe
p5859
atp5860
Rp5861
(dp5862
g17
VDT
p5863
sbag5
(g6
g7
(lp5864
Vstates
p5865
atp5866
Rp5867
(dp5868
g17
VNNS
p5869
sbatp5870
Rp5871
(dp5872
g17
VNP
p5873
sbag5
(g6
g7
(lp5874
g5
(g6
g7
(lp5875
Vto
p5876
atp5877
Rp5878
(dp5879
g17
VTO
p5880
sbag5
(g6
g7
(lp5881
g5
(g6
g7
(lp5882
g5
(g6
g7
(lp5883
g2254
atp5884
Rp5885
(dp5886
g17
VNNP
p5887
sbag5
(g6
g7
(lp5888
g2260
atp5889
Rp5890
(dp5891
g17
VPOS
p5892
sbatp5893
Rp5894
(dp5895
g17
VNP
p5896
sbag5
(g6
g7
(lp5897
V\u005c
p5898
atp5899
Rp5900
(dp5901
g17
VJJ
p5902
sbag5
(g6
g7
(lp5903
Vu201c
p5904
atp5905
Rp5906
(dp5907
g17
VNNS
p5908
sbatp5909
Rp5910
(dp5911
g17
VNP
p5912
sbatp5913
Rp5914
(dp5915
g17
VPP
p5916
sbag5
(g6
g7
(lp5917
g2260
atp5918
Rp5919
(dp5920
g17
V''
p5921
sbag5
(g6
g7
(lp5922
g5
(g6
g7
(lp5923
g5
(g6
g7
(lp5924
Vexplain
p5925
atp5926
Rp5927
(dp5928
g17
VVB
p5929
sbag5
(g6
g7
(lp5930
g5
(g6
g7
(lp5931
g5
(g6
g7
(lp5932
g2254
atp5933
Rp5934
(dp5935
g17
VNNP
p5936
sbag5
(g6
g7
(lp5937
g2260
atp5938
Rp5939
(dp5940
g17
VPOS
p5941
sbatp5942
Rp5943
(dp5944
g17
VNP
p5945
sbag5
(g6
g7
(lp5946
V\u005c
p5947
atp5948
Rp5949
(dp5950
g17
VJJ
p5951
sbag5
(g6
g7
(lp5952
Vu201d
p5953
atp5954
Rp5955
(dp5956
g17
VNNS
p5957
sbatp5958
Rp5959
(dp5960
g17
VNP
p5961
sbatp5962
Rp5963
(dp5964
g17
VVP
p5965
sbatp5966
Rp5967
(dp5968
g17
g192
sbatp5969
Rp5970
(dp5971
g17
VVP
p5972
sbatp5973
Rp5974
(dp5975
g17
VVP
p5976
sbatp5977
Rp5978
(dp5979
g17
g192
sbatp5980
Rp5981
(dp5982
g17
VSBAR
p5983
sbatp5984
Rp5985
(dp5986
g17
VNP
p5987
sbag5
(g6
g7
(lp5988
g2260
atp5989
Rp5990
(dp5991
g17
V''
p5992
sbag5
(g6
g7
(lp5993
g5
(g6
g7
(lp5994
g5
(g6
g7
(lp5995
Vthe
p5996
atp5997
Rp5998
(dp5999
g17
VDT
p6000
sbag5
(g6
g7
(lp6001
Vlength
p6002
atp6003
Rp6004
(dp6005
g17
VNN
p6006
sbatp6007
Rp6008
(dp6009
g17
VNP
p6010
sbag5
(g6
g7
(lp6011
g5
(g6
g7
(lp6012
Vof
p6013
atp6014
Rp6015
(dp6016
g17
VIN
p6017
sbag5
(g6
g7
(lp6018
g5
(g6
g7
(lp6019
g5
(g6
g7
(lp6020
Veach
p6021
atp6022
Rp6023
(dp6024
g17
VDT
p6025
sbag5
(g6
g7
(lp6026
Vsection
p6027
atp6028
Rp6029
(dp6030
g17
VNN
p6031
sbatp6032
Rp6033
(dp6034
g17
VNP
p6035
sbag5
(g6
g7
(lp6036
g84
atp6037
Rp6038
(dp6039
g17
g84
sbag5
(g6
g7
(lp6040
Vnot
p6041
atp6042
Rp6043
(dp6044
g17
VRB
p6045
sbag5
(g6
g7
(lp6046
Vjust
p6047
atp6048
Rp6049
(dp6050
g17
VRB
p6051
sbag5
(g6
g7
(lp6052
g5
(g6
g7
(lp6053
Vits
p6054
atp6055
Rp6056
(dp6057
g17
VPRP$
p6058
sbag5
(g6
g7
(lp6059
Vcontent
p6060
atp6061
Rp6062
(dp6063
g17
VNN
p6064
sbatp6065
Rp6066
(dp6067
g17
VNP
p6068
sbatp6069
Rp6070
(dp6071
g17
VNP
p6072
sbatp6073
Rp6074
(dp6075
g17
VPP
p6076
sbatp6077
Rp6078
(dp6079
g17
VNP
p6080
sbatp6081
Rp6082
(dp6083
g17
VVP
p6084
sbatp6085
Rp6086
(dp6087
g17
VVP
p6088
sbatp6089
Rp6090
(dp6091
g17
g192
sbatp6092
Rp6093
(dp6094
g17
VROOT
p6095
sbasg400
(icmyPackage
CorE
p6096
(dp6097
g403
(lp6098
(I0
I12
tp6099
a(I0
I28
tp6100
asg407
g5978
sbsg408
(icmyPackage
CorE
p6101
(dp6102
g403
(lp6103
(I0
I0
tp6104
a(I0
I9
tp6105
asg407
g5
(g6
g7
(lp6106
g5732
ag5737
ag5753
ag5760
ag5766
ag5777
ag5784
ag5802
atp6107
Rp6108
(dp6109
g17
g418
sbsbsg419
(icmyPackage
pattern
p6110
(dp6111
g422
I23
sg423
I1
sg424
(lp6112
(lp6113
S'since'
p6114
aasg429
(lp6115
I3
aI1
aI1
asg431
(lp6116
S'This is one of the simplest cases since the surface is so thin.'
p6117
aS'He could not answer the question, since he had not made up his mind.'
p6118
aS'That manager has been a basket case here since his wife left him.'
p6119
asg434
I79
sg435
(lp6120
(lp6121
S'&R@NCTime@'
p6122
aS'(,)'
p6123
aa(lp6124
S'&C@NCTime@'
p6125
aasbsg444
(lp6126
(isxpPackage
sxpSent
p6127
(dp6128
g448
(lp6129
I12
asg450
VIndeed, our model does not even generate these lengths, since doing so would force the states to u'\u005cu201c' explain u'\u005cu201d' the length of each section, not just its content
p6130
sg452
I4
sg434
I54
sg453
I21
sbasba(icmyPackage
CELink
p6131
(dp6132
g3
(lp6133
g5
(g6
g7
(lp6134
g5
(g6
g7
(lp6135
g5
(g6
g7
(lp6136
g5
(g6
g7
(lp6137
VDeveloping
p6138
atp6139
Rp6140
(dp6141
g17
VVBG
p6142
sbag5
(g6
g7
(lp6143
g5
(g6
g7
(lp6144
g5
(g6
g7
(lp6145
g267
atp6146
Rp6147
(dp6148
g17
VDT
p6149
sbag5
(g6
g7
(lp6150
Vgold-standard
p6151
atp6152
Rp6153
(dp6154
g17
VJJ
p6155
sbag5
(g6
g7
(lp6156
Valignment
p6157
atp6158
Rp6159
(dp6160
g17
VNN
p6161
sbatp6162
Rp6163
(dp6164
g17
VNP
p6165
sbag5
(g6
g7
(lp6166
g5
(g6
g7
(lp6167
Vof
p6168
atp6169
Rp6170
(dp6171
g17
VIN
p6172
sbag5
(g6
g7
(lp6173
g5
(g6
g7
(lp6174
Vprivacy
p6175
atp6176
Rp6177
(dp6178
g17
VNN
p6179
sbag5
(g6
g7
(lp6180
Vpolicies
p6181
atp6182
Rp6183
(dp6184
g17
VNNS
p6185
sbatp6186
Rp6187
(dp6188
g17
VNP
p6189
sbatp6190
Rp6191
(dp6192
g17
VPP
p6193
sbatp6194
Rp6195
(dp6196
g17
VNP
p6197
sbatp6198
Rp6199
(dp6200
g17
VVP
p6201
sbag5
(g6
g7
(lp6202
g5
(g6
g7
(lp6203
Vwould
p6204
atp6205
Rp6206
(dp6207
g17
VMD
p6208
sbag5
(g6
g7
(lp6209
Veither
p6210
atp6211
Rp6212
(dp6213
g17
VRB
p6214
sbag5
(g6
g7
(lp6215
g5
(g6
g7
(lp6216
Vrequire
p6217
atp6218
Rp6219
(dp6220
g17
VVB
p6221
sbatp6222
Rp6223
(dp6224
g17
VVP
p6225
sbatp6226
Rp6227
(dp6228
g17
VVP
p6229
sbag5
(g6
g7
(lp6230
g5
(g6
g7
(lp6231
g5
(g6
g7
(lp6232
g5
(g6
g7
(lp6233
Van
p6234
atp6235
Rp6236
(dp6237
g17
VDT
p6238
sbag5
(g6
g7
(lp6239
Vinterface
p6240
atp6241
Rp6242
(dp6243
g17
VNN
p6244
sbatp6245
Rp6246
(dp6247
g17
VNP
p6248
sbag5
(g6
g7
(lp6249
g5
(g6
g7
(lp6250
g5
(g6
g7
(lp6251
Vthat
p6252
atp6253
Rp6254
(dp6255
g17
VWDT
p6256
sbatp6257
Rp6258
(dp6259
g17
VWHNP
p6260
sbag5
(g6
g7
(lp6261
g5
(g6
g7
(lp6262
g5
(g6
g7
(lp6263
Vallows
p6264
atp6265
Rp6266
(dp6267
g17
VVBZ
p6268
sbag5
(g6
g7
(lp6269
g5
(g6
g7
(lp6270
Veach
p6271
atp6272
Rp6273
(dp6274
g17
VDT
p6275
sbag5
(g6
g7
(lp6276
Vannotator
p6277
atp6278
Rp6279
(dp6280
g17
VNN
p6281
sbag5
(g6
g7
(lp6282
g5
(g6
g7
(lp6283
g5
(g6
g7
(lp6284
Vto
p6285
atp6286
Rp6287
(dp6288
g17
VTO
p6289
sbag5
(g6
g7
(lp6290
g5
(g6
g7
(lp6291
Vinteract
p6292
atp6293
Rp6294
(dp6295
g17
VVB
p6296
sbag5
(g6
g7
(lp6297
g5
(g6
g7
(lp6298
Vwith
p6299
atp6300
Rp6301
(dp6302
g17
VIN
p6303
sbag5
(g6
g7
(lp6304
g5
(g6
g7
(lp6305
g5
(g6
g7
(lp6306
Vthe
p6307
atp6308
Rp6309
(dp6310
g17
VDT
p6311
sbag5
(g6
g7
(lp6312
Ventire
p6313
atp6314
Rp6315
(dp6316
g17
VJJ
p6317
sbag5
(g6
g7
(lp6318
Vcorpus
p6319
atp6320
Rp6321
(dp6322
g17
VNN
p6323
sbatp6324
Rp6325
(dp6326
g17
VNP
p6327
sbag5
(g6
g7
(lp6328
g5
(g6
g7
(lp6329
Vof
p6330
atp6331
Rp6332
(dp6333
g17
VIN
p6334
sbag5
(g6
g7
(lp6335
g5
(g6
g7
(lp6336
g5
(g6
g7
(lp6337
Vpreviously
p6338
atp6339
Rp6340
(dp6341
g17
VRB
p6342
sbag5
(g6
g7
(lp6343
Valigned
p6344
atp6345
Rp6346
(dp6347
g17
VJJ
p6348
sbatp6349
Rp6350
(dp6351
g17
VADJP
p6352
sbag5
(g6
g7
(lp6353
Vdocuments
p6354
atp6355
Rp6356
(dp6357
g17
VNNS
p6358
sbatp6359
Rp6360
(dp6361
g17
VNP
p6362
sbatp6363
Rp6364
(dp6365
g17
VPP
p6366
sbatp6367
Rp6368
(dp6369
g17
VNP
p6370
sbatp6371
Rp6372
(dp6373
g17
VPP
p6374
sbag5
(g6
g7
(lp6375
g5
(g6
g7
(lp6376
Vwhile
p6377
atp6378
Rp6379
(dp6380
g17
VIN
p6381
sbag5
(g6
g7
(lp6382
g5
(g6
g7
(lp6383
g5
(g6
g7
(lp6384
g5
(g6
g7
(lp6385
Vreading
p6386
atp6387
Rp6388
(dp6389
g17
VVBG
p6390
sbag5
(g6
g7
(lp6391
g5
(g6
g7
(lp6392
g5
(g6
g7
(lp6393
Vthe
p6394
atp6395
Rp6396
(dp6397
g17
VDT
p6398
sbag5
(g6
g7
(lp6399
Vone
p6400
atp6401
Rp6402
(dp6403
g17
VNN
p6404
sbatp6405
Rp6406
(dp6407
g17
VNP
p6408
sbag5
(g6
g7
(lp6409
g5
(g6
g7
(lp6410
Vshe
p6411
atp6412
Rp6413
(dp6414
g17
VPRP
p6415
sbatp6416
Rp6417
(dp6418
g17
VNP
p6419
sbatp6420
Rp6421
(dp6422
g17
g192
sbatp6423
Rp6424
(dp6425
g17
VVP
p6426
sbatp6427
Rp6428
(dp6429
g17
g192
sbag5
(g6
g7
(lp6430
g5
(g6
g7
(lp6431
Vis
p6432
atp6433
Rp6434
(dp6435
g17
VVBZ
p6436
sbag5
(g6
g7
(lp6437
g5
(g6
g7
(lp6438
Vannotating
p6439
atp6440
Rp6441
(dp6442
g17
VVBG
p6443
sbatp6444
Rp6445
(dp6446
g17
VVP
p6447
sbatp6448
Rp6449
(dp6450
g17
VVP
p6451
sbatp6452
Rp6453
(dp6454
g17
g192
sbatp6455
Rp6456
(dp6457
g17
VSBAR
p6458
sbatp6459
Rp6460
(dp6461
g17
VVP
p6462
sbatp6463
Rp6464
(dp6465
g17
VVP
p6466
sbatp6467
Rp6468
(dp6469
g17
g192
sbatp6470
Rp6471
(dp6472
g17
VNP
p6473
sbatp6474
Rp6475
(dp6476
g17
VVP
p6477
sbatp6478
Rp6479
(dp6480
g17
g192
sbatp6481
Rp6482
(dp6483
g17
VSBAR
p6484
sbatp6485
Rp6486
(dp6487
g17
VNP
p6488
sbag5
(g6
g7
(lp6489
g84
atp6490
Rp6491
(dp6492
g17
g84
sbag5
(g6
g7
(lp6493
Vor
p6494
atp6495
Rp6496
(dp6497
g17
VCC
p6498
sbag5
(g6
g7
(lp6499
g5
(g6
g7
(lp6500
g5
(g6
g7
(lp6501
g5
(g6
g7
(lp6502
Vthe
p6503
atp6504
Rp6505
(dp6506
g17
VDT
p6507
sbag5
(g6
g7
(lp6508
Vdefinition
p6509
atp6510
Rp6511
(dp6512
g17
VNN
p6513
sbatp6514
Rp6515
(dp6516
g17
VNP
p6517
sbag5
(g6
g7
(lp6518
g5
(g6
g7
(lp6519
V-LRB-
p6520
atp6521
Rp6522
(dp6523
g17
V-LRB-
p6524
sbag5
(g6
g7
(lp6525
Vand
p6526
atp6527
Rp6528
(dp6529
g17
VCC
p6530
sbag5
(g6
g7
(lp6531
g5
(g6
g7
(lp6532
Vlikely
p6533
atp6534
Rp6535
(dp6536
g17
VRB
p6537
sbatp6538
Rp6539
(dp6540
g17
VADVP
p6541
sbag5
(g6
g7
(lp6542
g5
(g6
g7
(lp6543
Viterative
p6544
atp6545
Rp6546
(dp6547
g17
VJJ
p6548
sbag5
(g6
g7
(lp6549
Vrefinement
p6550
atp6551
Rp6552
(dp6553
g17
VNN
p6554
sbatp6555
Rp6556
(dp6557
g17
VNP
p6558
sbag5
(g6
g7
(lp6559
V-RRB-
p6560
atp6561
Rp6562
(dp6563
g17
V-RRB-
p6564
sbatp6565
Rp6566
(dp6567
g17
VPRN
p6568
sbatp6569
Rp6570
(dp6571
g17
VNP
p6572
sbag5
(g6
g7
(lp6573
g5
(g6
g7
(lp6574
Vof
p6575
atp6576
Rp6577
(dp6578
g17
VIN
p6579
sbag5
(g6
g7
(lp6580
g5
(g6
g7
(lp6581
g5
(g6
g7
(lp6582
g267
atp6583
Rp6584
(dp6585
g17
VDT
p6586
sbag5
(g6
g7
(lp6587
Vset
p6588
atp6589
Rp6590
(dp6591
g17
VNN
p6592
sbatp6593
Rp6594
(dp6595
g17
VNP
p6596
sbag5
(g6
g7
(lp6597
g5
(g6
g7
(lp6598
Vof
p6599
atp6600
Rp6601
(dp6602
g17
VIN
p6603
sbag5
(g6
g7
(lp6604
g5
(g6
g7
(lp6605
g5
(g6
g7
(lp6606
Vcategories
p6607
atp6608
Rp6609
(dp6610
g17
VNNS
p6611
sbatp6612
Rp6613
(dp6614
g17
VNP
p6615
sbag5
(g6
g7
(lp6616
g5
(g6
g7
(lp6617
Vfor
p6618
atp6619
Rp6620
(dp6621
g17
VIN
p6622
sbag5
(g6
g7
(lp6623
g5
(g6
g7
(lp6624
g5
(g6
g7
(lp6625
g5
(g6
g7
(lp6626
Vmanually
p6627
atp6628
Rp6629
(dp6630
g17
VRB
p6631
sbatp6632
Rp6633
(dp6634
g17
VADVP
p6635
sbag5
(g6
g7
(lp6636
Vlabeling
p6637
atp6638
Rp6639
(dp6640
g17
VVBG
p6641
sbag5
(g6
g7
(lp6642
g5
(g6
g7
(lp6643
Vpolicy
p6644
atp6645
Rp6646
(dp6647
g17
VNN
p6648
sbag5
(g6
g7
(lp6649
Vsections
p6650
atp6651
Rp6652
(dp6653
g17
VNNS
p6654
sbatp6655
Rp6656
(dp6657
g17
VNP
p6658
sbatp6659
Rp6660
(dp6661
g17
VVP
p6662
sbatp6663
Rp6664
(dp6665
g17
g192
sbatp6666
Rp6667
(dp6668
g17
VPP
p6669
sbatp6670
Rp6671
(dp6672
g17
VNP
p6673
sbatp6674
Rp6675
(dp6676
g17
VPP
p6677
sbatp6678
Rp6679
(dp6680
g17
VNP
p6681
sbatp6682
Rp6683
(dp6684
g17
VPP
p6685
sbatp6686
Rp6687
(dp6688
g17
VNP
p6689
sbatp6690
Rp6691
(dp6692
g17
VNP
p6693
sbatp6694
Rp6695
(dp6696
g17
VSINV
p6697
sbatp6698
Rp6699
(dp6700
g17
VROOT
p6701
sbasg400
(icmyPackage
CorE
p6702
(dp6703
g403
(lp6704
(I0
I0
tp6705
a(I0
I6
tp6706
asg407
g6199
sbsg408
(icmyPackage
CorE
p6707
(dp6708
g403
(lp6709
(I0
I7
tp6710
a(I0
I52
tp6711
asg407
g5
(g6
g7
(lp6712
g6227
ag6691
atp6713
Rp6714
(dp6715
g17
g418
sbsbsg419
(icmyPackage
pattern
p6716
(dp6717
g422
I30
sg423
I0
sg424
(lp6718
sg429
(lp6719
I3
aI2
aI1
asg431
(lp6720
S'Being over here we tend to be a bit isolated.'
p6721
aS'Not being sure of the word, he turned it up in the dictionary.'
p6722
asg434
I81
sg435
(lp6723
(lp6724
S'&V-ing@C@'
p6725
aS'(,)'
p6726
aS'&R@Complete@'
p6727
aasbsg444
(lp6728
(isxpPackage
sxpSent
p6729
(dp6730
g448
(lp6731
I13
aI14
asg450
VDeveloping a gold-standard alignment of privacy policies would either require an interface that allows each annotator to interact with the entire corpus of previously aligned documents while reading the one she is annotating, or the definition (and likely iterative refinement) of a set of categories for manually labeling policy sections
p6732
sg452
I5
sg434
I61
sg453
I24
sbasba(icmyPackage
CELink
p6733
(dp6734
g3
(lp6735
g6714
asg400
(icmyPackage
CorE
p6736
(dp6737
g403
(lp6738
(I0
I42
tp6739
a(I0
I45
tp6740
asg407
g6664
sbsg408
(icmyPackage
CorE
p6741
(dp6742
g403
(lp6743
(I0
I0
tp6744
a(I0
I40
tp6745
asg407
g5
(g6
g7
(lp6746
g6227
ag6486
ag6491
ag6496
ag6570
ag6577
ag6594
ag6601
ag6613
atp6747
Rp6748
(dp6749
g17
g418
sbsbsg419
(icmyPackage
pattern
p6750
(dp6751
g422
I25
sg423
I0
sg424
(lp6752
(lp6753
S'for'
p6754
aasg429
(lp6755
I2
aI1
aI1
asg431
(lp6756
S'She was angry with him for being late.'
p6757
asg434
I44
sg435
(lp6758
(lp6759
S'&R'
p6760
aa(lp6761
S'&V-ing@C@'
p6762
aasbsg444
(lp6763
g6729
asba(icmyPackage
CELink
p6764
(dp6765
g3
(lp6766
g5
(g6
g7
(lp6767
g5
(g6
g7
(lp6768
g5
(g6
g7
(lp6769
g5
(g6
g7
(lp6770
VThese
p6771
atp6772
Rp6773
(dp6774
g17
VDT
p6775
sbatp6776
Rp6777
(dp6778
g17
VNP
p6779
sbag5
(g6
g7
(lp6780
g5
(g6
g7
(lp6781
Vwere
p6782
atp6783
Rp6784
(dp6785
g17
VVBD
p6786
sbag5
(g6
g7
(lp6787
g5
(g6
g7
(lp6788
Vtoo
p6789
atp6790
Rp6791
(dp6792
g17
VRB
p6793
sbag5
(g6
g7
(lp6794
Vcostly
p6795
atp6796
Rp6797
(dp6798
g17
VJJ
p6799
sbatp6800
Rp6801
(dp6802
g17
VADJP
p6803
sbag5
(g6
g7
(lp6804
g5
(g6
g7
(lp6805
Vfor
p6806
atp6807
Rp6808
(dp6809
g17
VIN
p6810
sbag5
(g6
g7
(lp6811
g5
(g6
g7
(lp6812
Vus
p6813
atp6814
Rp6815
(dp6816
g17
VPRP
p6817
sbatp6818
Rp6819
(dp6820
g17
VNP
p6821
sbatp6822
Rp6823
(dp6824
g17
VPP
p6825
sbag5
(g6
g7
(lp6826
g5
(g6
g7
(lp6827
g5
(g6
g7
(lp6828
Vto
p6829
atp6830
Rp6831
(dp6832
g17
VTO
p6833
sbag5
(g6
g7
(lp6834
g5
(g6
g7
(lp6835
Vconsider
p6836
atp6837
Rp6838
(dp6839
g17
VVB
p6840
sbatp6841
Rp6842
(dp6843
g17
VVP
p6844
sbatp6845
Rp6846
(dp6847
g17
VVP
p6848
sbatp6849
Rp6850
(dp6851
g17
g192
sbag5
(g6
g7
(lp6852
g84
atp6853
Rp6854
(dp6855
g17
g84
sbag5
(g6
g7
(lp6856
g5
(g6
g7
(lp6857
Vso
p6858
atp6859
Rp6860
(dp6861
g17
VIN
p6862
sbag5
(g6
g7
(lp6863
g5
(g6
g7
(lp6864
g5
(g6
g7
(lp6865
Vwe
p6866
atp6867
Rp6868
(dp6869
g17
VPRP
p6870
sbatp6871
Rp6872
(dp6873
g17
VNP
p6874
sbag5
(g6
g7
(lp6875
g5
(g6
g7
(lp6876
Vinstead
p6877
atp6878
Rp6879
(dp6880
g17
VRB
p6881
sbatp6882
Rp6883
(dp6884
g17
VADVP
p6885
sbag5
(g6
g7
(lp6886
g5
(g6
g7
(lp6887
Vpropose
p6888
atp6889
Rp6890
(dp6891
g17
VVBP
p6892
sbag5
(g6
g7
(lp6893
g5
(g6
g7
(lp6894
Vtwo
p6895
atp6896
Rp6897
(dp6898
g17
VCD
p6899
sbag5
(g6
g7
(lp6900
Vgeneric
p6901
atp6902
Rp6903
(dp6904
g17
VJJ
p6905
sbag5
(g6
g7
(lp6906
Vmethods
p6907
atp6908
Rp6909
(dp6910
g17
VNNS
p6911
sbatp6912
Rp6913
(dp6914
g17
VNP
p6915
sbag5
(g6
g7
(lp6916
g5
(g6
g7
(lp6917
g5
(g6
g7
(lp6918
Vto
p6919
atp6920
Rp6921
(dp6922
g17
VTO
p6923
sbag5
(g6
g7
(lp6924
g5
(g6
g7
(lp6925
Vevaluate
p6926
atp6927
Rp6928
(dp6929
g17
VVB
p6930
sbag5
(g6
g7
(lp6931
g5
(g6
g7
(lp6932
Vmodels
p6933
atp6934
Rp6935
(dp6936
g17
VNNS
p6937
sbatp6938
Rp6939
(dp6940
g17
VNP
p6941
sbag5
(g6
g7
(lp6942
g5
(g6
g7
(lp6943
Vfor
p6944
atp6945
Rp6946
(dp6947
g17
VIN
p6948
sbag5
(g6
g7
(lp6949
g5
(g6
g7
(lp6950
g5
(g6
g7
(lp6951
Vsequence
p6952
atp6953
Rp6954
(dp6955
g17
VNN
p6956
sbag5
(g6
g7
(lp6957
Valignment
p6958
atp6959
Rp6960
(dp6961
g17
VNN
p6962
sbatp6963
Rp6964
(dp6965
g17
VNP
p6966
sbag5
(g6
g7
(lp6967
g5
(g6
g7
(lp6968
Vof
p6969
atp6970
Rp6971
(dp6972
g17
VIN
p6973
sbag5
(g6
g7
(lp6974
g5
(g6
g7
(lp6975
g5
(g6
g7
(lp6976
g267
atp6977
Rp6978
(dp6979
g17
VDT
p6980
sbag5
(g6
g7
(lp6981
Vcollection
p6982
atp6983
Rp6984
(dp6985
g17
VNN
p6986
sbatp6987
Rp6988
(dp6989
g17
VNP
p6990
sbag5
(g6
g7
(lp6991
g5
(g6
g7
(lp6992
Vof
p6993
atp6994
Rp6995
(dp6996
g17
VIN
p6997
sbag5
(g6
g7
(lp6998
g5
(g6
g7
(lp6999
g5
(g6
g7
(lp7000
Vdocuments
p7001
atp7002
Rp7003
(dp7004
g17
VNNS
p7005
sbatp7006
Rp7007
(dp7008
g17
VNP
p7009
sbag5
(g6
g7
(lp7010
g5
(g6
g7
(lp7011
Vwith
p7012
atp7013
Rp7014
(dp7015
g17
VIN
p7016
sbag5
(g6
g7
(lp7017
g5
(g6
g7
(lp7018
g5
(g6
g7
(lp7019
Vgenerally
p7020
atp7021
Rp7022
(dp7023
g17
VRB
p7024
sbag5
(g6
g7
(lp7025
Vsimilar
p7026
atp7027
Rp7028
(dp7029
g17
VJJ
p7030
sbatp7031
Rp7032
(dp7033
g17
VADJP
p7034
sbag5
(g6
g7
(lp7035
Vcontent
p7036
atp7037
Rp7038
(dp7039
g17
VNN
p7040
sbatp7041
Rp7042
(dp7043
g17
VNP
p7044
sbatp7045
Rp7046
(dp7047
g17
VPP
p7048
sbatp7049
Rp7050
(dp7051
g17
VNP
p7052
sbatp7053
Rp7054
(dp7055
g17
VPP
p7056
sbatp7057
Rp7058
(dp7059
g17
VNP
p7060
sbatp7061
Rp7062
(dp7063
g17
VPP
p7064
sbatp7065
Rp7066
(dp7067
g17
VNP
p7068
sbatp7069
Rp7070
(dp7071
g17
VPP
p7072
sbatp7073
Rp7074
(dp7075
g17
VVP
p7076
sbatp7077
Rp7078
(dp7079
g17
VVP
p7080
sbatp7081
Rp7082
(dp7083
g17
g192
sbatp7084
Rp7085
(dp7086
g17
VVP
p7087
sbatp7088
Rp7089
(dp7090
g17
g192
sbatp7091
Rp7092
(dp7093
g17
VSBAR
p7094
sbatp7095
Rp7096
(dp7097
g17
VVP
p7098
sbatp7099
Rp7100
(dp7101
g17
g192
sbatp7102
Rp7103
(dp7104
g17
VROOT
p7105
sbasg400
(icmyPackage
CorE
p7106
(dp7107
g403
(lp7108
(I0
I0
tp7109
a(I0
I7
tp7110
asg407
g5
(g6
g7
(lp7111
g6777
ag6784
ag6801
ag6823
ag6850
atp7112
Rp7113
(dp7114
g17
g418
sbsbsg408
(icmyPackage
CorE
p7115
(dp7116
g403
(lp7117
(I0
I10
tp7118
a(I0
I30
tp7119
asg407
g7089
sbsg419
(icmyPackage
pattern
p7120
(dp7121
g422
I265
sg423
I1
sg424
(lp7122
(lp7123
S'so'
p7124
aasg429
(lp7125
I1
aI1
aI1
asg431
(lp7126
S'It was not long before he saw me looking at him, and so he began to move.'
p7127
asg434
I0
sg435
(lp7128
(lp7129
S'&C'
p7130
aS'(,/;/./--)'
p7131
aS'(&AND)'
p7132
aa(lp7133
S'(-far)'
p7134
aS'(,)'
p7135
aS'&R'
p7136
aasbsg444
(lp7137
(isxpPackage
sxpSent
p7138
(dp7139
g448
(lp7140
I15
asg450
VThese were too costly for us to consider, so we instead propose two generic methods to evaluate models for sequence alignment of a collection of documents with generally similar content
p7141
sg452
I5
sg434
I62
sg453
I24
sbasba(icmyPackage
CELink
p7142
(dp7143
g3
(lp7144
g5
(g6
g7
(lp7145
g5
(g6
g7
(lp7146
g5
(g6
g7
(lp7147
g5
(g6
g7
(lp7148
VThough
p7149
atp7150
Rp7151
(dp7152
g17
VIN
p7153
sbag5
(g6
g7
(lp7154
g5
(g6
g7
(lp7155
g5
(g6
g7
(lp7156
g5
(g6
g7
(lp7157
Vour
p7158
atp7159
Rp7160
(dp7161
g17
VPRP$
p7162
sbag5
(g6
g7
(lp7163
Vmodel
p7164
atp7165
Rp7166
(dp7167
g17
VNN
p7168
sbatp7169
Rp7170
(dp7171
g17
VNP
p7172
sbag5
(g6
g7
(lp7173
g5
(g6
g7
(lp7174
V-LRB-
p7175
atp7176
Rp7177
(dp7178
g17
V-LRB-
p7179
sbag5
(g6
g7
(lp7180
g5
(g6
g7
(lp7181
Vparticularly
p7182
atp7183
Rp7184
(dp7185
g17
VRB
p7186
sbatp7187
Rp7188
(dp7189
g17
VADVP
p7190
sbag5
(g6
g7
(lp7191
g5
(g6
g7
(lp7192
Vthe
p7193
atp7194
Rp7195
(dp7196
g17
VDT
p7197
sbag5
(g6
g7
(lp7198
Vrestricted
p7199
atp7200
Rp7201
(dp7202
g17
VJJ
p7203
sbag5
(g6
g7
(lp7204
Vvariants
p7205
atp7206
Rp7207
(dp7208
g17
VNNS
p7209
sbatp7210
Rp7211
(dp7212
g17
VNP
p7213
sbag5
(g6
g7
(lp7214
V-RRB-
p7215
atp7216
Rp7217
(dp7218
g17
V-RRB-
p7219
sbatp7220
Rp7221
(dp7222
g17
VPRN
p7223
sbatp7224
Rp7225
(dp7226
g17
VNP
p7227
sbag5
(g6
g7
(lp7228
g5
(g6
g7
(lp7229
Vtreats
p7230
atp7231
Rp7232
(dp7233
g17
VVBZ
p7234
sbag5
(g6
g7
(lp7235
g5
(g6
g7
(lp7236
Vthe
p7237
atp7238
Rp7239
(dp7240
g17
VDT
p7241
sbag5
(g6
g7
(lp7242
Vproblem
p7243
atp7244
Rp7245
(dp7246
g17
VNN
p7247
sbatp7248
Rp7249
(dp7250
g17
VNP
p7251
sbag5
(g6
g7
(lp7252
g5
(g6
g7
(lp7253
Vas
p7254
atp7255
Rp7256
(dp7257
g17
VIN
p7258
sbag5
(g6
g7
(lp7259
g5
(g6
g7
(lp7260
g5
(g6
g7
(lp7261
Vone
p7262
atp7263
Rp7264
(dp7265
g17
VCD
p7266
sbatp7267
Rp7268
(dp7269
g17
VNP
p7270
sbag5
(g6
g7
(lp7271
g5
(g6
g7
(lp7272
Vof
p7273
atp7274
Rp7275
(dp7276
g17
VIN
p7277
sbag5
(g6
g7
(lp7278
g5
(g6
g7
(lp7279
Valignment
p7280
atp7281
Rp7282
(dp7283
g17
VNN
p7284
sbatp7285
Rp7286
(dp7287
g17
VNP
p7288
sbatp7289
Rp7290
(dp7291
g17
VPP
p7292
sbatp7293
Rp7294
(dp7295
g17
VNP
p7296
sbatp7297
Rp7298
(dp7299
g17
VPP
p7300
sbatp7301
Rp7302
(dp7303
g17
VVP
p7304
sbatp7305
Rp7306
(dp7307
g17
g192
sbatp7308
Rp7309
(dp7310
g17
VSBAR
p7311
sbag5
(g6
g7
(lp7312
g84
atp7313
Rp7314
(dp7315
g17
g84
sbag5
(g6
g7
(lp7316
g5
(g6
g7
(lp7317
Vour
p7318
atp7319
Rp7320
(dp7321
g17
VPRP$
p7322
sbag5
(g6
g7
(lp7323
Vevaluations
p7324
atp7325
Rp7326
(dp7327
g17
VNNS
p7328
sbatp7329
Rp7330
(dp7331
g17
VNP
p7332
sbag5
(g6
g7
(lp7333
g5
(g6
g7
(lp7334
Vconsider
p7335
atp7336
Rp7337
(dp7338
g17
VVBP
p7339
sbag5
(g6
g7
(lp7340
g5
(g6
g7
(lp7341
g5
(g6
g7
(lp7342
Vgroupings
p7343
atp7344
Rp7345
(dp7346
g17
VNNS
p7347
sbatp7348
Rp7349
(dp7350
g17
VNP
p7351
sbag5
(g6
g7
(lp7352
g5
(g6
g7
(lp7353
Vof
p7354
atp7355
Rp7356
(dp7357
g17
VIN
p7358
sbag5
(g6
g7
(lp7359
g5
(g6
g7
(lp7360
Vpolicy
p7361
atp7362
Rp7363
(dp7364
g17
VNN
p7365
sbag5
(g6
g7
(lp7366
Vsections
p7367
atp7368
Rp7369
(dp7370
g17
VNNS
p7371
sbatp7372
Rp7373
(dp7374
g17
VNP
p7375
sbatp7376
Rp7377
(dp7378
g17
VPP
p7379
sbatp7380
Rp7381
(dp7382
g17
VNP
p7383
sbatp7384
Rp7385
(dp7386
g17
VVP
p7387
sbatp7388
Rp7389
(dp7390
g17
g192
sbatp7391
Rp7392
(dp7393
g17
VROOT
p7394
sbasg400
(icmyPackage
CorE
p7395
(dp7396
g403
(lp7397
(I0
I13
tp7398
a(I0
I23
tp7399
asg407
g5
(g6
g7
(lp7400
g7294
ag7314
ag7330
ag7385
atp7401
Rp7402
(dp7403
g17
g418
sbsbsg408
(icmyPackage
CorE
p7404
(dp7405
g403
(lp7406
(I0
I1
tp7407
a(I0
I11
tp7408
asg407
g5
(g6
g7
(lp7409
g7225
ag7232
ag7249
atp7410
Rp7411
(dp7412
g17
g418
sbsbsg419
g1389
sg444
(lp7413
(isxpPackage
sxpSent
p7414
(dp7415
g448
(lp7416
I16
asg450
VThough our model (particularly the restricted variants) treats the problem as one of alignment , our evaluations consider groupings of policy sections
p7417
sg452
I5
sg434
I63
sg453
I24
sbasba(icmyPackage
CELink
p7418
(dp7419
g3
(lp7420
g5
(g6
g7
(lp7421
g5
(g6
g7
(lp7422
g5
(g6
g7
(lp7423
g5
(g6
g7
(lp7424
g5
(g6
g7
(lp7425
VIn
p7426
atp7427
Rp7428
(dp7429
g17
VIN
p7430
sbag5
(g6
g7
(lp7431
g5
(g6
g7
(lp7432
Vthe
p7433
atp7434
Rp7435
(dp7436
g17
VDT
p7437
sbag5
(g6
g7
(lp7438
Vsequel
p7439
atp7440
Rp7441
(dp7442
g17
VNN
p7443
sbatp7444
Rp7445
(dp7446
g17
VNP
p7447
sbatp7448
Rp7449
(dp7450
g17
VPP
p7451
sbag5
(g6
g7
(lp7452
g84
atp7453
Rp7454
(dp7455
g17
g84
sbag5
(g6
g7
(lp7456
g5
(g6
g7
(lp7457
g5
(g6
g7
(lp7458
g267
atp7459
Rp7460
(dp7461
g17
VDT
p7462
sbag5
(g6
g7
(lp7463
Vgrouping
p7464
atp7465
Rp7466
(dp7467
g17
VNN
p7468
sbatp7469
Rp7470
(dp7471
g17
VNP
p7472
sbag5
(g6
g7
(lp7473
g5
(g6
g7
(lp7474
Von
p7475
atp7476
Rp7477
(dp7478
g17
VIN
p7479
sbag5
(g6
g7
(lp7480
g5
(g6
g7
(lp7481
g267
atp7482
Rp7483
(dp7484
g17
VDT
p7485
sbag5
(g6
g7
(lp7486
Vset
p7487
atp7488
Rp7489
(dp7490
g17
VVBN
p7491
sbag5
(g6
g7
(lp7492
VX
p7493
atp7494
Rp7495
(dp7496
g17
VNNP
p7497
sbatp7498
Rp7499
(dp7500
g17
VNP
p7501
sbatp7502
Rp7503
(dp7504
g17
VPP
p7505
sbatp7506
Rp7507
(dp7508
g17
VNP
p7509
sbag5
(g6
g7
(lp7510
g5
(g6
g7
(lp7511
Vis
p7512
atp7513
Rp7514
(dp7515
g17
VVBZ
p7516
sbag5
(g6
g7
(lp7517
g5
(g6
g7
(lp7518
Vdefined
p7519
atp7520
Rp7521
(dp7522
g17
VVBN
p7523
sbag5
(g6
g7
(lp7524
g5
(g6
g7
(lp7525
Vas
p7526
atp7527
Rp7528
(dp7529
g17
VIN
p7530
sbag5
(g6
g7
(lp7531
g5
(g6
g7
(lp7532
g5
(g6
g7
(lp7533
g267
atp7534
Rp7535
(dp7536
g17
VDT
p7537
sbag5
(g6
g7
(lp7538
Vcollection
p7539
atp7540
Rp7541
(dp7542
g17
VNN
p7543
sbatp7544
Rp7545
(dp7546
g17
VNP
p7547
sbag5
(g6
g7
(lp7548
g5
(g6
g7
(lp7549
Vof
p7550
atp7551
Rp7552
(dp7553
g17
VIN
p7554
sbag5
(g6
g7
(lp7555
g5
(g6
g7
(lp7556
g5
(g6
g7
(lp7557
Vsubsets
p7558
atp7559
Rp7560
(dp7561
g17
VNNP
p7562
sbag5
(g6
g7
(lp7563
g7493
atp7564
Rp7565
(dp7566
g17
VNNP
p7567
sbag5
(g6
g7
(lp7568
g1720
atp7569
Rp7570
(dp7571
g17
VNNP
p7572
sbag5
(g6
g7
(lp7573
g2254
atp7574
Rp7575
(dp7576
g17
VNN
p7577
sbag5
(g6
g7
(lp7578
g2260
atp7579
Rp7580
(dp7581
g17
VPOS
p7582
sbatp7583
Rp7584
(dp7585
g17
VNP
p7586
sbag5
(g6
g7
(lp7587
g5
(g6
g7
(lp7588
V\u005c
p7589
atp7590
Rp7591
(dp7592
g17
VNNP
p7593
sbag5
(g6
g7
(lp7594
Vu2286
p7595
atp7596
Rp7597
(dp7598
g17
VNNP
p7599
sbag5
(g6
g7
(lp7600
g2260
atp7601
Rp7602
(dp7603
g17
VPOS
p7604
sbatp7605
Rp7606
(dp7607
g17
VNP
p7608
sbag5
(g6
g7
(lp7609
g7493
atp7610
Rp7611
(dp7612
g17
VNNP
p7613
sbatp7614
Rp7615
(dp7616
g17
VNP
p7617
sbatp7618
Rp7619
(dp7620
g17
VPP
p7621
sbatp7622
Rp7623
(dp7624
g17
VNP
p7625
sbatp7626
Rp7627
(dp7628
g17
VPP
p7629
sbatp7630
Rp7631
(dp7632
g17
VVP
p7633
sbatp7634
Rp7635
(dp7636
g17
VVP
p7637
sbatp7638
Rp7639
(dp7640
g17
g192
sbag5
(g6
g7
(lp7641
g2393
atp7642
Rp7643
(dp7644
g17
g2397
sbag5
(g6
g7
(lp7645
g5
(g6
g7
(lp7646
g5
(g6
g7
(lp7647
g5
(g6
g7
(lp7648
Vthese
p7649
atp7650
Rp7651
(dp7652
g17
VDT
p7653
sbatp7654
Rp7655
(dp7656
g17
VNP
p7657
sbag5
(g6
g7
(lp7658
g5
(g6
g7
(lp7659
g5
(g6
g7
(lp7660
Vmay
p7661
atp7662
Rp7663
(dp7664
g17
VMD
p7665
sbag5
(g6
g7
(lp7666
g5
(g6
g7
(lp7667
Voverlap
p7668
atp7669
Rp7670
(dp7671
g17
VVBP
p7672
sbag5
(g6
g7
(lp7673
g5
(g6
g7
(lp7674
V-LRB-
p7675
atp7676
Rp7677
(dp7678
g17
V-LRB-
p7679
sbag5
(g6
g7
(lp7680
g5
(g6
g7
(lp7681
Vi.e.
p7682
atp7683
Rp7684
(dp7685
g17
VVBN
p7686
sbag5
(g6
g7
(lp7687
g5
(g6
g7
(lp7688
g84
atp7689
Rp7690
(dp7691
g17
g84
sbag5
(g6
g7
(lp7692
g5
(g6
g7
(lp7693
g84
atp7694
Rp7695
(dp7696
g17
g84
sbag5
(g6
g7
(lp7697
g5
(g6
g7
(lp7698
Vthere
p7699
atp7700
Rp7701
(dp7702
g17
VEX
p7703
sbatp7704
Rp7705
(dp7706
g17
VNP
p7707
sbag5
(g6
g7
(lp7708
g5
(g6
g7
(lp7709
Vmight
p7710
atp7711
Rp7712
(dp7713
g17
VMD
p7714
sbag5
(g6
g7
(lp7715
g5
(g6
g7
(lp7716
Vbe
p7717
atp7718
Rp7719
(dp7720
g17
VVB
p7721
sbag5
(g6
g7
(lp7722
g5
(g6
g7
(lp7723
g5
(g6
g7
(lp7724
Vx
p7725
atp7726
Rp7727
(dp7728
g17
VNNP
p7729
sbag5
(g6
g7
(lp7730
g2254
atp7731
Rp7732
(dp7733
g17
VNNP
p7734
sbag5
(g6
g7
(lp7735
g2260
atp7736
Rp7737
(dp7738
g17
VPOS
p7739
sbatp7740
Rp7741
(dp7742
g17
VNP
p7743
sbag5
(g6
g7
(lp7744
V\u005c
p7745
atp7746
Rp7747
(dp7748
g17
VJJ
p7749
sbag5
(g6
g7
(lp7750
g5
(g6
g7
(lp7751
Vu2208
p7752
atp7753
Rp7754
(dp7755
g17
VNNP
p7756
sbag5
(g6
g7
(lp7757
g2260
atp7758
Rp7759
(dp7760
g17
VPOS
p7761
sbatp7762
Rp7763
(dp7764
g17
VNP
p7765
sbag5
(g6
g7
(lp7766
g7493
atp7767
Rp7768
(dp7769
g17
VNNP
p7770
sbag5
(g6
g7
(lp7771
g1720
atp7772
Rp7773
(dp7774
g17
VNNP
p7775
sbag5
(g6
g7
(lp7776
g2254
atp7777
Rp7778
(dp7779
g17
VNN
p7780
sbatp7781
Rp7782
(dp7783
g17
VNP
p7784
sbatp7785
Rp7786
(dp7787
g17
VVP
p7788
sbatp7789
Rp7790
(dp7791
g17
VVP
p7792
sbag5
(g6
g7
(lp7793
g2260
atp7794
Rp7795
(dp7796
g17
V''
p7797
sbatp7798
Rp7799
(dp7800
g17
g192
sbatp7801
Rp7802
(dp7803
g17
VPRN
p7804
sbag5
(g6
g7
(lp7805
g5
(g6
g7
(lp7806
g5
(g6
g7
(lp7807
V\u005c
p7808
atp7809
Rp7810
(dp7811
g17
VVBG
p7812
sbag5
(g6
g7
(lp7813
g5
(g6
g7
(lp7814
g5
(g6
g7
(lp7815
Vu2229
p7816
atp7817
Rp7818
(dp7819
g17
VNNP
p7820
sbag5
(g6
g7
(lp7821
g2260
atp7822
Rp7823
(dp7824
g17
VPOS
p7825
sbatp7826
Rp7827
(dp7828
g17
VNP
p7829
sbag5
(g6
g7
(lp7830
g7493
atp7831
Rp7832
(dp7833
g17
VNNP
p7834
sbag5
(g6
g7
(lp7835
Vj
p7836
atp7837
Rp7838
(dp7839
g17
VNN
p7840
sbatp7841
Rp7842
(dp7843
g17
VNP
p7844
sbatp7845
Rp7846
(dp7847
g17
VVP
p7848
sbatp7849
Rp7850
(dp7851
g17
g192
sbatp7852
Rp7853
(dp7854
g17
VVP
p7855
sbag5
(g6
g7
(lp7856
V-RRB-
p7857
atp7858
Rp7859
(dp7860
g17
V-RRB-
p7861
sbatp7862
Rp7863
(dp7864
g17
VPRN
p7865
sbatp7866
Rp7867
(dp7868
g17
VVP
p7869
sbatp7870
Rp7871
(dp7872
g17
VVP
p7873
sbag5
(g6
g7
(lp7874
Vand
p7875
atp7876
Rp7877
(dp7878
g17
VCC
p7879
sbag5
(g6
g7
(lp7880
g5
(g6
g7
(lp7881
Vneed
p7882
atp7883
Rp7884
(dp7885
g17
VVBP
p7886
sbag5
(g6
g7
(lp7887
Vnot
p7888
atp7889
Rp7890
(dp7891
g17
VRB
p7892
sbag5
(g6
g7
(lp7893
g5
(g6
g7
(lp7894
Vbe
p7895
atp7896
Rp7897
(dp7898
g17
VVB
p7899
sbag5
(g6
g7
(lp7900
g5
(g6
g7
(lp7901
Vexhaustive
p7902
atp7903
Rp7904
(dp7905
g17
VVBN
p7906
sbag5
(g6
g7
(lp7907
V-LRB-
p7908
atp7909
Rp7910
(dp7911
g17
V-LRB-
p7912
sbag5
(g6
g7
(lp7913
g5
(g6
g7
(lp7914
Vi.e.
p7915
atp7916
Rp7917
(dp7918
g17
VNNS
p7919
sbatp7920
Rp7921
(dp7922
g17
VNP
p7923
sbag5
(g6
g7
(lp7924
g84
atp7925
Rp7926
(dp7927
g17
g84
sbatp7928
Rp7929
(dp7930
g17
VVP
p7931
sbatp7932
Rp7933
(dp7934
g17
VVP
p7935
sbatp7936
Rp7937
(dp7938
g17
VVP
p7939
sbatp7940
Rp7941
(dp7942
g17
VVP
p7943
sbatp7944
Rp7945
(dp7946
g17
g192
sbag5
(g6
g7
(lp7947
g84
atp7948
Rp7949
(dp7950
g17
g84
sbag5
(g6
g7
(lp7951
g5
(g6
g7
(lp7952
Vthere
p7953
atp7954
Rp7955
(dp7956
g17
VEX
p7957
sbatp7958
Rp7959
(dp7960
g17
VNP
p7961
sbag5
(g6
g7
(lp7962
g5
(g6
g7
(lp7963
Vmight
p7964
atp7965
Rp7966
(dp7967
g17
VMD
p7968
sbag5
(g6
g7
(lp7969
g5
(g6
g7
(lp7970
Vbe
p7971
atp7972
Rp7973
(dp7974
g17
VVB
p7975
sbag5
(g6
g7
(lp7976
g5
(g6
g7
(lp7977
g5
(g6
g7
(lp7978
g5
(g6
g7
(lp7979
g5
(g6
g7
(lp7980
g7725
atp7981
Rp7982
(dp7983
g17
VNNP
p7984
sbag5
(g6
g7
(lp7985
g2254
atp7986
Rp7987
(dp7988
g17
VNNP
p7989
sbag5
(g6
g7
(lp7990
g2260
atp7991
Rp7992
(dp7993
g17
VPOS
p7994
sbatp7995
Rp7996
(dp7997
g17
VNP
p7998
sbag5
(g6
g7
(lp7999
V\u005c
p8000
atp8001
Rp8002
(dp8003
g17
VJJ
p8004
sbag5
(g6
g7
(lp8005
Vu2208
p8006
atp8007
Rp8008
(dp8009
g17
VNNS
p8010
sbag5
(g6
g7
(lp8011
g2260
atp8012
Rp8013
(dp8014
g17
VPOS
p8015
sbatp8016
Rp8017
(dp8018
g17
VNP
p8019
sbag5
(g6
g7
(lp8020
g7493
atp8021
Rp8022
(dp8023
g17
VNNP
p8024
sbag5
(g6
g7
(lp8025
g2254
atp8026
Rp8027
(dp8028
g17
VNNP
p8029
sbag5
(g6
g7
(lp8030
g2260
atp8031
Rp8032
(dp8033
g17
V''
p8034
sbatp8035
Rp8036
(dp8037
g17
VNP
p8038
sbag5
(g6
g7
(lp8039
g5
(g6
g7
(lp8040
g5
(g6
g7
(lp8041
g5
(g6
g7
(lp8042
g5
(g6
g7
(lp8043
V\u005c
p8044
atp8045
Rp8046
(dp8047
g17
VNNP
p8048
sbag5
(g6
g7
(lp8049
Vu2216
p8050
atp8051
Rp8052
(dp8053
g17
VNNP
p8054
sbag5
(g6
g7
(lp8055
g2260
atp8056
Rp8057
(dp8058
g17
VPOS
p8059
sbatp8060
Rp8061
(dp8062
g17
VNP
p8063
sbag5
(g6
g7
(lp8064
g2254
atp8065
Rp8066
(dp8067
g17
VNN
p8068
sbag5
(g6
g7
(lp8069
g2260
atp8070
Rp8071
(dp8072
g17
VPOS
p8073
sbatp8074
Rp8075
(dp8076
g17
VNP
p8077
sbag5
(g6
g7
(lp8078
V\u005c
p8079
atp8080
Rp8081
(dp8082
g17
VNNP
p8083
sbag5
(g6
g7
(lp8084
Vu22c3
p8085
atp8086
Rp8087
(dp8088
g17
VNNP
p8089
sbag5
(g6
g7
(lp8090
g2260
atp8091
Rp8092
(dp8093
g17
V''
p8094
sbatp8095
Rp8096
(dp8097
g17
VNP
p8098
sbag5
(g6
g7
(lp8099
g5
(g6
g7
(lp8100
g1720
atp8101
Rp8102
(dp8103
g17
VFW
p8104
sbag5
(g6
g7
(lp8105
g7493
atp8106
Rp8107
(dp8108
g17
VFW
p8109
sbag5
(g6
g7
(lp8110
g1720
atp8111
Rp8112
(dp8113
g17
VFW
p8114
sbatp8115
Rp8116
(dp8117
g17
VNP
p8118
sbatp8119
Rp8120
(dp8121
g17
VNP
p8122
sbatp8123
Rp8124
(dp8125
g17
VNP
p8126
sbatp8127
Rp8128
(dp8129
g17
VVP
p8130
sbatp8131
Rp8132
(dp8133
g17
VVP
p8134
sbatp8135
Rp8136
(dp8137
g17
g192
sbatp8138
Rp8139
(dp8140
g17
g192
sbatp8141
Rp8142
(dp8143
g17
VROOT
p8144
sbasg400
(icmyPackage
CorE
p8145
(dp8146
g403
(lp8147
(I0
I13
tp8148
a(I0
I57
tp8149
asg407
g5
(g6
g7
(lp8150
g7623
ag7643
ag7655
ag7871
ag7877
ag7884
ag7890
ag7897
ag7904
ag7910
atp8151
Rp8152
(dp8153
g17
g418
sbsbsg408
(icmyPackage
CorE
p8154
(dp8155
g403
(lp8156
(I0
I0
tp8157
a(I0
I11
tp8158
asg407
g5
(g6
g7
(lp8159
g7449
ag7454
ag7507
ag7514
ag7521
atp8160
Rp8161
(dp8162
g17
g418
sbsbsg419
g1389
sg444
(lp8163
(isxpPackage
sxpSent
p8164
(dp8165
g448
(lp8166
I17
asg450
VIn the sequel, a grouping on a set X is defined as a collection of subsets X i u'\u005cu2286' X ; these may overlap (i.e.,, there might be x u'\u005cu2208' X i u'\u005cu2229' X j ) and need not be exhaustive (i.e.,, there might be x u'\u005cu2208' X u'\u005cu2216' u'\u005cu22c3' i X i
p8167
sg452
I5
sg434
I64
sg453
I24
sbasba(icmyPackage
CELink
p8168
(dp8169
g3
(lp8170
g5
(g6
g7
(lp8171
g5
(g6
g7
(lp8172
g5
(g6
g7
(lp8173
g5
(g6
g7
(lp8174
VExperts
p8175
atp8176
Rp8177
(dp8178
g17
VNNS
p8179
sbatp8180
Rp8181
(dp8182
g17
VNP
p8183
sbag5
(g6
g7
(lp8184
g5
(g6
g7
(lp8185
Vwere
p8186
atp8187
Rp8188
(dp8189
g17
VVBD
p8190
sbag5
(g6
g7
(lp8191
g5
(g6
g7
(lp8192
Vallowed
p8193
atp8194
Rp8195
(dp8196
g17
VVBN
p8197
sbag5
(g6
g7
(lp8198
g5
(g6
g7
(lp8199
g5
(g6
g7
(lp8200
Vto
p8201
atp8202
Rp8203
(dp8204
g17
VTO
p8205
sbag5
(g6
g7
(lp8206
g5
(g6
g7
(lp8207
Vselect
p8208
atp8209
Rp8210
(dp8211
g17
VVB
p8212
sbag5
(g6
g7
(lp8213
g5
(g6
g7
(lp8214
Vas
p8215
atp8216
Rp8217
(dp8218
g17
VIN
p8219
sbag5
(g6
g7
(lp8220
g5
(g6
g7
(lp8221
g5
(g6
g7
(lp8222
Vmany
p8223
atp8224
Rp8225
(dp8226
g17
VJJ
p8227
sbag5
(g6
g7
(lp8228
Vsections
p8229
atp8230
Rp8231
(dp8232
g17
VNNS
p8233
sbatp8234
Rp8235
(dp8236
g17
VNP
p8237
sbag5
(g6
g7
(lp8238
g5
(g6
g7
(lp8239
Vfor
p8240
atp8241
Rp8242
(dp8243
g17
VIN
p8244
sbag5
(g6
g7
(lp8245
g5
(g6
g7
(lp8246
Veach
p8247
atp8248
Rp8249
(dp8250
g17
VDT
p8251
sbag5
(g6
g7
(lp8252
Vquestion
p8253
atp8254
Rp8255
(dp8256
g17
VNN
p8257
sbatp8258
Rp8259
(dp8260
g17
VNP
p8261
sbatp8262
Rp8263
(dp8264
g17
VPP
p8265
sbatp8266
Rp8267
(dp8268
g17
VNP
p8269
sbatp8270
Rp8271
(dp8272
g17
VPP
p8273
sbag5
(g6
g7
(lp8274
g5
(g6
g7
(lp8275
Vas
p8276
atp8277
Rp8278
(dp8279
g17
VIN
p8280
sbag5
(g6
g7
(lp8281
g5
(g6
g7
(lp8282
g5
(g6
g7
(lp8283
Vthey
p8284
atp8285
Rp8286
(dp8287
g17
VPRP
p8288
sbatp8289
Rp8290
(dp8291
g17
VNP
p8292
sbag5
(g6
g7
(lp8293
g5
(g6
g7
(lp8294
Vsaw
p8295
atp8296
Rp8297
(dp8298
g17
VVBD
p8299
sbag5
(g6
g7
(lp8300
g5
(g6
g7
(lp8301
Vfit
p8302
atp8303
Rp8304
(dp8305
g17
VNN
p8306
sbatp8307
Rp8308
(dp8309
g17
VNP
p8310
sbag5
(g6
g7
(lp8311
g84
atp8312
Rp8313
(dp8314
g17
g84
sbag5
(g6
g7
(lp8315
g5
(g6
g7
(lp8316
Vsince
p8317
atp8318
Rp8319
(dp8320
g17
VIN
p8321
sbag5
(g6
g7
(lp8322
g5
(g6
g7
(lp8323
g5
(g6
g7
(lp8324
Vanswering
p8325
atp8326
Rp8327
(dp8328
g17
VVBG
p8329
sbag5
(g6
g7
(lp8330
g5
(g6
g7
(lp8331
g5
(g6
g7
(lp8332
g5
(g6
g7
(lp8333
Vsome
p8334
atp8335
Rp8336
(dp8337
g17
VDT
p8338
sbag5
(g6
g7
(lp8339
Vquestions
p8340
atp8341
Rp8342
(dp8343
g17
VNNS
p8344
sbatp8345
Rp8346
(dp8347
g17
VNP
p8348
sbag5
(g6
g7
(lp8349
g5
(g6
g7
(lp8350
Vmay
p8351
atp8352
Rp8353
(dp8354
g17
VMD
p8355
sbag5
(g6
g7
(lp8356
g5
(g6
g7
(lp8357
Vrequire
p8358
atp8359
Rp8360
(dp8361
g17
VVB
p8362
sbag5
(g6
g7
(lp8363
g5
(g6
g7
(lp8364
Vsynthesizing
p8365
atp8366
Rp8367
(dp8368
g17
VJJ
p8369
sbag5
(g6
g7
(lp8370
Vinformation
p8371
atp8372
Rp8373
(dp8374
g17
VNN
p8375
sbatp8376
Rp8377
(dp8378
g17
VNP
p8379
sbag5
(g6
g7
(lp8380
g5
(g6
g7
(lp8381
Vfrom
p8382
atp8383
Rp8384
(dp8385
g17
VIN
p8386
sbag5
(g6
g7
(lp8387
g5
(g6
g7
(lp8388
Vdifferent
p8389
atp8390
Rp8391
(dp8392
g17
VJJ
p8393
sbag5
(g6
g7
(lp8394
Vsections
p8395
atp8396
Rp8397
(dp8398
g17
VNNS
p8399
sbatp8400
Rp8401
(dp8402
g17
VNP
p8403
sbatp8404
Rp8405
(dp8406
g17
VPP
p8407
sbatp8408
Rp8409
(dp8410
g17
VVP
p8411
sbatp8412
Rp8413
(dp8414
g17
VVP
p8415
sbatp8416
Rp8417
(dp8418
g17
g192
sbatp8419
Rp8420
(dp8421
g17
VSBAR
p8422
sbatp8423
Rp8424
(dp8425
g17
VVP
p8426
sbatp8427
Rp8428
(dp8429
g17
g192
sbatp8430
Rp8431
(dp8432
g17
VPP
p8433
sbatp8434
Rp8435
(dp8436
g17
VVP
p8437
sbatp8438
Rp8439
(dp8440
g17
g192
sbatp8441
Rp8442
(dp8443
g17
VSBAR
p8444
sbatp8445
Rp8446
(dp8447
g17
VVP
p8448
sbatp8449
Rp8450
(dp8451
g17
VVP
p8452
sbatp8453
Rp8454
(dp8455
g17
g192
sbatp8456
Rp8457
(dp8458
g17
VVP
p8459
sbatp8460
Rp8461
(dp8462
g17
VVP
p8463
sbatp8464
Rp8465
(dp8466
g17
g192
sbatp8467
Rp8468
(dp8469
g17
VROOT
p8470
sbasg400
(icmyPackage
CorE
p8471
(dp8472
g403
(lp8473
(I0
I17
tp8474
a(I0
I26
tp8475
asg407
g8428
sbsg408
(icmyPackage
CorE
p8476
(dp8477
g403
(lp8478
(I0
I0
tp8479
a(I0
I14
tp8480
asg407
g5
(g6
g7
(lp8481
g8181
ag8188
ag8195
ag8203
ag8210
ag8271
ag8278
ag8290
ag8297
ag8308
atp8482
Rp8483
(dp8484
g17
g418
sbsbsg419
g6110
sg444
(lp8485
(isxpPackage
sxpSent
p8486
(dp8487
g448
(lp8488
I18
asg450
VExperts were allowed to select as many sections for each question as they saw fit, since answering some questions may require synthesizing information from different sections
p8489
sg452
I6
sg434
I72
sg453
I26
sbasba(icmyPackage
CELink
p8490
(dp8491
g3
(lp8492
g5
(g6
g7
(lp8493
g5
(g6
g7
(lp8494
g5
(g6
g7
(lp8495
g5
(g6
g7
(lp8496
g5
(g6
g7
(lp8497
VOur
p8498
atp8499
Rp8500
(dp8501
g17
VPRP$
p8502
sbag5
(g6
g7
(lp8503
Vmethod
p8504
atp8505
Rp8506
(dp8507
g17
VNN
p8508
sbatp8509
Rp8510
(dp8511
g17
VNP
p8512
sbag5
(g6
g7
(lp8513
g5
(g6
g7
(lp8514
Vallows
p8515
atp8516
Rp8517
(dp8518
g17
VVBZ
p8519
sbag5
(g6
g7
(lp8520
g5
(g6
g7
(lp8521
Vthese
p8522
atp8523
Rp8524
(dp8525
g17
VDT
p8526
sbatp8527
Rp8528
(dp8529
g17
VNP
p8530
sbag5
(g6
g7
(lp8531
g5
(g6
g7
(lp8532
Vto
p8533
atp8534
Rp8535
(dp8536
g17
VTO
p8537
sbag5
(g6
g7
(lp8538
g5
(g6
g7
(lp8539
g5
(g6
g7
(lp8540
Voverlap
p8541
atp8542
Rp8543
(dp8544
g17
VNNP
p8545
sbatp8546
Rp8547
(dp8548
g17
VNP
p8549
sbag5
(g6
g7
(lp8550
g5
(g6
g7
(lp8551
V-LRB-
p8552
atp8553
Rp8554
(dp8555
g17
V-LRB-
p8556
sbag5
(g6
g7
(lp8557
g5
(g6
g7
(lp8558
g5
(g6
g7
(lp8559
V63
p8560
atp8561
Rp8562
(dp8563
g17
VCD
p8564
sbag5
(g6
g7
(lp8565
V%
p8566
atp8567
Rp8568
(dp8569
g17
VNN
p8570
sbatp8571
Rp8572
(dp8573
g17
VNP
p8574
sbag5
(g6
g7
(lp8575
g5
(g6
g7
(lp8576
Vof
p8577
atp8578
Rp8579
(dp8580
g17
VIN
p8581
sbag5
(g6
g7
(lp8582
g5
(g6
g7
(lp8583
g5
(g6
g7
(lp8584
Vthe
p8585
atp8586
Rp8587
(dp8588
g17
VDT
p8589
sbag5
(g6
g7
(lp8590
Vsections
p8591
atp8592
Rp8593
(dp8594
g17
VNNS
p8595
sbatp8596
Rp8597
(dp8598
g17
VNP
p8599
sbag5
(g6
g7
(lp8600
g5
(g6
g7
(lp8601
Vin
p8602
atp8603
Rp8604
(dp8605
g17
VIN
p8606
sbag5
(g6
g7
(lp8607
g5
(g6
g7
(lp8608
Vany
p8609
atp8610
Rp8611
(dp8612
g17
VDT
p8613
sbag5
(g6
g7
(lp8614
VA
p8615
atp8616
Rp8617
(dp8618
g17
VNNP
p8619
sbag5
(g6
g7
(lp8620
g1720
atp8621
Rp8622
(dp8623
g17
VNNP
p8624
sbatp8625
Rp8626
(dp8627
g17
VNP
p8628
sbatp8629
Rp8630
(dp8631
g17
VPP
p8632
sbatp8633
Rp8634
(dp8635
g17
VNP
p8636
sbatp8637
Rp8638
(dp8639
g17
VPP
p8640
sbag5
(g6
g7
(lp8641
g5
(g6
g7
(lp8642
Voccurred
p8643
atp8644
Rp8645
(dp8646
g17
VVBN
p8647
sbag5
(g6
g7
(lp8648
g5
(g6
g7
(lp8649
Vin
p8650
atp8651
Rp8652
(dp8653
g17
VIN
p8654
sbag5
(g6
g7
(lp8655
g5
(g6
g7
(lp8656
g5
(g6
g7
(lp8657
g5
(g6
g7
(lp8658
Vmore
p8659
atp8660
Rp8661
(dp8662
g17
VJJR
p8663
sbag5
(g6
g7
(lp8664
Vthan
p8665
atp8666
Rp8667
(dp8668
g17
VIN
p8669
sbag5
(g6
g7
(lp8670
Vone
p8671
atp8672
Rp8673
(dp8674
g17
VCD
p8675
sbatp8676
Rp8677
(dp8678
g17
VQP
p8679
sbatp8680
Rp8681
(dp8682
g17
VNP
p8683
sbag5
(g6
g7
(lp8684
g5
(g6
g7
(lp8685
g8615
atp8686
Rp8687
(dp8688
g17
VDT
p8689
sbag5
(g6
g7
(lp8690
g1720
atp8691
Rp8692
(dp8693
g17
VNN
p8694
sbatp8695
Rp8696
(dp8697
g17
VNP
p8698
sbatp8699
Rp8700
(dp8701
g17
VNP
p8702
sbatp8703
Rp8704
(dp8705
g17
VPP
p8706
sbatp8707
Rp8708
(dp8709
g17
VVP
p8710
sbatp8711
Rp8712
(dp8713
g17
VNP
p8714
sbag5
(g6
g7
(lp8715
V-RRB-
p8716
atp8717
Rp8718
(dp8719
g17
V-RRB-
p8720
sbatp8721
Rp8722
(dp8723
g17
VPRN
p8724
sbatp8725
Rp8726
(dp8727
g17
VNP
p8728
sbatp8729
Rp8730
(dp8731
g17
VPP
p8732
sbatp8733
Rp8734
(dp8735
g17
VVP
p8736
sbatp8737
Rp8738
(dp8739
g17
g192
sbag5
(g6
g7
(lp8740
g84
atp8741
Rp8742
(dp8743
g17
g84
sbag5
(g6
g7
(lp8744
Vand
p8745
atp8746
Rp8747
(dp8748
g17
VCC
p8749
sbag5
(g6
g7
(lp8750
g5
(g6
g7
(lp8751
g5
(g6
g7
(lp8752
Vthey
p8753
atp8754
Rp8755
(dp8756
g17
VPRP
p8757
sbatp8758
Rp8759
(dp8760
g17
VNP
p8761
sbag5
(g6
g7
(lp8762
g5
(g6
g7
(lp8763
Vare
p8764
atp8765
Rp8766
(dp8767
g17
VVBP
p8768
sbag5
(g6
g7
(lp8769
Vnot
p8770
atp8771
Rp8772
(dp8773
g17
VRB
p8774
sbag5
(g6
g7
(lp8775
g5
(g6
g7
(lp8776
Vexhaustive
p8777
atp8778
Rp8779
(dp8780
g17
VVBG
p8781
sbag5
(g6
g7
(lp8782
V-LRB-
p8783
atp8784
Rp8785
(dp8786
g17
V-LRB-
p8787
sbag5
(g6
g7
(lp8788
g5
(g6
g7
(lp8789
g5
(g6
g7
(lp8790
Vsince
p8791
atp8792
Rp8793
(dp8794
g17
VRB
p8795
sbag5
(g6
g7
(lp8796
Vmany
p8797
atp8798
Rp8799
(dp8800
g17
VJJ
p8801
sbag5
(g6
g7
(lp8802
Vsections
p8803
atp8804
Rp8805
(dp8806
g17
VNNS
p8807
sbatp8808
Rp8809
(dp8810
g17
VNP
p8811
sbag5
(g6
g7
(lp8812
g5
(g6
g7
(lp8813
Vof
p8814
atp8815
Rp8816
(dp8817
g17
VIN
p8818
sbag5
(g6
g7
(lp8819
g5
(g6
g7
(lp8820
g5
(g6
g7
(lp8821
Vthe
p8822
atp8823
Rp8824
(dp8825
g17
VDT
p8826
sbag5
(g6
g7
(lp8827
Vpolicies
p8828
atp8829
Rp8830
(dp8831
g17
VNNS
p8832
sbatp8833
Rp8834
(dp8835
g17
VNP
p8836
sbag5
(g6
g7
(lp8837
g5
(g6
g7
(lp8838
g5
(g6
g7
(lp8839
g5
(g6
g7
(lp8840
Vwere
p8841
atp8842
Rp8843
(dp8844
g17
VVBD
p8845
sbag5
(g6
g7
(lp8846
Vnot
p8847
atp8848
Rp8849
(dp8850
g17
VRB
p8851
sbag5
(g6
g7
(lp8852
g5
(g6
g7
(lp8853
Vdeemed
p8854
atp8855
Rp8856
(dp8857
g17
VVBN
p8858
sbag5
(g6
g7
(lp8859
g5
(g6
g7
(lp8860
g5
(g6
g7
(lp8861
Vto
p8862
atp8863
Rp8864
(dp8865
g17
VTO
p8866
sbag5
(g6
g7
(lp8867
g5
(g6
g7
(lp8868
Vcontain
p8869
atp8870
Rp8871
(dp8872
g17
VVB
p8873
sbag5
(g6
g7
(lp8874
g5
(g6
g7
(lp8875
Vanswers
p8876
atp8877
Rp8878
(dp8879
g17
VNNS
p8880
sbatp8881
Rp8882
(dp8883
g17
VNP
p8884
sbag5
(g6
g7
(lp8885
g5
(g6
g7
(lp8886
Vto
p8887
atp8888
Rp8889
(dp8890
g17
VTO
p8891
sbag5
(g6
g7
(lp8892
g5
(g6
g7
(lp8893
g5
(g6
g7
(lp8894
Vany
p8895
atp8896
Rp8897
(dp8898
g17
VDT
p8899
sbatp8900
Rp8901
(dp8902
g17
VNP
p8903
sbag5
(g6
g7
(lp8904
g5
(g6
g7
(lp8905
Vof
p8906
atp8907
Rp8908
(dp8909
g17
VIN
p8910
sbag5
(g6
g7
(lp8911
g5
(g6
g7
(lp8912
Vthe
p8913
atp8914
Rp8915
(dp8916
g17
VDT
p8917
sbag5
(g6
g7
(lp8918
Vnine
p8919
atp8920
Rp8921
(dp8922
g17
VCD
p8923
sbag5
(g6
g7
(lp8924
Vquestions
p8925
atp8926
Rp8927
(dp8928
g17
VNNS
p8929
sbatp8930
Rp8931
(dp8932
g17
VNP
p8933
sbatp8934
Rp8935
(dp8936
g17
VPP
p8937
sbatp8938
Rp8939
(dp8940
g17
VNP
p8941
sbatp8942
Rp8943
(dp8944
g17
VPP
p8945
sbatp8946
Rp8947
(dp8948
g17
VVP
p8949
sbatp8950
Rp8951
(dp8952
g17
VVP
p8953
sbatp8954
Rp8955
(dp8956
g17
g192
sbatp8957
Rp8958
(dp8959
g17
VVP
p8960
sbatp8961
Rp8962
(dp8963
g17
VVP
p8964
sbatp8965
Rp8966
(dp8967
g17
g192
sbatp8968
Rp8969
(dp8970
g17
VSBAR
p8971
sbatp8972
Rp8973
(dp8974
g17
VNP
p8975
sbatp8976
Rp8977
(dp8978
g17
VPP
p8979
sbatp8980
Rp8981
(dp8982
g17
VNP
p8983
sbag5
(g6
g7
(lp8984
g5
(g6
g7
(lp8985
Vby
p8986
atp8987
Rp8988
(dp8989
g17
VIN
p8990
sbag5
(g6
g7
(lp8991
g5
(g6
g7
(lp8992
Vany
p8993
atp8994
Rp8995
(dp8996
g17
VDT
p8997
sbag5
(g6
g7
(lp8998
Vexpert
p8999
atp9000
Rp9001
(dp9002
g17
VNN
p9003
sbatp9004
Rp9005
(dp9006
g17
VNP
p9007
sbatp9008
Rp9009
(dp9010
g17
VPP
p9011
sbatp9012
Rp9013
(dp9014
g17
VVP
p9015
sbatp9016
Rp9017
(dp9018
g17
VVP
p9019
sbatp9020
Rp9021
(dp9022
g17
g192
sbatp9023
Rp9024
(dp9025
g17
g192
sbatp9026
Rp9027
(dp9028
g17
VROOT
p9029
sbasg400
(icmyPackage
CorE
p9030
(dp9031
g403
(lp9032
(I0
I32
tp9033
a(I0
I47
tp9034
asg407
g5
(g6
g7
(lp9035
g8799
ag8805
ag8816
ag8834
ag8843
ag8849
ag8856
ag8864
ag8871
ag8882
ag8889
ag8901
ag8908
ag8915
ag8921
atp9036
Rp9037
(dp9038
g17
g418
sbsbsg408
(icmyPackage
CorE
p9039
(dp9040
g403
(lp9041
(I0
I0
tp9042
a(I0
I30
tp9043
asg407
g5
(g6
g7
(lp9044
g8738
ag8742
ag8747
ag8759
ag8766
ag8772
ag8779
ag8785
atp9045
Rp9046
(dp9047
g17
g418
sbsbsg419
g6110
sg444
(lp9048
(isxpPackage
sxpSent
p9049
(dp9050
g448
(lp9051
I19
asg450
VOur method allows these to overlap (63% of the sections in any A i occurred in more than one A i ), and they are not exhaustive (since many sections of the policies were not deemed to contain answers to any of the nine questions by any expert
p9052
sg452
I6
sg434
I75
sg453
I27
sbasba(icmyPackage
CELink
p9053
(dp9054
g3
(lp9055
g5
(g6
g7
(lp9056
g5
(g6
g7
(lp9057
g5
(g6
g7
(lp9058
g5
(g6
g7
(lp9059
VTogether
p9060
atp9061
Rp9062
(dp9063
g17
VRB
p9064
sbatp9065
Rp9066
(dp9067
g17
VADVP
p9068
sbag5
(g6
g7
(lp9069
g84
atp9070
Rp9071
(dp9072
g17
g84
sbag5
(g6
g7
(lp9073
g5
(g6
g7
(lp9074
Vthese
p9075
atp9076
Rp9077
(dp9078
g17
VDT
p9079
sbatp9080
Rp9081
(dp9082
g17
VNP
p9083
sbag5
(g6
g7
(lp9084
g5
(g6
g7
(lp9085
Vcan
p9086
atp9087
Rp9088
(dp9089
g17
VMD
p9090
sbag5
(g6
g7
(lp9091
g5
(g6
g7
(lp9092
Vbe
p9093
atp9094
Rp9095
(dp9096
g17
VVB
p9097
sbag5
(g6
g7
(lp9098
g5
(g6
g7
(lp9099
Vused
p9100
atp9101
Rp9102
(dp9103
g17
VVBN
p9104
sbag5
(g6
g7
(lp9105
g5
(g6
g7
(lp9106
Vas
p9107
atp9108
Rp9109
(dp9110
g17
VIN
p9111
sbag5
(g6
g7
(lp9112
g5
(g6
g7
(lp9113
g5
(g6
g7
(lp9114
g267
atp9115
Rp9116
(dp9117
g17
VDT
p9118
sbag5
(g6
g7
(lp9119
Vgold
p9120
atp9121
Rp9122
(dp9123
g17
VJJ
p9124
sbag5
(g6
g7
(lp9125
Vstandard
p9126
atp9127
Rp9128
(dp9129
g17
VJJ
p9130
sbag5
(g6
g7
(lp9131
Vgrouping
p9132
atp9133
Rp9134
(dp9135
g17
VNN
p9136
sbatp9137
Rp9138
(dp9139
g17
VNP
p9140
sbag5
(g6
g7
(lp9141
g5
(g6
g7
(lp9142
Vof
p9143
atp9144
Rp9145
(dp9146
g17
VIN
p9147
sbag5
(g6
g7
(lp9148
g5
(g6
g7
(lp9149
Vpolicy
p9150
atp9151
Rp9152
(dp9153
g17
VNN
p9154
sbag5
(g6
g7
(lp9155
Vsections
p9156
atp9157
Rp9158
(dp9159
g17
VNNS
p9160
sbatp9161
Rp9162
(dp9163
g17
VNP
p9164
sbatp9165
Rp9166
(dp9167
g17
VPP
p9168
sbatp9169
Rp9170
(dp9171
g17
VNP
p9172
sbatp9173
Rp9174
(dp9175
g17
VPP
p9176
sbag5
(g6
g7
(lp9177
g84
atp9178
Rp9179
(dp9180
g17
g84
sbag5
(g6
g7
(lp9181
g5
(g6
g7
(lp9182
Vagainst
p9183
atp9184
Rp9185
(dp9186
g17
VIN
p9187
sbag5
(g6
g7
(lp9188
g5
(g6
g7
(lp9189
g5
(g6
g7
(lp9190
Vwhich
p9191
atp9192
Rp9193
(dp9194
g17
VWDT
p9195
sbatp9196
Rp9197
(dp9198
g17
VWHNP
p9199
sbag5
(g6
g7
(lp9200
g5
(g6
g7
(lp9201
g5
(g6
g7
(lp9202
Vwe
p9203
atp9204
Rp9205
(dp9206
g17
VPRP
p9207
sbatp9208
Rp9209
(dp9210
g17
VNP
p9211
sbag5
(g6
g7
(lp9212
g5
(g6
g7
(lp9213
Vcan
p9214
atp9215
Rp9216
(dp9217
g17
VMD
p9218
sbag5
(g6
g7
(lp9219
g5
(g6
g7
(lp9220
Vcompare
p9221
atp9222
Rp9223
(dp9224
g17
VVB
p9225
sbag5
(g6
g7
(lp9226
g5
(g6
g7
(lp9227
g5
(g6
g7
(lp9228
g5
(g6
g7
(lp9229
Vour
p9230
atp9231
Rp9232
(dp9233
g17
VPRP$
p9234
sbag5
(g6
g7
(lp9235
Vsystem
p9236
atp9237
Rp9238
(dp9239
g17
VNN
p9240
sbag5
(g6
g7
(lp9241
g2254
atp9242
Rp9243
(dp9244
g17
VNN
p9245
sbag5
(g6
g7
(lp9246
g2260
atp9247
Rp9248
(dp9249
g17
VPOS
p9250
sbatp9251
Rp9252
(dp9253
g17
VNP
p9254
sbag5
(g6
g7
(lp9255
V\u005c
p9256
atp9257
Rp9258
(dp9259
g17
VJJ
p9260
sbag5
(g6
g7
(lp9261
Vu2019
p9262
atp9263
Rp9264
(dp9265
g17
VNNS
p9266
sbag5
(g6
g7
(lp9267
g2260
atp9268
Rp9269
(dp9270
g17
VPOS
p9271
sbatp9272
Rp9273
(dp9274
g17
VNP
p9275
sbag5
(g6
g7
(lp9276
Vs
p9277
atp9278
Rp9279
(dp9280
g17
VJJ
p9281
sbag5
(g6
g7
(lp9282
Voutput
p9283
atp9284
Rp9285
(dp9286
g17
VNN
p9287
sbatp9288
Rp9289
(dp9290
g17
VNP
p9291
sbatp9292
Rp9293
(dp9294
g17
VVP
p9295
sbatp9296
Rp9297
(dp9298
g17
VVP
p9299
sbatp9300
Rp9301
(dp9302
g17
g192
sbatp9303
Rp9304
(dp9305
g17
VSBAR
p9306
sbatp9307
Rp9308
(dp9309
g17
VPP
p9310
sbatp9311
Rp9312
(dp9313
g17
VVP
p9314
sbatp9315
Rp9316
(dp9317
g17
VVP
p9318
sbatp9319
Rp9320
(dp9321
g17
VVP
p9322
sbatp9323
Rp9324
(dp9325
g17
g192
sbatp9326
Rp9327
(dp9328
g17
VROOT
p9329
sbasg400
(icmyPackage
CorE
p9330
(dp9331
g403
(lp9332
(I0
I7
tp9333
a(I0
I27
tp9334
asg407
g5
(g6
g7
(lp9335
g9170
ag9179
ag9185
ag9197
ag9209
ag9216
ag9223
ag9273
ag9279
atp9336
Rp9337
(dp9338
g17
g418
sbsbsg408
(icmyPackage
CorE
p9339
(dp9340
g403
(lp9341
(I0
I0
tp9342
a(I0
I5
tp9343
asg407
g5
(g6
g7
(lp9344
g9066
ag9071
ag9081
ag9088
ag9095
ag9102
atp9345
Rp9346
(dp9347
g17
g418
sbsbsg419
g1389
sg444
(lp9348
(isxpPackage
sxpSent
p9349
(dp9350
g448
(lp9351
I20
asg450
VTogether, these can be used as a gold standard grouping of policy sections, against which we can compare our system u'\u005cu2019' s output
p9352
sg452
I6
sg434
I76
sg453
I28
sbasba(icmyPackage
CELink
p9353
(dp9354
g3
(lp9355
g5
(g6
g7
(lp9356
g5
(g6
g7
(lp9357
g5
(g6
g7
(lp9358
g5
(g6
g7
(lp9359
VAn
p9360
atp9361
Rp9362
(dp9363
g17
VDT
p9364
sbag5
(g6
g7
(lp9365
Vexample
p9366
atp9367
Rp9368
(dp9369
g17
VNN
p9370
sbatp9371
Rp9372
(dp9373
g17
VNP
p9374
sbag5
(g6
g7
(lp9375
g5
(g6
g7
(lp9376
Vis
p9377
atp9378
Rp9379
(dp9380
g17
VVBZ
p9381
sbag5
(g6
g7
(lp9382
g5
(g6
g7
(lp9383
Vshown
p9384
atp9385
Rp9386
(dp9387
g17
VVBN
p9388
sbag5
(g6
g7
(lp9389
g5
(g6
g7
(lp9390
Vin
p9391
atp9392
Rp9393
(dp9394
g17
VIN
p9395
sbag5
(g6
g7
(lp9396
g5
(g6
g7
(lp9397
VFigure
p9398
atp9399
Rp9400
(dp9401
g17
VNNP
p9402
sbag5
(g6
g7
(lp9403
V2
p9404
atp9405
Rp9406
(dp9407
g17
VCD
p9408
sbatp9409
Rp9410
(dp9411
g17
VNP
p9412
sbatp9413
Rp9414
(dp9415
g17
VPP
p9416
sbatp9417
Rp9418
(dp9419
g17
VVP
p9420
sbatp9421
Rp9422
(dp9423
g17
VVP
p9424
sbatp9425
Rp9426
(dp9427
g17
g192
sbatp9428
Rp9429
(dp9430
g17
VROOT
p9431
sbag5
(g6
g7
(lp9432
g5
(g6
g7
(lp9433
g5
(g6
g7
(lp9434
g5
(g6
g7
(lp9435
VAs
p9436
atp9437
Rp9438
(dp9439
g17
VIN
p9440
sbag5
(g6
g7
(lp9441
g5
(g6
g7
(lp9442
Vin
p9443
atp9444
Rp9445
(dp9446
g17
VIN
p9447
sbag5
(g6
g7
(lp9448
g5
(g6
g7
(lp9449
V4.1
p9450
atp9451
Rp9452
(dp9453
g17
VCD
p9454
sbatp9455
Rp9456
(dp9457
g17
VNP
p9458
sbatp9459
Rp9460
(dp9461
g17
VPP
p9462
sbatp9463
Rp9464
(dp9465
g17
VPP
p9466
sbag5
(g6
g7
(lp9467
g84
atp9468
Rp9469
(dp9470
g17
g84
sbag5
(g6
g7
(lp9471
g5
(g6
g7
(lp9472
Vwe
p9473
atp9474
Rp9475
(dp9476
g17
VPRP
p9477
sbatp9478
Rp9479
(dp9480
g17
VNP
p9481
sbag5
(g6
g7
(lp9482
g5
(g6
g7
(lp9483
Vcalculate
p9484
atp9485
Rp9486
(dp9487
g17
VVBD
p9488
sbag5
(g6
g7
(lp9489
g5
(g6
g7
(lp9490
Vprecision
p9491
atp9492
Rp9493
(dp9494
g17
VNN
p9495
sbag5
(g6
g7
(lp9496
Vand
p9497
atp9498
Rp9499
(dp9500
g17
VCC
p9501
sbag5
(g6
g7
(lp9502
Vrecall
p9503
atp9504
Rp9505
(dp9506
g17
VNN
p9507
sbatp9508
Rp9509
(dp9510
g17
VNP
p9511
sbag5
(g6
g7
(lp9512
g5
(g6
g7
(lp9513
Von
p9514
atp9515
Rp9516
(dp9517
g17
VIN
p9518
sbag5
(g6
g7
(lp9519
g5
(g6
g7
(lp9520
Vpairs
p9521
atp9522
Rp9523
(dp9524
g17
VNNS
p9525
sbatp9526
Rp9527
(dp9528
g17
VNP
p9529
sbatp9530
Rp9531
(dp9532
g17
VPP
p9533
sbatp9534
Rp9535
(dp9536
g17
VVP
p9537
sbatp9538
Rp9539
(dp9540
g17
g192
sbatp9541
Rp9542
(dp9543
g17
VROOT
p9544
sbasg400
(icmyPackage
CorE
p9545
(dp9546
g403
(lp9547
(I1
I1
tp9548
a(I1
I10
tp9549
asg407
g5
(g6
g7
(lp9550
g9460
ag9469
ag9479
ag9535
atp9551
Rp9552
(dp9553
g17
g418
sbsbsg408
(icmyPackage
CorE
p9554
(dp9555
g403
(lp9556
(I0
I0
tp9557
a(I0
I6
tp9558
asg407
g9429
sbsg419
g1389
sg444
(lp9559
(isxpPackage
sxpSent
p9560
(dp9561
g448
(lp9562
I21
asg450
VAn example is shown in Figure 2
p9563
sg452
I7
sg434
I103
sg453
I35
sba(isxpPackage
sxpSent
p9564
(dp9565
g448
(lp9566
I21
asg450
VAs in  4.1 , we calculate precision and recall on pairs
p9567
sg452
I7
sg434
I104
sg453
I36
sbasba(icmyPackage
CELink
p9568
(dp9569
g3
(lp9570
g5
(g6
g7
(lp9571
g5
(g6
g7
(lp9572
g5
(g6
g7
(lp9573
g5
(g6
g7
(lp9574
VThis
p9575
atp9576
Rp9577
(dp9578
g17
VDT
p9579
sbatp9580
Rp9581
(dp9582
g17
VNP
p9583
sbag5
(g6
g7
(lp9584
g5
(g6
g7
(lp9585
Vdoes
p9586
atp9587
Rp9588
(dp9589
g17
VVBZ
p9590
sbag5
(g6
g7
(lp9591
Vnot
p9592
atp9593
Rp9594
(dp9595
g17
VRB
p9596
sbag5
(g6
g7
(lp9597
g5
(g6
g7
(lp9598
Vpenalize
p9599
atp9600
Rp9601
(dp9602
g17
VVB
p9603
sbag5
(g6
g7
(lp9604
g5
(g6
g7
(lp9605
Vthe
p9606
atp9607
Rp9608
(dp9609
g17
VDT
p9610
sbag5
(g6
g7
(lp9611
Vmodel
p9612
atp9613
Rp9614
(dp9615
g17
VNN
p9616
sbatp9617
Rp9618
(dp9619
g17
VNP
p9620
sbag5
(g6
g7
(lp9621
g5
(g6
g7
(lp9622
Vfor
p9623
atp9624
Rp9625
(dp9626
g17
VIN
p9627
sbag5
(g6
g7
(lp9628
g5
(g6
g7
(lp9629
g5
(g6
g7
(lp9630
Vgrouping
p9631
atp9632
Rp9633
(dp9634
g17
VVBG
p9635
sbag5
(g6
g7
(lp9636
g5
(g6
g7
(lp9637
Vtogether
p9638
atp9639
Rp9640
(dp9641
g17
VRP
p9642
sbatp9643
Rp9644
(dp9645
g17
VPRT
p9646
sbag5
(g6
g7
(lp9647
g5
(g6
g7
(lp9648
g5
(g6
g7
(lp9649
g5
(g6
g7
(lp9650
g267
atp9651
Rp9652
(dp9653
g17
VDT
p9654
sbag5
(g6
g7
(lp9655
g2254
atp9656
Rp9657
(dp9658
g17
VNN
p9659
sbag5
(g6
g7
(lp9660
g2260
atp9661
Rp9662
(dp9663
g17
VPOS
p9664
sbatp9665
Rp9666
(dp9667
g17
VNP
p9668
sbag5
(g6
g7
(lp9669
V\u005c
p9670
atp9671
Rp9672
(dp9673
g17
VNN
p9674
sbag5
(g6
g7
(lp9675
Vu201c
p9676
atp9677
Rp9678
(dp9679
g17
VNN
p9680
sbag5
(g6
g7
(lp9681
g2260
atp9682
Rp9683
(dp9684
g17
V''
p9685
sbatp9686
Rp9687
(dp9688
g17
VNP
p9689
sbag5
(g6
g7
(lp9690
g5
(g6
g7
(lp9691
g5
(g6
g7
(lp9692
g5
(g6
g7
(lp9693
g5
(g6
g7
(lp9694
Vno
p9695
atp9696
Rp9697
(dp9698
g17
VDT
p9699
sbag5
(g6
g7
(lp9700
g2254
atp9701
Rp9702
(dp9703
g17
VNN
p9704
sbag5
(g6
g7
(lp9705
g2260
atp9706
Rp9707
(dp9708
g17
VPOS
p9709
sbatp9710
Rp9711
(dp9712
g17
VNP
p9713
sbag5
(g6
g7
(lp9714
V\u005c
p9715
atp9716
Rp9717
(dp9718
g17
VJJ
p9719
sbag5
(g6
g7
(lp9720
Vu201d
p9721
atp9722
Rp9723
(dp9724
g17
VNNS
p9725
sbag5
(g6
g7
(lp9726
g2260
atp9727
Rp9728
(dp9729
g17
V''
p9730
sbag5
(g6
g7
(lp9731
Vpair
p9732
atp9733
Rp9734
(dp9735
g17
VNN
p9736
sbatp9737
Rp9738
(dp9739
g17
VNP
p9740
sbag5
(g6
g7
(lp9741
g2393
atp9742
Rp9743
(dp9744
g17
g2397
sbag5
(g6
g7
(lp9745
g5
(g6
g7
(lp9746
Vwe
p9747
atp9748
Rp9749
(dp9750
g17
VPRP
p9751
sbatp9752
Rp9753
(dp9754
g17
VNP
p9755
sbag5
(g6
g7
(lp9756
g5
(g6
g7
(lp9757
Vchose
p9758
atp9759
Rp9760
(dp9761
g17
VVBD
p9762
sbag5
(g6
g7
(lp9763
g5
(g6
g7
(lp9764
Vit
p9765
atp9766
Rp9767
(dp9768
g17
VPRP
p9769
sbatp9770
Rp9771
(dp9772
g17
VNP
p9773
sbag5
(g6
g7
(lp9774
g5
(g6
g7
(lp9775
Vnonetheless
p9776
atp9777
Rp9778
(dp9779
g17
VRB
p9780
sbatp9781
Rp9782
(dp9783
g17
VADVP
p9784
sbag5
(g6
g7
(lp9785
g5
(g6
g7
(lp9786
Vbecause
p9787
atp9788
Rp9789
(dp9790
g17
VIN
p9791
sbag5
(g6
g7
(lp9792
g5
(g6
g7
(lp9793
g5
(g6
g7
(lp9794
Vit
p9795
atp9796
Rp9797
(dp9798
g17
VPRP
p9799
sbatp9800
Rp9801
(dp9802
g17
VNP
p9803
sbag5
(g6
g7
(lp9804
g5
(g6
g7
(lp9805
Vis
p9806
atp9807
Rp9808
(dp9809
g17
VVBZ
p9810
sbag5
(g6
g7
(lp9811
g5
(g6
g7
(lp9812
Vinterpretable
p9813
atp9814
Rp9815
(dp9816
g17
VJJ
p9817
sbatp9818
Rp9819
(dp9820
g17
VADJP
p9821
sbatp9822
Rp9823
(dp9824
g17
VVP
p9825
sbatp9826
Rp9827
(dp9828
g17
g192
sbatp9829
Rp9830
(dp9831
g17
VSBAR
p9832
sbatp9833
Rp9834
(dp9835
g17
VVP
p9836
sbatp9837
Rp9838
(dp9839
g17
g192
sbatp9840
Rp9841
(dp9842
g17
VSBAR
p9843
sbatp9844
Rp9845
(dp9846
g17
VNP
p9847
sbatp9848
Rp9849
(dp9850
g17
VVP
p9851
sbatp9852
Rp9853
(dp9854
g17
g192
sbatp9855
Rp9856
(dp9857
g17
VPP
p9858
sbatp9859
Rp9860
(dp9861
g17
VVP
p9862
sbatp9863
Rp9864
(dp9865
g17
VVP
p9866
sbatp9867
Rp9868
(dp9869
g17
g192
sbatp9870
Rp9871
(dp9872
g17
VROOT
p9873
sbasg400
(icmyPackage
CorE
p9874
(dp9875
g403
(lp9876
(I0
I28
tp9877
a(I0
I30
tp9878
asg407
g9827
sbsg408
(icmyPackage
CorE
p9879
(dp9880
g403
(lp9881
(I0
I0
tp9882
a(I0
I26
tp9883
asg407
g5
(g6
g7
(lp9884
g9581
ag9588
ag9594
ag9601
ag9618
ag9625
ag9633
ag9644
ag9687
ag9738
ag9743
ag9753
ag9760
ag9771
ag9782
atp9885
Rp9886
(dp9887
g17
g418
sbsbsg419
(icmyPackage
pattern
p9888
(dp9889
g422
I407
sg423
I1
sg424
(lp9890
(lp9891
S'because'
p9892
aasg429
(lp9893
I3
aI1
aI1
asg431
(lp9894
S'It ends up in burnout and less production, because we inevitably run out of energy.'
p9895
asg434
I76
sg435
(lp9896
(lp9897
S'&R'
p9898
aS'(,)'
p9899
aS'(&ADV)'
p9900
aa(lp9901
S'&C'
p9902
aasbsg444
(lp9903
(isxpPackage
sxpSent
p9904
(dp9905
g448
(lp9906
I22
asg450
VThis does not penalize the model for grouping together a u'\u005cu201c' no u'\u005cu201d' pair; we chose it nonetheless because it is interpretable
p9907
sg452
I7
sg434
I105
sg453
I36
sbasba(icmyPackage
CELink
p9908
(dp9909
g3
(lp9910
g5
(g6
g7
(lp9911
g5
(g6
g7
(lp9912
g5
(g6
g7
(lp9913
g5
(g6
g7
(lp9914
VIn
p9915
atp9916
Rp9917
(dp9918
g17
VIN
p9919
sbag5
(g6
g7
(lp9920
g5
(g6
g7
(lp9921
Vthis
p9922
atp9923
Rp9924
(dp9925
g17
VDT
p9926
sbag5
(g6
g7
(lp9927
Vmethod
p9928
atp9929
Rp9930
(dp9931
g17
VNN
p9932
sbatp9933
Rp9934
(dp9935
g17
VNP
p9936
sbatp9937
Rp9938
(dp9939
g17
VPP
p9940
sbag5
(g6
g7
(lp9941
g84
atp9942
Rp9943
(dp9944
g17
g84
sbag5
(g6
g7
(lp9945
g5
(g6
g7
(lp9946
g5
(g6
g7
(lp9947
Vthe
p9948
atp9949
Rp9950
(dp9951
g17
VDT
p9952
sbag5
(g6
g7
(lp9953
Vdesired
p9954
atp9955
Rp9956
(dp9957
g17
VVBN
p9958
sbag5
(g6
g7
(lp9959
VK
p9960
atp9961
Rp9962
(dp9963
g17
VNNP
p9964
sbag5
(g6
g7
(lp9965
V-
p9966
atp9967
Rp9968
(dp9969
g17
VVBG
p9970
sbag5
(g6
g7
(lp9971
Vway
p9972
atp9973
Rp9974
(dp9975
g17
VNN
p9976
sbatp9977
Rp9978
(dp9979
g17
VNP
p9980
sbag5
(g6
g7
(lp9981
g5
(g6
g7
(lp9982
Vclustering
p9983
atp9984
Rp9985
(dp9986
g17
VVBG
p9987
sbag5
(g6
g7
(lp9988
g5
(g6
g7
(lp9989
Vsolution
p9990
atp9991
Rp9992
(dp9993
g17
VNN
p9994
sbatp9995
Rp9996
(dp9997
g17
VNP
p9998
sbatp9999
Rp10000
(dp10001
g17
VVP
p10002
sbatp10003
Rp10004
(dp10005
g17
VNP
p10006
sbag5
(g6
g7
(lp10007
g5
(g6
g7
(lp10008
Vis
p10009
atp10010
Rp10011
(dp10012
g17
VVBZ
p10013
sbag5
(g6
g7
(lp10014
g5
(g6
g7
(lp10015
Vcomputed
p10016
atp10017
Rp10018
(dp10019
g17
VVBN
p10020
sbag5
(g6
g7
(lp10021
g5
(g6
g7
(lp10022
Vby
p10023
atp10024
Rp10025
(dp10026
g17
VIN
p10027
sbag5
(g6
g7
(lp10028
g5
(g6
g7
(lp10029
g5
(g6
g7
(lp10030
Vperforming
p10031
atp10032
Rp10033
(dp10034
g17
VVBG
p10035
sbag5
(g6
g7
(lp10036
g5
(g6
g7
(lp10037
g5
(g6
g7
(lp10038
g267
atp10039
Rp10040
(dp10041
g17
VDT
p10042
sbag5
(g6
g7
(lp10043
Vsequence
p10044
atp10045
Rp10046
(dp10047
g17
VNN
p10048
sbatp10049
Rp10050
(dp10051
g17
VNP
p10052
sbag5
(g6
g7
(lp10053
g5
(g6
g7
(lp10054
Vof
p10055
atp10056
Rp10057
(dp10058
g17
VIN
p10059
sbag5
(g6
g7
(lp10060
g5
(g6
g7
(lp10061
Vbisections
p10062
atp10063
Rp10064
(dp10065
g17
VNNS
p10066
sbatp10067
Rp10068
(dp10069
g17
VNP
p10070
sbatp10071
Rp10072
(dp10073
g17
VPP
p10074
sbatp10075
Rp10076
(dp10077
g17
VNP
p10078
sbatp10079
Rp10080
(dp10081
g17
VVP
p10082
sbatp10083
Rp10084
(dp10085
g17
g192
sbatp10086
Rp10087
(dp10088
g17
VPP
p10089
sbatp10090
Rp10091
(dp10092
g17
VVP
p10093
sbatp10094
Rp10095
(dp10096
g17
VVP
p10097
sbatp10098
Rp10099
(dp10100
g17
g192
sbatp10101
Rp10102
(dp10103
g17
VROOT
p10104
sbasg400
(icmyPackage
CorE
p10105
(dp10106
g403
(lp10107
(I0
I14
tp10108
a(I0
I18
tp10109
asg407
g10084
sbsg408
(icmyPackage
CorE
p10110
(dp10111
g403
(lp10112
(I0
I0
tp10113
a(I0
I12
tp10114
asg407
g5
(g6
g7
(lp10115
g9938
ag9943
ag10004
ag10011
ag10018
atp10116
Rp10117
(dp10118
g17
g418
sbsbsg419
(icmyPackage
pattern
p10119
(dp10120
g422
I0
sg423
I0
sg424
(lp10121
(lp10122
(lp10123
S'by'
p10124
aS'through'
p10125
aaasg429
(lp10126
I2
aI1
aI1
asg431
(lp10127
S'The similar relation can be detected by analyzing the contents of nodes based on such approaches as the Latent Semantic Analysis (LSA) and the Vector Space Model (VSM)'
p10128
asg434
I68
sg435
(lp10129
(lp10130
S'&R@Complete@'
p10131
aa(lp10132
S'&V-ing@C@'
p10133
aasbsg444
(lp10134
(isxpPackage
sxpSent
p10135
(dp10136
g448
(lp10137
I23
asg450
VIn this method, the desired K -way clustering solution is computed by performing a sequence of bisections
p10138
sg452
I8
sg434
I109
sg453
I38
sbasba(icmyPackage
CELink
p10139
(dp10140
g3
(lp10141
g5
(g6
g7
(lp10142
g5
(g6
g7
(lp10143
g5
(g6
g7
(lp10144
g5
(g6
g7
(lp10145
VIn
p10146
atp10147
Rp10148
(dp10149
g17
VIN
p10150
sbag5
(g6
g7
(lp10151
g5
(g6
g7
(lp10152
Vthe
p10153
atp10154
Rp10155
(dp10156
g17
VDT
p10157
sbag5
(g6
g7
(lp10158
Vhuman
p10159
atp10160
Rp10161
(dp10162
g17
VJJ
p10163
sbag5
(g6
g7
(lp10164
VQA
p10165
atp10166
Rp10167
(dp10168
g17
VNNP
p10169
sbag5
(g6
g7
(lp10170
Vevaluation
p10171
atp10172
Rp10173
(dp10174
g17
VNN
p10175
sbatp10176
Rp10177
(dp10178
g17
VNP
p10179
sbatp10180
Rp10181
(dp10182
g17
VPP
p10183
sbag5
(g6
g7
(lp10184
g84
atp10185
Rp10186
(dp10187
g17
g84
sbag5
(g6
g7
(lp10188
g5
(g6
g7
(lp10189
Vthis
p10190
atp10191
Rp10192
(dp10193
g17
VDT
p10194
sbatp10195
Rp10196
(dp10197
g17
VNP
p10198
sbag5
(g6
g7
(lp10199
g5
(g6
g7
(lp10200
Vis
p10201
atp10202
Rp10203
(dp10204
g17
VVBZ
p10205
sbag5
(g6
g7
(lp10206
g5
(g6
g7
(lp10207
g5
(g6
g7
(lp10208
Vmostly
p10209
atp10210
Rp10211
(dp10212
g17
VRB
p10213
sbag5
(g6
g7
(lp10214
Vdue
p10215
atp10216
Rp10217
(dp10218
g17
VJJ
p10219
sbatp10220
Rp10221
(dp10222
g17
VADJP
p10223
sbag5
(g6
g7
(lp10224
g5
(g6
g7
(lp10225
Vto
p10226
atp10227
Rp10228
(dp10229
g17
VTO
p10230
sbag5
(g6
g7
(lp10231
g5
(g6
g7
(lp10232
g5
(g6
g7
(lp10233
Vrecall
p10234
atp10235
Rp10236
(dp10237
g17
VNN
p10238
sbag5
(g6
g7
(lp10239
Vimprovements
p10240
atp10241
Rp10242
(dp10243
g17
VNNS
p10244
sbatp10245
Rp10246
(dp10247
g17
VNP
p10248
sbag5
(g6
g7
(lp10249
V-LRB-
p10250
atp10251
Rp10252
(dp10253
g17
V-LRB-
p10254
sbag5
(g6
g7
(lp10255
g5
(g6
g7
(lp10256
Vi.e.
p10257
atp10258
Rp10259
(dp10260
g17
VNNP
p10261
sbatp10262
Rp10263
(dp10264
g17
VNP
p10265
sbag5
(g6
g7
(lp10266
g84
atp10267
Rp10268
(dp10269
g17
g84
sbatp10270
Rp10271
(dp10272
g17
VNP
p10273
sbatp10274
Rp10275
(dp10276
g17
VPP
p10277
sbag5
(g6
g7
(lp10278
g84
atp10279
Rp10280
(dp10281
g17
g84
sbag5
(g6
g7
(lp10282
g5
(g6
g7
(lp10283
g5
(g6
g7
(lp10284
g5
(g6
g7
(lp10285
g5
(g6
g7
(lp10286
Vmore
p10287
atp10288
Rp10289
(dp10290
g17
VJJR
p10291
sbag5
(g6
g7
(lp10292
Vpairs
p10293
atp10294
Rp10295
(dp10296
g17
VNNS
p10297
sbatp10298
Rp10299
(dp10300
g17
VNP
p10301
sbag5
(g6
g7
(lp10302
g5
(g6
g7
(lp10303
Vof
p10304
atp10305
Rp10306
(dp10307
g17
VIN
p10308
sbag5
(g6
g7
(lp10309
g5
(g6
g7
(lp10310
g5
(g6
g7
(lp10311
Vsections
p10312
atp10313
Rp10314
(dp10315
g17
VNNS
p10316
sbatp10317
Rp10318
(dp10319
g17
VNP
p10320
sbag5
(g6
g7
(lp10321
g5
(g6
g7
(lp10322
Vrelevant
p10323
atp10324
Rp10325
(dp10326
g17
VJJ
p10327
sbag5
(g6
g7
(lp10328
g5
(g6
g7
(lp10329
Vto
p10330
atp10331
Rp10332
(dp10333
g17
VTO
p10334
sbag5
(g6
g7
(lp10335
g5
(g6
g7
(lp10336
Vthe
p10337
atp10338
Rp10339
(dp10340
g17
VDT
p10341
sbag5
(g6
g7
(lp10342
Vsame
p10343
atp10344
Rp10345
(dp10346
g17
VJJ
p10347
sbag5
(g6
g7
(lp10348
Vpolicy
p10349
atp10350
Rp10351
(dp10352
g17
VNN
p10353
sbag5
(g6
g7
(lp10354
Vquestion
p10355
atp10356
Rp10357
(dp10358
g17
VNN
p10359
sbatp10360
Rp10361
(dp10362
g17
VNP
p10363
sbatp10364
Rp10365
(dp10366
g17
VPP
p10367
sbatp10368
Rp10369
(dp10370
g17
VADJP
p10371
sbatp10372
Rp10373
(dp10374
g17
VNP
p10375
sbatp10376
Rp10377
(dp10378
g17
VPP
p10379
sbatp10380
Rp10381
(dp10382
g17
VNP
p10383
sbag5
(g6
g7
(lp10384
g5
(g6
g7
(lp10385
Vwere
p10386
atp10387
Rp10388
(dp10389
g17
VVBD
p10390
sbag5
(g6
g7
(lp10391
g5
(g6
g7
(lp10392
Vgrouped
p10393
atp10394
Rp10395
(dp10396
g17
VVBN
p10397
sbag5
(g6
g7
(lp10398
g5
(g6
g7
(lp10399
Vtogether
p10400
atp10401
Rp10402
(dp10403
g17
VRB
p10404
sbatp10405
Rp10406
(dp10407
g17
VADVP
p10408
sbatp10409
Rp10410
(dp10411
g17
VVP
p10412
sbatp10413
Rp10414
(dp10415
g17
VVP
p10416
sbatp10417
Rp10418
(dp10419
g17
g192
sbatp10420
Rp10421
(dp10422
g17
VSBAR
p10423
sbatp10424
Rp10425
(dp10426
g17
VADJP
p10427
sbatp10428
Rp10429
(dp10430
g17
VVP
p10431
sbatp10432
Rp10433
(dp10434
g17
g192
sbatp10435
Rp10436
(dp10437
g17
VROOT
p10438
sbasg400
(icmyPackage
CorE
p10439
(dp10440
g403
(lp10441
(I0
I11
tp10442
a(I0
I15
tp10443
asg407
g10271
sbsg408
(icmyPackage
CorE
p10444
(dp10445
g403
(lp10446
(I0
I17
tp10447
a(I0
I29
tp10448
asg407
g10421
sbsg419
(icmyPackage
pattern
p10449
(dp10450
g422
I0
sg423
I0
sg424
(lp10451
(lp10452
S'due'
p10453
aS'to'
p10454
aasg429
(lp10455
I2
aI1
aI1
asg431
(lp10456
S'Due to limitations in size and legal rules, our efforts did not blossom'
p10457
asg434
I71
sg435
(lp10458
(lp10459
a(lp10460
S'&NP@C@'
p10461
aS'(,)'
p10462
aS'&R'
p10463
aasbsg444
(lp10464
(isxpPackage
sxpSent
p10465
(dp10466
g448
(lp10467
I24
asg450
VIn the human QA evaluation, this is mostly due to recall improvements (i.e.,, more pairs of sections relevant to the same policy question were grouped together
p10468
sg452
I8
sg434
I117
sg453
I39
sbasba(icmyPackage
CELink
p10469
(dp10470
g3
(lp10471
g5
(g6
g7
(lp10472
g5
(g6
g7
(lp10473
g5
(g6
g7
(lp10474
g5
(g6
g7
(lp10475
VWe
p10476
atp10477
Rp10478
(dp10479
g17
VPRP
p10480
sbatp10481
Rp10482
(dp10483
g17
VNP
p10484
sbag5
(g6
g7
(lp10485
g5
(g6
g7
(lp10486
Vconsidered
p10487
atp10488
Rp10489
(dp10490
g17
VVBD
p10491
sbag5
(g6
g7
(lp10492
g5
(g6
g7
(lp10493
g5
(g6
g7
(lp10494
Vthe
p10495
atp10496
Rp10497
(dp10498
g17
VDT
p10499
sbag5
(g6
g7
(lp10500
Vtask
p10501
atp10502
Rp10503
(dp10504
g17
VNN
p10505
sbatp10506
Rp10507
(dp10508
g17
VNP
p10509
sbag5
(g6
g7
(lp10510
g5
(g6
g7
(lp10511
Vof
p10512
atp10513
Rp10514
(dp10515
g17
VIN
p10516
sbag5
(g6
g7
(lp10517
g5
(g6
g7
(lp10518
g5
(g6
g7
(lp10519
Valigning
p10520
atp10521
Rp10522
(dp10523
g17
VVBG
p10524
sbag5
(g6
g7
(lp10525
Vsections
p10526
atp10527
Rp10528
(dp10529
g17
VNNS
p10530
sbatp10531
Rp10532
(dp10533
g17
VNP
p10534
sbag5
(g6
g7
(lp10535
g5
(g6
g7
(lp10536
Vof
p10537
atp10538
Rp10539
(dp10540
g17
VIN
p10541
sbag5
(g6
g7
(lp10542
g5
(g6
g7
(lp10543
g5
(g6
g7
(lp10544
g267
atp10545
Rp10546
(dp10547
g17
VDT
p10548
sbag5
(g6
g7
(lp10549
Vcollection
p10550
atp10551
Rp10552
(dp10553
g17
VNN
p10554
sbatp10555
Rp10556
(dp10557
g17
VNP
p10558
sbag5
(g6
g7
(lp10559
g5
(g6
g7
(lp10560
Vof
p10561
atp10562
Rp10563
(dp10564
g17
VIN
p10565
sbag5
(g6
g7
(lp10566
g5
(g6
g7
(lp10567
g5
(g6
g7
(lp10568
Vroughly
p10569
atp10570
Rp10571
(dp10572
g17
VRB
p10573
sbag5
(g6
g7
(lp10574
Vsimilarly-structured
p10575
atp10576
Rp10577
(dp10578
g17
VJJ
p10579
sbatp10580
Rp10581
(dp10582
g17
VADJP
p10583
sbag5
(g6
g7
(lp10584
Vlegal
p10585
atp10586
Rp10587
(dp10588
g17
VJJ
p10589
sbag5
(g6
g7
(lp10590
Vdocuments
p10591
atp10592
Rp10593
(dp10594
g17
VNNS
p10595
sbatp10596
Rp10597
(dp10598
g17
VNP
p10599
sbatp10600
Rp10601
(dp10602
g17
VPP
p10603
sbatp10604
Rp10605
(dp10606
g17
VNP
p10607
sbatp10608
Rp10609
(dp10610
g17
VPP
p10611
sbatp10612
Rp10613
(dp10614
g17
VNP
p10615
sbatp10616
Rp10617
(dp10618
g17
VPP
p10619
sbatp10620
Rp10621
(dp10622
g17
VNP
p10623
sbag5
(g6
g7
(lp10624
g84
atp10625
Rp10626
(dp10627
g17
g84
sbag5
(g6
g7
(lp10628
g5
(g6
g7
(lp10629
Vbased
p10630
atp10631
Rp10632
(dp10633
g17
VVBN
p10634
sbag5
(g6
g7
(lp10635
g5
(g6
g7
(lp10636
Von
p10637
atp10638
Rp10639
(dp10640
g17
VIN
p10641
sbag5
(g6
g7
(lp10642
g5
(g6
g7
(lp10643
g5
(g6
g7
(lp10644
Vthe
p10645
atp10646
Rp10647
(dp10648
g17
VDT
p10649
sbag5
(g6
g7
(lp10650
Vissues
p10651
atp10652
Rp10653
(dp10654
g17
VNNS
p10655
sbatp10656
Rp10657
(dp10658
g17
VNP
p10659
sbag5
(g6
g7
(lp10660
g5
(g6
g7
(lp10661
g5
(g6
g7
(lp10662
g5
(g6
g7
(lp10663
Vthey
p10664
atp10665
Rp10666
(dp10667
g17
VPRP
p10668
sbatp10669
Rp10670
(dp10671
g17
VNP
p10672
sbag5
(g6
g7
(lp10673
g5
(g6
g7
(lp10674
Vaddress
p10675
atp10676
Rp10677
(dp10678
g17
VVBP
p10679
sbatp10680
Rp10681
(dp10682
g17
VVP
p10683
sbatp10684
Rp10685
(dp10686
g17
g192
sbatp10687
Rp10688
(dp10689
g17
VSBAR
p10690
sbatp10691
Rp10692
(dp10693
g17
VNP
p10694
sbatp10695
Rp10696
(dp10697
g17
VPP
p10698
sbatp10699
Rp10700
(dp10701
g17
VPP
p10702
sbatp10703
Rp10704
(dp10705
g17
VVP
p10706
sbatp10707
Rp10708
(dp10709
g17
g192
sbatp10710
Rp10711
(dp10712
g17
VROOT
p10713
sbasg400
(icmyPackage
CorE
p10714
(dp10715
g403
(lp10716
(I0
I18
tp10717
a(I0
I21
tp10718
asg407
g10692
sbsg408
(icmyPackage
CorE
p10719
(dp10720
g403
(lp10721
(I0
I0
tp10722
a(I0
I14
tp10723
asg407
g5
(g6
g7
(lp10724
g10482
ag10489
ag10621
atp10725
Rp10726
(dp10727
g17
g418
sbsbsg419
g420
sg444
(lp10728
(isxpPackage
sxpSent
p10729
(dp10730
g448
(lp10731
I25
asg450
VWe considered the task of aligning sections of a collection of roughly similarly-structured legal documents, based on the issues they address
p10732
sg452
I11
sg434
I120
sg453
I41
sbasba.