(lp0
(icmyPackage
CELink
p1
(dp2
S'PTreelst'
p3
(lp4
ccopy_reg
_reconstructor
p5
(cnltk.tree
Tree
p6
c__builtin__
list
p7
(lp8
g5
(g6
g7
(lp9
g5
(g6
g7
(lp10
g5
(g6
g7
(lp11
g5
(g6
g7
(lp12
VThe
p13
atp14
Rp15
(dp16
S'_label'
p17
VDT
p18
sbag5
(g6
g7
(lp19
Vautomatic
p20
atp21
Rp22
(dp23
g17
VJJ
p24
sbag5
(g6
g7
(lp25
Vlabelling
p26
atp27
Rp28
(dp29
g17
VNN
p30
sbatp31
Rp32
(dp33
g17
VNP
p34
sbag5
(g6
g7
(lp35
g5
(g6
g7
(lp36
Vof
p37
atp38
Rp39
(dp40
g17
VIN
p41
sbag5
(g6
g7
(lp42
g5
(g6
g7
(lp43
g5
(g6
g7
(lp44
Vsuch
p45
atp46
Rp47
(dp48
g17
VJJ
p49
sbag5
(g6
g7
(lp50
Vtopics
p51
atp52
Rp53
(dp54
g17
VNNS
p55
sbatp56
Rp57
(dp58
g17
VNP
p59
sbag5
(g6
g7
(lp60
g5
(g6
g7
(lp61
Vderived
p62
atp63
Rp64
(dp65
g17
VVBN
p66
sbag5
(g6
g7
(lp67
g5
(g6
g7
(lp68
Vfrom
p69
atp70
Rp71
(dp72
g17
VIN
p73
sbag5
(g6
g7
(lp74
g5
(g6
g7
(lp75
Vsocial
p76
atp77
Rp78
(dp79
g17
VJJ
p80
sbag5
(g6
g7
(lp81
Vmedia
p82
atp83
Rp84
(dp85
g17
VNNS
p86
sbatp87
Rp88
(dp89
g17
VNP
p90
sbatp91
Rp92
(dp93
g17
VPP
p94
sbatp95
Rp96
(dp97
g17
VVP
p98
sbatp99
Rp100
(dp101
g17
VNP
p102
sbatp103
Rp104
(dp105
g17
VPP
p106
sbatp107
Rp108
(dp109
g17
VNP
p110
sbag5
(g6
g7
(lp111
g5
(g6
g7
(lp112
Vposes
p113
atp114
Rp115
(dp116
g17
VVBZ
p117
sbag5
(g6
g7
(lp118
g5
(g6
g7
(lp119
Vhowever
p120
atp121
Rp122
(dp123
g17
VRB
p124
sbatp125
Rp126
(dp127
g17
VADVP
p128
sbag5
(g6
g7
(lp129
g5
(g6
g7
(lp130
Vnew
p131
atp132
Rp133
(dp134
g17
VJJ
p135
sbag5
(g6
g7
(lp136
Vchallenges
p137
atp138
Rp139
(dp140
g17
VNNS
p141
sbatp142
Rp143
(dp144
g17
VNP
p145
sbag5
(g6
g7
(lp146
g5
(g6
g7
(lp147
Vsince
p148
atp149
Rp150
(dp151
g17
VIN
p152
sbag5
(g6
g7
(lp153
g5
(g6
g7
(lp154
g5
(g6
g7
(lp155
Vtopics
p156
atp157
Rp158
(dp159
g17
VNNS
p160
sbatp161
Rp162
(dp163
g17
VNP
p164
sbag5
(g6
g7
(lp165
g5
(g6
g7
(lp166
Vmay
p167
atp168
Rp169
(dp170
g17
VMD
p171
sbag5
(g6
g7
(lp172
g5
(g6
g7
(lp173
Vcharacterise
p174
atp175
Rp176
(dp177
g17
VVB
p178
sbag5
(g6
g7
(lp179
g5
(g6
g7
(lp180
g5
(g6
g7
(lp181
Vnovel
p182
atp183
Rp184
(dp185
g17
VNN
p186
sbag5
(g6
g7
(lp187
Vevents
p188
atp189
Rp190
(dp191
g17
VNNS
p192
sbatp193
Rp194
(dp195
g17
VNP
p196
sbag5
(g6
g7
(lp197
g5
(g6
g7
(lp198
Vhappening
p199
atp200
Rp201
(dp202
g17
VVBG
p203
sbag5
(g6
g7
(lp204
g5
(g6
g7
(lp205
Vin
p206
atp207
Rp208
(dp209
g17
VIN
p210
sbag5
(g6
g7
(lp211
g5
(g6
g7
(lp212
Vthe
p213
atp214
Rp215
(dp216
g17
VDT
p217
sbag5
(g6
g7
(lp218
Vreal
p219
atp220
Rp221
(dp222
g17
VJJ
p223
sbag5
(g6
g7
(lp224
Vworld
p225
atp226
Rp227
(dp228
g17
VNN
p229
sbatp230
Rp231
(dp232
g17
VNP
p233
sbatp234
Rp235
(dp236
g17
VPP
p237
sbatp238
Rp239
(dp240
g17
VVP
p241
sbatp242
Rp243
(dp244
g17
VNP
p245
sbatp246
Rp247
(dp248
g17
VVP
p249
sbatp250
Rp251
(dp252
g17
VVP
p253
sbatp254
Rp255
(dp256
g17
VS
p257
sbatp258
Rp259
(dp260
g17
VSBAR
p261
sbatp262
Rp263
(dp264
g17
VVP
p265
sbatp266
Rp267
(dp268
g17
g257
sbatp269
Rp270
(dp271
g17
VROOT
p272
sbasS'cause'
p273
(icmyPackage
CorE
p274
(dp275
S'span'
p276
(lp277
(I0
I15
tp278
a(I0
I24
tp279
asS'PTree'
p280
g255
sbsS'effect'
p281
(icmyPackage
CorE
p282
(dp283
g276
(lp284
(I0
I0
tp285
a(I0
I13
tp286
asg280
g5
(g6
g7
(lp287
g108
ag115
ag126
ag143
atp288
Rp289
(dp290
g17
S'ROOT'
p291
sbsbsS'pt'
p292
(icmyPackage
pattern
p293
(dp294
S'pfreq'
p295
I23
sS'moresent'
p296
I1
sS'main_token'
p297
(lp298
(lp299
S'since'
p300
aasS'ptype'
p301
(lp302
I3
aI1
aI1
asS'cases'
p303
(lp304
S'This is one of the simplest cases since the surface is so thin.'
p305
aS'He could not answer the question, since he had not made up his mind.'
p306
aS'That manager has been a basket case here since his wife left him.'
p307
asS'id'
p308
I79
sS'constraints'
p309
(lp310
(lp311
S'&R@NCTime@'
p312
aS'(,)'
p313
aa(lp314
S'&C@NCTime@'
p315
aasbsS'sInfo'
p316
(lp317
(isxpPackage
sxpSent
p318
(dp319
S'sysCEidlst'
p320
(lp321
I0
asS'sentence_text'
p322
VThe automatic labelling of such topics derived from social media poses however new challenges since topics may characterise novel events happening in the real world
p323
sS'id_sec'
p324
I1
sg308
I1
sS'id_para'
p325
I0
sbasba(icmyPackage
CELink
p326
(dp327
g3
(lp328
g5
(g6
g7
(lp329
g5
(g6
g7
(lp330
g5
(g6
g7
(lp331
g5
(g6
g7
(lp332
g5
(g6
g7
(lp333
VExisting
p334
atp335
Rp336
(dp337
g17
VVBG
p338
sbag5
(g6
g7
(lp339
Vautomatic
p340
atp341
Rp342
(dp343
g17
VJJ
p344
sbag5
(g6
g7
(lp345
Vtopic
p346
atp347
Rp348
(dp349
g17
VNN
p350
sbatp351
Rp352
(dp353
g17
VNP
p354
sbag5
(g6
g7
(lp355
g5
(g6
g7
(lp356
Vlabelling
p357
atp358
Rp359
(dp360
g17
VVBG
p361
sbag5
(g6
g7
(lp362
g5
(g6
g7
(lp363
g5
(g6
g7
(lp364
Vapproaches
p365
atp366
Rp367
(dp368
g17
VNNS
p369
sbatp370
Rp371
(dp372
g17
VNP
p373
sbag5
(g6
g7
(lp374
g5
(g6
g7
(lp375
g5
(g6
g7
(lp376
Vwhich
p377
atp378
Rp379
(dp380
g17
VWDT
p381
sbatp382
Rp383
(dp384
g17
VWHNP
p385
sbag5
(g6
g7
(lp386
g5
(g6
g7
(lp387
g5
(g6
g7
(lp388
Vdepend
p389
atp390
Rp391
(dp392
g17
VVBP
p393
sbag5
(g6
g7
(lp394
g5
(g6
g7
(lp395
Von
p396
atp397
Rp398
(dp399
g17
VIN
p400
sbag5
(g6
g7
(lp401
g5
(g6
g7
(lp402
g5
(g6
g7
(lp403
Vexternal
p404
atp405
Rp406
(dp407
g17
VJJ
p408
sbag5
(g6
g7
(lp409
Vknowledge
p410
atp411
Rp412
(dp413
g17
VNN
p414
sbag5
(g6
g7
(lp415
Vsources
p416
atp417
Rp418
(dp419
g17
VNNS
p420
sbatp421
Rp422
(dp423
g17
VNP
p424
sbag5
(g6
g7
(lp425
g5
(g6
g7
(lp426
Vbecome
p427
atp428
Rp429
(dp430
g17
VVBN
p431
sbag5
(g6
g7
(lp432
g5
(g6
g7
(lp433
g5
(g6
g7
(lp434
Vless
p435
atp436
Rp437
(dp438
g17
VRBR
p439
sbag5
(g6
g7
(lp440
Vapplicable
p441
atp442
Rp443
(dp444
g17
VJJ
p445
sbatp446
Rp447
(dp448
g17
VADJP
p449
sbatp450
Rp451
(dp452
g17
g257
sbag5
(g6
g7
(lp453
g5
(g6
g7
(lp454
g5
(g6
g7
(lp455
Vhere
p456
atp457
Rp458
(dp459
g17
VRB
p460
sbatp461
Rp462
(dp463
g17
VADVP
p464
sbag5
(g6
g7
(lp465
Vsince
p466
atp467
Rp468
(dp469
g17
VIN
p470
sbag5
(g6
g7
(lp471
g5
(g6
g7
(lp472
g5
(g6
g7
(lp473
Vrelevant
p474
atp475
Rp476
(dp477
g17
VJJ
p478
sbag5
(g6
g7
(lp479
Varticles/concepts
p480
atp481
Rp482
(dp483
g17
VNNS
p484
sbatp485
Rp486
(dp487
g17
VNP
p488
sbag5
(g6
g7
(lp489
g5
(g6
g7
(lp490
Vof
p491
atp492
Rp493
(dp494
g17
VIN
p495
sbag5
(g6
g7
(lp496
g5
(g6
g7
(lp497
Vthe
p498
atp499
Rp500
(dp501
g17
VDT
p502
sbag5
(g6
g7
(lp503
Vextracted
p504
atp505
Rp506
(dp507
g17
VJJ
p508
sbag5
(g6
g7
(lp509
Vtopics
p510
atp511
Rp512
(dp513
g17
VNNS
p514
sbatp515
Rp516
(dp517
g17
VNP
p518
sbatp519
Rp520
(dp521
g17
VPP
p522
sbatp523
Rp524
(dp525
g17
VNP
p526
sbatp527
Rp528
(dp529
g17
VPP
p530
sbatp531
Rp532
(dp533
g17
VVP
p534
sbatp535
Rp536
(dp537
g17
VNP
p538
sbatp539
Rp540
(dp541
g17
VPP
p542
sbatp543
Rp544
(dp545
g17
VVP
p546
sbatp547
Rp548
(dp549
g17
g257
sbatp550
Rp551
(dp552
g17
VSBAR
p553
sbatp554
Rp555
(dp556
g17
VNP
p557
sbatp558
Rp559
(dp560
g17
VVP
p561
sbatp562
Rp563
(dp564
g17
VNP
p565
sbag5
(g6
g7
(lp566
g5
(g6
g7
(lp567
Vmay
p568
atp569
Rp570
(dp571
g17
VMD
p572
sbag5
(g6
g7
(lp573
Vnot
p574
atp575
Rp576
(dp577
g17
VRB
p578
sbag5
(g6
g7
(lp579
g5
(g6
g7
(lp580
Vexist
p581
atp582
Rp583
(dp584
g17
VVB
p585
sbag5
(g6
g7
(lp586
g5
(g6
g7
(lp587
Vin
p588
atp589
Rp590
(dp591
g17
VIN
p592
sbag5
(g6
g7
(lp593
g5
(g6
g7
(lp594
Vexternal
p595
atp596
Rp597
(dp598
g17
VJJ
p599
sbag5
(g6
g7
(lp600
Vsources
p601
atp602
Rp603
(dp604
g17
VNNS
p605
sbatp606
Rp607
(dp608
g17
VNP
p609
sbatp610
Rp611
(dp612
g17
VPP
p613
sbatp614
Rp615
(dp616
g17
VVP
p617
sbatp618
Rp619
(dp620
g17
VVP
p621
sbatp622
Rp623
(dp624
g17
g257
sbatp625
Rp626
(dp627
g17
VROOT
p628
sbasg273
(icmyPackage
CorE
p629
(dp630
g276
(lp631
(I0
I16
tp632
a(I0
I27
tp633
asg280
g5
(g6
g7
(lp634
g524
ag619
atp635
Rp636
(dp637
g17
g291
sbsbsg281
(icmyPackage
CorE
p638
(dp639
g276
(lp640
(I0
I0
tp641
a(I0
I14
tp642
asg280
g5
(g6
g7
(lp643
g352
ag359
ag371
ag383
ag391
ag398
ag422
ag429
ag451
ag462
atp644
Rp645
(dp646
g17
g291
sbsbsg292
g293
sg316
(lp647
(isxpPackage
sxpSent
p648
(dp649
g320
(lp650
I1
asg322
VExisting automatic topic labelling approaches which depend on external knowledge sources become less applicable here since relevant articles/concepts of the extracted topics may not exist in external sources
p651
sg324
I1
sg308
I2
sg325
I0
sbasba(icmyPackage
CELink
p652
(dp653
g3
(lp654
g5
(g6
g7
(lp655
g5
(g6
g7
(lp656
g5
(g6
g7
(lp657
g5
(g6
g7
(lp658
VThis
p659
atp660
Rp661
(dp662
g17
VDT
p663
sbag5
(g6
g7
(lp664
Vtask
p665
atp666
Rp667
(dp668
g17
VNN
p669
sbatp670
Rp671
(dp672
g17
VNP
p673
sbag5
(g6
g7
(lp674
g5
(g6
g7
(lp675
Vhas
p676
atp677
Rp678
(dp679
g17
VVBZ
p680
sbag5
(g6
g7
(lp681
g5
(g6
g7
(lp682
Vbeen
p683
atp684
Rp685
(dp686
g17
VVBN
p687
sbag5
(g6
g7
(lp688
g5
(g6
g7
(lp689
Vapproached
p690
atp691
Rp692
(dp693
g17
VVBN
p694
sbag5
(g6
g7
(lp695
g5
(g6
g7
(lp696
Vby
p697
atp698
Rp699
(dp700
g17
VIN
p701
sbag5
(g6
g7
(lp702
g5
(g6
g7
(lp703
g5
(g6
g7
(lp704
Vinvestigating
p705
atp706
Rp707
(dp708
g17
VVBG
p709
sbag5
(g6
g7
(lp710
g5
(g6
g7
(lp711
Vmethodologies
p712
atp713
Rp714
(dp715
g17
VNNS
p716
sbatp717
Rp718
(dp719
g17
VNP
p720
sbag5
(g6
g7
(lp721
g5
(g6
g7
(lp722
g5
(g6
g7
(lp723
Vfor
p724
atp725
Rp726
(dp727
g17
VIN
p728
sbag5
(g6
g7
(lp729
g5
(g6
g7
(lp730
g5
(g6
g7
(lp731
Videntifying
p732
atp733
Rp734
(dp735
g17
VVBG
p736
sbag5
(g6
g7
(lp737
g5
(g6
g7
(lp738
Vmeaningful
p739
atp740
Rp741
(dp742
g17
VJJ
p743
sbag5
(g6
g7
(lp744
Vtopics
p745
atp746
Rp747
(dp748
g17
VNNS
p749
sbatp750
Rp751
(dp752
g17
VNP
p753
sbag5
(g6
g7
(lp754
g5
(g6
g7
(lp755
Vthrough
p756
atp757
Rp758
(dp759
g17
VIN
p760
sbag5
(g6
g7
(lp761
g5
(g6
g7
(lp762
Vsemantic
p763
atp764
Rp765
(dp766
g17
VJJ
p767
sbag5
(g6
g7
(lp768
Vcoherence
p769
atp770
Rp771
(dp772
g17
VNN
p773
sbatp774
Rp775
(dp776
g17
VNP
p777
sbatp778
Rp779
(dp780
g17
VPP
p781
sbag5
(g6
g7
(lp782
g5
(g6
g7
(lp783
g5
(g6
g7
(lp784
V-LSB-
p785
atp786
Rp787
(dp788
g17
VNNP
p789
sbag5
(g6
g7
(lp790
V1
p791
atp792
Rp793
(dp794
g17
VCD
p795
sbag5
(g6
g7
(lp796
V,
p797
atp798
Rp799
(dp800
g17
g797
sbag5
(g6
g7
(lp801
V24
p802
atp803
Rp804
(dp805
g17
VCD
p806
sbatp807
Rp808
(dp809
g17
VNP
p810
sbag5
(g6
g7
(lp811
g797
atp812
Rp813
(dp814
g17
g797
sbag5
(g6
g7
(lp815
g5
(g6
g7
(lp816
V27
p817
atp818
Rp819
(dp820
g17
VCD
p821
sbag5
(g6
g7
(lp822
V-RSB-
p823
atp824
Rp825
(dp826
g17
VNNS
p827
sbatp828
Rp829
(dp830
g17
VNP
p831
sbatp832
Rp833
(dp834
g17
VNP
p835
sbatp836
Rp837
(dp838
g17
VVP
p839
sbatp840
Rp841
(dp842
g17
g257
sbatp843
Rp844
(dp845
g17
VPP
p846
sbag5
(g6
g7
(lp847
Vand
p848
atp849
Rp850
(dp851
g17
VCC
p852
sbag5
(g6
g7
(lp853
g5
(g6
g7
(lp854
Vfor
p855
atp856
Rp857
(dp858
g17
VIN
p859
sbag5
(g6
g7
(lp860
g5
(g6
g7
(lp861
g5
(g6
g7
(lp862
Vcharacterising
p863
atp864
Rp865
(dp866
g17
VVBG
p867
sbag5
(g6
g7
(lp868
g5
(g6
g7
(lp869
g5
(g6
g7
(lp870
Vthe
p871
atp872
Rp873
(dp874
g17
VDT
p875
sbag5
(g6
g7
(lp876
Vsemantic
p877
atp878
Rp879
(dp880
g17
VJJ
p881
sbag5
(g6
g7
(lp882
Vcontent
p883
atp884
Rp885
(dp886
g17
VNN
p887
sbatp888
Rp889
(dp890
g17
VNP
p891
sbag5
(g6
g7
(lp892
g5
(g6
g7
(lp893
Vof
p894
atp895
Rp896
(dp897
g17
VIN
p898
sbag5
(g6
g7
(lp899
g5
(g6
g7
(lp900
Va
p901
atp902
Rp903
(dp904
g17
VDT
p905
sbag5
(g6
g7
(lp906
Vtopic
p907
atp908
Rp909
(dp910
g17
VNN
p911
sbatp912
Rp913
(dp914
g17
VNP
p915
sbatp916
Rp917
(dp918
g17
VPP
p919
sbatp920
Rp921
(dp922
g17
VNP
p923
sbag5
(g6
g7
(lp924
g5
(g6
g7
(lp925
Vthrough
p926
atp927
Rp928
(dp929
g17
VIN
p930
sbag5
(g6
g7
(lp931
g5
(g6
g7
(lp932
g5
(g6
g7
(lp933
g5
(g6
g7
(lp934
Vautomatic
p935
atp936
Rp937
(dp938
g17
VJJ
p939
sbag5
(g6
g7
(lp940
Vlabelling
p941
atp942
Rp943
(dp944
g17
VJJ
p945
sbag5
(g6
g7
(lp946
Vtechniques
p947
atp948
Rp949
(dp950
g17
VNNS
p951
sbatp952
Rp953
(dp954
g17
VNP
p955
sbag5
(g6
g7
(lp956
g5
(g6
g7
(lp957
V-LSB-
p958
atp959
Rp960
(dp961
g17
VNNP
p962
sbag5
(g6
g7
(lp963
V12
p964
atp965
Rp966
(dp967
g17
VCD
p968
sbag5
(g6
g7
(lp969
g797
atp970
Rp971
(dp972
g17
g797
sbag5
(g6
g7
(lp973
V14
p974
atp975
Rp976
(dp977
g17
VCD
p978
sbatp979
Rp980
(dp981
g17
VNP
p982
sbatp983
Rp984
(dp985
g17
VNP
p986
sbag5
(g6
g7
(lp987
g797
atp988
Rp989
(dp990
g17
g797
sbag5
(g6
g7
(lp991
g5
(g6
g7
(lp992
V22
p993
atp994
Rp995
(dp996
g17
VCD
p997
sbag5
(g6
g7
(lp998
V-RSB-
p999
atp1000
Rp1001
(dp1002
g17
VNNS
p1003
sbatp1004
Rp1005
(dp1006
g17
VNP
p1007
sbatp1008
Rp1009
(dp1010
g17
VNP
p1011
sbatp1012
Rp1013
(dp1014
g17
VPP
p1015
sbatp1016
Rp1017
(dp1018
g17
VVP
p1019
sbatp1020
Rp1021
(dp1022
g17
g257
sbatp1023
Rp1024
(dp1025
g17
VPP
p1026
sbatp1027
Rp1028
(dp1029
g17
VPP
p1030
sbatp1031
Rp1032
(dp1033
g17
VVP
p1034
sbatp1035
Rp1036
(dp1037
g17
g257
sbatp1038
Rp1039
(dp1040
g17
VPP
p1041
sbatp1042
Rp1043
(dp1044
g17
VVP
p1045
sbatp1046
Rp1047
(dp1048
g17
VVP
p1049
sbatp1050
Rp1051
(dp1052
g17
VVP
p1053
sbatp1054
Rp1055
(dp1056
g17
g257
sbatp1057
Rp1058
(dp1059
g17
VROOT
p1060
sbasg273
(icmyPackage
CorE
p1061
(dp1062
g276
(lp1063
(I0
I9
tp1064
a(I0
I21
tp1065
asg280
g841
sbsg281
(icmyPackage
CorE
p1066
(dp1067
g276
(lp1068
(I0
I0
tp1069
a(I0
I7
tp1070
asg280
g5
(g6
g7
(lp1071
g671
ag678
ag685
ag692
ag699
ag707
ag718
atp1072
Rp1073
(dp1074
g17
g291
sbsbsg292
(icmyPackage
pattern
p1075
(dp1076
g295
I25
sg296
I0
sg297
(lp1077
(lp1078
S'for'
p1079
aasg301
(lp1080
I2
aI1
aI1
asg303
(lp1081
S'She was angry with him for being late.'
p1082
asg308
I44
sg309
(lp1083
(lp1084
S'&R'
p1085
aa(lp1086
S'&V-ing@C@'
p1087
aasbsg316
(lp1088
(isxpPackage
sxpSent
p1089
(dp1090
g320
(lp1091
I2
asg322
VThis task has been approached by investigating methodologies for identifying meaningful topics through semantic coherence [ 1 , 24 , 27 ] and for characterising the semantic content of a topic through automatic labelling techniques [ 12 , 14 , 22 ]
p1092
sg324
I2
sg308
I10
sg325
I1
sbasba(icmyPackage
CELink
p1093
(dp1094
g3
(lp1095
g5
(g6
g7
(lp1096
g5
(g6
g7
(lp1097
g5
(g6
g7
(lp1098
g5
(g6
g7
(lp1099
g5
(g6
g7
(lp1100
VThe
p1101
atp1102
Rp1103
(dp1104
g17
VDT
p1105
sbag5
(g6
g7
(lp1106
g5
(g6
g7
(lp1107
Vmost
p1108
atp1109
Rp1110
(dp1111
g17
VRBS
p1112
sbag5
(g6
g7
(lp1113
Vgeneric
p1114
atp1115
Rp1116
(dp1117
g17
VJJ
p1118
sbatp1119
Rp1120
(dp1121
g17
VADJP
p1122
sbag5
(g6
g7
(lp1123
Vapproach
p1124
atp1125
Rp1126
(dp1127
g17
VNN
p1128
sbatp1129
Rp1130
(dp1131
g17
VNP
p1132
sbag5
(g6
g7
(lp1133
g5
(g6
g7
(lp1134
Vto
p1135
atp1136
Rp1137
(dp1138
g17
VTO
p1139
sbag5
(g6
g7
(lp1140
g5
(g6
g7
(lp1141
Vautomatic
p1142
atp1143
Rp1144
(dp1145
g17
VJJ
p1146
sbag5
(g6
g7
(lp1147
Vlabelling
p1148
atp1149
Rp1150
(dp1151
g17
VNNS
p1152
sbatp1153
Rp1154
(dp1155
g17
VNP
p1156
sbatp1157
Rp1158
(dp1159
g17
VPP
p1160
sbatp1161
Rp1162
(dp1163
g17
VNP
p1164
sbag5
(g6
g7
(lp1165
g5
(g6
g7
(lp1166
Vhas
p1167
atp1168
Rp1169
(dp1170
g17
VVBZ
p1171
sbag5
(g6
g7
(lp1172
g5
(g6
g7
(lp1173
Vbeen
p1174
atp1175
Rp1176
(dp1177
g17
VVBN
p1178
sbag5
(g6
g7
(lp1179
g5
(g6
g7
(lp1180
g5
(g6
g7
(lp1181
Vto
p1182
atp1183
Rp1184
(dp1185
g17
VTO
p1186
sbag5
(g6
g7
(lp1187
g5
(g6
g7
(lp1188
Vuse
p1189
atp1190
Rp1191
(dp1192
g17
VVB
p1193
sbag5
(g6
g7
(lp1194
g5
(g6
g7
(lp1195
Vas
p1196
atp1197
Rp1198
(dp1199
g17
VIN
p1200
sbag5
(g6
g7
(lp1201
g5
(g6
g7
(lp1202
Vprimitive
p1203
atp1204
Rp1205
(dp1206
g17
VJJ
p1207
sbag5
(g6
g7
(lp1208
Vlabels
p1209
atp1210
Rp1211
(dp1212
g17
VNNS
p1213
sbatp1214
Rp1215
(dp1216
g17
VNP
p1217
sbatp1218
Rp1219
(dp1220
g17
VPP
p1221
sbag5
(g6
g7
(lp1222
g5
(g6
g7
(lp1223
g5
(g6
g7
(lp1224
Vthe
p1225
atp1226
Rp1227
(dp1228
g17
VDT
p1229
sbag5
(g6
g7
(lp1230
Vtop
p1231
atp1232
Rp1233
(dp1234
g17
VNN
p1235
sbatp1236
Rp1237
(dp1238
g17
VNP
p1239
sbag5
(g6
g7
(lp1240
V-
p1241
atp1242
Rp1243
(dp1244
g17
V:
p1245
sbag5
(g6
g7
(lp1246
g5
(g6
g7
(lp1247
g5
(g6
g7
(lp1248
Vn
p1249
atp1250
Rp1251
(dp1252
g17
VNN
p1253
sbag5
(g6
g7
(lp1254
Vwords
p1255
atp1256
Rp1257
(dp1258
g17
VNNS
p1259
sbatp1260
Rp1261
(dp1262
g17
VNP
p1263
sbag5
(g6
g7
(lp1264
g5
(g6
g7
(lp1265
Vin
p1266
atp1267
Rp1268
(dp1269
g17
VIN
p1270
sbag5
(g6
g7
(lp1271
g5
(g6
g7
(lp1272
g5
(g6
g7
(lp1273
g901
atp1274
Rp1275
(dp1276
g17
VDT
p1277
sbag5
(g6
g7
(lp1278
Vtopic
p1279
atp1280
Rp1281
(dp1282
g17
VNN
p1283
sbag5
(g6
g7
(lp1284
Vdistribution
p1285
atp1286
Rp1287
(dp1288
g17
VNN
p1289
sbatp1290
Rp1291
(dp1292
g17
VNP
p1293
sbag5
(g6
g7
(lp1294
g5
(g6
g7
(lp1295
Vlearned
p1296
atp1297
Rp1298
(dp1299
g17
VVBN
p1300
sbag5
(g6
g7
(lp1301
g5
(g6
g7
(lp1302
Vby
p1303
atp1304
Rp1305
(dp1306
g17
VIN
p1307
sbag5
(g6
g7
(lp1308
g5
(g6
g7
(lp1309
g5
(g6
g7
(lp1310
g901
atp1311
Rp1312
(dp1313
g17
VDT
p1314
sbag5
(g6
g7
(lp1315
Vtopic
p1316
atp1317
Rp1318
(dp1319
g17
VNN
p1320
sbag5
(g6
g7
(lp1321
Vmodel
p1322
atp1323
Rp1324
(dp1325
g17
VNN
p1326
sbatp1327
Rp1328
(dp1329
g17
VNP
p1330
sbag5
(g6
g7
(lp1331
g5
(g6
g7
(lp1332
Vsuch
p1333
atp1334
Rp1335
(dp1336
g17
VJJ
p1337
sbag5
(g6
g7
(lp1338
Vas
p1339
atp1340
Rp1341
(dp1342
g17
VIN
p1343
sbag5
(g6
g7
(lp1344
g5
(g6
g7
(lp1345
g5
(g6
g7
(lp1346
VLDA
p1347
atp1348
Rp1349
(dp1350
g17
VNNP
p1351
sbatp1352
Rp1353
(dp1354
g17
VNP
p1355
sbag5
(g6
g7
(lp1356
g5
(g6
g7
(lp1357
g5
(g6
g7
(lp1358
V-LSB-
p1359
atp1360
Rp1361
(dp1362
g17
VNNP
p1363
sbag5
(g6
g7
(lp1364
V9
p1365
atp1366
Rp1367
(dp1368
g17
VCD
p1369
sbag5
(g6
g7
(lp1370
g797
atp1371
Rp1372
(dp1373
g17
g797
sbag5
(g6
g7
(lp1374
V2
p1375
atp1376
Rp1377
(dp1378
g17
VCD
p1379
sbatp1380
Rp1381
(dp1382
g17
VNP
p1383
sbag5
(g6
g7
(lp1384
V-RSB-
p1385
atp1386
Rp1387
(dp1388
g17
VJJ
p1389
sbatp1390
Rp1391
(dp1392
g17
VADJP
p1393
sbatp1394
Rp1395
(dp1396
g17
VNP
p1397
sbatp1398
Rp1399
(dp1400
g17
VPP
p1401
sbatp1402
Rp1403
(dp1404
g17
VNP
p1405
sbatp1406
Rp1407
(dp1408
g17
VPP
p1409
sbatp1410
Rp1411
(dp1412
g17
VVP
p1413
sbatp1414
Rp1415
(dp1416
g17
VNP
p1417
sbatp1418
Rp1419
(dp1420
g17
VPP
p1421
sbatp1422
Rp1423
(dp1424
g17
VNP
p1425
sbatp1426
Rp1427
(dp1428
g17
VNP
p1429
sbatp1430
Rp1431
(dp1432
g17
VVP
p1433
sbatp1434
Rp1435
(dp1436
g17
VVP
p1437
sbatp1438
Rp1439
(dp1440
g17
g257
sbatp1441
Rp1442
(dp1443
g17
VVP
p1444
sbatp1445
Rp1446
(dp1447
g17
VVP
p1448
sbatp1449
Rp1450
(dp1451
g17
g257
sbatp1452
Rp1453
(dp1454
g17
VROOT
p1455
sbasg273
(icmyPackage
CorE
p1456
(dp1457
g276
(lp1458
(I0
I12
tp1459
a(I0
I33
tp1460
asg280
g5
(g6
g7
(lp1461
g1215
ag1237
ag1243
ag1261
ag1268
ag1291
ag1298
ag1305
ag1328
ag1335
ag1341
ag1353
ag1361
ag1367
ag1372
atp1462
Rp1463
(dp1464
g17
g291
sbsbsg281
(icmyPackage
CorE
p1465
(dp1466
g276
(lp1467
(I0
I0
tp1468
a(I0
I10
tp1469
asg280
g5
(g6
g7
(lp1470
g1162
ag1169
ag1176
ag1184
ag1191
atp1471
Rp1472
(dp1473
g17
g291
sbsbsg292
(icmyPackage
pattern
p1474
(dp1475
g295
I26
sg296
I1
sg297
(lp1476
(lp1477
S'as'
p1478
aasg301
(lp1479
I3
aI1
aI1
asg303
(lp1480
S'You do not need to worry about the operation, as the software is very easy to use.'
p1481
asg308
I80
sg309
(lp1482
(lp1483
S'&R@Complete@'
p1484
aS'(,)'
p1485
aS'(-such/-same/-seem/-regard/-regards/-regarded/-view/-views/-viewed/-denote/-denoted/-denotes)'
p1486
aa(lp1487
S'(-if/-follow/-follows/-&adv)'
p1488
aS'&C@Complete@'
p1489
aasbsg316
(lp1490
(isxpPackage
sxpSent
p1491
(dp1492
g320
(lp1493
I3
asg322
VThe most generic approach to automatic labelling has been to use as primitive labels the top- n words in a topic distribution learned by a topic model such as LDA [ 9 , 2 ]
p1494
sg324
I2
sg308
I13
sg325
I2
sbasba(icmyPackage
CELink
p1495
(dp1496
g3
(lp1497
g5
(g6
g7
(lp1498
g5
(g6
g7
(lp1499
g5
(g6
g7
(lp1500
g5
(g6
g7
(lp1501
VThis
p1502
atp1503
Rp1504
(dp1505
g17
VDT
p1506
sbag5
(g6
g7
(lp1507
Vtask
p1508
atp1509
Rp1510
(dp1511
g17
VNN
p1512
sbatp1513
Rp1514
(dp1515
g17
VNP
p1516
sbag5
(g6
g7
(lp1517
g5
(g6
g7
(lp1518
Vcan
p1519
atp1520
Rp1521
(dp1522
g17
VMD
p1523
sbag5
(g6
g7
(lp1524
g5
(g6
g7
(lp1525
Vbe
p1526
atp1527
Rp1528
(dp1529
g17
VVB
p1530
sbag5
(g6
g7
(lp1531
g5
(g6
g7
(lp1532
Villustrated
p1533
atp1534
Rp1535
(dp1536
g17
VVBN
p1537
sbag5
(g6
g7
(lp1538
g5
(g6
g7
(lp1539
Vby
p1540
atp1541
Rp1542
(dp1543
g17
VIN
p1544
sbag5
(g6
g7
(lp1545
g5
(g6
g7
(lp1546
g5
(g6
g7
(lp1547
Vconsidering
p1548
atp1549
Rp1550
(dp1551
g17
VVBG
p1552
sbag5
(g6
g7
(lp1553
g5
(g6
g7
(lp1554
g5
(g6
g7
(lp1555
Vthe
p1556
atp1557
Rp1558
(dp1559
g17
VDT
p1560
sbag5
(g6
g7
(lp1561
Vfollowing
p1562
atp1563
Rp1564
(dp1565
g17
VJJ
p1566
sbag5
(g6
g7
(lp1567
Vtopic
p1568
atp1569
Rp1570
(dp1571
g17
VNN
p1572
sbatp1573
Rp1574
(dp1575
g17
VNP
p1576
sbag5
(g6
g7
(lp1577
g5
(g6
g7
(lp1578
Vderived
p1579
atp1580
Rp1581
(dp1582
g17
VVBN
p1583
sbag5
(g6
g7
(lp1584
g5
(g6
g7
(lp1585
Vfrom
p1586
atp1587
Rp1588
(dp1589
g17
VIN
p1590
sbag5
(g6
g7
(lp1591
g5
(g6
g7
(lp1592
g5
(g6
g7
(lp1593
Vsocial
p1594
atp1595
Rp1596
(dp1597
g17
VJJ
p1598
sbag5
(g6
g7
(lp1599
Vmedia
p1600
atp1601
Rp1602
(dp1603
g17
VNNS
p1604
sbatp1605
Rp1606
(dp1607
g17
VNP
p1608
sbag5
(g6
g7
(lp1609
g5
(g6
g7
(lp1610
Vrelated
p1611
atp1612
Rp1613
(dp1614
g17
VVBN
p1615
sbag5
(g6
g7
(lp1616
g5
(g6
g7
(lp1617
Vto
p1618
atp1619
Rp1620
(dp1621
g17
VTO
p1622
sbag5
(g6
g7
(lp1623
g5
(g6
g7
(lp1624
VEducation
p1625
atp1626
Rp1627
(dp1628
g17
VNNP
p1629
sbatp1630
Rp1631
(dp1632
g17
VNP
p1633
sbatp1634
Rp1635
(dp1636
g17
VPP
p1637
sbatp1638
Rp1639
(dp1640
g17
VVP
p1641
sbatp1642
Rp1643
(dp1644
g17
VNP
p1645
sbatp1646
Rp1647
(dp1648
g17
VPP
p1649
sbatp1650
Rp1651
(dp1652
g17
VVP
p1653
sbatp1654
Rp1655
(dp1656
g17
VNP
p1657
sbatp1658
Rp1659
(dp1660
g17
VVP
p1661
sbatp1662
Rp1663
(dp1664
g17
g257
sbatp1665
Rp1666
(dp1667
g17
VPP
p1668
sbatp1669
Rp1670
(dp1671
g17
VVP
p1672
sbatp1673
Rp1674
(dp1675
g17
VVP
p1676
sbatp1677
Rp1678
(dp1679
g17
VVP
p1680
sbatp1681
Rp1682
(dp1683
g17
g257
sbatp1684
Rp1685
(dp1686
g17
VROOT
p1687
sbasg273
(icmyPackage
CorE
p1688
(dp1689
g276
(lp1690
(I0
I6
tp1691
a(I0
I16
tp1692
asg280
g1663
sbsg281
(icmyPackage
CorE
p1693
(dp1694
g276
(lp1695
(I0
I0
tp1696
a(I0
I4
tp1697
asg280
g5
(g6
g7
(lp1698
g1514
ag1521
ag1528
ag1535
atp1699
Rp1700
(dp1701
g17
g291
sbsbsg292
(icmyPackage
pattern
p1702
(dp1703
g295
I0
sg296
I0
sg297
(lp1704
(lp1705
(lp1706
S'by'
p1707
aS'through'
p1708
aaasg301
(lp1709
I2
aI1
aI1
asg303
(lp1710
S'The similar relation can be detected by analyzing the contents of nodes based on such approaches as the Latent Semantic Analysis (LSA) and the Vector Space Model (VSM)'
p1711
asg308
I68
sg309
(lp1712
(lp1713
S'&R@Complete@'
p1714
aa(lp1715
S'&V-ing@C@'
p1716
aasbsg316
(lp1717
(isxpPackage
sxpSent
p1718
(dp1719
g320
(lp1720
I4
asg322
VThis task can be illustrated by considering the following topic derived from social media related to Education
p1721
sg324
I2
sg308
I15
sg325
I2
sbasba(icmyPackage
CELink
p1722
(dp1723
g3
(lp1724
g5
(g6
g7
(lp1725
g5
(g6
g7
(lp1726
g5
(g6
g7
(lp1727
g5
(g6
g7
(lp1728
Vwhere
p1729
atp1730
Rp1731
(dp1732
g17
VWRB
p1733
sbatp1734
Rp1735
(dp1736
g17
VWHADVP
p1737
sbag5
(g6
g7
(lp1738
g5
(g6
g7
(lp1739
g5
(g6
g7
(lp1740
g5
(g6
g7
(lp1741
Vthe
p1742
atp1743
Rp1744
(dp1745
g17
VDT
p1746
sbag5
(g6
g7
(lp1747
Vtop
p1748
atp1749
Rp1750
(dp1751
g17
VJJ
p1752
sbag5
(g6
g7
(lp1753
V10
p1754
atp1755
Rp1756
(dp1757
g17
VCD
p1758
sbag5
(g6
g7
(lp1759
Vwords
p1760
atp1761
Rp1762
(dp1763
g17
VNNS
p1764
sbatp1765
Rp1766
(dp1767
g17
VNP
p1768
sbag5
(g6
g7
(lp1769
g5
(g6
g7
(lp1770
Vranked
p1771
atp1772
Rp1773
(dp1774
g17
VVBN
p1775
sbag5
(g6
g7
(lp1776
g5
(g6
g7
(lp1777
Vby
p1778
atp1779
Rp1780
(dp1781
g17
VIN
p1782
sbag5
(g6
g7
(lp1783
g5
(g6
g7
(lp1784
g5
(g6
g7
(lp1785
g5
(g6
g7
(lp1786
VP
p1787
atp1788
Rp1789
(dp1790
g17
VNNP
p1791
sbatp1792
Rp1793
(dp1794
g17
VNP
p1795
sbag5
(g6
g7
(lp1796
g5
(g6
g7
(lp1797
V-LRB-
p1798
atp1799
Rp1800
(dp1801
g17
V-LRB-
p1802
sbag5
(g6
g7
(lp1803
g5
(g6
g7
(lp1804
Vw
p1805
atp1806
Rp1807
(dp1808
g17
VJJ
p1809
sbag5
(g6
g7
(lp1810
Vi
p1811
atp1812
Rp1813
(dp1814
g17
VNN
p1815
sbag5
(g6
g7
(lp1816
Vt
p1817
atp1818
Rp1819
(dp1820
g17
VNN
p1821
sbag5
(g6
g7
(lp1822
Vj
p1823
atp1824
Rp1825
(dp1826
g17
VNN
p1827
sbatp1828
Rp1829
(dp1830
g17
VNP
p1831
sbag5
(g6
g7
(lp1832
V-RRB-
p1833
atp1834
Rp1835
(dp1836
g17
V-RRB-
p1837
sbatp1838
Rp1839
(dp1840
g17
VPRN
p1841
sbatp1842
Rp1843
(dp1844
g17
VNP
p1845
sbag5
(g6
g7
(lp1846
g5
(g6
g7
(lp1847
Vfor
p1848
atp1849
Rp1850
(dp1851
g17
VIN
p1852
sbag5
(g6
g7
(lp1853
g5
(g6
g7
(lp1854
Vthis
p1855
atp1856
Rp1857
(dp1858
g17
VDT
p1859
sbag5
(g6
g7
(lp1860
Vtopic
p1861
atp1862
Rp1863
(dp1864
g17
VNN
p1865
sbatp1866
Rp1867
(dp1868
g17
VNP
p1869
sbatp1870
Rp1871
(dp1872
g17
VPP
p1873
sbatp1874
Rp1875
(dp1876
g17
VNP
p1877
sbatp1878
Rp1879
(dp1880
g17
VPP
p1881
sbatp1882
Rp1883
(dp1884
g17
VVP
p1885
sbatp1886
Rp1887
(dp1888
g17
VNP
p1889
sbag5
(g6
g7
(lp1890
g5
(g6
g7
(lp1891
Vare
p1892
atp1893
Rp1894
(dp1895
g17
VVBP
p1896
sbag5
(g6
g7
(lp1897
g5
(g6
g7
(lp1898
Vlisted
p1899
atp1900
Rp1901
(dp1902
g17
VVBN
p1903
sbatp1904
Rp1905
(dp1906
g17
VVP
p1907
sbatp1908
Rp1909
(dp1910
g17
VVP
p1911
sbatp1912
Rp1913
(dp1914
g17
g257
sbatp1915
Rp1916
(dp1917
g17
VSBAR
p1918
sbatp1919
Rp1920
(dp1921
g17
VROOT
p1922
sbag5
(g6
g7
(lp1923
g5
(g6
g7
(lp1924
g5
(g6
g7
(lp1925
g5
(g6
g7
(lp1926
VTherefore
p1927
atp1928
Rp1929
(dp1930
g17
VRB
p1931
sbatp1932
Rp1933
(dp1934
g17
VADVP
p1935
sbag5
(g6
g7
(lp1936
g5
(g6
g7
(lp1937
Vthe
p1938
atp1939
Rp1940
(dp1941
g17
VDT
p1942
sbag5
(g6
g7
(lp1943
Vtask
p1944
atp1945
Rp1946
(dp1947
g17
VNN
p1948
sbag5
(g6
g7
(lp1949
g5
(g6
g7
(lp1950
g5
(g6
g7
(lp1951
g5
(g6
g7
(lp1952
Vis
p1953
atp1954
Rp1955
(dp1956
g17
VVBZ
p1957
sbag5
(g6
g7
(lp1958
g5
(g6
g7
(lp1959
g5
(g6
g7
(lp1960
Vto
p1961
atp1962
Rp1963
(dp1964
g17
VTO
p1965
sbag5
(g6
g7
(lp1966
g5
(g6
g7
(lp1967
Vfind
p1968
atp1969
Rp1970
(dp1971
g17
VVB
p1972
sbag5
(g6
g7
(lp1973
g5
(g6
g7
(lp1974
g5
(g6
g7
(lp1975
Vthe
p1976
atp1977
Rp1978
(dp1979
g17
VDT
p1980
sbag5
(g6
g7
(lp1981
Vtop
p1982
atp1983
Rp1984
(dp1985
g17
VNN
p1986
sbatp1987
Rp1988
(dp1989
g17
VNP
p1990
sbag5
(g6
g7
(lp1991
g1241
atp1992
Rp1993
(dp1994
g17
g1245
sbag5
(g6
g7
(lp1995
g5
(g6
g7
(lp1996
g5
(g6
g7
(lp1997
g1249
atp1998
Rp1999
(dp2000
g17
VNN
p2001
sbag5
(g6
g7
(lp2002
Vterms
p2003
atp2004
Rp2005
(dp2006
g17
VNNS
p2007
sbatp2008
Rp2009
(dp2010
g17
VNP
p2011
sbag5
(g6
g7
(lp2012
g5
(g6
g7
(lp2013
g5
(g6
g7
(lp2014
Vwhich
p2015
atp2016
Rp2017
(dp2018
g17
VWDT
p2019
sbatp2020
Rp2021
(dp2022
g17
VWHNP
p2023
sbag5
(g6
g7
(lp2024
g5
(g6
g7
(lp2025
g5
(g6
g7
(lp2026
Vare
p2027
atp2028
Rp2029
(dp2030
g17
VVBP
p2031
sbag5
(g6
g7
(lp2032
g5
(g6
g7
(lp2033
g5
(g6
g7
(lp2034
Vmore
p2035
atp2036
Rp2037
(dp2038
g17
VJJR
p2039
sbag5
(g6
g7
(lp2040
Vrepresentative
p2041
atp2042
Rp2043
(dp2044
g17
VNN
p2045
sbatp2046
Rp2047
(dp2048
g17
VNP
p2049
sbag5
(g6
g7
(lp2050
g5
(g6
g7
(lp2051
Vof
p2052
atp2053
Rp2054
(dp2055
g17
VIN
p2056
sbag5
(g6
g7
(lp2057
g5
(g6
g7
(lp2058
Vthe
p2059
atp2060
Rp2061
(dp2062
g17
VDT
p2063
sbag5
(g6
g7
(lp2064
Vgiven
p2065
atp2066
Rp2067
(dp2068
g17
VVBN
p2069
sbag5
(g6
g7
(lp2070
Vtopic
p2071
atp2072
Rp2073
(dp2074
g17
VNN
p2075
sbatp2076
Rp2077
(dp2078
g17
VNP
p2079
sbatp2080
Rp2081
(dp2082
g17
VPP
p2083
sbatp2084
Rp2085
(dp2086
g17
VNP
p2087
sbatp2088
Rp2089
(dp2090
g17
VVP
p2091
sbatp2092
Rp2093
(dp2094
g17
g257
sbatp2095
Rp2096
(dp2097
g17
VSBAR
p2098
sbatp2099
Rp2100
(dp2101
g17
VNP
p2102
sbatp2103
Rp2104
(dp2105
g17
VNP
p2106
sbatp2107
Rp2108
(dp2109
g17
VVP
p2110
sbatp2111
Rp2112
(dp2113
g17
VVP
p2114
sbatp2115
Rp2116
(dp2117
g17
g257
sbatp2118
Rp2119
(dp2120
g17
VVP
p2121
sbatp2122
Rp2123
(dp2124
g17
g257
sbatp2125
Rp2126
(dp2127
g17
VSBAR
p2128
sbatp2129
Rp2130
(dp2131
g17
VNP
p2132
sbatp2133
Rp2134
(dp2135
g17
VFRAG
p2136
sbatp2137
Rp2138
(dp2139
g17
VROOT
p2140
sbasg273
(icmyPackage
CorE
p2141
(dp2142
g276
(lp2143
(I0
I0
tp2144
a(I0
I18
tp2145
asg280
g1920
sbsg281
(icmyPackage
CorE
p2146
(dp2147
g276
(lp2148
(I1
I1
tp2149
a(I1
I17
tp2150
asg280
g5
(g6
g7
(lp2151
g1940
ag1946
ag1955
ag1963
ag1970
ag1988
ag1993
ag2009
ag2021
ag2029
ag2047
ag2054
ag2061
ag2067
atp2152
Rp2153
(dp2154
g17
g291
sbsbsg292
(icmyPackage
pattern
p2155
(dp2156
g295
I62
sg296
I1
sg297
(lp2157
(lp2158
S'therefore'
p2159
aasg301
(lp2160
I1
aI1
aI1
asg303
(lp2161
S'He never lies; therefore, everyone likes to make friends with him.'
p2162
asg308
I1
sg309
(lp2163
(lp2164
S'&C'
p2165
aS'(,/;/./--)'
p2166
aS'(&AND)'
p2167
aa(lp2168
S'(,)'
p2169
aS'&R'
p2170
aasbsg316
(lp2171
(isxpPackage
sxpSent
p2172
(dp2173
g320
(lp2174
I5
asg322
Vwhere the top 10 words ranked by P ( w i t j ) for this topic are listed
p2175
sg324
I2
sg308
I17
sg325
I4
sba(isxpPackage
sxpSent
p2176
(dp2177
g320
(lp2178
I5
asg322
VTherefore the task is to find the top- n terms which are more representative of the given topic
p2179
sg324
I2
sg308
I18
sg325
I4
sbasba(icmyPackage
CELink
p2180
(dp2181
g3
(lp2182
g5
(g6
g7
(lp2183
g5
(g6
g7
(lp2184
g5
(g6
g7
(lp2185
g5
(g6
g7
(lp2186
g5
(g6
g7
(lp2187
VHowever
p2188
atp2189
Rp2190
(dp2191
g17
VRB
p2192
sbatp2193
Rp2194
(dp2195
g17
VADVP
p2196
sbag5
(g6
g7
(lp2197
g5
(g6
g7
(lp2198
Vprevious
p2199
atp2200
Rp2201
(dp2202
g17
VJJ
p2203
sbag5
(g6
g7
(lp2204
Vwork
p2205
atp2206
Rp2207
(dp2208
g17
VNN
p2209
sbatp2210
Rp2211
(dp2212
g17
VNP
p2213
sbag5
(g6
g7
(lp2214
g5
(g6
g7
(lp2215
Vhas
p2216
atp2217
Rp2218
(dp2219
g17
VVBZ
p2220
sbag5
(g6
g7
(lp2221
g5
(g6
g7
(lp2222
Vshown
p2223
atp2224
Rp2225
(dp2226
g17
VVBN
p2227
sbag5
(g6
g7
(lp2228
g5
(g6
g7
(lp2229
Vthat
p2230
atp2231
Rp2232
(dp2233
g17
VIN
p2234
sbag5
(g6
g7
(lp2235
g5
(g6
g7
(lp2236
g5
(g6
g7
(lp2237
Vtop
p2238
atp2239
Rp2240
(dp2241
g17
VJJ
p2242
sbag5
(g6
g7
(lp2243
Vterms
p2244
atp2245
Rp2246
(dp2247
g17
VNNS
p2248
sbatp2249
Rp2250
(dp2251
g17
VNP
p2252
sbag5
(g6
g7
(lp2253
g5
(g6
g7
(lp2254
Vare
p2255
atp2256
Rp2257
(dp2258
g17
VVBP
p2259
sbag5
(g6
g7
(lp2260
Vnot
p2261
atp2262
Rp2263
(dp2264
g17
VRB
p2265
sbag5
(g6
g7
(lp2266
g5
(g6
g7
(lp2267
Venough
p2268
atp2269
Rp2270
(dp2271
g17
VJJ
p2272
sbag5
(g6
g7
(lp2273
g5
(g6
g7
(lp2274
Vfor
p2275
atp2276
Rp2277
(dp2278
g17
VIN
p2279
sbag5
(g6
g7
(lp2280
g5
(g6
g7
(lp2281
g5
(g6
g7
(lp2282
Vinterpreting
p2283
atp2284
Rp2285
(dp2286
g17
VVBG
p2287
sbag5
(g6
g7
(lp2288
g5
(g6
g7
(lp2289
g5
(g6
g7
(lp2290
Vthe
p2291
atp2292
Rp2293
(dp2294
g17
VDT
p2295
sbag5
(g6
g7
(lp2296
Vcoherent
p2297
atp2298
Rp2299
(dp2300
g17
VJJ
p2301
sbag5
(g6
g7
(lp2302
Vmeaning
p2303
atp2304
Rp2305
(dp2306
g17
VNN
p2307
sbatp2308
Rp2309
(dp2310
g17
VNP
p2311
sbag5
(g6
g7
(lp2312
g5
(g6
g7
(lp2313
Vof
p2314
atp2315
Rp2316
(dp2317
g17
VIN
p2318
sbag5
(g6
g7
(lp2319
g5
(g6
g7
(lp2320
g901
atp2321
Rp2322
(dp2323
g17
VDT
p2324
sbag5
(g6
g7
(lp2325
Vtopic
p2326
atp2327
Rp2328
(dp2329
g17
VNN
p2330
sbatp2331
Rp2332
(dp2333
g17
VNP
p2334
sbatp2335
Rp2336
(dp2337
g17
VPP
p2338
sbatp2339
Rp2340
(dp2341
g17
VNP
p2342
sbatp2343
Rp2344
(dp2345
g17
VVP
p2346
sbatp2347
Rp2348
(dp2349
g17
g257
sbatp2350
Rp2351
(dp2352
g17
VPP
p2353
sbatp2354
Rp2355
(dp2356
g17
VADJP
p2357
sbatp2358
Rp2359
(dp2360
g17
VVP
p2361
sbatp2362
Rp2363
(dp2364
g17
g257
sbatp2365
Rp2366
(dp2367
g17
VSBAR
p2368
sbatp2369
Rp2370
(dp2371
g17
VVP
p2372
sbatp2373
Rp2374
(dp2375
g17
VVP
p2376
sbatp2377
Rp2378
(dp2379
g17
g257
sbag5
(g6
g7
(lp2380
g5
(g6
g7
(lp2381
V-LSB-
p2382
atp2383
Rp2384
(dp2385
g17
VVBZ
p2386
sbatp2387
Rp2388
(dp2389
g17
VVP
p2390
sbag5
(g6
g7
(lp2391
g5
(g6
g7
(lp2392
V22
p2393
atp2394
Rp2395
(dp2396
g17
VCD
p2397
sbag5
(g6
g7
(lp2398
V-RSB-
p2399
atp2400
Rp2401
(dp2402
g17
VNN
p2403
sbatp2404
Rp2405
(dp2406
g17
VNP
p2407
sbatp2408
Rp2409
(dp2410
g17
VSINV
p2411
sbatp2412
Rp2413
(dp2414
g17
VROOT
p2415
sbasg273
(icmyPackage
CorE
p2416
(dp2417
g276
(lp2418
(I0
I12
tp2419
a(I0
I18
tp2420
asg280
g2348
sbsg281
(icmyPackage
CorE
p2421
(dp2422
g276
(lp2423
(I0
I0
tp2424
a(I0
I10
tp2425
asg280
g5
(g6
g7
(lp2426
g2194
ag2211
ag2218
ag2225
ag2232
ag2250
ag2257
ag2263
ag2270
atp2427
Rp2428
(dp2429
g17
g291
sbsbsg292
g1075
sg316
(lp2430
(isxpPackage
sxpSent
p2431
(dp2432
g320
(lp2433
I6
asg322
VHowever previous work has shown that top terms are not enough for interpreting the coherent meaning of a topic [ 22 ]
p2434
sg324
I2
sg308
I20
sg325
I5
sbasba(icmyPackage
CELink
p2435
(dp2436
g3
(lp2437
g5
(g6
g7
(lp2438
g5
(g6
g7
(lp2439
g5
(g6
g7
(lp2440
g5
(g6
g7
(lp2441
VMore
p2442
atp2443
Rp2444
(dp2445
g17
VJJR
p2446
sbag5
(g6
g7
(lp2447
Vrecent
p2448
atp2449
Rp2450
(dp2451
g17
VJJ
p2452
sbag5
(g6
g7
(lp2453
Vapproaches
p2454
atp2455
Rp2456
(dp2457
g17
VNNS
p2458
sbatp2459
Rp2460
(dp2461
g17
VNP
p2462
sbag5
(g6
g7
(lp2463
g5
(g6
g7
(lp2464
Vhave
p2465
atp2466
Rp2467
(dp2468
g17
VVBP
p2469
sbag5
(g6
g7
(lp2470
g5
(g6
g7
(lp2471
Vexplored
p2472
atp2473
Rp2474
(dp2475
g17
VVBN
p2476
sbag5
(g6
g7
(lp2477
g5
(g6
g7
(lp2478
g5
(g6
g7
(lp2479
Vthe
p2480
atp2481
Rp2482
(dp2483
g17
VDT
p2484
sbag5
(g6
g7
(lp2485
Vuse
p2486
atp2487
Rp2488
(dp2489
g17
VNN
p2490
sbatp2491
Rp2492
(dp2493
g17
VNP
p2494
sbag5
(g6
g7
(lp2495
g5
(g6
g7
(lp2496
Vof
p2497
atp2498
Rp2499
(dp2500
g17
VIN
p2501
sbag5
(g6
g7
(lp2502
g5
(g6
g7
(lp2503
g5
(g6
g7
(lp2504
Vexternal
p2505
atp2506
Rp2507
(dp2508
g17
VJJ
p2509
sbag5
(g6
g7
(lp2510
Vsources
p2511
atp2512
Rp2513
(dp2514
g17
VNNS
p2515
sbatp2516
Rp2517
(dp2518
g17
VNP
p2519
sbag5
(g6
g7
(lp2520
g5
(g6
g7
(lp2521
V-LRB-
p2522
atp2523
Rp2524
(dp2525
g17
V-LRB-
p2526
sbag5
(g6
g7
(lp2527
g5
(g6
g7
(lp2528
Ve.g.
p2529
atp2530
Rp2531
(dp2532
g17
VNNP
p2533
sbatp2534
Rp2535
(dp2536
g17
VNP
p2537
sbag5
(g6
g7
(lp2538
g797
atp2539
Rp2540
(dp2541
g17
g797
sbag5
(g6
g7
(lp2542
g5
(g6
g7
(lp2543
VWikipedia
p2544
atp2545
Rp2546
(dp2547
g17
VNNP
p2548
sbatp2549
Rp2550
(dp2551
g17
VNP
p2552
sbag5
(g6
g7
(lp2553
g797
atp2554
Rp2555
(dp2556
g17
g797
sbag5
(g6
g7
(lp2557
g5
(g6
g7
(lp2558
VWordNet
p2559
atp2560
Rp2561
(dp2562
g17
VNNP
p2563
sbatp2564
Rp2565
(dp2566
g17
VNP
p2567
sbag5
(g6
g7
(lp2568
V-RRB-
p2569
atp2570
Rp2571
(dp2572
g17
V-RRB-
p2573
sbatp2574
Rp2575
(dp2576
g17
VPRN
p2577
sbatp2578
Rp2579
(dp2580
g17
VNP
p2581
sbatp2582
Rp2583
(dp2584
g17
VPP
p2585
sbatp2586
Rp2587
(dp2588
g17
VNP
p2589
sbag5
(g6
g7
(lp2590
g5
(g6
g7
(lp2591
Vfor
p2592
atp2593
Rp2594
(dp2595
g17
VIN
p2596
sbag5
(g6
g7
(lp2597
g5
(g6
g7
(lp2598
g5
(g6
g7
(lp2599
Vsupporting
p2600
atp2601
Rp2602
(dp2603
g17
VVBG
p2604
sbag5
(g6
g7
(lp2605
g5
(g6
g7
(lp2606
g5
(g6
g7
(lp2607
Vthe
p2608
atp2609
Rp2610
(dp2611
g17
VDT
p2612
sbag5
(g6
g7
(lp2613
Vautomatic
p2614
atp2615
Rp2616
(dp2617
g17
VJJ
p2618
sbag5
(g6
g7
(lp2619
Vlabelling
p2620
atp2621
Rp2622
(dp2623
g17
VNN
p2624
sbatp2625
Rp2626
(dp2627
g17
VNP
p2628
sbag5
(g6
g7
(lp2629
g5
(g6
g7
(lp2630
Vof
p2631
atp2632
Rp2633
(dp2634
g17
VIN
p2635
sbag5
(g6
g7
(lp2636
g5
(g6
g7
(lp2637
Vtopics
p2638
atp2639
Rp2640
(dp2641
g17
VNNS
p2642
sbatp2643
Rp2644
(dp2645
g17
VNP
p2646
sbatp2647
Rp2648
(dp2649
g17
VPP
p2650
sbatp2651
Rp2652
(dp2653
g17
VNP
p2654
sbag5
(g6
g7
(lp2655
g5
(g6
g7
(lp2656
Vby
p2657
atp2658
Rp2659
(dp2660
g17
VIN
p2661
sbag5
(g6
g7
(lp2662
g5
(g6
g7
(lp2663
g5
(g6
g7
(lp2664
Vderiving
p2665
atp2666
Rp2667
(dp2668
g17
VVBG
p2669
sbag5
(g6
g7
(lp2670
g5
(g6
g7
(lp2671
Vcandidate
p2672
atp2673
Rp2674
(dp2675
g17
VNN
p2676
sbag5
(g6
g7
(lp2677
Vlabels
p2678
atp2679
Rp2680
(dp2681
g17
VNNS
p2682
sbatp2683
Rp2684
(dp2685
g17
VNP
p2686
sbag5
(g6
g7
(lp2687
g5
(g6
g7
(lp2688
Vby
p2689
atp2690
Rp2691
(dp2692
g17
VIN
p2693
sbag5
(g6
g7
(lp2694
g5
(g6
g7
(lp2695
g5
(g6
g7
(lp2696
g5
(g6
g7
(lp2697
Vmeans
p2698
atp2699
Rp2700
(dp2701
g17
VNNS
p2702
sbatp2703
Rp2704
(dp2705
g17
VNP
p2706
sbag5
(g6
g7
(lp2707
g5
(g6
g7
(lp2708
Vof
p2709
atp2710
Rp2711
(dp2712
g17
VIN
p2713
sbag5
(g6
g7
(lp2714
g5
(g6
g7
(lp2715
g5
(g6
g7
(lp2716
Vlexical
p2717
atp2718
Rp2719
(dp2720
g17
VNNP
p2721
sbag5
(g6
g7
(lp2722
V-LSB-
p2723
atp2724
Rp2725
(dp2726
g17
VNNP
p2727
sbag5
(g6
g7
(lp2728
V14
p2729
atp2730
Rp2731
(dp2732
g17
VCD
p2733
sbag5
(g6
g7
(lp2734
g797
atp2735
Rp2736
(dp2737
g17
g797
sbag5
(g6
g7
(lp2738
V21
p2739
atp2740
Rp2741
(dp2742
g17
VCD
p2743
sbag5
(g6
g7
(lp2744
g797
atp2745
Rp2746
(dp2747
g17
g797
sbag5
(g6
g7
(lp2748
V22
p2749
atp2750
Rp2751
(dp2752
g17
VCD
p2753
sbatp2754
Rp2755
(dp2756
g17
VNP
p2757
sbag5
(g6
g7
(lp2758
g5
(g6
g7
(lp2759
V-RSB-
p2760
atp2761
Rp2762
(dp2763
g17
VJJ
p2764
sbag5
(g6
g7
(lp2765
Vor
p2766
atp2767
Rp2768
(dp2769
g17
VCC
p2770
sbag5
(g6
g7
(lp2771
Vgraph-based
p2772
atp2773
Rp2774
(dp2775
g17
VJJ
p2776
sbatp2777
Rp2778
(dp2779
g17
VADJP
p2780
sbatp2781
Rp2782
(dp2783
g17
VNP
p2784
sbatp2785
Rp2786
(dp2787
g17
VPP
p2788
sbatp2789
Rp2790
(dp2791
g17
VNP
p2792
sbag5
(g6
g7
(lp2793
g5
(g6
g7
(lp2794
V-LSB-
p2795
atp2796
Rp2797
(dp2798
g17
VVBG
p2799
sbag5
(g6
g7
(lp2800
g5
(g6
g7
(lp2801
g5
(g6
g7
(lp2802
V12
p2803
atp2804
Rp2805
(dp2806
g17
VCD
p2807
sbag5
(g6
g7
(lp2808
V-RSB-
p2809
atp2810
Rp2811
(dp2812
g17
VJJ
p2813
sbag5
(g6
g7
(lp2814
Valgorithms
p2815
atp2816
Rp2817
(dp2818
g17
VNNS
p2819
sbatp2820
Rp2821
(dp2822
g17
VNP
p2823
sbag5
(g6
g7
(lp2824
g5
(g6
g7
(lp2825
Vapplied
p2826
atp2827
Rp2828
(dp2829
g17
VVBN
p2830
sbag5
(g6
g7
(lp2831
g5
(g6
g7
(lp2832
Von
p2833
atp2834
Rp2835
(dp2836
g17
VIN
p2837
sbag5
(g6
g7
(lp2838
g5
(g6
g7
(lp2839
Vthese
p2840
atp2841
Rp2842
(dp2843
g17
VDT
p2844
sbag5
(g6
g7
(lp2845
Vsources
p2846
atp2847
Rp2848
(dp2849
g17
VNNS
p2850
sbatp2851
Rp2852
(dp2853
g17
VNP
p2854
sbatp2855
Rp2856
(dp2857
g17
VPP
p2858
sbatp2859
Rp2860
(dp2861
g17
VVP
p2862
sbatp2863
Rp2864
(dp2865
g17
VNP
p2866
sbatp2867
Rp2868
(dp2869
g17
VVP
p2870
sbatp2871
Rp2872
(dp2873
g17
g257
sbatp2874
Rp2875
(dp2876
g17
VPP
p2877
sbatp2878
Rp2879
(dp2880
g17
VVP
p2881
sbatp2882
Rp2883
(dp2884
g17
g257
sbatp2885
Rp2886
(dp2887
g17
VPP
p2888
sbatp2889
Rp2890
(dp2891
g17
VVP
p2892
sbatp2893
Rp2894
(dp2895
g17
g257
sbatp2896
Rp2897
(dp2898
g17
VPP
p2899
sbatp2900
Rp2901
(dp2902
g17
VVP
p2903
sbatp2904
Rp2905
(dp2906
g17
VVP
p2907
sbatp2908
Rp2909
(dp2910
g17
g257
sbatp2911
Rp2912
(dp2913
g17
VROOT
p2914
sbasg273
(icmyPackage
CorE
p2915
(dp2916
g276
(lp2917
(I0
I18
tp2918
a(I0
I48
tp2919
asg280
g2894
sbsg281
(icmyPackage
CorE
p2920
(dp2921
g276
(lp2922
(I0
I0
tp2923
a(I0
I16
tp2924
asg280
g5
(g6
g7
(lp2925
g2460
ag2467
ag2474
ag2587
atp2926
Rp2927
(dp2928
g17
g291
sbsbsg292
g1075
sg316
(lp2929
(isxpPackage
sxpSent
p2930
(dp2931
g320
(lp2932
I7
asg322
VMore recent approaches have explored the use of external sources (e.g., Wikipedia, WordNet) for supporting the automatic labelling of topics by deriving candidate labels by means of lexical [ 14 , 21 , 22 ] or graph-based [ 12 ] algorithms applied on these sources
p2933
sg324
I2
sg308
I21
sg325
I5
sbasba(icmyPackage
CELink
p2934
(dp2935
g3
(lp2936
g5
(g6
g7
(lp2937
g5
(g6
g7
(lp2938
g5
(g6
g7
(lp2939
g5
(g6
g7
(lp2940
g5
(g6
g7
(lp2941
V-LSB-
p2942
atp2943
Rp2944
(dp2945
g17
VCD
p2946
sbag5
(g6
g7
(lp2947
V15
p2948
atp2949
Rp2950
(dp2951
g17
VCD
p2952
sbatp2953
Rp2954
(dp2955
g17
VQP
p2956
sbag5
(g6
g7
(lp2957
V-RSB-
p2958
atp2959
Rp2960
(dp2961
g17
VNNS
p2962
sbatp2963
Rp2964
(dp2965
g17
VNP
p2966
sbag5
(g6
g7
(lp2967
g5
(g6
g7
(lp2968
Vproposed
p2969
atp2970
Rp2971
(dp2972
g17
VVBD
p2973
sbag5
(g6
g7
(lp2974
g5
(g6
g7
(lp2975
g5
(g6
g7
(lp2976
Vto
p2977
atp2978
Rp2979
(dp2980
g17
VTO
p2981
sbag5
(g6
g7
(lp2982
g5
(g6
g7
(lp2983
Vlabel
p2984
atp2985
Rp2986
(dp2987
g17
VVB
p2988
sbag5
(g6
g7
(lp2989
g5
(g6
g7
(lp2990
Vtopics
p2991
atp2992
Rp2993
(dp2994
g17
VNNS
p2995
sbatp2996
Rp2997
(dp2998
g17
VNP
p2999
sbag5
(g6
g7
(lp3000
g5
(g6
g7
(lp3001
Vby
p3002
atp3003
Rp3004
(dp3005
g17
VIN
p3006
sbag5
(g6
g7
(lp3007
g5
(g6
g7
(lp3008
g5
(g6
g7
(lp3009
Vselecting
p3010
atp3011
Rp3012
(dp3013
g17
VVBG
p3014
sbag5
(g6
g7
(lp3015
g5
(g6
g7
(lp3016
Vtop
p3017
atp3018
Rp3019
(dp3020
g17
VNN
p3021
sbatp3022
Rp3023
(dp3024
g17
VNP
p3025
sbatp3026
Rp3027
(dp3028
g17
VVP
p3029
sbatp3030
Rp3031
(dp3032
g17
g257
sbatp3033
Rp3034
(dp3035
g17
VPP
p3036
sbatp3037
Rp3038
(dp3039
g17
VVP
p3040
sbatp3041
Rp3042
(dp3043
g17
VVP
p3044
sbatp3045
Rp3046
(dp3047
g17
g257
sbag5
(g6
g7
(lp3048
g1241
atp3049
Rp3050
(dp3051
g17
g1245
sbag5
(g6
g7
(lp3052
g5
(g6
g7
(lp3053
g5
(g6
g7
(lp3054
g1249
atp3055
Rp3056
(dp3057
g17
VNN
p3058
sbag5
(g6
g7
(lp3059
Vterms
p3060
atp3061
Rp3062
(dp3063
g17
VNNS
p3064
sbatp3065
Rp3066
(dp3067
g17
VNP
p3068
sbag5
(g6
g7
(lp3069
g5
(g6
g7
(lp3070
Vto
p3071
atp3072
Rp3073
(dp3074
g17
VTO
p3075
sbag5
(g6
g7
(lp3076
g5
(g6
g7
(lp3077
Vlabel
p3078
atp3079
Rp3080
(dp3081
g17
VVB
p3082
sbag5
(g6
g7
(lp3083
g5
(g6
g7
(lp3084
Vthe
p3085
atp3086
Rp3087
(dp3088
g17
VDT
p3089
sbag5
(g6
g7
(lp3090
Voverall
p3091
atp3092
Rp3093
(dp3094
g17
VJJ
p3095
sbag5
(g6
g7
(lp3096
Vtopic
p3097
atp3098
Rp3099
(dp3100
g17
VNN
p3101
sbatp3102
Rp3103
(dp3104
g17
VNP
p3105
sbag5
(g6
g7
(lp3106
g5
(g6
g7
(lp3107
Vbased
p3108
atp3109
Rp3110
(dp3111
g17
VVBN
p3112
sbag5
(g6
g7
(lp3113
g5
(g6
g7
(lp3114
Von
p3115
atp3116
Rp3117
(dp3118
g17
VIN
p3119
sbag5
(g6
g7
(lp3120
g5
(g6
g7
(lp3121
g5
(g6
g7
(lp3122
Vdifferent
p3123
atp3124
Rp3125
(dp3126
g17
VJJ
p3127
sbag5
(g6
g7
(lp3128
Vranking
p3129
atp3130
Rp3131
(dp3132
g17
VJJ
p3133
sbag5
(g6
g7
(lp3134
Vmechanisms
p3135
atp3136
Rp3137
(dp3138
g17
VNNS
p3139
sbatp3140
Rp3141
(dp3142
g17
VNP
p3143
sbag5
(g6
g7
(lp3144
g5
(g6
g7
(lp3145
Vincluding
p3146
atp3147
Rp3148
(dp3149
g17
VVBG
p3150
sbag5
(g6
g7
(lp3151
g5
(g6
g7
(lp3152
g5
(g6
g7
(lp3153
Vpointwise
p3154
atp3155
Rp3156
(dp3157
g17
VJJ
p3158
sbag5
(g6
g7
(lp3159
Vmutual
p3160
atp3161
Rp3162
(dp3163
g17
VJJ
p3164
sbag5
(g6
g7
(lp3165
Vinformation
p3166
atp3167
Rp3168
(dp3169
g17
VNN
p3170
sbatp3171
Rp3172
(dp3173
g17
VNP
p3174
sbag5
(g6
g7
(lp3175
Vand
p3176
atp3177
Rp3178
(dp3179
g17
VCC
p3180
sbag5
(g6
g7
(lp3181
g5
(g6
g7
(lp3182
Vconditional
p3183
atp3184
Rp3185
(dp3186
g17
VJJ
p3187
sbag5
(g6
g7
(lp3188
Vprobabilities
p3189
atp3190
Rp3191
(dp3192
g17
VNNS
p3193
sbatp3194
Rp3195
(dp3196
g17
VNP
p3197
sbatp3198
Rp3199
(dp3200
g17
VNP
p3201
sbatp3202
Rp3203
(dp3204
g17
VPP
p3205
sbatp3206
Rp3207
(dp3208
g17
VNP
p3209
sbatp3210
Rp3211
(dp3212
g17
VPP
p3213
sbatp3214
Rp3215
(dp3216
g17
VPP
p3217
sbatp3218
Rp3219
(dp3220
g17
VVP
p3221
sbatp3222
Rp3223
(dp3224
g17
VVP
p3225
sbatp3226
Rp3227
(dp3228
g17
g257
sbatp3229
Rp3230
(dp3231
g17
VVP
p3232
sbatp3233
Rp3234
(dp3235
g17
g257
sbatp3236
Rp3237
(dp3238
g17
VROOT
p3239
sbasg273
(icmyPackage
CorE
p3240
(dp3241
g276
(lp3242
(I0
I20
tp3243
a(I0
I29
tp3244
asg280
g3207
sbsg281
(icmyPackage
CorE
p3245
(dp3246
g276
(lp3247
(I0
I0
tp3248
a(I0
I17
tp3249
asg280
g5
(g6
g7
(lp3250
g2964
ag2971
ag3046
ag3050
ag3066
ag3073
ag3080
ag3103
atp3251
Rp3252
(dp3253
g17
g291
sbsbsg292
(icmyPackage
pattern
p3254
(dp3255
g295
I0
sg296
I0
sg297
(lp3256
(lp3257
S'based'
p3258
aS'on'
p3259
aasg301
(lp3260
I2
aI1
aI1
asg303
(lp3261
S'He said he planned to announce details of legislation on Sunday based on a Republican plan that would provide a short-term solution'
p3262
asg308
I48
sg309
(lp3263
(lp3264
S'&R'
p3265
aS'(,)'
p3266
aS'(&ADV)'
p3267
aa(lp3268
S'&V-ing/&NP@C@'
p3269
aS'(&Clause@C@)'
p3270
aasbsg316
(lp3271
(isxpPackage
sxpSent
p3272
(dp3273
g320
(lp3274
I8
aI9
asg322
V[ 15 ] proposed to label topics by selecting top- n terms to label the overall topic based on different ranking mechanisms including pointwise mutual information and conditional probabilities
p3275
sg324
I2
sg308
I26
sg325
I6
sbasba(icmyPackage
CELink
p3276
(dp3277
g3
(lp3278
g3252
asg273
(icmyPackage
CorE
p3279
(dp3280
g276
(lp3281
(I0
I8
tp3282
a(I0
I9
tp3283
asg280
g3031
sbsg281
(icmyPackage
CorE
p3284
(dp3285
g276
(lp3286
(I0
I10
tp3287
a(I0
I17
tp3288
asg280
g5
(g6
g7
(lp3289
g3050
ag3066
ag3073
ag3080
ag3103
atp3290
Rp3291
(dp3292
g17
g291
sbsbsg292
(icmyPackage
pattern
p3293
(dp3294
g295
I0
sg296
I0
sg297
(lp3295
(lp3296
(lp3297
S'by'
p3298
aS'through'
p3299
aaasg301
(lp3300
I2
aI1
aI1
asg303
(lp3301
S'By extracting comments and comparisons of the cited articles and then organizing them according to the time of publication discovers and displays how the area has developed as a research literature.'
p3302
asg308
I67
sg309
(lp3303
(lp3304
a(lp3305
S'&V-ing@C@'
p3306
aS'&R'
p3307
aasbsg316
(lp3308
g3272
asba(icmyPackage
CELink
p3309
(dp3310
g3
(lp3311
g5
(g6
g7
(lp3312
g5
(g6
g7
(lp3313
g5
(g6
g7
(lp3314
g5
(g6
g7
(lp3315
g5
(g6
g7
(lp3316
V-LSB-
p3317
atp3318
Rp3319
(dp3320
g17
VCD
p3321
sbag5
(g6
g7
(lp3322
V14
p3323
atp3324
Rp3325
(dp3326
g17
VCD
p3327
sbatp3328
Rp3329
(dp3330
g17
VQP
p3331
sbag5
(g6
g7
(lp3332
V-RSB-
p3333
atp3334
Rp3335
(dp3336
g17
VNNS
p3337
sbatp3338
Rp3339
(dp3340
g17
VNP
p3341
sbag5
(g6
g7
(lp3342
g5
(g6
g7
(lp3343
Vgenerated
p3344
atp3345
Rp3346
(dp3347
g17
VVBD
p3348
sbag5
(g6
g7
(lp3349
g5
(g6
g7
(lp3350
Vlabel
p3351
atp3352
Rp3353
(dp3354
g17
VNN
p3355
sbag5
(g6
g7
(lp3356
Vcandidates
p3357
atp3358
Rp3359
(dp3360
g17
VNNS
p3361
sbatp3362
Rp3363
(dp3364
g17
VNP
p3365
sbag5
(g6
g7
(lp3366
g5
(g6
g7
(lp3367
Vfor
p3368
atp3369
Rp3370
(dp3371
g17
VIN
p3372
sbag5
(g6
g7
(lp3373
g5
(g6
g7
(lp3374
g901
atp3375
Rp3376
(dp3377
g17
VDT
p3378
sbag5
(g6
g7
(lp3379
Vtopic
p3380
atp3381
Rp3382
(dp3383
g17
VNN
p3384
sbatp3385
Rp3386
(dp3387
g17
VNP
p3388
sbatp3389
Rp3390
(dp3391
g17
VPP
p3392
sbag5
(g6
g7
(lp3393
g5
(g6
g7
(lp3394
Vbased
p3395
atp3396
Rp3397
(dp3398
g17
VVBN
p3399
sbag5
(g6
g7
(lp3400
g5
(g6
g7
(lp3401
Von
p3402
atp3403
Rp3404
(dp3405
g17
VIN
p3406
sbag5
(g6
g7
(lp3407
g5
(g6
g7
(lp3408
g5
(g6
g7
(lp3409
Vtop-ranking
p3410
atp3411
Rp3412
(dp3413
g17
VJJ
p3414
sbag5
(g6
g7
(lp3415
Vtopic
p3416
atp3417
Rp3418
(dp3419
g17
VNN
p3420
sbag5
(g6
g7
(lp3421
Vterms
p3422
atp3423
Rp3424
(dp3425
g17
VNNS
p3426
sbag5
(g6
g7
(lp3427
Vand
p3428
atp3429
Rp3430
(dp3431
g17
VCC
p3432
sbag5
(g6
g7
(lp3433
Vtitles
p3434
atp3435
Rp3436
(dp3437
g17
VNNS
p3438
sbatp3439
Rp3440
(dp3441
g17
VNP
p3442
sbag5
(g6
g7
(lp3443
g5
(g6
g7
(lp3444
Vof
p3445
atp3446
Rp3447
(dp3448
g17
VIN
p3449
sbag5
(g6
g7
(lp3450
g5
(g6
g7
(lp3451
VWikipedia
p3452
atp3453
Rp3454
(dp3455
g17
VNNP
p3456
sbag5
(g6
g7
(lp3457
Varticles
p3458
atp3459
Rp3460
(dp3461
g17
VNNS
p3462
sbatp3463
Rp3464
(dp3465
g17
VNP
p3466
sbatp3467
Rp3468
(dp3469
g17
VPP
p3470
sbatp3471
Rp3472
(dp3473
g17
VNP
p3474
sbatp3475
Rp3476
(dp3477
g17
VPP
p3478
sbatp3479
Rp3480
(dp3481
g17
VPP
p3482
sbatp3483
Rp3484
(dp3485
g17
VVP
p3486
sbatp3487
Rp3488
(dp3489
g17
g257
sbatp3490
Rp3491
(dp3492
g17
VROOT
p3493
sbasg273
(icmyPackage
CorE
p3494
(dp3495
g276
(lp3496
(I0
I11
tp3497
a(I0
I18
tp3498
asg280
g3472
sbsg281
(icmyPackage
CorE
p3499
(dp3500
g276
(lp3501
(I0
I0
tp3502
a(I0
I8
tp3503
asg280
g5
(g6
g7
(lp3504
g3339
ag3346
ag3363
ag3390
atp3505
Rp3506
(dp3507
g17
g291
sbsbsg292
g3254
sg316
(lp3508
(isxpPackage
sxpSent
p3509
(dp3510
g320
(lp3511
I10
asg322
V[ 14 ] generated label candidates for a topic based on top-ranking topic terms and titles of Wikipedia articles
p3512
sg324
I2
sg308
I30
sg325
I7
sbasba(icmyPackage
CELink
p3513
(dp3514
g3
(lp3515
g5
(g6
g7
(lp3516
g5
(g6
g7
(lp3517
g5
(g6
g7
(lp3518
g5
(g6
g7
(lp3519
VThey
p3520
atp3521
Rp3522
(dp3523
g17
VPRP
p3524
sbatp3525
Rp3526
(dp3527
g17
VNP
p3528
sbag5
(g6
g7
(lp3529
g5
(g6
g7
(lp3530
g5
(g6
g7
(lp3531
Vthen
p3532
atp3533
Rp3534
(dp3535
g17
VRB
p3536
sbatp3537
Rp3538
(dp3539
g17
VADVP
p3540
sbag5
(g6
g7
(lp3541
Vbuilt
p3542
atp3543
Rp3544
(dp3545
g17
VVBD
p3546
sbag5
(g6
g7
(lp3547
g5
(g6
g7
(lp3548
g5
(g6
g7
(lp3549
g901
atp3550
Rp3551
(dp3552
g17
VDT
p3553
sbag5
(g6
g7
(lp3554
VSupport
p3555
atp3556
Rp3557
(dp3558
g17
VJJ
p3559
sbag5
(g6
g7
(lp3560
VVector
p3561
atp3562
Rp3563
(dp3564
g17
VNNP
p3565
sbag5
(g6
g7
(lp3566
VRegression
p3567
atp3568
Rp3569
(dp3570
g17
VNNP
p3571
sbag5
(g6
g7
(lp3572
g5
(g6
g7
(lp3573
V-LRB-
p3574
atp3575
Rp3576
(dp3577
g17
V-LRB-
p3578
sbag5
(g6
g7
(lp3579
g5
(g6
g7
(lp3580
VSVR
p3581
atp3582
Rp3583
(dp3584
g17
VNNP
p3585
sbatp3586
Rp3587
(dp3588
g17
VNP
p3589
sbag5
(g6
g7
(lp3590
V-RRB-
p3591
atp3592
Rp3593
(dp3594
g17
V-RRB-
p3595
sbatp3596
Rp3597
(dp3598
g17
VPRN
p3599
sbag5
(g6
g7
(lp3600
Vmodel
p3601
atp3602
Rp3603
(dp3604
g17
VNN
p3605
sbatp3606
Rp3607
(dp3608
g17
VNP
p3609
sbag5
(g6
g7
(lp3610
g5
(g6
g7
(lp3611
Vfor
p3612
atp3613
Rp3614
(dp3615
g17
VIN
p3616
sbag5
(g6
g7
(lp3617
g5
(g6
g7
(lp3618
g5
(g6
g7
(lp3619
Vranking
p3620
atp3621
Rp3622
(dp3623
g17
VVBG
p3624
sbag5
(g6
g7
(lp3625
g5
(g6
g7
(lp3626
Vthe
p3627
atp3628
Rp3629
(dp3630
g17
VDT
p3631
sbag5
(g6
g7
(lp3632
Vlabel
p3633
atp3634
Rp3635
(dp3636
g17
VNN
p3637
sbag5
(g6
g7
(lp3638
Vcandidates
p3639
atp3640
Rp3641
(dp3642
g17
VNNS
p3643
sbatp3644
Rp3645
(dp3646
g17
VNP
p3647
sbatp3648
Rp3649
(dp3650
g17
VVP
p3651
sbatp3652
Rp3653
(dp3654
g17
g257
sbatp3655
Rp3656
(dp3657
g17
VPP
p3658
sbatp3659
Rp3660
(dp3661
g17
VNP
p3662
sbatp3663
Rp3664
(dp3665
g17
VVP
p3666
sbatp3667
Rp3668
(dp3669
g17
g257
sbatp3670
Rp3671
(dp3672
g17
VROOT
p3673
sbasg273
(icmyPackage
CorE
p3674
(dp3675
g276
(lp3676
(I0
I12
tp3677
a(I0
I15
tp3678
asg280
g3653
sbsg281
(icmyPackage
CorE
p3679
(dp3680
g276
(lp3681
(I0
I0
tp3682
a(I0
I10
tp3683
asg280
g5
(g6
g7
(lp3684
g3526
ag3538
ag3544
ag3607
atp3685
Rp3686
(dp3687
g17
g291
sbsbsg292
g1075
sg316
(lp3688
(isxpPackage
sxpSent
p3689
(dp3690
g320
(lp3691
I11
asg322
VThey then built a Support Vector Regression (SVR) model for ranking the label candidates
p3692
sg324
I2
sg308
I31
sg325
I7
sbasba(icmyPackage
CELink
p3693
(dp3694
g3
(lp3695
g5
(g6
g7
(lp3696
g5
(g6
g7
(lp3697
g5
(g6
g7
(lp3698
g5
(g6
g7
(lp3699
VIn
p3700
atp3701
Rp3702
(dp3703
g17
VIN
p3704
sbag5
(g6
g7
(lp3705
g5
(g6
g7
(lp3706
Vnature
p3707
atp3708
Rp3709
(dp3710
g17
VNN
p3711
sbatp3712
Rp3713
(dp3714
g17
VNP
p3715
sbatp3716
Rp3717
(dp3718
g17
VPP
p3719
sbag5
(g6
g7
(lp3720
g5
(g6
g7
(lp3721
Vmicropost
p3722
atp3723
Rp3724
(dp3725
g17
VNN
p3726
sbag5
(g6
g7
(lp3727
Vcontent
p3728
atp3729
Rp3730
(dp3731
g17
VNN
p3732
sbatp3733
Rp3734
(dp3735
g17
VNP
p3736
sbag5
(g6
g7
(lp3737
g5
(g6
g7
(lp3738
Vis
p3739
atp3740
Rp3741
(dp3742
g17
VVBZ
p3743
sbag5
(g6
g7
(lp3744
g5
(g6
g7
(lp3745
g5
(g6
g7
(lp3746
Vsparse
p3747
atp3748
Rp3749
(dp3750
g17
VJJ
p3751
sbag5
(g6
g7
(lp3752
Vand
p3753
atp3754
Rp3755
(dp3756
g17
VCC
p3757
sbag5
(g6
g7
(lp3758
Vpresent
p3759
atp3760
Rp3761
(dp3762
g17
VJJ
p3763
sbatp3764
Rp3765
(dp3766
g17
VADJP
p3767
sbag5
(g6
g7
(lp3768
Vill-formed
p3769
atp3770
Rp3771
(dp3772
g17
VJJ
p3773
sbag5
(g6
g7
(lp3774
Vwords
p3775
atp3776
Rp3777
(dp3778
g17
VNNS
p3779
sbatp3780
Rp3781
(dp3782
g17
VNP
p3783
sbatp3784
Rp3785
(dp3786
g17
VVP
p3787
sbatp3788
Rp3789
(dp3790
g17
g257
sbatp3791
Rp3792
(dp3793
g17
VROOT
p3794
sbag5
(g6
g7
(lp3795
g5
(g6
g7
(lp3796
g5
(g6
g7
(lp3797
g5
(g6
g7
(lp3798
VMoreover
p3799
atp3800
Rp3801
(dp3802
g17
VRB
p3803
sbatp3804
Rp3805
(dp3806
g17
VADVP
p3807
sbag5
(g6
g7
(lp3808
g797
atp3809
Rp3810
(dp3811
g17
g797
sbag5
(g6
g7
(lp3812
g5
(g6
g7
(lp3813
g5
(g6
g7
(lp3814
Vthe
p3815
atp3816
Rp3817
(dp3818
g17
VDT
p3819
sbag5
(g6
g7
(lp3820
Vuse
p3821
atp3822
Rp3823
(dp3824
g17
VNN
p3825
sbatp3826
Rp3827
(dp3828
g17
VNP
p3829
sbag5
(g6
g7
(lp3830
g5
(g6
g7
(lp3831
Vof
p3832
atp3833
Rp3834
(dp3835
g17
VIN
p3836
sbag5
(g6
g7
(lp3837
g5
(g6
g7
(lp3838
g5
(g6
g7
(lp3839
VTwitter
p3840
atp3841
Rp3842
(dp3843
g17
VNNP
p3844
sbatp3845
Rp3846
(dp3847
g17
VNP
p3848
sbag5
(g6
g7
(lp3849
g5
(g6
g7
(lp3850
Vas
p3851
atp3852
Rp3853
(dp3854
g17
VIN
p3855
sbag5
(g6
g7
(lp3856
g5
(g6
g7
(lp3857
g5
(g6
g7
(lp3858
Vthe
p3859
atp3860
Rp3861
(dp3862
g17
VDT
p3863
sbag5
(g6
g7
(lp3864
Vu
p3865
atp3866
Rp3867
(dp3868
g17
VNN
p3869
sbag5
(g6
g7
(lp3870
V'
p3871
atp3872
Rp3873
(dp3874
g17
VPOS
p3875
sbatp3876
Rp3877
(dp3878
g17
VNP
p3879
sbag5
(g6
g7
(lp3880
V\u005c
p3881
atp3882
Rp3883
(dp3884
g17
VJJ
p3885
sbag5
(g6
g7
(lp3886
Vu201c
p3887
atp3888
Rp3889
(dp3890
g17
VNNS
p3891
sbatp3892
Rp3893
(dp3894
g17
VNP
p3895
sbatp3896
Rp3897
(dp3898
g17
VPP
p3899
sbatp3900
Rp3901
(dp3902
g17
VNP
p3903
sbatp3904
Rp3905
(dp3906
g17
VPP
p3907
sbag5
(g6
g7
(lp3908
g3871
atp3909
Rp3910
(dp3911
g17
V''
p3912
sbag5
(g6
g7
(lp3913
g5
(g6
g7
(lp3914
g5
(g6
g7
(lp3915
Vwhat
p3916
atp3917
Rp3918
(dp3919
g17
VWP
p3920
sbatp3921
Rp3922
(dp3923
g17
VWHNP
p3924
sbag5
(g6
g7
(lp3925
g5
(g6
g7
(lp3926
g5
(g6
g7
(lp3927
g5
(g6
g7
(lp3928
g3865
atp3929
Rp3930
(dp3931
g17
VVBP
p3932
sbag5
(g6
g7
(lp3933
g3871
atp3934
Rp3935
(dp3936
g17
V``
p3937
sbag5
(g6
g7
(lp3938
g5
(g6
g7
(lp3939
g5
(g6
g7
(lp3940
V\u005c
p3941
atp3942
Rp3943
(dp3944
g17
VNNP
p3945
sbag5
(g6
g7
(lp3946
Vu2019
p3947
atp3948
Rp3949
(dp3950
g17
VNNP
p3951
sbag5
(g6
g7
(lp3952
g3871
atp3953
Rp3954
(dp3955
g17
VPOS
p3956
sbatp3957
Rp3958
(dp3959
g17
VNP
p3960
sbag5
(g6
g7
(lp3961
Vs-happening-right
p3962
atp3963
Rp3964
(dp3965
g17
VJJ
p3966
sbag5
(g6
g7
(lp3967
Vnow
p3968
atp3969
Rp3970
(dp3971
g17
VJJ
p3972
sbag5
(g6
g7
(lp3973
g3865
atp3974
Rp3975
(dp3976
g17
VNN
p3977
sbatp3978
Rp3979
(dp3980
g17
VNP
p3981
sbag5
(g6
g7
(lp3982
g3871
atp3983
Rp3984
(dp3985
g17
V''
p3986
sbatp3987
Rp3988
(dp3989
g17
VVP
p3990
sbag5
(g6
g7
(lp3991
g5
(g6
g7
(lp3992
g5
(g6
g7
(lp3993
V\u005c
p3994
atp3995
Rp3996
(dp3997
g17
VNNP
p3998
sbag5
(g6
g7
(lp3999
Vu201d
p4000
atp4001
Rp4002
(dp4003
g17
VNNP
p4004
sbag5
(g6
g7
(lp4005
g3871
atp4006
Rp4007
(dp4008
g17
VPOS
p4009
sbatp4010
Rp4011
(dp4012
g17
VNP
p4013
sbag5
(g6
g7
(lp4014
Vtool
p4015
atp4016
Rp4017
(dp4018
g17
VNN
p4019
sbatp4020
Rp4021
(dp4022
g17
VNP
p4023
sbatp4024
Rp4025
(dp4026
g17
VVP
p4027
sbatp4028
Rp4029
(dp4030
g17
g257
sbatp4031
Rp4032
(dp4033
g17
VSBAR
p4034
sbag5
(g6
g7
(lp4035
g797
atp4036
Rp4037
(dp4038
g17
g797
sbatp4039
Rp4040
(dp4041
g17
VNP
p4042
sbag5
(g6
g7
(lp4043
g5
(g6
g7
(lp4044
Vintroduces
p4045
atp4046
Rp4047
(dp4048
g17
VVBZ
p4049
sbag5
(g6
g7
(lp4050
g5
(g6
g7
(lp4051
g5
(g6
g7
(lp4052
Vnew
p4053
atp4054
Rp4055
(dp4056
g17
VJJ
p4057
sbag5
(g6
g7
(lp4058
Vevent-dependent
p4059
atp4060
Rp4061
(dp4062
g17
VJJ
p4063
sbag5
(g6
g7
(lp4064
Vrelations
p4065
atp4066
Rp4067
(dp4068
g17
VNNS
p4069
sbatp4070
Rp4071
(dp4072
g17
VNP
p4073
sbag5
(g6
g7
(lp4074
g5
(g6
g7
(lp4075
Vbetween
p4076
atp4077
Rp4078
(dp4079
g17
VIN
p4080
sbag5
(g6
g7
(lp4081
g5
(g6
g7
(lp4082
g5
(g6
g7
(lp4083
Vwords
p4084
atp4085
Rp4086
(dp4087
g17
VNNS
p4088
sbatp4089
Rp4090
(dp4091
g17
VNP
p4092
sbag5
(g6
g7
(lp4093
g5
(g6
g7
(lp4094
g5
(g6
g7
(lp4095
Vwhich
p4096
atp4097
Rp4098
(dp4099
g17
VWDT
p4100
sbatp4101
Rp4102
(dp4103
g17
VWHNP
p4104
sbag5
(g6
g7
(lp4105
g5
(g6
g7
(lp4106
g5
(g6
g7
(lp4107
Vmight
p4108
atp4109
Rp4110
(dp4111
g17
VMD
p4112
sbag5
(g6
g7
(lp4113
Vnot
p4114
atp4115
Rp4116
(dp4117
g17
VRB
p4118
sbag5
(g6
g7
(lp4119
g5
(g6
g7
(lp4120
Vhave
p4121
atp4122
Rp4123
(dp4124
g17
VVB
p4125
sbag5
(g6
g7
(lp4126
g5
(g6
g7
(lp4127
g5
(g6
g7
(lp4128
g901
atp4129
Rp4130
(dp4131
g17
VDT
p4132
sbag5
(g6
g7
(lp4133
Vcounter
p4134
atp4135
Rp4136
(dp4137
g17
VJJ
p4138
sbag5
(g6
g7
(lp4139
Vpart
p4140
atp4141
Rp4142
(dp4143
g17
VNN
p4144
sbatp4145
Rp4146
(dp4147
g17
VNP
p4148
sbag5
(g6
g7
(lp4149
g5
(g6
g7
(lp4150
Vin
p4151
atp4152
Rp4153
(dp4154
g17
VIN
p4155
sbag5
(g6
g7
(lp4156
g5
(g6
g7
(lp4157
Vexisting
p4158
atp4159
Rp4160
(dp4161
g17
VVBG
p4162
sbag5
(g6
g7
(lp4163
Vknowledge
p4164
atp4165
Rp4166
(dp4167
g17
VNN
p4168
sbag5
(g6
g7
(lp4169
Vsources
p4170
atp4171
Rp4172
(dp4173
g17
VNNS
p4174
sbatp4175
Rp4176
(dp4177
g17
VNP
p4178
sbatp4179
Rp4180
(dp4181
g17
VPP
p4182
sbatp4183
Rp4184
(dp4185
g17
VNP
p4186
sbatp4187
Rp4188
(dp4189
g17
VVP
p4190
sbatp4191
Rp4192
(dp4193
g17
VVP
p4194
sbatp4195
Rp4196
(dp4197
g17
g257
sbatp4198
Rp4199
(dp4200
g17
VSBAR
p4201
sbag5
(g6
g7
(lp4202
g5
(g6
g7
(lp4203
V-LRB-
p4204
atp4205
Rp4206
(dp4207
g17
V-LRB-
p4208
sbag5
(g6
g7
(lp4209
g5
(g6
g7
(lp4210
Ve.g.
p4211
atp4212
Rp4213
(dp4214
g17
VNNP
p4215
sbatp4216
Rp4217
(dp4218
g17
VNP
p4219
sbag5
(g6
g7
(lp4220
g797
atp4221
Rp4222
(dp4223
g17
g797
sbag5
(g6
g7
(lp4224
g5
(g6
g7
(lp4225
VWikipedia
p4226
atp4227
Rp4228
(dp4229
g17
VNNP
p4230
sbatp4231
Rp4232
(dp4233
g17
VNP
p4234
sbatp4235
Rp4236
(dp4237
g17
VPRN
p4238
sbatp4239
Rp4240
(dp4241
g17
VNP
p4242
sbatp4243
Rp4244
(dp4245
g17
VPP
p4246
sbatp4247
Rp4248
(dp4249
g17
VNP
p4250
sbatp4251
Rp4252
(dp4253
g17
VVP
p4254
sbatp4255
Rp4256
(dp4257
g17
g257
sbatp4258
Rp4259
(dp4260
g17
VROOT
p4261
sbasg273
(icmyPackage
CorE
p4262
(dp4263
g276
(lp4264
(I1
I7
tp4265
a(I1
I45
tp4266
asg280
g5
(g6
g7
(lp4267
g3893
ag3910
ag4032
ag4037
ag4047
ag4071
ag4078
ag4090
ag4199
ag4206
atp4268
Rp4269
(dp4270
g17
g291
sbsbsg281
(icmyPackage
CorE
p4271
(dp4272
g276
(lp4273
(I0
I1
tp4274
a(I1
I5
tp4275
asg280
g5
(g6
g7
(lp4276
g3713
ag3734
ag3785
ag3805
ag3810
ag3827
ag3834
ag3846
atp4277
Rp4278
(dp4279
g17
g291
sbsbsg292
g1474
sg316
(lp4280
(isxpPackage
sxpSent
p4281
(dp4282
g320
(lp4283
I12
asg322
VIn nature micropost content is sparse and present ill-formed words
p4284
sg324
I2
sg308
I36
sg325
I8
sba(isxpPackage
sxpSent
p4285
(dp4286
g320
(lp4287
I12
asg322
VMoreover, the use of Twitter as the u'\u005cu201c' what u'\u005cu2019' s-happening-right now u'\u005cu201d' tool, introduces new event-dependent relations between words which might not have a counter part in existing knowledge sources (e.g., Wikipedia
p4288
sg324
I2
sg308
I37
sg325
I8
sbasba(icmyPackage
CELink
p4289
(dp4290
g3
(lp4291
g5
(g6
g7
(lp4292
g5
(g6
g7
(lp4293
g5
(g6
g7
(lp4294
g5
(g6
g7
(lp4295
g5
(g6
g7
(lp4296
VOur
p4297
atp4298
Rp4299
(dp4300
g17
VPRP$
p4301
sbag5
(g6
g7
(lp4302
Voriginal
p4303
atp4304
Rp4305
(dp4306
g17
VJJ
p4307
sbag5
(g6
g7
(lp4308
Vinterest
p4309
atp4310
Rp4311
(dp4312
g17
VNN
p4313
sbatp4314
Rp4315
(dp4316
g17
VNP
p4317
sbag5
(g6
g7
(lp4318
g5
(g6
g7
(lp4319
Vin
p4320
atp4321
Rp4322
(dp4323
g17
VIN
p4324
sbag5
(g6
g7
(lp4325
g5
(g6
g7
(lp4326
g5
(g6
g7
(lp4327
Vlabelling
p4328
atp4329
Rp4330
(dp4331
g17
VVBG
p4332
sbag5
(g6
g7
(lp4333
g5
(g6
g7
(lp4334
Vtopics
p4335
atp4336
Rp4337
(dp4338
g17
VNNS
p4339
sbatp4340
Rp4341
(dp4342
g17
VNP
p4343
sbatp4344
Rp4345
(dp4346
g17
VVP
p4347
sbatp4348
Rp4349
(dp4350
g17
g257
sbatp4351
Rp4352
(dp4353
g17
VPP
p4354
sbatp4355
Rp4356
(dp4357
g17
VNP
p4358
sbag5
(g6
g7
(lp4359
g5
(g6
g7
(lp4360
Vstems
p4361
atp4362
Rp4363
(dp4364
g17
VVBZ
p4365
sbag5
(g6
g7
(lp4366
g5
(g6
g7
(lp4367
Vfrom
p4368
atp4369
Rp4370
(dp4371
g17
VIN
p4372
sbag5
(g6
g7
(lp4373
g5
(g6
g7
(lp4374
g5
(g6
g7
(lp4375
Vwork
p4376
atp4377
Rp4378
(dp4379
g17
VNN
p4380
sbatp4381
Rp4382
(dp4383
g17
VNP
p4384
sbag5
(g6
g7
(lp4385
g5
(g6
g7
(lp4386
Vin
p4387
atp4388
Rp4389
(dp4390
g17
VIN
p4391
sbag5
(g6
g7
(lp4392
g5
(g6
g7
(lp4393
g5
(g6
g7
(lp4394
Vtopic
p4395
atp4396
Rp4397
(dp4398
g17
VNN
p4399
sbag5
(g6
g7
(lp4400
Vmodel
p4401
atp4402
Rp4403
(dp4404
g17
VNN
p4405
sbatp4406
Rp4407
(dp4408
g17
VNP
p4409
sbag5
(g6
g7
(lp4410
g5
(g6
g7
(lp4411
Vbased
p4412
atp4413
Rp4414
(dp4415
g17
VVBN
p4416
sbag5
(g6
g7
(lp4417
g5
(g6
g7
(lp4418
Vevent
p4419
atp4420
Rp4421
(dp4422
g17
VNN
p4423
sbag5
(g6
g7
(lp4424
Vextraction
p4425
atp4426
Rp4427
(dp4428
g17
VNN
p4429
sbatp4430
Rp4431
(dp4432
g17
VNP
p4433
sbag5
(g6
g7
(lp4434
g5
(g6
g7
(lp4435
Vfrom
p4436
atp4437
Rp4438
(dp4439
g17
VIN
p4440
sbag5
(g6
g7
(lp4441
g5
(g6
g7
(lp4442
Vsocial
p4443
atp4444
Rp4445
(dp4446
g17
VJJ
p4447
sbag5
(g6
g7
(lp4448
Vmedia
p4449
atp4450
Rp4451
(dp4452
g17
VNNS
p4453
sbatp4454
Rp4455
(dp4456
g17
VNP
p4457
sbatp4458
Rp4459
(dp4460
g17
VPP
p4461
sbag5
(g6
g7
(lp4462
g797
atp4463
Rp4464
(dp4465
g17
g797
sbag5
(g6
g7
(lp4466
g5
(g6
g7
(lp4467
Vin
p4468
atp4469
Rp4470
(dp4471
g17
VIN
p4472
sbag5
(g6
g7
(lp4473
g5
(g6
g7
(lp4474
g5
(g6
g7
(lp4475
Vparticular
p4476
atp4477
Rp4478
(dp4479
g17
VJJ
p4480
sbatp4481
Rp4482
(dp4483
g17
VNP
p4484
sbag5
(g6
g7
(lp4485
g5
(g6
g7
(lp4486
Vfrom
p4487
atp4488
Rp4489
(dp4490
g17
VIN
p4491
sbag5
(g6
g7
(lp4492
g5
(g6
g7
(lp4493
g5
(g6
g7
(lp4494
Vtweets
p4495
atp4496
Rp4497
(dp4498
g17
VNNS
p4499
sbatp4500
Rp4501
(dp4502
g17
VNP
p4503
sbag5
(g6
g7
(lp4504
g5
(g6
g7
(lp4505
g5
(g6
g7
(lp4506
V-LSB-
p4507
atp4508
Rp4509
(dp4510
g17
VNNP
p4511
sbag5
(g6
g7
(lp4512
V32
p4513
atp4514
Rp4515
(dp4516
g17
VCD
p4517
sbag5
(g6
g7
(lp4518
g797
atp4519
Rp4520
(dp4521
g17
g797
sbag5
(g6
g7
(lp4522
V6
p4523
atp4524
Rp4525
(dp4526
g17
VCD
p4527
sbatp4528
Rp4529
(dp4530
g17
VNP
p4531
sbag5
(g6
g7
(lp4532
V-RSB-
p4533
atp4534
Rp4535
(dp4536
g17
VJJ
p4537
sbatp4538
Rp4539
(dp4540
g17
VADJP
p4541
sbatp4542
Rp4543
(dp4544
g17
VNP
p4545
sbatp4546
Rp4547
(dp4548
g17
VPP
p4549
sbatp4550
Rp4551
(dp4552
g17
VNP
p4553
sbatp4554
Rp4555
(dp4556
g17
VPP
p4557
sbatp4558
Rp4559
(dp4560
g17
VVP
p4561
sbatp4562
Rp4563
(dp4564
g17
VNP
p4565
sbatp4566
Rp4567
(dp4568
g17
VPP
p4569
sbatp4570
Rp4571
(dp4572
g17
VNP
p4573
sbatp4574
Rp4575
(dp4576
g17
VPP
p4577
sbatp4578
Rp4579
(dp4580
g17
VVP
p4581
sbatp4582
Rp4583
(dp4584
g17
g257
sbatp4585
Rp4586
(dp4587
g17
VROOT
p4588
sbag5
(g6
g7
(lp4589
g5
(g6
g7
(lp4590
g5
(g6
g7
(lp4591
g5
(g6
g7
(lp4592
VAs
p4593
atp4594
Rp4595
(dp4596
g17
VIN
p4597
sbag5
(g6
g7
(lp4598
g5
(g6
g7
(lp4599
g5
(g6
g7
(lp4600
Vopposed
p4601
atp4602
Rp4603
(dp4604
g17
VVBN
p4605
sbag5
(g6
g7
(lp4606
g5
(g6
g7
(lp4607
Vto
p4608
atp4609
Rp4610
(dp4611
g17
VTO
p4612
sbag5
(g6
g7
(lp4613
g5
(g6
g7
(lp4614
Vprevious
p4615
atp4616
Rp4617
(dp4618
g17
VJJ
p4619
sbag5
(g6
g7
(lp4620
Vapproaches
p4621
atp4622
Rp4623
(dp4624
g17
VNNS
p4625
sbatp4626
Rp4627
(dp4628
g17
VNP
p4629
sbatp4630
Rp4631
(dp4632
g17
VPP
p4633
sbatp4634
Rp4635
(dp4636
g17
VVP
p4637
sbatp4638
Rp4639
(dp4640
g17
g257
sbatp4641
Rp4642
(dp4643
g17
VSBAR
p4644
sbag5
(g6
g7
(lp4645
g797
atp4646
Rp4647
(dp4648
g17
g797
sbag5
(g6
g7
(lp4649
g5
(g6
g7
(lp4650
g5
(g6
g7
(lp4651
Vthe
p4652
atp4653
Rp4654
(dp4655
g17
VDT
p4656
sbag5
(g6
g7
(lp4657
Vresearch
p4658
atp4659
Rp4660
(dp4661
g17
VNN
p4662
sbatp4663
Rp4664
(dp4665
g17
VNP
p4666
sbag5
(g6
g7
(lp4667
g5
(g6
g7
(lp4668
Vpresented
p4669
atp4670
Rp4671
(dp4672
g17
VVBN
p4673
sbag5
(g6
g7
(lp4674
g5
(g6
g7
(lp4675
Vin
p4676
atp4677
Rp4678
(dp4679
g17
VIN
p4680
sbag5
(g6
g7
(lp4681
g5
(g6
g7
(lp4682
Vthis
p4683
atp4684
Rp4685
(dp4686
g17
VDT
p4687
sbag5
(g6
g7
(lp4688
Vpaper
p4689
atp4690
Rp4691
(dp4692
g17
VNN
p4693
sbatp4694
Rp4695
(dp4696
g17
VNP
p4697
sbatp4698
Rp4699
(dp4700
g17
VPP
p4701
sbatp4702
Rp4703
(dp4704
g17
VVP
p4705
sbatp4706
Rp4707
(dp4708
g17
VNP
p4709
sbag5
(g6
g7
(lp4710
g5
(g6
g7
(lp4711
Vaddresses
p4712
atp4713
Rp4714
(dp4715
g17
VVBZ
p4716
sbag5
(g6
g7
(lp4717
g5
(g6
g7
(lp4718
g5
(g6
g7
(lp4719
Vthe
p4720
atp4721
Rp4722
(dp4723
g17
VDT
p4724
sbag5
(g6
g7
(lp4725
Vlabelling
p4726
atp4727
Rp4728
(dp4729
g17
VNN
p4730
sbatp4731
Rp4732
(dp4733
g17
VNP
p4734
sbag5
(g6
g7
(lp4735
g5
(g6
g7
(lp4736
Vof
p4737
atp4738
Rp4739
(dp4740
g17
VIN
p4741
sbag5
(g6
g7
(lp4742
g5
(g6
g7
(lp4743
g5
(g6
g7
(lp4744
Vtopics
p4745
atp4746
Rp4747
(dp4748
g17
VNNS
p4749
sbatp4750
Rp4751
(dp4752
g17
VNP
p4753
sbag5
(g6
g7
(lp4754
g5
(g6
g7
(lp4755
Vexposing
p4756
atp4757
Rp4758
(dp4759
g17
VVBG
p4760
sbag5
(g6
g7
(lp4761
g5
(g6
g7
(lp4762
g5
(g6
g7
(lp4763
Vevent-related
p4764
atp4765
Rp4766
(dp4767
g17
VJJ
p4768
sbag5
(g6
g7
(lp4769
Vcontent
p4770
atp4771
Rp4772
(dp4773
g17
VNN
p4774
sbatp4775
Rp4776
(dp4777
g17
VNP
p4778
sbag5
(g6
g7
(lp4779
g5
(g6
g7
(lp4780
g5
(g6
g7
(lp4781
Vthat
p4782
atp4783
Rp4784
(dp4785
g17
VWDT
p4786
sbatp4787
Rp4788
(dp4789
g17
VWHNP
p4790
sbag5
(g6
g7
(lp4791
g5
(g6
g7
(lp4792
g5
(g6
g7
(lp4793
Vmight
p4794
atp4795
Rp4796
(dp4797
g17
VMD
p4798
sbag5
(g6
g7
(lp4799
Vnot
p4800
atp4801
Rp4802
(dp4803
g17
VRB
p4804
sbag5
(g6
g7
(lp4805
g5
(g6
g7
(lp4806
Vhave
p4807
atp4808
Rp4809
(dp4810
g17
VVB
p4811
sbag5
(g6
g7
(lp4812
g5
(g6
g7
(lp4813
g5
(g6
g7
(lp4814
g901
atp4815
Rp4816
(dp4817
g17
VDT
p4818
sbag5
(g6
g7
(lp4819
Vcounter
p4820
atp4821
Rp4822
(dp4823
g17
VJJ
p4824
sbag5
(g6
g7
(lp4825
Vpart
p4826
atp4827
Rp4828
(dp4829
g17
VNN
p4830
sbatp4831
Rp4832
(dp4833
g17
VNP
p4834
sbag5
(g6
g7
(lp4835
g5
(g6
g7
(lp4836
Von
p4837
atp4838
Rp4839
(dp4840
g17
VIN
p4841
sbag5
(g6
g7
(lp4842
g5
(g6
g7
(lp4843
Vexisting
p4844
atp4845
Rp4846
(dp4847
g17
VVBG
p4848
sbag5
(g6
g7
(lp4849
Vexternal
p4850
atp4851
Rp4852
(dp4853
g17
VJJ
p4854
sbag5
(g6
g7
(lp4855
Vsources
p4856
atp4857
Rp4858
(dp4859
g17
VNNS
p4860
sbatp4861
Rp4862
(dp4863
g17
VNP
p4864
sbatp4865
Rp4866
(dp4867
g17
VPP
p4868
sbatp4869
Rp4870
(dp4871
g17
VNP
p4872
sbatp4873
Rp4874
(dp4875
g17
VVP
p4876
sbatp4877
Rp4878
(dp4879
g17
VVP
p4880
sbatp4881
Rp4882
(dp4883
g17
g257
sbatp4884
Rp4885
(dp4886
g17
VSBAR
p4887
sbatp4888
Rp4889
(dp4890
g17
VNP
p4891
sbatp4892
Rp4893
(dp4894
g17
VVP
p4895
sbatp4896
Rp4897
(dp4898
g17
VNP
p4899
sbatp4900
Rp4901
(dp4902
g17
VPP
p4903
sbatp4904
Rp4905
(dp4906
g17
VNP
p4907
sbatp4908
Rp4909
(dp4910
g17
VVP
p4911
sbatp4912
Rp4913
(dp4914
g17
g257
sbatp4915
Rp4916
(dp4917
g17
VROOT
p4918
sbasg273
(icmyPackage
CorE
p4919
(dp4920
g276
(lp4921
(I1
I1
tp4922
a(I1
I16
tp4923
asg280
g5
(g6
g7
(lp4924
g4639
ag4647
ag4707
ag4714
ag4732
ag4739
ag4751
atp4925
Rp4926
(dp4927
g17
g291
sbsbsg281
(icmyPackage
CorE
p4928
(dp4929
g276
(lp4930
(I0
I0
tp4931
a(I0
I27
tp4932
asg280
g4586
sbsg292
g1474
sg316
(lp4933
(isxpPackage
sxpSent
p4934
(dp4935
g320
(lp4936
I13
asg322
VOur original interest in labelling topics stems from work in topic model based event extraction from social media, in particular from tweets [ 32 , 6 ]
p4937
sg324
I2
sg308
I38
sg325
I8
sba(isxpPackage
sxpSent
p4938
(dp4939
g320
(lp4940
I13
asg322
VAs opposed to previous approaches, the research presented in this paper addresses the labelling of topics exposing event-related content that might not have a counter part on existing external sources
p4941
sg324
I2
sg308
I39
sg325
I8
sbasba(icmyPackage
CELink
p4942
(dp4943
g3
(lp4944
g5
(g6
g7
(lp4945
g5
(g6
g7
(lp4946
g5
(g6
g7
(lp4947
g5
(g6
g7
(lp4948
VBased
p4949
atp4950
Rp4951
(dp4952
g17
VVBN
p4953
sbag5
(g6
g7
(lp4954
g5
(g6
g7
(lp4955
Von
p4956
atp4957
Rp4958
(dp4959
g17
VIN
p4960
sbag5
(g6
g7
(lp4961
g5
(g6
g7
(lp4962
g5
(g6
g7
(lp4963
Vthe
p4964
atp4965
Rp4966
(dp4967
g17
VDT
p4968
sbag5
(g6
g7
(lp4969
Vobservation
p4970
atp4971
Rp4972
(dp4973
g17
VNN
p4974
sbatp4975
Rp4976
(dp4977
g17
VNP
p4978
sbag5
(g6
g7
(lp4979
g5
(g6
g7
(lp4980
Vthat
p4981
atp4982
Rp4983
(dp4984
g17
VIN
p4985
sbag5
(g6
g7
(lp4986
g5
(g6
g7
(lp4987
g5
(g6
g7
(lp4988
g5
(g6
g7
(lp4989
g901
atp4990
Rp4991
(dp4992
g17
VDT
p4993
sbag5
(g6
g7
(lp4994
Vshort
p4995
atp4996
Rp4997
(dp4998
g17
VJJ
p4999
sbag5
(g6
g7
(lp5000
Vsummary
p5001
atp5002
Rp5003
(dp5004
g17
VNN
p5005
sbatp5006
Rp5007
(dp5008
g17
VNP
p5009
sbag5
(g6
g7
(lp5010
g5
(g6
g7
(lp5011
Vof
p5012
atp5013
Rp5014
(dp5015
g17
VIN
p5016
sbag5
(g6
g7
(lp5017
g5
(g6
g7
(lp5018
g5
(g6
g7
(lp5019
g901
atp5020
Rp5021
(dp5022
g17
VDT
p5023
sbag5
(g6
g7
(lp5024
Vcollection
p5025
atp5026
Rp5027
(dp5028
g17
VNN
p5029
sbatp5030
Rp5031
(dp5032
g17
VNP
p5033
sbag5
(g6
g7
(lp5034
g5
(g6
g7
(lp5035
Vof
p5036
atp5037
Rp5038
(dp5039
g17
VIN
p5040
sbag5
(g6
g7
(lp5041
g5
(g6
g7
(lp5042
Vdocuments
p5043
atp5044
Rp5045
(dp5046
g17
VNNS
p5047
sbatp5048
Rp5049
(dp5050
g17
VNP
p5051
sbatp5052
Rp5053
(dp5054
g17
VPP
p5055
sbatp5056
Rp5057
(dp5058
g17
VNP
p5059
sbatp5060
Rp5061
(dp5062
g17
VPP
p5063
sbatp5064
Rp5065
(dp5066
g17
VNP
p5067
sbag5
(g6
g7
(lp5068
g5
(g6
g7
(lp5069
Vcan
p5070
atp5071
Rp5072
(dp5073
g17
VMD
p5074
sbag5
(g6
g7
(lp5075
g5
(g6
g7
(lp5076
Vserve
p5077
atp5078
Rp5079
(dp5080
g17
VVB
p5081
sbag5
(g6
g7
(lp5082
g5
(g6
g7
(lp5083
Vas
p5084
atp5085
Rp5086
(dp5087
g17
VIN
p5088
sbag5
(g6
g7
(lp5089
g5
(g6
g7
(lp5090
g5
(g6
g7
(lp5091
g901
atp5092
Rp5093
(dp5094
g17
VDT
p5095
sbag5
(g6
g7
(lp5096
Vlabel
p5097
atp5098
Rp5099
(dp5100
g17
VNN
p5101
sbatp5102
Rp5103
(dp5104
g17
VNP
p5105
sbag5
(g6
g7
(lp5106
g5
(g6
g7
(lp5107
Vcharacterising
p5108
atp5109
Rp5110
(dp5111
g17
VVBG
p5112
sbag5
(g6
g7
(lp5113
g5
(g6
g7
(lp5114
Vthe
p5115
atp5116
Rp5117
(dp5118
g17
VDT
p5119
sbag5
(g6
g7
(lp5120
Vcollection
p5121
atp5122
Rp5123
(dp5124
g17
VNN
p5125
sbatp5126
Rp5127
(dp5128
g17
VNP
p5129
sbatp5130
Rp5131
(dp5132
g17
VVP
p5133
sbatp5134
Rp5135
(dp5136
g17
VNP
p5137
sbatp5138
Rp5139
(dp5140
g17
VPP
p5141
sbatp5142
Rp5143
(dp5144
g17
VVP
p5145
sbatp5146
Rp5147
(dp5148
g17
VVP
p5149
sbatp5150
Rp5151
(dp5152
g17
g257
sbatp5153
Rp5154
(dp5155
g17
VSBAR
p5156
sbatp5157
Rp5158
(dp5159
g17
VNP
p5160
sbatp5161
Rp5162
(dp5163
g17
VPP
p5164
sbatp5165
Rp5166
(dp5167
g17
VPP
p5168
sbag5
(g6
g7
(lp5169
g797
atp5170
Rp5171
(dp5172
g17
g797
sbag5
(g6
g7
(lp5173
g5
(g6
g7
(lp5174
Vwe
p5175
atp5176
Rp5177
(dp5178
g17
VPRP
p5179
sbatp5180
Rp5181
(dp5182
g17
VNP
p5183
sbag5
(g6
g7
(lp5184
g5
(g6
g7
(lp5185
Vpropose
p5186
atp5187
Rp5188
(dp5189
g17
VVBP
p5190
sbag5
(g6
g7
(lp5191
g5
(g6
g7
(lp5192
g5
(g6
g7
(lp5193
Vto
p5194
atp5195
Rp5196
(dp5197
g17
VTO
p5198
sbag5
(g6
g7
(lp5199
g5
(g6
g7
(lp5200
Vgenerate
p5201
atp5202
Rp5203
(dp5204
g17
VVB
p5205
sbag5
(g6
g7
(lp5206
g5
(g6
g7
(lp5207
Vtopic
p5208
atp5209
Rp5210
(dp5211
g17
VNN
p5212
sbag5
(g6
g7
(lp5213
Vlabel
p5214
atp5215
Rp5216
(dp5217
g17
VNN
p5218
sbag5
(g6
g7
(lp5219
Vcandidates
p5220
atp5221
Rp5222
(dp5223
g17
VNNS
p5224
sbatp5225
Rp5226
(dp5227
g17
VNP
p5228
sbag5
(g6
g7
(lp5229
g5
(g6
g7
(lp5230
Vbased
p5231
atp5232
Rp5233
(dp5234
g17
VVBN
p5235
sbag5
(g6
g7
(lp5236
g5
(g6
g7
(lp5237
Von
p5238
atp5239
Rp5240
(dp5241
g17
VIN
p5242
sbag5
(g6
g7
(lp5243
g5
(g6
g7
(lp5244
g5
(g6
g7
(lp5245
Vthe
p5246
atp5247
Rp5248
(dp5249
g17
VDT
p5250
sbag5
(g6
g7
(lp5251
Vsummarisation
p5252
atp5253
Rp5254
(dp5255
g17
VNN
p5256
sbatp5257
Rp5258
(dp5259
g17
VNP
p5260
sbag5
(g6
g7
(lp5261
g5
(g6
g7
(lp5262
Vof
p5263
atp5264
Rp5265
(dp5266
g17
VIN
p5267
sbag5
(g6
g7
(lp5268
g5
(g6
g7
(lp5269
g5
(g6
g7
(lp5270
g901
atp5271
Rp5272
(dp5273
g17
VDT
p5274
sbag5
(g6
g7
(lp5275
Vtopic
p5276
atp5277
Rp5278
(dp5279
g17
VNN
p5280
sbag5
(g6
g7
(lp5281
g3865
atp5282
Rp5283
(dp5284
g17
VNN
p5285
sbag5
(g6
g7
(lp5286
g3871
atp5287
Rp5288
(dp5289
g17
VPOS
p5290
sbatp5291
Rp5292
(dp5293
g17
VNP
p5294
sbag5
(g6
g7
(lp5295
V\u005c
p5296
atp5297
Rp5298
(dp5299
g17
VJJ
p5300
sbag5
(g6
g7
(lp5301
Vu2019
p5302
atp5303
Rp5304
(dp5305
g17
VNNS
p5306
sbatp5307
Rp5308
(dp5309
g17
VNP
p5310
sbatp5311
Rp5312
(dp5313
g17
VPP
p5314
sbag5
(g6
g7
(lp5315
g3871
atp5316
Rp5317
(dp5318
g17
V''
p5319
sbag5
(g6
g7
(lp5320
g5
(g6
g7
(lp5321
g5
(g6
g7
(lp5322
g5
(g6
g7
(lp5323
Vs
p5324
atp5325
Rp5326
(dp5327
g17
VVBZ
p5328
sbag5
(g6
g7
(lp5329
g5
(g6
g7
(lp5330
Vrelevant
p5331
atp5332
Rp5333
(dp5334
g17
VJJ
p5335
sbag5
(g6
g7
(lp5336
Vdocuments
p5337
atp5338
Rp5339
(dp5340
g17
VNNS
p5341
sbatp5342
Rp5343
(dp5344
g17
VNP
p5345
sbatp5346
Rp5347
(dp5348
g17
VVP
p5349
sbatp5350
Rp5351
(dp5352
g17
g257
sbatp5353
Rp5354
(dp5355
g17
VSBAR
p5356
sbatp5357
Rp5358
(dp5359
g17
VNP
p5360
sbatp5361
Rp5362
(dp5363
g17
VPP
p5364
sbatp5365
Rp5366
(dp5367
g17
VPP
p5368
sbatp5369
Rp5370
(dp5371
g17
VVP
p5372
sbatp5373
Rp5374
(dp5375
g17
VVP
p5376
sbatp5377
Rp5378
(dp5379
g17
g257
sbatp5380
Rp5381
(dp5382
g17
VVP
p5383
sbatp5384
Rp5385
(dp5386
g17
g257
sbatp5387
Rp5388
(dp5389
g17
VROOT
p5390
sbasg273
(icmyPackage
CorE
p5391
(dp5392
g276
(lp5393
(I0
I16
tp5394
a(I0
I43
tp5395
asg280
g5
(g6
g7
(lp5396
g5135
ag5171
ag5181
ag5381
atp5397
Rp5398
(dp5399
g17
g291
sbsbsg281
(icmyPackage
CorE
p5400
(dp5401
g276
(lp5402
(I0
I5
tp5403
a(I0
I14
tp5404
asg280
g5
(g6
g7
(lp5405
g5065
ag5072
ag5079
atp5406
Rp5407
(dp5408
g17
g291
sbsbsg292
g1474
sg316
(lp5409
(isxpPackage
sxpSent
p5410
(dp5411
g320
(lp5412
I14
aI15
asg322
VBased on the observation that a short summary of a collection of documents can serve as a label characterising the collection, we propose to generate topic label candidates based on the summarisation of a topic u'\u005cu2019' s relevant documents
p5413
sg324
I2
sg308
I40
sg325
I8
sbasba(icmyPackage
CELink
p5414
(dp5415
g3
(lp5416
g5398
asg273
(icmyPackage
CorE
p5417
(dp5418
g276
(lp5419
(I0
I15
tp5420
a(I0
I27
tp5421
asg280
g5358
sbsg281
(icmyPackage
CorE
p5422
(dp5423
g276
(lp5424
(I0
I0
tp5425
a(I0
I12
tp5426
asg280
g5
(g6
g7
(lp5427
g5135
ag5171
ag5181
ag5188
ag5196
ag5203
ag5226
atp5428
Rp5429
(dp5430
g17
g291
sbsbsg292
g3254
sg316
(lp5431
g5410
asba(icmyPackage
CELink
p5432
(dp5433
g3
(lp5434
g5
(g6
g7
(lp5435
g5
(g6
g7
(lp5436
g5
(g6
g7
(lp5437
g5
(g6
g7
(lp5438
VWe
p5439
atp5440
Rp5441
(dp5442
g17
VPRP
p5443
sbatp5444
Rp5445
(dp5446
g17
VNP
p5447
sbag5
(g6
g7
(lp5448
g5
(g6
g7
(lp5449
Vpropose
p5450
atp5451
Rp5452
(dp5453
g17
VVBP
p5454
sbag5
(g6
g7
(lp5455
g5
(g6
g7
(lp5456
g5
(g6
g7
(lp5457
Vto
p5458
atp5459
Rp5460
(dp5461
g17
VTO
p5462
sbag5
(g6
g7
(lp5463
g5
(g6
g7
(lp5464
Vapproach
p5465
atp5466
Rp5467
(dp5468
g17
VVB
p5469
sbag5
(g6
g7
(lp5470
g5
(g6
g7
(lp5471
g5
(g6
g7
(lp5472
Vthe
p5473
atp5474
Rp5475
(dp5476
g17
VDT
p5477
sbag5
(g6
g7
(lp5478
Vtopic
p5479
atp5480
Rp5481
(dp5482
g17
VNN
p5483
sbatp5484
Rp5485
(dp5486
g17
VNP
p5487
sbag5
(g6
g7
(lp5488
g5
(g6
g7
(lp5489
Vlabelling
p5490
atp5491
Rp5492
(dp5493
g17
VVBG
p5494
sbag5
(g6
g7
(lp5495
g5
(g6
g7
(lp5496
Vproblem
p5497
atp5498
Rp5499
(dp5500
g17
VNN
p5501
sbatp5502
Rp5503
(dp5504
g17
VNP
p5505
sbag5
(g6
g7
(lp5506
g5
(g6
g7
(lp5507
Vas
p5508
atp5509
Rp5510
(dp5511
g17
VIN
p5512
sbag5
(g6
g7
(lp5513
g5
(g6
g7
(lp5514
g901
atp5515
Rp5516
(dp5517
g17
VDT
p5518
sbag5
(g6
g7
(lp5519
Vmulti-document
p5520
atp5521
Rp5522
(dp5523
g17
VJJ
p5524
sbag5
(g6
g7
(lp5525
Vsummarisation
p5526
atp5527
Rp5528
(dp5529
g17
VNN
p5530
sbag5
(g6
g7
(lp5531
Vtask
p5532
atp5533
Rp5534
(dp5535
g17
VNN
p5536
sbatp5537
Rp5538
(dp5539
g17
VNP
p5540
sbatp5541
Rp5542
(dp5543
g17
VPP
p5544
sbatp5545
Rp5546
(dp5547
g17
VVP
p5548
sbatp5549
Rp5550
(dp5551
g17
VNP
p5552
sbatp5553
Rp5554
(dp5555
g17
VVP
p5556
sbatp5557
Rp5558
(dp5559
g17
VVP
p5560
sbatp5561
Rp5562
(dp5563
g17
g257
sbatp5564
Rp5565
(dp5566
g17
VVP
p5567
sbatp5568
Rp5569
(dp5570
g17
g257
sbatp5571
Rp5572
(dp5573
g17
VROOT
p5574
sbag5
(g6
g7
(lp5575
g5
(g6
g7
(lp5576
g5
(g6
g7
(lp5577
g5
(g6
g7
(lp5578
VThe
p5579
atp5580
Rp5581
(dp5582
g17
VDT
p5583
sbag5
(g6
g7
(lp5584
Vfollowing
p5585
atp5586
Rp5587
(dp5588
g17
VNN
p5589
sbatp5590
Rp5591
(dp5592
g17
VNP
p5593
sbag5
(g6
g7
(lp5594
g5
(g6
g7
(lp5595
Vdescribes
p5596
atp5597
Rp5598
(dp5599
g17
VVBZ
p5600
sbag5
(g6
g7
(lp5601
g5
(g6
g7
(lp5602
Vour
p5603
atp5604
Rp5605
(dp5606
g17
VPRP$
p5607
sbag5
(g6
g7
(lp5608
Vproposed
p5609
atp5610
Rp5611
(dp5612
g17
VVBN
p5613
sbag5
(g6
g7
(lp5614
Vframework
p5615
atp5616
Rp5617
(dp5618
g17
VNN
p5619
sbatp5620
Rp5621
(dp5622
g17
VNP
p5623
sbag5
(g6
g7
(lp5624
g5
(g6
g7
(lp5625
g5
(g6
g7
(lp5626
Vto
p5627
atp5628
Rp5629
(dp5630
g17
VTO
p5631
sbag5
(g6
g7
(lp5632
g5
(g6
g7
(lp5633
Vcharacterise
p5634
atp5635
Rp5636
(dp5637
g17
VVB
p5638
sbag5
(g6
g7
(lp5639
g5
(g6
g7
(lp5640
g5
(g6
g7
(lp5641
Vdocuments
p5642
atp5643
Rp5644
(dp5645
g17
VNNS
p5646
sbatp5647
Rp5648
(dp5649
g17
VNP
p5650
sbag5
(g6
g7
(lp5651
g5
(g6
g7
(lp5652
Vrelevant
p5653
atp5654
Rp5655
(dp5656
g17
VJJ
p5657
sbag5
(g6
g7
(lp5658
g5
(g6
g7
(lp5659
Vto
p5660
atp5661
Rp5662
(dp5663
g17
VTO
p5664
sbag5
(g6
g7
(lp5665
g5
(g6
g7
(lp5666
g901
atp5667
Rp5668
(dp5669
g17
VDT
p5670
sbag5
(g6
g7
(lp5671
Vtopic
p5672
atp5673
Rp5674
(dp5675
g17
VNN
p5676
sbatp5677
Rp5678
(dp5679
g17
VNP
p5680
sbatp5681
Rp5682
(dp5683
g17
VPP
p5684
sbatp5685
Rp5686
(dp5687
g17
VADJP
p5688
sbatp5689
Rp5690
(dp5691
g17
g257
sbatp5692
Rp5693
(dp5694
g17
VVP
p5695
sbatp5696
Rp5697
(dp5698
g17
VVP
p5699
sbatp5700
Rp5701
(dp5702
g17
g257
sbatp5703
Rp5704
(dp5705
g17
VVP
p5706
sbatp5707
Rp5708
(dp5709
g17
g257
sbatp5710
Rp5711
(dp5712
g17
VROOT
p5713
sbasg273
(icmyPackage
CorE
p5714
(dp5715
g276
(lp5716
(I0
I9
tp5717
a(I1
I11
tp5718
asg280
g5
(g6
g7
(lp5719
g5538
ag5591
ag5598
ag5621
ag5629
ag5636
ag5648
ag5655
ag5662
ag5668
atp5720
Rp5721
(dp5722
g17
g291
sbsbsg281
(icmyPackage
CorE
p5723
(dp5724
g276
(lp5725
(I0
I0
tp5726
a(I0
I7
tp5727
asg280
g5
(g6
g7
(lp5728
g5445
ag5452
ag5460
ag5467
ag5485
ag5492
ag5503
atp5729
Rp5730
(dp5731
g17
g291
sbsbsg292
g1474
sg316
(lp5732
(isxpPackage
sxpSent
p5733
(dp5734
g320
(lp5735
I16
asg322
VWe propose to approach the topic labelling problem as a multi-document summarisation task
p5736
sg324
I3
sg308
I43
sg325
I9
sba(isxpPackage
sxpSent
p5737
(dp5738
g320
(lp5739
I16
asg322
VThe following describes our proposed framework to characterise documents relevant to a topic
p5740
sg324
I3
sg308
I44
sg325
I9
sbasba(icmyPackage
CELink
p5741
(dp5742
g3
(lp5743
g5
(g6
g7
(lp5744
g5
(g6
g7
(lp5745
g5
(g6
g7
(lp5746
g5
(g6
g7
(lp5747
VTopics
p5748
atp5749
Rp5750
(dp5751
g17
VNNS
p5752
sbatp5753
Rp5754
(dp5755
g17
VNP
p5756
sbag5
(g6
g7
(lp5757
g5
(g6
g7
(lp5758
Vare
p5759
atp5760
Rp5761
(dp5762
g17
VVBP
p5763
sbag5
(g6
g7
(lp5764
g5
(g6
g7
(lp5765
Vinterpreted
p5766
atp5767
Rp5768
(dp5769
g17
VVBN
p5770
sbag5
(g6
g7
(lp5771
g5
(g6
g7
(lp5772
g5
(g6
g7
(lp5773
Vusing
p5774
atp5775
Rp5776
(dp5777
g17
VVBG
p5778
sbag5
(g6
g7
(lp5779
g5
(g6
g7
(lp5780
g5
(g6
g7
(lp5781
Vthe
p5782
atp5783
Rp5784
(dp5785
g17
VDT
p5786
sbag5
(g6
g7
(lp5787
Vtop
p5788
atp5789
Rp5790
(dp5791
g17
VJJ
p5792
sbag5
(g6
g7
(lp5793
VN
p5794
atp5795
Rp5796
(dp5797
g17
VNNP
p5798
sbag5
(g6
g7
(lp5799
Vterms
p5800
atp5801
Rp5802
(dp5803
g17
VNNS
p5804
sbatp5805
Rp5806
(dp5807
g17
VNP
p5808
sbag5
(g6
g7
(lp5809
g5
(g6
g7
(lp5810
Vranked
p5811
atp5812
Rp5813
(dp5814
g17
VVBN
p5815
sbag5
(g6
g7
(lp5816
g5
(g6
g7
(lp5817
Vbased
p5818
atp5819
Rp5820
(dp5821
g17
VVBN
p5822
sbag5
(g6
g7
(lp5823
g5
(g6
g7
(lp5824
Von
p5825
atp5826
Rp5827
(dp5828
g17
VIN
p5829
sbag5
(g6
g7
(lp5830
g5
(g6
g7
(lp5831
g5
(g6
g7
(lp5832
Vthe
p5833
atp5834
Rp5835
(dp5836
g17
VDT
p5837
sbag5
(g6
g7
(lp5838
Vmarginal
p5839
atp5840
Rp5841
(dp5842
g17
VJJ
p5843
sbag5
(g6
g7
(lp5844
Vprobability
p5845
atp5846
Rp5847
(dp5848
g17
VNN
p5849
sbag5
(g6
g7
(lp5850
Vp
p5851
atp5852
Rp5853
(dp5854
g17
VNN
p5855
sbatp5856
Rp5857
(dp5858
g17
VNP
p5859
sbag5
(g6
g7
(lp5860
g5
(g6
g7
(lp5861
V-LRB-
p5862
atp5863
Rp5864
(dp5865
g17
V-LRB-
p5866
sbag5
(g6
g7
(lp5867
g5
(g6
g7
(lp5868
g1805
atp5869
Rp5870
(dp5871
g17
VJJ
p5872
sbag5
(g6
g7
(lp5873
g1811
atp5874
Rp5875
(dp5876
g17
VNN
p5877
sbag5
(g6
g7
(lp5878
g1817
atp5879
Rp5880
(dp5881
g17
VNN
p5882
sbag5
(g6
g7
(lp5883
g1823
atp5884
Rp5885
(dp5886
g17
VNN
p5887
sbatp5888
Rp5889
(dp5890
g17
VNP
p5891
sbag5
(g6
g7
(lp5892
V-RRB-
p5893
atp5894
Rp5895
(dp5896
g17
V-RRB-
p5897
sbatp5898
Rp5899
(dp5900
g17
VPRN
p5901
sbatp5902
Rp5903
(dp5904
g17
VNP
p5905
sbatp5906
Rp5907
(dp5908
g17
VPP
p5909
sbatp5910
Rp5911
(dp5912
g17
VPP
p5913
sbatp5914
Rp5915
(dp5916
g17
VVP
p5917
sbatp5918
Rp5919
(dp5920
g17
VNP
p5921
sbatp5922
Rp5923
(dp5924
g17
VVP
p5925
sbatp5926
Rp5927
(dp5928
g17
g257
sbatp5929
Rp5930
(dp5931
g17
VVP
p5932
sbatp5933
Rp5934
(dp5935
g17
VVP
p5936
sbatp5937
Rp5938
(dp5939
g17
g257
sbatp5940
Rp5941
(dp5942
g17
VROOT
p5943
sbasg273
(icmyPackage
CorE
p5944
(dp5945
g276
(lp5946
(I0
I11
tp5947
a(I0
I20
tp5948
asg280
g5903
sbsg281
(icmyPackage
CorE
p5949
(dp5950
g276
(lp5951
(I0
I0
tp5952
a(I0
I8
tp5953
asg280
g5
(g6
g7
(lp5954
g5754
ag5761
ag5768
ag5776
ag5806
ag5813
atp5955
Rp5956
(dp5957
g17
g291
sbsbsg292
g3254
sg316
(lp5958
(isxpPackage
sxpSent
p5959
(dp5960
g320
(lp5961
I17
asg322
VTopics are interpreted using the top N terms ranked based on the marginal probability p ( w i t j )
p5962
sg324
I4
sg308
I51
sg325
I11
sbasba(icmyPackage
CELink
p5963
(dp5964
g3
(lp5965
g5
(g6
g7
(lp5966
g5
(g6
g7
(lp5967
g5
(g6
g7
(lp5968
g5
(g6
g7
(lp5969
VWe
p5970
atp5971
Rp5972
(dp5973
g17
VPRP
p5974
sbatp5975
Rp5976
(dp5977
g17
VNP
p5978
sbag5
(g6
g7
(lp5979
g5
(g6
g7
(lp5980
Vpropose
p5981
atp5982
Rp5983
(dp5984
g17
VVBP
p5985
sbag5
(g6
g7
(lp5986
g5
(g6
g7
(lp5987
g5
(g6
g7
(lp5988
Vto
p5989
atp5990
Rp5991
(dp5992
g17
VTO
p5993
sbag5
(g6
g7
(lp5994
g5
(g6
g7
(lp5995
Vgenerate
p5996
atp5997
Rp5998
(dp5999
g17
VVB
p6000
sbag5
(g6
g7
(lp6001
g5
(g6
g7
(lp6002
Vtopic
p6003
atp6004
Rp6005
(dp6006
g17
VNN
p6007
sbag5
(g6
g7
(lp6008
Vlabel
p6009
atp6010
Rp6011
(dp6012
g17
VNN
p6013
sbag5
(g6
g7
(lp6014
Vcandidates
p6015
atp6016
Rp6017
(dp6018
g17
VNNS
p6019
sbatp6020
Rp6021
(dp6022
g17
VNP
p6023
sbag5
(g6
g7
(lp6024
g5
(g6
g7
(lp6025
Vby
p6026
atp6027
Rp6028
(dp6029
g17
VIN
p6030
sbag5
(g6
g7
(lp6031
g5
(g6
g7
(lp6032
g5
(g6
g7
(lp6033
Vsummarising
p6034
atp6035
Rp6036
(dp6037
g17
VVBG
p6038
sbag5
(g6
g7
(lp6039
g5
(g6
g7
(lp6040
Vtopic
p6041
atp6042
Rp6043
(dp6044
g17
VNN
p6045
sbag5
(g6
g7
(lp6046
Vrelevant
p6047
atp6048
Rp6049
(dp6050
g17
VJJ
p6051
sbag5
(g6
g7
(lp6052
Vdocuments
p6053
atp6054
Rp6055
(dp6056
g17
VNNS
p6057
sbatp6058
Rp6059
(dp6060
g17
VNP
p6061
sbatp6062
Rp6063
(dp6064
g17
VVP
p6065
sbatp6066
Rp6067
(dp6068
g17
g257
sbatp6069
Rp6070
(dp6071
g17
VPP
p6072
sbatp6073
Rp6074
(dp6075
g17
VVP
p6076
sbatp6077
Rp6078
(dp6079
g17
VVP
p6080
sbatp6081
Rp6082
(dp6083
g17
g257
sbatp6084
Rp6085
(dp6086
g17
VVP
p6087
sbatp6088
Rp6089
(dp6090
g17
g257
sbatp6091
Rp6092
(dp6093
g17
VROOT
p6094
sbasg273
(icmyPackage
CorE
p6095
(dp6096
g276
(lp6097
(I0
I8
tp6098
a(I0
I11
tp6099
asg280
g6067
sbsg281
(icmyPackage
CorE
p6100
(dp6101
g276
(lp6102
(I0
I0
tp6103
a(I0
I6
tp6104
asg280
g5
(g6
g7
(lp6105
g5976
ag5983
ag5991
ag5998
ag6021
atp6106
Rp6107
(dp6108
g17
g291
sbsbsg292
g1702
sg316
(lp6109
(isxpPackage
sxpSent
p6110
(dp6111
g320
(lp6112
I18
asg322
VWe propose to generate topic label candidates by summarising topic relevant documents
p6113
sg324
I5
sg308
I53
sg325
I12
sbasba(icmyPackage
CELink
p6114
(dp6115
g3
(lp6116
g5
(g6
g7
(lp6117
g5
(g6
g7
(lp6118
g5
(g6
g7
(lp6119
g5
(g6
g7
(lp6120
VIn
p6121
atp6122
Rp6123
(dp6124
g17
VIN
p6125
sbag5
(g6
g7
(lp6126
g5
(g6
g7
(lp6127
Vparticular
p6128
atp6129
Rp6130
(dp6131
g17
VJJ
p6132
sbatp6133
Rp6134
(dp6135
g17
VADJP
p6136
sbatp6137
Rp6138
(dp6139
g17
VPP
p6140
sbag5
(g6
g7
(lp6141
g797
atp6142
Rp6143
(dp6144
g17
g797
sbag5
(g6
g7
(lp6145
g5
(g6
g7
(lp6146
g5
(g6
g7
(lp6147
Vthe
p6148
atp6149
Rp6150
(dp6151
g17
VDT
p6152
sbag5
(g6
g7
(lp6153
Vprominent
p6154
atp6155
Rp6156
(dp6157
g17
VJJ
p6158
sbag5
(g6
g7
(lp6159
Vtopic
p6160
atp6161
Rp6162
(dp6163
g17
VNN
p6164
sbatp6165
Rp6166
(dp6167
g17
VNP
p6168
sbag5
(g6
g7
(lp6169
g5
(g6
g7
(lp6170
Vof
p6171
atp6172
Rp6173
(dp6174
g17
VIN
p6175
sbag5
(g6
g7
(lp6176
g5
(g6
g7
(lp6177
g901
atp6178
Rp6179
(dp6180
g17
VDT
p6181
sbag5
(g6
g7
(lp6182
Vdocument
p6183
atp6184
Rp6185
(dp6186
g17
VNN
p6187
sbag5
(g6
g7
(lp6188
Vd
p6189
atp6190
Rp6191
(dp6192
g17
VNN
p6193
sbatp6194
Rp6195
(dp6196
g17
VNP
p6197
sbatp6198
Rp6199
(dp6200
g17
VPP
p6201
sbatp6202
Rp6203
(dp6204
g17
VNP
p6205
sbag5
(g6
g7
(lp6206
g5
(g6
g7
(lp6207
Vcan
p6208
atp6209
Rp6210
(dp6211
g17
VMD
p6212
sbag5
(g6
g7
(lp6213
g5
(g6
g7
(lp6214
Vbe
p6215
atp6216
Rp6217
(dp6218
g17
VVB
p6219
sbag5
(g6
g7
(lp6220
g5
(g6
g7
(lp6221
Vfound
p6222
atp6223
Rp6224
(dp6225
g17
VVBN
p6226
sbag5
(g6
g7
(lp6227
g5
(g6
g7
(lp6228
Vby
p6229
atp6230
Rp6231
(dp6232
g17
VIN
p6233
sbatp6234
Rp6235
(dp6236
g17
VPP
p6237
sbatp6238
Rp6239
(dp6240
g17
VVP
p6241
sbatp6242
Rp6243
(dp6244
g17
VVP
p6245
sbatp6246
Rp6247
(dp6248
g17
VVP
p6249
sbatp6250
Rp6251
(dp6252
g17
g257
sbatp6253
Rp6254
(dp6255
g17
VROOT
p6256
sbag5
(g6
g7
(lp6257
g5
(g6
g7
(lp6258
g5
(g6
g7
(lp6259
g5
(g6
g7
(lp6260
g5
(g6
g7
(lp6261
VTherefore
p6262
atp6263
Rp6264
(dp6265
g17
VRB
p6266
sbatp6267
Rp6268
(dp6269
g17
VADVP
p6270
sbag5
(g6
g7
(lp6271
Vgiven
p6272
atp6273
Rp6274
(dp6275
g17
VVBN
p6276
sbag5
(g6
g7
(lp6277
g5
(g6
g7
(lp6278
g5
(g6
g7
(lp6279
g901
atp6280
Rp6281
(dp6282
g17
VDT
p6283
sbag5
(g6
g7
(lp6284
Vtopic
p6285
atp6286
Rp6287
(dp6288
g17
VNN
p6289
sbag5
(g6
g7
(lp6290
Vk
p6291
atp6292
Rp6293
(dp6294
g17
VNN
p6295
sbatp6296
Rp6297
(dp6298
g17
VNP
p6299
sbag5
(g6
g7
(lp6300
g797
atp6301
Rp6302
(dp6303
g17
g797
sbag5
(g6
g7
(lp6304
g5
(g6
g7
(lp6305
g5
(g6
g7
(lp6306
g901
atp6307
Rp6308
(dp6309
g17
VDT
p6310
sbag5
(g6
g7
(lp6311
Vset
p6312
atp6313
Rp6314
(dp6315
g17
VNN
p6316
sbatp6317
Rp6318
(dp6319
g17
VNP
p6320
sbag5
(g6
g7
(lp6321
g5
(g6
g7
(lp6322
Vof
p6323
atp6324
Rp6325
(dp6326
g17
VIN
p6327
sbag5
(g6
g7
(lp6328
g5
(g6
g7
(lp6329
g5
(g6
g7
(lp6330
VC
p6331
atp6332
Rp6333
(dp6334
g17
VNNP
p6335
sbag5
(g6
g7
(lp6336
Vdocuments
p6337
atp6338
Rp6339
(dp6340
g17
VNNS
p6341
sbatp6342
Rp6343
(dp6344
g17
VNP
p6345
sbag5
(g6
g7
(lp6346
g5
(g6
g7
(lp6347
Vrelated
p6348
atp6349
Rp6350
(dp6351
g17
VVBN
p6352
sbag5
(g6
g7
(lp6353
g5
(g6
g7
(lp6354
Vto
p6355
atp6356
Rp6357
(dp6358
g17
VTO
p6359
sbag5
(g6
g7
(lp6360
g5
(g6
g7
(lp6361
Vthis
p6362
atp6363
Rp6364
(dp6365
g17
VDT
p6366
sbag5
(g6
g7
(lp6367
Vtopic
p6368
atp6369
Rp6370
(dp6371
g17
VNN
p6372
sbatp6373
Rp6374
(dp6375
g17
VNP
p6376
sbatp6377
Rp6378
(dp6379
g17
VPP
p6380
sbatp6381
Rp6382
(dp6383
g17
VVP
p6384
sbatp6385
Rp6386
(dp6387
g17
VNP
p6388
sbatp6389
Rp6390
(dp6391
g17
VPP
p6392
sbatp6393
Rp6394
(dp6395
g17
VNP
p6396
sbatp6397
Rp6398
(dp6399
g17
VNP
p6400
sbatp6401
Rp6402
(dp6403
g17
VVP
p6404
sbag5
(g6
g7
(lp6405
g5
(g6
g7
(lp6406
Vcan
p6407
atp6408
Rp6409
(dp6410
g17
VMD
p6411
sbag5
(g6
g7
(lp6412
g5
(g6
g7
(lp6413
Vbe
p6414
atp6415
Rp6416
(dp6417
g17
VVB
p6418
sbag5
(g6
g7
(lp6419
g5
(g6
g7
(lp6420
Vobtained
p6421
atp6422
Rp6423
(dp6424
g17
VVBN
p6425
sbag5
(g6
g7
(lp6426
g5
(g6
g7
(lp6427
Vvia
p6428
atp6429
Rp6430
(dp6431
g17
VIN
p6432
sbag5
(g6
g7
(lp6433
g5
(g6
g7
(lp6434
Vequation
p6435
atp6436
Rp6437
(dp6438
g17
VNN
p6439
sbatp6440
Rp6441
(dp6442
g17
VNP
p6443
sbatp6444
Rp6445
(dp6446
g17
VPP
p6447
sbatp6448
Rp6449
(dp6450
g17
VVP
p6451
sbatp6452
Rp6453
(dp6454
g17
VVP
p6455
sbatp6456
Rp6457
(dp6458
g17
VVP
p6459
sbag5
(g6
g7
(lp6460
g5
(g6
g7
(lp6461
g791
atp6462
Rp6463
(dp6464
g17
VCD
p6465
sbatp6466
Rp6467
(dp6468
g17
VNP
p6469
sbatp6470
Rp6471
(dp6472
g17
VSINV
p6473
sbatp6474
Rp6475
(dp6476
g17
VROOT
p6477
sbasg273
(icmyPackage
CorE
p6478
(dp6479
g276
(lp6480
(I0
I0
tp6481
a(I0
I13
tp6482
asg280
g6254
sbsg281
(icmyPackage
CorE
p6483
(dp6484
g276
(lp6485
(I1
I1
tp6486
a(I1
I20
tp6487
asg280
g5
(g6
g7
(lp6488
g6274
ag6398
ag6457
ag6467
atp6489
Rp6490
(dp6491
g17
g291
sbsbsg292
g2155
sg316
(lp6492
(isxpPackage
sxpSent
p6493
(dp6494
g320
(lp6495
I19
asg322
VIn particular, the prominent topic of a document d can be found by
p6496
sg324
I5
sg308
I55
sg325
I12
sba(isxpPackage
sxpSent
p6497
(dp6498
g320
(lp6499
I19
asg322
VTherefore given a topic k , a set of C documents related to this topic can be obtained via equation 1
p6500
sg324
I5
sg308
I56
sg325
I13
sbasba(icmyPackage
CELink
p6501
(dp6502
g3
(lp6503
g5
(g6
g7
(lp6504
g5
(g6
g7
(lp6505
g5
(g6
g7
(lp6506
g5
(g6
g7
(lp6507
VWe
p6508
atp6509
Rp6510
(dp6511
g17
VPRP
p6512
sbatp6513
Rp6514
(dp6515
g17
VNP
p6516
sbag5
(g6
g7
(lp6517
g5
(g6
g7
(lp6518
Vcompare
p6519
atp6520
Rp6521
(dp6522
g17
VVBP
p6523
sbag5
(g6
g7
(lp6524
g5
(g6
g7
(lp6525
Vdifferent
p6526
atp6527
Rp6528
(dp6529
g17
VJJ
p6530
sbag5
(g6
g7
(lp6531
Vsummarisation
p6532
atp6533
Rp6534
(dp6535
g17
VNN
p6536
sbag5
(g6
g7
(lp6537
Valgorithms
p6538
atp6539
Rp6540
(dp6541
g17
VNNS
p6542
sbatp6543
Rp6544
(dp6545
g17
VNP
p6546
sbag5
(g6
g7
(lp6547
g5
(g6
g7
(lp6548
Vbased
p6549
atp6550
Rp6551
(dp6552
g17
VVBN
p6553
sbag5
(g6
g7
(lp6554
g5
(g6
g7
(lp6555
Von
p6556
atp6557
Rp6558
(dp6559
g17
VIN
p6560
sbag5
(g6
g7
(lp6561
g5
(g6
g7
(lp6562
Vtheir
p6563
atp6564
Rp6565
(dp6566
g17
VPRP$
p6567
sbag5
(g6
g7
(lp6568
Vability
p6569
atp6570
Rp6571
(dp6572
g17
VNN
p6573
sbag5
(g6
g7
(lp6574
g5
(g6
g7
(lp6575
g5
(g6
g7
(lp6576
Vto
p6577
atp6578
Rp6579
(dp6580
g17
VTO
p6581
sbag5
(g6
g7
(lp6582
g5
(g6
g7
(lp6583
Vprovide
p6584
atp6585
Rp6586
(dp6587
g17
VVB
p6588
sbag5
(g6
g7
(lp6589
g5
(g6
g7
(lp6590
g901
atp6591
Rp6592
(dp6593
g17
VDT
p6594
sbag5
(g6
g7
(lp6595
Vgood
p6596
atp6597
Rp6598
(dp6599
g17
VJJ
p6600
sbag5
(g6
g7
(lp6601
Vlabel
p6602
atp6603
Rp6604
(dp6605
g17
VNN
p6606
sbatp6607
Rp6608
(dp6609
g17
VNP
p6610
sbag5
(g6
g7
(lp6611
g5
(g6
g7
(lp6612
Vto
p6613
atp6614
Rp6615
(dp6616
g17
VTO
p6617
sbag5
(g6
g7
(lp6618
g5
(g6
g7
(lp6619
g901
atp6620
Rp6621
(dp6622
g17
VDT
p6623
sbag5
(g6
g7
(lp6624
Vgiven
p6625
atp6626
Rp6627
(dp6628
g17
VVBN
p6629
sbag5
(g6
g7
(lp6630
Vtopic
p6631
atp6632
Rp6633
(dp6634
g17
VNN
p6635
sbatp6636
Rp6637
(dp6638
g17
VNP
p6639
sbatp6640
Rp6641
(dp6642
g17
VPP
p6643
sbatp6644
Rp6645
(dp6646
g17
VVP
p6647
sbatp6648
Rp6649
(dp6650
g17
VVP
p6651
sbatp6652
Rp6653
(dp6654
g17
g257
sbatp6655
Rp6656
(dp6657
g17
VNP
p6658
sbatp6659
Rp6660
(dp6661
g17
VPP
p6662
sbatp6663
Rp6664
(dp6665
g17
VPP
p6666
sbatp6667
Rp6668
(dp6669
g17
VVP
p6670
sbatp6671
Rp6672
(dp6673
g17
g257
sbatp6674
Rp6675
(dp6676
g17
VROOT
p6677
sbasg273
(icmyPackage
CorE
p6678
(dp6679
g276
(lp6680
(I0
I7
tp6681
a(I0
I17
tp6682
asg280
g6656
sbsg281
(icmyPackage
CorE
p6683
(dp6684
g276
(lp6685
(I0
I0
tp6686
a(I0
I4
tp6687
asg280
g5
(g6
g7
(lp6688
g6514
ag6521
ag6544
atp6689
Rp6690
(dp6691
g17
g291
sbsbsg292
g3254
sg316
(lp6692
(isxpPackage
sxpSent
p6693
(dp6694
g320
(lp6695
I20
asg322
VWe compare different summarisation algorithms based on their ability to provide a good label to a given topic
p6696
sg324
I6
sg308
I58
sg325
I15
sbasba(icmyPackage
CELink
p6697
(dp6698
g3
(lp6699
g5
(g6
g7
(lp6700
g5
(g6
g7
(lp6701
g5
(g6
g7
(lp6702
g5
(g6
g7
(lp6703
VIn
p6704
atp6705
Rp6706
(dp6707
g17
VIN
p6708
sbag5
(g6
g7
(lp6709
g5
(g6
g7
(lp6710
g5
(g6
g7
(lp6711
Vparticular
p6712
atp6713
Rp6714
(dp6715
g17
VJJ
p6716
sbatp6717
Rp6718
(dp6719
g17
VNP
p6720
sbag5
(g6
g7
(lp6721
g5
(g6
g7
(lp6722
g5
(g6
g7
(lp6723
g5
(g6
g7
(lp6724
Vwe
p6725
atp6726
Rp6727
(dp6728
g17
VPRP
p6729
sbatp6730
Rp6731
(dp6732
g17
VNP
p6733
sbag5
(g6
g7
(lp6734
g5
(g6
g7
(lp6735
Vinvestigate
p6736
atp6737
Rp6738
(dp6739
g17
VVB
p6740
sbag5
(g6
g7
(lp6741
g5
(g6
g7
(lp6742
g5
(g6
g7
(lp6743
Vthe
p6744
atp6745
Rp6746
(dp6747
g17
VDT
p6748
sbag5
(g6
g7
(lp6749
Vuse
p6750
atp6751
Rp6752
(dp6753
g17
VNN
p6754
sbatp6755
Rp6756
(dp6757
g17
VNP
p6758
sbag5
(g6
g7
(lp6759
g5
(g6
g7
(lp6760
Vof
p6761
atp6762
Rp6763
(dp6764
g17
VIN
p6765
sbag5
(g6
g7
(lp6766
g5
(g6
g7
(lp6767
Vlexical
p6768
atp6769
Rp6770
(dp6771
g17
VJJ
p6772
sbag5
(g6
g7
(lp6773
Vfeatures
p6774
atp6775
Rp6776
(dp6777
g17
VNNS
p6778
sbatp6779
Rp6780
(dp6781
g17
VNP
p6782
sbatp6783
Rp6784
(dp6785
g17
VPP
p6786
sbatp6787
Rp6788
(dp6789
g17
VNP
p6790
sbag5
(g6
g7
(lp6791
g5
(g6
g7
(lp6792
Vby
p6793
atp6794
Rp6795
(dp6796
g17
VIN
p6797
sbag5
(g6
g7
(lp6798
g5
(g6
g7
(lp6799
g5
(g6
g7
(lp6800
Vcomparing
p6801
atp6802
Rp6803
(dp6804
g17
VVBG
p6805
sbag5
(g6
g7
(lp6806
g5
(g6
g7
(lp6807
g5
(g6
g7
(lp6808
Vthree
p6809
atp6810
Rp6811
(dp6812
g17
VCD
p6813
sbag5
(g6
g7
(lp6814
Vdifferent
p6815
atp6816
Rp6817
(dp6818
g17
VJJ
p6819
sbag5
(g6
g7
(lp6820
Vwell-known
p6821
atp6822
Rp6823
(dp6824
g17
VJJ
p6825
sbag5
(g6
g7
(lp6826
Vmulti-document
p6827
atp6828
Rp6829
(dp6830
g17
VJJ
p6831
sbag5
(g6
g7
(lp6832
Vsummarisation
p6833
atp6834
Rp6835
(dp6836
g17
VNN
p6837
sbag5
(g6
g7
(lp6838
Valgorithms
p6839
atp6840
Rp6841
(dp6842
g17
VNNS
p6843
sbatp6844
Rp6845
(dp6846
g17
VNP
p6847
sbag5
(g6
g7
(lp6848
g5
(g6
g7
(lp6849
Vagainst
p6850
atp6851
Rp6852
(dp6853
g17
VIN
p6854
sbag5
(g6
g7
(lp6855
g5
(g6
g7
(lp6856
Vthe
p6857
atp6858
Rp6859
(dp6860
g17
VDT
p6861
sbag5
(g6
g7
(lp6862
Vtop
p6863
atp6864
Rp6865
(dp6866
g17
VNN
p6867
sbatp6868
Rp6869
(dp6870
g17
VNP
p6871
sbatp6872
Rp6873
(dp6874
g17
VPP
p6875
sbatp6876
Rp6877
(dp6878
g17
VNP
p6879
sbatp6880
Rp6881
(dp6882
g17
VVP
p6883
sbatp6884
Rp6885
(dp6886
g17
g257
sbatp6887
Rp6888
(dp6889
g17
VPP
p6890
sbatp6891
Rp6892
(dp6893
g17
VVP
p6894
sbatp6895
Rp6896
(dp6897
g17
g257
sbatp6898
Rp6899
(dp6900
g17
VSBAR
p6901
sbatp6902
Rp6903
(dp6904
g17
VNP
p6905
sbatp6906
Rp6907
(dp6908
g17
VPP
p6909
sbag5
(g6
g7
(lp6910
g1241
atp6911
Rp6912
(dp6913
g17
g1245
sbag5
(g6
g7
(lp6914
g5
(g6
g7
(lp6915
g5
(g6
g7
(lp6916
g1249
atp6917
Rp6918
(dp6919
g17
VVB
p6920
sbag5
(g6
g7
(lp6921
g5
(g6
g7
(lp6922
Vtopic
p6923
atp6924
Rp6925
(dp6926
g17
VNN
p6927
sbag5
(g6
g7
(lp6928
Vterms
p6929
atp6930
Rp6931
(dp6932
g17
VNNS
p6933
sbag5
(g6
g7
(lp6934
Vbaseline
p6935
atp6936
Rp6937
(dp6938
g17
VNN
p6939
sbatp6940
Rp6941
(dp6942
g17
VNP
p6943
sbatp6944
Rp6945
(dp6946
g17
VVP
p6947
sbatp6948
Rp6949
(dp6950
g17
g257
sbatp6951
Rp6952
(dp6953
g17
VUCP
p6954
sbatp6955
Rp6956
(dp6957
g17
VROOT
p6958
sbasg273
(icmyPackage
CorE
p6959
(dp6960
g276
(lp6961
(I0
I10
tp6962
a(I0
I19
tp6963
asg280
g6885
sbsg281
(icmyPackage
CorE
p6964
(dp6965
g276
(lp6966
(I0
I20
tp6967
a(I0
I24
tp6968
asg280
g5
(g6
g7
(lp6969
g6912
ag6949
atp6970
Rp6971
(dp6972
g17
g291
sbsbsg292
g3293
sg316
(lp6973
(isxpPackage
sxpSent
p6974
(dp6975
g320
(lp6976
I21
asg322
VIn particular we investigate the use of lexical features by comparing three different well-known multi-document summarisation algorithms against the top- n topic terms baseline
p6977
sg324
I6
sg308
I59
sg325
I15
sbasba(icmyPackage
CELink
p6978
(dp6979
g3
(lp6980
g5
(g6
g7
(lp6981
g5
(g6
g7
(lp6982
g5
(g6
g7
(lp6983
g5
(g6
g7
(lp6984
VIt
p6985
atp6986
Rp6987
(dp6988
g17
VPRP
p6989
sbatp6990
Rp6991
(dp6992
g17
VNP
p6993
sbag5
(g6
g7
(lp6994
g5
(g6
g7
(lp6995
g5
(g6
g7
(lp6996
Vthen
p6997
atp6998
Rp6999
(dp7000
g17
VRB
p7001
sbatp7002
Rp7003
(dp7004
g17
VADVP
p7005
sbag5
(g6
g7
(lp7006
Vweights
p7007
atp7008
Rp7009
(dp7010
g17
VVBZ
p7011
sbag5
(g6
g7
(lp7012
g5
(g6
g7
(lp7013
g5
(g6
g7
(lp7014
Veach
p7015
atp7016
Rp7017
(dp7018
g17
VDT
p7019
sbag5
(g6
g7
(lp7020
Vsentence
p7021
atp7022
Rp7023
(dp7024
g17
VNN
p7025
sbatp7026
Rp7027
(dp7028
g17
VNP
p7029
sbag5
(g6
g7
(lp7030
g5
(g6
g7
(lp7031
Vin
p7032
atp7033
Rp7034
(dp7035
g17
VIN
p7036
sbag5
(g6
g7
(lp7037
g5
(g6
g7
(lp7038
g5
(g6
g7
(lp7039
Vthe
p7040
atp7041
Rp7042
(dp7043
g17
VDT
p7044
sbag5
(g6
g7
(lp7045
Vtext
p7046
atp7047
Rp7048
(dp7049
g17
VNN
p7050
sbatp7051
Rp7052
(dp7053
g17
VNP
p7054
sbag5
(g6
g7
(lp7055
g5
(g6
g7
(lp7056
V-LRB-
p7057
atp7058
Rp7059
(dp7060
g17
V-LRB-
p7061
sbag5
(g6
g7
(lp7062
g5
(g6
g7
(lp7063
Vin
p7064
atp7065
Rp7066
(dp7067
g17
VIN
p7068
sbag5
(g6
g7
(lp7069
g5
(g6
g7
(lp7070
g5
(g6
g7
(lp7071
Vour
p7072
atp7073
Rp7074
(dp7075
g17
VPRP$
p7076
sbag5
(g6
g7
(lp7077
Vcase
p7078
atp7079
Rp7080
(dp7081
g17
VNN
p7082
sbatp7083
Rp7084
(dp7085
g17
VNP
p7086
sbag5
(g6
g7
(lp7087
g5
(g6
g7
(lp7088
g901
atp7089
Rp7090
(dp7091
g17
VDT
p7092
sbag5
(g6
g7
(lp7093
Vmicropost
p7094
atp7095
Rp7096
(dp7097
g17
VNN
p7098
sbatp7099
Rp7100
(dp7101
g17
VNP
p7102
sbatp7103
Rp7104
(dp7105
g17
VNP
p7106
sbatp7107
Rp7108
(dp7109
g17
VPP
p7110
sbag5
(g6
g7
(lp7111
V-RRB-
p7112
atp7113
Rp7114
(dp7115
g17
V-RRB-
p7116
sbatp7117
Rp7118
(dp7119
g17
VPRN
p7120
sbatp7121
Rp7122
(dp7123
g17
VNP
p7124
sbatp7125
Rp7126
(dp7127
g17
VPP
p7128
sbatp7129
Rp7130
(dp7131
g17
VNP
p7132
sbag5
(g6
g7
(lp7133
g5
(g6
g7
(lp7134
Vby
p7135
atp7136
Rp7137
(dp7138
g17
VIN
p7139
sbag5
(g6
g7
(lp7140
g5
(g6
g7
(lp7141
g5
(g6
g7
(lp7142
Vcomputing
p7143
atp7144
Rp7145
(dp7146
g17
VVBG
p7147
sbag5
(g6
g7
(lp7148
g5
(g6
g7
(lp7149
g5
(g6
g7
(lp7150
Vthe
p7151
atp7152
Rp7153
(dp7154
g17
VDT
p7155
sbag5
(g6
g7
(lp7156
Vaverage
p7157
atp7158
Rp7159
(dp7160
g17
VJJ
p7161
sbag5
(g6
g7
(lp7162
Vprobability
p7163
atp7164
Rp7165
(dp7166
g17
VNN
p7167
sbatp7168
Rp7169
(dp7170
g17
VNP
p7171
sbag5
(g6
g7
(lp7172
g5
(g6
g7
(lp7173
Vof
p7174
atp7175
Rp7176
(dp7177
g17
VIN
p7178
sbag5
(g6
g7
(lp7179
g5
(g6
g7
(lp7180
g5
(g6
g7
(lp7181
Vthe
p7182
atp7183
Rp7184
(dp7185
g17
VDT
p7186
sbag5
(g6
g7
(lp7187
Vwords
p7188
atp7189
Rp7190
(dp7191
g17
VNNS
p7192
sbatp7193
Rp7194
(dp7195
g17
VNP
p7196
sbag5
(g6
g7
(lp7197
g5
(g6
g7
(lp7198
Vin
p7199
atp7200
Rp7201
(dp7202
g17
VIN
p7203
sbag5
(g6
g7
(lp7204
g5
(g6
g7
(lp7205
Vthe
p7206
atp7207
Rp7208
(dp7209
g17
VDT
p7210
sbag5
(g6
g7
(lp7211
Vsentence
p7212
atp7213
Rp7214
(dp7215
g17
VNN
p7216
sbatp7217
Rp7218
(dp7219
g17
VNP
p7220
sbatp7221
Rp7222
(dp7223
g17
VPP
p7224
sbatp7225
Rp7226
(dp7227
g17
VNP
p7228
sbatp7229
Rp7230
(dp7231
g17
VPP
p7232
sbatp7233
Rp7234
(dp7235
g17
VNP
p7236
sbatp7237
Rp7238
(dp7239
g17
VVP
p7240
sbatp7241
Rp7242
(dp7243
g17
g257
sbatp7244
Rp7245
(dp7246
g17
VPP
p7247
sbatp7248
Rp7249
(dp7250
g17
VVP
p7251
sbatp7252
Rp7253
(dp7254
g17
g257
sbatp7255
Rp7256
(dp7257
g17
VROOT
p7258
sbasg273
(icmyPackage
CorE
p7259
(dp7260
g276
(lp7261
(I0
I16
tp7262
a(I0
I25
tp7263
asg280
g7242
sbsg281
(icmyPackage
CorE
p7264
(dp7265
g276
(lp7266
(I0
I0
tp7267
a(I0
I14
tp7268
asg280
g5
(g6
g7
(lp7269
g6991
ag7003
ag7009
ag7130
atp7270
Rp7271
(dp7272
g17
g291
sbsbsg292
g1702
sg316
(lp7273
(isxpPackage
sxpSent
p7274
(dp7275
g320
(lp7276
I22
asg322
VIt then weights each sentence in the text (in our case a micropost) by computing the average probability of the words in the sentence
p7277
sg324
I6
sg308
I62
sg325
I16
sbasba(icmyPackage
CELink
p7278
(dp7279
g3
(lp7280
g5
(g6
g7
(lp7281
g5
(g6
g7
(lp7282
g5
(g6
g7
(lp7283
g5
(g6
g7
(lp7284
VIt
p7285
atp7286
Rp7287
(dp7288
g17
VPRP
p7289
sbatp7290
Rp7291
(dp7292
g17
VNP
p7293
sbag5
(g6
g7
(lp7294
g5
(g6
g7
(lp7295
Vis
p7296
atp7297
Rp7298
(dp7299
g17
VVBZ
p7300
sbag5
(g6
g7
(lp7301
g5
(g6
g7
(lp7302
Vsimilar
p7303
atp7304
Rp7305
(dp7306
g17
VJJ
p7307
sbag5
(g6
g7
(lp7308
g5
(g6
g7
(lp7309
Vto
p7310
atp7311
Rp7312
(dp7313
g17
VTO
p7314
sbag5
(g6
g7
(lp7315
g5
(g6
g7
(lp7316
VSB
p7317
atp7318
Rp7319
(dp7320
g17
VNNP
p7321
sbatp7322
Rp7323
(dp7324
g17
VNP
p7325
sbatp7326
Rp7327
(dp7328
g17
VPP
p7329
sbatp7330
Rp7331
(dp7332
g17
VADJP
p7333
sbag5
(g6
g7
(lp7334
g797
atp7335
Rp7336
(dp7337
g17
g797
sbag5
(g6
g7
(lp7338
g5
(g6
g7
(lp7339
g5
(g6
g7
(lp7340
Vhowever
p7341
atp7342
Rp7343
(dp7344
g17
VRB
p7345
sbatp7346
Rp7347
(dp7348
g17
VADVP
p7349
sbag5
(g6
g7
(lp7350
Vrather
p7351
atp7352
Rp7353
(dp7354
g17
VRB
p7355
sbag5
(g6
g7
(lp7356
Vthan
p7357
atp7358
Rp7359
(dp7360
g17
VIN
p7361
sbag5
(g6
g7
(lp7362
g5
(g6
g7
(lp7363
g5
(g6
g7
(lp7364
Vcomputing
p7365
atp7366
Rp7367
(dp7368
g17
VVBG
p7369
sbag5
(g6
g7
(lp7370
g5
(g6
g7
(lp7371
Vthe
p7372
atp7373
Rp7374
(dp7375
g17
VDT
p7376
sbag5
(g6
g7
(lp7377
Vinitial
p7378
atp7379
Rp7380
(dp7381
g17
VJJ
p7382
sbag5
(g6
g7
(lp7383
Vword
p7384
atp7385
Rp7386
(dp7387
g17
VNN
p7388
sbag5
(g6
g7
(lp7389
Vprobabilities
p7390
atp7391
Rp7392
(dp7393
g17
VNNS
p7394
sbatp7395
Rp7396
(dp7397
g17
VNP
p7398
sbag5
(g6
g7
(lp7399
g5
(g6
g7
(lp7400
Vbased
p7401
atp7402
Rp7403
(dp7404
g17
VVBN
p7405
sbag5
(g6
g7
(lp7406
g5
(g6
g7
(lp7407
Von
p7408
atp7409
Rp7410
(dp7411
g17
VIN
p7412
sbag5
(g6
g7
(lp7413
g5
(g6
g7
(lp7414
g5
(g6
g7
(lp7415
Vword
p7416
atp7417
Rp7418
(dp7419
g17
VNN
p7420
sbag5
(g6
g7
(lp7421
Vfrequencies
p7422
atp7423
Rp7424
(dp7425
g17
VNNS
p7426
sbatp7427
Rp7428
(dp7429
g17
VNP
p7430
sbag5
(g6
g7
(lp7431
g5
(g6
g7
(lp7432
g5
(g6
g7
(lp7433
g5
(g6
g7
(lp7434
Vit
p7435
atp7436
Rp7437
(dp7438
g17
VPRP
p7439
sbatp7440
Rp7441
(dp7442
g17
VNP
p7443
sbag5
(g6
g7
(lp7444
g5
(g6
g7
(lp7445
Vweights
p7446
atp7447
Rp7448
(dp7449
g17
VVBZ
p7450
sbag5
(g6
g7
(lp7451
g5
(g6
g7
(lp7452
Vterms
p7453
atp7454
Rp7455
(dp7456
g17
VNNS
p7457
sbatp7458
Rp7459
(dp7460
g17
VNP
p7461
sbag5
(g6
g7
(lp7462
g5
(g6
g7
(lp7463
Vbased
p7464
atp7465
Rp7466
(dp7467
g17
VVBN
p7468
sbag5
(g6
g7
(lp7469
g5
(g6
g7
(lp7470
Von
p7471
atp7472
Rp7473
(dp7474
g17
VIN
p7475
sbag5
(g6
g7
(lp7476
g5
(g6
g7
(lp7477
VTFIDF
p7478
atp7479
Rp7480
(dp7481
g17
VNNP
p7482
sbatp7483
Rp7484
(dp7485
g17
VNP
p7486
sbatp7487
Rp7488
(dp7489
g17
VPP
p7490
sbatp7491
Rp7492
(dp7493
g17
VPP
p7494
sbatp7495
Rp7496
(dp7497
g17
VVP
p7498
sbatp7499
Rp7500
(dp7501
g17
g257
sbatp7502
Rp7503
(dp7504
g17
VSBAR
p7505
sbatp7506
Rp7507
(dp7508
g17
VNP
p7509
sbatp7510
Rp7511
(dp7512
g17
VPP
p7513
sbatp7514
Rp7515
(dp7516
g17
VPP
p7517
sbatp7518
Rp7519
(dp7520
g17
VVP
p7521
sbatp7522
Rp7523
(dp7524
g17
g257
sbatp7525
Rp7526
(dp7527
g17
VPP
p7528
sbatp7529
Rp7530
(dp7531
g17
VVP
p7532
sbatp7533
Rp7534
(dp7535
g17
g257
sbatp7536
Rp7537
(dp7538
g17
VROOT
p7539
sbasg273
(icmyPackage
CorE
p7540
(dp7541
g276
(lp7542
(I0
I23
tp7543
ag7543
asg280
g7484
sbsg281
(icmyPackage
CorE
p7544
(dp7545
g276
(lp7546
(I0
I0
tp7547
a(I0
I20
tp7548
asg280
g5
(g6
g7
(lp7549
g7291
ag7298
ag7331
ag7336
ag7347
ag7353
ag7359
ag7367
ag7396
ag7403
ag7410
ag7428
ag7441
ag7448
ag7459
atp7550
Rp7551
(dp7552
g17
g291
sbsbsg292
g3254
sg316
(lp7553
(isxpPackage
sxpSent
p7554
(dp7555
g320
(lp7556
I23
aI24
asg322
VIt is similar to SB , however rather than computing the initial word probabilities based on word frequencies it weights terms based on TFIDF
p7557
sg324
I6
sg308
I65
sg325
I17
sbasba(icmyPackage
CELink
p7558
(dp7559
g3
(lp7560
g7551
asg273
(icmyPackage
CorE
p7561
(dp7562
g276
(lp7563
(I0
I16
tp7564
a(I0
I20
tp7565
asg280
g5
(g6
g7
(lp7566
g7428
ag7441
ag7448
ag7459
atp7567
Rp7568
(dp7569
g17
g291
sbsbsg281
(icmyPackage
CorE
p7570
(dp7571
g276
(lp7572
(I0
I0
tp7573
a(I0
I13
tp7574
asg280
g5
(g6
g7
(lp7575
g7291
ag7298
ag7331
ag7336
ag7347
ag7353
ag7359
ag7367
ag7396
atp7576
Rp7577
(dp7578
g17
g291
sbsbsg292
g3254
sg316
(lp7579
g7554
asba(icmyPackage
CELink
p7580
(dp7581
g3
(lp7582
g5
(g6
g7
(lp7583
g5
(g6
g7
(lp7584
g5
(g6
g7
(lp7585
g5
(g6
g7
(lp7586
VIn
p7587
atp7588
Rp7589
(dp7590
g17
VIN
p7591
sbag5
(g6
g7
(lp7592
g5
(g6
g7
(lp7593
Vthis
p7594
atp7595
Rp7596
(dp7597
g17
VDT
p7598
sbag5
(g6
g7
(lp7599
Vcase
p7600
atp7601
Rp7602
(dp7603
g17
VNN
p7604
sbatp7605
Rp7606
(dp7607
g17
VNP
p7608
sbatp7609
Rp7610
(dp7611
g17
VPP
p7612
sbag5
(g6
g7
(lp7613
g5
(g6
g7
(lp7614
g5
(g6
g7
(lp7615
Vthe
p7616
atp7617
Rp7618
(dp7619
g17
VDT
p7620
sbag5
(g6
g7
(lp7621
Vdocument
p7622
atp7623
Rp7624
(dp7625
g17
VNN
p7626
sbag5
(g6
g7
(lp7627
Vfrequency
p7628
atp7629
Rp7630
(dp7631
g17
VNN
p7632
sbatp7633
Rp7634
(dp7635
g17
VNP
p7636
sbag5
(g6
g7
(lp7637
g5
(g6
g7
(lp7638
Vis
p7639
atp7640
Rp7641
(dp7642
g17
VVBZ
p7643
sbag5
(g6
g7
(lp7644
g5
(g6
g7
(lp7645
Vcomputed
p7646
atp7647
Rp7648
(dp7649
g17
VVBN
p7650
sbag5
(g6
g7
(lp7651
g5
(g6
g7
(lp7652
Vas
p7653
atp7654
Rp7655
(dp7656
g17
VIN
p7657
sbag5
(g6
g7
(lp7658
g5
(g6
g7
(lp7659
g5
(g6
g7
(lp7660
Vthe
p7661
atp7662
Rp7663
(dp7664
g17
VDT
p7665
sbag5
(g6
g7
(lp7666
Vnumber
p7667
atp7668
Rp7669
(dp7670
g17
VNN
p7671
sbatp7672
Rp7673
(dp7674
g17
VNP
p7675
sbag5
(g6
g7
(lp7676
g5
(g6
g7
(lp7677
Vof
p7678
atp7679
Rp7680
(dp7681
g17
VIN
p7682
sbag5
(g6
g7
(lp7683
g5
(g6
g7
(lp7684
Vtimes
p7685
atp7686
Rp7687
(dp7688
g17
VNNS
p7689
sbatp7690
Rp7691
(dp7692
g17
VNP
p7693
sbatp7694
Rp7695
(dp7696
g17
VPP
p7697
sbatp7698
Rp7699
(dp7700
g17
VNP
p7701
sbatp7702
Rp7703
(dp7704
g17
VPP
p7705
sbatp7706
Rp7707
(dp7708
g17
VVP
p7709
sbatp7710
Rp7711
(dp7712
g17
VVP
p7713
sbatp7714
Rp7715
(dp7716
g17
VPRN
p7717
sbag5
(g6
g7
(lp7718
g5
(g6
g7
(lp7719
g901
atp7720
Rp7721
(dp7722
g17
VDT
p7723
sbag5
(g6
g7
(lp7724
Vword
p7725
atp7726
Rp7727
(dp7728
g17
VNN
p7729
sbatp7730
Rp7731
(dp7732
g17
VNP
p7733
sbag5
(g6
g7
(lp7734
g5
(g6
g7
(lp7735
Vappears
p7736
atp7737
Rp7738
(dp7739
g17
VVBZ
p7740
sbag5
(g6
g7
(lp7741
g5
(g6
g7
(lp7742
Vin
p7743
atp7744
Rp7745
(dp7746
g17
VIN
p7747
sbag5
(g6
g7
(lp7748
g5
(g6
g7
(lp7749
g5
(g6
g7
(lp7750
g5
(g6
g7
(lp7751
g901
atp7752
Rp7753
(dp7754
g17
VDT
p7755
sbag5
(g6
g7
(lp7756
Vmicropost
p7757
atp7758
Rp7759
(dp7760
g17
VNN
p7761
sbatp7762
Rp7763
(dp7764
g17
VNP
p7765
sbag5
(g6
g7
(lp7766
g5
(g6
g7
(lp7767
Vfrom
p7768
atp7769
Rp7770
(dp7771
g17
VIN
p7772
sbag5
(g6
g7
(lp7773
g5
(g6
g7
(lp7774
g5
(g6
g7
(lp7775
Vthe
p7776
atp7777
Rp7778
(dp7779
g17
VDT
p7780
sbag5
(g6
g7
(lp7781
Vcollection
p7782
atp7783
Rp7784
(dp7785
g17
VNN
p7786
sbag5
(g6
g7
(lp7787
g3865
atp7788
Rp7789
(dp7790
g17
VNN
p7791
sbag5
(g6
g7
(lp7792
g3871
atp7793
Rp7794
(dp7795
g17
VPOS
p7796
sbatp7797
Rp7798
(dp7799
g17
VNP
p7800
sbag5
(g6
g7
(lp7801
V\u005c
p7802
atp7803
Rp7804
(dp7805
g17
VJJ
p7806
sbag5
(g6
g7
(lp7807
Vud835
p7808
atp7809
Rp7810
(dp7811
g17
VNNS
p7812
sbag5
(g6
g7
(lp7813
g3871
atp7814
Rp7815
(dp7816
g17
V''
p7817
sbag5
(g6
g7
(lp7818
g3865
atp7819
Rp7820
(dp7821
g17
VNN
p7822
sbatp7823
Rp7824
(dp7825
g17
VNP
p7826
sbatp7827
Rp7828
(dp7829
g17
VPP
p7830
sbag5
(g6
g7
(lp7831
g3871
atp7832
Rp7833
(dp7834
g17
VPOS
p7835
sbatp7836
Rp7837
(dp7838
g17
VNP
p7839
sbag5
(g6
g7
(lp7840
V\u005c
p7841
atp7842
Rp7843
(dp7844
g17
VNN
p7845
sbag5
(g6
g7
(lp7846
Vudc9e
p7847
atp7848
Rp7849
(dp7850
g17
VNNS
p7851
sbatp7852
Rp7853
(dp7854
g17
VNP
p7855
sbatp7856
Rp7857
(dp7858
g17
VPP
p7859
sbatp7860
Rp7861
(dp7862
g17
VVP
p7863
sbag5
(g6
g7
(lp7864
g3871
atp7865
Rp7866
(dp7867
g17
V''
p7868
sbatp7869
Rp7870
(dp7871
g17
g257
sbatp7872
Rp7873
(dp7874
g17
VROOT
p7875
sbasg273
(icmyPackage
CorE
p7876
(dp7877
g276
(lp7878
(I0
I9
tp7879
a(I0
I31
tp7880
asg280
g5
(g6
g7
(lp7881
g7699
ag7731
ag7861
ag7866
atp7882
Rp7883
(dp7884
g17
g291
sbsbsg281
(icmyPackage
CorE
p7885
(dp7886
g276
(lp7887
(I0
I0
tp7888
a(I0
I7
tp7889
asg280
g5
(g6
g7
(lp7890
g7610
ag7634
ag7641
ag7648
atp7891
Rp7892
(dp7893
g17
g291
sbsbsg292
g1474
sg316
(lp7894
(isxpPackage
sxpSent
p7895
(dp7896
g320
(lp7897
I25
asg322
VIn this case the document frequency is computed as the number of times a word appears in a micropost from the collection u'\u005cud835' u'\u005cudc9e'
p7898
sg324
I6
sg308
I66
sg325
I17
sbasba(icmyPackage
CELink
p7899
(dp7900
g3
(lp7901
g5
(g6
g7
(lp7902
g5
(g6
g7
(lp7903
g5
(g6
g7
(lp7904
g5
(g6
g7
(lp7905
VThis
p7906
atp7907
Rp7908
(dp7909
g17
VDT
p7910
sbatp7911
Rp7912
(dp7913
g17
VNP
p7914
sbag5
(g6
g7
(lp7915
g5
(g6
g7
(lp7916
Vis
p7917
atp7918
Rp7919
(dp7920
g17
VVBZ
p7921
sbag5
(g6
g7
(lp7922
g5
(g6
g7
(lp7923
g5
(g6
g7
(lp7924
g901
atp7925
Rp7926
(dp7927
g17
VDT
p7928
sbag5
(g6
g7
(lp7929
Vrelevance
p7930
atp7931
Rp7932
(dp7933
g17
VNN
p7934
sbatp7935
Rp7936
(dp7937
g17
VNP
p7938
sbag5
(g6
g7
(lp7939
g5
(g6
g7
(lp7940
Vbased
p7941
atp7942
Rp7943
(dp7944
g17
VVBN
p7945
sbag5
(g6
g7
(lp7946
g5
(g6
g7
(lp7947
g5
(g6
g7
(lp7948
Vranking
p7949
atp7950
Rp7951
(dp7952
g17
VVBG
p7953
sbag5
(g6
g7
(lp7954
Valgorithm
p7955
atp7956
Rp7957
(dp7958
g17
VNN
p7959
sbag5
(g6
g7
(lp7960
V-LSB-
p7961
atp7962
Rp7963
(dp7964
g17
VVBG
p7965
sbag5
(g6
g7
(lp7966
V4
p7967
atp7968
Rp7969
(dp7970
g17
VCD
p7971
sbag5
(g6
g7
(lp7972
V-RSB-
p7973
atp7974
Rp7975
(dp7976
g17
VNNS
p7977
sbatp7978
Rp7979
(dp7980
g17
VNP
p7981
sbag5
(g6
g7
(lp7982
g797
atp7983
Rp7984
(dp7985
g17
g797
sbag5
(g6
g7
(lp7986
g5
(g6
g7
(lp7987
g5
(g6
g7
(lp7988
Vwhich
p7989
atp7990
Rp7991
(dp7992
g17
VWDT
p7993
sbatp7994
Rp7995
(dp7996
g17
VWHNP
p7997
sbag5
(g6
g7
(lp7998
g5
(g6
g7
(lp7999
g5
(g6
g7
(lp8000
Vavoids
p8001
atp8002
Rp8003
(dp8004
g17
VVBZ
p8005
sbag5
(g6
g7
(lp8006
g5
(g6
g7
(lp8007
Vredundancy
p8008
atp8009
Rp8010
(dp8011
g17
VRB
p8012
sbatp8013
Rp8014
(dp8015
g17
VADVP
p8016
sbag5
(g6
g7
(lp8017
g5
(g6
g7
(lp8018
Vin
p8019
atp8020
Rp8021
(dp8022
g17
VIN
p8023
sbag5
(g6
g7
(lp8024
g5
(g6
g7
(lp8025
g5
(g6
g7
(lp8026
Vthe
p8027
atp8028
Rp8029
(dp8030
g17
VDT
p8031
sbag5
(g6
g7
(lp8032
Vdocuments
p8033
atp8034
Rp8035
(dp8036
g17
VNNS
p8037
sbatp8038
Rp8039
(dp8040
g17
VNP
p8041
sbag5
(g6
g7
(lp8042
g5
(g6
g7
(lp8043
Vused
p8044
atp8045
Rp8046
(dp8047
g17
VVBN
p8048
sbag5
(g6
g7
(lp8049
g5
(g6
g7
(lp8050
Vfor
p8051
atp8052
Rp8053
(dp8054
g17
VIN
p8055
sbag5
(g6
g7
(lp8056
g5
(g6
g7
(lp8057
g5
(g6
g7
(lp8058
Vgenerating
p8059
atp8060
Rp8061
(dp8062
g17
VVBG
p8063
sbag5
(g6
g7
(lp8064
g5
(g6
g7
(lp8065
g901
atp8066
Rp8067
(dp8068
g17
VDT
p8069
sbag5
(g6
g7
(lp8070
Vsummary
p8071
atp8072
Rp8073
(dp8074
g17
VNN
p8075
sbatp8076
Rp8077
(dp8078
g17
VNP
p8079
sbatp8080
Rp8081
(dp8082
g17
VVP
p8083
sbatp8084
Rp8085
(dp8086
g17
g257
sbatp8087
Rp8088
(dp8089
g17
VPP
p8090
sbatp8091
Rp8092
(dp8093
g17
VVP
p8094
sbatp8095
Rp8096
(dp8097
g17
VNP
p8098
sbatp8099
Rp8100
(dp8101
g17
VPP
p8102
sbatp8103
Rp8104
(dp8105
g17
VVP
p8106
sbatp8107
Rp8108
(dp8109
g17
g257
sbatp8110
Rp8111
(dp8112
g17
VSBAR
p8113
sbatp8114
Rp8115
(dp8116
g17
VNP
p8117
sbatp8118
Rp8119
(dp8120
g17
VPP
p8121
sbatp8122
Rp8123
(dp8124
g17
VNP
p8125
sbatp8126
Rp8127
(dp8128
g17
VVP
p8129
sbatp8130
Rp8131
(dp8132
g17
g257
sbatp8133
Rp8134
(dp8135
g17
VROOT
p8136
sbasg273
(icmyPackage
CorE
p8137
(dp8138
g276
(lp8139
(I0
I19
tp8140
a(I0
I21
tp8141
asg280
g8085
sbsg281
(icmyPackage
CorE
p8142
(dp8143
g276
(lp8144
(I0
I0
tp8145
a(I0
I17
tp8146
asg280
g5
(g6
g7
(lp8147
g7912
ag7919
ag7936
ag7943
ag7979
ag7984
ag7995
ag8003
ag8014
ag8021
ag8039
ag8046
atp8148
Rp8149
(dp8150
g17
g291
sbsbsg292
g1075
sg316
(lp8151
(isxpPackage
sxpSent
p8152
(dp8153
g320
(lp8154
I26
asg322
VThis is a relevance based ranking algorithm [ 4 ] , which avoids redundancy in the documents used for generating a summary
p8155
sg324
I6
sg308
I68
sg325
I18
sbasba(icmyPackage
CELink
p8156
(dp8157
g3
(lp8158
g5
(g6
g7
(lp8159
g5
(g6
g7
(lp8160
g5
(g6
g7
(lp8161
g5
(g6
g7
(lp8162
g5
(g6
g7
(lp8163
VThe
p8164
atp8165
Rp8166
(dp8167
g17
VDT
p8168
sbag5
(g6
g7
(lp8169
Vrelevance
p8170
atp8171
Rp8172
(dp8173
g17
VNN
p8174
sbatp8175
Rp8176
(dp8177
g17
VNP
p8178
sbag5
(g6
g7
(lp8179
g5
(g6
g7
(lp8180
Vof
p8181
atp8182
Rp8183
(dp8184
g17
VIN
p8185
sbag5
(g6
g7
(lp8186
g5
(g6
g7
(lp8187
g5
(g6
g7
(lp8188
g5
(g6
g7
(lp8189
g901
atp8190
Rp8191
(dp8192
g17
VDT
p8193
sbag5
(g6
g7
(lp8194
Vvertex
p8195
atp8196
Rp8197
(dp8198
g17
VNN
p8199
sbatp8200
Rp8201
(dp8202
g17
VNP
p8203
sbag5
(g6
g7
(lp8204
g5
(g6
g7
(lp8205
V-LRB-
p8206
atp8207
Rp8208
(dp8209
g17
V-LRB-
p8210
sbag5
(g6
g7
(lp8211
g5
(g6
g7
(lp8212
Vterm
p8213
atp8214
Rp8215
(dp8216
g17
VNN
p8217
sbatp8218
Rp8219
(dp8220
g17
VNP
p8221
sbag5
(g6
g7
(lp8222
V-RRB-
p8223
atp8224
Rp8225
(dp8226
g17
V-RRB-
p8227
sbatp8228
Rp8229
(dp8230
g17
VPRN
p8231
sbatp8232
Rp8233
(dp8234
g17
VNP
p8235
sbag5
(g6
g7
(lp8236
g5
(g6
g7
(lp8237
Vto
p8238
atp8239
Rp8240
(dp8241
g17
VTO
p8242
sbag5
(g6
g7
(lp8243
g5
(g6
g7
(lp8244
Vthe
p8245
atp8246
Rp8247
(dp8248
g17
VDT
p8249
sbag5
(g6
g7
(lp8250
Vgraph
p8251
atp8252
Rp8253
(dp8254
g17
VNN
p8255
sbatp8256
Rp8257
(dp8258
g17
VNP
p8259
sbatp8260
Rp8261
(dp8262
g17
VPP
p8263
sbatp8264
Rp8265
(dp8266
g17
VNP
p8267
sbatp8268
Rp8269
(dp8270
g17
VPP
p8271
sbatp8272
Rp8273
(dp8274
g17
VNP
p8275
sbag5
(g6
g7
(lp8276
g5
(g6
g7
(lp8277
Vis
p8278
atp8279
Rp8280
(dp8281
g17
VVBZ
p8282
sbag5
(g6
g7
(lp8283
g5
(g6
g7
(lp8284
Vcomputed
p8285
atp8286
Rp8287
(dp8288
g17
VVBN
p8289
sbag5
(g6
g7
(lp8290
g5
(g6
g7
(lp8291
Vbased
p8292
atp8293
Rp8294
(dp8295
g17
VVBN
p8296
sbag5
(g6
g7
(lp8297
g5
(g6
g7
(lp8298
Von
p8299
atp8300
Rp8301
(dp8302
g17
VIN
p8303
sbag5
(g6
g7
(lp8304
g5
(g6
g7
(lp8305
g5
(g6
g7
(lp8306
Vglobal
p8307
atp8308
Rp8309
(dp8310
g17
VJJ
p8311
sbag5
(g6
g7
(lp8312
Vinformation
p8313
atp8314
Rp8315
(dp8316
g17
VNN
p8317
sbatp8318
Rp8319
(dp8320
g17
VNP
p8321
sbag5
(g6
g7
(lp8322
g5
(g6
g7
(lp8323
g5
(g6
g7
(lp8324
Vrecursively
p8325
atp8326
Rp8327
(dp8328
g17
VRB
p8329
sbatp8330
Rp8331
(dp8332
g17
VADVP
p8333
sbag5
(g6
g7
(lp8334
Vdrawn
p8335
atp8336
Rp8337
(dp8338
g17
VVBN
p8339
sbag5
(g6
g7
(lp8340
g5
(g6
g7
(lp8341
Vfrom
p8342
atp8343
Rp8344
(dp8345
g17
VIN
p8346
sbag5
(g6
g7
(lp8347
g5
(g6
g7
(lp8348
Vthe
p8349
atp8350
Rp8351
(dp8352
g17
VDT
p8353
sbag5
(g6
g7
(lp8354
Vwhole
p8355
atp8356
Rp8357
(dp8358
g17
VJJ
p8359
sbag5
(g6
g7
(lp8360
Vgraph
p8361
atp8362
Rp8363
(dp8364
g17
VNN
p8365
sbatp8366
Rp8367
(dp8368
g17
VNP
p8369
sbatp8370
Rp8371
(dp8372
g17
VPP
p8373
sbatp8374
Rp8375
(dp8376
g17
VVP
p8377
sbatp8378
Rp8379
(dp8380
g17
VNP
p8381
sbatp8382
Rp8383
(dp8384
g17
VPP
p8385
sbatp8386
Rp8387
(dp8388
g17
VPP
p8389
sbatp8390
Rp8391
(dp8392
g17
VVP
p8393
sbatp8394
Rp8395
(dp8396
g17
VVP
p8397
sbatp8398
Rp8399
(dp8400
g17
g257
sbatp8401
Rp8402
(dp8403
g17
VROOT
p8404
sbasg273
(icmyPackage
CorE
p8405
(dp8406
g276
(lp8407
(I0
I15
tp8408
a(I0
I22
tp8409
asg280
g8379
sbsg281
(icmyPackage
CorE
p8410
(dp8411
g276
(lp8412
(I0
I0
tp8413
a(I0
I12
tp8414
asg280
g5
(g6
g7
(lp8415
g8273
ag8280
ag8287
atp8416
Rp8417
(dp8418
g17
g291
sbsbsg292
g3254
sg316
(lp8419
(isxpPackage
sxpSent
p8420
(dp8421
g320
(lp8422
I27
asg322
VThe relevance of a vertex (term) to the graph is computed based on global information recursively drawn from the whole graph
p8423
sg324
I6
sg308
I71
sg325
I19
sbasba(icmyPackage
CELink
p8424
(dp8425
g3
(lp8426
g5
(g6
g7
(lp8427
g5
(g6
g7
(lp8428
g5
(g6
g7
(lp8429
g5
(g6
g7
(lp8430
g5
(g6
g7
(lp8431
VThe
p8432
atp8433
Rp8434
(dp8435
g17
VDT
p8436
sbag5
(g6
g7
(lp8437
Vfinal
p8438
atp8439
Rp8440
(dp8441
g17
VJJ
p8442
sbag5
(g6
g7
(lp8443
Vscore
p8444
atp8445
Rp8446
(dp8447
g17
VNN
p8448
sbatp8449
Rp8450
(dp8451
g17
VNP
p8452
sbag5
(g6
g7
(lp8453
g5
(g6
g7
(lp8454
Vof
p8455
atp8456
Rp8457
(dp8458
g17
VIN
p8459
sbag5
(g6
g7
(lp8460
g5
(g6
g7
(lp8461
g901
atp8462
Rp8463
(dp8464
g17
VDT
p8465
sbag5
(g6
g7
(lp8466
Vword
p8467
atp8468
Rp8469
(dp8470
g17
VNN
p8471
sbatp8472
Rp8473
(dp8474
g17
VNP
p8475
sbatp8476
Rp8477
(dp8478
g17
VPP
p8479
sbatp8480
Rp8481
(dp8482
g17
VNP
p8483
sbag5
(g6
g7
(lp8484
g5
(g6
g7
(lp8485
Vis
p8486
atp8487
Rp8488
(dp8489
g17
VVBZ
p8490
sbag5
(g6
g7
(lp8491
g5
(g6
g7
(lp8492
Vtherefore
p8493
atp8494
Rp8495
(dp8496
g17
VRB
p8497
sbatp8498
Rp8499
(dp8500
g17
VADVP
p8501
sbag5
(g6
g7
(lp8502
Vnot
p8503
atp8504
Rp8505
(dp8506
g17
VRB
p8507
sbag5
(g6
g7
(lp8508
g5
(g6
g7
(lp8509
Vonly
p8510
atp8511
Rp8512
(dp8513
g17
VRB
p8514
sbag5
(g6
g7
(lp8515
Vdependent
p8516
atp8517
Rp8518
(dp8519
g17
VJJ
p8520
sbag5
(g6
g7
(lp8521
g5
(g6
g7
(lp8522
Von
p8523
atp8524
Rp8525
(dp8526
g17
VIN
p8527
sbag5
(g6
g7
(lp8528
g5
(g6
g7
(lp8529
g5
(g6
g7
(lp8530
Vthe
p8531
atp8532
Rp8533
(dp8534
g17
VDT
p8535
sbag5
(g6
g7
(lp8536
Vterms
p8537
atp8538
Rp8539
(dp8540
g17
VNNS
p8541
sbatp8542
Rp8543
(dp8544
g17
VNP
p8545
sbag5
(g6
g7
(lp8546
g5
(g6
g7
(lp8547
g5
(g6
g7
(lp8548
Vimmediately
p8549
atp8550
Rp8551
(dp8552
g17
VRB
p8553
sbatp8554
Rp8555
(dp8556
g17
VADVP
p8557
sbag5
(g6
g7
(lp8558
Vconnected
p8559
atp8560
Rp8561
(dp8562
g17
VVBN
p8563
sbag5
(g6
g7
(lp8564
g5
(g6
g7
(lp8565
g5
(g6
g7
(lp8566
Vto
p8567
atp8568
Rp8569
(dp8570
g17
VTO
p8571
sbag5
(g6
g7
(lp8572
g5
(g6
g7
(lp8573
Vit
p8574
atp8575
Rp8576
(dp8577
g17
VPRP
p8578
sbatp8579
Rp8580
(dp8581
g17
VNP
p8582
sbatp8583
Rp8584
(dp8585
g17
VPP
p8586
sbag5
(g6
g7
(lp8587
g5
(g6
g7
(lp8588
Vbut
p8589
atp8590
Rp8591
(dp8592
g17
VCC
p8593
sbag5
(g6
g7
(lp8594
Valso
p8595
atp8596
Rp8597
(dp8598
g17
VRB
p8599
sbatp8600
Rp8601
(dp8602
g17
VCONJP
p8603
sbag5
(g6
g7
(lp8604
g5
(g6
g7
(lp8605
Von
p8606
atp8607
Rp8608
(dp8609
g17
VIN
p8610
sbag5
(g6
g7
(lp8611
g5
(g6
g7
(lp8612
g5
(g6
g7
(lp8613
Vhow
p8614
atp8615
Rp8616
(dp8617
g17
VWRB
p8618
sbatp8619
Rp8620
(dp8621
g17
VWHADVP
p8622
sbag5
(g6
g7
(lp8623
g5
(g6
g7
(lp8624
g5
(g6
g7
(lp8625
Vthese
p8626
atp8627
Rp8628
(dp8629
g17
VDT
p8630
sbag5
(g6
g7
(lp8631
Vterms
p8632
atp8633
Rp8634
(dp8635
g17
VNNS
p8636
sbatp8637
Rp8638
(dp8639
g17
VNP
p8640
sbag5
(g6
g7
(lp8641
g5
(g6
g7
(lp8642
Vconnect
p8643
atp8644
Rp8645
(dp8646
g17
VVBP
p8647
sbag5
(g6
g7
(lp8648
g5
(g6
g7
(lp8649
Vto
p8650
atp8651
Rp8652
(dp8653
g17
VTO
p8654
sbag5
(g6
g7
(lp8655
g5
(g6
g7
(lp8656
Vothers
p8657
atp8658
Rp8659
(dp8660
g17
VNNS
p8661
sbatp8662
Rp8663
(dp8664
g17
VNP
p8665
sbatp8666
Rp8667
(dp8668
g17
VPP
p8669
sbatp8670
Rp8671
(dp8672
g17
VVP
p8673
sbatp8674
Rp8675
(dp8676
g17
g257
sbatp8677
Rp8678
(dp8679
g17
VSBAR
p8680
sbatp8681
Rp8682
(dp8683
g17
VPP
p8684
sbatp8685
Rp8686
(dp8687
g17
VPP
p8688
sbatp8689
Rp8690
(dp8691
g17
VVP
p8692
sbatp8693
Rp8694
(dp8695
g17
VNP
p8696
sbatp8697
Rp8698
(dp8699
g17
VPP
p8700
sbatp8701
Rp8702
(dp8703
g17
VADJP
p8704
sbatp8705
Rp8706
(dp8707
g17
VVP
p8708
sbatp8709
Rp8710
(dp8711
g17
g257
sbatp8712
Rp8713
(dp8714
g17
VROOT
p8715
sbasg273
(icmyPackage
CorE
p8716
(dp8717
g276
(lp8718
(I0
I0
tp8719
a(I0
I6
tp8720
asg280
g5
(g6
g7
(lp8721
g8481
ag8488
atp8722
Rp8723
(dp8724
g17
g291
sbsbsg281
(icmyPackage
CorE
p8725
(dp8726
g276
(lp8727
(I0
I8
tp8728
a(I0
I25
tp8729
asg280
g5
(g6
g7
(lp8730
g8505
ag8512
ag8518
ag8525
ag8543
ag8555
ag8561
ag8584
ag8601
ag8608
ag8620
ag8638
ag8645
ag8652
atp8731
Rp8732
(dp8733
g17
g291
sbsbsg292
g2155
sg316
(lp8734
(isxpPackage
sxpSent
p8735
(dp8736
g320
(lp8737
I28
asg322
VThe final score of a word is therefore not only dependent on the terms immediately connected to it but also on how these terms connect to others
p8738
sg324
I6
sg308
I73
sg325
I19
sbasba(icmyPackage
CELink
p8739
(dp8740
g3
(lp8741
g5
(g6
g7
(lp8742
g5
(g6
g7
(lp8743
g5
(g6
g7
(lp8744
g5
(g6
g7
(lp8745
VOnce
p8746
atp8747
Rp8748
(dp8749
g17
VIN
p8750
sbag5
(g6
g7
(lp8751
g5
(g6
g7
(lp8752
g5
(g6
g7
(lp8753
g901
atp8754
Rp8755
(dp8756
g17
VDT
p8757
sbag5
(g6
g7
(lp8758
Vfinal
p8759
atp8760
Rp8761
(dp8762
g17
VJJ
p8763
sbag5
(g6
g7
(lp8764
Vscore
p8765
atp8766
Rp8767
(dp8768
g17
VNN
p8769
sbatp8770
Rp8771
(dp8772
g17
VNP
p8773
sbag5
(g6
g7
(lp8774
g5
(g6
g7
(lp8775
Vis
p8776
atp8777
Rp8778
(dp8779
g17
VVBZ
p8780
sbag5
(g6
g7
(lp8781
g5
(g6
g7
(lp8782
Vcalculated
p8783
atp8784
Rp8785
(dp8786
g17
VVBN
p8787
sbag5
(g6
g7
(lp8788
g5
(g6
g7
(lp8789
Vfor
p8790
atp8791
Rp8792
(dp8793
g17
VIN
p8794
sbag5
(g6
g7
(lp8795
g5
(g6
g7
(lp8796
g5
(g6
g7
(lp8797
Veach
p8798
atp8799
Rp8800
(dp8801
g17
VDT
p8802
sbag5
(g6
g7
(lp8803
Vvertex
p8804
atp8805
Rp8806
(dp8807
g17
VNN
p8808
sbatp8809
Rp8810
(dp8811
g17
VNP
p8812
sbag5
(g6
g7
(lp8813
g5
(g6
g7
(lp8814
Vof
p8815
atp8816
Rp8817
(dp8818
g17
VIN
p8819
sbag5
(g6
g7
(lp8820
g5
(g6
g7
(lp8821
Vthe
p8822
atp8823
Rp8824
(dp8825
g17
VDT
p8826
sbag5
(g6
g7
(lp8827
Vgraph
p8828
atp8829
Rp8830
(dp8831
g17
VNN
p8832
sbatp8833
Rp8834
(dp8835
g17
VNP
p8836
sbatp8837
Rp8838
(dp8839
g17
VPP
p8840
sbatp8841
Rp8842
(dp8843
g17
VNP
p8844
sbatp8845
Rp8846
(dp8847
g17
VPP
p8848
sbatp8849
Rp8850
(dp8851
g17
VVP
p8852
sbatp8853
Rp8854
(dp8855
g17
VVP
p8856
sbatp8857
Rp8858
(dp8859
g17
g257
sbatp8860
Rp8861
(dp8862
g17
VSBAR
p8863
sbag5
(g6
g7
(lp8864
g797
atp8865
Rp8866
(dp8867
g17
g797
sbag5
(g6
g7
(lp8868
g5
(g6
g7
(lp8869
VTextRank
p8870
atp8871
Rp8872
(dp8873
g17
VNNP
p8874
sbatp8875
Rp8876
(dp8877
g17
VNP
p8878
sbag5
(g6
g7
(lp8879
g5
(g6
g7
(lp8880
g5
(g6
g7
(lp8881
Vsorts
p8882
atp8883
Rp8884
(dp8885
g17
VVBD
p8886
sbag5
(g6
g7
(lp8887
g5
(g6
g7
(lp8888
Vthe
p8889
atp8890
Rp8891
(dp8892
g17
VDT
p8893
sbag5
(g6
g7
(lp8894
Vterms
p8895
atp8896
Rp8897
(dp8898
g17
VNNS
p8899
sbatp8900
Rp8901
(dp8902
g17
VNP
p8903
sbag5
(g6
g7
(lp8904
g5
(g6
g7
(lp8905
Vin
p8906
atp8907
Rp8908
(dp8909
g17
VIN
p8910
sbag5
(g6
g7
(lp8911
g5
(g6
g7
(lp8912
g901
atp8913
Rp8914
(dp8915
g17
VDT
p8916
sbag5
(g6
g7
(lp8917
Vreverse
p8918
atp8919
Rp8920
(dp8921
g17
VJJ
p8922
sbag5
(g6
g7
(lp8923
Vorder
p8924
atp8925
Rp8926
(dp8927
g17
VNN
p8928
sbatp8929
Rp8930
(dp8931
g17
VNP
p8932
sbatp8933
Rp8934
(dp8935
g17
VPP
p8936
sbatp8937
Rp8938
(dp8939
g17
VVP
p8940
sbag5
(g6
g7
(lp8941
Vand
p8942
atp8943
Rp8944
(dp8945
g17
VCC
p8946
sbag5
(g6
g7
(lp8947
g5
(g6
g7
(lp8948
Vprovided
p8949
atp8950
Rp8951
(dp8952
g17
VVBD
p8953
sbag5
(g6
g7
(lp8954
g5
(g6
g7
(lp8955
Vthe
p8956
atp8957
Rp8958
(dp8959
g17
VDT
p8960
sbag5
(g6
g7
(lp8961
Vtop
p8962
atp8963
Rp8964
(dp8965
g17
VJJ
p8966
sbag5
(g6
g7
(lp8967
VT
p8968
atp8969
Rp8970
(dp8971
g17
VNNP
p8972
sbag5
(g6
g7
(lp8973
Vvertices
p8974
atp8975
Rp8976
(dp8977
g17
VNNS
p8978
sbatp8979
Rp8980
(dp8981
g17
VNP
p8982
sbag5
(g6
g7
(lp8983
g5
(g6
g7
(lp8984
Vin
p8985
atp8986
Rp8987
(dp8988
g17
VIN
p8989
sbag5
(g6
g7
(lp8990
g5
(g6
g7
(lp8991
Vthe
p8992
atp8993
Rp8994
(dp8995
g17
VDT
p8996
sbag5
(g6
g7
(lp8997
Vranking
p8998
atp8999
Rp9000
(dp9001
g17
VNN
p9002
sbatp9003
Rp9004
(dp9005
g17
VNP
p9006
sbatp9007
Rp9008
(dp9009
g17
VPP
p9010
sbatp9011
Rp9012
(dp9013
g17
VVP
p9014
sbatp9015
Rp9016
(dp9017
g17
VVP
p9018
sbatp9019
Rp9020
(dp9021
g17
g257
sbatp9022
Rp9023
(dp9024
g17
VROOT
p9025
sbasg273
(icmyPackage
CorE
p9026
(dp9027
g276
(lp9028
(I0
I1
tp9029
a(I0
I11
tp9030
asg280
g8858
sbsg281
(icmyPackage
CorE
p9031
(dp9032
g276
(lp9033
(I0
I13
tp9034
a(I0
I29
tp9035
asg280
g5
(g6
g7
(lp9036
g8876
ag9016
atp9037
Rp9038
(dp9039
g17
g291
sbsbsg292
(icmyPackage
pattern
p9040
(dp9041
g295
I0
sg296
I0
sg297
(lp9042
(lp9043
(lp9044
S'if'
p9045
aS'once'
p9046
aaa(lp9047
S','
p9048
aasg301
(lp9049
I1
aI1
aI1
asg303
(lp9050
S'If some light and mobile detection devices can be invented in the future, many new applications can be imagined, for example, people can get some services while thinking.'
p9051
asg308
I15
sg309
(lp9052
(lp9053
a(lp9054
S'&C@Complete@'
p9055
aa(lp9056
S'&R@Complete@'
p9057
aasbsg316
(lp9058
(isxpPackage
sxpSent
p9059
(dp9060
g320
(lp9061
I29
asg322
VOnce a final score is calculated for each vertex of the graph, TextRank sorts the terms in a reverse order and provided the top T vertices in the ranking
p9062
sg324
I6
sg308
I75
sg325
I19
sbasba(icmyPackage
CELink
p9063
(dp9064
g3
(lp9065
g5
(g6
g7
(lp9066
g5
(g6
g7
(lp9067
g5
(g6
g7
(lp9068
g5
(g6
g7
(lp9069
g5
(g6
g7
(lp9070
VHowever
p9071
atp9072
Rp9073
(dp9074
g17
VRB
p9075
sbatp9076
Rp9077
(dp9078
g17
VADVP
p9079
sbag5
(g6
g7
(lp9080
Vperforming
p9081
atp9082
Rp9083
(dp9084
g17
VVBG
p9085
sbag5
(g6
g7
(lp9086
g5
(g6
g7
(lp9087
g5
(g6
g7
(lp9088
Vhuman
p9089
atp9090
Rp9091
(dp9092
g17
VJJ
p9093
sbag5
(g6
g7
(lp9094
Vevaluations
p9095
atp9096
Rp9097
(dp9098
g17
VNNS
p9099
sbatp9100
Rp9101
(dp9102
g17
VNP
p9103
sbag5
(g6
g7
(lp9104
g5
(g6
g7
(lp9105
Vof
p9106
atp9107
Rp9108
(dp9109
g17
VIN
p9110
sbag5
(g6
g7
(lp9111
g5
(g6
g7
(lp9112
VSocial
p9113
atp9114
Rp9115
(dp9116
g17
VNNP
p9117
sbag5
(g6
g7
(lp9118
VMedia
p9119
atp9120
Rp9121
(dp9122
g17
VNNP
p9123
sbag5
(g6
g7
(lp9124
Vtest
p9125
atp9126
Rp9127
(dp9128
g17
VNN
p9129
sbatp9130
Rp9131
(dp9132
g17
VNP
p9133
sbatp9134
Rp9135
(dp9136
g17
VPP
p9137
sbatp9138
Rp9139
(dp9140
g17
VNP
p9141
sbatp9142
Rp9143
(dp9144
g17
VVP
p9145
sbag5
(g6
g7
(lp9146
g5
(g6
g7
(lp9147
Vsets
p9148
atp9149
Rp9150
(dp9151
g17
VVBZ
p9152
sbatp9153
Rp9154
(dp9155
g17
VVP
p9156
sbag5
(g6
g7
(lp9157
g5
(g6
g7
(lp9158
g5
(g6
g7
(lp9159
Vcomprising
p9160
atp9161
Rp9162
(dp9163
g17
VJJ
p9164
sbag5
(g6
g7
(lp9165
Vthousands
p9166
atp9167
Rp9168
(dp9169
g17
VNNS
p9170
sbatp9171
Rp9172
(dp9173
g17
VNP
p9174
sbag5
(g6
g7
(lp9175
g5
(g6
g7
(lp9176
Vof
p9177
atp9178
Rp9179
(dp9180
g17
VIN
p9181
sbag5
(g6
g7
(lp9182
g5
(g6
g7
(lp9183
g5
(g6
g7
(lp9184
Vinputs
p9185
atp9186
Rp9187
(dp9188
g17
VNNS
p9189
sbatp9190
Rp9191
(dp9192
g17
VNP
p9193
sbag5
(g6
g7
(lp9194
g5
(g6
g7
(lp9195
Vbecome
p9196
atp9197
Rp9198
(dp9199
g17
VVBN
p9200
sbag5
(g6
g7
(lp9201
g5
(g6
g7
(lp9202
g901
atp9203
Rp9204
(dp9205
g17
VDT
p9206
sbag5
(g6
g7
(lp9207
Vdifficult
p9208
atp9209
Rp9210
(dp9211
g17
VJJ
p9212
sbag5
(g6
g7
(lp9213
Vtask
p9214
atp9215
Rp9216
(dp9217
g17
VNN
p9218
sbatp9219
Rp9220
(dp9221
g17
VNP
p9222
sbatp9223
Rp9224
(dp9225
g17
VVP
p9226
sbatp9227
Rp9228
(dp9229
g17
VNP
p9230
sbatp9231
Rp9232
(dp9233
g17
VPP
p9234
sbatp9235
Rp9236
(dp9237
g17
VNP
p9238
sbatp9239
Rp9240
(dp9241
g17
VSINV
p9242
sbatp9243
Rp9244
(dp9245
g17
VROOT
p9246
sbag5
(g6
g7
(lp9247
g5
(g6
g7
(lp9248
g5
(g6
g7
(lp9249
g5
(g6
g7
(lp9250
VThis
p9251
atp9252
Rp9253
(dp9254
g17
VDT
p9255
sbatp9256
Rp9257
(dp9258
g17
VNP
p9259
sbag5
(g6
g7
(lp9260
g5
(g6
g7
(lp9261
Vis
p9262
atp9263
Rp9264
(dp9265
g17
VVBZ
p9266
sbag5
(g6
g7
(lp9267
g5
(g6
g7
(lp9268
Vdue
p9269
atp9270
Rp9271
(dp9272
g17
VJJ
p9273
sbag5
(g6
g7
(lp9274
g5
(g6
g7
(lp9275
Vto
p9276
atp9277
Rp9278
(dp9279
g17
VTO
p9280
sbag5
(g6
g7
(lp9281
g5
(g6
g7
(lp9282
g5
(g6
g7
(lp9283
Vboth
p9284
atp9285
Rp9286
(dp9287
g17
VPDT
p9288
sbag5
(g6
g7
(lp9289
Vthe
p9290
atp9291
Rp9292
(dp9293
g17
VDT
p9294
sbag5
(g6
g7
(lp9295
Vcorpus
p9296
atp9297
Rp9298
(dp9299
g17
VNN
p9300
sbag5
(g6
g7
(lp9301
Vsize
p9302
atp9303
Rp9304
(dp9305
g17
VNN
p9306
sbatp9307
Rp9308
(dp9309
g17
VNP
p9310
sbag5
(g6
g7
(lp9311
g797
atp9312
Rp9313
(dp9314
g17
g797
sbag5
(g6
g7
(lp9315
g5
(g6
g7
(lp9316
g5
(g6
g7
(lp9317
Vthe
p9318
atp9319
Rp9320
(dp9321
g17
VDT
p9322
sbag5
(g6
g7
(lp9323
Vdiversity
p9324
atp9325
Rp9326
(dp9327
g17
VNN
p9328
sbatp9329
Rp9330
(dp9331
g17
VNP
p9332
sbag5
(g6
g7
(lp9333
g5
(g6
g7
(lp9334
Vof
p9335
atp9336
Rp9337
(dp9338
g17
VIN
p9339
sbag5
(g6
g7
(lp9340
g5
(g6
g7
(lp9341
Vevent-related
p9342
atp9343
Rp9344
(dp9345
g17
VJJ
p9346
sbag5
(g6
g7
(lp9347
Vtopics
p9348
atp9349
Rp9350
(dp9351
g17
VNNS
p9352
sbatp9353
Rp9354
(dp9355
g17
VNP
p9356
sbatp9357
Rp9358
(dp9359
g17
VPP
p9360
sbatp9361
Rp9362
(dp9363
g17
VNP
p9364
sbag5
(g6
g7
(lp9365
Vand
p9366
atp9367
Rp9368
(dp9369
g17
VCC
p9370
sbag5
(g6
g7
(lp9371
g5
(g6
g7
(lp9372
g5
(g6
g7
(lp9373
Vthe
p9374
atp9375
Rp9376
(dp9377
g17
VDT
p9378
sbag5
(g6
g7
(lp9379
Vlimited
p9380
atp9381
Rp9382
(dp9383
g17
VJJ
p9384
sbag5
(g6
g7
(lp9385
Vavailability
p9386
atp9387
Rp9388
(dp9389
g17
VNN
p9390
sbatp9391
Rp9392
(dp9393
g17
VNP
p9394
sbag5
(g6
g7
(lp9395
g5
(g6
g7
(lp9396
Vof
p9397
atp9398
Rp9399
(dp9400
g17
VIN
p9401
sbag5
(g6
g7
(lp9402
g5
(g6
g7
(lp9403
Vdomain
p9404
atp9405
Rp9406
(dp9407
g17
VNN
p9408
sbag5
(g6
g7
(lp9409
Vexperts
p9410
atp9411
Rp9412
(dp9413
g17
VNNS
p9414
sbatp9415
Rp9416
(dp9417
g17
VNP
p9418
sbatp9419
Rp9420
(dp9421
g17
VPP
p9422
sbatp9423
Rp9424
(dp9425
g17
VNP
p9426
sbatp9427
Rp9428
(dp9429
g17
VNP
p9430
sbatp9431
Rp9432
(dp9433
g17
VPP
p9434
sbatp9435
Rp9436
(dp9437
g17
VADJP
p9438
sbatp9439
Rp9440
(dp9441
g17
VVP
p9442
sbatp9443
Rp9444
(dp9445
g17
g257
sbatp9446
Rp9447
(dp9448
g17
VROOT
p9449
sbasg273
(icmyPackage
CorE
p9450
(dp9451
g276
(lp9452
(I1
I4
tp9453
a(I1
I20
tp9454
asg280
g9428
sbsg281
(icmyPackage
CorE
p9455
(dp9456
g276
(lp9457
(I0
I0
tp9458
a(I0
I16
tp9459
asg280
g9244
sbsg292
(icmyPackage
pattern
p9460
(dp9461
g295
I5
sg296
I1
sg297
(lp9462
(lp9463
S'due'
p9464
aS'to'
p9465
aasg301
(lp9466
I4
aI1
aI2
asg303
(lp9467
S'Amazing things will happen. This is due to the fact that the space between does not belong to any of the cultures that refract one another.'
p9468
aS'But the difference between Java code and XSD remains; this is due to the fundamental nature of the mismatch between the two technologies.'
p9469
asg308
I102
sg309
(lp9470
(lp9471
S'&R'
p9472
aS'(,/./;/--)'
p9473
aS'(&AND)'
p9474
aS'&THIS'
p9475
aS'&BE'
p9476
aa(lp9477
S'&NP@C@'
p9478
aS'(&Clause@C@)'
p9479
aasbsg316
(lp9480
(isxpPackage
sxpSent
p9481
(dp9482
g320
(lp9483
I30
asg322
VHowever performing human evaluations of Social Media test sets comprising thousands of inputs become a difficult task
p9484
sg324
I13
sg308
I87
sg325
I22
sba(isxpPackage
sxpSent
p9485
(dp9486
g320
(lp9487
I30
asg322
VThis is due to both the corpus size, the diversity of event-related topics and the limited availability of domain experts
p9488
sg324
I13
sg308
I88
sg325
I22
sbasba(icmyPackage
CELink
p9489
(dp9490
g3
(lp9491
g5
(g6
g7
(lp9492
g5
(g6
g7
(lp9493
g5
(g6
g7
(lp9494
g5
(g6
g7
(lp9495
VSince
p9496
atp9497
Rp9498
(dp9499
g17
VIN
p9500
sbag5
(g6
g7
(lp9501
g5
(g6
g7
(lp9502
g5
(g6
g7
(lp9503
Vprevious
p9504
atp9505
Rp9506
(dp9507
g17
VJJ
p9508
sbag5
(g6
g7
(lp9509
Vresearch
p9510
atp9511
Rp9512
(dp9513
g17
VNN
p9514
sbatp9515
Rp9516
(dp9517
g17
VNP
p9518
sbag5
(g6
g7
(lp9519
g5
(g6
g7
(lp9520
Vhas
p9521
atp9522
Rp9523
(dp9524
g17
VVBZ
p9525
sbag5
(g6
g7
(lp9526
g5
(g6
g7
(lp9527
Vshown
p9528
atp9529
Rp9530
(dp9531
g17
VVBN
p9532
sbag5
(g6
g7
(lp9533
g5
(g6
g7
(lp9534
g5
(g6
g7
(lp9535
Vthat
p9536
atp9537
Rp9538
(dp9539
g17
VIN
p9540
sbag5
(g6
g7
(lp9541
g5
(g6
g7
(lp9542
g5
(g6
g7
(lp9543
Vheadlines
p9544
atp9545
Rp9546
(dp9547
g17
VNNS
p9548
sbatp9549
Rp9550
(dp9551
g17
VNP
p9552
sbag5
(g6
g7
(lp9553
g5
(g6
g7
(lp9554
Vare
p9555
atp9556
Rp9557
(dp9558
g17
VVBP
p9559
sbag5
(g6
g7
(lp9560
g5
(g6
g7
(lp9561
g5
(g6
g7
(lp9562
Vgood
p9563
atp9564
Rp9565
(dp9566
g17
VJJ
p9567
sbag5
(g6
g7
(lp9568
Vindicators
p9569
atp9570
Rp9571
(dp9572
g17
VNNS
p9573
sbatp9574
Rp9575
(dp9576
g17
VNP
p9577
sbag5
(g6
g7
(lp9578
g5
(g6
g7
(lp9579
Vof
p9580
atp9581
Rp9582
(dp9583
g17
VIN
p9584
sbag5
(g6
g7
(lp9585
g5
(g6
g7
(lp9586
g5
(g6
g7
(lp9587
Vthe
p9588
atp9589
Rp9590
(dp9591
g17
VDT
p9592
sbag5
(g6
g7
(lp9593
Vmain
p9594
atp9595
Rp9596
(dp9597
g17
VJJ
p9598
sbag5
(g6
g7
(lp9599
Vfocus
p9600
atp9601
Rp9602
(dp9603
g17
VNN
p9604
sbatp9605
Rp9606
(dp9607
g17
VNP
p9608
sbag5
(g6
g7
(lp9609
g5
(g6
g7
(lp9610
Vof
p9611
atp9612
Rp9613
(dp9614
g17
VIN
p9615
sbag5
(g6
g7
(lp9616
g5
(g6
g7
(lp9617
g901
atp9618
Rp9619
(dp9620
g17
VDT
p9621
sbag5
(g6
g7
(lp9622
Vtext
p9623
atp9624
Rp9625
(dp9626
g17
VNN
p9627
sbatp9628
Rp9629
(dp9630
g17
VNP
p9631
sbatp9632
Rp9633
(dp9634
g17
VPP
p9635
sbatp9636
Rp9637
(dp9638
g17
VNP
p9639
sbatp9640
Rp9641
(dp9642
g17
VPP
p9643
sbatp9644
Rp9645
(dp9646
g17
VNP
p9647
sbag5
(g6
g7
(lp9648
g797
atp9649
Rp9650
(dp9651
g17
g797
sbag5
(g6
g7
(lp9652
g5
(g6
g7
(lp9653
Vboth
p9654
atp9655
Rp9656
(dp9657
g17
VDT
p9658
sbag5
(g6
g7
(lp9659
Vin
p9660
atp9661
Rp9662
(dp9663
g17
VIN
p9664
sbag5
(g6
g7
(lp9665
g5
(g6
g7
(lp9666
Vstructure
p9667
atp9668
Rp9669
(dp9670
g17
VNN
p9671
sbag5
(g6
g7
(lp9672
Vand
p9673
atp9674
Rp9675
(dp9676
g17
VCC
p9677
sbag5
(g6
g7
(lp9678
Vcontent
p9679
atp9680
Rp9681
(dp9682
g17
VNN
p9683
sbatp9684
Rp9685
(dp9686
g17
VNP
p9687
sbatp9688
Rp9689
(dp9690
g17
VPP
p9691
sbatp9692
Rp9693
(dp9694
g17
VVP
p9695
sbatp9696
Rp9697
(dp9698
g17
g257
sbatp9699
Rp9700
(dp9701
g17
VSBAR
p9702
sbag5
(g6
g7
(lp9703
g797
atp9704
Rp9705
(dp9706
g17
g797
sbag5
(g6
g7
(lp9707
Vand
p9708
atp9709
Rp9710
(dp9711
g17
VCC
p9712
sbag5
(g6
g7
(lp9713
g5
(g6
g7
(lp9714
Vthat
p9715
atp9716
Rp9717
(dp9718
g17
VIN
p9719
sbag5
(g6
g7
(lp9720
g5
(g6
g7
(lp9721
g5
(g6
g7
(lp9722
Vthey
p9723
atp9724
Rp9725
(dp9726
g17
VPRP
p9727
sbatp9728
Rp9729
(dp9730
g17
VNP
p9731
sbag5
(g6
g7
(lp9732
g5
(g6
g7
(lp9733
Vcan
p9734
atp9735
Rp9736
(dp9737
g17
VMD
p9738
sbag5
(g6
g7
(lp9739
g5
(g6
g7
(lp9740
Vact
p9741
atp9742
Rp9743
(dp9744
g17
VVB
p9745
sbag5
(g6
g7
(lp9746
g5
(g6
g7
(lp9747
Vas
p9748
atp9749
Rp9750
(dp9751
g17
VIN
p9752
sbag5
(g6
g7
(lp9753
g5
(g6
g7
(lp9754
g5
(g6
g7
(lp9755
g901
atp9756
Rp9757
(dp9758
g17
VDT
p9759
sbag5
(g6
g7
(lp9760
Vhuman
p9761
atp9762
Rp9763
(dp9764
g17
VNN
p9765
sbatp9766
Rp9767
(dp9768
g17
VNP
p9769
sbag5
(g6
g7
(lp9770
g5
(g6
g7
(lp9771
Vproduced
p9772
atp9773
Rp9774
(dp9775
g17
VVBD
p9776
sbag5
(g6
g7
(lp9777
g5
(g6
g7
(lp9778
Vabstract
p9779
atp9780
Rp9781
(dp9782
g17
VJJ
p9783
sbag5
(g6
g7
(lp9784
V-LSB-
p9785
atp9786
Rp9787
(dp9788
g17
VNNP
p9789
sbag5
(g6
g7
(lp9790
V26
p9791
atp9792
Rp9793
(dp9794
g17
VCD
p9795
sbag5
(g6
g7
(lp9796
V-RSB-
p9797
atp9798
Rp9799
(dp9800
g17
VNNS
p9801
sbatp9802
Rp9803
(dp9804
g17
VNP
p9805
sbatp9806
Rp9807
(dp9808
g17
VVP
p9809
sbatp9810
Rp9811
(dp9812
g17
g257
sbatp9813
Rp9814
(dp9815
g17
VSBAR
p9816
sbatp9817
Rp9818
(dp9819
g17
VVP
p9820
sbatp9821
Rp9822
(dp9823
g17
VVP
p9824
sbatp9825
Rp9826
(dp9827
g17
g257
sbatp9828
Rp9829
(dp9830
g17
VSBAR
p9831
sbatp9832
Rp9833
(dp9834
g17
VSBAR
p9835
sbatp9836
Rp9837
(dp9838
g17
VVP
p9839
sbatp9840
Rp9841
(dp9842
g17
VVP
p9843
sbatp9844
Rp9845
(dp9846
g17
g257
sbatp9847
Rp9848
(dp9849
g17
VSBAR
p9850
sbag5
(g6
g7
(lp9851
g797
atp9852
Rp9853
(dp9854
g17
g797
sbag5
(g6
g7
(lp9855
g5
(g6
g7
(lp9856
Vwe
p9857
atp9858
Rp9859
(dp9860
g17
VPRP
p9861
sbatp9862
Rp9863
(dp9864
g17
VNP
p9865
sbag5
(g6
g7
(lp9866
g5
(g6
g7
(lp9867
Vused
p9868
atp9869
Rp9870
(dp9871
g17
VVBD
p9872
sbag5
(g6
g7
(lp9873
g5
(g6
g7
(lp9874
Vheadlines
p9875
atp9876
Rp9877
(dp9878
g17
VNNS
p9879
sbatp9880
Rp9881
(dp9882
g17
VNP
p9883
sbag5
(g6
g7
(lp9884
g5
(g6
g7
(lp9885
Vas
p9886
atp9887
Rp9888
(dp9889
g17
VIN
p9890
sbag5
(g6
g7
(lp9891
g5
(g6
g7
(lp9892
g5
(g6
g7
(lp9893
Vthe
p9894
atp9895
Rp9896
(dp9897
g17
VDT
p9898
sbag5
(g6
g7
(lp9899
VGS
p9900
atp9901
Rp9902
(dp9903
g17
VNNP
p9904
sbag5
(g6
g7
(lp9905
Vlabels
p9906
atp9907
Rp9908
(dp9909
g17
VNNS
p9910
sbatp9911
Rp9912
(dp9913
g17
VNP
p9914
sbag5
(g6
g7
(lp9915
g5
(g6
g7
(lp9916
Vof
p9917
atp9918
Rp9919
(dp9920
g17
VIN
p9921
sbag5
(g6
g7
(lp9922
g5
(g6
g7
(lp9923
VNW
p9924
atp9925
Rp9926
(dp9927
g17
VNNP
p9928
sbatp9929
Rp9930
(dp9931
g17
VNP
p9932
sbatp9933
Rp9934
(dp9935
g17
VPP
p9936
sbatp9937
Rp9938
(dp9939
g17
VNP
p9940
sbatp9941
Rp9942
(dp9943
g17
VPP
p9944
sbatp9945
Rp9946
(dp9947
g17
VVP
p9948
sbatp9949
Rp9950
(dp9951
g17
g257
sbatp9952
Rp9953
(dp9954
g17
VROOT
p9955
sbasg273
(icmyPackage
CorE
p9956
(dp9957
g276
(lp9958
(I0
I1
tp9959
a(I0
I16
tp9960
asg280
g5
(g6
g7
(lp9961
g9516
ag9523
ag9530
ag9538
ag9550
ag9557
ag9645
atp9962
Rp9963
(dp9964
g17
g291
sbsbsg281
(icmyPackage
CorE
p9965
(dp9966
g276
(lp9967
(I0
I18
tp9968
a(I0
I46
tp9969
asg280
g5
(g6
g7
(lp9970
g9689
ag9705
ag9710
ag9829
ag9853
ag9863
ag9946
atp9971
Rp9972
(dp9973
g17
g291
sbsbsg292
(icmyPackage
pattern
p9974
(dp9975
g295
I15
sg296
I0
sg297
(lp9976
(lp9977
S'since'
p9978
aa(lp9979
g9048
aasg301
(lp9980
I3
aI1
aI1
asg303
(lp9981
S'But, since the herpes virus does not always show its symptoms, prevention is not fool proof.'
p9982
asg308
I78
sg309
(lp9983
(lp9984
a(lp9985
S'&C@NCTime@'
p9986
aa(lp9987
S'&R@NCTime@'
p9988
aasbsg316
(lp9989
(isxpPackage
sxpSent
p9990
(dp9991
g320
(lp9992
I31
aI32
asg322
VSince previous research has shown that headlines are good indicators of the main focus of a text, both in structure and content, and that they can act as a human produced abstract [ 26 ] , we used headlines as the GS labels of NW
p9993
sg324
I13
sg308
I92
sg325
I22
sbasba(icmyPackage
CELink
p9994
(dp9995
g3
(lp9996
g9972
asg273
(icmyPackage
CorE
p9997
(dp9998
g276
(lp9999
(I0
I12
tp10000
a(I0
I28
tp10001
asg280
g5
(g6
g7
(lp10002
g9811
ag9853
ag9863
ag9946
atp10003
Rp10004
(dp10005
g17
g291
sbsbsg281
(icmyPackage
CorE
p10006
(dp10007
g276
(lp10008
(I0
I8
tp10009
a(I0
I10
tp10010
asg280
g5
(g6
g7
(lp10011
g9729
ag9736
ag9743
atp10012
Rp10013
(dp10014
g17
g291
sbsbsg292
g1474
sg316
(lp10015
g9990
asba(icmyPackage
CELink
p10016
(dp10017
g3
(lp10018
g5
(g6
g7
(lp10019
g5
(g6
g7
(lp10020
g5
(g6
g7
(lp10021
g5
(g6
g7
(lp10022
g5
(g6
g7
(lp10023
VThe
p10024
atp10025
Rp10026
(dp10027
g17
VDT
p10028
sbag5
(g6
g7
(lp10029
VNews
p10030
atp10031
Rp10032
(dp10033
g17
VNNP
p10034
sbag5
(g6
g7
(lp10035
VCorpus
p10036
atp10037
Rp10038
(dp10039
g17
VNNP
p10040
sbatp10041
Rp10042
(dp10043
g17
VNP
p10044
sbag5
(g6
g7
(lp10045
g5
(g6
g7
(lp10046
V-LRB-
p10047
atp10048
Rp10049
(dp10050
g17
V-LRB-
p10051
sbag5
(g6
g7
(lp10052
g5
(g6
g7
(lp10053
VNW
p10054
atp10055
Rp10056
(dp10057
g17
VNNP
p10058
sbatp10059
Rp10060
(dp10061
g17
VNP
p10062
sbag5
(g6
g7
(lp10063
V-RRB-
p10064
atp10065
Rp10066
(dp10067
g17
V-RRB-
p10068
sbatp10069
Rp10070
(dp10071
g17
VPRN
p10072
sbatp10073
Rp10074
(dp10075
g17
VNP
p10076
sbag5
(g6
g7
(lp10077
g5
(g6
g7
(lp10078
Vwas
p10079
atp10080
Rp10081
(dp10082
g17
VVBD
p10083
sbag5
(g6
g7
(lp10084
g5
(g6
g7
(lp10085
Vcollected
p10086
atp10087
Rp10088
(dp10089
g17
VVBN
p10090
sbag5
(g6
g7
(lp10091
g5
(g6
g7
(lp10092
Vduring
p10093
atp10094
Rp10095
(dp10096
g17
VIN
p10097
sbag5
(g6
g7
(lp10098
g5
(g6
g7
(lp10099
g5
(g6
g7
(lp10100
Vthe
p10101
atp10102
Rp10103
(dp10104
g17
VDT
p10105
sbag5
(g6
g7
(lp10106
Vsame
p10107
atp10108
Rp10109
(dp10110
g17
VJJ
p10111
sbag5
(g6
g7
(lp10112
Vperiod
p10113
atp10114
Rp10115
(dp10116
g17
VNN
p10117
sbatp10118
Rp10119
(dp10120
g17
VNP
p10121
sbag5
(g6
g7
(lp10122
g5
(g6
g7
(lp10123
Vof
p10124
atp10125
Rp10126
(dp10127
g17
VIN
p10128
sbag5
(g6
g7
(lp10129
g5
(g6
g7
(lp10130
Vtime
p10131
atp10132
Rp10133
(dp10134
g17
VNN
p10135
sbatp10136
Rp10137
(dp10138
g17
VNP
p10139
sbatp10140
Rp10141
(dp10142
g17
VPP
p10143
sbatp10144
Rp10145
(dp10146
g17
VNP
p10147
sbatp10148
Rp10149
(dp10150
g17
VPP
p10151
sbag5
(g6
g7
(lp10152
g5
(g6
g7
(lp10153
Vas
p10154
atp10155
Rp10156
(dp10157
g17
VIN
p10158
sbag5
(g6
g7
(lp10159
g5
(g6
g7
(lp10160
Vthe
p10161
atp10162
Rp10163
(dp10164
g17
VDT
p10165
sbag5
(g6
g7
(lp10166
VTW
p10167
atp10168
Rp10169
(dp10170
g17
VNNP
p10171
sbag5
(g6
g7
(lp10172
Vcorpus
p10173
atp10174
Rp10175
(dp10176
g17
VNN
p10177
sbatp10178
Rp10179
(dp10180
g17
VNP
p10181
sbatp10182
Rp10183
(dp10184
g17
VPP
p10185
sbatp10186
Rp10187
(dp10188
g17
VVP
p10189
sbatp10190
Rp10191
(dp10192
g17
VVP
p10193
sbatp10194
Rp10195
(dp10196
g17
g257
sbatp10197
Rp10198
(dp10199
g17
VROOT
p10200
sbag5
(g6
g7
(lp10201
g5
(g6
g7
(lp10202
g5
(g6
g7
(lp10203
g5
(g6
g7
(lp10204
g5
(g6
g7
(lp10205
VNW
p10206
atp10207
Rp10208
(dp10209
g17
VNNP
p10210
sbag5
(g6
g7
(lp10211
Vconsists
p10212
atp10213
Rp10214
(dp10215
g17
VNNP
p10216
sbatp10217
Rp10218
(dp10219
g17
VNP
p10220
sbag5
(g6
g7
(lp10221
g5
(g6
g7
(lp10222
Vof
p10223
atp10224
Rp10225
(dp10226
g17
VIN
p10227
sbag5
(g6
g7
(lp10228
g5
(g6
g7
(lp10229
g5
(g6
g7
(lp10230
g901
atp10231
Rp10232
(dp10233
g17
VDT
p10234
sbag5
(g6
g7
(lp10235
Vcollection
p10236
atp10237
Rp10238
(dp10239
g17
VNN
p10240
sbatp10241
Rp10242
(dp10243
g17
VNP
p10244
sbag5
(g6
g7
(lp10245
g5
(g6
g7
(lp10246
Vof
p10247
atp10248
Rp10249
(dp10250
g17
VIN
p10251
sbag5
(g6
g7
(lp10252
g5
(g6
g7
(lp10253
Vnews
p10254
atp10255
Rp10256
(dp10257
g17
VNN
p10258
sbag5
(g6
g7
(lp10259
Varticles
p10260
atp10261
Rp10262
(dp10263
g17
VNNS
p10264
sbatp10265
Rp10266
(dp10267
g17
VNP
p10268
sbatp10269
Rp10270
(dp10271
g17
VPP
p10272
sbatp10273
Rp10274
(dp10275
g17
VNP
p10276
sbatp10277
Rp10278
(dp10279
g17
VPP
p10280
sbatp10281
Rp10282
(dp10283
g17
VNP
p10284
sbag5
(g6
g7
(lp10285
g5
(g6
g7
(lp10286
Vcrawled
p10287
atp10288
Rp10289
(dp10290
g17
VVBD
p10291
sbag5
(g6
g7
(lp10292
g5
(g6
g7
(lp10293
Vfrom
p10294
atp10295
Rp10296
(dp10297
g17
VIN
p10298
sbag5
(g6
g7
(lp10299
g5
(g6
g7
(lp10300
g5
(g6
g7
(lp10301
Vtraditional
p10302
atp10303
Rp10304
(dp10305
g17
VJJ
p10306
sbag5
(g6
g7
(lp10307
Vnews
p10308
atp10309
Rp10310
(dp10311
g17
VNN
p10312
sbag5
(g6
g7
(lp10313
Vmedia
p10314
atp10315
Rp10316
(dp10317
g17
VNNS
p10318
sbatp10319
Rp10320
(dp10321
g17
VNP
p10322
sbag5
(g6
g7
(lp10323
g5
(g6
g7
(lp10324
V-LRB-
p10325
atp10326
Rp10327
(dp10328
g17
V-LRB-
p10329
sbag5
(g6
g7
(lp10330
g5
(g6
g7
(lp10331
g5
(g6
g7
(lp10332
VBBC
p10333
atp10334
Rp10335
(dp10336
g17
VNNP
p10337
sbatp10338
Rp10339
(dp10340
g17
VNP
p10341
sbag5
(g6
g7
(lp10342
g797
atp10343
Rp10344
(dp10345
g17
g797
sbag5
(g6
g7
(lp10346
g5
(g6
g7
(lp10347
VCNN
p10348
atp10349
Rp10350
(dp10351
g17
VNNP
p10352
sbatp10353
Rp10354
(dp10355
g17
VNP
p10356
sbag5
(g6
g7
(lp10357
g797
atp10358
Rp10359
(dp10360
g17
g797
sbag5
(g6
g7
(lp10361
Vand
p10362
atp10363
Rp10364
(dp10365
g17
VCC
p10366
sbag5
(g6
g7
(lp10367
g5
(g6
g7
(lp10368
VNew
p10369
atp10370
Rp10371
(dp10372
g17
VNNP
p10373
sbag5
(g6
g7
(lp10374
VYork
p10375
atp10376
Rp10377
(dp10378
g17
VNNP
p10379
sbag5
(g6
g7
(lp10380
VTimes
p10381
atp10382
Rp10383
(dp10384
g17
VNNP
p10385
sbatp10386
Rp10387
(dp10388
g17
VNP
p10389
sbatp10390
Rp10391
(dp10392
g17
VNP
p10393
sbag5
(g6
g7
(lp10394
V-RRB-
p10395
atp10396
Rp10397
(dp10398
g17
V-RRB-
p10399
sbatp10400
Rp10401
(dp10402
g17
VPRN
p10403
sbatp10404
Rp10405
(dp10406
g17
VNP
p10407
sbatp10408
Rp10409
(dp10410
g17
VPP
p10411
sbag5
(g6
g7
(lp10412
g5
(g6
g7
(lp10413
g5
(g6
g7
(lp10414
Vcomprising
p10415
atp10416
Rp10417
(dp10418
g17
VVBG
p10419
sbag5
(g6
g7
(lp10420
g5
(g6
g7
(lp10421
Vover
p10422
atp10423
Rp10424
(dp10425
g17
VRP
p10426
sbatp10427
Rp10428
(dp10429
g17
VPRT
p10430
sbag5
(g6
g7
(lp10431
g5
(g6
g7
(lp10432
g5
(g6
g7
(lp10433
V77,000
p10434
atp10435
Rp10436
(dp10437
g17
VCD
p10438
sbag5
(g6
g7
(lp10439
Varticles
p10440
atp10441
Rp10442
(dp10443
g17
VNNS
p10444
sbatp10445
Rp10446
(dp10447
g17
VNP
p10448
sbag5
(g6
g7
(lp10449
g5
(g6
g7
(lp10450
g5
(g6
g7
(lp10451
Vwhich
p10452
atp10453
Rp10454
(dp10455
g17
VWDT
p10456
sbatp10457
Rp10458
(dp10459
g17
VWHNP
p10460
sbag5
(g6
g7
(lp10461
g5
(g6
g7
(lp10462
g5
(g6
g7
(lp10463
Vinclude
p10464
atp10465
Rp10466
(dp10467
g17
VVBP
p10468
sbag5
(g6
g7
(lp10469
g5
(g6
g7
(lp10470
g5
(g6
g7
(lp10471
g5
(g6
g7
(lp10472
g5
(g6
g7
(lp10473
Vsupplemental
p10474
atp10475
Rp10476
(dp10477
g17
VJJ
p10478
sbag5
(g6
g7
(lp10479
Vmetadata
p10480
atp10481
Rp10482
(dp10483
g17
VNN
p10484
sbatp10485
Rp10486
(dp10487
g17
VNP
p10488
sbag5
(g6
g7
(lp10489
g5
(g6
g7
(lp10490
V-LRB-
p10491
atp10492
Rp10493
(dp10494
g17
V-LRB-
p10495
sbag5
(g6
g7
(lp10496
g5
(g6
g7
(lp10497
Ve.g.
p10498
atp10499
Rp10500
(dp10501
g17
VNNP
p10502
sbatp10503
Rp10504
(dp10505
g17
VNP
p10506
sbag5
(g6
g7
(lp10507
g797
atp10508
Rp10509
(dp10510
g17
g797
sbag5
(g6
g7
(lp10511
g5
(g6
g7
(lp10512
Vheadline
p10513
atp10514
Rp10515
(dp10516
g17
VNN
p10517
sbag5
(g6
g7
(lp10518
g797
atp10519
Rp10520
(dp10521
g17
g797
sbag5
(g6
g7
(lp10522
Vauthor
p10523
atp10524
Rp10525
(dp10526
g17
VNN
p10527
sbag5
(g6
g7
(lp10528
g797
atp10529
Rp10530
(dp10531
g17
g797
sbag5
(g6
g7
(lp10532
Vpublishing
p10533
atp10534
Rp10535
(dp10536
g17
VNN
p10537
sbatp10538
Rp10539
(dp10540
g17
VNP
p10541
sbatp10542
Rp10543
(dp10544
g17
VPRN
p10545
sbatp10546
Rp10547
(dp10548
g17
VNP
p10549
sbag5
(g6
g7
(lp10550
g5
(g6
g7
(lp10551
Vdate
p10552
atp10553
Rp10554
(dp10555
g17
VVBP
p10556
sbatp10557
Rp10558
(dp10559
g17
VVP
p10560
sbatp10561
Rp10562
(dp10563
g17
g257
sbatp10564
Rp10565
(dp10566
g17
VSBAR
p10567
sbatp10568
Rp10569
(dp10570
g17
VVP
p10571
sbatp10572
Rp10573
(dp10574
g17
g257
sbatp10575
Rp10576
(dp10577
g17
VSBAR
p10578
sbatp10579
Rp10580
(dp10581
g17
VNP
p10582
sbatp10583
Rp10584
(dp10585
g17
VVP
p10586
sbatp10587
Rp10588
(dp10589
g17
g257
sbatp10590
Rp10591
(dp10592
g17
VVP
p10593
sbatp10594
Rp10595
(dp10596
g17
g257
sbatp10597
Rp10598
(dp10599
g17
VROOT
p10600
sbasg273
(icmyPackage
CorE
p10601
(dp10602
g276
(lp10603
(I0
I15
tp10604
a(I1
I38
tp10605
asg280
g5
(g6
g7
(lp10606
g10179
ag10282
ag10289
ag10409
ag10417
ag10428
ag10446
ag10458
ag10466
ag10547
atp10607
Rp10608
(dp10609
g17
g291
sbsbsg281
(icmyPackage
CorE
p10610
(dp10611
g276
(lp10612
(I0
I0
tp10613
a(I0
I13
tp10614
asg280
g5
(g6
g7
(lp10615
g10074
ag10081
ag10088
ag10149
atp10616
Rp10617
(dp10618
g17
g291
sbsbsg292
g1474
sg316
(lp10619
(isxpPackage
sxpSent
p10620
(dp10621
g320
(lp10622
I33
asg322
VThe News Corpus ( NW ) was collected during the same period of time as the TW corpus
p10623
sg324
I13
sg308
I93
sg325
I23
sba(isxpPackage
sxpSent
p10624
(dp10625
g320
(lp10626
I33
asg322
VNW consists of a collection of news articles crawled from traditional news media (BBC, CNN, and New York Times) comprising over 77,000 articles which include supplemental metadata (e.g., headline, author, publishing date
p10627
sg324
I13
sg308
I94
sg325
I23
sbasba(icmyPackage
CELink
p10628
(dp10629
g3
(lp10630
g5
(g6
g7
(lp10631
g5
(g6
g7
(lp10632
g5
(g6
g7
(lp10633
g5
(g6
g7
(lp10634
VThe
p10635
atp10636
Rp10637
(dp10638
g17
VDT
p10639
sbag5
(g6
g7
(lp10640
Vsame
p10641
atp10642
Rp10643
(dp10644
g17
VJJ
p10645
sbag5
(g6
g7
(lp10646
Vpreprocessing
p10647
atp10648
Rp10649
(dp10650
g17
VVBG
p10651
sbag5
(g6
g7
(lp10652
Vsteps
p10653
atp10654
Rp10655
(dp10656
g17
VNNS
p10657
sbatp10658
Rp10659
(dp10660
g17
VNP
p10661
sbag5
(g6
g7
(lp10662
g5
(g6
g7
(lp10663
Vwere
p10664
atp10665
Rp10666
(dp10667
g17
VVBD
p10668
sbag5
(g6
g7
(lp10669
g5
(g6
g7
(lp10670
Vperformed
p10671
atp10672
Rp10673
(dp10674
g17
VVBN
p10675
sbag5
(g6
g7
(lp10676
g5
(g6
g7
(lp10677
Von
p10678
atp10679
Rp10680
(dp10681
g17
VIN
p10682
sbag5
(g6
g7
(lp10683
g5
(g6
g7
(lp10684
VNW
p10685
atp10686
Rp10687
(dp10688
g17
VNNP
p10689
sbatp10690
Rp10691
(dp10692
g17
VNP
p10693
sbatp10694
Rp10695
(dp10696
g17
VPP
p10697
sbatp10698
Rp10699
(dp10700
g17
VVP
p10701
sbatp10702
Rp10703
(dp10704
g17
VVP
p10705
sbatp10706
Rp10707
(dp10708
g17
g257
sbatp10709
Rp10710
(dp10711
g17
VROOT
p10712
sbag5
(g6
g7
(lp10713
g5
(g6
g7
(lp10714
g5
(g6
g7
(lp10715
g5
(g6
g7
(lp10716
VTherefore
p10717
atp10718
Rp10719
(dp10720
g17
VRB
p10721
sbatp10722
Rp10723
(dp10724
g17
VADVP
p10725
sbag5
(g6
g7
(lp10726
g797
atp10727
Rp10728
(dp10729
g17
g797
sbag5
(g6
g7
(lp10730
g5
(g6
g7
(lp10731
Vfollowing
p10732
atp10733
Rp10734
(dp10735
g17
VJJ
p10736
sbag5
(g6
g7
(lp10737
g901
atp10738
Rp10739
(dp10740
g17
VDT
p10741
sbag5
(g6
g7
(lp10742
Vsimilarity
p10743
atp10744
Rp10745
(dp10746
g17
VNN
p10747
sbag5
(g6
g7
(lp10748
Valignment
p10749
atp10750
Rp10751
(dp10752
g17
VNN
p10753
sbatp10754
Rp10755
(dp10756
g17
VNP
p10757
sbag5
(g6
g7
(lp10758
g5
(g6
g7
(lp10759
Vapproach
p10760
atp10761
Rp10762
(dp10763
g17
VVBP
p10764
sbag5
(g6
g7
(lp10765
g5
(g6
g7
(lp10766
g5
(g6
g7
(lp10767
g5
(g6
g7
(lp10768
Vwe
p10769
atp10770
Rp10771
(dp10772
g17
VPRP
p10773
sbatp10774
Rp10775
(dp10776
g17
VNP
p10777
sbag5
(g6
g7
(lp10778
g5
(g6
g7
(lp10779
Vperformed
p10780
atp10781
Rp10782
(dp10783
g17
VVBD
p10784
sbag5
(g6
g7
(lp10785
g5
(g6
g7
(lp10786
g5
(g6
g7
(lp10787
g5
(g6
g7
(lp10788
Vthe
p10789
atp10790
Rp10791
(dp10792
g17
VDT
p10793
sbag5
(g6
g7
(lp10794
Vsteps
p10795
atp10796
Rp10797
(dp10798
g17
VNNS
p10799
sbatp10800
Rp10801
(dp10802
g17
VNP
p10803
sbag5
(g6
g7
(lp10804
g5
(g6
g7
(lp10805
Voulined
p10806
atp10807
Rp10808
(dp10809
g17
VVBD
p10810
sbag5
(g6
g7
(lp10811
g5
(g6
g7
(lp10812
Vin
p10813
atp10814
Rp10815
(dp10816
g17
VIN
p10817
sbag5
(g6
g7
(lp10818
g5
(g6
g7
(lp10819
VAlgorithm
p10820
atp10821
Rp10822
(dp10823
g17
VNNP
p10824
sbag5
(g6
g7
(lp10825
V3.2
p10826
atp10827
Rp10828
(dp10829
g17
VCD
p10830
sbatp10831
Rp10832
(dp10833
g17
VNP
p10834
sbatp10835
Rp10836
(dp10837
g17
VPP
p10838
sbag5
(g6
g7
(lp10839
g5
(g6
g7
(lp10840
Vfor
p10841
atp10842
Rp10843
(dp10844
g17
VIN
p10845
sbag5
(g6
g7
(lp10846
g5
(g6
g7
(lp10847
g5
(g6
g7
(lp10848
Vgenerating
p10849
atp10850
Rp10851
(dp10852
g17
VVBG
p10853
sbag5
(g6
g7
(lp10854
g5
(g6
g7
(lp10855
g5
(g6
g7
(lp10856
Vthe
p10857
atp10858
Rp10859
(dp10860
g17
VDT
p10861
sbag5
(g6
g7
(lp10862
VGS
p10863
atp10864
Rp10865
(dp10866
g17
VNNP
p10867
sbag5
(g6
g7
(lp10868
Vtopic
p10869
atp10870
Rp10871
(dp10872
g17
VNN
p10873
sbag5
(g6
g7
(lp10874
Vlabels
p10875
atp10876
Rp10877
(dp10878
g17
VNNS
p10879
sbatp10880
Rp10881
(dp10882
g17
VNP
p10883
sbag5
(g6
g7
(lp10884
g5
(g6
g7
(lp10885
Vof
p10886
atp10887
Rp10888
(dp10889
g17
VIN
p10890
sbag5
(g6
g7
(lp10891
g5
(g6
g7
(lp10892
g5
(g6
g7
(lp10893
g901
atp10894
Rp10895
(dp10896
g17
VDT
p10897
sbag5
(g6
g7
(lp10898
Vtopic
p10899
atp10900
Rp10901
(dp10902
g17
VNN
p10903
sbatp10904
Rp10905
(dp10906
g17
VNP
p10907
sbag5
(g6
g7
(lp10908
g5
(g6
g7
(lp10909
Vin
p10910
atp10911
Rp10912
(dp10913
g17
VIN
p10914
sbag5
(g6
g7
(lp10915
g5
(g6
g7
(lp10916
VTW
p10917
atp10918
Rp10919
(dp10920
g17
VNNP
p10921
sbatp10922
Rp10923
(dp10924
g17
VNP
p10925
sbatp10926
Rp10927
(dp10928
g17
VPP
p10929
sbatp10930
Rp10931
(dp10932
g17
VNP
p10933
sbatp10934
Rp10935
(dp10936
g17
VPP
p10937
sbatp10938
Rp10939
(dp10940
g17
VNP
p10941
sbatp10942
Rp10943
(dp10944
g17
VVP
p10945
sbatp10946
Rp10947
(dp10948
g17
g257
sbatp10949
Rp10950
(dp10951
g17
VPP
p10952
sbatp10953
Rp10954
(dp10955
g17
VVP
p10956
sbatp10957
Rp10958
(dp10959
g17
g257
sbatp10960
Rp10961
(dp10962
g17
VSBAR
p10963
sbatp10964
Rp10965
(dp10966
g17
VVP
p10967
sbatp10968
Rp10969
(dp10970
g17
g257
sbatp10971
Rp10972
(dp10973
g17
VSBAR
p10974
sbatp10975
Rp10976
(dp10977
g17
VVP
p10978
sbatp10979
Rp10980
(dp10981
g17
g257
sbatp10982
Rp10983
(dp10984
g17
VROOT
p10985
sbasg273
(icmyPackage
CorE
p10986
(dp10987
g276
(lp10988
(I0
I0
tp10989
a(I0
I7
tp10990
asg280
g10710
sbsg281
(icmyPackage
CorE
p10991
(dp10992
g276
(lp10993
(I1
I2
tp10994
a(I1
I25
tp10995
asg280
g5
(g6
g7
(lp10996
g10755
ag10976
atp10997
Rp10998
(dp10999
g17
g291
sbsbsg292
g2155
sg316
(lp11000
(isxpPackage
sxpSent
p11001
(dp11002
g320
(lp11003
I34
asg322
VThe same preprocessing steps were performed on NW
p11004
sg324
I13
sg308
I96
sg325
I23
sba(isxpPackage
sxpSent
p11005
(dp11006
g320
(lp11007
I34
asg322
VTherefore, following a similarity alignment approach we performed the steps oulined in Algorithm 3.2 for generating the GS topic labels of a topic in TW
p11008
sg324
I13
sg308
I97
sg325
I24
sbasba(icmyPackage
CELink
p11009
(dp11010
g3
(lp11011
g5
(g6
g7
(lp11012
g5
(g6
g7
(lp11013
g5
(g6
g7
(lp11014
g5
(g6
g7
(lp11015
V\u005c
p11016
atp11017
Rp11018
(dp11019
g17
VNNP
p11020
sbag5
(g6
g7
(lp11021
VENSURE
p11022
atp11023
Rp11024
(dp11025
g17
VNNP
p11026
sbag5
(g6
g7
(lp11027
VGold
p11028
atp11029
Rp11030
(dp11031
g17
VNNP
p11032
sbatp11033
Rp11034
(dp11035
g17
VNP
p11036
sbag5
(g6
g7
(lp11037
g5
(g6
g7
(lp11038
g5
(g6
g7
(lp11039
Vstandard
p11040
atp11041
Rp11042
(dp11043
g17
VJJ
p11044
sbag5
(g6
g7
(lp11045
Vtopic
p11046
atp11047
Rp11048
(dp11049
g17
VNN
p11050
sbag5
(g6
g7
(lp11051
Vlabel
p11052
atp11053
Rp11054
(dp11055
g17
VNN
p11056
sbatp11057
Rp11058
(dp11059
g17
VNP
p11060
sbag5
(g6
g7
(lp11061
g5
(g6
g7
(lp11062
Vfor
p11063
atp11064
Rp11065
(dp11066
g17
VIN
p11067
sbag5
(g6
g7
(lp11068
g5
(g6
g7
(lp11069
g5
(g6
g7
(lp11070
Veach
p11071
atp11072
Rp11073
(dp11074
g17
VDT
p11075
sbatp11076
Rp11077
(dp11078
g17
VNP
p11079
sbag5
(g6
g7
(lp11080
g5
(g6
g7
(lp11081
Vof
p11082
atp11083
Rp11084
(dp11085
g17
VIN
p11086
sbag5
(g6
g7
(lp11087
g5
(g6
g7
(lp11088
g5
(g6
g7
(lp11089
Vthe
p11090
atp11091
Rp11092
(dp11093
g17
VDT
p11094
sbag5
(g6
g7
(lp11095
VLDA
p11096
atp11097
Rp11098
(dp11099
g17
VNNP
p11100
sbag5
(g6
g7
(lp11101
Vtopics
p11102
atp11103
Rp11104
(dp11105
g17
VNNS
p11106
sbatp11107
Rp11108
(dp11109
g17
VNP
p11110
sbag5
(g6
g7
(lp11111
g5
(g6
g7
(lp11112
Vfor
p11113
atp11114
Rp11115
(dp11116
g17
VIN
p11117
sbag5
(g6
g7
(lp11118
g5
(g6
g7
(lp11119
VTW
p11120
atp11121
Rp11122
(dp11123
g17
VNNP
p11124
sbatp11125
Rp11126
(dp11127
g17
VNP
p11128
sbatp11129
Rp11130
(dp11131
g17
VPP
p11132
sbatp11133
Rp11134
(dp11135
g17
VNP
p11136
sbatp11137
Rp11138
(dp11139
g17
VPP
p11140
sbatp11141
Rp11142
(dp11143
g17
VNP
p11144
sbatp11145
Rp11146
(dp11147
g17
VPP
p11148
sbatp11149
Rp11150
(dp11151
g17
VNP
p11152
sbatp11153
Rp11154
(dp11155
g17
VNP
p11156
sbatp11157
Rp11158
(dp11159
g17
VROOT
p11160
sbasg273
(icmyPackage
CorE
p11161
(dp11162
g276
(lp11163
(I0
I0
tp11164
ag11164
asg280
g11018
sbsg281
(icmyPackage
CorE
p11165
(dp11166
g276
(lp11167
(I0
I2
tp11168
a(I0
I13
tp11169
asg280
g5
(g6
g7
(lp11170
g11030
ag11150
atp11171
Rp11172
(dp11173
g17
g291
sbsbsg292
(icmyPackage
pattern
p11174
(dp11175
g295
I0
sg296
I0
sg297
(lp11176
(lp11177
(lp11178
S'indicate'
p11179
aS'indicates'
p11180
aS'indicated'
p11181
aS'realize'
p11182
aS'realizes'
p11183
aS'realized'
p11184
aS'ensure'
p11185
aS'ensures'
p11186
aS'ensured'
p11187
aS'imply'
p11188
aS'implies'
p11189
aS'implied'
p11190
aaasg301
(lp11191
I4
aI1
aI1
asg303
(lp11192
S'The basic characteristics and principles of language use and understanding indicate the following dimensions for evaluating a summarization'
p11193
asg308
I88
sg309
(lp11194
(lp11195
S'&NP@C@'
p11196
aS'(&Clause@C@)'
p11197
aa(lp11198
S'&NP@R@'
p11199
aS'(&Clause@R@)'
p11200
aasbsg316
(lp11201
(isxpPackage
sxpSent
p11202
(dp11203
g320
(lp11204
I35
asg322
V\u005cENSURE Gold standard topic label for each of the LDA topics for TW
p11205
sg324
I13
sg308
I99
sg325
I25
sbasba(icmyPackage
CELink
p11206
(dp11207
g3
(lp11208
g5
(g6
g7
(lp11209
g5
(g6
g7
(lp11210
g5
(g6
g7
(lp11211
g5
(g6
g7
(lp11212
g5
(g6
g7
(lp11213
V\u005c
p11214
atp11215
Rp11216
(dp11217
g17
VVB
p11218
sbag5
(g6
g7
(lp11219
g5
(g6
g7
(lp11220
g5
(g6
g7
(lp11221
VSTATE
p11222
atp11223
Rp11224
(dp11225
g17
VNNP
p11226
sbag5
(g6
g7
(lp11227
VExtract
p11228
atp11229
Rp11230
(dp11231
g17
VNNP
p11232
sbatp11233
Rp11234
(dp11235
g17
VNP
p11236
sbag5
(g6
g7
(lp11237
g5
(g6
g7
(lp11238
g5
(g6
g7
(lp11239
Vthe
p11240
atp11241
Rp11242
(dp11243
g17
VDT
p11244
sbag5
(g6
g7
(lp11245
Vheadlines
p11246
atp11247
Rp11248
(dp11249
g17
VNNS
p11250
sbatp11251
Rp11252
(dp11253
g17
VNP
p11254
sbag5
(g6
g7
(lp11255
g5
(g6
g7
(lp11256
Vof
p11257
atp11258
Rp11259
(dp11260
g17
VIN
p11261
sbag5
(g6
g7
(lp11262
g5
(g6
g7
(lp11263
g5
(g6
g7
(lp11264
g5
(g6
g7
(lp11265
Vnews
p11266
atp11267
Rp11268
(dp11269
g17
VNN
p11270
sbag5
(g6
g7
(lp11271
Varticles
p11272
atp11273
Rp11274
(dp11275
g17
VNNS
p11276
sbatp11277
Rp11278
(dp11279
g17
VNP
p11280
sbag5
(g6
g7
(lp11281
g5
(g6
g7
(lp11282
Vfrom
p11283
atp11284
Rp11285
(dp11286
g17
VIN
p11287
sbag5
(g6
g7
(lp11288
g5
(g6
g7
(lp11289
g5
(g6
g7
(lp11290
g5
(g6
g7
(lp11291
g3865
atp11292
Rp11293
(dp11294
g17
VNNP
p11295
sbag5
(g6
g7
(lp11296
g3871
atp11297
Rp11298
(dp11299
g17
VPOS
p11300
sbatp11301
Rp11302
(dp11303
g17
VNP
p11304
sbag5
(g6
g7
(lp11305
V\u005c
p11306
atp11307
Rp11308
(dp11309
g17
VJJ
p11310
sbag5
(g6
g7
(lp11311
g5
(g6
g7
(lp11312
Vud835
p11313
atp11314
Rp11315
(dp11316
g17
VNNP
p11317
sbag5
(g6
g7
(lp11318
g3871
atp11319
Rp11320
(dp11321
g17
VPOS
p11322
sbatp11323
Rp11324
(dp11325
g17
VNP
p11326
sbag5
(g6
g7
(lp11327
g3865
atp11328
Rp11329
(dp11330
g17
VNN
p11331
sbag5
(g6
g7
(lp11332
g3871
atp11333
Rp11334
(dp11335
g17
V''
p11336
sbatp11337
Rp11338
(dp11339
g17
VNP
p11340
sbag5
(g6
g7
(lp11341
g5
(g6
g7
(lp11342
g5
(g6
g7
(lp11343
g5
(g6
g7
(lp11344
V\u005c
p11345
atp11346
Rp11347
(dp11348
g17
VNNP
p11349
sbag5
(g6
g7
(lp11350
Vudc9e
p11351
atp11352
Rp11353
(dp11354
g17
VNNP
p11355
sbag5
(g6
g7
(lp11356
g3871
atp11357
Rp11358
(dp11359
g17
VPOS
p11360
sbatp11361
Rp11362
(dp11363
g17
VNP
p11364
sbag5
(g6
g7
(lp11365
g5794
atp11366
Rp11367
(dp11368
g17
VNNP
p11369
sbag5
(g6
g7
(lp11370
g3865
atp11371
Rp11372
(dp11373
g17
VNNP
p11374
sbag5
(g6
g7
(lp11375
g3871
atp11376
Rp11377
(dp11378
g17
VPOS
p11379
sbatp11380
Rp11381
(dp11382
g17
VNP
p11383
sbag5
(g6
g7
(lp11384
V\u005c
p11385
atp11386
Rp11387
(dp11388
g17
VNN
p11389
sbag5
(g6
g7
(lp11390
Vu2062
p11391
atp11392
Rp11393
(dp11394
g17
VNNS
p11395
sbatp11396
Rp11397
(dp11398
g17
VNP
p11399
sbatp11400
Rp11401
(dp11402
g17
VNP
p11403
sbatp11404
Rp11405
(dp11406
g17
VPP
p11407
sbag5
(g6
g7
(lp11408
g3871
atp11409
Rp11410
(dp11411
g17
VPOS
p11412
sbatp11413
Rp11414
(dp11415
g17
VNP
p11416
sbag5
(g6
g7
(lp11417
VW
p11418
atp11419
Rp11420
(dp11421
g17
VNNP
p11422
sbag5
(g6
g7
(lp11423
g1823
atp11424
Rp11425
(dp11426
g17
VNN
p11427
sbatp11428
Rp11429
(dp11430
g17
VNP
p11431
sbatp11432
Rp11433
(dp11434
g17
VPP
p11435
sbatp11436
Rp11437
(dp11438
g17
VNP
p11439
sbatp11440
Rp11441
(dp11442
g17
g257
sbatp11443
Rp11444
(dp11445
g17
VVP
p11446
sbag5
(g6
g7
(lp11447
Vand
p11448
atp11449
Rp11450
(dp11451
g17
VCC
p11452
sbag5
(g6
g7
(lp11453
g5
(g6
g7
(lp11454
Vselect
p11455
atp11456
Rp11457
(dp11458
g17
VVB
p11459
sbag5
(g6
g7
(lp11460
g5
(g6
g7
(lp11461
Vthe
p11462
atp11463
Rp11464
(dp11465
g17
VDT
p11466
sbag5
(g6
g7
(lp11467
Vtop
p11468
atp11469
Rp11470
(dp11471
g17
VJJ
p11472
sbag5
(g6
g7
(lp11473
g5
(g6
g7
(lp11474
g5
(g6
g7
(lp11475
Vx
p11476
atp11477
Rp11478
(dp11479
g17
VSYM
p11480
sbatp11481
Rp11482
(dp11483
g17
VNP
p11484
sbag5
(g6
g7
(lp11485
g5
(g6
g7
(lp11486
g5
(g6
g7
(lp11487
g5
(g6
g7
(lp11488
Vmost
p11489
atp11490
Rp11491
(dp11492
g17
VRBS
p11493
sbag5
(g6
g7
(lp11494
Vfrequent
p11495
atp11496
Rp11497
(dp11498
g17
VJJ
p11499
sbatp11500
Rp11501
(dp11502
g17
VADJP
p11503
sbag5
(g6
g7
(lp11504
Vwords
p11505
atp11506
Rp11507
(dp11508
g17
VNNS
p11509
sbatp11510
Rp11511
(dp11512
g17
VNP
p11513
sbag5
(g6
g7
(lp11514
Vas
p11515
atp11516
Rp11517
(dp11518
g17
VIN
p11519
sbag5
(g6
g7
(lp11520
g5
(g6
g7
(lp11521
Vthe
p11522
atp11523
Rp11524
(dp11525
g17
VDT
p11526
sbag5
(g6
g7
(lp11527
Vgold
p11528
atp11529
Rp11530
(dp11531
g17
VJJ
p11532
sbag5
(g6
g7
(lp11533
Vstandard
p11534
atp11535
Rp11536
(dp11537
g17
VJJ
p11538
sbag5
(g6
g7
(lp11539
Vlabel
p11540
atp11541
Rp11542
(dp11543
g17
VNN
p11544
sbatp11545
Rp11546
(dp11547
g17
VNP
p11548
sbatp11549
Rp11550
(dp11551
g17
VPP
p11552
sbag5
(g6
g7
(lp11553
g5
(g6
g7
(lp11554
Vfor
p11555
atp11556
Rp11557
(dp11558
g17
VIN
p11559
sbag5
(g6
g7
(lp11560
g5
(g6
g7
(lp11561
Vtopic
p11562
atp11563
Rp11564
(dp11565
g17
VNN
p11566
sbatp11567
Rp11568
(dp11569
g17
VNP
p11570
sbatp11571
Rp11572
(dp11573
g17
VPP
p11574
sbatp11575
Rp11576
(dp11577
g17
VNAC
p11578
sbag5
(g6
g7
(lp11579
g1817
atp11580
Rp11581
(dp11582
g17
VNN
p11583
sbag5
(g6
g7
(lp11584
g1811
atp11585
Rp11586
(dp11587
g17
VNN
p11588
sbatp11589
Rp11590
(dp11591
g17
VNP
p11592
sbag5
(g6
g7
(lp11593
g5
(g6
g7
(lp11594
Vin
p11595
atp11596
Rp11597
(dp11598
g17
VIN
p11599
sbag5
(g6
g7
(lp11600
g5
(g6
g7
(lp11601
Vthe
p11602
atp11603
Rp11604
(dp11605
g17
VDT
p11606
sbag5
(g6
g7
(lp11607
VTW
p11608
atp11609
Rp11610
(dp11611
g17
VNNP
p11612
sbag5
(g6
g7
(lp11613
Vset
p11614
atp11615
Rp11616
(dp11617
g17
VNN
p11618
sbatp11619
Rp11620
(dp11621
g17
VNP
p11622
sbatp11623
Rp11624
(dp11625
g17
VPP
p11626
sbatp11627
Rp11628
(dp11629
g17
VVP
p11630
sbatp11631
Rp11632
(dp11633
g17
VVP
p11634
sbag5
(g6
g7
(lp11635
g5
(g6
g7
(lp11636
V\u005c
p11637
atp11638
Rp11639
(dp11640
g17
VNNP
p11641
sbag5
(g6
g7
(lp11642
VENDFOR
p11643
atp11644
Rp11645
(dp11646
g17
VNNP
p11647
sbatp11648
Rp11649
(dp11650
g17
VNP
p11651
sbatp11652
Rp11653
(dp11654
g17
VSINV
p11655
sbatp11656
Rp11657
(dp11658
g17
VROOT
p11659
sbag5
(g6
g7
(lp11660
g5
(g6
g7
(lp11661
g5
(g6
g7
(lp11662
g5
(g6
g7
(lp11663
VThese
p11664
atp11665
Rp11666
(dp11667
g17
VDT
p11668
sbag5
(g6
g7
(lp11669
Vsteps
p11670
atp11671
Rp11672
(dp11673
g17
VNNS
p11674
sbatp11675
Rp11676
(dp11677
g17
VNP
p11678
sbag5
(g6
g7
(lp11679
g5
(g6
g7
(lp11680
Vcan
p11681
atp11682
Rp11683
(dp11684
g17
VMD
p11685
sbag5
(g6
g7
(lp11686
g5
(g6
g7
(lp11687
Vbe
p11688
atp11689
Rp11690
(dp11691
g17
VVB
p11692
sbag5
(g6
g7
(lp11693
g5
(g6
g7
(lp11694
Voutlined
p11695
atp11696
Rp11697
(dp11698
g17
VVBN
p11699
sbag5
(g6
g7
(lp11700
g5
(g6
g7
(lp11701
Vas
p11702
atp11703
Rp11704
(dp11705
g17
VIN
p11706
sbag5
(g6
g7
(lp11707
g5
(g6
g7
(lp11708
g5
(g6
g7
(lp11709
Vfollows
p11710
atp11711
Rp11712
(dp11713
g17
VVBZ
p11714
sbatp11715
Rp11716
(dp11717
g17
VVP
p11718
sbatp11719
Rp11720
(dp11721
g17
g257
sbatp11722
Rp11723
(dp11724
g17
VSBAR
p11725
sbatp11726
Rp11727
(dp11728
g17
VVP
p11729
sbatp11730
Rp11731
(dp11732
g17
VVP
p11733
sbatp11734
Rp11735
(dp11736
g17
VVP
p11737
sbatp11738
Rp11739
(dp11740
g17
g257
sbatp11741
Rp11742
(dp11743
g17
VROOT
p11744
sbasg273
(icmyPackage
CorE
p11745
(dp11746
g276
(lp11747
(I0
I36
tp11748
a(I1
I5
tp11749
asg280
g5
(g6
g7
(lp11750
g11546
ag11572
ag11581
ag11586
ag11624
ag11649
ag11676
ag11683
ag11690
ag11697
ag11704
atp11751
Rp11752
(dp11753
g17
g291
sbsbsg281
(icmyPackage
CorE
p11754
(dp11755
g276
(lp11756
(I0
I10
tp11757
a(I0
I34
tp11758
asg280
g5
(g6
g7
(lp11759
g11298
ag11308
ag11324
ag11329
ag11334
ag11397
ag11410
ag11420
ag11425
ag11450
ag11457
ag11464
ag11470
ag11482
ag11511
atp11760
Rp11761
(dp11762
g17
g291
sbsbsg292
g1474
sg316
(lp11763
(isxpPackage
sxpSent
p11764
(dp11765
g320
(lp11766
I36
asg322
V\u005cSTATE Extract the headlines of news articles from u'\u005cud835' u'\u005cudc9e' N u'\u005cu2062' W j and select the top x most frequent words as the gold standard label for topic t i in the TW set \u005cENDFOR
p11767
sg324
I13
sg308
I103
sg325
I25
sba(isxpPackage
sxpSent
p11768
(dp11769
g320
(lp11770
I36
asg322
VThese steps can be outlined as follows
p11771
sg324
I13
sg308
I104
sg325
I26
sbasba(icmyPackage
CELink
p11772
(dp11773
g3
(lp11774
g5
(g6
g7
(lp11775
g5
(g6
g7
(lp11776
g5
(g6
g7
(lp11777
g5
(g6
g7
(lp11778
VThe
p11779
atp11780
Rp11781
(dp11782
g17
VDT
p11783
sbag5
(g6
g7
(lp11784
Vgenerated
p11785
atp11786
Rp11787
(dp11788
g17
VJJ
p11789
sbag5
(g6
g7
(lp11790
Vlabel
p11791
atp11792
Rp11793
(dp11794
g17
VNN
p11795
sbatp11796
Rp11797
(dp11798
g17
VNP
p11799
sbag5
(g6
g7
(lp11800
g5
(g6
g7
(lp11801
Vwas
p11802
atp11803
Rp11804
(dp11805
g17
VVBD
p11806
sbag5
(g6
g7
(lp11807
g5
(g6
g7
(lp11808
Vused
p11809
atp11810
Rp11811
(dp11812
g17
VVBN
p11813
sbag5
(g6
g7
(lp11814
g5
(g6
g7
(lp11815
Vas
p11816
atp11817
Rp11818
(dp11819
g17
VIN
p11820
sbag5
(g6
g7
(lp11821
g5
(g6
g7
(lp11822
g5
(g6
g7
(lp11823
Vthe
p11824
atp11825
Rp11826
(dp11827
g17
VDT
p11828
sbag5
(g6
g7
(lp11829
Vgold
p11830
atp11831
Rp11832
(dp11833
g17
VJJ
p11834
sbag5
(g6
g7
(lp11835
Vstandard
p11836
atp11837
Rp11838
(dp11839
g17
VJJ
p11840
sbag5
(g6
g7
(lp11841
Vlabel
p11842
atp11843
Rp11844
(dp11845
g17
VNN
p11846
sbatp11847
Rp11848
(dp11849
g17
VNP
p11850
sbag5
(g6
g7
(lp11851
g5
(g6
g7
(lp11852
Vfor
p11853
atp11854
Rp11855
(dp11856
g17
VIN
p11857
sbag5
(g6
g7
(lp11858
g5
(g6
g7
(lp11859
g5
(g6
g7
(lp11860
Vthe
p11861
atp11862
Rp11863
(dp11864
g17
VDT
p11865
sbag5
(g6
g7
(lp11866
Vcorresponding
p11867
atp11868
Rp11869
(dp11870
g17
VJJ
p11871
sbag5
(g6
g7
(lp11872
VTwitter
p11873
atp11874
Rp11875
(dp11876
g17
VNNP
p11877
sbag5
(g6
g7
(lp11878
Vtopic
p11879
atp11880
Rp11881
(dp11882
g17
VNN
p11883
sbag5
(g6
g7
(lp11884
g1817
atp11885
Rp11886
(dp11887
g17
VNN
p11888
sbag5
(g6
g7
(lp11889
g1811
atp11890
Rp11891
(dp11892
g17
VNN
p11893
sbatp11894
Rp11895
(dp11896
g17
VNP
p11897
sbag5
(g6
g7
(lp11898
g5
(g6
g7
(lp11899
Vin
p11900
atp11901
Rp11902
(dp11903
g17
VIN
p11904
sbag5
(g6
g7
(lp11905
g5
(g6
g7
(lp11906
Vthe
p11907
atp11908
Rp11909
(dp11910
g17
VDT
p11911
sbag5
(g6
g7
(lp11912
Vtopic
p11913
atp11914
Rp11915
(dp11916
g17
VNN
p11917
sbag5
(g6
g7
(lp11918
Vpair
p11919
atp11920
Rp11921
(dp11922
g17
VNN
p11923
sbatp11924
Rp11925
(dp11926
g17
VNP
p11927
sbatp11928
Rp11929
(dp11930
g17
VPP
p11931
sbatp11932
Rp11933
(dp11934
g17
VNP
p11935
sbatp11936
Rp11937
(dp11938
g17
VPP
p11939
sbatp11940
Rp11941
(dp11942
g17
VNP
p11943
sbatp11944
Rp11945
(dp11946
g17
VPP
p11947
sbatp11948
Rp11949
(dp11950
g17
VVP
p11951
sbatp11952
Rp11953
(dp11954
g17
VVP
p11955
sbatp11956
Rp11957
(dp11958
g17
g257
sbatp11959
Rp11960
(dp11961
g17
VROOT
p11962
sbag5
(g6
g7
(lp11963
g5
(g6
g7
(lp11964
g5
(g6
g7
(lp11965
g5
(g6
g7
(lp11966
VWe
p11967
atp11968
Rp11969
(dp11970
g17
VPRP
p11971
sbatp11972
Rp11973
(dp11974
g17
VNP
p11975
sbag5
(g6
g7
(lp11976
g5
(g6
g7
(lp11977
Vcompared
p11978
atp11979
Rp11980
(dp11981
g17
VVBD
p11982
sbag5
(g6
g7
(lp11983
g5
(g6
g7
(lp11984
g5
(g6
g7
(lp11985
Vthe
p11986
atp11987
Rp11988
(dp11989
g17
VDT
p11990
sbag5
(g6
g7
(lp11991
Vresults
p11992
atp11993
Rp11994
(dp11995
g17
VNNS
p11996
sbatp11997
Rp11998
(dp11999
g17
VNP
p12000
sbag5
(g6
g7
(lp12001
g5
(g6
g7
(lp12002
Vof
p12003
atp12004
Rp12005
(dp12006
g17
VIN
p12007
sbag5
(g6
g7
(lp12008
g5
(g6
g7
(lp12009
Vthe
p12010
atp12011
Rp12012
(dp12013
g17
VDT
p12014
sbag5
(g6
g7
(lp12015
Vsummarisation
p12016
atp12017
Rp12018
(dp12019
g17
VNN
p12020
sbag5
(g6
g7
(lp12021
Vtechniques
p12022
atp12023
Rp12024
(dp12025
g17
VNNS
p12026
sbatp12027
Rp12028
(dp12029
g17
VNP
p12030
sbatp12031
Rp12032
(dp12033
g17
VPP
p12034
sbatp12035
Rp12036
(dp12037
g17
VNP
p12038
sbag5
(g6
g7
(lp12039
g5
(g6
g7
(lp12040
Vwith
p12041
atp12042
Rp12043
(dp12044
g17
VIN
p12045
sbag5
(g6
g7
(lp12046
g5
(g6
g7
(lp12047
g5
(g6
g7
(lp12048
g5
(g6
g7
(lp12049
Vthe
p12050
atp12051
Rp12052
(dp12053
g17
VDT
p12054
sbag5
(g6
g7
(lp12055
Vtop
p12056
atp12057
Rp12058
(dp12059
g17
VJJ
p12060
sbag5
(g6
g7
(lp12061
Vterms
p12062
atp12063
Rp12064
(dp12065
g17
VNNS
p12066
sbatp12067
Rp12068
(dp12069
g17
VNP
p12070
sbag5
(g6
g7
(lp12071
g5
(g6
g7
(lp12072
V-LRB-
p12073
atp12074
Rp12075
(dp12076
g17
V-LRB-
p12077
sbag5
(g6
g7
(lp12078
g5
(g6
g7
(lp12079
VTT
p12080
atp12081
Rp12082
(dp12083
g17
VNNP
p12084
sbatp12085
Rp12086
(dp12087
g17
VNP
p12088
sbag5
(g6
g7
(lp12089
V-RRB-
p12090
atp12091
Rp12092
(dp12093
g17
V-RRB-
p12094
sbatp12095
Rp12096
(dp12097
g17
VPRN
p12098
sbatp12099
Rp12100
(dp12101
g17
VNP
p12102
sbag5
(g6
g7
(lp12103
g5
(g6
g7
(lp12104
Vof
p12105
atp12106
Rp12107
(dp12108
g17
VIN
p12109
sbag5
(g6
g7
(lp12110
g5
(g6
g7
(lp12111
g5
(g6
g7
(lp12112
g901
atp12113
Rp12114
(dp12115
g17
VDT
p12116
sbag5
(g6
g7
(lp12117
Vtopic
p12118
atp12119
Rp12120
(dp12121
g17
VNN
p12122
sbatp12123
Rp12124
(dp12125
g17
VNP
p12126
sbag5
(g6
g7
(lp12127
g5
(g6
g7
(lp12128
Vas
p12129
atp12130
Rp12131
(dp12132
g17
VIN
p12133
sbag5
(g6
g7
(lp12134
g5
(g6
g7
(lp12135
Vour
p12136
atp12137
Rp12138
(dp12139
g17
VPRP$
p12140
sbag5
(g6
g7
(lp12141
Vbaseline
p12142
atp12143
Rp12144
(dp12145
g17
VNN
p12146
sbatp12147
Rp12148
(dp12149
g17
VNP
p12150
sbatp12151
Rp12152
(dp12153
g17
VPP
p12154
sbatp12155
Rp12156
(dp12157
g17
VNP
p12158
sbatp12159
Rp12160
(dp12161
g17
VPP
p12162
sbatp12163
Rp12164
(dp12165
g17
VNP
p12166
sbatp12167
Rp12168
(dp12169
g17
VPP
p12170
sbatp12171
Rp12172
(dp12173
g17
VVP
p12174
sbatp12175
Rp12176
(dp12177
g17
g257
sbatp12178
Rp12179
(dp12180
g17
VROOT
p12181
sbasg273
(icmyPackage
CorE
p12182
(dp12183
g276
(lp12184
(I0
I6
tp12185
a(I1
I19
tp12186
asg280
g5
(g6
g7
(lp12187
g11941
ag11973
ag11980
ag12036
ag12043
ag12100
ag12107
ag12124
ag12131
ag12138
atp12188
Rp12189
(dp12190
g17
g291
sbsbsg281
(icmyPackage
CorE
p12191
(dp12192
g276
(lp12193
(I0
I0
tp12194
a(I0
I4
tp12195
asg280
g5
(g6
g7
(lp12196
g11797
ag11804
ag11811
atp12197
Rp12198
(dp12199
g17
g291
sbsbsg292
g1474
sg316
(lp12200
(isxpPackage
sxpSent
p12201
(dp12202
g320
(lp12203
I37
asg322
VThe generated label was used as the gold standard label for the corresponding Twitter topic t i in the topic pair
p12204
sg324
I13
sg308
I106
sg325
I26
sba(isxpPackage
sxpSent
p12205
(dp12206
g320
(lp12207
I37
aI38
asg322
VWe compared the results of the summarisation techniques with the top terms ( TT ) of a topic as our baseline
p12208
sg324
I14
sg308
I107
sg325
I27
sbasba(icmyPackage
CELink
p12209
(dp12210
g3
(lp12211
g12179
ag5
(g6
g7
(lp12212
g5
(g6
g7
(lp12213
g5
(g6
g7
(lp12214
g5
(g6
g7
(lp12215
VThese
p12216
atp12217
Rp12218
(dp12219
g17
VDT
p12220
sbag5
(g6
g7
(lp12221
VTT
p12222
atp12223
Rp12224
(dp12225
g17
VNNP
p12226
sbag5
(g6
g7
(lp12227
Vset
p12228
atp12229
Rp12230
(dp12231
g17
VNN
p12232
sbatp12233
Rp12234
(dp12235
g17
VNP
p12236
sbag5
(g6
g7
(lp12237
g5
(g6
g7
(lp12238
Vcorresponds
p12239
atp12240
Rp12241
(dp12242
g17
VVBZ
p12243
sbag5
(g6
g7
(lp12244
g5
(g6
g7
(lp12245
Vto
p12246
atp12247
Rp12248
(dp12249
g17
VTO
p12250
sbag5
(g6
g7
(lp12251
g5
(g6
g7
(lp12252
g5
(g6
g7
(lp12253
Vthe
p12254
atp12255
Rp12256
(dp12257
g17
VDT
p12258
sbag5
(g6
g7
(lp12259
Vtop
p12260
atp12261
Rp12262
(dp12263
g17
VJJ
p12264
sbag5
(g6
g7
(lp12265
g11476
atp12266
Rp12267
(dp12268
g17
VCD
p12269
sbag5
(g6
g7
(lp12270
Vterms
p12271
atp12272
Rp12273
(dp12274
g17
VNNS
p12275
sbatp12276
Rp12277
(dp12278
g17
VNP
p12279
sbag5
(g6
g7
(lp12280
g5
(g6
g7
(lp12281
Vranked
p12282
atp12283
Rp12284
(dp12285
g17
VVBN
p12286
sbag5
(g6
g7
(lp12287
g5
(g6
g7
(lp12288
Vbased
p12289
atp12290
Rp12291
(dp12292
g17
VVBN
p12293
sbag5
(g6
g7
(lp12294
g5
(g6
g7
(lp12295
Von
p12296
atp12297
Rp12298
(dp12299
g17
VIN
p12300
sbag5
(g6
g7
(lp12301
g5
(g6
g7
(lp12302
g5
(g6
g7
(lp12303
Vthe
p12304
atp12305
Rp12306
(dp12307
g17
VDT
p12308
sbag5
(g6
g7
(lp12309
Vprobability
p12310
atp12311
Rp12312
(dp12313
g17
VNN
p12314
sbatp12315
Rp12316
(dp12317
g17
VNP
p12318
sbag5
(g6
g7
(lp12319
g5
(g6
g7
(lp12320
Vof
p12321
atp12322
Rp12323
(dp12324
g17
VIN
p12325
sbag5
(g6
g7
(lp12326
g5
(g6
g7
(lp12327
g5
(g6
g7
(lp12328
Vthe
p12329
atp12330
Rp12331
(dp12332
g17
VDT
p12333
sbag5
(g6
g7
(lp12334
Vword
p12335
atp12336
Rp12337
(dp12338
g17
VNN
p12339
sbatp12340
Rp12341
(dp12342
g17
VNP
p12343
sbag5
(g6
g7
(lp12344
g5
(g6
g7
(lp12345
Vgiven
p12346
atp12347
Rp12348
(dp12349
g17
VVBN
p12350
sbag5
(g6
g7
(lp12351
g5
(g6
g7
(lp12352
g5
(g6
g7
(lp12353
g5
(g6
g7
(lp12354
Vthe
p12355
atp12356
Rp12357
(dp12358
g17
VDT
p12359
sbag5
(g6
g7
(lp12360
Vtopic
p12361
atp12362
Rp12363
(dp12364
g17
VNN
p12365
sbatp12366
Rp12367
(dp12368
g17
VNP
p12369
sbag5
(g6
g7
(lp12370
V-LRB-
p12371
atp12372
Rp12373
(dp12374
g17
V-LRB-
p12375
sbag5
(g6
g7
(lp12376
g5
(g6
g7
(lp12377
g5851
atp12378
Rp12379
(dp12380
g17
VNN
p12381
sbatp12382
Rp12383
(dp12384
g17
VNP
p12385
sbag5
(g6
g7
(lp12386
g5
(g6
g7
(lp12387
V-LRB-
p12388
atp12389
Rp12390
(dp12391
g17
V-LRB-
p12392
sbag5
(g6
g7
(lp12393
g5
(g6
g7
(lp12394
g1805
atp12395
Rp12396
(dp12397
g17
VNN
p12398
sbag5
(g6
g7
(lp12399
g6291
atp12400
Rp12401
(dp12402
g17
VNN
p12403
sbatp12404
Rp12405
(dp12406
g17
VNP
p12407
sbag5
(g6
g7
(lp12408
V-RRB-
p12409
atp12410
Rp12411
(dp12412
g17
V-RRB-
p12413
sbatp12414
Rp12415
(dp12416
g17
VPRN
p12417
sbag5
(g6
g7
(lp12418
V-RRB-
p12419
atp12420
Rp12421
(dp12422
g17
V-RRB-
p12423
sbatp12424
Rp12425
(dp12426
g17
VNP
p12427
sbag5
(g6
g7
(lp12428
g5
(g6
g7
(lp12429
Vfrom
p12430
atp12431
Rp12432
(dp12433
g17
VIN
p12434
sbag5
(g6
g7
(lp12435
g5
(g6
g7
(lp12436
Vthe
p12437
atp12438
Rp12439
(dp12440
g17
VDT
p12441
sbag5
(g6
g7
(lp12442
Vtopic
p12443
atp12444
Rp12445
(dp12446
g17
VNN
p12447
sbag5
(g6
g7
(lp12448
Vmodel
p12449
atp12450
Rp12451
(dp12452
g17
VNN
p12453
sbatp12454
Rp12455
(dp12456
g17
VNP
p12457
sbatp12458
Rp12459
(dp12460
g17
VPP
p12461
sbatp12462
Rp12463
(dp12464
g17
VNP
p12465
sbatp12466
Rp12467
(dp12468
g17
VVP
p12469
sbatp12470
Rp12471
(dp12472
g17
VNP
p12473
sbatp12474
Rp12475
(dp12476
g17
VPP
p12477
sbatp12478
Rp12479
(dp12480
g17
VNP
p12481
sbatp12482
Rp12483
(dp12484
g17
VPP
p12485
sbatp12486
Rp12487
(dp12488
g17
VPP
p12489
sbatp12490
Rp12491
(dp12492
g17
VVP
p12493
sbatp12494
Rp12495
(dp12496
g17
VNP
p12497
sbatp12498
Rp12499
(dp12500
g17
VPP
p12501
sbatp12502
Rp12503
(dp12504
g17
VVP
p12505
sbatp12506
Rp12507
(dp12508
g17
g257
sbatp12509
Rp12510
(dp12511
g17
VROOT
p12512
sbasg273
(icmyPackage
CorE
p12513
(dp12514
g276
(lp12515
(I0
I19
tp12516
a(I1
I29
tp12517
asg280
g5
(g6
g7
(lp12518
g12148
ag12234
ag12241
ag12248
ag12277
ag12284
ag12291
ag12298
ag12316
ag12323
ag12341
ag12348
ag12425
ag12432
ag12439
ag12445
atp12519
Rp12520
(dp12521
g17
g291
sbsbsg281
(icmyPackage
CorE
p12522
(dp12523
g276
(lp12524
(I0
I0
tp12525
a(I0
I17
tp12526
asg280
g5
(g6
g7
(lp12527
g11973
ag11980
ag12036
ag12043
ag12100
ag12107
ag12124
atp12528
Rp12529
(dp12530
g17
g291
sbsbsg292
g1474
sg316
(lp12531
g12205
a(isxpPackage
sxpSent
p12532
(dp12533
g320
(lp12534
I38
aI39
asg322
VThese TT set corresponds to the top x terms ranked based on the probability of the word given the topic ( p ( w k ) ) from the topic model
p12535
sg324
I14
sg308
I108
sg325
I27
sbasba(icmyPackage
CELink
p12536
(dp12537
g3
(lp12538
g12510
asg273
(icmyPackage
CorE
p12539
(dp12540
g276
(lp12541
(I0
I12
tp12542
a(I0
I30
tp12543
asg280
g12479
sbsg281
(icmyPackage
CorE
p12544
(dp12545
g276
(lp12546
(I0
I0
tp12547
a(I0
I9
tp12548
asg280
g5
(g6
g7
(lp12549
g12234
ag12241
ag12248
ag12277
ag12284
atp12550
Rp12551
(dp12552
g17
g291
sbsbsg292
g3254
sg316
(lp12553
g12532
asba(icmyPackage
CELink
p12554
(dp12555
g3
(lp12556
g5
(g6
g7
(lp12557
g5
(g6
g7
(lp12558
g5
(g6
g7
(lp12559
g5
(g6
g7
(lp12560
VFigure
p12561
atp12562
Rp12563
(dp12564
g17
VJJ
p12565
sbag5
(g6
g7
(lp12566
g5
(g6
g7
(lp12567
g791
atp12568
Rp12569
(dp12570
g17
VCD
p12571
sbatp12572
Rp12573
(dp12574
g17
VNP
p12575
sbatp12576
Rp12577
(dp12578
g17
VADJP
p12579
sbag5
(g6
g7
(lp12580
g5
(g6
g7
(lp12581
Vpresents
p12582
atp12583
Rp12584
(dp12585
g17
VVBZ
p12586
sbag5
(g6
g7
(lp12587
g5
(g6
g7
(lp12588
g5
(g6
g7
(lp12589
Vthe
p12590
atp12591
Rp12592
(dp12593
g17
VDT
p12594
sbag5
(g6
g7
(lp12595
VROUGE-1
p12596
atp12597
Rp12598
(dp12599
g17
VNN
p12600
sbag5
(g6
g7
(lp12601
Vperformance
p12602
atp12603
Rp12604
(dp12605
g17
VNN
p12606
sbatp12607
Rp12608
(dp12609
g17
VNP
p12610
sbag5
(g6
g7
(lp12611
g5
(g6
g7
(lp12612
Vof
p12613
atp12614
Rp12615
(dp12616
g17
VIN
p12617
sbag5
(g6
g7
(lp12618
g5
(g6
g7
(lp12619
Vthe
p12620
atp12621
Rp12622
(dp12623
g17
VDT
p12624
sbag5
(g6
g7
(lp12625
Vsummarisation
p12626
atp12627
Rp12628
(dp12629
g17
VNN
p12630
sbag5
(g6
g7
(lp12631
Vapproaches
p12632
atp12633
Rp12634
(dp12635
g17
VNNS
p12636
sbatp12637
Rp12638
(dp12639
g17
VNP
p12640
sbatp12641
Rp12642
(dp12643
g17
VPP
p12644
sbatp12645
Rp12646
(dp12647
g17
VNP
p12648
sbag5
(g6
g7
(lp12649
g5
(g6
g7
(lp12650
Vas
p12651
atp12652
Rp12653
(dp12654
g17
VIN
p12655
sbag5
(g6
g7
(lp12656
g5
(g6
g7
(lp12657
Vthe
p12658
atp12659
Rp12660
(dp12661
g17
VDT
p12662
sbag5
(g6
g7
(lp12663
Vlength
p12664
atp12665
Rp12666
(dp12667
g17
VNN
p12668
sbatp12669
Rp12670
(dp12671
g17
VNP
p12672
sbatp12673
Rp12674
(dp12675
g17
VPP
p12676
sbatp12677
Rp12678
(dp12679
g17
VVP
p12680
sbag5
(g6
g7
(lp12681
g5
(g6
g7
(lp12682
g5
(g6
g7
(lp12683
g11476
atp12684
Rp12685
(dp12686
g17
VSYM
p12687
sbatp12688
Rp12689
(dp12690
g17
VNP
p12691
sbag5
(g6
g7
(lp12692
g5
(g6
g7
(lp12693
Vof
p12694
atp12695
Rp12696
(dp12697
g17
VIN
p12698
sbag5
(g6
g7
(lp12699
g5
(g6
g7
(lp12700
Vthe
p12701
atp12702
Rp12703
(dp12704
g17
VDT
p12705
sbag5
(g6
g7
(lp12706
Vgenerated
p12707
atp12708
Rp12709
(dp12710
g17
VJJ
p12711
sbag5
(g6
g7
(lp12712
Vtopic
p12713
atp12714
Rp12715
(dp12716
g17
VNN
p12717
sbag5
(g6
g7
(lp12718
Vlabel
p12719
atp12720
Rp12721
(dp12722
g17
VNN
p12723
sbag5
(g6
g7
(lp12724
Vincreases
p12725
atp12726
Rp12727
(dp12728
g17
VNNS
p12729
sbatp12730
Rp12731
(dp12732
g17
VNP
p12733
sbatp12734
Rp12735
(dp12736
g17
VPP
p12737
sbatp12738
Rp12739
(dp12740
g17
VNP
p12741
sbatp12742
Rp12743
(dp12744
g17
VSINV
p12745
sbatp12746
Rp12747
(dp12748
g17
VROOT
p12749
sbag5
(g6
g7
(lp12750
g5
(g6
g7
(lp12751
g5
(g6
g7
(lp12752
g5
(g6
g7
(lp12753
VWe
p12754
atp12755
Rp12756
(dp12757
g17
VPRP
p12758
sbatp12759
Rp12760
(dp12761
g17
VNP
p12762
sbag5
(g6
g7
(lp12763
g5
(g6
g7
(lp12764
Vcan
p12765
atp12766
Rp12767
(dp12768
g17
VMD
p12769
sbag5
(g6
g7
(lp12770
g5
(g6
g7
(lp12771
Vsee
p12772
atp12773
Rp12774
(dp12775
g17
VVB
p12776
sbag5
(g6
g7
(lp12777
g5
(g6
g7
(lp12778
Vin
p12779
atp12780
Rp12781
(dp12782
g17
VIN
p12783
sbag5
(g6
g7
(lp12784
g5
(g6
g7
(lp12785
Vall
p12786
atp12787
Rp12788
(dp12789
g17
VDT
p12790
sbag5
(g6
g7
(lp12791
Vfour
p12792
atp12793
Rp12794
(dp12795
g17
VCD
p12796
sbag5
(g6
g7
(lp12797
Vcategories
p12798
atp12799
Rp12800
(dp12801
g17
VNNS
p12802
sbatp12803
Rp12804
(dp12805
g17
VNP
p12806
sbatp12807
Rp12808
(dp12809
g17
VPP
p12810
sbag5
(g6
g7
(lp12811
g5
(g6
g7
(lp12812
Vthat
p12813
atp12814
Rp12815
(dp12816
g17
VIN
p12817
sbag5
(g6
g7
(lp12818
g5
(g6
g7
(lp12819
g5
(g6
g7
(lp12820
Vthe
p12821
atp12822
Rp12823
(dp12824
g17
VDT
p12825
sbag5
(g6
g7
(lp12826
VSB
p12827
atp12828
Rp12829
(dp12830
g17
VNNP
p12831
sbag5
(g6
g7
(lp12832
Vand
p12833
atp12834
Rp12835
(dp12836
g17
VCC
p12837
sbag5
(g6
g7
(lp12838
VTFIDF
p12839
atp12840
Rp12841
(dp12842
g17
VNNP
p12843
sbag5
(g6
g7
(lp12844
Vapproaches
p12845
atp12846
Rp12847
(dp12848
g17
VNNS
p12849
sbatp12850
Rp12851
(dp12852
g17
VNP
p12853
sbag5
(g6
g7
(lp12854
g5
(g6
g7
(lp12855
Vprovide
p12856
atp12857
Rp12858
(dp12859
g17
VVBP
p12860
sbag5
(g6
g7
(lp12861
g5
(g6
g7
(lp12862
g901
atp12863
Rp12864
(dp12865
g17
VDT
p12866
sbag5
(g6
g7
(lp12867
Vbetter
p12868
atp12869
Rp12870
(dp12871
g17
VJJR
p12872
sbag5
(g6
g7
(lp12873
Vsummarisation
p12874
atp12875
Rp12876
(dp12877
g17
VNN
p12878
sbag5
(g6
g7
(lp12879
Vcoverage
p12880
atp12881
Rp12882
(dp12883
g17
VNN
p12884
sbatp12885
Rp12886
(dp12887
g17
VNP
p12888
sbag5
(g6
g7
(lp12889
g5
(g6
g7
(lp12890
Vas
p12891
atp12892
Rp12893
(dp12894
g17
VIN
p12895
sbag5
(g6
g7
(lp12896
g5
(g6
g7
(lp12897
g5
(g6
g7
(lp12898
Vthe
p12899
atp12900
Rp12901
(dp12902
g17
VDT
p12903
sbag5
(g6
g7
(lp12904
Vlength
p12905
atp12906
Rp12907
(dp12908
g17
VNN
p12909
sbatp12910
Rp12911
(dp12912
g17
VNP
p12913
sbag5
(g6
g7
(lp12914
g5
(g6
g7
(lp12915
Vof
p12916
atp12917
Rp12918
(dp12919
g17
VIN
p12920
sbag5
(g6
g7
(lp12921
g5
(g6
g7
(lp12922
Vthe
p12923
atp12924
Rp12925
(dp12926
g17
VDT
p12927
sbag5
(g6
g7
(lp12928
Vtopic
p12929
atp12930
Rp12931
(dp12932
g17
VNN
p12933
sbag5
(g6
g7
(lp12934
Vlabel
p12935
atp12936
Rp12937
(dp12938
g17
VNN
p12939
sbag5
(g6
g7
(lp12940
Vincreases
p12941
atp12942
Rp12943
(dp12944
g17
VNNS
p12945
sbatp12946
Rp12947
(dp12948
g17
VNP
p12949
sbatp12950
Rp12951
(dp12952
g17
VPP
p12953
sbatp12954
Rp12955
(dp12956
g17
VNP
p12957
sbatp12958
Rp12959
(dp12960
g17
VPP
p12961
sbatp12962
Rp12963
(dp12964
g17
VVP
p12965
sbatp12966
Rp12967
(dp12968
g17
g257
sbatp12969
Rp12970
(dp12971
g17
VSBAR
p12972
sbatp12973
Rp12974
(dp12975
g17
VVP
p12976
sbatp12977
Rp12978
(dp12979
g17
VVP
p12980
sbatp12981
Rp12982
(dp12983
g17
g257
sbatp12984
Rp12985
(dp12986
g17
VROOT
p12987
sbasg273
(icmyPackage
CorE
p12988
(dp12989
g276
(lp12990
(I0
I11
tp12991
a(I1
I24
tp12992
asg280
g5
(g6
g7
(lp12993
g12670
ag12739
ag12760
ag12767
ag12774
ag12808
ag12815
ag12851
ag12858
ag12886
ag12893
ag12911
ag12918
ag12925
ag12931
ag12937
atp12994
Rp12995
(dp12996
g17
g291
sbsbsg281
(icmyPackage
CorE
p12997
(dp12998
g276
(lp12999
(I0
I0
tp13000
a(I0
I9
tp13001
asg280
g5
(g6
g7
(lp13002
g12577
ag12584
ag12646
atp13003
Rp13004
(dp13005
g17
g291
sbsbsg292
g1474
sg316
(lp13006
(isxpPackage
sxpSent
p13007
(dp13008
g320
(lp13009
I40
asg322
VFigure 1 presents the ROUGE-1 performance of the summarisation approaches as the length x of the generated topic label increases
p13010
sg324
I14
sg308
I113
sg325
I28
sba(isxpPackage
sxpSent
p13011
(dp13012
g320
(lp13013
I40
aI41
asg322
VWe can see in all four categories that the SB and TFIDF approaches provide a better summarisation coverage as the length of the topic label increases
p13014
sg324
I14
sg308
I114
sg325
I28
sbasba(icmyPackage
CELink
p13015
(dp13016
g3
(lp13017
g12985
ag5
(g6
g7
(lp13018
g5
(g6
g7
(lp13019
g5
(g6
g7
(lp13020
g5
(g6
g7
(lp13021
VIn
p13022
atp13023
Rp13024
(dp13025
g17
VIN
p13026
sbag5
(g6
g7
(lp13027
g5
(g6
g7
(lp13028
Vparticular
p13029
atp13030
Rp13031
(dp13032
g17
VJJ
p13033
sbatp13034
Rp13035
(dp13036
g17
VADJP
p13037
sbatp13038
Rp13039
(dp13040
g17
VPP
p13041
sbag5
(g6
g7
(lp13042
g797
atp13043
Rp13044
(dp13045
g17
g797
sbag5
(g6
g7
(lp13046
g5
(g6
g7
(lp13047
Vin
p13048
atp13049
Rp13050
(dp13051
g17
VIN
p13052
sbag5
(g6
g7
(lp13053
g5
(g6
g7
(lp13054
Vboth
p13055
atp13056
Rp13057
(dp13058
g17
VPDT
p13059
sbag5
(g6
g7
(lp13060
Vthe
p13061
atp13062
Rp13063
(dp13064
g17
VDT
p13065
sbag5
(g6
g7
(lp13066
VEducation
p13067
atp13068
Rp13069
(dp13070
g17
VNNP
p13071
sbag5
(g6
g7
(lp13072
Vand
p13073
atp13074
Rp13075
(dp13076
g17
VCC
p13077
sbag5
(g6
g7
(lp13078
VLaw
p13079
atp13080
Rp13081
(dp13082
g17
VNNP
p13083
sbag5
(g6
g7
(lp13084
VCrime
p13085
atp13086
Rp13087
(dp13088
g17
VNNP
p13089
sbag5
(g6
g7
(lp13090
Vcategories
p13091
atp13092
Rp13093
(dp13094
g17
VNNS
p13095
sbatp13096
Rp13097
(dp13098
g17
VNP
p13099
sbatp13100
Rp13101
(dp13102
g17
VPP
p13103
sbag5
(g6
g7
(lp13104
g797
atp13105
Rp13106
(dp13107
g17
g797
sbag5
(g6
g7
(lp13108
g5
(g6
g7
(lp13109
Vboth
p13110
atp13111
Rp13112
(dp13113
g17
VDT
p13114
sbag5
(g6
g7
(lp13115
VSB
p13116
atp13117
Rp13118
(dp13119
g17
VNNP
p13120
sbag5
(g6
g7
(lp13121
Vand
p13122
atp13123
Rp13124
(dp13125
g17
VCC
p13126
sbag5
(g6
g7
(lp13127
VTFIDF
p13128
atp13129
Rp13130
(dp13131
g17
VNNP
p13132
sbatp13133
Rp13134
(dp13135
g17
VNP
p13136
sbag5
(g6
g7
(lp13137
g5
(g6
g7
(lp13138
Voutperforms
p13139
atp13140
Rp13141
(dp13142
g17
VVBZ
p13143
sbag5
(g6
g7
(lp13144
g5
(g6
g7
(lp13145
VTT
p13146
atp13147
Rp13148
(dp13149
g17
VNNP
p13150
sbag5
(g6
g7
(lp13151
Vand
p13152
atp13153
Rp13154
(dp13155
g17
VCC
p13156
sbag5
(g6
g7
(lp13157
VTR
p13158
atp13159
Rp13160
(dp13161
g17
VNNP
p13162
sbatp13163
Rp13164
(dp13165
g17
VNP
p13166
sbag5
(g6
g7
(lp13167
g5
(g6
g7
(lp13168
Vby
p13169
atp13170
Rp13171
(dp13172
g17
VIN
p13173
sbag5
(g6
g7
(lp13174
g5
(g6
g7
(lp13175
g901
atp13176
Rp13177
(dp13178
g17
VDT
p13179
sbag5
(g6
g7
(lp13180
Vlarge
p13181
atp13182
Rp13183
(dp13184
g17
VJJ
p13185
sbag5
(g6
g7
(lp13186
Vmargin
p13187
atp13188
Rp13189
(dp13190
g17
VNN
p13191
sbatp13192
Rp13193
(dp13194
g17
VNP
p13195
sbatp13196
Rp13197
(dp13198
g17
VPP
p13199
sbatp13200
Rp13201
(dp13202
g17
VVP
p13203
sbatp13204
Rp13205
(dp13206
g17
g257
sbatp13207
Rp13208
(dp13209
g17
VROOT
p13210
sbasg273
(icmyPackage
CorE
p13211
(dp13212
g276
(lp13213
(I0
I19
tp13214
a(I1
I22
tp13215
asg280
g5
(g6
g7
(lp13216
g12955
ag13039
ag13044
ag13101
ag13106
ag13134
ag13141
ag13164
ag13171
ag13177
ag13183
atp13217
Rp13218
(dp13219
g17
g291
sbsbsg281
(icmyPackage
CorE
p13220
(dp13221
g276
(lp13222
(I0
I0
tp13223
a(I0
I17
tp13224
asg280
g5
(g6
g7
(lp13225
g12760
ag12767
ag12774
ag12808
ag12815
ag12851
ag12858
ag12886
atp13226
Rp13227
(dp13228
g17
g291
sbsbsg292
g1474
sg316
(lp13229
g13011
a(isxpPackage
sxpSent
p13230
(dp13231
g320
(lp13232
I41
asg322
VIn particular, in both the Education and Law Crime categories, both SB and TFIDF outperforms TT and TR by a large margin
p13233
sg324
I14
sg308
I115
sg325
I28
sbasba(icmyPackage
CELink
p13234
(dp13235
g3
(lp13236
g5
(g6
g7
(lp13237
g5
(g6
g7
(lp13238
g5
(g6
g7
(lp13239
g5
(g6
g7
(lp13240
VWe
p13241
atp13242
Rp13243
(dp13244
g17
VPRP
p13245
sbatp13246
Rp13247
(dp13248
g17
VNP
p13249
sbag5
(g6
g7
(lp13250
g5
(g6
g7
(lp13251
Vcan
p13252
atp13253
Rp13254
(dp13255
g17
VMD
p13256
sbag5
(g6
g7
(lp13257
g5
(g6
g7
(lp13258
Valso
p13259
atp13260
Rp13261
(dp13262
g17
VRB
p13263
sbatp13264
Rp13265
(dp13266
g17
VADVP
p13267
sbag5
(g6
g7
(lp13268
g5
(g6
g7
(lp13269
Vnotice
p13270
atp13271
Rp13272
(dp13273
g17
VVB
p13274
sbag5
(g6
g7
(lp13275
g5
(g6
g7
(lp13276
Vthat
p13277
atp13278
Rp13279
(dp13280
g17
VIN
p13281
sbag5
(g6
g7
(lp13282
g5
(g6
g7
(lp13283
g5
(g6
g7
(lp13284
g5
(g6
g7
(lp13285
Vthe
p13286
atp13287
Rp13288
(dp13289
g17
VDT
p13290
sbag5
(g6
g7
(lp13291
VGS
p13292
atp13293
Rp13294
(dp13295
g17
VNNP
p13296
sbag5
(g6
g7
(lp13297
Vlabels
p13298
atp13299
Rp13300
(dp13301
g17
VNNS
p13302
sbatp13303
Rp13304
(dp13305
g17
VNP
p13306
sbag5
(g6
g7
(lp13307
g5
(g6
g7
(lp13308
Vgenerated
p13309
atp13310
Rp13311
(dp13312
g17
VVBN
p13313
sbag5
(g6
g7
(lp13314
g5
(g6
g7
(lp13315
Vfrom
p13316
atp13317
Rp13318
(dp13319
g17
VIN
p13320
sbag5
(g6
g7
(lp13321
g5
(g6
g7
(lp13322
g5
(g6
g7
(lp13323
VNewswire
p13324
atp13325
Rp13326
(dp13327
g17
VNNP
p13328
sbag5
(g6
g7
(lp13329
Vmedia
p13330
atp13331
Rp13332
(dp13333
g17
VNNS
p13334
sbatp13335
Rp13336
(dp13337
g17
VNP
p13338
sbag5
(g6
g7
(lp13339
g5
(g6
g7
(lp13340
Vpresented
p13341
atp13342
Rp13343
(dp13344
g17
VVBN
p13345
sbag5
(g6
g7
(lp13346
g5
(g6
g7
(lp13347
Vin
p13348
atp13349
Rp13350
(dp13351
g17
VIN
p13352
sbag5
(g6
g7
(lp13353
g5
(g6
g7
(lp13354
VTable
p13355
atp13356
Rp13357
(dp13358
g17
VNNP
p13359
sbag5
(g6
g7
(lp13360
g1375
atp13361
Rp13362
(dp13363
g17
VCD
p13364
sbatp13365
Rp13366
(dp13367
g17
VNP
p13368
sbatp13369
Rp13370
(dp13371
g17
VPP
p13372
sbatp13373
Rp13374
(dp13375
g17
VVP
p13376
sbatp13377
Rp13378
(dp13379
g17
VNP
p13380
sbatp13381
Rp13382
(dp13383
g17
VPP
p13384
sbatp13385
Rp13386
(dp13387
g17
VVP
p13388
sbatp13389
Rp13390
(dp13391
g17
VNP
p13392
sbag5
(g6
g7
(lp13393
g5
(g6
g7
(lp13394
Vappear
p13395
atp13396
Rp13397
(dp13398
g17
VVBP
p13399
sbag5
(g6
g7
(lp13400
g5
(g6
g7
(lp13401
Von
p13402
atp13403
Rp13404
(dp13405
g17
VIN
p13406
sbag5
(g6
g7
(lp13407
g5
(g6
g7
(lp13408
Vtheir
p13409
atp13410
Rp13411
(dp13412
g17
VPRP$
p13413
sbag5
(g6
g7
(lp13414
Vown
p13415
atp13416
Rp13417
(dp13418
g17
VJJ
p13419
sbatp13420
Rp13421
(dp13422
g17
VNP
p13423
sbatp13424
Rp13425
(dp13426
g17
VPP
p13427
sbag5
(g6
g7
(lp13428
g797
atp13429
Rp13430
(dp13431
g17
g797
sbag5
(g6
g7
(lp13432
g5
(g6
g7
(lp13433
g5
(g6
g7
(lp13434
Vto
p13435
atp13436
Rp13437
(dp13438
g17
VTO
p13439
sbag5
(g6
g7
(lp13440
g5
(g6
g7
(lp13441
Vbe
p13442
atp13443
Rp13444
(dp13445
g17
VVB
p13446
sbag5
(g6
g7
(lp13447
g5
(g6
g7
(lp13448
g5
(g6
g7
(lp13449
Vgood
p13450
atp13451
Rp13452
(dp13453
g17
VJJ
p13454
sbag5
(g6
g7
(lp13455
Vlabels
p13456
atp13457
Rp13458
(dp13459
g17
VNNS
p13460
sbatp13461
Rp13462
(dp13463
g17
VNP
p13464
sbag5
(g6
g7
(lp13465
g5
(g6
g7
(lp13466
Vfor
p13467
atp13468
Rp13469
(dp13470
g17
VIN
p13471
sbag5
(g6
g7
(lp13472
g5
(g6
g7
(lp13473
Vthe
p13474
atp13475
Rp13476
(dp13477
g17
VDT
p13478
sbag5
(g6
g7
(lp13479
VTW
p13480
atp13481
Rp13482
(dp13483
g17
VNNP
p13484
sbag5
(g6
g7
(lp13485
Vtopics
p13486
atp13487
Rp13488
(dp13489
g17
VNNS
p13490
sbatp13491
Rp13492
(dp13493
g17
VNP
p13494
sbatp13495
Rp13496
(dp13497
g17
VPP
p13498
sbatp13499
Rp13500
(dp13501
g17
VNP
p13502
sbatp13503
Rp13504
(dp13505
g17
VVP
p13506
sbatp13507
Rp13508
(dp13509
g17
VVP
p13510
sbatp13511
Rp13512
(dp13513
g17
g257
sbatp13514
Rp13515
(dp13516
g17
VVP
p13517
sbatp13518
Rp13519
(dp13520
g17
g257
sbatp13521
Rp13522
(dp13523
g17
VSBAR
p13524
sbatp13525
Rp13526
(dp13527
g17
VVP
p13528
sbatp13529
Rp13530
(dp13531
g17
VVP
p13532
sbatp13533
Rp13534
(dp13535
g17
g257
sbatp13536
Rp13537
(dp13538
g17
VROOT
p13539
sbag5
(g6
g7
(lp13540
g5
(g6
g7
(lp13541
g5
(g6
g7
(lp13542
g5
(g6
g7
(lp13543
VHowever
p13544
atp13545
Rp13546
(dp13547
g17
VRB
p13548
sbatp13549
Rp13550
(dp13551
g17
VADVP
p13552
sbag5
(g6
g7
(lp13553
g5
(g6
g7
(lp13554
Vas
p13555
atp13556
Rp13557
(dp13558
g17
VIN
p13559
sbag5
(g6
g7
(lp13560
g5
(g6
g7
(lp13561
g5
(g6
g7
(lp13562
Vwe
p13563
atp13564
Rp13565
(dp13566
g17
VPRP
p13567
sbatp13568
Rp13569
(dp13570
g17
VNP
p13571
sbag5
(g6
g7
(lp13572
g5
(g6
g7
(lp13573
Vdescribed
p13574
atp13575
Rp13576
(dp13577
g17
VVBD
p13578
sbag5
(g6
g7
(lp13579
g5
(g6
g7
(lp13580
g5
(g6
g7
(lp13581
g5
(g6
g7
(lp13582
Vin
p13583
atp13584
Rp13585
(dp13586
g17
VIN
p13587
sbag5
(g6
g7
(lp13588
g5
(g6
g7
(lp13589
Vthe
p13590
atp13591
Rp13592
(dp13593
g17
VDT
p13594
sbag5
(g6
g7
(lp13595
Vintroduction
p13596
atp13597
Rp13598
(dp13599
g17
VNN
p13600
sbatp13601
Rp13602
(dp13603
g17
VNP
p13604
sbatp13605
Rp13606
(dp13607
g17
VPP
p13608
sbag5
(g6
g7
(lp13609
g5
(g6
g7
(lp13610
Vwe
p13611
atp13612
Rp13613
(dp13614
g17
VPRP
p13615
sbatp13616
Rp13617
(dp13618
g17
VNP
p13619
sbag5
(g6
g7
(lp13620
g5
(g6
g7
(lp13621
Vwant
p13622
atp13623
Rp13624
(dp13625
g17
VVBP
p13626
sbag5
(g6
g7
(lp13627
g5
(g6
g7
(lp13628
g5
(g6
g7
(lp13629
Vto
p13630
atp13631
Rp13632
(dp13633
g17
VTO
p13634
sbag5
(g6
g7
(lp13635
g5
(g6
g7
(lp13636
Vavoid
p13637
atp13638
Rp13639
(dp13640
g17
VVB
p13641
sbag5
(g6
g7
(lp13642
g5
(g6
g7
(lp13643
g5
(g6
g7
(lp13644
Vrelaying
p13645
atp13646
Rp13647
(dp13648
g17
VVBG
p13649
sbag5
(g6
g7
(lp13650
g5
(g6
g7
(lp13651
Von
p13652
atp13653
Rp13654
(dp13655
g17
VIN
p13656
sbag5
(g6
g7
(lp13657
g5
(g6
g7
(lp13658
g5
(g6
g7
(lp13659
Vexternal
p13660
atp13661
Rp13662
(dp13663
g17
VJJ
p13664
sbag5
(g6
g7
(lp13665
Vsources
p13666
atp13667
Rp13668
(dp13669
g17
VNNS
p13670
sbatp13671
Rp13672
(dp13673
g17
VNP
p13674
sbag5
(g6
g7
(lp13675
g5
(g6
g7
(lp13676
Vfor
p13677
atp13678
Rp13679
(dp13680
g17
VIN
p13681
sbag5
(g6
g7
(lp13682
g5
(g6
g7
(lp13683
g5
(g6
g7
(lp13684
Vthe
p13685
atp13686
Rp13687
(dp13688
g17
VDT
p13689
sbag5
(g6
g7
(lp13690
Vderivation
p13691
atp13692
Rp13693
(dp13694
g17
VNN
p13695
sbatp13696
Rp13697
(dp13698
g17
VNP
p13699
sbag5
(g6
g7
(lp13700
g5
(g6
g7
(lp13701
Vof
p13702
atp13703
Rp13704
(dp13705
g17
VIN
p13706
sbag5
(g6
g7
(lp13707
g5
(g6
g7
(lp13708
Vtopic
p13709
atp13710
Rp13711
(dp13712
g17
VNN
p13713
sbag5
(g6
g7
(lp13714
Vlabels
p13715
atp13716
Rp13717
(dp13718
g17
VNNS
p13719
sbatp13720
Rp13721
(dp13722
g17
VNP
p13723
sbatp13724
Rp13725
(dp13726
g17
VPP
p13727
sbatp13728
Rp13729
(dp13730
g17
VNP
p13731
sbatp13732
Rp13733
(dp13734
g17
VPP
p13735
sbatp13736
Rp13737
(dp13738
g17
VNP
p13739
sbatp13740
Rp13741
(dp13742
g17
VPP
p13743
sbatp13744
Rp13745
(dp13746
g17
VVP
p13747
sbatp13748
Rp13749
(dp13750
g17
g257
sbatp13751
Rp13752
(dp13753
g17
VVP
p13754
sbatp13755
Rp13756
(dp13757
g17
VVP
p13758
sbatp13759
Rp13760
(dp13761
g17
g257
sbatp13762
Rp13763
(dp13764
g17
VVP
p13765
sbatp13766
Rp13767
(dp13768
g17
g257
sbatp13769
Rp13770
(dp13771
g17
VSBAR
p13772
sbatp13773
Rp13774
(dp13775
g17
VVP
p13776
sbatp13777
Rp13778
(dp13779
g17
g257
sbatp13780
Rp13781
(dp13782
g17
VSBAR
p13783
sbatp13784
Rp13785
(dp13786
g17
VFRAG
p13787
sbatp13788
Rp13789
(dp13790
g17
VROOT
p13791
sbasg273
(icmyPackage
CorE
p13792
(dp13793
g276
(lp13794
(I1
I2
tp13795
a(I1
I20
tp13796
asg280
g13778
sbsg281
(icmyPackage
CorE
p13797
(dp13798
g276
(lp13799
(I0
I6
tp13800
a(I1
I0
tp13801
asg280
g5
(g6
g7
(lp13802
g13294
ag13300
ag13386
ag13515
ag13550
atp13803
Rp13804
(dp13805
g17
g291
sbsbsg292
g1474
sg316
(lp13806
(isxpPackage
sxpSent
p13807
(dp13808
g320
(lp13809
I42
asg322
VWe can also notice that the GS labels generated from Newswire media presented in Table 2 appear on their own, to be good labels for the TW topics
p13810
sg324
I14
sg308
I126
sg325
I33
sba(isxpPackage
sxpSent
p13811
(dp13812
g320
(lp13813
I42
asg322
VHowever as we described in the introduction we want to avoid relaying on external sources for the derivation of topic labels
p13814
sg324
I14
sg308
I127
sg325
I33
sbasba(icmyPackage
CELink
p13815
(dp13816
g3
(lp13817
g5
(g6
g7
(lp13818
g5
(g6
g7
(lp13819
g5
(g6
g7
(lp13820
g5
(g6
g7
(lp13821
VThis
p13822
atp13823
Rp13824
(dp13825
g17
VDT
p13826
sbatp13827
Rp13828
(dp13829
g17
VNP
p13830
sbag5
(g6
g7
(lp13831
g5
(g6
g7
(lp13832
Vis
p13833
atp13834
Rp13835
(dp13836
g17
VVBZ
p13837
sbag5
(g6
g7
(lp13838
g5
(g6
g7
(lp13839
g5
(g6
g7
(lp13840
Van
p13841
atp13842
Rp13843
(dp13844
g17
VDT
p13845
sbag5
(g6
g7
(lp13846
Vattractive
p13847
atp13848
Rp13849
(dp13850
g17
VJJ
p13851
sbag5
(g6
g7
(lp13852
Vproperty
p13853
atp13854
Rp13855
(dp13856
g17
VNN
p13857
sbatp13858
Rp13859
(dp13860
g17
VNP
p13861
sbag5
(g6
g7
(lp13862
g5
(g6
g7
(lp13863
Vfor
p13864
atp13865
Rp13866
(dp13867
g17
VIN
p13868
sbag5
(g6
g7
(lp13869
g5
(g6
g7
(lp13870
g5
(g6
g7
(lp13871
g5
(g6
g7
(lp13872
Vautomatically
p13873
atp13874
Rp13875
(dp13876
g17
VRB
p13877
sbatp13878
Rp13879
(dp13880
g17
VADVP
p13881
sbag5
(g6
g7
(lp13882
Vgenerating
p13883
atp13884
Rp13885
(dp13886
g17
VVBG
p13887
sbag5
(g6
g7
(lp13888
g5
(g6
g7
(lp13889
Vtopic
p13890
atp13891
Rp13892
(dp13893
g17
VNN
p13894
sbag5
(g6
g7
(lp13895
Vlabels
p13896
atp13897
Rp13898
(dp13899
g17
VNNS
p13900
sbatp13901
Rp13902
(dp13903
g17
VNP
p13904
sbag5
(g6
g7
(lp13905
g5
(g6
g7
(lp13906
Vfor
p13907
atp13908
Rp13909
(dp13910
g17
VIN
p13911
sbag5
(g6
g7
(lp13912
g5
(g6
g7
(lp13913
g5
(g6
g7
(lp13914
Vtweets
p13915
atp13916
Rp13917
(dp13918
g17
VNNS
p13919
sbatp13920
Rp13921
(dp13922
g17
VNP
p13923
sbag5
(g6
g7
(lp13924
g5
(g6
g7
(lp13925
g5
(g6
g7
(lp13926
Vwhere
p13927
atp13928
Rp13929
(dp13930
g17
VWRB
p13931
sbatp13932
Rp13933
(dp13934
g17
VWHADVP
p13935
sbag5
(g6
g7
(lp13936
g5
(g6
g7
(lp13937
g5
(g6
g7
(lp13938
Vtheir
p13939
atp13940
Rp13941
(dp13942
g17
VPRP$
p13943
sbag5
(g6
g7
(lp13944
Vevent-related
p13945
atp13946
Rp13947
(dp13948
g17
VJJ
p13949
sbag5
(g6
g7
(lp13950
Vcontent
p13951
atp13952
Rp13953
(dp13954
g17
VNN
p13955
sbatp13956
Rp13957
(dp13958
g17
VNP
p13959
sbag5
(g6
g7
(lp13960
g5
(g6
g7
(lp13961
Vmight
p13962
atp13963
Rp13964
(dp13965
g17
VMD
p13966
sbag5
(g6
g7
(lp13967
Vnot
p13968
atp13969
Rp13970
(dp13971
g17
VRB
p13972
sbag5
(g6
g7
(lp13973
g5
(g6
g7
(lp13974
Vhave
p13975
atp13976
Rp13977
(dp13978
g17
VVB
p13979
sbag5
(g6
g7
(lp13980
g5
(g6
g7
(lp13981
g5
(g6
g7
(lp13982
g901
atp13983
Rp13984
(dp13985
g17
VDT
p13986
sbag5
(g6
g7
(lp13987
Vcounter
p13988
atp13989
Rp13990
(dp13991
g17
VJJ
p13992
sbag5
(g6
g7
(lp13993
Vpart
p13994
atp13995
Rp13996
(dp13997
g17
VNN
p13998
sbatp13999
Rp14000
(dp14001
g17
VNP
p14002
sbag5
(g6
g7
(lp14003
g5
(g6
g7
(lp14004
Von
p14005
atp14006
Rp14007
(dp14008
g17
VIN
p14009
sbag5
(g6
g7
(lp14010
g5
(g6
g7
(lp14011
Vexisting
p14012
atp14013
Rp14014
(dp14015
g17
VVBG
p14016
sbag5
(g6
g7
(lp14017
Vexternal
p14018
atp14019
Rp14020
(dp14021
g17
VJJ
p14022
sbag5
(g6
g7
(lp14023
Vsources
p14024
atp14025
Rp14026
(dp14027
g17
VNNS
p14028
sbatp14029
Rp14030
(dp14031
g17
VNP
p14032
sbatp14033
Rp14034
(dp14035
g17
VPP
p14036
sbatp14037
Rp14038
(dp14039
g17
VNP
p14040
sbatp14041
Rp14042
(dp14043
g17
VVP
p14044
sbatp14045
Rp14046
(dp14047
g17
VVP
p14048
sbatp14049
Rp14050
(dp14051
g17
g257
sbatp14052
Rp14053
(dp14054
g17
VSBAR
p14055
sbatp14056
Rp14057
(dp14058
g17
VNP
p14059
sbatp14060
Rp14061
(dp14062
g17
VPP
p14063
sbatp14064
Rp14065
(dp14066
g17
VVP
p14067
sbatp14068
Rp14069
(dp14070
g17
g257
sbatp14071
Rp14072
(dp14073
g17
VPP
p14074
sbatp14075
Rp14076
(dp14077
g17
VNP
p14078
sbatp14079
Rp14080
(dp14081
g17
VVP
p14082
sbatp14083
Rp14084
(dp14085
g17
g257
sbatp14086
Rp14087
(dp14088
g17
VROOT
p14089
sbasg273
(icmyPackage
CorE
p14090
(dp14091
g276
(lp14092
(I0
I6
tp14093
a(I0
I25
tp14094
asg280
g14069
sbsg281
(icmyPackage
CorE
p14095
(dp14096
g276
(lp14097
(I0
I0
tp14098
a(I0
I4
tp14099
asg280
g5
(g6
g7
(lp14100
g13828
ag13835
ag13859
atp14101
Rp14102
(dp14103
g17
g291
sbsbsg292
g1075
sg316
(lp14104
(isxpPackage
sxpSent
p14105
(dp14106
g320
(lp14107
I43
asg322
VThis is an attractive property for automatically generating topic labels for tweets where their event-related content might not have a counter part on existing external sources
p14108
sg324
I14
sg308
I129
sg325
I34
sbasba(icmyPackage
CELink
p14109
(dp14110
g3
(lp14111
g5
(g6
g7
(lp14112
g5
(g6
g7
(lp14113
g5
(g6
g7
(lp14114
g5
(g6
g7
(lp14115
VThis
p14116
atp14117
Rp14118
(dp14119
g17
VDT
p14120
sbag5
(g6
g7
(lp14121
Vexperiment
p14122
atp14123
Rp14124
(dp14125
g17
VNN
p14126
sbatp14127
Rp14128
(dp14129
g17
VNP
p14130
sbag5
(g6
g7
(lp14131
g5
(g6
g7
(lp14132
Vshows
p14133
atp14134
Rp14135
(dp14136
g17
VVBZ
p14137
sbag5
(g6
g7
(lp14138
g5
(g6
g7
(lp14139
Vthat
p14140
atp14141
Rp14142
(dp14143
g17
VIN
p14144
sbag5
(g6
g7
(lp14145
g5
(g6
g7
(lp14146
g5
(g6
g7
(lp14147
Vexisting
p14148
atp14149
Rp14150
(dp14151
g17
VVBG
p14152
sbag5
(g6
g7
(lp14153
Vsummarisation
p14154
atp14155
Rp14156
(dp14157
g17
VNN
p14158
sbag5
(g6
g7
(lp14159
Vtechniques
p14160
atp14161
Rp14162
(dp14163
g17
VNNS
p14164
sbatp14165
Rp14166
(dp14167
g17
VNP
p14168
sbag5
(g6
g7
(lp14169
g5
(g6
g7
(lp14170
Vcan
p14171
atp14172
Rp14173
(dp14174
g17
VMD
p14175
sbag5
(g6
g7
(lp14176
g5
(g6
g7
(lp14177
Vbe
p14178
atp14179
Rp14180
(dp14181
g17
VVB
p14182
sbag5
(g6
g7
(lp14183
g5
(g6
g7
(lp14184
Vexploited
p14185
atp14186
Rp14187
(dp14188
g17
VVBN
p14189
sbag5
(g6
g7
(lp14190
g5
(g6
g7
(lp14191
g5
(g6
g7
(lp14192
Vto
p14193
atp14194
Rp14195
(dp14196
g17
VTO
p14197
sbag5
(g6
g7
(lp14198
g5
(g6
g7
(lp14199
Vprovide
p14200
atp14201
Rp14202
(dp14203
g17
VVB
p14204
sbag5
(g6
g7
(lp14205
g5
(g6
g7
(lp14206
g5
(g6
g7
(lp14207
g901
atp14208
Rp14209
(dp14210
g17
VDT
p14211
sbag5
(g6
g7
(lp14212
Vbetter
p14213
atp14214
Rp14215
(dp14216
g17
VJJR
p14217
sbag5
(g6
g7
(lp14218
Vlabel
p14219
atp14220
Rp14221
(dp14222
g17
VNN
p14223
sbatp14224
Rp14225
(dp14226
g17
VNP
p14227
sbag5
(g6
g7
(lp14228
g5
(g6
g7
(lp14229
Vof
p14230
atp14231
Rp14232
(dp14233
g17
VIN
p14234
sbag5
(g6
g7
(lp14235
g5
(g6
g7
(lp14236
g901
atp14237
Rp14238
(dp14239
g17
VDT
p14240
sbag5
(g6
g7
(lp14241
Vtopic
p14242
atp14243
Rp14244
(dp14245
g17
VNN
p14246
sbatp14247
Rp14248
(dp14249
g17
VNP
p14250
sbatp14251
Rp14252
(dp14253
g17
VPP
p14254
sbatp14255
Rp14256
(dp14257
g17
VNP
p14258
sbag5
(g6
g7
(lp14259
g797
atp14260
Rp14261
(dp14262
g17
g797
sbag5
(g6
g7
(lp14263
g5
(g6
g7
(lp14264
g5
(g6
g7
(lp14265
Vextending
p14266
atp14267
Rp14268
(dp14269
g17
VVBG
p14270
sbag5
(g6
g7
(lp14271
g5
(g6
g7
(lp14272
Vin
p14273
atp14274
Rp14275
(dp14276
g17
VIN
p14277
sbag5
(g6
g7
(lp14278
g5
(g6
g7
(lp14279
Vthis
p14280
atp14281
Rp14282
(dp14283
g17
VDT
p14284
sbag5
(g6
g7
(lp14285
Vway
p14286
atp14287
Rp14288
(dp14289
g17
VNN
p14290
sbatp14291
Rp14292
(dp14293
g17
VNP
p14294
sbatp14295
Rp14296
(dp14297
g17
VPP
p14298
sbag5
(g6
g7
(lp14299
g5
(g6
g7
(lp14300
g5
(g6
g7
(lp14301
g5
(g6
g7
(lp14302
g5
(g6
g7
(lp14303
g901
atp14304
Rp14305
(dp14306
g17
VDT
p14307
sbag5
(g6
g7
(lp14308
Vtopic
p14309
atp14310
Rp14311
(dp14312
g17
VNN
p14313
sbag5
(g6
g7
(lp14314
g3865
atp14315
Rp14316
(dp14317
g17
VNN
p14318
sbag5
(g6
g7
(lp14319
g3871
atp14320
Rp14321
(dp14322
g17
VPOS
p14323
sbatp14324
Rp14325
(dp14326
g17
VNP
p14327
sbag5
(g6
g7
(lp14328
V\u005c
p14329
atp14330
Rp14331
(dp14332
g17
VJJ
p14333
sbag5
(g6
g7
(lp14334
Vu2019
p14335
atp14336
Rp14337
(dp14338
g17
VNNS
p14339
sbag5
(g6
g7
(lp14340
g3871
atp14341
Rp14342
(dp14343
g17
VPOS
p14344
sbatp14345
Rp14346
(dp14347
g17
VNP
p14348
sbag5
(g6
g7
(lp14349
g5324
atp14350
Rp14351
(dp14352
g17
VJJ
p14353
sbag5
(g6
g7
(lp14354
Vinformation
p14355
atp14356
Rp14357
(dp14358
g17
VNN
p14359
sbatp14360
Rp14361
(dp14362
g17
VNP
p14363
sbag5
(g6
g7
(lp14364
g5
(g6
g7
(lp14365
Vby
p14366
atp14367
Rp14368
(dp14369
g17
VIN
p14370
sbag5
(g6
g7
(lp14371
g5
(g6
g7
(lp14372
g5
(g6
g7
(lp14373
Vproviding
p14374
atp14375
Rp14376
(dp14377
g17
VVBG
p14378
sbag5
(g6
g7
(lp14379
g5
(g6
g7
(lp14380
g901
atp14381
Rp14382
(dp14383
g17
VDT
p14384
sbag5
(g6
g7
(lp14385
Vricher
p14386
atp14387
Rp14388
(dp14389
g17
VJJR
p14390
sbag5
(g6
g7
(lp14391
Vcontext
p14392
atp14393
Rp14394
(dp14395
g17
VNN
p14396
sbatp14397
Rp14398
(dp14399
g17
VNP
p14400
sbag5
(g6
g7
(lp14401
g5
(g6
g7
(lp14402
Vthan
p14403
atp14404
Rp14405
(dp14406
g17
VIN
p14407
sbag5
(g6
g7
(lp14408
g5
(g6
g7
(lp14409
Vtop-terms
p14410
atp14411
Rp14412
(dp14413
g17
VNNS
p14414
sbatp14415
Rp14416
(dp14417
g17
VNP
p14418
sbatp14419
Rp14420
(dp14421
g17
VPP
p14422
sbatp14423
Rp14424
(dp14425
g17
VVP
p14426
sbatp14427
Rp14428
(dp14429
g17
g257
sbatp14430
Rp14431
(dp14432
g17
VPP
p14433
sbatp14434
Rp14435
(dp14436
g17
VNP
p14437
sbatp14438
Rp14439
(dp14440
g17
VVP
p14441
sbatp14442
Rp14443
(dp14444
g17
g257
sbatp14445
Rp14446
(dp14447
g17
VVP
p14448
sbatp14449
Rp14450
(dp14451
g17
VVP
p14452
sbatp14453
Rp14454
(dp14455
g17
g257
sbatp14456
Rp14457
(dp14458
g17
VVP
p14459
sbatp14460
Rp14461
(dp14462
g17
VVP
p14463
sbatp14464
Rp14465
(dp14466
g17
VVP
p14467
sbatp14468
Rp14469
(dp14470
g17
g257
sbatp14471
Rp14472
(dp14473
g17
VSBAR
p14474
sbatp14475
Rp14476
(dp14477
g17
VVP
p14478
sbatp14479
Rp14480
(dp14481
g17
g257
sbatp14482
Rp14483
(dp14484
g17
VROOT
p14485
sbasg273
(icmyPackage
CorE
p14486
(dp14487
g276
(lp14488
(I0
I33
tp14489
a(I0
I38
tp14490
asg280
g14428
sbsg281
(icmyPackage
CorE
p14491
(dp14492
g276
(lp14493
(I0
I0
tp14494
a(I0
I31
tp14495
asg280
g5
(g6
g7
(lp14496
g14128
ag14135
ag14142
ag14166
ag14173
ag14180
ag14187
ag14195
ag14202
ag14256
ag14261
ag14268
ag14296
ag14361
atp14497
Rp14498
(dp14499
g17
g291
sbsbsg292
g1702
sg316
(lp14500
(isxpPackage
sxpSent
p14501
(dp14502
g320
(lp14503
I44
asg322
VThis experiment shows that existing summarisation techniques can be exploited to provide a better label of a topic, extending in this way a topic u'\u005cu2019' s information by providing a richer context than top-terms
p14504
sg324
I15
sg308
I132
sg325
I35
sbasba.