(lp0
(icmyPackage
CELink
p1
(dp2
S'PTreelst'
p3
(lp4
ccopy_reg
_reconstructor
p5
(cnltk.tree
Tree
p6
c__builtin__
list
p7
(lp8
g5
(g6
g7
(lp9
g5
(g6
g7
(lp10
g5
(g6
g7
(lp11
VWith
p12
atp13
Rp14
(dp15
S'_label'
p16
VIN
p17
sbag5
(g6
g7
(lp18
g5
(g6
g7
(lp19
g5
(g6
g7
(lp20
Vthe
p21
atp22
Rp23
(dp24
g16
VDT
p25
sbag5
(g6
g7
(lp26
Vproliferation
p27
atp28
Rp29
(dp30
g16
VNN
p31
sbatp32
Rp33
(dp34
g16
VNP
p35
sbag5
(g6
g7
(lp36
g5
(g6
g7
(lp37
Vof
p38
atp39
Rp40
(dp41
g16
VIN
p42
sbag5
(g6
g7
(lp43
g5
(g6
g7
(lp44
Vsocial
p45
atp46
Rp47
(dp48
g16
VJJ
p49
sbag5
(g6
g7
(lp50
Vmedia
p51
atp52
Rp53
(dp54
g16
VNNS
p55
sbag5
(g6
g7
(lp56
Vsites
p57
atp58
Rp59
(dp60
g16
VNNS
p61
sbatp62
Rp63
(dp64
g16
VNP
p65
sbatp66
Rp67
(dp68
g16
VPP
p69
sbatp70
Rp71
(dp72
g16
VNP
p73
sbatp74
Rp75
(dp76
g16
VPP
p77
sbag5
(g6
g7
(lp78
V,
p79
atp80
Rp81
(dp82
g16
g79
sbag5
(g6
g7
(lp83
g5
(g6
g7
(lp84
Vsocial
p85
atp86
Rp87
(dp88
g16
VJJ
p89
sbag5
(g6
g7
(lp90
Vstreams
p91
atp92
Rp93
(dp94
g16
VNNS
p95
sbatp96
Rp97
(dp98
g16
VNP
p99
sbag5
(g6
g7
(lp100
g5
(g6
g7
(lp101
Vhave
p102
atp103
Rp104
(dp105
g16
VVBP
p106
sbag5
(g6
g7
(lp107
g5
(g6
g7
(lp108
Vproven
p109
atp110
Rp111
(dp112
g16
VVBN
p113
sbag5
(g6
g7
(lp114
g5
(g6
g7
(lp115
g5
(g6
g7
(lp116
Vto
p117
atp118
Rp119
(dp120
g16
VTO
p121
sbag5
(g6
g7
(lp122
g5
(g6
g7
(lp123
Vcontain
p124
atp125
Rp126
(dp127
g16
VVB
p128
sbag5
(g6
g7
(lp129
g5
(g6
g7
(lp130
g5
(g6
g7
(lp131
Vthe
p132
atp133
Rp134
(dp135
g16
VDT
p136
sbag5
(g6
g7
(lp137
g5
(g6
g7
(lp138
Vmost
p139
atp140
Rp141
(dp142
g16
VRBS
p143
sbag5
(g6
g7
(lp144
Vup-to-date
p145
atp146
Rp147
(dp148
g16
VJJ
p149
sbatp150
Rp151
(dp152
g16
VADJP
p153
sbag5
(g6
g7
(lp154
Vinformation
p155
atp156
Rp157
(dp158
g16
VNN
p159
sbatp160
Rp161
(dp162
g16
VNP
p163
sbag5
(g6
g7
(lp164
g5
(g6
g7
(lp165
Von
p166
atp167
Rp168
(dp169
g16
VIN
p170
sbag5
(g6
g7
(lp171
g5
(g6
g7
(lp172
Vcurrent
p173
atp174
Rp175
(dp176
g16
VJJ
p177
sbag5
(g6
g7
(lp178
Vevents
p179
atp180
Rp181
(dp182
g16
VNNS
p183
sbatp184
Rp185
(dp186
g16
VNP
p187
sbatp188
Rp189
(dp190
g16
VPP
p191
sbatp192
Rp193
(dp194
g16
VNP
p195
sbatp196
Rp197
(dp198
g16
VVP
p199
sbatp200
Rp201
(dp202
g16
VVP
p203
sbatp204
Rp205
(dp206
g16
VS
p207
sbatp208
Rp209
(dp210
g16
VVP
p211
sbatp212
Rp213
(dp214
g16
VVP
p215
sbatp216
Rp217
(dp218
g16
g207
sbatp219
Rp220
(dp221
g16
VROOT
p222
sbag5
(g6
g7
(lp223
g5
(g6
g7
(lp224
g5
(g6
g7
(lp225
g5
(g6
g7
(lp226
VTherefore
p227
atp228
Rp229
(dp230
g16
VRB
p231
sbatp232
Rp233
(dp234
g16
VADVP
p235
sbag5
(g6
g7
(lp236
g79
atp237
Rp238
(dp239
g16
g79
sbag5
(g6
g7
(lp240
g5
(g6
g7
(lp241
Vit
p242
atp243
Rp244
(dp245
g16
VPRP
p246
sbatp247
Rp248
(dp249
g16
VNP
p250
sbag5
(g6
g7
(lp251
g5
(g6
g7
(lp252
Vis
p253
atp254
Rp255
(dp256
g16
VVBZ
p257
sbag5
(g6
g7
(lp258
g5
(g6
g7
(lp259
Vcrucial
p260
atp261
Rp262
(dp263
g16
VJJ
p264
sbag5
(g6
g7
(lp265
g5
(g6
g7
(lp266
g5
(g6
g7
(lp267
Vto
p268
atp269
Rp270
(dp271
g16
VTO
p272
sbag5
(g6
g7
(lp273
g5
(g6
g7
(lp274
Vextract
p275
atp276
Rp277
(dp278
g16
VVB
p279
sbag5
(g6
g7
(lp280
g5
(g6
g7
(lp281
Vevents
p282
atp283
Rp284
(dp285
g16
VNNS
p286
sbatp287
Rp288
(dp289
g16
VNP
p290
sbag5
(g6
g7
(lp291
g5
(g6
g7
(lp292
Vfrom
p293
atp294
Rp295
(dp296
g16
VIN
p297
sbag5
(g6
g7
(lp298
g5
(g6
g7
(lp299
g5
(g6
g7
(lp300
Vthe
p301
atp302
Rp303
(dp304
g16
VDT
p305
sbag5
(g6
g7
(lp306
Vsocial
p307
atp308
Rp309
(dp310
g16
VJJ
p311
sbag5
(g6
g7
(lp312
Vstreams
p313
atp314
Rp315
(dp316
g16
VNN
p317
sbatp318
Rp319
(dp320
g16
VNP
p321
sbag5
(g6
g7
(lp322
g5
(g6
g7
(lp323
Vsuch
p324
atp325
Rp326
(dp327
g16
VJJ
p328
sbag5
(g6
g7
(lp329
Vas
p330
atp331
Rp332
(dp333
g16
VIN
p334
sbag5
(g6
g7
(lp335
g5
(g6
g7
(lp336
Vtweets
p337
atp338
Rp339
(dp340
g16
VNNS
p341
sbatp342
Rp343
(dp344
g16
VNP
p345
sbatp346
Rp347
(dp348
g16
VPP
p349
sbatp350
Rp351
(dp352
g16
VNP
p353
sbatp354
Rp355
(dp356
g16
VPP
p357
sbatp358
Rp359
(dp360
g16
VVP
p361
sbatp362
Rp363
(dp364
g16
VVP
p365
sbatp366
Rp367
(dp368
g16
g207
sbatp369
Rp370
(dp371
g16
VADJP
p372
sbatp373
Rp374
(dp375
g16
VVP
p376
sbatp377
Rp378
(dp379
g16
g207
sbatp380
Rp381
(dp382
g16
VROOT
p383
sbasS'cause'
p384
(icmyPackage
CorE
p385
(dp386
S'span'
p387
(lp388
(I0
I0
tp389
a(I0
I20
tp390
asS'PTree'
p391
g220
sbsS'effect'
p392
(icmyPackage
CorE
p393
(dp394
g387
(lp395
(I1
I2
tp396
a(I1
I14
tp397
asg391
g5
(g6
g7
(lp398
g248
ag374
atp399
Rp400
(dp401
g16
S'ROOT'
p402
sbsbsS'pt'
p403
(icmyPackage
pattern
p404
(dp405
S'pfreq'
p406
I62
sS'moresent'
p407
I1
sS'main_token'
p408
(lp409
(lp410
S'therefore'
p411
aasS'ptype'
p412
(lp413
I1
aI1
aI1
asS'cases'
p414
(lp415
S'He never lies; therefore, everyone likes to make friends with him.'
p416
asS'id'
p417
I1
sS'constraints'
p418
(lp419
(lp420
S'&C'
p421
aS'(,/;/./--)'
p422
aS'(&AND)'
p423
aa(lp424
S'(,)'
p425
aS'&R'
p426
aasbsS'sInfo'
p427
(lp428
(isxpPackage
sxpSent
p429
(dp430
S'sysCEidlst'
p431
(lp432
I0
asS'sentence_text'
p433
VWith the proliferation of social media sites, social streams have proven to contain the most up-to-date information on current events
p434
sS'id_sec'
p435
I1
sg417
I0
sS'id_para'
p436
I0
sba(isxpPackage
sxpSent
p437
(dp438
g431
(lp439
I0
asg433
VTherefore, it is crucial to extract events from the social streams such as tweets
p440
sg435
I1
sg417
I1
sg436
I0
sbasba(icmyPackage
CELink
p441
(dp442
g3
(lp443
g5
(g6
g7
(lp444
g5
(g6
g7
(lp445
g5
(g6
g7
(lp446
g5
(g6
g7
(lp447
VHowever
p448
atp449
Rp450
(dp451
g16
VRB
p452
sbatp453
Rp454
(dp455
g16
VADVP
p456
sbag5
(g6
g7
(lp457
g79
atp458
Rp459
(dp460
g16
g79
sbag5
(g6
g7
(lp461
g5
(g6
g7
(lp462
Vit
p463
atp464
Rp465
(dp466
g16
VPRP
p467
sbatp468
Rp469
(dp470
g16
VNP
p471
sbag5
(g6
g7
(lp472
g5
(g6
g7
(lp473
Vis
p474
atp475
Rp476
(dp477
g16
VVBZ
p478
sbag5
(g6
g7
(lp479
Vnot
p480
atp481
Rp482
(dp483
g16
VRB
p484
sbag5
(g6
g7
(lp485
g5
(g6
g7
(lp486
Vstraightforward
p487
atp488
Rp489
(dp490
g16
VJJ
p491
sbag5
(g6
g7
(lp492
g5
(g6
g7
(lp493
g5
(g6
g7
(lp494
Vto
p495
atp496
Rp497
(dp498
g16
VTO
p499
sbag5
(g6
g7
(lp500
g5
(g6
g7
(lp501
Vadapt
p502
atp503
Rp504
(dp505
g16
VVB
p506
sbag5
(g6
g7
(lp507
g5
(g6
g7
(lp508
g5
(g6
g7
(lp509
Vthe
p510
atp511
Rp512
(dp513
g16
VDT
p514
sbag5
(g6
g7
(lp515
Vexisting
p516
atp517
Rp518
(dp519
g16
VVBG
p520
sbag5
(g6
g7
(lp521
Vevent
p522
atp523
Rp524
(dp525
g16
VNN
p526
sbatp527
Rp528
(dp529
g16
VNP
p530
sbag5
(g6
g7
(lp531
g5
(g6
g7
(lp532
g5
(g6
g7
(lp533
g5
(g6
g7
(lp534
g5
(g6
g7
(lp535
Vextraction
p536
atp537
Rp538
(dp539
g16
VNN
p540
sbag5
(g6
g7
(lp541
Vsystems
p542
atp543
Rp544
(dp545
g16
VNNS
p546
sbatp547
Rp548
(dp549
g16
VNP
p550
sbag5
(g6
g7
(lp551
g5
(g6
g7
(lp552
Vsince
p553
atp554
Rp555
(dp556
g16
VIN
p557
sbag5
(g6
g7
(lp558
g5
(g6
g7
(lp559
g5
(g6
g7
(lp560
Vtexts
p561
atp562
Rp563
(dp564
g16
VNNS
p565
sbatp566
Rp567
(dp568
g16
VNP
p569
sbag5
(g6
g7
(lp570
g5
(g6
g7
(lp571
Vin
p572
atp573
Rp574
(dp575
g16
VIN
p576
sbag5
(g6
g7
(lp577
g5
(g6
g7
(lp578
Vsocial
p579
atp580
Rp581
(dp582
g16
VJJ
p583
sbag5
(g6
g7
(lp584
Vmedia
p585
atp586
Rp587
(dp588
g16
VNNS
p589
sbatp590
Rp591
(dp592
g16
VNP
p593
sbatp594
Rp595
(dp596
g16
VPP
p597
sbatp598
Rp599
(dp600
g16
VNP
p601
sbatp602
Rp603
(dp604
g16
VPP
p605
sbatp606
Rp607
(dp608
g16
VNP
p609
sbag5
(g6
g7
(lp610
g5
(g6
g7
(lp611
Vare
p612
atp613
Rp614
(dp615
g16
VVBP
p616
sbag5
(g6
g7
(lp617
g5
(g6
g7
(lp618
Vfragmented
p619
atp620
Rp621
(dp622
g16
VJJ
p623
sbag5
(g6
g7
(lp624
Vand
p625
atp626
Rp627
(dp628
g16
VCC
p629
sbag5
(g6
g7
(lp630
Vnoisy
p631
atp632
Rp633
(dp634
g16
VJJ
p635
sbatp636
Rp637
(dp638
g16
VADJP
p639
sbatp640
Rp641
(dp642
g16
VVP
p643
sbatp644
Rp645
(dp646
g16
g207
sbatp647
Rp648
(dp649
g16
VSBAR
p650
sbatp651
Rp652
(dp653
g16
VNP
p654
sbatp655
Rp656
(dp657
g16
VVP
p658
sbatp659
Rp660
(dp661
g16
VVP
p662
sbatp663
Rp664
(dp665
g16
g207
sbatp666
Rp667
(dp668
g16
VADJP
p669
sbatp670
Rp671
(dp672
g16
VVP
p673
sbatp674
Rp675
(dp676
g16
g207
sbatp677
Rp678
(dp679
g16
VROOT
p680
sbasg384
(icmyPackage
CorE
p681
(dp682
g387
(lp683
(I0
I14
tp684
a(I0
I21
tp685
asg391
g5
(g6
g7
(lp686
g599
ag641
atp687
Rp688
(dp689
g16
g402
sbsbsg392
(icmyPackage
CorE
p690
(dp691
g387
(lp692
(I0
I0
tp693
a(I0
I12
tp694
asg391
g5
(g6
g7
(lp695
g454
ag459
ag469
ag476
ag482
ag489
ag497
ag504
ag528
ag548
atp696
Rp697
(dp698
g16
g402
sbsbsg403
(icmyPackage
pattern
p699
(dp700
g406
I23
sg407
I1
sg408
(lp701
(lp702
S'since'
p703
aasg412
(lp704
I3
aI1
aI1
asg414
(lp705
S'This is one of the simplest cases since the surface is so thin.'
p706
aS'He could not answer the question, since he had not made up his mind.'
p707
aS'That manager has been a basket case here since his wife left him.'
p708
asg417
I79
sg418
(lp709
(lp710
S'&R@NCTime@'
p711
aS'(,)'
p712
aa(lp713
S'&C@NCTime@'
p714
aasbsg427
(lp715
(isxpPackage
sxpSent
p716
(dp717
g431
(lp718
I1
asg433
VHowever, it is not straightforward to adapt the existing event extraction systems since texts in social media are fragmented and noisy
p719
sg435
I1
sg417
I2
sg436
I0
sbasba(icmyPackage
CELink
p720
(dp721
g3
(lp722
g5
(g6
g7
(lp723
g5
(g6
g7
(lp724
g5
(g6
g7
(lp725
g5
(g6
g7
(lp726
g5
(g6
g7
(lp727
g5
(g6
g7
(lp728
VPrevious
p729
atp730
Rp731
(dp732
g16
VJJ
p733
sbag5
(g6
g7
(lp734
Vwork
p735
atp736
Rp737
(dp738
g16
VNN
p739
sbatp740
Rp741
(dp742
g16
VNP
p743
sbag5
(g6
g7
(lp744
g5
(g6
g7
(lp745
Vin
p746
atp747
Rp748
(dp749
g16
VIN
p750
sbag5
(g6
g7
(lp751
g5
(g6
g7
(lp752
Vevent
p753
atp754
Rp755
(dp756
g16
VNN
p757
sbag5
(g6
g7
(lp758
Vextraction
p759
atp760
Rp761
(dp762
g16
VNN
p763
sbatp764
Rp765
(dp766
g16
VNP
p767
sbatp768
Rp769
(dp770
g16
VPP
p771
sbatp772
Rp773
(dp774
g16
VNP
p775
sbag5
(g6
g7
(lp776
g5
(g6
g7
(lp777
Vhas
p778
atp779
Rp780
(dp781
g16
VVBZ
p782
sbag5
(g6
g7
(lp783
g5
(g6
g7
(lp784
Vfocused
p785
atp786
Rp787
(dp788
g16
VVBN
p789
sbag5
(g6
g7
(lp790
g5
(g6
g7
(lp791
Vlargely
p792
atp793
Rp794
(dp795
g16
VRB
p796
sbatp797
Rp798
(dp799
g16
VADVP
p800
sbag5
(g6
g7
(lp801
g5
(g6
g7
(lp802
Von
p803
atp804
Rp805
(dp806
g16
VIN
p807
sbag5
(g6
g7
(lp808
g5
(g6
g7
(lp809
Vnews
p810
atp811
Rp812
(dp813
g16
VNN
p814
sbag5
(g6
g7
(lp815
Varticles
p816
atp817
Rp818
(dp819
g16
VNNS
p820
sbatp821
Rp822
(dp823
g16
VNP
p824
sbatp825
Rp826
(dp827
g16
VPP
p828
sbag5
(g6
g7
(lp829
g79
atp830
Rp831
(dp832
g16
g79
sbag5
(g6
g7
(lp833
g5
(g6
g7
(lp834
Vas
p835
atp836
Rp837
(dp838
g16
VIN
p839
sbag5
(g6
g7
(lp840
g5
(g6
g7
(lp841
g5
(g6
g7
(lp842
Vthe
p843
atp844
Rp845
(dp846
g16
VDT
p847
sbag5
(g6
g7
(lp848
Vnewswire
p849
atp850
Rp851
(dp852
g16
VNN
p853
sbag5
(g6
g7
(lp854
Vtexts
p855
atp856
Rp857
(dp858
g16
VNNS
p859
sbatp860
Rp861
(dp862
g16
VNP
p863
sbag5
(g6
g7
(lp864
g5
(g6
g7
(lp865
Vhave
p866
atp867
Rp868
(dp869
g16
VVBP
p870
sbag5
(g6
g7
(lp871
g5
(g6
g7
(lp872
Vbeen
p873
atp874
Rp875
(dp876
g16
VVBN
p877
sbag5
(g6
g7
(lp878
g5
(g6
g7
(lp879
g5
(g6
g7
(lp880
Vthe
p881
atp882
Rp883
(dp884
g16
VDT
p885
sbag5
(g6
g7
(lp886
Vbest
p887
atp888
Rp889
(dp890
g16
VJJS
p891
sbag5
(g6
g7
(lp892
Vsource
p893
atp894
Rp895
(dp896
g16
VNN
p897
sbatp898
Rp899
(dp900
g16
VNP
p901
sbag5
(g6
g7
(lp902
g5
(g6
g7
(lp903
Vof
p904
atp905
Rp906
(dp907
g16
VIN
p908
sbag5
(g6
g7
(lp909
g5
(g6
g7
(lp910
Vinformation
p911
atp912
Rp913
(dp914
g16
VNN
p915
sbatp916
Rp917
(dp918
g16
VNP
p919
sbatp920
Rp921
(dp922
g16
VPP
p923
sbatp924
Rp925
(dp926
g16
VNP
p927
sbag5
(g6
g7
(lp928
g5
(g6
g7
(lp929
Von
p930
atp931
Rp932
(dp933
g16
VIN
p934
sbag5
(g6
g7
(lp935
g5
(g6
g7
(lp936
Vcurrent
p937
atp938
Rp939
(dp940
g16
VJJ
p941
sbag5
(g6
g7
(lp942
Vevents
p943
atp944
Rp945
(dp946
g16
VNNS
p947
sbatp948
Rp949
(dp950
g16
VNP
p951
sbatp952
Rp953
(dp954
g16
VPP
p955
sbatp956
Rp957
(dp958
g16
VVP
p959
sbatp960
Rp961
(dp962
g16
VVP
p963
sbatp964
Rp965
(dp966
g16
g207
sbatp967
Rp968
(dp969
g16
VSBAR
p970
sbatp971
Rp972
(dp973
g16
VVP
p974
sbatp975
Rp976
(dp977
g16
VVP
p978
sbatp979
Rp980
(dp981
g16
g207
sbag5
(g6
g7
(lp982
g5
(g6
g7
(lp983
V-LSB-
p984
atp985
Rp986
(dp987
g16
VVBZ
p988
sbatp989
Rp990
(dp991
g16
VVP
p992
sbag5
(g6
g7
(lp993
g5
(g6
g7
(lp994
V6
p995
atp996
Rp997
(dp998
g16
VCD
p999
sbag5
(g6
g7
(lp1000
V-RSB-
p1001
atp1002
Rp1003
(dp1004
g16
VNN
p1005
sbatp1006
Rp1007
(dp1008
g16
VNP
p1009
sbatp1010
Rp1011
(dp1012
g16
VSINV
p1013
sbatp1014
Rp1015
(dp1016
g16
VROOT
p1017
sbasg384
(icmyPackage
CorE
p1018
(dp1019
g387
(lp1020
(I0
I13
tp1021
a(I0
I27
tp1022
asg391
g5
(g6
g7
(lp1023
g965
ag990
ag997
atp1024
Rp1025
(dp1026
g16
g402
sbsbsg392
(icmyPackage
CorE
p1027
(dp1028
g387
(lp1029
(I0
I0
tp1030
a(I0
I10
tp1031
asg391
g5
(g6
g7
(lp1032
g773
ag780
ag787
ag798
ag826
atp1033
Rp1034
(dp1035
g16
g402
sbsbsg403
(icmyPackage
pattern
p1036
(dp1037
g406
I26
sg407
I1
sg408
(lp1038
(lp1039
S'as'
p1040
aasg412
(lp1041
I3
aI1
aI1
asg414
(lp1042
S'You do not need to worry about the operation, as the software is very easy to use.'
p1043
asg417
I80
sg418
(lp1044
(lp1045
S'&R@Complete@'
p1046
aS'(,)'
p1047
aS'(-such/-same/-seem/-regard/-regards/-regarded/-view/-views/-viewed/-denote/-denoted/-denotes)'
p1048
aa(lp1049
S'(-if/-follow/-follows/-&adv)'
p1050
aS'&C@Complete@'
p1051
aasbsg427
(lp1052
(isxpPackage
sxpSent
p1053
(dp1054
g431
(lp1055
I2
asg433
VPrevious work in event extraction has focused largely on news articles, as the newswire texts have been the best source of information on current events [ 6 ]
p1056
sg435
I2
sg417
I9
sg436
I2
sbasba(icmyPackage
CELink
p1057
(dp1058
g3
(lp1059
g5
(g6
g7
(lp1060
g5
(g6
g7
(lp1061
g5
(g6
g7
(lp1062
g5
(g6
g7
(lp1063
VThey
p1064
atp1065
Rp1066
(dp1067
g16
VPRP
p1068
sbatp1069
Rp1070
(dp1071
g16
VNP
p1072
sbag5
(g6
g7
(lp1073
g5
(g6
g7
(lp1074
Vlack
p1075
atp1076
Rp1077
(dp1078
g16
VVBP
p1079
sbag5
(g6
g7
(lp1080
g5
(g6
g7
(lp1081
g5
(g6
g7
(lp1082
Vthe
p1083
atp1084
Rp1085
(dp1086
g16
VDT
p1087
sbag5
(g6
g7
(lp1088
Vflexibility
p1089
atp1090
Rp1091
(dp1092
g16
VNN
p1093
sbatp1094
Rp1095
(dp1096
g16
VNP
p1097
sbag5
(g6
g7
(lp1098
g5
(g6
g7
(lp1099
Vof
p1100
atp1101
Rp1102
(dp1103
g16
VIN
p1104
sbag5
(g6
g7
(lp1105
g5
(g6
g7
(lp1106
g5
(g6
g7
(lp1107
Vporting
p1108
atp1109
Rp1110
(dp1111
g16
VVBG
p1112
sbag5
(g6
g7
(lp1113
g5
(g6
g7
(lp1114
Vto
p1115
atp1116
Rp1117
(dp1118
g16
VTO
p1119
sbag5
(g6
g7
(lp1120
g5
(g6
g7
(lp1121
Vnew
p1122
atp1123
Rp1124
(dp1125
g16
VJJ
p1126
sbag5
(g6
g7
(lp1127
Vdomains
p1128
atp1129
Rp1130
(dp1131
g16
VNNS
p1132
sbatp1133
Rp1134
(dp1135
g16
VNP
p1136
sbatp1137
Rp1138
(dp1139
g16
VPP
p1140
sbag5
(g6
g7
(lp1141
g5
(g6
g7
(lp1142
Vsince
p1143
atp1144
Rp1145
(dp1146
g16
VIN
p1147
sbag5
(g6
g7
(lp1148
g5
(g6
g7
(lp1149
g5
(g6
g7
(lp1150
Vextraction
p1151
atp1152
Rp1153
(dp1154
g16
VNN
p1155
sbag5
(g6
g7
(lp1156
Vpatterns
p1157
atp1158
Rp1159
(dp1160
g16
VNNS
p1161
sbatp1162
Rp1163
(dp1164
g16
VNP
p1165
sbag5
(g6
g7
(lp1166
g5
(g6
g7
(lp1167
Voften
p1168
atp1169
Rp1170
(dp1171
g16
VRB
p1172
sbatp1173
Rp1174
(dp1175
g16
VADVP
p1176
sbag5
(g6
g7
(lp1177
g5
(g6
g7
(lp1178
Vneed
p1179
atp1180
Rp1181
(dp1182
g16
VVBP
p1183
sbag5
(g6
g7
(lp1184
g5
(g6
g7
(lp1185
g5
(g6
g7
(lp1186
Vto
p1187
atp1188
Rp1189
(dp1190
g16
VTO
p1191
sbag5
(g6
g7
(lp1192
g5
(g6
g7
(lp1193
Vbe
p1194
atp1195
Rp1196
(dp1197
g16
VVB
p1198
sbag5
(g6
g7
(lp1199
g5
(g6
g7
(lp1200
Vre-defined
p1201
atp1202
Rp1203
(dp1204
g16
VJJ
p1205
sbatp1206
Rp1207
(dp1208
g16
VADJP
p1209
sbatp1210
Rp1211
(dp1212
g16
VVP
p1213
sbatp1214
Rp1215
(dp1216
g16
VVP
p1217
sbatp1218
Rp1219
(dp1220
g16
g207
sbatp1221
Rp1222
(dp1223
g16
VVP
p1224
sbatp1225
Rp1226
(dp1227
g16
g207
sbatp1228
Rp1229
(dp1230
g16
VSBAR
p1231
sbatp1232
Rp1233
(dp1234
g16
VVP
p1235
sbatp1236
Rp1237
(dp1238
g16
g207
sbatp1239
Rp1240
(dp1241
g16
VPP
p1242
sbatp1243
Rp1244
(dp1245
g16
VNP
p1246
sbatp1247
Rp1248
(dp1249
g16
VVP
p1250
sbatp1251
Rp1252
(dp1253
g16
g207
sbatp1254
Rp1255
(dp1256
g16
VROOT
p1257
sbasg384
(icmyPackage
CorE
p1258
(dp1259
g387
(lp1260
(I0
I10
tp1261
a(I0
I16
tp1262
asg391
g1226
sbsg392
(icmyPackage
CorE
p1263
(dp1264
g387
(lp1265
(I0
I0
tp1266
a(I0
I8
tp1267
asg391
g5
(g6
g7
(lp1268
g1070
ag1077
ag1095
ag1102
ag1110
ag1138
atp1269
Rp1270
(dp1271
g16
g402
sbsbsg403
g699
sg427
(lp1272
(isxpPackage
sxpSent
p1273
(dp1274
g431
(lp1275
I3
asg433
VThey lack the flexibility of porting to new domains since extraction patterns often need to be re-defined
p1276
sg435
I2
sg417
I12
sg436
I2
sbasba(icmyPackage
CELink
p1277
(dp1278
g3
(lp1279
g5
(g6
g7
(lp1280
g5
(g6
g7
(lp1281
g5
(g6
g7
(lp1282
g5
(g6
g7
(lp1283
VSocial
p1284
atp1285
Rp1286
(dp1287
g16
VNNP
p1288
sbag5
(g6
g7
(lp1289
Vmedia
p1290
atp1291
Rp1292
(dp1293
g16
VNN
p1294
sbag5
(g6
g7
(lp1295
Vmessages
p1296
atp1297
Rp1298
(dp1299
g16
VNNS
p1300
sbatp1301
Rp1302
(dp1303
g16
VNP
p1304
sbag5
(g6
g7
(lp1305
g5
(g6
g7
(lp1306
g5
(g6
g7
(lp1307
Vare
p1308
atp1309
Rp1310
(dp1311
g16
VVBP
p1312
sbag5
(g6
g7
(lp1313
g5
(g6
g7
(lp1314
Voften
p1315
atp1316
Rp1317
(dp1318
g16
VRB
p1319
sbag5
(g6
g7
(lp1320
Vshort
p1321
atp1322
Rp1323
(dp1324
g16
VJJ
p1325
sbatp1326
Rp1327
(dp1328
g16
VADJP
p1329
sbatp1330
Rp1331
(dp1332
g16
VVP
p1333
sbag5
(g6
g7
(lp1334
Vand
p1335
atp1336
Rp1337
(dp1338
g16
VCC
p1339
sbag5
(g6
g7
(lp1340
g5
(g6
g7
(lp1341
Vevolve
p1342
atp1343
Rp1344
(dp1345
g16
VVB
p1346
sbag5
(g6
g7
(lp1347
g5
(g6
g7
(lp1348
Vrapidly
p1349
atp1350
Rp1351
(dp1352
g16
VRB
p1353
sbatp1354
Rp1355
(dp1356
g16
VADVP
p1357
sbag5
(g6
g7
(lp1358
g5
(g6
g7
(lp1359
Vover
p1360
atp1361
Rp1362
(dp1363
g16
VIN
p1364
sbag5
(g6
g7
(lp1365
g5
(g6
g7
(lp1366
Vtime
p1367
atp1368
Rp1369
(dp1370
g16
VNN
p1371
sbatp1372
Rp1373
(dp1374
g16
VNP
p1375
sbatp1376
Rp1377
(dp1378
g16
VPP
p1379
sbatp1380
Rp1381
(dp1382
g16
VVP
p1383
sbatp1384
Rp1385
(dp1386
g16
VVP
p1387
sbatp1388
Rp1389
(dp1390
g16
g207
sbatp1391
Rp1392
(dp1393
g16
VROOT
p1394
sbag5
(g6
g7
(lp1395
g5
(g6
g7
(lp1396
g5
(g6
g7
(lp1397
g5
(g6
g7
(lp1398
VAs
p1399
atp1400
Rp1401
(dp1402
g16
VIN
p1403
sbag5
(g6
g7
(lp1404
g5
(g6
g7
(lp1405
Vsuch
p1406
atp1407
Rp1408
(dp1409
g16
VJJ
p1410
sbatp1411
Rp1412
(dp1413
g16
VNP
p1414
sbatp1415
Rp1416
(dp1417
g16
VPP
p1418
sbag5
(g6
g7
(lp1419
g79
atp1420
Rp1421
(dp1422
g16
g79
sbag5
(g6
g7
(lp1423
g5
(g6
g7
(lp1424
Vit
p1425
atp1426
Rp1427
(dp1428
g16
VPRP
p1429
sbatp1430
Rp1431
(dp1432
g16
VNP
p1433
sbag5
(g6
g7
(lp1434
g5
(g6
g7
(lp1435
g5
(g6
g7
(lp1436
Vis
p1437
atp1438
Rp1439
(dp1440
g16
VVBZ
p1441
sbag5
(g6
g7
(lp1442
Vnot
p1443
atp1444
Rp1445
(dp1446
g16
VRB
p1447
sbag5
(g6
g7
(lp1448
g5
(g6
g7
(lp1449
Vpossible
p1450
atp1451
Rp1452
(dp1453
g16
VJJ
p1454
sbag5
(g6
g7
(lp1455
g5
(g6
g7
(lp1456
g5
(g6
g7
(lp1457
Vto
p1458
atp1459
Rp1460
(dp1461
g16
VTO
p1462
sbag5
(g6
g7
(lp1463
g5
(g6
g7
(lp1464
Vknow
p1465
atp1466
Rp1467
(dp1468
g16
VVB
p1469
sbag5
(g6
g7
(lp1470
g5
(g6
g7
(lp1471
Vthe
p1472
atp1473
Rp1474
(dp1475
g16
VDT
p1476
sbag5
(g6
g7
(lp1477
Vevent
p1478
atp1479
Rp1480
(dp1481
g16
VNN
p1482
sbag5
(g6
g7
(lp1483
Vtypes
p1484
atp1485
Rp1486
(dp1487
g16
VNNS
p1488
sbatp1489
Rp1490
(dp1491
g16
VNP
p1492
sbag5
(g6
g7
(lp1493
g5
(g6
g7
(lp1494
Va
p1495
atp1496
Rp1497
(dp1498
g16
VFW
p1499
sbag5
(g6
g7
(lp1500
Vpriori
p1501
atp1502
Rp1503
(dp1504
g16
VFW
p1505
sbatp1506
Rp1507
(dp1508
g16
VADVP
p1509
sbatp1510
Rp1511
(dp1512
g16
VVP
p1513
sbatp1514
Rp1515
(dp1516
g16
VVP
p1517
sbatp1518
Rp1519
(dp1520
g16
g207
sbatp1521
Rp1522
(dp1523
g16
VADJP
p1524
sbatp1525
Rp1526
(dp1527
g16
VVP
p1528
sbag5
(g6
g7
(lp1529
Vand
p1530
atp1531
Rp1532
(dp1533
g16
VCC
p1534
sbag5
(g6
g7
(lp1535
g5
(g6
g7
(lp1536
g5
(g6
g7
(lp1537
Vhence
p1538
atp1539
Rp1540
(dp1541
g16
VRB
p1542
sbatp1543
Rp1544
(dp1545
g16
VADVP
p1546
sbag5
(g6
g7
(lp1547
Vviolates
p1548
atp1549
Rp1550
(dp1551
g16
VVBZ
p1552
sbag5
(g6
g7
(lp1553
g5
(g6
g7
(lp1554
g5
(g6
g7
(lp1555
Vthe
p1556
atp1557
Rp1558
(dp1559
g16
VDT
p1560
sbag5
(g6
g7
(lp1561
Vuse
p1562
atp1563
Rp1564
(dp1565
g16
VNN
p1566
sbatp1567
Rp1568
(dp1569
g16
VNP
p1570
sbag5
(g6
g7
(lp1571
g5
(g6
g7
(lp1572
Vof
p1573
atp1574
Rp1575
(dp1576
g16
VIN
p1577
sbag5
(g6
g7
(lp1578
g5
(g6
g7
(lp1579
Vexisting
p1580
atp1581
Rp1582
(dp1583
g16
VJJ
p1584
sbag5
(g6
g7
(lp1585
Vevent
p1586
atp1587
Rp1588
(dp1589
g16
VNN
p1590
sbag5
(g6
g7
(lp1591
Vextraction
p1592
atp1593
Rp1594
(dp1595
g16
VNN
p1596
sbag5
(g6
g7
(lp1597
Vapproaches
p1598
atp1599
Rp1600
(dp1601
g16
VNNS
p1602
sbatp1603
Rp1604
(dp1605
g16
VNP
p1606
sbatp1607
Rp1608
(dp1609
g16
VPP
p1610
sbatp1611
Rp1612
(dp1613
g16
VNP
p1614
sbatp1615
Rp1616
(dp1617
g16
VVP
p1618
sbatp1619
Rp1620
(dp1621
g16
VVP
p1622
sbatp1623
Rp1624
(dp1625
g16
g207
sbatp1626
Rp1627
(dp1628
g16
VROOT
p1629
sbasg384
(icmyPackage
CorE
p1630
(dp1631
g387
(lp1632
(I1
I1
tp1633
a(I1
I23
tp1634
asg391
g5
(g6
g7
(lp1635
g1412
ag1421
ag1431
ag1620
atp1636
Rp1637
(dp1638
g16
g402
sbsbsg392
(icmyPackage
CorE
p1639
(dp1640
g387
(lp1641
(I0
I0
tp1642
a(I0
I10
tp1643
asg391
g1392
sbsg403
g1036
sg427
(lp1644
(isxpPackage
sxpSent
p1645
(dp1646
g431
(lp1647
I4
asg433
VSocial media messages are often short and evolve rapidly over time
p1648
sg435
I2
sg417
I18
sg436
I3
sba(isxpPackage
sxpSent
p1649
(dp1650
g431
(lp1651
I4
asg433
VAs such, it is not possible to know the event types a priori and hence violates the use of existing event extraction approaches
p1652
sg435
I2
sg417
I19
sg436
I3
sbasba(icmyPackage
CELink
p1653
(dp1654
g3
(lp1655
g5
(g6
g7
(lp1656
g5
(g6
g7
(lp1657
g5
(g6
g7
(lp1658
g5
(g6
g7
(lp1659
g5
(g6
g7
(lp1660
VApproaches
p1661
atp1662
Rp1663
(dp1664
g16
VNNS
p1665
sbatp1666
Rp1667
(dp1668
g16
VNP
p1669
sbag5
(g6
g7
(lp1670
g5
(g6
g7
(lp1671
Vto
p1672
atp1673
Rp1674
(dp1675
g16
VTO
p1676
sbag5
(g6
g7
(lp1677
g5
(g6
g7
(lp1678
g5
(g6
g7
(lp1679
Vevent
p1680
atp1681
Rp1682
(dp1683
g16
VNN
p1684
sbag5
(g6
g7
(lp1685
Vextraction
p1686
atp1687
Rp1688
(dp1689
g16
VNN
p1690
sbatp1691
Rp1692
(dp1693
g16
VNP
p1694
sbag5
(g6
g7
(lp1695
g5
(g6
g7
(lp1696
Vfrom
p1697
atp1698
Rp1699
(dp1700
g16
VIN
p1701
sbag5
(g6
g7
(lp1702
g5
(g6
g7
(lp1703
VTwitter
p1704
atp1705
Rp1706
(dp1707
g16
VNNP
p1708
sbatp1709
Rp1710
(dp1711
g16
VNP
p1712
sbatp1713
Rp1714
(dp1715
g16
VPP
p1716
sbatp1717
Rp1718
(dp1719
g16
VNP
p1720
sbatp1721
Rp1722
(dp1723
g16
VPP
p1724
sbatp1725
Rp1726
(dp1727
g16
VNP
p1728
sbag5
(g6
g7
(lp1729
g5
(g6
g7
(lp1730
Vmake
p1731
atp1732
Rp1733
(dp1734
g16
VVBP
p1735
sbag5
(g6
g7
(lp1736
g5
(g6
g7
(lp1737
g5
(g6
g7
(lp1738
g5
(g6
g7
(lp1739
Vuse
p1740
atp1741
Rp1742
(dp1743
g16
VNN
p1744
sbatp1745
Rp1746
(dp1747
g16
VNP
p1748
sbag5
(g6
g7
(lp1749
g5
(g6
g7
(lp1750
Vof
p1751
atp1752
Rp1753
(dp1754
g16
VIN
p1755
sbag5
(g6
g7
(lp1756
g5
(g6
g7
(lp1757
g1495
atp1758
Rp1759
(dp1760
g16
VDT
p1761
sbag5
(g6
g7
(lp1762
Vgraphical
p1763
atp1764
Rp1765
(dp1766
g16
VJJ
p1767
sbag5
(g6
g7
(lp1768
Vmodel
p1769
atp1770
Rp1771
(dp1772
g16
VNN
p1773
sbatp1774
Rp1775
(dp1776
g16
VNP
p1777
sbatp1778
Rp1779
(dp1780
g16
VPP
p1781
sbatp1782
Rp1783
(dp1784
g16
VNP
p1785
sbag5
(g6
g7
(lp1786
g5
(g6
g7
(lp1787
Vto
p1788
atp1789
Rp1790
(dp1791
g16
VTO
p1792
sbag5
(g6
g7
(lp1793
g5
(g6
g7
(lp1794
Vextract
p1795
atp1796
Rp1797
(dp1798
g16
VVB
p1799
sbag5
(g6
g7
(lp1800
g5
(g6
g7
(lp1801
Vcanonical
p1802
atp1803
Rp1804
(dp1805
g16
VJJ
p1806
sbag5
(g6
g7
(lp1807
Ventertainment
p1808
atp1809
Rp1810
(dp1811
g16
VNN
p1812
sbag5
(g6
g7
(lp1813
Vevents
p1814
atp1815
Rp1816
(dp1817
g16
VNNS
p1818
sbatp1819
Rp1820
(dp1821
g16
VNP
p1822
sbag5
(g6
g7
(lp1823
g5
(g6
g7
(lp1824
Vfrom
p1825
atp1826
Rp1827
(dp1828
g16
VIN
p1829
sbag5
(g6
g7
(lp1830
g5
(g6
g7
(lp1831
Vtweets
p1832
atp1833
Rp1834
(dp1835
g16
VNNS
p1836
sbatp1837
Rp1838
(dp1839
g16
VNP
p1840
sbatp1841
Rp1842
(dp1843
g16
VPP
p1844
sbag5
(g6
g7
(lp1845
g5
(g6
g7
(lp1846
Vby
p1847
atp1848
Rp1849
(dp1850
g16
VIN
p1851
sbag5
(g6
g7
(lp1852
g5
(g6
g7
(lp1853
g5
(g6
g7
(lp1854
Vaggregating
p1855
atp1856
Rp1857
(dp1858
g16
VVBG
p1859
sbag5
(g6
g7
(lp1860
g5
(g6
g7
(lp1861
Vinformation
p1862
atp1863
Rp1864
(dp1865
g16
VNN
p1866
sbatp1867
Rp1868
(dp1869
g16
VNP
p1870
sbag5
(g6
g7
(lp1871
g5
(g6
g7
(lp1872
Vacross
p1873
atp1874
Rp1875
(dp1876
g16
VIN
p1877
sbag5
(g6
g7
(lp1878
g5
(g6
g7
(lp1879
g5
(g6
g7
(lp1880
Vmultiple
p1881
atp1882
Rp1883
(dp1884
g16
VJJ
p1885
sbag5
(g6
g7
(lp1886
Vmessages
p1887
atp1888
Rp1889
(dp1890
g16
VNNS
p1891
sbatp1892
Rp1893
(dp1894
g16
VNP
p1895
sbag5
(g6
g7
(lp1896
g5
(g6
g7
(lp1897
V-LSB-
p1898
atp1899
Rp1900
(dp1901
g16
VVBG
p1902
sbag5
(g6
g7
(lp1903
g5
(g6
g7
(lp1904
g5
(g6
g7
(lp1905
V1
p1906
atp1907
Rp1908
(dp1909
g16
VCD
p1910
sbag5
(g6
g7
(lp1911
V-RSB-
p1912
atp1913
Rp1914
(dp1915
g16
VCD
p1916
sbatp1917
Rp1918
(dp1919
g16
VQP
p1920
sbatp1921
Rp1922
(dp1923
g16
VNP
p1924
sbatp1925
Rp1926
(dp1927
g16
VVP
p1928
sbatp1929
Rp1930
(dp1931
g16
VNP
p1932
sbatp1933
Rp1934
(dp1935
g16
VPP
p1936
sbatp1937
Rp1938
(dp1939
g16
VVP
p1940
sbatp1941
Rp1942
(dp1943
g16
g207
sbatp1944
Rp1945
(dp1946
g16
VPP
p1947
sbatp1948
Rp1949
(dp1950
g16
VVP
p1951
sbatp1952
Rp1953
(dp1954
g16
VVP
p1955
sbatp1956
Rp1957
(dp1958
g16
g207
sbatp1959
Rp1960
(dp1961
g16
VVP
p1962
sbatp1963
Rp1964
(dp1965
g16
g207
sbatp1966
Rp1967
(dp1968
g16
VROOT
p1969
sbasg384
(icmyPackage
CorE
p1970
(dp1971
g387
(lp1972
(I0
I20
tp1973
a(I0
I27
tp1974
asg391
g1942
sbsg392
(icmyPackage
CorE
p1975
(dp1976
g387
(lp1977
(I0
I0
tp1978
a(I0
I18
tp1979
asg391
g5
(g6
g7
(lp1980
g1726
ag1733
ag1783
ag1790
ag1797
ag1820
ag1842
atp1981
Rp1982
(dp1983
g16
g402
sbsbsg403
(icmyPackage
pattern
p1984
(dp1985
g406
I0
sg407
I0
sg408
(lp1986
(lp1987
(lp1988
S'by'
p1989
aS'through'
p1990
aaasg412
(lp1991
I2
aI1
aI1
asg414
(lp1992
S'The similar relation can be detected by analyzing the contents of nodes based on such approaches as the Latent Semantic Analysis (LSA) and the Vector Space Model (VSM)'
p1993
asg417
I68
sg418
(lp1994
(lp1995
S'&R@Complete@'
p1996
aa(lp1997
S'&V-ing@C@'
p1998
aasbsg427
(lp1999
(isxpPackage
sxpSent
p2000
(dp2001
g431
(lp2002
I5
asg433
VApproaches to event extraction from Twitter make use of a graphical model to extract canonical entertainment events from tweets by aggregating information across multiple messages [ 1 ]
p2003
sg435
I2
sg417
I20
sg436
I4
sbasba(icmyPackage
CELink
p2004
(dp2005
g3
(lp2006
g5
(g6
g7
(lp2007
g5
(g6
g7
(lp2008
g5
(g6
g7
(lp2009
g5
(g6
g7
(lp2010
VIn
p2011
atp2012
Rp2013
(dp2014
g16
VIN
p2015
sbag5
(g6
g7
(lp2016
g5
(g6
g7
(lp2017
g5
(g6
g7
(lp2018
V-LSB-
p2019
atp2020
Rp2021
(dp2022
g16
VCD
p2023
sbag5
(g6
g7
(lp2024
V7
p2025
atp2026
Rp2027
(dp2028
g16
VCD
p2029
sbatp2030
Rp2031
(dp2032
g16
VQP
p2033
sbag5
(g6
g7
(lp2034
V-RSB-
p2035
atp2036
Rp2037
(dp2038
g16
VNNS
p2039
sbatp2040
Rp2041
(dp2042
g16
VNP
p2043
sbatp2044
Rp2045
(dp2046
g16
VPP
p2047
sbag5
(g6
g7
(lp2048
g79
atp2049
Rp2050
(dp2051
g16
g79
sbag5
(g6
g7
(lp2052
g5
(g6
g7
(lp2053
g5
(g6
g7
(lp2054
Vsocial
p2055
atp2056
Rp2057
(dp2058
g16
VJJ
p2059
sbag5
(g6
g7
(lp2060
Vevents
p2061
atp2062
Rp2063
(dp2064
g16
VNNS
p2065
sbatp2066
Rp2067
(dp2068
g16
VNP
p2069
sbag5
(g6
g7
(lp2070
g5
(g6
g7
(lp2071
Vinvolving
p2072
atp2073
Rp2074
(dp2075
g16
VVBG
p2076
sbag5
(g6
g7
(lp2077
g5
(g6
g7
(lp2078
Vtwo
p2079
atp2080
Rp2081
(dp2082
g16
VCD
p2083
sbag5
(g6
g7
(lp2084
Vpersons
p2085
atp2086
Rp2087
(dp2088
g16
VNNS
p2089
sbatp2090
Rp2091
(dp2092
g16
VNP
p2093
sbatp2094
Rp2095
(dp2096
g16
VVP
p2097
sbatp2098
Rp2099
(dp2100
g16
VNP
p2101
sbag5
(g6
g7
(lp2102
g5
(g6
g7
(lp2103
Vare
p2104
atp2105
Rp2106
(dp2107
g16
VVBP
p2108
sbag5
(g6
g7
(lp2109
g5
(g6
g7
(lp2110
Vextracted
p2111
atp2112
Rp2113
(dp2114
g16
VVBN
p2115
sbag5
(g6
g7
(lp2116
g5
(g6
g7
(lp2117
Vfrom
p2118
atp2119
Rp2120
(dp2121
g16
VIN
p2122
sbag5
(g6
g7
(lp2123
g5
(g6
g7
(lp2124
g5
(g6
g7
(lp2125
Vmultiple
p2126
atp2127
Rp2128
(dp2129
g16
VJJ
p2130
sbag5
(g6
g7
(lp2131
Vsimilar
p2132
atp2133
Rp2134
(dp2135
g16
VJJ
p2136
sbag5
(g6
g7
(lp2137
Vtweets
p2138
atp2139
Rp2140
(dp2141
g16
VNNS
p2142
sbatp2143
Rp2144
(dp2145
g16
VNP
p2146
sbag5
(g6
g7
(lp2147
g5
(g6
g7
(lp2148
Vusing
p2149
atp2150
Rp2151
(dp2152
g16
VVBG
p2153
sbag5
(g6
g7
(lp2154
g5
(g6
g7
(lp2155
g1495
atp2156
Rp2157
(dp2158
g16
VDT
p2159
sbag5
(g6
g7
(lp2160
Vfactor
p2161
atp2162
Rp2163
(dp2164
g16
VNN
p2165
sbag5
(g6
g7
(lp2166
Vgraph
p2167
atp2168
Rp2169
(dp2170
g16
VNN
p2171
sbatp2172
Rp2173
(dp2174
g16
VNP
p2175
sbag5
(g6
g7
(lp2176
g5
(g6
g7
(lp2177
Vby
p2178
atp2179
Rp2180
(dp2181
g16
VIN
p2182
sbag5
(g6
g7
(lp2183
g5
(g6
g7
(lp2184
g5
(g6
g7
(lp2185
Vharvesting
p2186
atp2187
Rp2188
(dp2189
g16
VVBG
p2190
sbag5
(g6
g7
(lp2191
g5
(g6
g7
(lp2192
Vthe
p2193
atp2194
Rp2195
(dp2196
g16
VDT
p2197
sbag5
(g6
g7
(lp2198
Vredundancy
p2199
atp2200
Rp2201
(dp2202
g16
VNN
p2203
sbatp2204
Rp2205
(dp2206
g16
VNP
p2207
sbag5
(g6
g7
(lp2208
g5
(g6
g7
(lp2209
Vin
p2210
atp2211
Rp2212
(dp2213
g16
VIN
p2214
sbag5
(g6
g7
(lp2215
g5
(g6
g7
(lp2216
Vtweets
p2217
atp2218
Rp2219
(dp2220
g16
VNNS
p2221
sbatp2222
Rp2223
(dp2224
g16
VNP
p2225
sbatp2226
Rp2227
(dp2228
g16
VPP
p2229
sbatp2230
Rp2231
(dp2232
g16
VVP
p2233
sbatp2234
Rp2235
(dp2236
g16
g207
sbatp2237
Rp2238
(dp2239
g16
VPP
p2240
sbatp2241
Rp2242
(dp2243
g16
VVP
p2244
sbatp2245
Rp2246
(dp2247
g16
VNP
p2248
sbatp2249
Rp2250
(dp2251
g16
VPP
p2252
sbatp2253
Rp2254
(dp2255
g16
VVP
p2256
sbatp2257
Rp2258
(dp2259
g16
VVP
p2260
sbatp2261
Rp2262
(dp2263
g16
g207
sbatp2264
Rp2265
(dp2266
g16
VROOT
p2267
sbasg384
(icmyPackage
CorE
p2268
(dp2269
g387
(lp2270
(I0
I21
tp2271
a(I0
I25
tp2272
asg391
g2235
sbsg392
(icmyPackage
CorE
p2273
(dp2274
g387
(lp2275
(I0
I0
tp2276
a(I0
I19
tp2277
asg391
g5
(g6
g7
(lp2278
g2045
ag2050
ag2099
ag2106
ag2113
ag2120
ag2144
ag2151
ag2173
atp2279
Rp2280
(dp2281
g16
g402
sbsbsg403
g1984
sg427
(lp2282
(isxpPackage
sxpSent
p2283
(dp2284
g431
(lp2285
I6
asg433
VIn [ 7 ] , social events involving two persons are extracted from multiple similar tweets using a factor graph by harvesting the redundancy in tweets
p2286
sg435
I2
sg417
I21
sg436
I4
sbasba(icmyPackage
CELink
p2287
(dp2288
g3
(lp2289
g5
(g6
g7
(lp2290
g5
(g6
g7
(lp2291
g5
(g6
g7
(lp2292
g5
(g6
g7
(lp2293
VThis
p2294
atp2295
Rp2296
(dp2297
g16
VDT
p2298
sbag5
(g6
g7
(lp2299
Vproperty
p2300
atp2301
Rp2302
(dp2303
g16
VNN
p2304
sbatp2305
Rp2306
(dp2307
g16
VNP
p2308
sbag5
(g6
g7
(lp2309
g5
(g6
g7
(lp2310
Vallows
p2311
atp2312
Rp2313
(dp2314
g16
VVBZ
p2315
sbag5
(g6
g7
(lp2316
g5
(g6
g7
(lp2317
g5
(g6
g7
(lp2318
g5
(g6
g7
(lp2319
Vus
p2320
atp2321
Rp2322
(dp2323
g16
VPRP
p2324
sbatp2325
Rp2326
(dp2327
g16
VNP
p2328
sbag5
(g6
g7
(lp2329
g5
(g6
g7
(lp2330
Vresort
p2331
atp2332
Rp2333
(dp2334
g16
VVBP
p2335
sbag5
(g6
g7
(lp2336
g5
(g6
g7
(lp2337
Vto
p2338
atp2339
Rp2340
(dp2341
g16
VTO
p2342
sbag5
(g6
g7
(lp2343
g5
(g6
g7
(lp2344
g5
(g6
g7
(lp2345
Vstatistical
p2346
atp2347
Rp2348
(dp2349
g16
VJJ
p2350
sbag5
(g6
g7
(lp2351
Vmodels
p2352
atp2353
Rp2354
(dp2355
g16
VNNS
p2356
sbatp2357
Rp2358
(dp2359
g16
VNP
p2360
sbag5
(g6
g7
(lp2361
g5
(g6
g7
(lp2362
g5
(g6
g7
(lp2363
Vthat
p2364
atp2365
Rp2366
(dp2367
g16
VWDT
p2368
sbatp2369
Rp2370
(dp2371
g16
VWHNP
p2372
sbag5
(g6
g7
(lp2373
g5
(g6
g7
(lp2374
g5
(g6
g7
(lp2375
Vcan
p2376
atp2377
Rp2378
(dp2379
g16
VMD
p2380
sbag5
(g6
g7
(lp2381
g5
(g6
g7
(lp2382
g5
(g6
g7
(lp2383
Vgroup
p2384
atp2385
Rp2386
(dp2387
g16
VNN
p2388
sbag5
(g6
g7
(lp2389
Vsimilar
p2390
atp2391
Rp2392
(dp2393
g16
VJJ
p2394
sbag5
(g6
g7
(lp2395
Vevents
p2396
atp2397
Rp2398
(dp2399
g16
VNNS
p2400
sbatp2401
Rp2402
(dp2403
g16
VNP
p2404
sbag5
(g6
g7
(lp2405
g5
(g6
g7
(lp2406
Vbased
p2407
atp2408
Rp2409
(dp2410
g16
VVBN
p2411
sbag5
(g6
g7
(lp2412
g5
(g6
g7
(lp2413
Von
p2414
atp2415
Rp2416
(dp2417
g16
VIN
p2418
sbag5
(g6
g7
(lp2419
g5
(g6
g7
(lp2420
g5
(g6
g7
(lp2421
Vthe
p2422
atp2423
Rp2424
(dp2425
g16
VDT
p2426
sbag5
(g6
g7
(lp2427
Vco-occurrence
p2428
atp2429
Rp2430
(dp2431
g16
VJJ
p2432
sbag5
(g6
g7
(lp2433
Vpatterns
p2434
atp2435
Rp2436
(dp2437
g16
VNNS
p2438
sbatp2439
Rp2440
(dp2441
g16
VNP
p2442
sbag5
(g6
g7
(lp2443
g5
(g6
g7
(lp2444
Vof
p2445
atp2446
Rp2447
(dp2448
g16
VIN
p2449
sbag5
(g6
g7
(lp2450
g5
(g6
g7
(lp2451
Vtheir
p2452
atp2453
Rp2454
(dp2455
g16
VPRP$
p2456
sbag5
(g6
g7
(lp2457
Vevent
p2458
atp2459
Rp2460
(dp2461
g16
VNN
p2462
sbag5
(g6
g7
(lp2463
Velements
p2464
atp2465
Rp2466
(dp2467
g16
VNNS
p2468
sbatp2469
Rp2470
(dp2471
g16
VNP
p2472
sbatp2473
Rp2474
(dp2475
g16
VPP
p2476
sbatp2477
Rp2478
(dp2479
g16
VNP
p2480
sbatp2481
Rp2482
(dp2483
g16
VPP
p2484
sbatp2485
Rp2486
(dp2487
g16
VPP
p2488
sbatp2489
Rp2490
(dp2491
g16
VVP
p2492
sbatp2493
Rp2494
(dp2495
g16
VVP
p2496
sbatp2497
Rp2498
(dp2499
g16
g207
sbatp2500
Rp2501
(dp2502
g16
VSBAR
p2503
sbatp2504
Rp2505
(dp2506
g16
VNP
p2507
sbatp2508
Rp2509
(dp2510
g16
VPP
p2511
sbatp2512
Rp2513
(dp2514
g16
VVP
p2515
sbatp2516
Rp2517
(dp2518
g16
g207
sbatp2519
Rp2520
(dp2521
g16
VSBAR
p2522
sbatp2523
Rp2524
(dp2525
g16
VVP
p2526
sbatp2527
Rp2528
(dp2529
g16
g207
sbatp2530
Rp2531
(dp2532
g16
VROOT
p2533
sbasg384
(icmyPackage
CorE
p2534
(dp2535
g387
(lp2536
(I0
I15
tp2537
a(I0
I21
tp2538
asg391
g2478
sbsg392
(icmyPackage
CorE
p2539
(dp2540
g387
(lp2541
(I0
I0
tp2542
a(I0
I12
tp2543
asg391
g5
(g6
g7
(lp2544
g2306
ag2313
ag2326
ag2333
ag2340
ag2358
ag2370
ag2378
ag2402
atp2545
Rp2546
(dp2547
g16
g402
sbsbsg403
(icmyPackage
pattern
p2548
(dp2549
g406
I0
sg407
I0
sg408
(lp2550
(lp2551
S'based'
p2552
aS'on'
p2553
aasg412
(lp2554
I2
aI1
aI1
asg414
(lp2555
S'He said he planned to announce details of legislation on Sunday based on a Republican plan that would provide a short-term solution'
p2556
asg417
I48
sg418
(lp2557
(lp2558
S'&R'
p2559
aS'(,)'
p2560
aS'(&ADV)'
p2561
aa(lp2562
S'&V-ing/&NP@C@'
p2563
aS'(&Clause@C@)'
p2564
aasbsg427
(lp2565
(isxpPackage
sxpSent
p2566
(dp2567
g431
(lp2568
I7
asg433
VThis property allows us resort to statistical models that can group similar events based on the co-occurrence patterns of their event elements
p2569
sg435
I2
sg417
I25
sg436
I5
sbasba(icmyPackage
CELink
p2570
(dp2571
g3
(lp2572
g5
(g6
g7
(lp2573
g5
(g6
g7
(lp2574
g5
(g6
g7
(lp2575
g5
(g6
g7
(lp2576
VWe
p2577
atp2578
Rp2579
(dp2580
g16
VPRP
p2581
sbatp2582
Rp2583
(dp2584
g16
VNP
p2585
sbag5
(g6
g7
(lp2586
g5
(g6
g7
(lp2587
Vcan
p2588
atp2589
Rp2590
(dp2591
g16
VMD
p2592
sbag5
(g6
g7
(lp2593
g5
(g6
g7
(lp2594
g5
(g6
g7
(lp2595
Vtreat
p2596
atp2597
Rp2598
(dp2599
g16
VVB
p2600
sbag5
(g6
g7
(lp2601
g5
(g6
g7
(lp2602
Van
p2603
atp2604
Rp2605
(dp2606
g16
VDT
p2607
sbag5
(g6
g7
(lp2608
Vevent
p2609
atp2610
Rp2611
(dp2612
g16
VNN
p2613
sbatp2614
Rp2615
(dp2616
g16
VNP
p2617
sbag5
(g6
g7
(lp2618
g5
(g6
g7
(lp2619
Vas
p2620
atp2621
Rp2622
(dp2623
g16
VIN
p2624
sbag5
(g6
g7
(lp2625
g5
(g6
g7
(lp2626
g1495
atp2627
Rp2628
(dp2629
g16
VDT
p2630
sbag5
(g6
g7
(lp2631
Vlatent
p2632
atp2633
Rp2634
(dp2635
g16
VNN
p2636
sbag5
(g6
g7
(lp2637
Vvariable
p2638
atp2639
Rp2640
(dp2641
g16
VNN
p2642
sbatp2643
Rp2644
(dp2645
g16
VNP
p2646
sbatp2647
Rp2648
(dp2649
g16
VPP
p2650
sbatp2651
Rp2652
(dp2653
g16
VVP
p2654
sbag5
(g6
g7
(lp2655
Vand
p2656
atp2657
Rp2658
(dp2659
g16
VCC
p2660
sbag5
(g6
g7
(lp2661
g5
(g6
g7
(lp2662
Vmodel
p2663
atp2664
Rp2665
(dp2666
g16
VVB
p2667
sbag5
(g6
g7
(lp2668
g5
(g6
g7
(lp2669
g5
(g6
g7
(lp2670
Vthe
p2671
atp2672
Rp2673
(dp2674
g16
VDT
p2675
sbag5
(g6
g7
(lp2676
Vgeneration
p2677
atp2678
Rp2679
(dp2680
g16
VNN
p2681
sbatp2682
Rp2683
(dp2684
g16
VNP
p2685
sbag5
(g6
g7
(lp2686
g5
(g6
g7
(lp2687
Vof
p2688
atp2689
Rp2690
(dp2691
g16
VIN
p2692
sbag5
(g6
g7
(lp2693
g5
(g6
g7
(lp2694
Van
p2695
atp2696
Rp2697
(dp2698
g16
VDT
p2699
sbag5
(g6
g7
(lp2700
Vevent
p2701
atp2702
Rp2703
(dp2704
g16
VNN
p2705
sbatp2706
Rp2707
(dp2708
g16
VNP
p2709
sbatp2710
Rp2711
(dp2712
g16
VPP
p2713
sbatp2714
Rp2715
(dp2716
g16
VNP
p2717
sbag5
(g6
g7
(lp2718
g5
(g6
g7
(lp2719
Vas
p2720
atp2721
Rp2722
(dp2723
g16
VIN
p2724
sbag5
(g6
g7
(lp2725
g5
(g6
g7
(lp2726
g5
(g6
g7
(lp2727
g1495
atp2728
Rp2729
(dp2730
g16
VDT
p2731
sbag5
(g6
g7
(lp2732
Vjoint
p2733
atp2734
Rp2735
(dp2736
g16
VJJ
p2737
sbag5
(g6
g7
(lp2738
Vdistribution
p2739
atp2740
Rp2741
(dp2742
g16
VNN
p2743
sbatp2744
Rp2745
(dp2746
g16
VNP
p2747
sbag5
(g6
g7
(lp2748
g5
(g6
g7
(lp2749
Vof
p2750
atp2751
Rp2752
(dp2753
g16
VIN
p2754
sbag5
(g6
g7
(lp2755
g5
(g6
g7
(lp2756
Vits
p2757
atp2758
Rp2759
(dp2760
g16
VPRP$
p2761
sbag5
(g6
g7
(lp2762
Vindividual
p2763
atp2764
Rp2765
(dp2766
g16
VJJ
p2767
sbag5
(g6
g7
(lp2768
Vevent
p2769
atp2770
Rp2771
(dp2772
g16
VNN
p2773
sbag5
(g6
g7
(lp2774
Velements
p2775
atp2776
Rp2777
(dp2778
g16
VNNS
p2779
sbatp2780
Rp2781
(dp2782
g16
VNP
p2783
sbatp2784
Rp2785
(dp2786
g16
VPP
p2787
sbatp2788
Rp2789
(dp2790
g16
VNP
p2791
sbatp2792
Rp2793
(dp2794
g16
VPP
p2795
sbatp2796
Rp2797
(dp2798
g16
VVP
p2799
sbatp2800
Rp2801
(dp2802
g16
VVP
p2803
sbatp2804
Rp2805
(dp2806
g16
VVP
p2807
sbatp2808
Rp2809
(dp2810
g16
g207
sbatp2811
Rp2812
(dp2813
g16
VROOT
p2814
sbag5
(g6
g7
(lp2815
g5
(g6
g7
(lp2816
g5
(g6
g7
(lp2817
g5
(g6
g7
(lp2818
VWe
p2819
atp2820
Rp2821
(dp2822
g16
VPRP
p2823
sbatp2824
Rp2825
(dp2826
g16
VNP
p2827
sbag5
(g6
g7
(lp2828
g5
(g6
g7
(lp2829
g5
(g6
g7
(lp2830
Vthus
p2831
atp2832
Rp2833
(dp2834
g16
VRB
p2835
sbatp2836
Rp2837
(dp2838
g16
VADVP
p2839
sbag5
(g6
g7
(lp2840
Vpropose
p2841
atp2842
Rp2843
(dp2844
g16
VVBP
p2845
sbag5
(g6
g7
(lp2846
g5
(g6
g7
(lp2847
g5
(g6
g7
(lp2848
g1495
atp2849
Rp2850
(dp2851
g16
VDT
p2852
sbag5
(g6
g7
(lp2853
VLatent
p2854
atp2855
Rp2856
(dp2857
g16
VNNP
p2858
sbag5
(g6
g7
(lp2859
VEvent
p2860
atp2861
Rp2862
(dp2863
g16
VNNP
p2864
sbag5
(g6
g7
(lp2865
VModel
p2866
atp2867
Rp2868
(dp2869
g16
VNNP
p2870
sbatp2871
Rp2872
(dp2873
g16
VNP
p2874
sbag5
(g6
g7
(lp2875
g5
(g6
g7
(lp2876
V-LRB-
p2877
atp2878
Rp2879
(dp2880
g16
V-LRB-
p2881
sbag5
(g6
g7
(lp2882
g5
(g6
g7
(lp2883
VLEM
p2884
atp2885
Rp2886
(dp2887
g16
VNNP
p2888
sbatp2889
Rp2890
(dp2891
g16
VNP
p2892
sbag5
(g6
g7
(lp2893
V-RRB-
p2894
atp2895
Rp2896
(dp2897
g16
V-RRB-
p2898
sbatp2899
Rp2900
(dp2901
g16
VPRN
p2902
sbag5
(g6
g7
(lp2903
g5
(g6
g7
(lp2904
g5
(g6
g7
(lp2905
Vwhich
p2906
atp2907
Rp2908
(dp2909
g16
VWDT
p2910
sbatp2911
Rp2912
(dp2913
g16
VWHNP
p2914
sbag5
(g6
g7
(lp2915
g5
(g6
g7
(lp2916
g5
(g6
g7
(lp2917
Vcan
p2918
atp2919
Rp2920
(dp2921
g16
VMD
p2922
sbag5
(g6
g7
(lp2923
g5
(g6
g7
(lp2924
Vautomatically
p2925
atp2926
Rp2927
(dp2928
g16
VRB
p2929
sbatp2930
Rp2931
(dp2932
g16
VADVP
p2933
sbag5
(g6
g7
(lp2934
g5
(g6
g7
(lp2935
Vdetect
p2936
atp2937
Rp2938
(dp2939
g16
VVB
p2940
sbag5
(g6
g7
(lp2941
g5
(g6
g7
(lp2942
Vevents
p2943
atp2944
Rp2945
(dp2946
g16
VNNS
p2947
sbatp2948
Rp2949
(dp2950
g16
VNP
p2951
sbag5
(g6
g7
(lp2952
g5
(g6
g7
(lp2953
Vfrom
p2954
atp2955
Rp2956
(dp2957
g16
VIN
p2958
sbag5
(g6
g7
(lp2959
g5
(g6
g7
(lp2960
Vsocial
p2961
atp2962
Rp2963
(dp2964
g16
VJJ
p2965
sbag5
(g6
g7
(lp2966
Vmedia
p2967
atp2968
Rp2969
(dp2970
g16
VNNS
p2971
sbatp2972
Rp2973
(dp2974
g16
VNP
p2975
sbatp2976
Rp2977
(dp2978
g16
VPP
p2979
sbag5
(g6
g7
(lp2980
g5
(g6
g7
(lp2981
Vwithout
p2982
atp2983
Rp2984
(dp2985
g16
VIN
p2986
sbag5
(g6
g7
(lp2987
g5
(g6
g7
(lp2988
g5
(g6
g7
(lp2989
Vthe
p2990
atp2991
Rp2992
(dp2993
g16
VDT
p2994
sbag5
(g6
g7
(lp2995
Vuse
p2996
atp2997
Rp2998
(dp2999
g16
VNN
p3000
sbatp3001
Rp3002
(dp3003
g16
VNP
p3004
sbag5
(g6
g7
(lp3005
g5
(g6
g7
(lp3006
Vof
p3007
atp3008
Rp3009
(dp3010
g16
VIN
p3011
sbag5
(g6
g7
(lp3012
g5
(g6
g7
(lp3013
Vlabeled
p3014
atp3015
Rp3016
(dp3017
g16
VJJ
p3018
sbag5
(g6
g7
(lp3019
Vdata
p3020
atp3021
Rp3022
(dp3023
g16
VNNS
p3024
sbatp3025
Rp3026
(dp3027
g16
VNP
p3028
sbatp3029
Rp3030
(dp3031
g16
VPP
p3032
sbatp3033
Rp3034
(dp3035
g16
VNP
p3036
sbatp3037
Rp3038
(dp3039
g16
VPP
p3040
sbatp3041
Rp3042
(dp3043
g16
VVP
p3044
sbatp3045
Rp3046
(dp3047
g16
VVP
p3048
sbatp3049
Rp3050
(dp3051
g16
g207
sbatp3052
Rp3053
(dp3054
g16
VSBAR
p3055
sbatp3056
Rp3057
(dp3058
g16
VNP
p3059
sbatp3060
Rp3061
(dp3062
g16
VVP
p3063
sbatp3064
Rp3065
(dp3066
g16
g207
sbatp3067
Rp3068
(dp3069
g16
VROOT
p3070
sbasg384
(icmyPackage
CorE
p3071
(dp3072
g387
(lp3073
(I0
I6
tp3074
a(I1
I9
tp3075
asg391
g5
(g6
g7
(lp3076
g2644
ag2658
ag2797
ag2825
ag2837
ag2843
ag2872
ag2900
atp3077
Rp3078
(dp3079
g16
g402
sbsbsg392
(icmyPackage
CorE
p3080
(dp3081
g387
(lp3082
(I0
I0
tp3083
a(I0
I4
tp3084
asg391
g5
(g6
g7
(lp3085
g2583
ag2590
ag2598
ag2615
atp3086
Rp3087
(dp3088
g16
g402
sbsbsg403
g1036
sg427
(lp3089
(isxpPackage
sxpSent
p3090
(dp3091
g431
(lp3092
I8
aI9
asg433
VWe can treat an event as a latent variable and model the generation of an event as a joint distribution of its individual event elements
p3093
sg435
I2
sg417
I27
sg436
I5
sba(isxpPackage
sxpSent
p3094
(dp3095
g431
(lp3096
I8
aI9
asg433
VWe thus propose a Latent Event Model (LEM) which can automatically detect events from social media without the use of labeled data
p3097
sg435
I2
sg417
I28
sg436
I5
sbasba(icmyPackage
CELink
p3098
(dp3099
g3
(lp3100
g2812
ag3068
asg384
(icmyPackage
CorE
p3101
(dp3102
g387
(lp3103
(I0
I1
tp3104
a(I1
I0
tp3105
asg391
g5
(g6
g7
(lp3106
g2805
ag2825
atp3107
Rp3108
(dp3109
g16
g402
sbsbsg392
(icmyPackage
CorE
p3110
(dp3111
g387
(lp3112
(I1
I2
tp3113
a(I1
I23
tp3114
asg391
g5
(g6
g7
(lp3115
g2843
ag3057
atp3116
Rp3117
(dp3118
g16
g402
sbsbsg403
(icmyPackage
pattern
p3119
(dp3120
g406
I35
sg407
I1
sg408
(lp3121
(lp3122
S'thus'
p3123
aasg412
(lp3124
I1
aI1
aI1
asg414
(lp3125
S'Japan will be on the dark side of the Earth, and thus will lack the warming influence of the Sun.'
p3126
asg417
I2
sg418
(lp3127
(lp3128
S'&C'
p3129
aS'(,/;/./--)'
p3130
aS'(&AND)'
p3131
aa(lp3132
S'&R'
p3133
aasbsg427
(lp3134
g3090
ag3094
asba(icmyPackage
CELink
p3135
(dp3136
g3
(lp3137
g5
(g6
g7
(lp3138
g5
(g6
g7
(lp3139
g5
(g6
g7
(lp3140
g5
(g6
g7
(lp3141
g5
(g6
g7
(lp3142
VEvents
p3143
atp3144
Rp3145
(dp3146
g16
VNNS
p3147
sbatp3148
Rp3149
(dp3150
g16
VNP
p3151
sbag5
(g6
g7
(lp3152
g5
(g6
g7
(lp3153
Vextracted
p3154
atp3155
Rp3156
(dp3157
g16
VVBN
p3158
sbag5
(g6
g7
(lp3159
g5
(g6
g7
(lp3160
Vin
p3161
atp3162
Rp3163
(dp3164
g16
VIN
p3165
sbag5
(g6
g7
(lp3166
g5
(g6
g7
(lp3167
Vour
p3168
atp3169
Rp3170
(dp3171
g16
VPRP$
p3172
sbag5
(g6
g7
(lp3173
Vproposed
p3174
atp3175
Rp3176
(dp3177
g16
VVBN
p3178
sbag5
(g6
g7
(lp3179
Vframework
p3180
atp3181
Rp3182
(dp3183
g16
VNN
p3184
sbatp3185
Rp3186
(dp3187
g16
VNP
p3188
sbatp3189
Rp3190
(dp3191
g16
VPP
p3192
sbatp3193
Rp3194
(dp3195
g16
VVP
p3196
sbatp3197
Rp3198
(dp3199
g16
VNP
p3200
sbag5
(g6
g7
(lp3201
g5
(g6
g7
(lp3202
Vare
p3203
atp3204
Rp3205
(dp3206
g16
VVBP
p3207
sbag5
(g6
g7
(lp3208
g5
(g6
g7
(lp3209
Vrepresented
p3210
atp3211
Rp3212
(dp3213
g16
VVBN
p3214
sbag5
(g6
g7
(lp3215
g5
(g6
g7
(lp3216
Vas
p3217
atp3218
Rp3219
(dp3220
g16
VIN
p3221
sbag5
(g6
g7
(lp3222
g5
(g6
g7
(lp3223
g5
(g6
g7
(lp3224
g5
(g6
g7
(lp3225
g1495
atp3226
Rp3227
(dp3228
g16
VDT
p3229
sbag5
(g6
g7
(lp3230
V4-tuple
p3231
atp3232
Rp3233
(dp3234
g16
VJJ
p3235
sbag5
(g6
g7
(lp3236
Vu
p3237
atp3238
Rp3239
(dp3240
g16
VNN
p3241
sbag5
(g6
g7
(lp3242
V'
p3243
atp3244
Rp3245
(dp3246
g16
VPOS
p3247
sbatp3248
Rp3249
(dp3250
g16
VNP
p3251
sbag5
(g6
g7
(lp3252
V\u005c
p3253
atp3254
Rp3255
(dp3256
g16
VJJ
p3257
sbag5
(g6
g7
(lp3258
Vu27e8
p3259
atp3260
Rp3261
(dp3262
g16
VJJ
p3263
sbag5
(g6
g7
(lp3264
g3243
atp3265
Rp3266
(dp3267
g16
V''
p3268
sbag5
(g6
g7
(lp3269
Vy
p3270
atp3271
Rp3272
(dp3273
g16
VNN
p3274
sbatp3275
Rp3276
(dp3277
g16
VNP
p3278
sbag5
(g6
g7
(lp3279
g79
atp3280
Rp3281
(dp3282
g16
g79
sbag5
(g6
g7
(lp3283
g5
(g6
g7
(lp3284
Vd
p3285
atp3286
Rp3287
(dp3288
g16
VSYM
p3289
sbatp3290
Rp3291
(dp3292
g16
VNP
p3293
sbag5
(g6
g7
(lp3294
g79
atp3295
Rp3296
(dp3297
g16
g79
sbatp3298
Rp3299
(dp3300
g16
VNP
p3301
sbatp3302
Rp3303
(dp3304
g16
VPP
p3305
sbag5
(g6
g7
(lp3306
g5
(g6
g7
(lp3307
Vl
p3308
atp3309
Rp3310
(dp3311
g16
VNN
p3312
sbatp3313
Rp3314
(dp3315
g16
VNP
p3316
sbag5
(g6
g7
(lp3317
g5
(g6
g7
(lp3318
g79
atp3319
Rp3320
(dp3321
g16
g79
sbag5
(g6
g7
(lp3322
g5
(g6
g7
(lp3323
g5
(g6
g7
(lp3324
Vk
p3325
atp3326
Rp3327
(dp3328
g16
VNN
p3329
sbatp3330
Rp3331
(dp3332
g16
VNP
p3333
sbag5
(g6
g7
(lp3334
g5
(g6
g7
(lp3335
g3237
atp3336
Rp3337
(dp3338
g16
VVBP
p3339
sbag5
(g6
g7
(lp3340
g3243
atp3341
Rp3342
(dp3343
g16
V''
p3344
sbag5
(g6
g7
(lp3345
g5
(g6
g7
(lp3346
V\u005c
p3347
atp3348
Rp3349
(dp3350
g16
VJJ
p3351
sbag5
(g6
g7
(lp3352
Vu27e9
p3353
atp3354
Rp3355
(dp3356
g16
VNNS
p3357
sbatp3358
Rp3359
(dp3360
g16
VNP
p3361
sbag5
(g6
g7
(lp3362
g3243
atp3363
Rp3364
(dp3365
g16
V''
p3366
sbatp3367
Rp3368
(dp3369
g16
VVP
p3370
sbatp3371
Rp3372
(dp3373
g16
g207
sbag5
(g6
g7
(lp3374
g79
atp3375
Rp3376
(dp3377
g16
g79
sbatp3378
Rp3379
(dp3380
g16
VPRN
p3381
sbag5
(g6
g7
(lp3382
g5
(g6
g7
(lp3383
g5
(g6
g7
(lp3384
Vwhere
p3385
atp3386
Rp3387
(dp3388
g16
VWRB
p3389
sbatp3390
Rp3391
(dp3392
g16
VWHADVP
p3393
sbag5
(g6
g7
(lp3394
g5
(g6
g7
(lp3395
g5
(g6
g7
(lp3396
g3270
atp3397
Rp3398
(dp3399
g16
VNN
p3400
sbatp3401
Rp3402
(dp3403
g16
VNP
p3404
sbag5
(g6
g7
(lp3405
g5
(g6
g7
(lp3406
Vstands
p3407
atp3408
Rp3409
(dp3410
g16
VVBZ
p3411
sbag5
(g6
g7
(lp3412
g5
(g6
g7
(lp3413
Vfor
p3414
atp3415
Rp3416
(dp3417
g16
VIN
p3418
sbag5
(g6
g7
(lp3419
g5
(g6
g7
(lp3420
g5
(g6
g7
(lp3421
g1495
atp3422
Rp3423
(dp3424
g16
VDT
p3425
sbag5
(g6
g7
(lp3426
Vnon-location
p3427
atp3428
Rp3429
(dp3430
g16
VNN
p3431
sbatp3432
Rp3433
(dp3434
g16
VNP
p3435
sbag5
(g6
g7
(lp3436
g5
(g6
g7
(lp3437
Vnamed
p3438
atp3439
Rp3440
(dp3441
g16
VVBN
p3442
sbag5
(g6
g7
(lp3443
g5
(g6
g7
(lp3444
g5
(g6
g7
(lp3445
Ventity
p3446
atp3447
Rp3448
(dp3449
g16
VNN
p3450
sbatp3451
Rp3452
(dp3453
g16
VNP
p3454
sbag5
(g6
g7
(lp3455
g79
atp3456
Rp3457
(dp3458
g16
g79
sbag5
(g6
g7
(lp3459
g5
(g6
g7
(lp3460
g5
(g6
g7
(lp3461
g3285
atp3462
Rp3463
(dp3464
g16
VSYM
p3465
sbatp3466
Rp3467
(dp3468
g16
VNP
p3469
sbag5
(g6
g7
(lp3470
g5
(g6
g7
(lp3471
Vfor
p3472
atp3473
Rp3474
(dp3475
g16
VIN
p3476
sbag5
(g6
g7
(lp3477
g5
(g6
g7
(lp3478
g1495
atp3479
Rp3480
(dp3481
g16
VDT
p3482
sbag5
(g6
g7
(lp3483
Vdate
p3484
atp3485
Rp3486
(dp3487
g16
VNN
p3488
sbatp3489
Rp3490
(dp3491
g16
VNP
p3492
sbatp3493
Rp3494
(dp3495
g16
VPP
p3496
sbatp3497
Rp3498
(dp3499
g16
VNP
p3500
sbag5
(g6
g7
(lp3501
g79
atp3502
Rp3503
(dp3504
g16
g79
sbatp3505
Rp3506
(dp3507
g16
VNP
p3508
sbag5
(g6
g7
(lp3509
g5
(g6
g7
(lp3510
g3308
atp3511
Rp3512
(dp3513
g16
VNN
p3514
sbatp3515
Rp3516
(dp3517
g16
VNP
p3518
sbag5
(g6
g7
(lp3519
g5
(g6
g7
(lp3520
Vfor
p3521
atp3522
Rp3523
(dp3524
g16
VIN
p3525
sbag5
(g6
g7
(lp3526
g5
(g6
g7
(lp3527
g5
(g6
g7
(lp3528
g1495
atp3529
Rp3530
(dp3531
g16
VDT
p3532
sbag5
(g6
g7
(lp3533
Vlocation
p3534
atp3535
Rp3536
(dp3537
g16
VNN
p3538
sbag5
(g6
g7
(lp3539
g79
atp3540
Rp3541
(dp3542
g16
g79
sbag5
(g6
g7
(lp3543
Vand
p3544
atp3545
Rp3546
(dp3547
g16
VCC
p3548
sbag5
(g6
g7
(lp3549
g3325
atp3550
Rp3551
(dp3552
g16
VNN
p3553
sbatp3554
Rp3555
(dp3556
g16
VNP
p3557
sbag5
(g6
g7
(lp3558
g5
(g6
g7
(lp3559
Vfor
p3560
atp3561
Rp3562
(dp3563
g16
VIN
p3564
sbag5
(g6
g7
(lp3565
g5
(g6
g7
(lp3566
Van
p3567
atp3568
Rp3569
(dp3570
g16
VDT
p3571
sbag5
(g6
g7
(lp3572
Vevent-related
p3573
atp3574
Rp3575
(dp3576
g16
VJJ
p3577
sbag5
(g6
g7
(lp3578
Vkeyword
p3579
atp3580
Rp3581
(dp3582
g16
VNN
p3583
sbatp3584
Rp3585
(dp3586
g16
VNP
p3587
sbatp3588
Rp3589
(dp3590
g16
VPP
p3591
sbatp3592
Rp3593
(dp3594
g16
VNP
p3595
sbatp3596
Rp3597
(dp3598
g16
VPP
p3599
sbatp3600
Rp3601
(dp3602
g16
VVP
p3603
sbatp3604
Rp3605
(dp3606
g16
VNP
p3607
sbatp3608
Rp3609
(dp3610
g16
VPP
p3611
sbatp3612
Rp3613
(dp3614
g16
VVP
p3615
sbatp3616
Rp3617
(dp3618
g16
g207
sbatp3619
Rp3620
(dp3621
g16
VSBAR
p3622
sbatp3623
Rp3624
(dp3625
g16
VVP
p3626
sbatp3627
Rp3628
(dp3629
g16
VVP
p3630
sbatp3631
Rp3632
(dp3633
g16
g207
sbatp3634
Rp3635
(dp3636
g16
VROOT
p3637
sbasg384
(icmyPackage
CorE
p3638
(dp3639
g387
(lp3640
(I0
I9
tp3641
a(I0
I52
tp3642
asg391
g5
(g6
g7
(lp3643
g3299
ag3314
ag3379
ag3391
ag3402
ag3409
ag3416
ag3433
ag3440
ag3506
ag3516
ag3523
ag3555
ag3562
ag3569
ag3575
atp3644
Rp3645
(dp3646
g16
g402
sbsbsg392
(icmyPackage
CorE
p3647
(dp3648
g387
(lp3649
(I0
I0
tp3650
a(I0
I7
tp3651
asg391
g5
(g6
g7
(lp3652
g3198
ag3205
ag3212
atp3653
Rp3654
(dp3655
g16
g402
sbsbsg403
g1036
sg427
(lp3656
(isxpPackage
sxpSent
p3657
(dp3658
g431
(lp3659
I10
asg433
VEvents extracted in our proposed framework are represented as a 4-tuple u'\u005cu27e8' y , d , l , k u'\u005cu27e9' , where y stands for a non-location named entity, d for a date, l for a location, and k for an event-related keyword
p3660
sg435
I3
sg417
I35
sg436
I7
sbasba(icmyPackage
CELink
p3661
(dp3662
g3
(lp3663
g5
(g6
g7
(lp3664
g5
(g6
g7
(lp3665
g5
(g6
g7
(lp3666
g5
(g6
g7
(lp3667
VIt
p3668
atp3669
Rp3670
(dp3671
g16
VPRP
p3672
sbatp3673
Rp3674
(dp3675
g16
VNP
p3676
sbag5
(g6
g7
(lp3677
g5
(g6
g7
(lp3678
Vshould
p3679
atp3680
Rp3681
(dp3682
g16
VMD
p3683
sbag5
(g6
g7
(lp3684
g5
(g6
g7
(lp3685
Vbe
p3686
atp3687
Rp3688
(dp3689
g16
VVB
p3690
sbag5
(g6
g7
(lp3691
g5
(g6
g7
(lp3692
Vnoted
p3693
atp3694
Rp3695
(dp3696
g16
VVBN
p3697
sbag5
(g6
g7
(lp3698
g5
(g6
g7
(lp3699
Vthat
p3700
atp3701
Rp3702
(dp3703
g16
VIN
p3704
sbag5
(g6
g7
(lp3705
g5
(g6
g7
(lp3706
g5
(g6
g7
(lp3707
Vfor
p3708
atp3709
Rp3710
(dp3711
g16
VIN
p3712
sbag5
(g6
g7
(lp3713
g5
(g6
g7
(lp3714
Vsome
p3715
atp3716
Rp3717
(dp3718
g16
VDT
p3719
sbag5
(g6
g7
(lp3720
Vevents
p3721
atp3722
Rp3723
(dp3724
g16
VNNS
p3725
sbatp3726
Rp3727
(dp3728
g16
VNP
p3729
sbatp3730
Rp3731
(dp3732
g16
VPP
p3733
sbag5
(g6
g7
(lp3734
g79
atp3735
Rp3736
(dp3737
g16
g79
sbag5
(g6
g7
(lp3738
g5
(g6
g7
(lp3739
g5
(g6
g7
(lp3740
g5
(g6
g7
(lp3741
Vone
p3742
atp3743
Rp3744
(dp3745
g16
VCD
p3746
sbag5
(g6
g7
(lp3747
Vor
p3748
atp3749
Rp3750
(dp3751
g16
VCC
p3752
sbag5
(g6
g7
(lp3753
Vmore
p3754
atp3755
Rp3756
(dp3757
g16
VJJR
p3758
sbatp3759
Rp3760
(dp3761
g16
VQP
p3762
sbag5
(g6
g7
(lp3763
Velements
p3764
atp3765
Rp3766
(dp3767
g16
VNNS
p3768
sbatp3769
Rp3770
(dp3771
g16
VNP
p3772
sbag5
(g6
g7
(lp3773
g5
(g6
g7
(lp3774
Vin
p3775
atp3776
Rp3777
(dp3778
g16
VIN
p3779
sbag5
(g6
g7
(lp3780
g5
(g6
g7
(lp3781
Vtheir
p3782
atp3783
Rp3784
(dp3785
g16
VPRP$
p3786
sbag5
(g6
g7
(lp3787
Vcorresponding
p3788
atp3789
Rp3790
(dp3791
g16
VJJ
p3792
sbag5
(g6
g7
(lp3793
Vtuples
p3794
atp3795
Rp3796
(dp3797
g16
VNNS
p3798
sbatp3799
Rp3800
(dp3801
g16
VNP
p3802
sbatp3803
Rp3804
(dp3805
g16
VPP
p3806
sbatp3807
Rp3808
(dp3809
g16
VNP
p3810
sbag5
(g6
g7
(lp3811
g5
(g6
g7
(lp3812
Vmight
p3813
atp3814
Rp3815
(dp3816
g16
VMD
p3817
sbag5
(g6
g7
(lp3818
g5
(g6
g7
(lp3819
Vbe
p3820
atp3821
Rp3822
(dp3823
g16
VVB
p3824
sbag5
(g6
g7
(lp3825
g5
(g6
g7
(lp3826
Vabsent
p3827
atp3828
Rp3829
(dp3830
g16
VJJ
p3831
sbatp3832
Rp3833
(dp3834
g16
VADJP
p3835
sbag5
(g6
g7
(lp3836
g5
(g6
g7
(lp3837
Vas
p3838
atp3839
Rp3840
(dp3841
g16
VIN
p3842
sbag5
(g6
g7
(lp3843
g5
(g6
g7
(lp3844
g5
(g6
g7
(lp3845
Vtheir
p3846
atp3847
Rp3848
(dp3849
g16
VPRP$
p3850
sbag5
(g6
g7
(lp3851
Vrelated
p3852
atp3853
Rp3854
(dp3855
g16
VJJ
p3856
sbag5
(g6
g7
(lp3857
Vinformation
p3858
atp3859
Rp3860
(dp3861
g16
VNN
p3862
sbatp3863
Rp3864
(dp3865
g16
VNP
p3866
sbag5
(g6
g7
(lp3867
g5
(g6
g7
(lp3868
Vis
p3869
atp3870
Rp3871
(dp3872
g16
VVBZ
p3873
sbag5
(g6
g7
(lp3874
Vnot
p3875
atp3876
Rp3877
(dp3878
g16
VRB
p3879
sbag5
(g6
g7
(lp3880
g5
(g6
g7
(lp3881
Vavailable
p3882
atp3883
Rp3884
(dp3885
g16
VJJ
p3886
sbag5
(g6
g7
(lp3887
g5
(g6
g7
(lp3888
Vin
p3889
atp3890
Rp3891
(dp3892
g16
VIN
p3893
sbag5
(g6
g7
(lp3894
g5
(g6
g7
(lp3895
Vtweets
p3896
atp3897
Rp3898
(dp3899
g16
VNNS
p3900
sbatp3901
Rp3902
(dp3903
g16
VNP
p3904
sbatp3905
Rp3906
(dp3907
g16
VPP
p3908
sbatp3909
Rp3910
(dp3911
g16
VADJP
p3912
sbatp3913
Rp3914
(dp3915
g16
VVP
p3916
sbatp3917
Rp3918
(dp3919
g16
g207
sbatp3920
Rp3921
(dp3922
g16
VSBAR
p3923
sbatp3924
Rp3925
(dp3926
g16
VVP
p3927
sbatp3928
Rp3929
(dp3930
g16
VVP
p3931
sbatp3932
Rp3933
(dp3934
g16
g207
sbatp3935
Rp3936
(dp3937
g16
VSBAR
p3938
sbatp3939
Rp3940
(dp3941
g16
VVP
p3942
sbatp3943
Rp3944
(dp3945
g16
VVP
p3946
sbatp3947
Rp3948
(dp3949
g16
VVP
p3950
sbatp3951
Rp3952
(dp3953
g16
g207
sbatp3954
Rp3955
(dp3956
g16
VROOT
p3957
sbasg384
(icmyPackage
CorE
p3958
(dp3959
g387
(lp3960
(I0
I21
tp3961
a(I0
I28
tp3962
asg391
g3918
sbsg392
(icmyPackage
CorE
p3963
(dp3964
g387
(lp3965
(I0
I0
tp3966
a(I0
I19
tp3967
asg391
g5
(g6
g7
(lp3968
g3674
ag3681
ag3688
ag3695
ag3702
ag3731
ag3736
ag3808
ag3815
ag3822
ag3833
atp3969
Rp3970
(dp3971
g16
g402
sbsbsg403
g1036
sg427
(lp3972
(isxpPackage
sxpSent
p3973
(dp3974
g431
(lp3975
I11
aI12
asg433
VIt should be noted that for some events, one or more elements in their corresponding tuples might be absent as their related information is not available in tweets
p3976
sg435
I3
sg417
I37
sg436
I7
sbasba(icmyPackage
CELink
p3977
(dp3978
g3
(lp3979
g3955
ag5
(g6
g7
(lp3980
g5
(g6
g7
(lp3981
g5
(g6
g7
(lp3982
g5
(g6
g7
(lp3983
VAs
p3984
atp3985
Rp3986
(dp3987
g16
VIN
p3988
sbag5
(g6
g7
(lp3989
g5
(g6
g7
(lp3990
g5
(g6
g7
(lp3991
Villustrated
p3992
atp3993
Rp3994
(dp3995
g16
VVBN
p3996
sbag5
(g6
g7
(lp3997
g5
(g6
g7
(lp3998
Vin
p3999
atp4000
Rp4001
(dp4002
g16
VIN
p4003
sbag5
(g6
g7
(lp4004
g5
(g6
g7
(lp4005
VFigure
p4006
atp4007
Rp4008
(dp4009
g16
VNNP
p4010
sbag5
(g6
g7
(lp4011
g1906
atp4012
Rp4013
(dp4014
g16
VCD
p4015
sbatp4016
Rp4017
(dp4018
g16
VNP
p4019
sbatp4020
Rp4021
(dp4022
g16
VPP
p4023
sbatp4024
Rp4025
(dp4026
g16
VVP
p4027
sbatp4028
Rp4029
(dp4030
g16
g207
sbatp4031
Rp4032
(dp4033
g16
VSBAR
p4034
sbag5
(g6
g7
(lp4035
g79
atp4036
Rp4037
(dp4038
g16
g79
sbag5
(g6
g7
(lp4039
g5
(g6
g7
(lp4040
Vour
p4041
atp4042
Rp4043
(dp4044
g16
VPRP$
p4045
sbag5
(g6
g7
(lp4046
Vproposed
p4047
atp4048
Rp4049
(dp4050
g16
VJJ
p4051
sbag5
(g6
g7
(lp4052
Vframework
p4053
atp4054
Rp4055
(dp4056
g16
VNN
p4057
sbatp4058
Rp4059
(dp4060
g16
VNP
p4061
sbag5
(g6
g7
(lp4062
g5
(g6
g7
(lp4063
Vconsists
p4064
atp4065
Rp4066
(dp4067
g16
VVBZ
p4068
sbag5
(g6
g7
(lp4069
g5
(g6
g7
(lp4070
Vof
p4071
atp4072
Rp4073
(dp4074
g16
VIN
p4075
sbag5
(g6
g7
(lp4076
g5
(g6
g7
(lp4077
g5
(g6
g7
(lp4078
Vthree
p4079
atp4080
Rp4081
(dp4082
g16
VCD
p4083
sbag5
(g6
g7
(lp4084
Vmain
p4085
atp4086
Rp4087
(dp4088
g16
VJJ
p4089
sbag5
(g6
g7
(lp4090
Vsteps
p4091
atp4092
Rp4093
(dp4094
g16
VNNS
p4095
sbatp4096
Rp4097
(dp4098
g16
VNP
p4099
sbag5
(g6
g7
(lp4100
g79
atp4101
Rp4102
(dp4103
g16
g79
sbag5
(g6
g7
(lp4104
g5
(g6
g7
(lp4105
g5
(g6
g7
(lp4106
Vpre-processing
p4107
atp4108
Rp4109
(dp4110
g16
VNN
p4111
sbatp4112
Rp4113
(dp4114
g16
VNP
p4115
sbag5
(g6
g7
(lp4116
g79
atp4117
Rp4118
(dp4119
g16
g79
sbag5
(g6
g7
(lp4120
g5
(g6
g7
(lp4121
g5
(g6
g7
(lp4122
Vevent
p4123
atp4124
Rp4125
(dp4126
g16
VNN
p4127
sbag5
(g6
g7
(lp4128
Vextraction
p4129
atp4130
Rp4131
(dp4132
g16
VNN
p4133
sbatp4134
Rp4135
(dp4136
g16
VNP
p4137
sbag5
(g6
g7
(lp4138
g5
(g6
g7
(lp4139
Vbased
p4140
atp4141
Rp4142
(dp4143
g16
VVBN
p4144
sbag5
(g6
g7
(lp4145
g5
(g6
g7
(lp4146
Von
p4147
atp4148
Rp4149
(dp4150
g16
VIN
p4151
sbag5
(g6
g7
(lp4152
g5
(g6
g7
(lp4153
g5
(g6
g7
(lp4154
Vthe
p4155
atp4156
Rp4157
(dp4158
g16
VDT
p4159
sbag5
(g6
g7
(lp4160
VLEM
p4161
atp4162
Rp4163
(dp4164
g16
VNNP
p4165
sbag5
(g6
g7
(lp4166
Vmodel
p4167
atp4168
Rp4169
(dp4170
g16
VNN
p4171
sbatp4172
Rp4173
(dp4174
g16
VNP
p4175
sbag5
(g6
g7
(lp4176
Vand
p4177
atp4178
Rp4179
(dp4180
g16
VCC
p4181
sbag5
(g6
g7
(lp4182
g5
(g6
g7
(lp4183
Vpost-processing
p4184
atp4185
Rp4186
(dp4187
g16
VNN
p4188
sbatp4189
Rp4190
(dp4191
g16
VNP
p4192
sbatp4193
Rp4194
(dp4195
g16
VNP
p4196
sbatp4197
Rp4198
(dp4199
g16
VPP
p4200
sbatp4201
Rp4202
(dp4203
g16
VVP
p4204
sbatp4205
Rp4206
(dp4207
g16
VNP
p4208
sbatp4209
Rp4210
(dp4211
g16
VNP
p4212
sbatp4213
Rp4214
(dp4215
g16
VNP
p4216
sbatp4217
Rp4218
(dp4219
g16
VPP
p4220
sbatp4221
Rp4222
(dp4223
g16
VVP
p4224
sbatp4225
Rp4226
(dp4227
g16
g207
sbatp4228
Rp4229
(dp4230
g16
VROOT
p4231
sbasg384
(icmyPackage
CorE
p4232
(dp4233
g387
(lp4234
(I1
I1
tp4235
a(I1
I16
tp4236
asg391
g5
(g6
g7
(lp4237
g4029
ag4037
ag4059
ag4066
ag4073
ag4097
ag4102
ag4113
ag4118
atp4238
Rp4239
(dp4240
g16
g402
sbsbsg392
(icmyPackage
CorE
p4241
(dp4242
g387
(lp4243
(I0
I0
tp4244
a(I0
I28
tp4245
asg391
g3955
sbsg403
g1036
sg427
(lp4246
g3973
a(isxpPackage
sxpSent
p4247
(dp4248
g431
(lp4249
I12
asg433
VAs illustrated in Figure 1 , our proposed framework consists of three main steps, pre-processing, event extraction based on the LEM model and post-processing
p4250
sg435
I3
sg417
I38
sg436
I7
sbasba(icmyPackage
CELink
p4251
(dp4252
g3
(lp4253
g5
(g6
g7
(lp4254
g5
(g6
g7
(lp4255
g5
(g6
g7
(lp4256
g5
(g6
g7
(lp4257
g5
(g6
g7
(lp4258
VTo
p4259
atp4260
Rp4261
(dp4262
g16
VTO
p4263
sbag5
(g6
g7
(lp4264
g5
(g6
g7
(lp4265
Vresolve
p4266
atp4267
Rp4268
(dp4269
g16
VVB
p4270
sbag5
(g6
g7
(lp4271
g5
(g6
g7
(lp4272
g5
(g6
g7
(lp4273
Vthe
p4274
atp4275
Rp4276
(dp4277
g16
VDT
p4278
sbag5
(g6
g7
(lp4279
Vambiguity
p4280
atp4281
Rp4282
(dp4283
g16
VNN
p4284
sbatp4285
Rp4286
(dp4287
g16
VNP
p4288
sbag5
(g6
g7
(lp4289
g5
(g6
g7
(lp4290
Vof
p4291
atp4292
Rp4293
(dp4294
g16
VIN
p4295
sbag5
(g6
g7
(lp4296
g5
(g6
g7
(lp4297
g5
(g6
g7
(lp4298
Vthe
p4299
atp4300
Rp4301
(dp4302
g16
VDT
p4303
sbag5
(g6
g7
(lp4304
Vtime
p4305
atp4306
Rp4307
(dp4308
g16
VNN
p4309
sbag5
(g6
g7
(lp4310
Vexpressions
p4311
atp4312
Rp4313
(dp4314
g16
VNNS
p4315
sbatp4316
Rp4317
(dp4318
g16
VNP
p4319
sbag5
(g6
g7
(lp4320
g79
atp4321
Rp4322
(dp4323
g16
g79
sbag5
(g6
g7
(lp4324
g5
(g6
g7
(lp4325
g5
(g6
g7
(lp4326
VSUTime
p4327
atp4328
Rp4329
(dp4330
g16
VNNP
p4331
sbatp4332
Rp4333
(dp4334
g16
VNP
p4335
sbag5
(g6
g7
(lp4336
g5
(g6
g7
(lp4337
g5
(g6
g7
(lp4338
g5
(g6
g7
(lp4339
g5
(g6
g7
(lp4340
g5
(g6
g7
(lp4341
g1906
atp4342
Rp4343
(dp4344
g16
VCD
p4345
sbag5
(g6
g7
(lp4346
g1906
atp4347
Rp4348
(dp4349
g16
VCD
p4350
sbatp4351
Rp4352
(dp4353
g16
VQP
p4354
sbag5
(g6
g7
(lp4355
Vhttp://nlp.stanford.edu/software/sutime.shtml
p4356
atp4357
Rp4358
(dp4359
g16
VJJ
p4360
sbag5
(g6
g7
(lp4361
V-LSB-
p4362
atp4363
Rp4364
(dp4365
g16
VNNS
p4366
sbatp4367
Rp4368
(dp4369
g16
VNP
p4370
sbag5
(g6
g7
(lp4371
g5
(g6
g7
(lp4372
V2
p4373
atp4374
Rp4375
(dp4376
g16
VCD
p4377
sbag5
(g6
g7
(lp4378
V-RSB-
p4379
atp4380
Rp4381
(dp4382
g16
VJJ
p4383
sbatp4384
Rp4385
(dp4386
g16
VADJP
p4387
sbatp4388
Rp4389
(dp4390
g16
VNP
p4391
sbag5
(g6
g7
(lp4392
g5
(g6
g7
(lp4393
Vis
p4394
atp4395
Rp4396
(dp4397
g16
VVBZ
p4398
sbag5
(g6
g7
(lp4399
g5
(g6
g7
(lp4400
Vemployed
p4401
atp4402
Rp4403
(dp4404
g16
VVBN
p4405
sbatp4406
Rp4407
(dp4408
g16
VVP
p4409
sbatp4410
Rp4411
(dp4412
g16
VVP
p4413
sbatp4414
Rp4415
(dp4416
g16
g207
sbatp4417
Rp4418
(dp4419
g16
VSBAR
p4420
sbatp4421
Rp4422
(dp4423
g16
VNP
p4424
sbag5
(g6
g7
(lp4425
g79
atp4426
Rp4427
(dp4428
g16
g79
sbag5
(g6
g7
(lp4429
g5
(g6
g7
(lp4430
g5
(g6
g7
(lp4431
Vwhich
p4432
atp4433
Rp4434
(dp4435
g16
VWDT
p4436
sbatp4437
Rp4438
(dp4439
g16
VWHNP
p4440
sbag5
(g6
g7
(lp4441
g5
(g6
g7
(lp4442
g5
(g6
g7
(lp4443
g5
(g6
g7
(lp4444
Vtakes
p4445
atp4446
Rp4447
(dp4448
g16
VVBZ
p4449
sbag5
(g6
g7
(lp4450
g5
(g6
g7
(lp4451
g5
(g6
g7
(lp4452
Vtext
p4453
atp4454
Rp4455
(dp4456
g16
VNN
p4457
sbatp4458
Rp4459
(dp4460
g16
VNP
p4461
sbag5
(g6
g7
(lp4462
Vand
p4463
atp4464
Rp4465
(dp4466
g16
VCC
p4467
sbag5
(g6
g7
(lp4468
g5
(g6
g7
(lp4469
g1495
atp4470
Rp4471
(dp4472
g16
VDT
p4473
sbag5
(g6
g7
(lp4474
Vreference
p4475
atp4476
Rp4477
(dp4478
g16
VNN
p4479
sbag5
(g6
g7
(lp4480
Vdate
p4481
atp4482
Rp4483
(dp4484
g16
VNN
p4485
sbatp4486
Rp4487
(dp4488
g16
VNP
p4489
sbatp4490
Rp4491
(dp4492
g16
VNP
p4493
sbag5
(g6
g7
(lp4494
g5
(g6
g7
(lp4495
Vas
p4496
atp4497
Rp4498
(dp4499
g16
VIN
p4500
sbag5
(g6
g7
(lp4501
g5
(g6
g7
(lp4502
Vinput
p4503
atp4504
Rp4505
(dp4506
g16
VNN
p4507
sbatp4508
Rp4509
(dp4510
g16
VNP
p4511
sbatp4512
Rp4513
(dp4514
g16
VPP
p4515
sbatp4516
Rp4517
(dp4518
g16
VVP
p4519
sbag5
(g6
g7
(lp4520
Vand
p4521
atp4522
Rp4523
(dp4524
g16
VCC
p4525
sbag5
(g6
g7
(lp4526
g5
(g6
g7
(lp4527
Voutputs
p4528
atp4529
Rp4530
(dp4531
g16
VVBZ
p4532
sbag5
(g6
g7
(lp4533
g5
(g6
g7
(lp4534
g5
(g6
g7
(lp4535
g1495
atp4536
Rp4537
(dp4538
g16
VDT
p4539
sbag5
(g6
g7
(lp4540
g5
(g6
g7
(lp4541
Vmore
p4542
atp4543
Rp4544
(dp4545
g16
VRBR
p4546
sbag5
(g6
g7
(lp4547
Vaccurate
p4548
atp4549
Rp4550
(dp4551
g16
VJJ
p4552
sbatp4553
Rp4554
(dp4555
g16
VADJP
p4556
sbag5
(g6
g7
(lp4557
Vdate
p4558
atp4559
Rp4560
(dp4561
g16
VNN
p4562
sbatp4563
Rp4564
(dp4565
g16
VNP
p4566
sbag5
(g6
g7
(lp4567
g5
(g6
g7
(lp4568
g5
(g6
g7
(lp4569
Vwhich
p4570
atp4571
Rp4572
(dp4573
g16
VWDT
p4574
sbatp4575
Rp4576
(dp4577
g16
VWHNP
p4578
sbag5
(g6
g7
(lp4579
g5
(g6
g7
(lp4580
g5
(g6
g7
(lp4581
Vthe
p4582
atp4583
Rp4584
(dp4585
g16
VDT
p4586
sbag5
(g6
g7
(lp4587
Vtime
p4588
atp4589
Rp4590
(dp4591
g16
VNN
p4592
sbag5
(g6
g7
(lp4593
Vexpression
p4594
atp4595
Rp4596
(dp4597
g16
VNN
p4598
sbatp4599
Rp4600
(dp4601
g16
VNP
p4602
sbag5
(g6
g7
(lp4603
g5
(g6
g7
(lp4604
Vrefers
p4605
atp4606
Rp4607
(dp4608
g16
VVBZ
p4609
sbag5
(g6
g7
(lp4610
g5
(g6
g7
(lp4611
Vto
p4612
atp4613
Rp4614
(dp4615
g16
VTO
p4616
sbatp4617
Rp4618
(dp4619
g16
VPP
p4620
sbatp4621
Rp4622
(dp4623
g16
VVP
p4624
sbatp4625
Rp4626
(dp4627
g16
g207
sbatp4628
Rp4629
(dp4630
g16
VSBAR
p4631
sbatp4632
Rp4633
(dp4634
g16
VNP
p4635
sbatp4636
Rp4637
(dp4638
g16
VVP
p4639
sbatp4640
Rp4641
(dp4642
g16
VVP
p4643
sbatp4644
Rp4645
(dp4646
g16
g207
sbatp4647
Rp4648
(dp4649
g16
VSBAR
p4650
sbatp4651
Rp4652
(dp4653
g16
VNP
p4654
sbatp4655
Rp4656
(dp4657
g16
VPP
p4658
sbatp4659
Rp4660
(dp4661
g16
VNP
p4662
sbatp4663
Rp4664
(dp4665
g16
VVP
p4666
sbatp4667
Rp4668
(dp4669
g16
VVP
p4670
sbatp4671
Rp4672
(dp4673
g16
g207
sbatp4674
Rp4675
(dp4676
g16
VFRAG
p4677
sbatp4678
Rp4679
(dp4680
g16
VROOT
p4681
sbag5
(g6
g7
(lp4682
g5
(g6
g7
(lp4683
g5
(g6
g7
(lp4684
g5
(g6
g7
(lp4685
VNamed
p4686
atp4687
Rp4688
(dp4689
g16
VVBN
p4690
sbag5
(g6
g7
(lp4691
g5
(g6
g7
(lp4692
g5
(g6
g7
(lp4693
g5
(g6
g7
(lp4694
g5
(g6
g7
(lp4695
Ventity
p4696
atp4697
Rp4698
(dp4699
g16
VNN
p4700
sbag5
(g6
g7
(lp4701
Vrecognition
p4702
atp4703
Rp4704
(dp4705
g16
VNN
p4706
sbatp4707
Rp4708
(dp4709
g16
VNP
p4710
sbag5
(g6
g7
(lp4711
g5
(g6
g7
(lp4712
V-LRB-
p4713
atp4714
Rp4715
(dp4716
g16
V-LRB-
p4717
sbag5
(g6
g7
(lp4718
g5
(g6
g7
(lp4719
VNER
p4720
atp4721
Rp4722
(dp4723
g16
VNNP
p4724
sbatp4725
Rp4726
(dp4727
g16
VNP
p4728
sbag5
(g6
g7
(lp4729
V-RRB-
p4730
atp4731
Rp4732
(dp4733
g16
V-RRB-
p4734
sbatp4735
Rp4736
(dp4737
g16
VPRN
p4738
sbatp4739
Rp4740
(dp4741
g16
VNP
p4742
sbag5
(g6
g7
(lp4743
g5
(g6
g7
(lp4744
Vis
p4745
atp4746
Rp4747
(dp4748
g16
VVBZ
p4749
sbag5
(g6
g7
(lp4750
g5
(g6
g7
(lp4751
g1495
atp4752
Rp4753
(dp4754
g16
VDT
p4755
sbag5
(g6
g7
(lp4756
Vcrucial
p4757
atp4758
Rp4759
(dp4760
g16
VJJ
p4761
sbag5
(g6
g7
(lp4762
Vstep
p4763
atp4764
Rp4765
(dp4766
g16
VNN
p4767
sbatp4768
Rp4769
(dp4770
g16
VNP
p4771
sbag5
(g6
g7
(lp4772
g5
(g6
g7
(lp4773
Vsince
p4774
atp4775
Rp4776
(dp4777
g16
VIN
p4778
sbag5
(g6
g7
(lp4779
g5
(g6
g7
(lp4780
g5
(g6
g7
(lp4781
Vthe
p4782
atp4783
Rp4784
(dp4785
g16
VDT
p4786
sbag5
(g6
g7
(lp4787
Vresults
p4788
atp4789
Rp4790
(dp4791
g16
VNNS
p4792
sbatp4793
Rp4794
(dp4795
g16
VNP
p4796
sbag5
(g6
g7
(lp4797
g5
(g6
g7
(lp4798
Vwould
p4799
atp4800
Rp4801
(dp4802
g16
VMD
p4803
sbag5
(g6
g7
(lp4804
g5
(g6
g7
(lp4805
Vdirectly
p4806
atp4807
Rp4808
(dp4809
g16
VRB
p4810
sbatp4811
Rp4812
(dp4813
g16
VADVP
p4814
sbag5
(g6
g7
(lp4815
g5
(g6
g7
(lp4816
Vimpact
p4817
atp4818
Rp4819
(dp4820
g16
VVB
p4821
sbag5
(g6
g7
(lp4822
g5
(g6
g7
(lp4823
Vthe
p4824
atp4825
Rp4826
(dp4827
g16
VDT
p4828
sbag5
(g6
g7
(lp4829
Vfinal
p4830
atp4831
Rp4832
(dp4833
g16
VJJ
p4834
sbatp4835
Rp4836
(dp4837
g16
VNP
p4838
sbatp4839
Rp4840
(dp4841
g16
VVP
p4842
sbatp4843
Rp4844
(dp4845
g16
VVP
p4846
sbatp4847
Rp4848
(dp4849
g16
g207
sbatp4850
Rp4851
(dp4852
g16
VSBAR
p4853
sbatp4854
Rp4855
(dp4856
g16
VVP
p4857
sbatp4858
Rp4859
(dp4860
g16
g207
sbatp4861
Rp4862
(dp4863
g16
VSBAR
p4864
sbatp4865
Rp4866
(dp4867
g16
VVP
p4868
sbag5
(g6
g7
(lp4869
g5
(g6
g7
(lp4870
Vextracted
p4871
atp4872
Rp4873
(dp4874
g16
VVBD
p4875
sbag5
(g6
g7
(lp4876
g5
(g6
g7
(lp4877
g5
(g6
g7
(lp4878
V4-tuple
p4879
atp4880
Rp4881
(dp4882
g16
VJJ
p4883
sbag5
(g6
g7
(lp4884
g3237
atp4885
Rp4886
(dp4887
g16
VNN
p4888
sbag5
(g6
g7
(lp4889
g3243
atp4890
Rp4891
(dp4892
g16
VPOS
p4893
sbatp4894
Rp4895
(dp4896
g16
VNP
p4897
sbag5
(g6
g7
(lp4898
V\u005c
p4899
atp4900
Rp4901
(dp4902
g16
VNN
p4903
sbatp4904
Rp4905
(dp4906
g16
VNP
p4907
sbatp4908
Rp4909
(dp4910
g16
VVP
p4911
sbag5
(g6
g7
(lp4912
g5
(g6
g7
(lp4913
g5
(g6
g7
(lp4914
g5
(g6
g7
(lp4915
Vu27e8
p4916
atp4917
Rp4918
(dp4919
g16
VNNP
p4920
sbag5
(g6
g7
(lp4921
g3243
atp4922
Rp4923
(dp4924
g16
VPOS
p4925
sbatp4926
Rp4927
(dp4928
g16
VNP
p4929
sbag5
(g6
g7
(lp4930
g3270
atp4931
Rp4932
(dp4933
g16
VNN
p4934
sbatp4935
Rp4936
(dp4937
g16
VNP
p4938
sbag5
(g6
g7
(lp4939
g79
atp4940
Rp4941
(dp4942
g16
g79
sbag5
(g6
g7
(lp4943
g5
(g6
g7
(lp4944
g5
(g6
g7
(lp4945
g3285
atp4946
Rp4947
(dp4948
g16
VLS
p4949
sbatp4950
Rp4951
(dp4952
g16
VLST
p4953
sbag5
(g6
g7
(lp4954
g79
atp4955
Rp4956
(dp4957
g16
g79
sbag5
(g6
g7
(lp4958
g5
(g6
g7
(lp4959
g5
(g6
g7
(lp4960
g3308
atp4961
Rp4962
(dp4963
g16
VNN
p4964
sbatp4965
Rp4966
(dp4967
g16
VNP
p4968
sbag5
(g6
g7
(lp4969
g79
atp4970
Rp4971
(dp4972
g16
g79
sbag5
(g6
g7
(lp4973
g5
(g6
g7
(lp4974
g5
(g6
g7
(lp4975
g3325
atp4976
Rp4977
(dp4978
g16
VNNP
p4979
sbag5
(g6
g7
(lp4980
g3237
atp4981
Rp4982
(dp4983
g16
VNNP
p4984
sbag5
(g6
g7
(lp4985
g3243
atp4986
Rp4987
(dp4988
g16
VPOS
p4989
sbatp4990
Rp4991
(dp4992
g16
VNP
p4993
sbag5
(g6
g7
(lp4994
V\u005c
p4995
atp4996
Rp4997
(dp4998
g16
VNN
p4999
sbag5
(g6
g7
(lp5000
Vu27e9
p5001
atp5002
Rp5003
(dp5004
g16
VNNS
p5005
sbag5
(g6
g7
(lp5006
g3243
atp5007
Rp5008
(dp5009
g16
V''
p5010
sbatp5011
Rp5012
(dp5013
g16
VNP
p5014
sbatp5015
Rp5016
(dp5017
g16
VNP
p5018
sbatp5019
Rp5020
(dp5021
g16
VNP
p5022
sbatp5023
Rp5024
(dp5025
g16
VNP
p5026
sbatp5027
Rp5028
(dp5029
g16
VSINV
p5030
sbatp5031
Rp5032
(dp5033
g16
VROOT
p5034
sbasg384
(icmyPackage
CorE
p5035
(dp5036
g387
(lp5037
(I0
I27
tp5038
a(I1
I36
tp5039
asg391
g5
(g6
g7
(lp5040
g4509
ag4523
ag4637
ag5032
atp5041
Rp5042
(dp5043
g16
g402
sbsbsg392
(icmyPackage
CorE
p5044
(dp5045
g387
(lp5046
(I0
I2
tp5047
a(I0
I25
tp5048
asg391
g5
(g6
g7
(lp5049
g4286
ag4293
ag4317
ag4322
ag4422
ag4427
ag4438
ag4447
ag4491
atp5050
Rp5051
(dp5052
g16
g402
sbsbsg403
g1036
sg427
(lp5053
(isxpPackage
sxpSent
p5054
(dp5055
g431
(lp5056
I13
asg433
VTo resolve the ambiguity of the time expressions, SUTime 1 1 http://nlp.stanford.edu/software/sutime.shtml [ 2 ] is employed, which takes text and a reference date as input and outputs a more accurate date which the time expression refers to
p5057
sg435
I4
sg417
I43
sg436
I9
sba(isxpPackage
sxpSent
p5058
(dp5059
g431
(lp5060
I13
aI14
asg433
VNamed entity recognition (NER) is a crucial step since the results would directly impact the final extracted 4-tuple u'\u005cu27e8' y , d , l , k u'\u005cu27e9'
p5061
sg435
I4
sg417
I44
sg436
I10
sbasba(icmyPackage
CELink
p5062
(dp5063
g3
(lp5064
g5032
asg384
(icmyPackage
CorE
p5065
(dp5066
g387
(lp5067
(I0
I11
tp5068
a(I0
I36
tp5069
asg391
g5
(g6
g7
(lp5070
g4848
ag4909
ag5024
atp5071
Rp5072
(dp5073
g16
g402
sbsbsg392
(icmyPackage
CorE
p5074
(dp5075
g387
(lp5076
(I0
I0
tp5077
a(I0
I9
tp5078
asg391
g5
(g6
g7
(lp5079
g4688
ag4740
ag4747
ag4769
atp5080
Rp5081
(dp5082
g16
g402
sbsbsg403
g699
sg427
(lp5083
g5058
asba(icmyPackage
CELink
p5084
(dp5085
g3
(lp5086
g5
(g6
g7
(lp5087
g5
(g6
g7
(lp5088
g5
(g6
g7
(lp5089
g5
(g6
g7
(lp5090
VIt
p5091
atp5092
Rp5093
(dp5094
g16
VPRP
p5095
sbatp5096
Rp5097
(dp5098
g16
VNP
p5099
sbag5
(g6
g7
(lp5100
g5
(g6
g7
(lp5101
Vis
p5102
atp5103
Rp5104
(dp5105
g16
VVBZ
p5106
sbag5
(g6
g7
(lp5107
Vnot
p5108
atp5109
Rp5110
(dp5111
g16
VRB
p5112
sbag5
(g6
g7
(lp5113
g5
(g6
g7
(lp5114
Veasy
p5115
atp5116
Rp5117
(dp5118
g16
VJJ
p5119
sbag5
(g6
g7
(lp5120
g5
(g6
g7
(lp5121
g5
(g6
g7
(lp5122
Vto
p5123
atp5124
Rp5125
(dp5126
g16
VTO
p5127
sbag5
(g6
g7
(lp5128
g5
(g6
g7
(lp5129
g5
(g6
g7
(lp5130
Vaccurately
p5131
atp5132
Rp5133
(dp5134
g16
VRB
p5135
sbatp5136
Rp5137
(dp5138
g16
VADVP
p5139
sbag5
(g6
g7
(lp5140
Videntify
p5141
atp5142
Rp5143
(dp5144
g16
VVB
p5145
sbag5
(g6
g7
(lp5146
g5
(g6
g7
(lp5147
g5
(g6
g7
(lp5148
Vnamed
p5149
atp5150
Rp5151
(dp5152
g16
VVBN
p5153
sbag5
(g6
g7
(lp5154
Ventities
p5155
atp5156
Rp5157
(dp5158
g16
VNNS
p5159
sbatp5160
Rp5161
(dp5162
g16
VNP
p5163
sbag5
(g6
g7
(lp5164
g5
(g6
g7
(lp5165
Vin
p5166
atp5167
Rp5168
(dp5169
g16
VIN
p5170
sbag5
(g6
g7
(lp5171
g5
(g6
g7
(lp5172
Vthe
p5173
atp5174
Rp5175
(dp5176
g16
VDT
p5177
sbag5
(g6
g7
(lp5178
VTwitter
p5179
atp5180
Rp5181
(dp5182
g16
VNNP
p5183
sbag5
(g6
g7
(lp5184
Vdata
p5185
atp5186
Rp5187
(dp5188
g16
VNN
p5189
sbatp5190
Rp5191
(dp5192
g16
VNP
p5193
sbatp5194
Rp5195
(dp5196
g16
VPP
p5197
sbatp5198
Rp5199
(dp5200
g16
VNP
p5201
sbatp5202
Rp5203
(dp5204
g16
VVP
p5205
sbatp5206
Rp5207
(dp5208
g16
VVP
p5209
sbatp5210
Rp5211
(dp5212
g16
g207
sbatp5213
Rp5214
(dp5215
g16
VADJP
p5216
sbag5
(g6
g7
(lp5217
g5
(g6
g7
(lp5218
Vsince
p5219
atp5220
Rp5221
(dp5222
g16
VIN
p5223
sbag5
(g6
g7
(lp5224
g5
(g6
g7
(lp5225
g5
(g6
g7
(lp5226
Vtweets
p5227
atp5228
Rp5229
(dp5230
g16
VNNS
p5231
sbatp5232
Rp5233
(dp5234
g16
VNP
p5235
sbag5
(g6
g7
(lp5236
g5
(g6
g7
(lp5237
Vcontain
p5238
atp5239
Rp5240
(dp5241
g16
VVBP
p5242
sbag5
(g6
g7
(lp5243
g5
(g6
g7
(lp5244
g5
(g6
g7
(lp5245
g1495
atp5246
Rp5247
(dp5248
g16
VDT
p5249
sbag5
(g6
g7
(lp5250
Vlot
p5251
atp5252
Rp5253
(dp5254
g16
VNN
p5255
sbatp5256
Rp5257
(dp5258
g16
VNP
p5259
sbag5
(g6
g7
(lp5260
g5
(g6
g7
(lp5261
Vof
p5262
atp5263
Rp5264
(dp5265
g16
VIN
p5266
sbag5
(g6
g7
(lp5267
g5
(g6
g7
(lp5268
Vmisspellings
p5269
atp5270
Rp5271
(dp5272
g16
VNNS
p5273
sbag5
(g6
g7
(lp5274
Vand
p5275
atp5276
Rp5277
(dp5278
g16
VCC
p5279
sbag5
(g6
g7
(lp5280
Vabbreviations
p5281
atp5282
Rp5283
(dp5284
g16
VNNS
p5285
sbatp5286
Rp5287
(dp5288
g16
VNP
p5289
sbatp5290
Rp5291
(dp5292
g16
VPP
p5293
sbatp5294
Rp5295
(dp5296
g16
VNP
p5297
sbatp5298
Rp5299
(dp5300
g16
VVP
p5301
sbatp5302
Rp5303
(dp5304
g16
g207
sbatp5305
Rp5306
(dp5307
g16
VSBAR
p5308
sbatp5309
Rp5310
(dp5311
g16
VVP
p5312
sbatp5313
Rp5314
(dp5315
g16
g207
sbatp5316
Rp5317
(dp5318
g16
VROOT
p5319
sbasg384
(icmyPackage
CorE
p5320
(dp5321
g387
(lp5322
(I0
I14
tp5323
a(I0
I21
tp5324
asg391
g5303
sbsg392
(icmyPackage
CorE
p5325
(dp5326
g387
(lp5327
(I0
I0
tp5328
a(I0
I12
tp5329
asg391
g5
(g6
g7
(lp5330
g5097
ag5104
ag5110
ag5214
atp5331
Rp5332
(dp5333
g16
g402
sbsbsg403
g699
sg427
(lp5334
(isxpPackage
sxpSent
p5335
(dp5336
g431
(lp5337
I15
asg433
VIt is not easy to accurately identify named entities in the Twitter data since tweets contain a lot of misspellings and abbreviations
p5338
sg435
I4
sg417
I45
sg436
I10
sbasba(icmyPackage
CELink
p5339
(dp5340
g3
(lp5341
g5
(g6
g7
(lp5342
g5
(g6
g7
(lp5343
g5
(g6
g7
(lp5344
g5
(g6
g7
(lp5345
VHowever
p5346
atp5347
Rp5348
(dp5349
g16
VRB
p5350
sbatp5351
Rp5352
(dp5353
g16
VADVP
p5354
sbag5
(g6
g7
(lp5355
g79
atp5356
Rp5357
(dp5358
g16
g79
sbag5
(g6
g7
(lp5359
g5
(g6
g7
(lp5360
Vit
p5361
atp5362
Rp5363
(dp5364
g16
VPRP
p5365
sbatp5366
Rp5367
(dp5368
g16
VNP
p5369
sbag5
(g6
g7
(lp5370
g5
(g6
g7
(lp5371
Vis
p5372
atp5373
Rp5374
(dp5375
g16
VVBZ
p5376
sbag5
(g6
g7
(lp5377
g5
(g6
g7
(lp5378
Voften
p5379
atp5380
Rp5381
(dp5382
g16
VRB
p5383
sbag5
(g6
g7
(lp5384
Vobserved
p5385
atp5386
Rp5387
(dp5388
g16
VJJ
p5389
sbatp5390
Rp5391
(dp5392
g16
VADJP
p5393
sbag5
(g6
g7
(lp5394
g5
(g6
g7
(lp5395
Vthat
p5396
atp5397
Rp5398
(dp5399
g16
VIN
p5400
sbag5
(g6
g7
(lp5401
g5
(g6
g7
(lp5402
g5
(g6
g7
(lp5403
g5
(g6
g7
(lp5404
Vevents
p5405
atp5406
Rp5407
(dp5408
g16
VNNS
p5409
sbatp5410
Rp5411
(dp5412
g16
VNP
p5413
sbag5
(g6
g7
(lp5414
g5
(g6
g7
(lp5415
Vmentioned
p5416
atp5417
Rp5418
(dp5419
g16
VVBN
p5420
sbag5
(g6
g7
(lp5421
g5
(g6
g7
(lp5422
Vin
p5423
atp5424
Rp5425
(dp5426
g16
VIN
p5427
sbag5
(g6
g7
(lp5428
g5
(g6
g7
(lp5429
Vtweets
p5430
atp5431
Rp5432
(dp5433
g16
VNNS
p5434
sbatp5435
Rp5436
(dp5437
g16
VNP
p5438
sbatp5439
Rp5440
(dp5441
g16
VPP
p5442
sbatp5443
Rp5444
(dp5445
g16
VVP
p5446
sbatp5447
Rp5448
(dp5449
g16
VNP
p5450
sbag5
(g6
g7
(lp5451
g5
(g6
g7
(lp5452
Vare
p5453
atp5454
Rp5455
(dp5456
g16
VVBP
p5457
sbag5
(g6
g7
(lp5458
g5
(g6
g7
(lp5459
Valso
p5460
atp5461
Rp5462
(dp5463
g16
VRB
p5464
sbatp5465
Rp5466
(dp5467
g16
VADVP
p5468
sbag5
(g6
g7
(lp5469
g5
(g6
g7
(lp5470
Vreported
p5471
atp5472
Rp5473
(dp5474
g16
VVBN
p5475
sbag5
(g6
g7
(lp5476
g5
(g6
g7
(lp5477
Vin
p5478
atp5479
Rp5480
(dp5481
g16
VIN
p5482
sbag5
(g6
g7
(lp5483
g5
(g6
g7
(lp5484
Vnews
p5485
atp5486
Rp5487
(dp5488
g16
VNN
p5489
sbag5
(g6
g7
(lp5490
Varticles
p5491
atp5492
Rp5493
(dp5494
g16
VNNS
p5495
sbatp5496
Rp5497
(dp5498
g16
VNP
p5499
sbatp5500
Rp5501
(dp5502
g16
VPP
p5503
sbag5
(g6
g7
(lp5504
g5
(g6
g7
(lp5505
Vin
p5506
atp5507
Rp5508
(dp5509
g16
VIN
p5510
sbag5
(g6
g7
(lp5511
g5
(g6
g7
(lp5512
g5
(g6
g7
(lp5513
Vthe
p5514
atp5515
Rp5516
(dp5517
g16
VDT
p5518
sbag5
(g6
g7
(lp5519
Vsame
p5520
atp5521
Rp5522
(dp5523
g16
VJJ
p5524
sbag5
(g6
g7
(lp5525
Vperiod
p5526
atp5527
Rp5528
(dp5529
g16
VNN
p5530
sbatp5531
Rp5532
(dp5533
g16
VNP
p5534
sbag5
(g6
g7
(lp5535
g5
(g6
g7
(lp5536
V-LSB-
p5537
atp5538
Rp5539
(dp5540
g16
VVBG
p5541
sbag5
(g6
g7
(lp5542
g5
(g6
g7
(lp5543
V10
p5544
atp5545
Rp5546
(dp5547
g16
VCD
p5548
sbag5
(g6
g7
(lp5549
V-RSB-
p5550
atp5551
Rp5552
(dp5553
g16
VNNS
p5554
sbatp5555
Rp5556
(dp5557
g16
VNP
p5558
sbatp5559
Rp5560
(dp5561
g16
VVP
p5562
sbatp5563
Rp5564
(dp5565
g16
VNP
p5566
sbatp5567
Rp5568
(dp5569
g16
VPP
p5570
sbatp5571
Rp5572
(dp5573
g16
VVP
p5574
sbatp5575
Rp5576
(dp5577
g16
VVP
p5578
sbatp5579
Rp5580
(dp5581
g16
g207
sbatp5582
Rp5583
(dp5584
g16
VSBAR
p5585
sbatp5586
Rp5587
(dp5588
g16
VVP
p5589
sbatp5590
Rp5591
(dp5592
g16
g207
sbatp5593
Rp5594
(dp5595
g16
VROOT
p5596
sbag5
(g6
g7
(lp5597
g5
(g6
g7
(lp5598
g5
(g6
g7
(lp5599
g5
(g6
g7
(lp5600
VTherefore
p5601
atp5602
Rp5603
(dp5604
g16
VRB
p5605
sbatp5606
Rp5607
(dp5608
g16
VADVP
p5609
sbag5
(g6
g7
(lp5610
g79
atp5611
Rp5612
(dp5613
g16
g79
sbag5
(g6
g7
(lp5614
g5
(g6
g7
(lp5615
g5
(g6
g7
(lp5616
Vnamed
p5617
atp5618
Rp5619
(dp5620
g16
VVBN
p5621
sbag5
(g6
g7
(lp5622
Ventities
p5623
atp5624
Rp5625
(dp5626
g16
VNNS
p5627
sbatp5628
Rp5629
(dp5630
g16
VNP
p5631
sbag5
(g6
g7
(lp5632
g5
(g6
g7
(lp5633
Vmentioned
p5634
atp5635
Rp5636
(dp5637
g16
VVBN
p5638
sbag5
(g6
g7
(lp5639
g5
(g6
g7
(lp5640
Vin
p5641
atp5642
Rp5643
(dp5644
g16
VIN
p5645
sbag5
(g6
g7
(lp5646
g5
(g6
g7
(lp5647
Vtweets
p5648
atp5649
Rp5650
(dp5651
g16
VNNS
p5652
sbatp5653
Rp5654
(dp5655
g16
VNP
p5656
sbatp5657
Rp5658
(dp5659
g16
VPP
p5660
sbatp5661
Rp5662
(dp5663
g16
VVP
p5664
sbatp5665
Rp5666
(dp5667
g16
VNP
p5668
sbag5
(g6
g7
(lp5669
g5
(g6
g7
(lp5670
Vare
p5671
atp5672
Rp5673
(dp5674
g16
VVBP
p5675
sbag5
(g6
g7
(lp5676
g5
(g6
g7
(lp5677
Vlikely
p5678
atp5679
Rp5680
(dp5681
g16
VJJ
p5682
sbag5
(g6
g7
(lp5683
g5
(g6
g7
(lp5684
g5
(g6
g7
(lp5685
Vto
p5686
atp5687
Rp5688
(dp5689
g16
VTO
p5690
sbag5
(g6
g7
(lp5691
g5
(g6
g7
(lp5692
Vappear
p5693
atp5694
Rp5695
(dp5696
g16
VVB
p5697
sbag5
(g6
g7
(lp5698
g5
(g6
g7
(lp5699
Vin
p5700
atp5701
Rp5702
(dp5703
g16
VIN
p5704
sbag5
(g6
g7
(lp5705
g5
(g6
g7
(lp5706
Vnews
p5707
atp5708
Rp5709
(dp5710
g16
VNN
p5711
sbag5
(g6
g7
(lp5712
Varticles
p5713
atp5714
Rp5715
(dp5716
g16
VNNS
p5717
sbatp5718
Rp5719
(dp5720
g16
VNP
p5721
sbatp5722
Rp5723
(dp5724
g16
VPP
p5725
sbag5
(g6
g7
(lp5726
g5
(g6
g7
(lp5727
Vas
p5728
atp5729
Rp5730
(dp5731
g16
VRB
p5732
sbag5
(g6
g7
(lp5733
Vwell
p5734
atp5735
Rp5736
(dp5737
g16
VRB
p5738
sbatp5739
Rp5740
(dp5741
g16
VADVP
p5742
sbatp5743
Rp5744
(dp5745
g16
VVP
p5746
sbatp5747
Rp5748
(dp5749
g16
VVP
p5750
sbatp5751
Rp5752
(dp5753
g16
g207
sbatp5754
Rp5755
(dp5756
g16
VADJP
p5757
sbatp5758
Rp5759
(dp5760
g16
VVP
p5761
sbatp5762
Rp5763
(dp5764
g16
g207
sbatp5765
Rp5766
(dp5767
g16
VROOT
p5768
sbasg384
(icmyPackage
CorE
p5769
(dp5770
g387
(lp5771
(I0
I0
tp5772
a(I0
I23
tp5773
asg391
g5594
sbsg392
(icmyPackage
CorE
p5774
(dp5775
g387
(lp5776
(I1
I2
tp5777
a(I1
I15
tp5778
asg391
g5
(g6
g7
(lp5779
g5666
ag5759
atp5780
Rp5781
(dp5782
g16
g402
sbsbsg403
g404
sg427
(lp5783
(isxpPackage
sxpSent
p5784
(dp5785
g431
(lp5786
I16
asg433
VHowever, it is often observed that events mentioned in tweets are also reported in news articles in the same period [ 10 ]
p5787
sg435
I4
sg417
I46
sg436
I10
sba(isxpPackage
sxpSent
p5788
(dp5789
g431
(lp5790
I16
aI17
asg433
VTherefore, named entities mentioned in tweets are likely to appear in news articles as well
p5791
sg435
I4
sg417
I47
sg436
I10
sbasba(icmyPackage
CELink
p5792
(dp5793
g3
(lp5794
g5766
ag5
(g6
g7
(lp5795
g5
(g6
g7
(lp5796
g5
(g6
g7
(lp5797
g5
(g6
g7
(lp5798
VWe
p5799
atp5800
Rp5801
(dp5802
g16
VPRP
p5803
sbatp5804
Rp5805
(dp5806
g16
VNP
p5807
sbag5
(g6
g7
(lp5808
g5
(g6
g7
(lp5809
g5
(g6
g7
(lp5810
Vthus
p5811
atp5812
Rp5813
(dp5814
g16
VRB
p5815
sbatp5816
Rp5817
(dp5818
g16
VADVP
p5819
sbag5
(g6
g7
(lp5820
Vperform
p5821
atp5822
Rp5823
(dp5824
g16
VVBP
p5825
sbag5
(g6
g7
(lp5826
g5
(g6
g7
(lp5827
g5
(g6
g7
(lp5828
Vnamed
p5829
atp5830
Rp5831
(dp5832
g16
VVBN
p5833
sbag5
(g6
g7
(lp5834
Ventity
p5835
atp5836
Rp5837
(dp5838
g16
VNN
p5839
sbag5
(g6
g7
(lp5840
Vrecognition
p5841
atp5842
Rp5843
(dp5844
g16
VNN
p5845
sbatp5846
Rp5847
(dp5848
g16
VNP
p5849
sbag5
(g6
g7
(lp5850
g5
(g6
g7
(lp5851
Vin
p5852
atp5853
Rp5854
(dp5855
g16
VIN
p5856
sbag5
(g6
g7
(lp5857
g5
(g6
g7
(lp5858
Vthe
p5859
atp5860
Rp5861
(dp5862
g16
VDT
p5863
sbag5
(g6
g7
(lp5864
Vfollowing
p5865
atp5866
Rp5867
(dp5868
g16
VJJ
p5869
sbag5
(g6
g7
(lp5870
Vway
p5871
atp5872
Rp5873
(dp5874
g16
VNN
p5875
sbatp5876
Rp5877
(dp5878
g16
VNP
p5879
sbatp5880
Rp5881
(dp5882
g16
VPP
p5883
sbatp5884
Rp5885
(dp5886
g16
VNP
p5887
sbatp5888
Rp5889
(dp5890
g16
VVP
p5891
sbatp5892
Rp5893
(dp5894
g16
g207
sbatp5895
Rp5896
(dp5897
g16
VROOT
p5898
sbasg384
(icmyPackage
CorE
p5899
(dp5900
g387
(lp5901
(I0
I1
tp5902
a(I1
I0
tp5903
asg391
g5
(g6
g7
(lp5904
g5612
ag5666
ag5759
ag5805
atp5905
Rp5906
(dp5907
g16
g402
sbsbsg392
(icmyPackage
CorE
p5908
(dp5909
g387
(lp5910
(I1
I2
tp5911
a(I1
I9
tp5912
asg391
g5
(g6
g7
(lp5913
g5823
ag5885
atp5914
Rp5915
(dp5916
g16
g402
sbsbsg403
g3119
sg427
(lp5917
g5788
a(isxpPackage
sxpSent
p5918
(dp5919
g431
(lp5920
I17
asg433
VWe thus perform named entity recognition in the following way
p5921
sg435
I4
sg417
I48
sg436
I10
sbasba(icmyPackage
CELink
p5922
(dp5923
g3
(lp5924
g5
(g6
g7
(lp5925
g5
(g6
g7
(lp5926
g5
(g6
g7
(lp5927
g5
(g6
g7
(lp5928
g5
(g6
g7
(lp5929
VNamed
p5930
atp5931
Rp5932
(dp5933
g16
VJJ
p5934
sbag5
(g6
g7
(lp5935
Ventities
p5936
atp5937
Rp5938
(dp5939
g16
VNNS
p5940
sbatp5941
Rp5942
(dp5943
g16
VNP
p5944
sbag5
(g6
g7
(lp5945
g5
(g6
g7
(lp5946
Vfrom
p5947
atp5948
Rp5949
(dp5950
g16
VIN
p5951
sbag5
(g6
g7
(lp5952
g5
(g6
g7
(lp5953
Vtweets
p5954
atp5955
Rp5956
(dp5957
g16
VNNS
p5958
sbatp5959
Rp5960
(dp5961
g16
VNP
p5962
sbatp5963
Rp5964
(dp5965
g16
VPP
p5966
sbatp5967
Rp5968
(dp5969
g16
VNP
p5970
sbag5
(g6
g7
(lp5971
g5
(g6
g7
(lp5972
Vare
p5973
atp5974
Rp5975
(dp5976
g16
VVBP
p5977
sbag5
(g6
g7
(lp5978
g5
(g6
g7
(lp5979
Vextracted
p5980
atp5981
Rp5982
(dp5983
g16
VVBN
p5984
sbag5
(g6
g7
(lp5985
g5
(g6
g7
(lp5986
Vby
p5987
atp5988
Rp5989
(dp5990
g16
VIN
p5991
sbag5
(g6
g7
(lp5992
g5
(g6
g7
(lp5993
g5
(g6
g7
(lp5994
Vlooking
p5995
atp5996
Rp5997
(dp5998
g16
VVBG
p5999
sbag5
(g6
g7
(lp6000
g5
(g6
g7
(lp6001
Vup
p6002
atp6003
Rp6004
(dp6005
g16
VRP
p6006
sbatp6007
Rp6008
(dp6009
g16
VPRT
p6010
sbag5
(g6
g7
(lp6011
g5
(g6
g7
(lp6012
Vthe
p6013
atp6014
Rp6015
(dp6016
g16
VDT
p6017
sbag5
(g6
g7
(lp6018
Vdictionary
p6019
atp6020
Rp6021
(dp6022
g16
VNN
p6023
sbatp6024
Rp6025
(dp6026
g16
VNP
p6027
sbag5
(g6
g7
(lp6028
g5
(g6
g7
(lp6029
Vthrough
p6030
atp6031
Rp6032
(dp6033
g16
VIN
p6034
sbag5
(g6
g7
(lp6035
g5
(g6
g7
(lp6036
Vfuzzy
p6037
atp6038
Rp6039
(dp6040
g16
VJJ
p6041
sbag5
(g6
g7
(lp6042
Vmatching
p6043
atp6044
Rp6045
(dp6046
g16
VNN
p6047
sbatp6048
Rp6049
(dp6050
g16
VNP
p6051
sbatp6052
Rp6053
(dp6054
g16
VPP
p6055
sbatp6056
Rp6057
(dp6058
g16
VVP
p6059
sbatp6060
Rp6061
(dp6062
g16
g207
sbatp6063
Rp6064
(dp6065
g16
VPP
p6066
sbatp6067
Rp6068
(dp6069
g16
VVP
p6070
sbatp6071
Rp6072
(dp6073
g16
VVP
p6074
sbatp6075
Rp6076
(dp6077
g16
g207
sbatp6078
Rp6079
(dp6080
g16
VROOT
p6081
sbasg384
(icmyPackage
CorE
p6082
(dp6083
g387
(lp6084
(I0
I7
tp6085
a(I0
I13
tp6086
asg391
g6061
sbsg392
(icmyPackage
CorE
p6087
(dp6088
g387
(lp6089
(I0
I0
tp6090
a(I0
I5
tp6091
asg391
g5
(g6
g7
(lp6092
g5968
ag5975
ag5982
atp6093
Rp6094
(dp6095
g16
g402
sbsbsg403
g1984
sg427
(lp6096
(isxpPackage
sxpSent
p6097
(dp6098
g431
(lp6099
I18
asg433
VNamed entities from tweets are extracted by looking up the dictionary through fuzzy matching
p6100
sg435
I4
sg417
I51
sg436
I10
sbasba(icmyPackage
CELink
p6101
(dp6102
g3
(lp6103
g5
(g6
g7
(lp6104
g5
(g6
g7
(lp6105
g5
(g6
g7
(lp6106
g5
(g6
g7
(lp6107
VAfter
p6108
atp6109
Rp6110
(dp6111
g16
VIN
p6112
sbag5
(g6
g7
(lp6113
g5
(g6
g7
(lp6114
Vthe
p6115
atp6116
Rp6117
(dp6118
g16
VDT
p6119
sbag5
(g6
g7
(lp6120
Vpre-processing
p6121
atp6122
Rp6123
(dp6124
g16
VJJ
p6125
sbag5
(g6
g7
(lp6126
Vstep
p6127
atp6128
Rp6129
(dp6130
g16
VNN
p6131
sbatp6132
Rp6133
(dp6134
g16
VNP
p6135
sbatp6136
Rp6137
(dp6138
g16
VPP
p6139
sbag5
(g6
g7
(lp6140
g79
atp6141
Rp6142
(dp6143
g16
g79
sbag5
(g6
g7
(lp6144
g5
(g6
g7
(lp6145
g5
(g6
g7
(lp6146
Vnon-location
p6147
atp6148
Rp6149
(dp6150
g16
VJJ
p6151
sbag5
(g6
g7
(lp6152
Ventities
p6153
atp6154
Rp6155
(dp6156
g16
VNNS
p6157
sbatp6158
Rp6159
(dp6160
g16
VNP
p6161
sbag5
(g6
g7
(lp6162
g5
(g6
g7
(lp6163
g5
(g6
g7
(lp6164
g5
(g6
g7
(lp6165
g5
(g6
g7
(lp6166
g3270
atp6167
Rp6168
(dp6169
g16
VNN
p6170
sbatp6171
Rp6172
(dp6173
g16
VNP
p6174
sbag5
(g6
g7
(lp6175
g79
atp6176
Rp6177
(dp6178
g16
g79
sbag5
(g6
g7
(lp6179
g5
(g6
g7
(lp6180
g5
(g6
g7
(lp6181
Vlocations
p6182
atp6183
Rp6184
(dp6185
g16
VNNS
p6186
sbatp6187
Rp6188
(dp6189
g16
VNP
p6190
sbag5
(g6
g7
(lp6191
g5
(g6
g7
(lp6192
g3308
atp6193
Rp6194
(dp6195
g16
VNN
p6196
sbatp6197
Rp6198
(dp6199
g16
VNP
p6200
sbatp6201
Rp6202
(dp6203
g16
VNP
p6204
sbag5
(g6
g7
(lp6205
g79
atp6206
Rp6207
(dp6208
g16
g79
sbatp6209
Rp6210
(dp6211
g16
VNP
p6212
sbag5
(g6
g7
(lp6213
g5
(g6
g7
(lp6214
Vdates
p6215
atp6216
Rp6217
(dp6218
g16
VVBZ
p6219
sbag5
(g6
g7
(lp6220
g5
(g6
g7
(lp6221
g5
(g6
g7
(lp6222
g3285
atp6223
Rp6224
(dp6225
g16
VSYM
p6226
sbatp6227
Rp6228
(dp6229
g16
VNP
p6230
sbag5
(g6
g7
(lp6231
Vand
p6232
atp6233
Rp6234
(dp6235
g16
VCC
p6236
sbag5
(g6
g7
(lp6237
g5
(g6
g7
(lp6238
g5
(g6
g7
(lp6239
Vcandidate
p6240
atp6241
Rp6242
(dp6243
g16
VNN
p6244
sbag5
(g6
g7
(lp6245
Vkeywords
p6246
atp6247
Rp6248
(dp6249
g16
VNNS
p6250
sbatp6251
Rp6252
(dp6253
g16
VNP
p6254
sbag5
(g6
g7
(lp6255
g5
(g6
g7
(lp6256
Vof
p6257
atp6258
Rp6259
(dp6260
g16
VIN
p6261
sbag5
(g6
g7
(lp6262
g5
(g6
g7
(lp6263
Vthe
p6264
atp6265
Rp6266
(dp6267
g16
VDT
p6268
sbag5
(g6
g7
(lp6269
Vtweets
p6270
atp6271
Rp6272
(dp6273
g16
VNNS
p6274
sbatp6275
Rp6276
(dp6277
g16
VNP
p6278
sbatp6279
Rp6280
(dp6281
g16
VPP
p6282
sbatp6283
Rp6284
(dp6285
g16
VNP
p6286
sbatp6287
Rp6288
(dp6289
g16
VNP
p6290
sbatp6291
Rp6292
(dp6293
g16
VVP
p6294
sbatp6295
Rp6296
(dp6297
g16
g207
sbatp6298
Rp6299
(dp6300
g16
VSBAR
p6301
sbatp6302
Rp6303
(dp6304
g16
VNP
p6305
sbag5
(g6
g7
(lp6306
g5
(g6
g7
(lp6307
Vare
p6308
atp6309
Rp6310
(dp6311
g16
VVBP
p6312
sbag5
(g6
g7
(lp6313
g5
(g6
g7
(lp6314
Vcollected
p6315
atp6316
Rp6317
(dp6318
g16
VVBN
p6319
sbag5
(g6
g7
(lp6320
g5
(g6
g7
(lp6321
Vas
p6322
atp6323
Rp6324
(dp6325
g16
VIN
p6326
sbag5
(g6
g7
(lp6327
g5
(g6
g7
(lp6328
Vthe
p6329
atp6330
Rp6331
(dp6332
g16
VDT
p6333
sbag5
(g6
g7
(lp6334
Vinput
p6335
atp6336
Rp6337
(dp6338
g16
VNN
p6339
sbatp6340
Rp6341
(dp6342
g16
VNP
p6343
sbatp6344
Rp6345
(dp6346
g16
VPP
p6347
sbag5
(g6
g7
(lp6348
g5
(g6
g7
(lp6349
Vto
p6350
atp6351
Rp6352
(dp6353
g16
VTO
p6354
sbag5
(g6
g7
(lp6355
g5
(g6
g7
(lp6356
g5
(g6
g7
(lp6357
Vthe
p6358
atp6359
Rp6360
(dp6361
g16
VDT
p6362
sbag5
(g6
g7
(lp6363
VLEM
p6364
atp6365
Rp6366
(dp6367
g16
VNNP
p6368
sbag5
(g6
g7
(lp6369
Vmodel
p6370
atp6371
Rp6372
(dp6373
g16
VNN
p6374
sbatp6375
Rp6376
(dp6377
g16
VNP
p6378
sbag5
(g6
g7
(lp6379
g5
(g6
g7
(lp6380
Vfor
p6381
atp6382
Rp6383
(dp6384
g16
VIN
p6385
sbag5
(g6
g7
(lp6386
g5
(g6
g7
(lp6387
Vevent
p6388
atp6389
Rp6390
(dp6391
g16
VNN
p6392
sbag5
(g6
g7
(lp6393
Vextraction
p6394
atp6395
Rp6396
(dp6397
g16
VNN
p6398
sbatp6399
Rp6400
(dp6401
g16
VNP
p6402
sbatp6403
Rp6404
(dp6405
g16
VPP
p6406
sbatp6407
Rp6408
(dp6409
g16
VNP
p6410
sbatp6411
Rp6412
(dp6413
g16
VPP
p6414
sbatp6415
Rp6416
(dp6417
g16
VVP
p6418
sbatp6419
Rp6420
(dp6421
g16
VVP
p6422
sbatp6423
Rp6424
(dp6425
g16
g207
sbatp6426
Rp6427
(dp6428
g16
VROOT
p6429
sbag5
(g6
g7
(lp6430
g5
(g6
g7
(lp6431
g5
(g6
g7
(lp6432
g5
(g6
g7
(lp6433
VWe
p6434
atp6435
Rp6436
(dp6437
g16
VPRP
p6438
sbatp6439
Rp6440
(dp6441
g16
VNP
p6442
sbag5
(g6
g7
(lp6443
g5
(g6
g7
(lp6444
Vpropose
p6445
atp6446
Rp6447
(dp6448
g16
VVBP
p6449
sbag5
(g6
g7
(lp6450
g5
(g6
g7
(lp6451
g5
(g6
g7
(lp6452
g5
(g6
g7
(lp6453
Van
p6454
atp6455
Rp6456
(dp6457
g16
VDT
p6458
sbag5
(g6
g7
(lp6459
g5
(g6
g7
(lp6460
Vunsupervised
p6461
atp6462
Rp6463
(dp6464
g16
VJJ
p6465
sbag5
(g6
g7
(lp6466
Vlatent
p6467
atp6468
Rp6469
(dp6470
g16
VJJ
p6471
sbatp6472
Rp6473
(dp6474
g16
VADJP
p6475
sbag5
(g6
g7
(lp6476
Vvariable
p6477
atp6478
Rp6479
(dp6480
g16
VJJ
p6481
sbag5
(g6
g7
(lp6482
Vmodel
p6483
atp6484
Rp6485
(dp6486
g16
VNN
p6487
sbatp6488
Rp6489
(dp6490
g16
VNP
p6491
sbag5
(g6
g7
(lp6492
g79
atp6493
Rp6494
(dp6495
g16
g79
sbag5
(g6
g7
(lp6496
g5
(g6
g7
(lp6497
Vcalled
p6498
atp6499
Rp6500
(dp6501
g16
VVBN
p6502
sbag5
(g6
g7
(lp6503
g5
(g6
g7
(lp6504
g5
(g6
g7
(lp6505
Vthe
p6506
atp6507
Rp6508
(dp6509
g16
VDT
p6510
sbag5
(g6
g7
(lp6511
VLatent
p6512
atp6513
Rp6514
(dp6515
g16
VNNP
p6516
sbag5
(g6
g7
(lp6517
VEvent
p6518
atp6519
Rp6520
(dp6521
g16
VNNP
p6522
sbag5
(g6
g7
(lp6523
VModel
p6524
atp6525
Rp6526
(dp6527
g16
VNNP
p6528
sbatp6529
Rp6530
(dp6531
g16
VNP
p6532
sbag5
(g6
g7
(lp6533
g5
(g6
g7
(lp6534
V-LRB-
p6535
atp6536
Rp6537
(dp6538
g16
V-LRB-
p6539
sbag5
(g6
g7
(lp6540
g5
(g6
g7
(lp6541
VLEM
p6542
atp6543
Rp6544
(dp6545
g16
VNNP
p6546
sbatp6547
Rp6548
(dp6549
g16
VNP
p6550
sbag5
(g6
g7
(lp6551
V-RRB-
p6552
atp6553
Rp6554
(dp6555
g16
V-RRB-
p6556
sbatp6557
Rp6558
(dp6559
g16
VPRN
p6560
sbatp6561
Rp6562
(dp6563
g16
VNP
p6564
sbatp6565
Rp6566
(dp6567
g16
VVP
p6568
sbag5
(g6
g7
(lp6569
g79
atp6570
Rp6571
(dp6572
g16
g79
sbatp6573
Rp6574
(dp6575
g16
VNP
p6576
sbag5
(g6
g7
(lp6577
g5
(g6
g7
(lp6578
Vto
p6579
atp6580
Rp6581
(dp6582
g16
VTO
p6583
sbag5
(g6
g7
(lp6584
g5
(g6
g7
(lp6585
Vextract
p6586
atp6587
Rp6588
(dp6589
g16
VVB
p6590
sbag5
(g6
g7
(lp6591
g5
(g6
g7
(lp6592
Vevents
p6593
atp6594
Rp6595
(dp6596
g16
VNNS
p6597
sbatp6598
Rp6599
(dp6600
g16
VNP
p6601
sbag5
(g6
g7
(lp6602
g5
(g6
g7
(lp6603
Vfrom
p6604
atp6605
Rp6606
(dp6607
g16
VIN
p6608
sbag5
(g6
g7
(lp6609
g5
(g6
g7
(lp6610
Vtweets
p6611
atp6612
Rp6613
(dp6614
g16
VNNS
p6615
sbatp6616
Rp6617
(dp6618
g16
VNP
p6619
sbatp6620
Rp6621
(dp6622
g16
VPP
p6623
sbatp6624
Rp6625
(dp6626
g16
VVP
p6627
sbatp6628
Rp6629
(dp6630
g16
VVP
p6631
sbatp6632
Rp6633
(dp6634
g16
g207
sbatp6635
Rp6636
(dp6637
g16
VVP
p6638
sbatp6639
Rp6640
(dp6641
g16
g207
sbatp6642
Rp6643
(dp6644
g16
VROOT
p6645
sbasg384
(icmyPackage
CorE
p6646
(dp6647
g387
(lp6648
(I0
I23
tp6649
a(I1
I20
tp6650
asg391
g5
(g6
g7
(lp6651
g6341
ag6412
ag6440
ag6447
ag6574
ag6581
ag6588
ag6599
ag6606
atp6652
Rp6653
(dp6654
g16
g402
sbsbsg392
(icmyPackage
CorE
p6655
(dp6656
g387
(lp6657
(I0
I0
tp6658
a(I0
I21
tp6659
asg391
g5
(g6
g7
(lp6660
g6137
ag6142
ag6303
ag6310
ag6317
atp6661
Rp6662
(dp6663
g16
g402
sbsbsg403
g1036
sg427
(lp6664
(isxpPackage
sxpSent
p6665
(dp6666
g431
(lp6667
I19
asg433
VAfter the pre-processing step, non-location entities y , locations l , dates d and candidate keywords of the tweets are collected as the input to the LEM model for event extraction
p6668
sg435
I4
sg417
I57
sg436
I12
sba(isxpPackage
sxpSent
p6669
(dp6670
g431
(lp6671
I19
asg433
VWe propose an unsupervised latent variable model, called the Latent Event Model (LEM), to extract events from tweets
p6672
sg435
I7
sg417
I58
sg436
I13
sbasba(icmyPackage
CELink
p6673
(dp6674
g3
(lp6675
g5
(g6
g7
(lp6676
g5
(g6
g7
(lp6677
g5
(g6
g7
(lp6678
g5
(g6
g7
(lp6679
VIn
p6680
atp6681
Rp6682
(dp6683
g16
VIN
p6684
sbag5
(g6
g7
(lp6685
g5
(g6
g7
(lp6686
Vthis
p6687
atp6688
Rp6689
(dp6690
g16
VDT
p6691
sbag5
(g6
g7
(lp6692
Vmodel
p6693
atp6694
Rp6695
(dp6696
g16
VNN
p6697
sbatp6698
Rp6699
(dp6700
g16
VNP
p6701
sbatp6702
Rp6703
(dp6704
g16
VPP
p6705
sbag5
(g6
g7
(lp6706
g79
atp6707
Rp6708
(dp6709
g16
g79
sbag5
(g6
g7
(lp6710
g5
(g6
g7
(lp6711
Vwe
p6712
atp6713
Rp6714
(dp6715
g16
VPRP
p6716
sbatp6717
Rp6718
(dp6719
g16
VNP
p6720
sbag5
(g6
g7
(lp6721
g5
(g6
g7
(lp6722
Vassume
p6723
atp6724
Rp6725
(dp6726
g16
VVBP
p6727
sbag5
(g6
g7
(lp6728
g5
(g6
g7
(lp6729
Vthat
p6730
atp6731
Rp6732
(dp6733
g16
VIN
p6734
sbag5
(g6
g7
(lp6735
g5
(g6
g7
(lp6736
g5
(g6
g7
(lp6737
g5
(g6
g7
(lp6738
g5
(g6
g7
(lp6739
Veach
p6740
atp6741
Rp6742
(dp6743
g16
VDT
p6744
sbag5
(g6
g7
(lp6745
Vtweet
p6746
atp6747
Rp6748
(dp6749
g16
VJJ
p6750
sbag5
(g6
g7
(lp6751
Vmessage
p6752
atp6753
Rp6754
(dp6755
g16
VNN
p6756
sbag5
(g6
g7
(lp6757
Vm
p6758
atp6759
Rp6760
(dp6761
g16
VNN
p6762
sbag5
(g6
g7
(lp6763
g3237
atp6764
Rp6765
(dp6766
g16
VNN
p6767
sbag5
(g6
g7
(lp6768
g3243
atp6769
Rp6770
(dp6771
g16
VPOS
p6772
sbatp6773
Rp6774
(dp6775
g16
VNP
p6776
sbag5
(g6
g7
(lp6777
V\u005c
p6778
atp6779
Rp6780
(dp6781
g16
VNN
p6782
sbag5
(g6
g7
(lp6783
Vu2208
p6784
atp6785
Rp6786
(dp6787
g16
VNN
p6788
sbag5
(g6
g7
(lp6789
g3243
atp6790
Rp6791
(dp6792
g16
V''
p6793
sbatp6794
Rp6795
(dp6796
g16
VNP
p6797
sbag5
(g6
g7
(lp6798
g5
(g6
g7
(lp6799
g5
(g6
g7
(lp6800
V-LCB-
p6801
atp6802
Rp6803
(dp6804
g16
V-LRB-
p6805
sbag5
(g6
g7
(lp6806
g5
(g6
g7
(lp6807
g5
(g6
g7
(lp6808
g1906
atp6809
Rp6810
(dp6811
g16
VCD
p6812
sbag5
(g6
g7
(lp6813
g3237
atp6814
Rp6815
(dp6816
g16
VNN
p6817
sbag5
(g6
g7
(lp6818
g3243
atp6819
Rp6820
(dp6821
g16
VPOS
p6822
sbatp6823
Rp6824
(dp6825
g16
VNP
p6826
sbag5
(g6
g7
(lp6827
V\u005c
p6828
atp6829
Rp6830
(dp6831
g16
VJJ
p6832
sbag5
(g6
g7
(lp6833
g5
(g6
g7
(lp6834
Vu2062
p6835
atp6836
Rp6837
(dp6838
g16
VNNP
p6839
sbag5
(g6
g7
(lp6840
g3243
atp6841
Rp6842
(dp6843
g16
VPOS
p6844
sbatp6845
Rp6846
(dp6847
g16
VNP
p6848
sbag5
(g6
g7
(lp6849
VM
p6850
atp6851
Rp6852
(dp6853
g16
VNNP
p6854
sbatp6855
Rp6856
(dp6857
g16
VNP
p6858
sbag5
(g6
g7
(lp6859
V-RCB-
p6860
atp6861
Rp6862
(dp6863
g16
V-RRB-
p6864
sbag5
(g6
g7
(lp6865
g5
(g6
g7
(lp6866
Vis
p6867
atp6868
Rp6869
(dp6870
g16
VVBZ
p6871
sbag5
(g6
g7
(lp6872
g5
(g6
g7
(lp6873
Vassigned
p6874
atp6875
Rp6876
(dp6877
g16
VVBN
p6878
sbag5
(g6
g7
(lp6879
g5
(g6
g7
(lp6880
Vto
p6881
atp6882
Rp6883
(dp6884
g16
VTO
p6885
sbag5
(g6
g7
(lp6886
g5
(g6
g7
(lp6887
g5
(g6
g7
(lp6888
Vone
p6889
atp6890
Rp6891
(dp6892
g16
VCD
p6893
sbag5
(g6
g7
(lp6894
Vevent
p6895
atp6896
Rp6897
(dp6898
g16
VNN
p6899
sbag5
(g6
g7
(lp6900
Vinstance
p6901
atp6902
Rp6903
(dp6904
g16
VNN
p6905
sbatp6906
Rp6907
(dp6908
g16
VNP
p6909
sbag5
(g6
g7
(lp6910
g5
(g6
g7
(lp6911
Ve
p6912
atp6913
Rp6914
(dp6915
g16
VVBG
p6916
sbag5
(g6
g7
(lp6917
g79
atp6918
Rp6919
(dp6920
g16
g79
sbag5
(g6
g7
(lp6921
g5
(g6
g7
(lp6922
Vwhile
p6923
atp6924
Rp6925
(dp6926
g16
VIN
p6927
sbag5
(g6
g7
(lp6928
g5
(g6
g7
(lp6929
g6912
atp6930
Rp6931
(dp6932
g16
VSYM
p6933
sbatp6934
Rp6935
(dp6936
g16
VX
p6937
sbatp6938
Rp6939
(dp6940
g16
VSBAR
p6941
sbatp6942
Rp6943
(dp6944
g16
VVP
p6945
sbatp6946
Rp6947
(dp6948
g16
VNP
p6949
sbatp6950
Rp6951
(dp6952
g16
VPP
p6953
sbatp6954
Rp6955
(dp6956
g16
VVP
p6957
sbatp6958
Rp6959
(dp6960
g16
VVP
p6961
sbatp6962
Rp6963
(dp6964
g16
g207
sbatp6965
Rp6966
(dp6967
g16
VSBAR
p6968
sbatp6969
Rp6970
(dp6971
g16
VNP
p6972
sbag5
(g6
g7
(lp6973
g5
(g6
g7
(lp6974
Vis
p6975
atp6976
Rp6977
(dp6978
g16
VVBZ
p6979
sbag5
(g6
g7
(lp6980
g5
(g6
g7
(lp6981
Vmodeled
p6982
atp6983
Rp6984
(dp6985
g16
VVBN
p6986
sbag5
(g6
g7
(lp6987
g5
(g6
g7
(lp6988
Vas
p6989
atp6990
Rp6991
(dp6992
g16
VIN
p6993
sbag5
(g6
g7
(lp6994
g5
(g6
g7
(lp6995
g5
(g6
g7
(lp6996
g5
(g6
g7
(lp6997
g1495
atp6998
Rp6999
(dp7000
g16
VDT
p7001
sbag5
(g6
g7
(lp7002
Vjoint
p7003
atp7004
Rp7005
(dp7006
g16
VJJ
p7007
sbag5
(g6
g7
(lp7008
Vdistribution
p7009
atp7010
Rp7011
(dp7012
g16
VNN
p7013
sbatp7014
Rp7015
(dp7016
g16
VNP
p7017
sbag5
(g6
g7
(lp7018
g5
(g6
g7
(lp7019
Vover
p7020
atp7021
Rp7022
(dp7023
g16
VIN
p7024
sbag5
(g6
g7
(lp7025
g5
(g6
g7
(lp7026
Vthe
p7027
atp7028
Rp7029
(dp7030
g16
VDT
p7031
sbag5
(g6
g7
(lp7032
Vnamed
p7033
atp7034
Rp7035
(dp7036
g16
VVBN
p7037
sbag5
(g6
g7
(lp7038
Ventities
p7039
atp7040
Rp7041
(dp7042
g16
VNNS
p7043
sbag5
(g6
g7
(lp7044
g3270
atp7045
Rp7046
(dp7047
g16
VNN
p7048
sbatp7049
Rp7050
(dp7051
g16
VNP
p7052
sbatp7053
Rp7054
(dp7055
g16
VPP
p7056
sbatp7057
Rp7058
(dp7059
g16
VNP
p7060
sbag5
(g6
g7
(lp7061
g79
atp7062
Rp7063
(dp7064
g16
g79
sbag5
(g6
g7
(lp7065
g5
(g6
g7
(lp7066
g5
(g6
g7
(lp7067
Vthe
p7068
atp7069
Rp7070
(dp7071
g16
VDT
p7072
sbag5
(g6
g7
(lp7073
Vdate/time
p7074
atp7075
Rp7076
(dp7077
g16
VJJ
p7078
sbag5
(g6
g7
(lp7079
g3285
atp7080
Rp7081
(dp7082
g16
VNN
p7083
sbatp7084
Rp7085
(dp7086
g16
VNP
p7087
sbag5
(g6
g7
(lp7088
g5
(g6
g7
(lp7089
g5
(g6
g7
(lp7090
Vwhen
p7091
atp7092
Rp7093
(dp7094
g16
VWRB
p7095
sbatp7096
Rp7097
(dp7098
g16
VWHADVP
p7099
sbag5
(g6
g7
(lp7100
g5
(g6
g7
(lp7101
g5
(g6
g7
(lp7102
Vthe
p7103
atp7104
Rp7105
(dp7106
g16
VDT
p7107
sbag5
(g6
g7
(lp7108
Vevent
p7109
atp7110
Rp7111
(dp7112
g16
VNN
p7113
sbatp7114
Rp7115
(dp7116
g16
VNP
p7117
sbag5
(g6
g7
(lp7118
g5
(g6
g7
(lp7119
Voccurred
p7120
atp7121
Rp7122
(dp7123
g16
VVBD
p7124
sbag5
(g6
g7
(lp7125
g79
atp7126
Rp7127
(dp7128
g16
g79
sbag5
(g6
g7
(lp7129
g5
(g6
g7
(lp7130
g5
(g6
g7
(lp7131
Vthe
p7132
atp7133
Rp7134
(dp7135
g16
VDT
p7136
sbag5
(g6
g7
(lp7137
Vlocation
p7138
atp7139
Rp7140
(dp7141
g16
VNN
p7142
sbatp7143
Rp7144
(dp7145
g16
VNP
p7146
sbag5
(g6
g7
(lp7147
g5
(g6
g7
(lp7148
g3308
atp7149
Rp7150
(dp7151
g16
VJJ
p7152
sbatp7153
Rp7154
(dp7155
g16
VADJP
p7156
sbag5
(g6
g7
(lp7157
g5
(g6
g7
(lp7158
g5
(g6
g7
(lp7159
Vwhere
p7160
atp7161
Rp7162
(dp7163
g16
VWRB
p7164
sbatp7165
Rp7166
(dp7167
g16
VWHADVP
p7168
sbag5
(g6
g7
(lp7169
g5
(g6
g7
(lp7170
g5
(g6
g7
(lp7171
Vthe
p7172
atp7173
Rp7174
(dp7175
g16
VDT
p7176
sbag5
(g6
g7
(lp7177
Vevent
p7178
atp7179
Rp7180
(dp7181
g16
VNN
p7182
sbatp7183
Rp7184
(dp7185
g16
VNP
p7186
sbag5
(g6
g7
(lp7187
g5
(g6
g7
(lp7188
Voccurred
p7189
atp7190
Rp7191
(dp7192
g16
VVBD
p7193
sbatp7194
Rp7195
(dp7196
g16
VVP
p7197
sbatp7198
Rp7199
(dp7200
g16
g207
sbatp7201
Rp7202
(dp7203
g16
VSBAR
p7204
sbatp7205
Rp7206
(dp7207
g16
g207
sbatp7208
Rp7209
(dp7210
g16
VVP
p7211
sbatp7212
Rp7213
(dp7214
g16
g207
sbatp7215
Rp7216
(dp7217
g16
VSBAR
p7218
sbatp7219
Rp7220
(dp7221
g16
VNP
p7222
sbag5
(g6
g7
(lp7223
Vand
p7224
atp7225
Rp7226
(dp7227
g16
VCC
p7228
sbag5
(g6
g7
(lp7229
g5
(g6
g7
(lp7230
Vthe
p7231
atp7232
Rp7233
(dp7234
g16
VDT
p7235
sbag5
(g6
g7
(lp7236
Vevent-related
p7237
atp7238
Rp7239
(dp7240
g16
VJJ
p7241
sbag5
(g6
g7
(lp7242
Vkeywords
p7243
atp7244
Rp7245
(dp7246
g16
VNNS
p7247
sbag5
(g6
g7
(lp7248
g3325
atp7249
Rp7250
(dp7251
g16
VNN
p7252
sbatp7253
Rp7254
(dp7255
g16
VNP
p7256
sbatp7257
Rp7258
(dp7259
g16
VNP
p7260
sbatp7261
Rp7262
(dp7263
g16
VPP
p7264
sbatp7265
Rp7266
(dp7267
g16
VVP
p7268
sbatp7269
Rp7270
(dp7271
g16
VVP
p7272
sbatp7273
Rp7274
(dp7275
g16
g207
sbatp7276
Rp7277
(dp7278
g16
VSBAR
p7279
sbatp7280
Rp7281
(dp7282
g16
VVP
p7283
sbatp7284
Rp7285
(dp7286
g16
g207
sbatp7287
Rp7288
(dp7289
g16
VROOT
p7290
sbasg384
(icmyPackage
CorE
p7291
(dp7292
g387
(lp7293
(I0
I38
tp7294
a(I0
I57
tp7295
asg391
g5
(g6
g7
(lp7296
g7058
ag7063
ag7085
ag7097
ag7115
ag7122
ag7127
ag7144
ag7154
atp7297
Rp7298
(dp7299
g16
g402
sbsbsg392
(icmyPackage
CorE
p7300
(dp7301
g387
(lp7302
(I0
I0
tp7303
a(I0
I36
tp7304
asg391
g5
(g6
g7
(lp7305
g6703
ag6708
ag6718
ag6725
ag6732
ag6970
ag6977
ag6984
atp7306
Rp7307
(dp7308
g16
g402
sbsbsg403
g1036
sg427
(lp7309
(isxpPackage
sxpSent
p7310
(dp7311
g431
(lp7312
I20
asg433
VIn this model, we assume that each tweet message m u'\u005cu2208' { 1 u'\u005cu2062' M } is assigned to one event instance e , while e is modeled as a joint distribution over the named entities y , the date/time d when the event occurred, the location l where the event occurred and the event-related keywords k
p7313
sg435
I7
sg417
I60
sg436
I14
sbasba(icmyPackage
CELink
p7314
(dp7315
g3
(lp7316
g5
(g6
g7
(lp7317
g5
(g6
g7
(lp7318
g5
(g6
g7
(lp7319
g5
(g6
g7
(lp7320
VOnce
p7321
atp7322
Rp7323
(dp7324
g16
VIN
p7325
sbag5
(g6
g7
(lp7326
g5
(g6
g7
(lp7327
g5
(g6
g7
(lp7328
Vthe
p7329
atp7330
Rp7331
(dp7332
g16
VDT
p7333
sbag5
(g6
g7
(lp7334
Vclass
p7335
atp7336
Rp7337
(dp7338
g16
VNN
p7339
sbatp7340
Rp7341
(dp7342
g16
VNP
p7343
sbag5
(g6
g7
(lp7344
g5
(g6
g7
(lp7345
Vassignments
p7346
atp7347
Rp7348
(dp7349
g16
VVBZ
p7350
sbag5
(g6
g7
(lp7351
g5
(g6
g7
(lp7352
Vfor
p7353
atp7354
Rp7355
(dp7356
g16
VIN
p7357
sbag5
(g6
g7
(lp7358
g5
(g6
g7
(lp7359
g5
(g6
g7
(lp7360
Vall
p7361
atp7362
Rp7363
(dp7364
g16
VDT
p7365
sbag5
(g6
g7
(lp7366
Vevents
p7367
atp7368
Rp7369
(dp7370
g16
VNNS
p7371
sbatp7372
Rp7373
(dp7374
g16
VNP
p7375
sbag5
(g6
g7
(lp7376
g5
(g6
g7
(lp7377
Vare
p7378
atp7379
Rp7380
(dp7381
g16
VVBP
p7382
sbag5
(g6
g7
(lp7383
g5
(g6
g7
(lp7384
Vknown
p7385
atp7386
Rp7387
(dp7388
g16
VVBN
p7389
sbatp7390
Rp7391
(dp7392
g16
VVP
p7393
sbatp7394
Rp7395
(dp7396
g16
VVP
p7397
sbatp7398
Rp7399
(dp7400
g16
g207
sbatp7401
Rp7402
(dp7403
g16
VSBAR
p7404
sbatp7405
Rp7406
(dp7407
g16
VVP
p7408
sbatp7409
Rp7410
(dp7411
g16
g207
sbatp7412
Rp7413
(dp7414
g16
VSBAR
p7415
sbag5
(g6
g7
(lp7416
g79
atp7417
Rp7418
(dp7419
g16
g79
sbag5
(g6
g7
(lp7420
g5
(g6
g7
(lp7421
Vwe
p7422
atp7423
Rp7424
(dp7425
g16
VPRP
p7426
sbatp7427
Rp7428
(dp7429
g16
VNP
p7430
sbag5
(g6
g7
(lp7431
g5
(g6
g7
(lp7432
Vcan
p7433
atp7434
Rp7435
(dp7436
g16
VMD
p7437
sbag5
(g6
g7
(lp7438
g5
(g6
g7
(lp7439
Veasily
p7440
atp7441
Rp7442
(dp7443
g16
VRB
p7444
sbatp7445
Rp7446
(dp7447
g16
VADVP
p7448
sbag5
(g6
g7
(lp7449
g5
(g6
g7
(lp7450
Vestimate
p7451
atp7452
Rp7453
(dp7454
g16
VVB
p7455
sbag5
(g6
g7
(lp7456
g5
(g6
g7
(lp7457
Vthe
p7458
atp7459
Rp7460
(dp7461
g16
VDT
p7462
sbag5
(g6
g7
(lp7463
Vmodel
p7464
atp7465
Rp7466
(dp7467
g16
VNN
p7468
sbag5
(g6
g7
(lp7469
Vparameters
p7470
atp7471
Rp7472
(dp7473
g16
VNNS
p7474
sbatp7475
Rp7476
(dp7477
g16
VNP
p7478
sbag5
(g6
g7
(lp7479
g5
(g6
g7
(lp7480
V-LCB-
p7481
atp7482
Rp7483
(dp7484
g16
V-LRB-
p7485
sbag5
(g6
g7
(lp7486
g5
(g6
g7
(lp7487
g5
(g6
g7
(lp7488
g5
(g6
g7
(lp7489
g3237
atp7490
Rp7491
(dp7492
g16
VVBP
p7493
sbag5
(g6
g7
(lp7494
g3243
atp7495
Rp7496
(dp7497
g16
V``
p7498
sbag5
(g6
g7
(lp7499
g5
(g6
g7
(lp7500
g5
(g6
g7
(lp7501
g5
(g6
g7
(lp7502
V\u005c
p7503
atp7504
Rp7505
(dp7506
g16
VNNP
p7507
sbag5
(g6
g7
(lp7508
Vud835
p7509
atp7510
Rp7511
(dp7512
g16
VNNP
p7513
sbag5
(g6
g7
(lp7514
g3243
atp7515
Rp7516
(dp7517
g16
VPOS
p7518
sbatp7519
Rp7520
(dp7521
g16
VNP
p7522
sbag5
(g6
g7
(lp7523
g3237
atp7524
Rp7525
(dp7526
g16
VNN
p7527
sbag5
(g6
g7
(lp7528
g3243
atp7529
Rp7530
(dp7531
g16
VPOS
p7532
sbatp7533
Rp7534
(dp7535
g16
VNP
p7536
sbag5
(g6
g7
(lp7537
V\u005c
p7538
atp7539
Rp7540
(dp7541
g16
VJJ
p7542
sbag5
(g6
g7
(lp7543
Vudf45
p7544
atp7545
Rp7546
(dp7547
g16
VNN
p7548
sbatp7549
Rp7550
(dp7551
g16
VNP
p7552
sbag5
(g6
g7
(lp7553
g3243
atp7554
Rp7555
(dp7556
g16
V''
p7557
sbatp7558
Rp7559
(dp7560
g16
VVP
p7561
sbag5
(g6
g7
(lp7562
g79
atp7563
Rp7564
(dp7565
g16
g79
sbag5
(g6
g7
(lp7566
g5
(g6
g7
(lp7567
g3237
atp7568
Rp7569
(dp7570
g16
VVBP
p7571
sbag5
(g6
g7
(lp7572
g3243
atp7573
Rp7574
(dp7575
g16
V``
p7576
sbag5
(g6
g7
(lp7577
g5
(g6
g7
(lp7578
g5
(g6
g7
(lp7579
g5
(g6
g7
(lp7580
V\u005c
p7581
atp7582
Rp7583
(dp7584
g16
VNNP
p7585
sbag5
(g6
g7
(lp7586
Vud835
p7587
atp7588
Rp7589
(dp7590
g16
VNNP
p7591
sbag5
(g6
g7
(lp7592
g3243
atp7593
Rp7594
(dp7595
g16
VPOS
p7596
sbatp7597
Rp7598
(dp7599
g16
VNP
p7600
sbag5
(g6
g7
(lp7601
g3237
atp7602
Rp7603
(dp7604
g16
VNN
p7605
sbag5
(g6
g7
(lp7606
g3243
atp7607
Rp7608
(dp7609
g16
VPOS
p7610
sbatp7611
Rp7612
(dp7613
g16
VNP
p7614
sbag5
(g6
g7
(lp7615
V\u005c
p7616
atp7617
Rp7618
(dp7619
g16
VJJ
p7620
sbag5
(g6
g7
(lp7621
Vudf3d
p7622
atp7623
Rp7624
(dp7625
g16
VNN
p7626
sbatp7627
Rp7628
(dp7629
g16
VNP
p7630
sbag5
(g6
g7
(lp7631
g3243
atp7632
Rp7633
(dp7634
g16
V''
p7635
sbatp7636
Rp7637
(dp7638
g16
VVP
p7639
sbag5
(g6
g7
(lp7640
g79
atp7641
Rp7642
(dp7643
g16
g79
sbag5
(g6
g7
(lp7644
g5
(g6
g7
(lp7645
g3237
atp7646
Rp7647
(dp7648
g16
VVBP
p7649
sbag5
(g6
g7
(lp7650
g3243
atp7651
Rp7652
(dp7653
g16
V``
p7654
sbag5
(g6
g7
(lp7655
g5
(g6
g7
(lp7656
g5
(g6
g7
(lp7657
g5
(g6
g7
(lp7658
V\u005c
p7659
atp7660
Rp7661
(dp7662
g16
VNNP
p7663
sbag5
(g6
g7
(lp7664
Vud835
p7665
atp7666
Rp7667
(dp7668
g16
VNNP
p7669
sbag5
(g6
g7
(lp7670
g3243
atp7671
Rp7672
(dp7673
g16
VPOS
p7674
sbatp7675
Rp7676
(dp7677
g16
VNP
p7678
sbag5
(g6
g7
(lp7679
g3237
atp7680
Rp7681
(dp7682
g16
VNN
p7683
sbag5
(g6
g7
(lp7684
g3243
atp7685
Rp7686
(dp7687
g16
VPOS
p7688
sbatp7689
Rp7690
(dp7691
g16
VNP
p7692
sbag5
(g6
g7
(lp7693
V\u005c
p7694
atp7695
Rp7696
(dp7697
g16
VJJ
p7698
sbag5
(g6
g7
(lp7699
Vudf4b
p7700
atp7701
Rp7702
(dp7703
g16
VNN
p7704
sbatp7705
Rp7706
(dp7707
g16
VNP
p7708
sbag5
(g6
g7
(lp7709
g3243
atp7710
Rp7711
(dp7712
g16
V''
p7713
sbatp7714
Rp7715
(dp7716
g16
VVP
p7717
sbag5
(g6
g7
(lp7718
g79
atp7719
Rp7720
(dp7721
g16
g79
sbag5
(g6
g7
(lp7722
g5
(g6
g7
(lp7723
g3237
atp7724
Rp7725
(dp7726
g16
VVBP
p7727
sbag5
(g6
g7
(lp7728
g3243
atp7729
Rp7730
(dp7731
g16
V``
p7732
sbag5
(g6
g7
(lp7733
g5
(g6
g7
(lp7734
g5
(g6
g7
(lp7735
g5
(g6
g7
(lp7736
V\u005c
p7737
atp7738
Rp7739
(dp7740
g16
VNNP
p7741
sbag5
(g6
g7
(lp7742
Vud835
p7743
atp7744
Rp7745
(dp7746
g16
VNNP
p7747
sbag5
(g6
g7
(lp7748
g3243
atp7749
Rp7750
(dp7751
g16
VPOS
p7752
sbatp7753
Rp7754
(dp7755
g16
VNP
p7756
sbag5
(g6
g7
(lp7757
g3237
atp7758
Rp7759
(dp7760
g16
VNN
p7761
sbag5
(g6
g7
(lp7762
g3243
atp7763
Rp7764
(dp7765
g16
VPOS
p7766
sbatp7767
Rp7768
(dp7769
g16
VNP
p7770
sbag5
(g6
g7
(lp7771
V\u005c
p7772
atp7773
Rp7774
(dp7775
g16
VJJ
p7776
sbag5
(g6
g7
(lp7777
Vudf4d
p7778
atp7779
Rp7780
(dp7781
g16
VNN
p7782
sbatp7783
Rp7784
(dp7785
g16
VNP
p7786
sbag5
(g6
g7
(lp7787
g3243
atp7788
Rp7789
(dp7790
g16
V''
p7791
sbatp7792
Rp7793
(dp7794
g16
VVP
p7795
sbag5
(g6
g7
(lp7796
g79
atp7797
Rp7798
(dp7799
g16
g79
sbag5
(g6
g7
(lp7800
g5
(g6
g7
(lp7801
g3237
atp7802
Rp7803
(dp7804
g16
VVBP
p7805
sbag5
(g6
g7
(lp7806
g3243
atp7807
Rp7808
(dp7809
g16
V``
p7810
sbag5
(g6
g7
(lp7811
g5
(g6
g7
(lp7812
g5
(g6
g7
(lp7813
g5
(g6
g7
(lp7814
V\u005c
p7815
atp7816
Rp7817
(dp7818
g16
VNNP
p7819
sbag5
(g6
g7
(lp7820
Vud835
p7821
atp7822
Rp7823
(dp7824
g16
VNNP
p7825
sbag5
(g6
g7
(lp7826
g3243
atp7827
Rp7828
(dp7829
g16
VPOS
p7830
sbatp7831
Rp7832
(dp7833
g16
VNP
p7834
sbag5
(g6
g7
(lp7835
g3237
atp7836
Rp7837
(dp7838
g16
VNN
p7839
sbag5
(g6
g7
(lp7840
g3243
atp7841
Rp7842
(dp7843
g16
VPOS
p7844
sbatp7845
Rp7846
(dp7847
g16
VNP
p7848
sbag5
(g6
g7
(lp7849
V\u005c
p7850
atp7851
Rp7852
(dp7853
g16
VJJ
p7854
sbag5
(g6
g7
(lp7855
Vudf4e
p7856
atp7857
Rp7858
(dp7859
g16
VNN
p7860
sbatp7861
Rp7862
(dp7863
g16
VNP
p7864
sbag5
(g6
g7
(lp7865
g3243
atp7866
Rp7867
(dp7868
g16
V''
p7869
sbatp7870
Rp7871
(dp7872
g16
VVP
p7873
sbatp7874
Rp7875
(dp7876
g16
VVP
p7877
sbatp7878
Rp7879
(dp7880
g16
g207
sbag5
(g6
g7
(lp7881
V-RCB-
p7882
atp7883
Rp7884
(dp7885
g16
V-RRB-
p7886
sbatp7887
Rp7888
(dp7889
g16
VPRN
p7890
sbatp7891
Rp7892
(dp7893
g16
VVP
p7894
sbatp7895
Rp7896
(dp7897
g16
VVP
p7898
sbatp7899
Rp7900
(dp7901
g16
g207
sbatp7902
Rp7903
(dp7904
g16
VROOT
p7905
sbasg384
(icmyPackage
CorE
p7906
(dp7907
g387
(lp7908
(I0
I1
tp7909
a(I0
I8
tp7910
asg391
g7410
sbsg392
(icmyPackage
CorE
p7911
(dp7912
g387
(lp7913
(I0
I10
tp7914
a(I0
I72
tp7915
asg391
g5
(g6
g7
(lp7916
g7428
ag7896
atp7917
Rp7918
(dp7919
g16
g402
sbsbsg403
(icmyPackage
pattern
p7920
(dp7921
g406
I0
sg407
I0
sg408
(lp7922
(lp7923
(lp7924
S'if'
p7925
aS'once'
p7926
aaa(lp7927
S','
p7928
aasg412
(lp7929
I1
aI1
aI1
asg414
(lp7930
S'If some light and mobile detection devices can be invented in the future, many new applications can be imagined, for example, people can get some services while thinking.'
p7931
asg417
I15
sg418
(lp7932
(lp7933
a(lp7934
S'&C@Complete@'
p7935
aa(lp7936
S'&R@Complete@'
p7937
aasbsg427
(lp7938
(isxpPackage
sxpSent
p7939
(dp7940
g431
(lp7941
I21
asg433
VOnce the class assignments for all events are known, we can easily estimate the model parameters { u'\u005cud835' u'\u005cudf45' , u'\u005cud835' u'\u005cudf3d' , u'\u005cud835' u'\u005cudf4b' , u'\u005cud835' u'\u005cudf4d' , u'\u005cud835' u'\u005cudf4e' }
p7942
sg435
I7
sg417
I78
sg436
I26
sbasba(icmyPackage
CELink
p7943
(dp7944
g3
(lp7945
g5
(g6
g7
(lp7946
g5
(g6
g7
(lp7947
g5
(g6
g7
(lp7948
g5
(g6
g7
(lp7949
VIf
p7950
atp7951
Rp7952
(dp7953
g16
VIN
p7954
sbag5
(g6
g7
(lp7955
g5
(g6
g7
(lp7956
g5
(g6
g7
(lp7957
g5
(g6
g7
(lp7958
VP
p7959
atp7960
Rp7961
(dp7962
g16
VNNP
p7963
sbatp7964
Rp7965
(dp7966
g16
VNP
p7967
sbag5
(g6
g7
(lp7968
g5
(g6
g7
(lp7969
V-LRB-
p7970
atp7971
Rp7972
(dp7973
g16
V-LRB-
p7974
sbag5
(g6
g7
(lp7975
g5
(g6
g7
(lp7976
Velement
p7977
atp7978
Rp7979
(dp7980
g16
VNN
p7981
sbatp7982
Rp7983
(dp7984
g16
VNP
p7985
sbag5
(g6
g7
(lp7986
V-RRB-
p7987
atp7988
Rp7989
(dp7990
g16
V-RRB-
p7991
sbatp7992
Rp7993
(dp7994
g16
VPRN
p7995
sbatp7996
Rp7997
(dp7998
g16
VNP
p7999
sbag5
(g6
g7
(lp8000
g5
(g6
g7
(lp8001
Vis
p8002
atp8003
Rp8004
(dp8005
g16
VVBZ
p8006
sbag5
(g6
g7
(lp8007
g5
(g6
g7
(lp8008
g5
(g6
g7
(lp8009
g5
(g6
g7
(lp8010
Vless
p8011
atp8012
Rp8013
(dp8014
g16
VJJR
p8015
sbag5
(g6
g7
(lp8016
Vthan
p8017
atp8018
Rp8019
(dp8020
g16
VIN
p8021
sbag5
(g6
g7
(lp8022
g1906
atp8023
Rp8024
(dp8025
g16
VCD
p8026
sbatp8027
Rp8028
(dp8029
g16
VQP
p8030
sbatp8031
Rp8032
(dp8033
g16
VNP
p8034
sbag5
(g6
g7
(lp8035
g5
(g6
g7
(lp8036
g5
(g6
g7
(lp8037
g5
(g6
g7
(lp8038
g5
(g6
g7
(lp8039
g5
(g6
g7
(lp8040
g3237
atp8041
Rp8042
(dp8043
g16
VNNP
p8044
sbag5
(g6
g7
(lp8045
g3243
atp8046
Rp8047
(dp8048
g16
VPOS
p8049
sbatp8050
Rp8051
(dp8052
g16
VNP
p8053
sbag5
(g6
g7
(lp8054
V\u005c
p8055
atp8056
Rp8057
(dp8058
g16
VJJ
p8059
sbag5
(g6
g7
(lp8060
g5
(g6
g7
(lp8061
Vu039e
p8062
atp8063
Rp8064
(dp8065
g16
VNNP
p8066
sbag5
(g6
g7
(lp8067
g3243
atp8068
Rp8069
(dp8070
g16
VPOS
p8071
sbatp8072
Rp8073
(dp8074
g16
VNP
p8075
sbag5
(g6
g7
(lp8076
g3237
atp8077
Rp8078
(dp8079
g16
VNN
p8080
sbag5
(g6
g7
(lp8081
g3243
atp8082
Rp8083
(dp8084
g16
V''
p8085
sbatp8086
Rp8087
(dp8088
g16
VNP
p8089
sbag5
(g6
g7
(lp8090
g5
(g6
g7
(lp8091
V\u005c
p8092
atp8093
Rp8094
(dp8095
g16
VVBG
p8096
sbag5
(g6
g7
(lp8097
g5
(g6
g7
(lp8098
g5
(g6
g7
(lp8099
g5
(g6
g7
(lp8100
g5
(g6
g7
(lp8101
Vu2062
p8102
atp8103
Rp8104
(dp8105
g16
VNNP
p8106
sbag5
(g6
g7
(lp8107
g3243
atp8108
Rp8109
(dp8110
g16
VPOS
p8111
sbatp8112
Rp8113
(dp8114
g16
VNP
p8115
sbag5
(g6
g7
(lp8116
g7959
atp8117
Rp8118
(dp8119
g16
VNNP
p8120
sbag5
(g6
g7
(lp8121
g3237
atp8122
Rp8123
(dp8124
g16
VNNP
p8125
sbag5
(g6
g7
(lp8126
g3243
atp8127
Rp8128
(dp8129
g16
VPOS
p8130
sbatp8131
Rp8132
(dp8133
g16
VNP
p8134
sbag5
(g6
g7
(lp8135
V\u005c
p8136
atp8137
Rp8138
(dp8139
g16
VNNP
p8140
sbag5
(g6
g7
(lp8141
Vu2062
p8142
atp8143
Rp8144
(dp8145
g16
VNNP
p8146
sbag5
(g6
g7
(lp8147
g3243
atp8148
Rp8149
(dp8150
g16
V''
p8151
sbatp8152
Rp8153
(dp8154
g16
VNP
p8155
sbag5
(g6
g7
(lp8156
g5
(g6
g7
(lp8157
V-LRB-
p8158
atp8159
Rp8160
(dp8161
g16
V-LRB-
p8162
sbag5
(g6
g7
(lp8163
g5
(g6
g7
(lp8164
g207
atp8165
Rp8166
(dp8167
g16
VNNP
p8168
sbatp8169
Rp8170
(dp8171
g16
VNP
p8172
sbag5
(g6
g7
(lp8173
V-RRB-
p8174
atp8175
Rp8176
(dp8177
g16
V-RRB-
p8178
sbatp8179
Rp8180
(dp8181
g16
VPRN
p8182
sbag5
(g6
g7
(lp8183
g79
atp8184
Rp8185
(dp8186
g16
g79
sbag5
(g6
g7
(lp8187
g5
(g6
g7
(lp8188
g5
(g6
g7
(lp8189
Vwhere
p8190
atp8191
Rp8192
(dp8193
g16
VWRB
p8194
sbatp8195
Rp8196
(dp8197
g16
VWHADVP
p8198
sbag5
(g6
g7
(lp8199
g5
(g6
g7
(lp8200
g5
(g6
g7
(lp8201
g5
(g6
g7
(lp8202
g5
(g6
g7
(lp8203
g7959
atp8204
Rp8205
(dp8206
g16
VNNP
p8207
sbag5
(g6
g7
(lp8208
g3237
atp8209
Rp8210
(dp8211
g16
VNNP
p8212
sbag5
(g6
g7
(lp8213
g3243
atp8214
Rp8215
(dp8216
g16
VPOS
p8217
sbatp8218
Rp8219
(dp8220
g16
VNP
p8221
sbag5
(g6
g7
(lp8222
V\u005c
p8223
atp8224
Rp8225
(dp8226
g16
VNN
p8227
sbag5
(g6
g7
(lp8228
Vu2062
p8229
atp8230
Rp8231
(dp8232
g16
VNN
p8233
sbag5
(g6
g7
(lp8234
g3243
atp8235
Rp8236
(dp8237
g16
V''
p8238
sbatp8239
Rp8240
(dp8241
g16
VNP
p8242
sbag5
(g6
g7
(lp8243
g5
(g6
g7
(lp8244
V-LRB-
p8245
atp8246
Rp8247
(dp8248
g16
V-LRB-
p8249
sbag5
(g6
g7
(lp8250
g5
(g6
g7
(lp8251
g207
atp8252
Rp8253
(dp8254
g16
VNNP
p8255
sbatp8256
Rp8257
(dp8258
g16
VNP
p8259
sbag5
(g6
g7
(lp8260
V-RRB-
p8261
atp8262
Rp8263
(dp8264
g16
V-RRB-
p8265
sbatp8266
Rp8267
(dp8268
g16
VPRN
p8269
sbatp8270
Rp8271
(dp8272
g16
VNP
p8273
sbag5
(g6
g7
(lp8274
g5
(g6
g7
(lp8275
Vis
p8276
atp8277
Rp8278
(dp8279
g16
VVBZ
p8280
sbag5
(g6
g7
(lp8281
g5
(g6
g7
(lp8282
g5
(g6
g7
(lp8283
Vthe
p8284
atp8285
Rp8286
(dp8287
g16
VDT
p8288
sbag5
(g6
g7
(lp8289
Vsum
p8290
atp8291
Rp8292
(dp8293
g16
VNN
p8294
sbatp8295
Rp8296
(dp8297
g16
VNP
p8298
sbag5
(g6
g7
(lp8299
g5
(g6
g7
(lp8300
Vof
p8301
atp8302
Rp8303
(dp8304
g16
VIN
p8305
sbag5
(g6
g7
(lp8306
g5
(g6
g7
(lp8307
g5
(g6
g7
(lp8308
g5
(g6
g7
(lp8309
Vprobabilities
p8310
atp8311
Rp8312
(dp8313
g16
VNNS
p8314
sbatp8315
Rp8316
(dp8317
g16
VNP
p8318
sbag5
(g6
g7
(lp8319
g5
(g6
g7
(lp8320
Vof
p8321
atp8322
Rp8323
(dp8324
g16
VIN
p8325
sbag5
(g6
g7
(lp8326
g5
(g6
g7
(lp8327
Vthe
p8328
atp8329
Rp8330
(dp8331
g16
VDT
p8332
sbag5
(g6
g7
(lp8333
Vother
p8334
atp8335
Rp8336
(dp8337
g16
VJJ
p8338
sbag5
(g6
g7
(lp8339
Vthree
p8340
atp8341
Rp8342
(dp8343
g16
VCD
p8344
sbag5
(g6
g7
(lp8345
Velements
p8346
atp8347
Rp8348
(dp8349
g16
VNNS
p8350
sbatp8351
Rp8352
(dp8353
g16
VNP
p8354
sbatp8355
Rp8356
(dp8357
g16
VPP
p8358
sbatp8359
Rp8360
(dp8361
g16
VNP
p8362
sbag5
(g6
g7
(lp8363
Vand
p8364
atp8365
Rp8366
(dp8367
g16
VCC
p8368
sbag5
(g6
g7
(lp8369
g5
(g6
g7
(lp8370
g5
(g6
g7
(lp8371
g3237
atp8372
Rp8373
(dp8374
g16
VNNP
p8375
sbag5
(g6
g7
(lp8376
g3243
atp8377
Rp8378
(dp8379
g16
VPOS
p8380
sbatp8381
Rp8382
(dp8383
g16
VNP
p8384
sbag5
(g6
g7
(lp8385
V\u005c
p8386
atp8387
Rp8388
(dp8389
g16
VNN
p8390
sbag5
(g6
g7
(lp8391
Vu039e
p8392
atp8393
Rp8394
(dp8395
g16
VNNS
p8396
sbag5
(g6
g7
(lp8397
g3243
atp8398
Rp8399
(dp8400
g16
V''
p8401
sbatp8402
Rp8403
(dp8404
g16
VNP
p8405
sbatp8406
Rp8407
(dp8408
g16
VNP
p8409
sbatp8410
Rp8411
(dp8412
g16
VPP
p8413
sbatp8414
Rp8415
(dp8416
g16
VNP
p8417
sbatp8418
Rp8419
(dp8420
g16
VVP
p8421
sbatp8422
Rp8423
(dp8424
g16
g207
sbatp8425
Rp8426
(dp8427
g16
VSBAR
p8428
sbatp8429
Rp8430
(dp8431
g16
VNP
p8432
sbatp8433
Rp8434
(dp8435
g16
VVP
p8436
sbatp8437
Rp8438
(dp8439
g16
VNP
p8440
sbag5
(g6
g7
(lp8441
g5
(g6
g7
(lp8442
g5
(g6
g7
(lp8443
Vis
p8444
atp8445
Rp8446
(dp8447
g16
VVBZ
p8448
sbag5
(g6
g7
(lp8449
g5
(g6
g7
(lp8450
g1495
atp8451
Rp8452
(dp8453
g16
VDT
p8454
sbag5
(g6
g7
(lp8455
Vthreshold
p8456
atp8457
Rp8458
(dp8459
g16
VNN
p8460
sbag5
(g6
g7
(lp8461
Vvalue
p8462
atp8463
Rp8464
(dp8465
g16
VNN
p8466
sbatp8467
Rp8468
(dp8469
g16
VNP
p8470
sbatp8471
Rp8472
(dp8473
g16
VVP
p8474
sbag5
(g6
g7
(lp8475
Vand
p8476
atp8477
Rp8478
(dp8479
g16
VCC
p8480
sbag5
(g6
g7
(lp8481
g5
(g6
g7
(lp8482
Vis
p8483
atp8484
Rp8485
(dp8486
g16
VVBZ
p8487
sbag5
(g6
g7
(lp8488
g5
(g6
g7
(lp8489
Vset
p8490
atp8491
Rp8492
(dp8493
g16
VVBN
p8494
sbag5
(g6
g7
(lp8495
g5
(g6
g7
(lp8496
Vto
p8497
atp8498
Rp8499
(dp8500
g16
VTO
p8501
sbag5
(g6
g7
(lp8502
g5
(g6
g7
(lp8503
V5
p8504
atp8505
Rp8506
(dp8507
g16
VCD
p8508
sbag5
(g6
g7
(lp8509
Vempirically
p8510
atp8511
Rp8512
(dp8513
g16
VNN
p8514
sbatp8515
Rp8516
(dp8517
g16
VNP
p8518
sbatp8519
Rp8520
(dp8521
g16
VPP
p8522
sbatp8523
Rp8524
(dp8525
g16
VVP
p8526
sbatp8527
Rp8528
(dp8529
g16
VVP
p8530
sbatp8531
Rp8532
(dp8533
g16
VVP
p8534
sbatp8535
Rp8536
(dp8537
g16
g207
sbatp8538
Rp8539
(dp8540
g16
VSBAR
p8541
sbatp8542
Rp8543
(dp8544
g16
VNP
p8545
sbatp8546
Rp8547
(dp8548
g16
VVP
p8549
sbatp8550
Rp8551
(dp8552
g16
g207
sbatp8553
Rp8554
(dp8555
g16
VSBAR
p8556
sbag5
(g6
g7
(lp8557
g79
atp8558
Rp8559
(dp8560
g16
g79
sbag5
(g6
g7
(lp8561
g5
(g6
g7
(lp8562
Vthe
p8563
atp8564
Rp8565
(dp8566
g16
VDT
p8567
sbag5
(g6
g7
(lp8568
Velement
p8569
atp8570
Rp8571
(dp8572
g16
VNN
p8573
sbatp8574
Rp8575
(dp8576
g16
VNP
p8577
sbag5
(g6
g7
(lp8578
g5
(g6
g7
(lp8579
Vwill
p8580
atp8581
Rp8582
(dp8583
g16
VMD
p8584
sbag5
(g6
g7
(lp8585
g5
(g6
g7
(lp8586
Vbe
p8587
atp8588
Rp8589
(dp8590
g16
VVB
p8591
sbag5
(g6
g7
(lp8592
g5
(g6
g7
(lp8593
Vremoved
p8594
atp8595
Rp8596
(dp8597
g16
VVBN
p8598
sbag5
(g6
g7
(lp8599
g5
(g6
g7
(lp8600
Vfrom
p8601
atp8602
Rp8603
(dp8604
g16
VIN
p8605
sbag5
(g6
g7
(lp8606
g5
(g6
g7
(lp8607
Vthe
p8608
atp8609
Rp8610
(dp8611
g16
VDT
p8612
sbag5
(g6
g7
(lp8613
Vextracted
p8614
atp8615
Rp8616
(dp8617
g16
VJJ
p8618
sbag5
(g6
g7
(lp8619
Vresults
p8620
atp8621
Rp8622
(dp8623
g16
VNNS
p8624
sbatp8625
Rp8626
(dp8627
g16
VNP
p8628
sbatp8629
Rp8630
(dp8631
g16
VPP
p8632
sbatp8633
Rp8634
(dp8635
g16
VVP
p8636
sbatp8637
Rp8638
(dp8639
g16
VVP
p8640
sbatp8641
Rp8642
(dp8643
g16
VVP
p8644
sbatp8645
Rp8646
(dp8647
g16
g207
sbatp8648
Rp8649
(dp8650
g16
VROOT
p8651
sbasg384
(icmyPackage
CorE
p8652
(dp8653
g387
(lp8654
(I0
I1
tp8655
a(I0
I27
tp8656
asg391
g5
(g6
g7
(lp8657
g7997
ag8004
ag8032
ag8087
ag8094
ag8153
ag8180
atp8658
Rp8659
(dp8660
g16
g402
sbsbsg392
(icmyPackage
CorE
p8661
(dp8662
g387
(lp8663
(I0
I29
tp8664
a(I0
I74
tp8665
asg391
g5
(g6
g7
(lp8666
g8426
ag8532
ag8559
ag8575
ag8642
atp8667
Rp8668
(dp8669
g16
g402
sbsbsg403
g7920
sg427
(lp8670
(isxpPackage
sxpSent
p8671
(dp8672
g431
(lp8673
I22
asg433
VIf P ( element) is less than 1 u'\u005cu039e' u'\u005cu2062' P u'\u005cu2062' ( S ) , where P u'\u005cu2062' ( S ) is the sum of probabilities of the other three elements and u'\u005cu039e' is a threshold value and is set to 5 empirically, the element will be removed from the extracted results
p8674
sg435
I8
sg417
I82
sg436
I27
sbasba(icmyPackage
CELink
p8675
(dp8676
g3
(lp8677
g5
(g6
g7
(lp8678
g5
(g6
g7
(lp8679
g5
(g6
g7
(lp8680
g5
(g6
g7
(lp8681
VIn
p8682
atp8683
Rp8684
(dp8685
g16
VIN
p8686
sbag5
(g6
g7
(lp8687
g5
(g6
g7
(lp8688
Vthis
p8689
atp8690
Rp8691
(dp8692
g16
VDT
p8693
sbag5
(g6
g7
(lp8694
Vsection
p8695
atp8696
Rp8697
(dp8698
g16
VNN
p8699
sbatp8700
Rp8701
(dp8702
g16
VNP
p8703
sbatp8704
Rp8705
(dp8706
g16
VPP
p8707
sbag5
(g6
g7
(lp8708
g79
atp8709
Rp8710
(dp8711
g16
g79
sbag5
(g6
g7
(lp8712
g5
(g6
g7
(lp8713
Vwe
p8714
atp8715
Rp8716
(dp8717
g16
VPRP
p8718
sbatp8719
Rp8720
(dp8721
g16
VNP
p8722
sbag5
(g6
g7
(lp8723
g5
(g6
g7
(lp8724
Vfirst
p8725
atp8726
Rp8727
(dp8728
g16
VRB
p8729
sbatp8730
Rp8731
(dp8732
g16
VADVP
p8733
sbag5
(g6
g7
(lp8734
g5
(g6
g7
(lp8735
Vdescribe
p8736
atp8737
Rp8738
(dp8739
g16
VVBP
p8740
sbag5
(g6
g7
(lp8741
g5
(g6
g7
(lp8742
g5
(g6
g7
(lp8743
g5
(g6
g7
(lp8744
g5
(g6
g7
(lp8745
Vthe
p8746
atp8747
Rp8748
(dp8749
g16
VDT
p8750
sbag5
(g6
g7
(lp8751
VTwitter
p8752
atp8753
Rp8754
(dp8755
g16
VNNP
p8756
sbag5
(g6
g7
(lp8757
Vcorpus
p8758
atp8759
Rp8760
(dp8761
g16
VNN
p8762
sbatp8763
Rp8764
(dp8765
g16
VNP
p8766
sbag5
(g6
g7
(lp8767
g5
(g6
g7
(lp8768
g5
(g6
g7
(lp8769
Vused
p8770
atp8771
Rp8772
(dp8773
g16
VVBN
p8774
sbag5
(g6
g7
(lp8775
g5
(g6
g7
(lp8776
Vin
p8777
atp8778
Rp8779
(dp8780
g16
VIN
p8781
sbag5
(g6
g7
(lp8782
g5
(g6
g7
(lp8783
Vour
p8784
atp8785
Rp8786
(dp8787
g16
VPRP$
p8788
sbag5
(g6
g7
(lp8789
Vexperiments
p8790
atp8791
Rp8792
(dp8793
g16
VNNS
p8794
sbatp8795
Rp8796
(dp8797
g16
VNP
p8798
sbatp8799
Rp8800
(dp8801
g16
VPP
p8802
sbatp8803
Rp8804
(dp8805
g16
VVP
p8806
sbag5
(g6
g7
(lp8807
Vand
p8808
atp8809
Rp8810
(dp8811
g16
VCC
p8812
sbag5
(g6
g7
(lp8813
g5
(g6
g7
(lp8814
Vthen
p8815
atp8816
Rp8817
(dp8818
g16
VRB
p8819
sbatp8820
Rp8821
(dp8822
g16
VADVP
p8823
sbag5
(g6
g7
(lp8824
g5
(g6
g7
(lp8825
Vpresent
p8826
atp8827
Rp8828
(dp8829
g16
VVB
p8830
sbag5
(g6
g7
(lp8831
g5
(g6
g7
(lp8832
g5
(g6
g7
(lp8833
Vhow
p8834
atp8835
Rp8836
(dp8837
g16
VWRB
p8838
sbatp8839
Rp8840
(dp8841
g16
VWHADVP
p8842
sbag5
(g6
g7
(lp8843
g5
(g6
g7
(lp8844
g5
(g6
g7
(lp8845
Vwe
p8846
atp8847
Rp8848
(dp8849
g16
VPRP
p8850
sbatp8851
Rp8852
(dp8853
g16
VNP
p8854
sbag5
(g6
g7
(lp8855
g5
(g6
g7
(lp8856
Vbuild
p8857
atp8858
Rp8859
(dp8860
g16
VVBP
p8861
sbag5
(g6
g7
(lp8862
g5
(g6
g7
(lp8863
g1495
atp8864
Rp8865
(dp8866
g16
VDT
p8867
sbag5
(g6
g7
(lp8868
Vbaseline
p8869
atp8870
Rp8871
(dp8872
g16
VNN
p8873
sbatp8874
Rp8875
(dp8876
g16
VNP
p8877
sbag5
(g6
g7
(lp8878
g5
(g6
g7
(lp8879
Vbased
p8880
atp8881
Rp8882
(dp8883
g16
VVBN
p8884
sbag5
(g6
g7
(lp8885
g5
(g6
g7
(lp8886
Von
p8887
atp8888
Rp8889
(dp8890
g16
VIN
p8891
sbag5
(g6
g7
(lp8892
g5
(g6
g7
(lp8893
Vthe
p8894
atp8895
Rp8896
(dp8897
g16
VDT
p8898
sbag5
(g6
g7
(lp8899
g5
(g6
g7
(lp8900
Vpreviously
p8901
atp8902
Rp8903
(dp8904
g16
VRB
p8905
sbag5
(g6
g7
(lp8906
Vproposed
p8907
atp8908
Rp8909
(dp8910
g16
VVBN
p8911
sbatp8912
Rp8913
(dp8914
g16
VADJP
p8915
sbag5
(g6
g7
(lp8916
VTwiCal
p8917
atp8918
Rp8919
(dp8920
g16
VNNP
p8921
sbag5
(g6
g7
(lp8922
Vsystem
p8923
atp8924
Rp8925
(dp8926
g16
VNN
p8927
sbatp8928
Rp8929
(dp8930
g16
VNP
p8931
sbatp8932
Rp8933
(dp8934
g16
VPP
p8935
sbatp8936
Rp8937
(dp8938
g16
VPP
p8939
sbatp8940
Rp8941
(dp8942
g16
VVP
p8943
sbatp8944
Rp8945
(dp8946
g16
g207
sbatp8947
Rp8948
(dp8949
g16
VSBAR
p8950
sbatp8951
Rp8952
(dp8953
g16
VVP
p8954
sbatp8955
Rp8956
(dp8957
g16
VVP
p8958
sbatp8959
Rp8960
(dp8961
g16
VNP
p8962
sbag5
(g6
g7
(lp8963
g5
(g6
g7
(lp8964
V-LSB-
p8965
atp8966
Rp8967
(dp8968
g16
VVBZ
p8969
sbag5
(g6
g7
(lp8970
g5
(g6
g7
(lp8971
g5
(g6
g7
(lp8972
V14
p8973
atp8974
Rp8975
(dp8976
g16
VCD
p8977
sbag5
(g6
g7
(lp8978
V-RSB-
p8979
atp8980
Rp8981
(dp8982
g16
VNNS
p8983
sbatp8984
Rp8985
(dp8986
g16
VNP
p8987
sbag5
(g6
g7
(lp8988
g79
atp8989
Rp8990
(dp8991
g16
g79
sbag5
(g6
g7
(lp8992
g5
(g6
g7
(lp8993
g5
(g6
g7
(lp8994
Vthe
p8995
atp8996
Rp8997
(dp8998
g16
VDT
p8999
sbag5
(g6
g7
(lp9000
Vstate-of-the-art
p9001
atp9002
Rp9003
(dp9004
g16
VJJ
p9005
sbag5
(g6
g7
(lp9006
Vopen
p9007
atp9008
Rp9009
(dp9010
g16
VJJ
p9011
sbag5
(g6
g7
(lp9012
Vevent
p9013
atp9014
Rp9015
(dp9016
g16
VNN
p9017
sbag5
(g6
g7
(lp9018
Vextraction
p9019
atp9020
Rp9021
(dp9022
g16
VNN
p9023
sbag5
(g6
g7
(lp9024
Vsystem
p9025
atp9026
Rp9027
(dp9028
g16
VNN
p9029
sbatp9030
Rp9031
(dp9032
g16
VNP
p9033
sbag5
(g6
g7
(lp9034
g5
(g6
g7
(lp9035
Von
p9036
atp9037
Rp9038
(dp9039
g16
VIN
p9040
sbag5
(g6
g7
(lp9041
g5
(g6
g7
(lp9042
Vtweets
p9043
atp9044
Rp9045
(dp9046
g16
VNNS
p9047
sbatp9048
Rp9049
(dp9050
g16
VNP
p9051
sbatp9052
Rp9053
(dp9054
g16
VPP
p9055
sbatp9056
Rp9057
(dp9058
g16
VNP
p9059
sbatp9060
Rp9061
(dp9062
g16
VNP
p9063
sbatp9064
Rp9065
(dp9066
g16
VVP
p9067
sbatp9068
Rp9069
(dp9070
g16
g207
sbatp9071
Rp9072
(dp9073
g16
VSBAR
p9074
sbatp9075
Rp9076
(dp9077
g16
VVP
p9078
sbatp9079
Rp9080
(dp9081
g16
g207
sbatp9082
Rp9083
(dp9084
g16
VROOT
p9085
sbasg384
(icmyPackage
CorE
p9086
(dp9087
g387
(lp9088
(I0
I24
tp9089
a(I0
I40
tp9090
asg391
g5
(g6
g7
(lp9091
g8929
ag9065
atp9092
Rp9093
(dp9094
g16
g402
sbsbsg392
(icmyPackage
CorE
p9095
(dp9096
g387
(lp9097
(I0
I0
tp9098
a(I0
I21
tp9099
asg391
g5
(g6
g7
(lp9100
g8705
ag8710
ag8720
ag8731
ag8738
ag8764
ag8804
ag8810
ag8821
ag8828
ag8840
ag8852
ag8859
ag8875
atp9101
Rp9102
(dp9103
g16
g402
sbsbsg403
g2548
sg427
(lp9104
(isxpPackage
sxpSent
p9105
(dp9106
g431
(lp9107
I23
asg433
VIn this section, we first describe the Twitter corpus used in our experiments and then present how we build a baseline based on the previously proposed TwiCal system [ 14 ] , the state-of-the-art open event extraction system on tweets
p9108
sg435
I9
sg417
I83
sg436
I28
sbasba(icmyPackage
CELink
p9109
(dp9110
g3
(lp9111
g5
(g6
g7
(lp9112
g5
(g6
g7
(lp9113
g5
(g6
g7
(lp9114
g5
(g6
g7
(lp9115
VWe
p9116
atp9117
Rp9118
(dp9119
g16
VPRP
p9120
sbatp9121
Rp9122
(dp9123
g16
VNP
p9124
sbag5
(g6
g7
(lp9125
g5
(g6
g7
(lp9126
Vbelieve
p9127
atp9128
Rp9129
(dp9130
g16
VVBP
p9131
sbag5
(g6
g7
(lp9132
g5
(g6
g7
(lp9133
Vthat
p9134
atp9135
Rp9136
(dp9137
g16
VIN
p9138
sbag5
(g6
g7
(lp9139
g5
(g6
g7
(lp9140
g5
(g6
g7
(lp9141
Vin
p9142
atp9143
Rp9144
(dp9145
g16
VIN
p9146
sbag5
(g6
g7
(lp9147
g5
(g6
g7
(lp9148
Vreality
p9149
atp9150
Rp9151
(dp9152
g16
VNN
p9153
sbatp9154
Rp9155
(dp9156
g16
VNP
p9157
sbatp9158
Rp9159
(dp9160
g16
VPP
p9161
sbag5
(g6
g7
(lp9162
g79
atp9163
Rp9164
(dp9165
g16
g79
sbag5
(g6
g7
(lp9166
g5
(g6
g7
(lp9167
g5
(g6
g7
(lp9168
Vevents
p9169
atp9170
Rp9171
(dp9172
g16
VNNS
p9173
sbatp9174
Rp9175
(dp9176
g16
VNP
p9177
sbag5
(g6
g7
(lp9178
g5
(g6
g7
(lp9179
g5
(g6
g7
(lp9180
Vwhich
p9181
atp9182
Rp9183
(dp9184
g16
VWDT
p9185
sbatp9186
Rp9187
(dp9188
g16
VWHNP
p9189
sbag5
(g6
g7
(lp9190
g5
(g6
g7
(lp9191
g5
(g6
g7
(lp9192
Vare
p9193
atp9194
Rp9195
(dp9196
g16
VVBP
p9197
sbag5
(g6
g7
(lp9198
g5
(g6
g7
(lp9199
Vmentioned
p9200
atp9201
Rp9202
(dp9203
g16
VVBN
p9204
sbag5
(g6
g7
(lp9205
g5
(g6
g7
(lp9206
Vin
p9207
atp9208
Rp9209
(dp9210
g16
VIN
p9211
sbag5
(g6
g7
(lp9212
g5
(g6
g7
(lp9213
g5
(g6
g7
(lp9214
Vvery
p9215
atp9216
Rp9217
(dp9218
g16
VRB
p9219
sbag5
(g6
g7
(lp9220
Vfew
p9221
atp9222
Rp9223
(dp9224
g16
VJJ
p9225
sbatp9226
Rp9227
(dp9228
g16
VADJP
p9229
sbag5
(g6
g7
(lp9230
Vtweets
p9231
atp9232
Rp9233
(dp9234
g16
VNNS
p9235
sbatp9236
Rp9237
(dp9238
g16
VNP
p9239
sbatp9240
Rp9241
(dp9242
g16
VPP
p9243
sbatp9244
Rp9245
(dp9246
g16
VVP
p9247
sbatp9248
Rp9249
(dp9250
g16
VVP
p9251
sbatp9252
Rp9253
(dp9254
g16
g207
sbatp9255
Rp9256
(dp9257
g16
VSBAR
p9258
sbatp9259
Rp9260
(dp9261
g16
VNP
p9262
sbag5
(g6
g7
(lp9263
g5
(g6
g7
(lp9264
Vare
p9265
atp9266
Rp9267
(dp9268
g16
VVBP
p9269
sbag5
(g6
g7
(lp9270
g5
(g6
g7
(lp9271
Vless
p9272
atp9273
Rp9274
(dp9275
g16
VRBR
p9276
sbag5
(g6
g7
(lp9277
Vlikely
p9278
atp9279
Rp9280
(dp9281
g16
VJJ
p9282
sbag5
(g6
g7
(lp9283
g5
(g6
g7
(lp9284
g5
(g6
g7
(lp9285
Vto
p9286
atp9287
Rp9288
(dp9289
g16
VTO
p9290
sbag5
(g6
g7
(lp9291
g5
(g6
g7
(lp9292
Vbe
p9293
atp9294
Rp9295
(dp9296
g16
VVB
p9297
sbag5
(g6
g7
(lp9298
g5
(g6
g7
(lp9299
Vsignificant
p9300
atp9301
Rp9302
(dp9303
g16
VJJ
p9304
sbatp9305
Rp9306
(dp9307
g16
VADJP
p9308
sbatp9309
Rp9310
(dp9311
g16
VVP
p9312
sbatp9313
Rp9314
(dp9315
g16
VVP
p9316
sbatp9317
Rp9318
(dp9319
g16
g207
sbatp9320
Rp9321
(dp9322
g16
VADJP
p9323
sbatp9324
Rp9325
(dp9326
g16
VVP
p9327
sbatp9328
Rp9329
(dp9330
g16
g207
sbatp9331
Rp9332
(dp9333
g16
VSBAR
p9334
sbatp9335
Rp9336
(dp9337
g16
VVP
p9338
sbatp9339
Rp9340
(dp9341
g16
g207
sbatp9342
Rp9343
(dp9344
g16
VROOT
p9345
sbag5
(g6
g7
(lp9346
g5
(g6
g7
(lp9347
g5
(g6
g7
(lp9348
g5
(g6
g7
(lp9349
VTherefore
p9350
atp9351
Rp9352
(dp9353
g16
VRB
p9354
sbatp9355
Rp9356
(dp9357
g16
VADVP
p9358
sbag5
(g6
g7
(lp9359
g79
atp9360
Rp9361
(dp9362
g16
g79
sbag5
(g6
g7
(lp9363
g5
(g6
g7
(lp9364
Vthe
p9365
atp9366
Rp9367
(dp9368
g16
VDT
p9369
sbag5
(g6
g7
(lp9370
Vdataset
p9371
atp9372
Rp9373
(dp9374
g16
VNN
p9375
sbatp9376
Rp9377
(dp9378
g16
VNP
p9379
sbag5
(g6
g7
(lp9380
g5
(g6
g7
(lp9381
Vwas
p9382
atp9383
Rp9384
(dp9385
g16
VVBD
p9386
sbag5
(g6
g7
(lp9387
g5
(g6
g7
(lp9388
Vfiltered
p9389
atp9390
Rp9391
(dp9392
g16
VVBN
p9393
sbag5
(g6
g7
(lp9394
g5
(g6
g7
(lp9395
Vby
p9396
atp9397
Rp9398
(dp9399
g16
VIN
p9400
sbag5
(g6
g7
(lp9401
g5
(g6
g7
(lp9402
g5
(g6
g7
(lp9403
Vremoving
p9404
atp9405
Rp9406
(dp9407
g16
VVBG
p9408
sbag5
(g6
g7
(lp9409
g5
(g6
g7
(lp9410
g5
(g6
g7
(lp9411
Vthe
p9412
atp9413
Rp9414
(dp9415
g16
VDT
p9416
sbag5
(g6
g7
(lp9417
Vevents
p9418
atp9419
Rp9420
(dp9421
g16
VNNS
p9422
sbatp9423
Rp9424
(dp9425
g16
VNP
p9426
sbag5
(g6
g7
(lp9427
g5
(g6
g7
(lp9428
g5
(g6
g7
(lp9429
Vwhich
p9430
atp9431
Rp9432
(dp9433
g16
VWDT
p9434
sbatp9435
Rp9436
(dp9437
g16
VWHNP
p9438
sbag5
(g6
g7
(lp9439
g5
(g6
g7
(lp9440
g5
(g6
g7
(lp9441
Vare
p9442
atp9443
Rp9444
(dp9445
g16
VVBP
p9446
sbag5
(g6
g7
(lp9447
g5
(g6
g7
(lp9448
Vmentioned
p9449
atp9450
Rp9451
(dp9452
g16
VVBN
p9453
sbag5
(g6
g7
(lp9454
g5
(g6
g7
(lp9455
Vin
p9456
atp9457
Rp9458
(dp9459
g16
VIN
p9460
sbag5
(g6
g7
(lp9461
g5
(g6
g7
(lp9462
g5
(g6
g7
(lp9463
Vless
p9464
atp9465
Rp9466
(dp9467
g16
VJJR
p9468
sbag5
(g6
g7
(lp9469
Vthan
p9470
atp9471
Rp9472
(dp9473
g16
VIN
p9474
sbag5
(g6
g7
(lp9475
V10
p9476
atp9477
Rp9478
(dp9479
g16
VCD
p9480
sbatp9481
Rp9482
(dp9483
g16
VQP
p9484
sbag5
(g6
g7
(lp9485
Vtweets
p9486
atp9487
Rp9488
(dp9489
g16
VNNS
p9490
sbatp9491
Rp9492
(dp9493
g16
VNP
p9494
sbatp9495
Rp9496
(dp9497
g16
VPP
p9498
sbatp9499
Rp9500
(dp9501
g16
VVP
p9502
sbatp9503
Rp9504
(dp9505
g16
VVP
p9506
sbatp9507
Rp9508
(dp9509
g16
g207
sbatp9510
Rp9511
(dp9512
g16
VSBAR
p9513
sbatp9514
Rp9515
(dp9516
g16
VNP
p9517
sbatp9518
Rp9519
(dp9520
g16
VVP
p9521
sbatp9522
Rp9523
(dp9524
g16
g207
sbatp9525
Rp9526
(dp9527
g16
VPP
p9528
sbatp9529
Rp9530
(dp9531
g16
VVP
p9532
sbatp9533
Rp9534
(dp9535
g16
VVP
p9536
sbatp9537
Rp9538
(dp9539
g16
g207
sbatp9540
Rp9541
(dp9542
g16
VROOT
p9543
sbasg384
(icmyPackage
CorE
p9544
(dp9545
g387
(lp9546
(I0
I0
tp9547
a(I0
I19
tp9548
asg391
g9343
sbsg392
(icmyPackage
CorE
p9549
(dp9550
g387
(lp9551
(I1
I2
tp9552
a(I1
I17
tp9553
asg391
g5
(g6
g7
(lp9554
g9377
ag9534
atp9555
Rp9556
(dp9557
g16
g402
sbsbsg403
g404
sg427
(lp9558
(isxpPackage
sxpSent
p9559
(dp9560
g431
(lp9561
I24
asg433
VWe believe that in reality, events which are mentioned in very few tweets are less likely to be significant
p9562
sg435
I10
sg417
I93
sg436
I29
sba(isxpPackage
sxpSent
p9563
(dp9564
g431
(lp9565
I24
asg433
VTherefore, the dataset was filtered by removing the events which are mentioned in less than 10 tweets
p9566
sg435
I10
sg417
I94
sg436
I29
sbasba(icmyPackage
CELink
p9567
(dp9568
g3
(lp9569
g5
(g6
g7
(lp9570
g5
(g6
g7
(lp9571
g5
(g6
g7
(lp9572
g5
(g6
g7
(lp9573
g5
(g6
g7
(lp9574
VThe
p9575
atp9576
Rp9577
(dp9578
g16
VDT
p9579
sbag5
(g6
g7
(lp9580
Vevents
p9581
atp9582
Rp9583
(dp9584
g16
VNNS
p9585
sbatp9586
Rp9587
(dp9588
g16
VNP
p9589
sbag5
(g6
g7
(lp9590
g5
(g6
g7
(lp9591
Vextracted
p9592
atp9593
Rp9594
(dp9595
g16
VVBN
p9596
sbag5
(g6
g7
(lp9597
g5
(g6
g7
(lp9598
Vin
p9599
atp9600
Rp9601
(dp9602
g16
VIN
p9603
sbag5
(g6
g7
(lp9604
g5
(g6
g7
(lp9605
Vthe
p9606
atp9607
Rp9608
(dp9609
g16
VDT
p9610
sbag5
(g6
g7
(lp9611
Vbaseline
p9612
atp9613
Rp9614
(dp9615
g16
VNN
p9616
sbatp9617
Rp9618
(dp9619
g16
VNP
p9620
sbatp9621
Rp9622
(dp9623
g16
VPP
p9624
sbatp9625
Rp9626
(dp9627
g16
VVP
p9628
sbatp9629
Rp9630
(dp9631
g16
VNP
p9632
sbag5
(g6
g7
(lp9633
g5
(g6
g7
(lp9634
Vare
p9635
atp9636
Rp9637
(dp9638
g16
VVBP
p9639
sbag5
(g6
g7
(lp9640
g5
(g6
g7
(lp9641
Vrepresented
p9642
atp9643
Rp9644
(dp9645
g16
VVBN
p9646
sbag5
(g6
g7
(lp9647
g5
(g6
g7
(lp9648
Vas
p9649
atp9650
Rp9651
(dp9652
g16
VIN
p9653
sbag5
(g6
g7
(lp9654
g5
(g6
g7
(lp9655
g5
(g6
g7
(lp9656
g5
(g6
g7
(lp9657
g1495
atp9658
Rp9659
(dp9660
g16
VDT
p9661
sbag5
(g6
g7
(lp9662
V3-tuple
p9663
atp9664
Rp9665
(dp9666
g16
VJJ
p9667
sbag5
(g6
g7
(lp9668
g3237
atp9669
Rp9670
(dp9671
g16
VNN
p9672
sbag5
(g6
g7
(lp9673
g3243
atp9674
Rp9675
(dp9676
g16
VPOS
p9677
sbatp9678
Rp9679
(dp9680
g16
VNP
p9681
sbag5
(g6
g7
(lp9682
V\u005c
p9683
atp9684
Rp9685
(dp9686
g16
VJJ
p9687
sbag5
(g6
g7
(lp9688
Vu27e8
p9689
atp9690
Rp9691
(dp9692
g16
VJJ
p9693
sbag5
(g6
g7
(lp9694
g3243
atp9695
Rp9696
(dp9697
g16
V''
p9698
sbag5
(g6
g7
(lp9699
g3270
atp9700
Rp9701
(dp9702
g16
VNN
p9703
sbatp9704
Rp9705
(dp9706
g16
VNP
p9707
sbag5
(g6
g7
(lp9708
g79
atp9709
Rp9710
(dp9711
g16
g79
sbag5
(g6
g7
(lp9712
g5
(g6
g7
(lp9713
g5
(g6
g7
(lp9714
g3285
atp9715
Rp9716
(dp9717
g16
VLS
p9718
sbatp9719
Rp9720
(dp9721
g16
VLST
p9722
sbag5
(g6
g7
(lp9723
g79
atp9724
Rp9725
(dp9726
g16
g79
sbag5
(g6
g7
(lp9727
g5
(g6
g7
(lp9728
g5
(g6
g7
(lp9729
g5
(g6
g7
(lp9730
g5
(g6
g7
(lp9731
g5
(g6
g7
(lp9732
g3325
atp9733
Rp9734
(dp9735
g16
VNNP
p9736
sbag5
(g6
g7
(lp9737
g3237
atp9738
Rp9739
(dp9740
g16
VNNP
p9741
sbag5
(g6
g7
(lp9742
g3243
atp9743
Rp9744
(dp9745
g16
VPOS
p9746
sbatp9747
Rp9748
(dp9749
g16
VNP
p9750
sbag5
(g6
g7
(lp9751
V\u005c
p9752
atp9753
Rp9754
(dp9755
g16
VJJ
p9756
sbag5
(g6
g7
(lp9757
Vu27e9
p9758
atp9759
Rp9760
(dp9761
g16
VNNS
p9762
sbag5
(g6
g7
(lp9763
g3243
atp9764
Rp9765
(dp9766
g16
VPOS
p9767
sbatp9768
Rp9769
(dp9770
g16
VNP
p9771
sbag5
(g6
g7
(lp9772
g5
(g6
g7
(lp9773
g8504
atp9774
Rp9775
(dp9776
g16
VCD
p9777
sbag5
(g6
g7
(lp9778
g8504
atp9779
Rp9780
(dp9781
g16
VCD
p9782
sbatp9783
Rp9784
(dp9785
g16
VQP
p9786
sbag5
(g6
g7
(lp9787
VTwiCal
p9788
atp9789
Rp9790
(dp9791
g16
VNN
p9792
sbatp9793
Rp9794
(dp9795
g16
VNP
p9796
sbag5
(g6
g7
(lp9797
g5
(g6
g7
(lp9798
Valso
p9799
atp9800
Rp9801
(dp9802
g16
VRB
p9803
sbatp9804
Rp9805
(dp9806
g16
VADVP
p9807
sbatp9808
Rp9809
(dp9810
g16
VNP
p9811
sbag5
(g6
g7
(lp9812
g5
(g6
g7
(lp9813
g5
(g6
g7
(lp9814
g5
(g6
g7
(lp9815
g5
(g6
g7
(lp9816
Vgroups
p9817
atp9818
Rp9819
(dp9820
g16
VNNS
p9821
sbag5
(g6
g7
(lp9822
Vevent
p9823
atp9824
Rp9825
(dp9826
g16
VNN
p9827
sbag5
(g6
g7
(lp9828
Vinstances
p9829
atp9830
Rp9831
(dp9832
g16
VNNS
p9833
sbatp9834
Rp9835
(dp9836
g16
VNP
p9837
sbag5
(g6
g7
(lp9838
g5
(g6
g7
(lp9839
Vinto
p9840
atp9841
Rp9842
(dp9843
g16
VIN
p9844
sbag5
(g6
g7
(lp9845
g5
(g6
g7
(lp9846
g5
(g6
g7
(lp9847
g5
(g6
g7
(lp9848
Vevent
p9849
atp9850
Rp9851
(dp9852
g16
VNN
p9853
sbag5
(g6
g7
(lp9854
Vtypes
p9855
atp9856
Rp9857
(dp9858
g16
VNNS
p9859
sbatp9860
Rp9861
(dp9862
g16
VNP
p9863
sbag5
(g6
g7
(lp9864
g5
(g6
g7
(lp9865
Vsuch
p9866
atp9867
Rp9868
(dp9869
g16
VJJ
p9870
sbag5
(g6
g7
(lp9871
Vas
p9872
atp9873
Rp9874
(dp9875
g16
VIN
p9876
sbag5
(g6
g7
(lp9877
g5
(g6
g7
(lp9878
g5
(g6
g7
(lp9879
g3237
atp9880
Rp9881
(dp9882
g16
VNNP
p9883
sbag5
(g6
g7
(lp9884
g3243
atp9885
Rp9886
(dp9887
g16
VPOS
p9888
sbatp9889
Rp9890
(dp9891
g16
VNP
p9892
sbag5
(g6
g7
(lp9893
V\u005c
p9894
atp9895
Rp9896
(dp9897
g16
VJJ
p9898
sbag5
(g6
g7
(lp9899
Vu201d
p9900
atp9901
Rp9902
(dp9903
g16
VNNS
p9904
sbatp9905
Rp9906
(dp9907
g16
VNP
p9908
sbatp9909
Rp9910
(dp9911
g16
VPP
p9912
sbag5
(g6
g7
(lp9913
g3243
atp9914
Rp9915
(dp9916
g16
VPOS
p9917
sbatp9918
Rp9919
(dp9920
g16
VNP
p9921
sbag5
(g6
g7
(lp9922
VSport
p9923
atp9924
Rp9925
(dp9926
g16
VNNP
p9927
sbag5
(g6
g7
(lp9928
g3237
atp9929
Rp9930
(dp9931
g16
VNN
p9932
sbatp9933
Rp9934
(dp9935
g16
VNP
p9936
sbatp9937
Rp9938
(dp9939
g16
VPP
p9940
sbag5
(g6
g7
(lp9941
g3243
atp9942
Rp9943
(dp9944
g16
VPOS
p9945
sbatp9946
Rp9947
(dp9948
g16
VNP
p9949
sbag5
(g6
g7
(lp9950
g5
(g6
g7
(lp9951
V\u005c
p9952
atp9953
Rp9954
(dp9955
g16
VRB
p9956
sbag5
(g6
g7
(lp9957
Vu201d
p9958
atp9959
Rp9960
(dp9961
g16
VJJ
p9962
sbag5
(g6
g7
(lp9963
g3243
atp9964
Rp9965
(dp9966
g16
V''
p9967
sbag5
(g6
g7
(lp9968
Vor
p9969
atp9970
Rp9971
(dp9972
g16
VCC
p9973
sbag5
(g6
g7
(lp9974
g3237
atp9975
Rp9976
(dp9977
g16
VJJ
p9978
sbag5
(g6
g7
(lp9979
g3243
atp9980
Rp9981
(dp9982
g16
V''
p9983
sbag5
(g6
g7
(lp9984
V\u005c
p9985
atp9986
Rp9987
(dp9988
g16
VJJ
p9989
sbatp9990
Rp9991
(dp9992
g16
VADJP
p9993
sbag5
(g6
g7
(lp9994
Vu201d
p9995
atp9996
Rp9997
(dp9998
g16
VNN
p9999
sbag5
(g6
g7
(lp10000
g3243
atp10001
Rp10002
(dp10003
g16
V''
p10004
sbatp10005
Rp10006
(dp10007
g16
VNP
p10008
sbag5
(g6
g7
(lp10009
g5
(g6
g7
(lp10010
g5
(g6
g7
(lp10011
g5
(g6
g7
(lp10012
VPolitics
p10013
atp10014
Rp10015
(dp10016
g16
VNNP
p10017
sbag5
(g6
g7
(lp10018
g3237
atp10019
Rp10020
(dp10021
g16
VNNP
p10022
sbag5
(g6
g7
(lp10023
g3243
atp10024
Rp10025
(dp10026
g16
VPOS
p10027
sbatp10028
Rp10029
(dp10030
g16
VNP
p10031
sbag5
(g6
g7
(lp10032
V\u005c
p10033
atp10034
Rp10035
(dp10036
g16
VJJ
p10037
sbag5
(g6
g7
(lp10038
Vu201d
p10039
atp10040
Rp10041
(dp10042
g16
VNNS
p10043
sbatp10044
Rp10045
(dp10046
g16
VNP
p10047
sbag5
(g6
g7
(lp10048
g3243
atp10049
Rp10050
(dp10051
g16
V''
p10052
sbag5
(g6
g7
(lp10053
g5
(g6
g7
(lp10054
Vusing
p10055
atp10056
Rp10057
(dp10058
g16
VVBG
p10059
sbag5
(g6
g7
(lp10060
g5
(g6
g7
(lp10061
g5
(g6
g7
(lp10062
VLinkLDA
p10063
atp10064
Rp10065
(dp10066
g16
VNNP
p10067
sbatp10068
Rp10069
(dp10070
g16
VNP
p10071
sbag5
(g6
g7
(lp10072
g5
(g6
g7
(lp10073
g5
(g6
g7
(lp10074
Vwhich
p10075
atp10076
Rp10077
(dp10078
g16
VWDT
p10079
sbatp10080
Rp10081
(dp10082
g16
VWHNP
p10083
sbag5
(g6
g7
(lp10084
g5
(g6
g7
(lp10085
g5
(g6
g7
(lp10086
Vis
p10087
atp10088
Rp10089
(dp10090
g16
VVBZ
p10091
sbag5
(g6
g7
(lp10092
Vnot
p10093
atp10094
Rp10095
(dp10096
g16
VRB
p10097
sbag5
(g6
g7
(lp10098
g5
(g6
g7
(lp10099
Vconsidered
p10100
atp10101
Rp10102
(dp10103
g16
VVBN
p10104
sbag5
(g6
g7
(lp10105
g5
(g6
g7
(lp10106
Vhere
p10107
atp10108
Rp10109
(dp10110
g16
VRB
p10111
sbatp10112
Rp10113
(dp10114
g16
VADVP
p10115
sbag5
(g6
g7
(lp10116
g5
(g6
g7
(lp10117
g5
(g6
g7
(lp10118
Vwhere
p10119
atp10120
Rp10121
(dp10122
g16
VWRB
p10123
sbatp10124
Rp10125
(dp10126
g16
VWHADVP
p10127
sbag5
(g6
g7
(lp10128
g5
(g6
g7
(lp10129
g5
(g6
g7
(lp10130
g3270
atp10131
Rp10132
(dp10133
g16
VNN
p10134
sbatp10135
Rp10136
(dp10137
g16
VNP
p10138
sbag5
(g6
g7
(lp10139
g5
(g6
g7
(lp10140
Vstands
p10141
atp10142
Rp10143
(dp10144
g16
VVBZ
p10145
sbag5
(g6
g7
(lp10146
g5
(g6
g7
(lp10147
Vfor
p10148
atp10149
Rp10150
(dp10151
g16
VIN
p10152
sbag5
(g6
g7
(lp10153
g5
(g6
g7
(lp10154
g5
(g6
g7
(lp10155
g1495
atp10156
Rp10157
(dp10158
g16
VDT
p10159
sbag5
(g6
g7
(lp10160
Vnon-location
p10161
atp10162
Rp10163
(dp10164
g16
VJJ
p10165
sbag5
(g6
g7
(lp10166
Vnamed
p10167
atp10168
Rp10169
(dp10170
g16
VVBN
p10171
sbag5
(g6
g7
(lp10172
Ventity
p10173
atp10174
Rp10175
(dp10176
g16
VNN
p10177
sbatp10178
Rp10179
(dp10180
g16
VNP
p10181
sbag5
(g6
g7
(lp10182
g79
atp10183
Rp10184
(dp10185
g16
g79
sbag5
(g6
g7
(lp10186
g5
(g6
g7
(lp10187
g5
(g6
g7
(lp10188
g3285
atp10189
Rp10190
(dp10191
g16
VSYM
p10192
sbatp10193
Rp10194
(dp10195
g16
VNP
p10196
sbag5
(g6
g7
(lp10197
g5
(g6
g7
(lp10198
Vfor
p10199
atp10200
Rp10201
(dp10202
g16
VIN
p10203
sbag5
(g6
g7
(lp10204
g5
(g6
g7
(lp10205
g5
(g6
g7
(lp10206
g1495
atp10207
Rp10208
(dp10209
g16
VDT
p10210
sbag5
(g6
g7
(lp10211
Vdate
p10212
atp10213
Rp10214
(dp10215
g16
VNN
p10216
sbag5
(g6
g7
(lp10217
Vand
p10218
atp10219
Rp10220
(dp10221
g16
VCC
p10222
sbag5
(g6
g7
(lp10223
g3325
atp10224
Rp10225
(dp10226
g16
VNN
p10227
sbatp10228
Rp10229
(dp10230
g16
VNP
p10231
sbag5
(g6
g7
(lp10232
g5
(g6
g7
(lp10233
Vfor
p10234
atp10235
Rp10236
(dp10237
g16
VIN
p10238
sbag5
(g6
g7
(lp10239
g5
(g6
g7
(lp10240
Van
p10241
atp10242
Rp10243
(dp10244
g16
VDT
p10245
sbag5
(g6
g7
(lp10246
Vevent
p10247
atp10248
Rp10249
(dp10250
g16
VNN
p10251
sbag5
(g6
g7
(lp10252
Vphrase
p10253
atp10254
Rp10255
(dp10256
g16
VNN
p10257
sbatp10258
Rp10259
(dp10260
g16
VNP
p10261
sbatp10262
Rp10263
(dp10264
g16
VPP
p10265
sbatp10266
Rp10267
(dp10268
g16
VNP
p10269
sbatp10270
Rp10271
(dp10272
g16
VPP
p10273
sbatp10274
Rp10275
(dp10276
g16
VNP
p10277
sbatp10278
Rp10279
(dp10280
g16
VNP
p10281
sbatp10282
Rp10283
(dp10284
g16
VPP
p10285
sbatp10286
Rp10287
(dp10288
g16
VVP
p10289
sbatp10290
Rp10291
(dp10292
g16
g207
sbatp10293
Rp10294
(dp10295
g16
VSBAR
p10296
sbatp10297
Rp10298
(dp10299
g16
VVP
p10300
sbatp10301
Rp10302
(dp10303
g16
VVP
p10304
sbatp10305
Rp10306
(dp10307
g16
g207
sbatp10308
Rp10309
(dp10310
g16
VSBAR
p10311
sbatp10312
Rp10313
(dp10314
g16
VNP
p10315
sbatp10316
Rp10317
(dp10318
g16
VVP
p10319
sbatp10320
Rp10321
(dp10322
g16
VNP
p10323
sbatp10324
Rp10325
(dp10326
g16
VPP
p10327
sbatp10328
Rp10329
(dp10330
g16
VNP
p10331
sbatp10332
Rp10333
(dp10334
g16
VNP
p10335
sbatp10336
Rp10337
(dp10338
g16
VNP
p10339
sbatp10340
Rp10341
(dp10342
g16
VPP
p10343
sbatp10344
Rp10345
(dp10346
g16
VVP
p10347
sbatp10348
Rp10349
(dp10350
g16
VVP
p10351
sbatp10352
Rp10353
(dp10354
g16
g207
sbatp10355
Rp10356
(dp10357
g16
VROOT
p10358
sbasg384
(icmyPackage
CorE
p10359
(dp10360
g387
(lp10361
(I0
I9
tp10362
a(I0
I85
tp10363
asg391
g5
(g6
g7
(lp10364
g9705
ag9710
ag9720
ag9725
ag9809
ag10006
ag10045
ag10050
ag10057
ag10069
ag10081
ag10089
ag10095
ag10102
ag10113
ag10125
ag10136
ag10143
ag10150
ag10179
ag10184
ag10194
ag10201
ag10229
ag10236
ag10243
ag10249
atp10365
Rp10366
(dp10367
g16
g402
sbsbsg392
(icmyPackage
CorE
p10368
(dp10369
g387
(lp10370
(I0
I0
tp10371
a(I0
I7
tp10372
asg391
g5
(g6
g7
(lp10373
g9630
ag9637
ag9644
atp10374
Rp10375
(dp10376
g16
g402
sbsbsg403
g1036
sg427
(lp10377
(isxpPackage
sxpSent
p10378
(dp10379
g431
(lp10380
I25
asg433
VThe events extracted in the baseline are represented as a 3-tuple u'\u005cu27e8' y , d , k u'\u005cu27e9' 5 5 TwiCal also groups event instances into event types such as u'\u005cu201d' Sport u'\u005cu201d' or u'\u005cu201d' Politics u'\u005cu201d' using LinkLDA which is not considered here where y stands for a non-location named entity, d for a date and k for an event phrase
p10381
sg435
I11
sg417
I97
sg436
I30
sbasba(icmyPackage
CELink
p10382
(dp10383
g3
(lp10384
g5
(g6
g7
(lp10385
g5
(g6
g7
(lp10386
g5
(g6
g7
(lp10387
g5
(g6
g7
(lp10388
VDue
p10389
atp10390
Rp10391
(dp10392
g16
VJJ
p10393
sbag5
(g6
g7
(lp10394
Vto
p10395
atp10396
Rp10397
(dp10398
g16
VTO
p10399
sbag5
(g6
g7
(lp10400
g5
(g6
g7
(lp10401
g5
(g6
g7
(lp10402
Vthe
p10403
atp10404
Rp10405
(dp10406
g16
VDT
p10407
sbag5
(g6
g7
(lp10408
Vdifficulties
p10409
atp10410
Rp10411
(dp10412
g16
VNNS
p10413
sbatp10414
Rp10415
(dp10416
g16
VNP
p10417
sbag5
(g6
g7
(lp10418
g5
(g6
g7
(lp10419
Vof
p10420
atp10421
Rp10422
(dp10423
g16
VIN
p10424
sbag5
(g6
g7
(lp10425
g5
(g6
g7
(lp10426
g5
(g6
g7
(lp10427
Vre-implementing
p10428
atp10429
Rp10430
(dp10431
g16
VVBG
p10432
sbag5
(g6
g7
(lp10433
g5
(g6
g7
(lp10434
Vthe
p10435
atp10436
Rp10437
(dp10438
g16
VDT
p10439
sbag5
(g6
g7
(lp10440
Vsequence
p10441
atp10442
Rp10443
(dp10444
g16
VNN
p10445
sbag5
(g6
g7
(lp10446
Vlabeler
p10447
atp10448
Rp10449
(dp10450
g16
VNN
p10451
sbatp10452
Rp10453
(dp10454
g16
VNP
p10455
sbag5
(g6
g7
(lp10456
g5
(g6
g7
(lp10457
Vwithout
p10458
atp10459
Rp10460
(dp10461
g16
VIN
p10462
sbag5
(g6
g7
(lp10463
g5
(g6
g7
(lp10464
g5
(g6
g7
(lp10465
Vknowing
p10466
atp10467
Rp10468
(dp10469
g16
VVBG
p10470
sbag5
(g6
g7
(lp10471
g5
(g6
g7
(lp10472
g5
(g6
g7
(lp10473
Vthe
p10474
atp10475
Rp10476
(dp10477
g16
VDT
p10478
sbag5
(g6
g7
(lp10479
Vactual
p10480
atp10481
Rp10482
(dp10483
g16
VJJ
p10484
sbag5
(g6
g7
(lp10485
Vfeatures
p10486
atp10487
Rp10488
(dp10489
g16
VNNS
p10490
sbag5
(g6
g7
(lp10491
Vset
p10492
atp10493
Rp10494
(dp10495
g16
VNN
p10496
sbatp10497
Rp10498
(dp10499
g16
VNP
p10500
sbag5
(g6
g7
(lp10501
Vand
p10502
atp10503
Rp10504
(dp10505
g16
VCC
p10506
sbag5
(g6
g7
(lp10507
g5
(g6
g7
(lp10508
Vthe
p10509
atp10510
Rp10511
(dp10512
g16
VDT
p10513
sbag5
(g6
g7
(lp10514
Vannotated
p10515
atp10516
Rp10517
(dp10518
g16
VJJ
p10519
sbag5
(g6
g7
(lp10520
Vtraining
p10521
atp10522
Rp10523
(dp10524
g16
VNN
p10525
sbag5
(g6
g7
(lp10526
Vdata
p10527
atp10528
Rp10529
(dp10530
g16
VNNS
p10531
sbatp10532
Rp10533
(dp10534
g16
VNP
p10535
sbatp10536
Rp10537
(dp10538
g16
VNP
p10539
sbatp10540
Rp10541
(dp10542
g16
VVP
p10543
sbatp10544
Rp10545
(dp10546
g16
g207
sbatp10547
Rp10548
(dp10549
g16
VPP
p10550
sbatp10551
Rp10552
(dp10553
g16
VVP
p10554
sbatp10555
Rp10556
(dp10557
g16
g207
sbatp10558
Rp10559
(dp10560
g16
VPP
p10561
sbatp10562
Rp10563
(dp10564
g16
VNP
p10565
sbatp10566
Rp10567
(dp10568
g16
VPP
p10569
sbag5
(g6
g7
(lp10570
g79
atp10571
Rp10572
(dp10573
g16
g79
sbag5
(g6
g7
(lp10574
g5
(g6
g7
(lp10575
Vwe
p10576
atp10577
Rp10578
(dp10579
g16
VPRP
p10580
sbatp10581
Rp10582
(dp10583
g16
VNP
p10584
sbag5
(g6
g7
(lp10585
g5
(g6
g7
(lp10586
Vassume
p10587
atp10588
Rp10589
(dp10590
g16
VVBP
p10591
sbag5
(g6
g7
(lp10592
g5
(g6
g7
(lp10593
g5
(g6
g7
(lp10594
g5
(g6
g7
(lp10595
Vall
p10596
atp10597
Rp10598
(dp10599
g16
VPDT
p10600
sbag5
(g6
g7
(lp10601
Vthe
p10602
atp10603
Rp10604
(dp10605
g16
VDT
p10606
sbag5
(g6
g7
(lp10607
Vevent-related
p10608
atp10609
Rp10610
(dp10611
g16
VJJ
p10612
sbag5
(g6
g7
(lp10613
Vphrases
p10614
atp10615
Rp10616
(dp10617
g16
VNNS
p10618
sbatp10619
Rp10620
(dp10621
g16
VNP
p10622
sbag5
(g6
g7
(lp10623
g5
(g6
g7
(lp10624
Vare
p10625
atp10626
Rp10627
(dp10628
g16
VVBP
p10629
sbag5
(g6
g7
(lp10630
g5
(g6
g7
(lp10631
g5
(g6
g7
(lp10632
Videntified
p10633
atp10634
Rp10635
(dp10636
g16
VVBN
p10637
sbag5
(g6
g7
(lp10638
g5
(g6
g7
(lp10639
Vcorrectly
p10640
atp10641
Rp10642
(dp10643
g16
VRB
p10644
sbatp10645
Rp10646
(dp10647
g16
VADVP
p10648
sbatp10649
Rp10650
(dp10651
g16
VVP
p10652
sbag5
(g6
g7
(lp10653
Vand
p10654
atp10655
Rp10656
(dp10657
g16
VCC
p10658
sbag5
(g6
g7
(lp10659
g5
(g6
g7
(lp10660
Vsimply
p10661
atp10662
Rp10663
(dp10664
g16
VRB
p10665
sbatp10666
Rp10667
(dp10668
g16
VADVP
p10669
sbag5
(g6
g7
(lp10670
g5
(g6
g7
(lp10671
Vuse
p10672
atp10673
Rp10674
(dp10675
g16
VVB
p10676
sbag5
(g6
g7
(lp10677
g5
(g6
g7
(lp10678
Vthe
p10679
atp10680
Rp10681
(dp10682
g16
VDT
p10683
sbag5
(g6
g7
(lp10684
Vevent
p10685
atp10686
Rp10687
(dp10688
g16
VNN
p10689
sbag5
(g6
g7
(lp10690
Vtrigger
p10691
atp10692
Rp10693
(dp10694
g16
VNN
p10695
sbag5
(g6
g7
(lp10696
Vwords
p10697
atp10698
Rp10699
(dp10700
g16
VNNS
p10701
sbag5
(g6
g7
(lp10702
Vannotated
p10703
atp10704
Rp10705
(dp10706
g16
VNN
p10707
sbatp10708
Rp10709
(dp10710
g16
VNP
p10711
sbag5
(g6
g7
(lp10712
g5
(g6
g7
(lp10713
Vin
p10714
atp10715
Rp10716
(dp10717
g16
VIN
p10718
sbag5
(g6
g7
(lp10719
g5
(g6
g7
(lp10720
Vthe
p10721
atp10722
Rp10723
(dp10724
g16
VDT
p10725
sbag5
(g6
g7
(lp10726
VFSD
p10727
atp10728
Rp10729
(dp10730
g16
VNNP
p10731
sbag5
(g6
g7
(lp10732
Vcorpus
p10733
atp10734
Rp10735
(dp10736
g16
VNN
p10737
sbatp10738
Rp10739
(dp10740
g16
VNP
p10741
sbatp10742
Rp10743
(dp10744
g16
VPP
p10745
sbag5
(g6
g7
(lp10746
g5
(g6
g7
(lp10747
Vas
p10748
atp10749
Rp10750
(dp10751
g16
VIN
p10752
sbag5
(g6
g7
(lp10753
g5
(g6
g7
(lp10754
g3325
atp10755
Rp10756
(dp10757
g16
VNN
p10758
sbatp10759
Rp10760
(dp10761
g16
VNP
p10762
sbatp10763
Rp10764
(dp10765
g16
VPP
p10766
sbag5
(g6
g7
(lp10767
g5
(g6
g7
(lp10768
g5
(g6
g7
(lp10769
Vto
p10770
atp10771
Rp10772
(dp10773
g16
VTO
p10774
sbag5
(g6
g7
(lp10775
g5
(g6
g7
(lp10776
Vform
p10777
atp10778
Rp10779
(dp10780
g16
VVB
p10781
sbag5
(g6
g7
(lp10782
g5
(g6
g7
(lp10783
g5
(g6
g7
(lp10784
Vthe
p10785
atp10786
Rp10787
(dp10788
g16
VDT
p10789
sbag5
(g6
g7
(lp10790
Vevent
p10791
atp10792
Rp10793
(dp10794
g16
VNN
p10795
sbatp10796
Rp10797
(dp10798
g16
VNP
p10799
sbag5
(g6
g7
(lp10800
g5
(g6
g7
(lp10801
V3-tuples
p10802
atp10803
Rp10804
(dp10805
g16
VJJ
p10806
sbatp10807
Rp10808
(dp10809
g16
VADJP
p10810
sbatp10811
Rp10812
(dp10813
g16
g207
sbatp10814
Rp10815
(dp10816
g16
VVP
p10817
sbatp10818
Rp10819
(dp10820
g16
VVP
p10821
sbatp10822
Rp10823
(dp10824
g16
g207
sbatp10825
Rp10826
(dp10827
g16
VVP
p10828
sbatp10829
Rp10830
(dp10831
g16
VVP
p10832
sbatp10833
Rp10834
(dp10835
g16
VVP
p10836
sbatp10837
Rp10838
(dp10839
g16
g207
sbatp10840
Rp10841
(dp10842
g16
VSBAR
p10843
sbatp10844
Rp10845
(dp10846
g16
VVP
p10847
sbatp10848
Rp10849
(dp10850
g16
g207
sbatp10851
Rp10852
(dp10853
g16
VROOT
p10854
sbasg384
(icmyPackage
CorE
p10855
(dp10856
g387
(lp10857
(I0
I2
tp10858
a(I0
I19
tp10859
asg391
g10563
sbsg392
(icmyPackage
CorE
p10860
(dp10861
g387
(lp10862
(I0
I21
tp10863
a(I0
I48
tp10864
asg391
g5
(g6
g7
(lp10865
g10582
ag10845
atp10866
Rp10867
(dp10868
g16
g402
sbsbsg403
(icmyPackage
pattern
p10869
(dp10870
g406
I0
sg407
I0
sg408
(lp10871
(lp10872
S'due'
p10873
aS'to'
p10874
aasg412
(lp10875
I2
aI1
aI1
asg414
(lp10876
S'Due to limitations in size and legal rules, our efforts did not blossom'
p10877
asg417
I71
sg418
(lp10878
(lp10879
a(lp10880
S'&NP@C@'
p10881
aS'(,)'
p10882
aS'&R'
p10883
aasbsg427
(lp10884
(isxpPackage
sxpSent
p10885
(dp10886
g431
(lp10887
I26
asg433
VDue to the difficulties of re-implementing the sequence labeler without knowing the actual features set and the annotated training data, we assume all the event-related phrases are identified correctly and simply use the event trigger words annotated in the FSD corpus as k to form the event 3-tuples
p10888
sg435
I11
sg417
I104
sg436
I30
sbasba(icmyPackage
CELink
p10889
(dp10890
g3
(lp10891
g5
(g6
g7
(lp10892
g5
(g6
g7
(lp10893
g5
(g6
g7
(lp10894
g5
(g6
g7
(lp10895
VFor
p10896
atp10897
Rp10898
(dp10899
g16
VIN
p10900
sbag5
(g6
g7
(lp10901
g5
(g6
g7
(lp10902
g5
(g6
g7
(lp10903
g5
(g6
g7
(lp10904
Vthe
p10905
atp10906
Rp10907
(dp10908
g16
VDT
p10909
sbag5
(g6
g7
(lp10910
V4-tuple
p10911
atp10912
Rp10913
(dp10914
g16
VJJ
p10915
sbag5
(g6
g7
(lp10916
g3237
atp10917
Rp10918
(dp10919
g16
VNN
p10920
sbag5
(g6
g7
(lp10921
g3243
atp10922
Rp10923
(dp10924
g16
VPOS
p10925
sbatp10926
Rp10927
(dp10928
g16
VNP
p10929
sbag5
(g6
g7
(lp10930
V\u005c
p10931
atp10932
Rp10933
(dp10934
g16
VJJ
p10935
sbag5
(g6
g7
(lp10936
Vu27e8
p10937
atp10938
Rp10939
(dp10940
g16
VJJ
p10941
sbag5
(g6
g7
(lp10942
g3243
atp10943
Rp10944
(dp10945
g16
V''
p10946
sbag5
(g6
g7
(lp10947
g3270
atp10948
Rp10949
(dp10950
g16
VNN
p10951
sbatp10952
Rp10953
(dp10954
g16
VNP
p10955
sbag5
(g6
g7
(lp10956
g79
atp10957
Rp10958
(dp10959
g16
g79
sbag5
(g6
g7
(lp10960
g5
(g6
g7
(lp10961
g5
(g6
g7
(lp10962
g3285
atp10963
Rp10964
(dp10965
g16
VLS
p10966
sbatp10967
Rp10968
(dp10969
g16
VLST
p10970
sbag5
(g6
g7
(lp10971
g79
atp10972
Rp10973
(dp10974
g16
g79
sbag5
(g6
g7
(lp10975
g5
(g6
g7
(lp10976
g5
(g6
g7
(lp10977
g3308
atp10978
Rp10979
(dp10980
g16
VNN
p10981
sbatp10982
Rp10983
(dp10984
g16
VNP
p10985
sbag5
(g6
g7
(lp10986
g79
atp10987
Rp10988
(dp10989
g16
g79
sbag5
(g6
g7
(lp10990
g5
(g6
g7
(lp10991
g5
(g6
g7
(lp10992
g3325
atp10993
Rp10994
(dp10995
g16
VNNP
p10996
sbag5
(g6
g7
(lp10997
g3237
atp10998
Rp10999
(dp11000
g16
VNNP
p11001
sbag5
(g6
g7
(lp11002
g3243
atp11003
Rp11004
(dp11005
g16
VPOS
p11006
sbatp11007
Rp11008
(dp11009
g16
VNP
p11010
sbag5
(g6
g7
(lp11011
V\u005c
p11012
atp11013
Rp11014
(dp11015
g16
VNN
p11016
sbag5
(g6
g7
(lp11017
Vu27e9
p11018
atp11019
Rp11020
(dp11021
g16
VNNS
p11022
sbag5
(g6
g7
(lp11023
g3243
atp11024
Rp11025
(dp11026
g16
V''
p11027
sbatp11028
Rp11029
(dp11030
g16
VNP
p11031
sbatp11032
Rp11033
(dp11034
g16
VNP
p11035
sbatp11036
Rp11037
(dp11038
g16
VNP
p11039
sbatp11040
Rp11041
(dp11042
g16
VNP
p11043
sbatp11044
Rp11045
(dp11046
g16
VPP
p11047
sbag5
(g6
g7
(lp11048
g79
atp11049
Rp11050
(dp11051
g16
g79
sbag5
(g6
g7
(lp11052
g5
(g6
g7
(lp11053
Vthe
p11054
atp11055
Rp11056
(dp11057
g16
VDT
p11058
sbag5
(g6
g7
(lp11059
Vprecision
p11060
atp11061
Rp11062
(dp11063
g16
VNN
p11064
sbatp11065
Rp11066
(dp11067
g16
VNP
p11068
sbag5
(g6
g7
(lp11069
g5
(g6
g7
(lp11070
Vis
p11071
atp11072
Rp11073
(dp11074
g16
VVBZ
p11075
sbag5
(g6
g7
(lp11076
g5
(g6
g7
(lp11077
Vcalculated
p11078
atp11079
Rp11080
(dp11081
g16
VVBN
p11082
sbag5
(g6
g7
(lp11083
g5
(g6
g7
(lp11084
Vbased
p11085
atp11086
Rp11087
(dp11088
g16
VVBN
p11089
sbag5
(g6
g7
(lp11090
g5
(g6
g7
(lp11091
Von
p11092
atp11093
Rp11094
(dp11095
g16
VIN
p11096
sbag5
(g6
g7
(lp11097
g5
(g6
g7
(lp11098
Vthe
p11099
atp11100
Rp11101
(dp11102
g16
VDT
p11103
sbag5
(g6
g7
(lp11104
Vfollowing
p11105
atp11106
Rp11107
(dp11108
g16
VVBG
p11109
sbag5
(g6
g7
(lp11110
Vcriteria
p11111
atp11112
Rp11113
(dp11114
g16
VNNS
p11115
sbatp11116
Rp11117
(dp11118
g16
VNP
p11119
sbatp11120
Rp11121
(dp11122
g16
VPP
p11123
sbatp11124
Rp11125
(dp11126
g16
VPP
p11127
sbatp11128
Rp11129
(dp11130
g16
VVP
p11131
sbatp11132
Rp11133
(dp11134
g16
VVP
p11135
sbatp11136
Rp11137
(dp11138
g16
g207
sbatp11139
Rp11140
(dp11141
g16
VROOT
p11142
sbasg384
(icmyPackage
CorE
p11143
(dp11144
g387
(lp11145
(I0
I27
tp11146
a(I0
I29
tp11147
asg391
g11117
sbsg392
(icmyPackage
CorE
p11148
(dp11149
g387
(lp11150
(I0
I0
tp11151
a(I0
I24
tp11152
asg391
g5
(g6
g7
(lp11153
g11045
ag11050
ag11066
ag11073
ag11080
atp11154
Rp11155
(dp11156
g16
g402
sbsbsg403
g2548
sg427
(lp11157
(isxpPackage
sxpSent
p11158
(dp11159
g431
(lp11160
I27
asg433
VFor the 4-tuple u'\u005cu27e8' y , d , l , k u'\u005cu27e9' , the precision is calculated based on the following criteria
p11161
sg435
I12
sg417
I107
sg436
I31
sbasba(icmyPackage
CELink
p11162
(dp11163
g3
(lp11164
g5
(g6
g7
(lp11165
g5
(g6
g7
(lp11166
g5
(g6
g7
(lp11167
g5
(g6
g7
(lp11168
VIf
p11169
atp11170
Rp11171
(dp11172
g16
VIN
p11173
sbag5
(g6
g7
(lp11174
g5
(g6
g7
(lp11175
g5
(g6
g7
(lp11176
Vthe
p11177
atp11178
Rp11179
(dp11180
g16
VDT
p11181
sbag5
(g6
g7
(lp11182
Vextracted
p11183
atp11184
Rp11185
(dp11186
g16
VJJ
p11187
sbag5
(g6
g7
(lp11188
Vrepresentation
p11189
atp11190
Rp11191
(dp11192
g16
VNN
p11193
sbatp11194
Rp11195
(dp11196
g16
VNP
p11197
sbag5
(g6
g7
(lp11198
g5
(g6
g7
(lp11199
Vdoes
p11200
atp11201
Rp11202
(dp11203
g16
VVBZ
p11204
sbag5
(g6
g7
(lp11205
Vnot
p11206
atp11207
Rp11208
(dp11209
g16
VRB
p11210
sbag5
(g6
g7
(lp11211
g5
(g6
g7
(lp11212
Vcontain
p11213
atp11214
Rp11215
(dp11216
g16
VVB
p11217
sbag5
(g6
g7
(lp11218
g5
(g6
g7
(lp11219
Vkeywords
p11220
atp11221
Rp11222
(dp11223
g16
VNNS
p11224
sbatp11225
Rp11226
(dp11227
g16
VNP
p11228
sbatp11229
Rp11230
(dp11231
g16
VVP
p11232
sbatp11233
Rp11234
(dp11235
g16
VVP
p11236
sbatp11237
Rp11238
(dp11239
g16
g207
sbatp11240
Rp11241
(dp11242
g16
VSBAR
p11243
sbag5
(g6
g7
(lp11244
g79
atp11245
Rp11246
(dp11247
g16
g79
sbag5
(g6
g7
(lp11248
g5
(g6
g7
(lp11249
Vits
p11250
atp11251
Rp11252
(dp11253
g16
VPRP$
p11254
sbag5
(g6
g7
(lp11255
Vprecision
p11256
atp11257
Rp11258
(dp11259
g16
VNN
p11260
sbatp11261
Rp11262
(dp11263
g16
VNP
p11264
sbag5
(g6
g7
(lp11265
g5
(g6
g7
(lp11266
Vis
p11267
atp11268
Rp11269
(dp11270
g16
VVBZ
p11271
sbag5
(g6
g7
(lp11272
g5
(g6
g7
(lp11273
Vcalculated
p11274
atp11275
Rp11276
(dp11277
g16
VVBN
p11278
sbag5
(g6
g7
(lp11279
g5
(g6
g7
(lp11280
Vby
p11281
atp11282
Rp11283
(dp11284
g16
VIN
p11285
sbag5
(g6
g7
(lp11286
g5
(g6
g7
(lp11287
g5
(g6
g7
(lp11288
Vchecking
p11289
atp11290
Rp11291
(dp11292
g16
VVBG
p11293
sbag5
(g6
g7
(lp11294
g5
(g6
g7
(lp11295
g5
(g6
g7
(lp11296
Vthe
p11297
atp11298
Rp11299
(dp11300
g16
VDT
p11301
sbag5
(g6
g7
(lp11302
Vcriteria
p11303
atp11304
Rp11305
(dp11306
g16
VNNS
p11307
sbatp11308
Rp11309
(dp11310
g16
VNP
p11311
sbag5
(g6
g7
(lp11312
g5
(g6
g7
(lp11313
g1906
atp11314
Rp11315
(dp11316
g16
VCD
p11317
sbatp11318
Rp11319
(dp11320
g16
VNP
p11321
sbatp11322
Rp11323
(dp11324
g16
VNP
p11325
sbatp11326
Rp11327
(dp11328
g16
VVP
p11329
sbatp11330
Rp11331
(dp11332
g16
g207
sbatp11333
Rp11334
(dp11335
g16
VPP
p11336
sbatp11337
Rp11338
(dp11339
g16
VVP
p11340
sbatp11341
Rp11342
(dp11343
g16
VVP
p11344
sbatp11345
Rp11346
(dp11347
g16
g207
sbatp11348
Rp11349
(dp11350
g16
VROOT
p11351
sbasg384
(icmyPackage
CorE
p11352
(dp11353
g387
(lp11354
(I0
I1
tp11355
a(I0
I7
tp11356
asg391
g11238
sbsg392
(icmyPackage
CorE
p11357
(dp11358
g387
(lp11359
(I0
I9
tp11360
a(I0
I17
tp11361
asg391
g5
(g6
g7
(lp11362
g11262
ag11342
atp11363
Rp11364
(dp11365
g16
g402
sbsbsg403
g7920
sg427
(lp11366
(isxpPackage
sxpSent
p11367
(dp11368
g431
(lp11369
I28
aI29
asg433
VIf the extracted representation does not contain keywords, its precision is calculated by checking the criteria 1
p11370
sg435
I12
sg417
I110
sg436
I34
sbasba(icmyPackage
CELink
p11371
(dp11372
g3
(lp11373
g11364
asg384
(icmyPackage
CorE
p11374
(dp11375
g387
(lp11376
(I0
I5
tp11377
a(I0
I8
tp11378
asg391
g11331
sbsg392
(icmyPackage
CorE
p11379
(dp11380
g387
(lp11381
(I0
I0
tp11382
a(I0
I3
tp11383
asg391
g5
(g6
g7
(lp11384
g11262
ag11269
ag11276
atp11385
Rp11386
(dp11387
g16
g402
sbsbsg403
g1984
sg427
(lp11388
g11367
asba(icmyPackage
CELink
p11389
(dp11390
g3
(lp11391
g5
(g6
g7
(lp11392
g5
(g6
g7
(lp11393
g5
(g6
g7
(lp11394
g5
(g6
g7
(lp11395
VIf
p11396
atp11397
Rp11398
(dp11399
g16
VIN
p11400
sbag5
(g6
g7
(lp11401
g5
(g6
g7
(lp11402
g5
(g6
g7
(lp11403
Vthe
p11404
atp11405
Rp11406
(dp11407
g16
VDT
p11408
sbag5
(g6
g7
(lp11409
Vextracted
p11410
atp11411
Rp11412
(dp11413
g16
VJJ
p11414
sbag5
(g6
g7
(lp11415
Vrepresentation
p11416
atp11417
Rp11418
(dp11419
g16
VNN
p11420
sbatp11421
Rp11422
(dp11423
g16
VNP
p11424
sbag5
(g6
g7
(lp11425
g5
(g6
g7
(lp11426
Vcontains
p11427
atp11428
Rp11429
(dp11430
g16
VVBZ
p11431
sbag5
(g6
g7
(lp11432
g5
(g6
g7
(lp11433
Vkeywords
p11434
atp11435
Rp11436
(dp11437
g16
VNNS
p11438
sbatp11439
Rp11440
(dp11441
g16
VNP
p11442
sbatp11443
Rp11444
(dp11445
g16
VVP
p11446
sbatp11447
Rp11448
(dp11449
g16
g207
sbatp11450
Rp11451
(dp11452
g16
VSBAR
p11453
sbag5
(g6
g7
(lp11454
g79
atp11455
Rp11456
(dp11457
g16
g79
sbag5
(g6
g7
(lp11458
g5
(g6
g7
(lp11459
Vits
p11460
atp11461
Rp11462
(dp11463
g16
VPRP$
p11464
sbag5
(g6
g7
(lp11465
Vprecision
p11466
atp11467
Rp11468
(dp11469
g16
VNN
p11470
sbatp11471
Rp11472
(dp11473
g16
VNP
p11474
sbag5
(g6
g7
(lp11475
g5
(g6
g7
(lp11476
Vis
p11477
atp11478
Rp11479
(dp11480
g16
VVBZ
p11481
sbag5
(g6
g7
(lp11482
g5
(g6
g7
(lp11483
Vcalculated
p11484
atp11485
Rp11486
(dp11487
g16
VVBN
p11488
sbag5
(g6
g7
(lp11489
g5
(g6
g7
(lp11490
Vby
p11491
atp11492
Rp11493
(dp11494
g16
VIN
p11495
sbag5
(g6
g7
(lp11496
g5
(g6
g7
(lp11497
g5
(g6
g7
(lp11498
Vchecking
p11499
atp11500
Rp11501
(dp11502
g16
VVBG
p11503
sbag5
(g6
g7
(lp11504
g5
(g6
g7
(lp11505
Vboth
p11506
atp11507
Rp11508
(dp11509
g16
VCC
p11510
sbag5
(g6
g7
(lp11511
g5
(g6
g7
(lp11512
Vcriteria
p11513
atp11514
Rp11515
(dp11516
g16
VNNS
p11517
sbag5
(g6
g7
(lp11518
g1906
atp11519
Rp11520
(dp11521
g16
VCD
p11522
sbag5
(g6
g7
(lp11523
Vand
p11524
atp11525
Rp11526
(dp11527
g16
VCC
p11528
sbag5
(g6
g7
(lp11529
g4373
atp11530
Rp11531
(dp11532
g16
VCD
p11533
sbatp11534
Rp11535
(dp11536
g16
VNP
p11537
sbatp11538
Rp11539
(dp11540
g16
VPP
p11541
sbatp11542
Rp11543
(dp11544
g16
VVP
p11545
sbatp11546
Rp11547
(dp11548
g16
g207
sbatp11549
Rp11550
(dp11551
g16
VPP
p11552
sbatp11553
Rp11554
(dp11555
g16
VVP
p11556
sbatp11557
Rp11558
(dp11559
g16
VVP
p11560
sbatp11561
Rp11562
(dp11563
g16
g207
sbatp11564
Rp11565
(dp11566
g16
VROOT
p11567
sbasg384
(icmyPackage
CorE
p11568
(dp11569
g387
(lp11570
(I0
I1
tp11571
a(I0
I5
tp11572
asg391
g11448
sbsg392
(icmyPackage
CorE
p11573
(dp11574
g387
(lp11575
(I0
I7
tp11576
a(I0
I17
tp11577
asg391
g5
(g6
g7
(lp11578
g11472
ag11558
atp11579
Rp11580
(dp11581
g16
g402
sbsbsg403
g7920
sg427
(lp11582
(isxpPackage
sxpSent
p11583
(dp11584
g431
(lp11585
I30
aI31
asg433
VIf the extracted representation contains keywords, its precision is calculated by checking both criteria 1 and 2
p11586
sg435
I12
sg417
I111
sg436
I34
sbasba(icmyPackage
CELink
p11587
(dp11588
g3
(lp11589
g11580
asg384
(icmyPackage
CorE
p11590
(dp11591
g387
(lp11592
(I0
I5
tp11593
a(I0
I10
tp11594
asg391
g11547
sbsg392
(icmyPackage
CorE
p11595
(dp11596
g387
(lp11597
(I0
I0
tp11598
a(I0
I3
tp11599
asg391
g5
(g6
g7
(lp11600
g11472
ag11479
ag11486
atp11601
Rp11602
(dp11603
g16
g402
sbsbsg403
g1984
sg427
(lp11604
g11583
asba(icmyPackage
CELink
p11605
(dp11606
g3
(lp11607
g5
(g6
g7
(lp11608
g5
(g6
g7
(lp11609
g5
(g6
g7
(lp11610
g5
(g6
g7
(lp11611
VIt
p11612
atp11613
Rp11614
(dp11615
g16
VPRP
p11616
sbatp11617
Rp11618
(dp11619
g16
VNP
p11620
sbag5
(g6
g7
(lp11621
g5
(g6
g7
(lp11622
Vcan
p11623
atp11624
Rp11625
(dp11626
g16
VMD
p11627
sbag5
(g6
g7
(lp11628
g5
(g6
g7
(lp11629
g5
(g6
g7
(lp11630
Vbe
p11631
atp11632
Rp11633
(dp11634
g16
VVB
p11635
sbag5
(g6
g7
(lp11636
g5
(g6
g7
(lp11637
Vobserved
p11638
atp11639
Rp11640
(dp11641
g16
VVBN
p11642
sbag5
(g6
g7
(lp11643
g5
(g6
g7
(lp11644
Vfrom
p11645
atp11646
Rp11647
(dp11648
g16
VIN
p11649
sbag5
(g6
g7
(lp11650
g5
(g6
g7
(lp11651
VTable
p11652
atp11653
Rp11654
(dp11655
g16
VNNP
p11656
sbag5
(g6
g7
(lp11657
g4373
atp11658
Rp11659
(dp11660
g16
VCD
p11661
sbatp11662
Rp11663
(dp11664
g16
VNP
p11665
sbatp11666
Rp11667
(dp11668
g16
VPP
p11669
sbag5
(g6
g7
(lp11670
g5
(g6
g7
(lp11671
Vthat
p11672
atp11673
Rp11674
(dp11675
g16
VIN
p11676
sbag5
(g6
g7
(lp11677
g5
(g6
g7
(lp11678
g5
(g6
g7
(lp11679
Vby
p11680
atp11681
Rp11682
(dp11683
g16
VIN
p11684
sbag5
(g6
g7
(lp11685
g5
(g6
g7
(lp11686
g5
(g6
g7
(lp11687
Vusing
p11688
atp11689
Rp11690
(dp11691
g16
VVBG
p11692
sbag5
(g6
g7
(lp11693
g5
(g6
g7
(lp11694
VNW-NER
p11695
atp11696
Rp11697
(dp11698
g16
VNN
p11699
sbatp11700
Rp11701
(dp11702
g16
VNP
p11703
sbatp11704
Rp11705
(dp11706
g16
VVP
p11707
sbatp11708
Rp11709
(dp11710
g16
g207
sbatp11711
Rp11712
(dp11713
g16
VPP
p11714
sbag5
(g6
g7
(lp11715
g79
atp11716
Rp11717
(dp11718
g16
g79
sbag5
(g6
g7
(lp11719
g5
(g6
g7
(lp11720
g5
(g6
g7
(lp11721
Vthe
p11722
atp11723
Rp11724
(dp11725
g16
VDT
p11726
sbag5
(g6
g7
(lp11727
Vperformance
p11728
atp11729
Rp11730
(dp11731
g16
VNN
p11732
sbatp11733
Rp11734
(dp11735
g16
VNP
p11736
sbag5
(g6
g7
(lp11737
g5
(g6
g7
(lp11738
Vof
p11739
atp11740
Rp11741
(dp11742
g16
VIN
p11743
sbag5
(g6
g7
(lp11744
g5
(g6
g7
(lp11745
Vevent
p11746
atp11747
Rp11748
(dp11749
g16
VNN
p11750
sbag5
(g6
g7
(lp11751
Vextraction
p11752
atp11753
Rp11754
(dp11755
g16
VNN
p11756
sbag5
(g6
g7
(lp11757
Vsystem
p11758
atp11759
Rp11760
(dp11761
g16
VNN
p11762
sbatp11763
Rp11764
(dp11765
g16
VNP
p11766
sbatp11767
Rp11768
(dp11769
g16
VPP
p11770
sbatp11771
Rp11772
(dp11773
g16
VNP
p11774
sbag5
(g6
g7
(lp11775
g5
(g6
g7
(lp11776
Vis
p11777
atp11778
Rp11779
(dp11780
g16
VVBZ
p11781
sbag5
(g6
g7
(lp11782
g5
(g6
g7
(lp11783
Vimproved
p11784
atp11785
Rp11786
(dp11787
g16
VVBN
p11788
sbag5
(g6
g7
(lp11789
g5
(g6
g7
(lp11790
Vsignificantly
p11791
atp11792
Rp11793
(dp11794
g16
VRB
p11795
sbag5
(g6
g7
(lp11796
g5
(g6
g7
(lp11797
Vby
p11798
atp11799
Rp11800
(dp11801
g16
VIN
p11802
sbag5
(g6
g7
(lp11803
g5
(g6
g7
(lp11804
g5
(g6
g7
(lp11805
V7.5
p11806
atp11807
Rp11808
(dp11809
g16
VCD
p11810
sbag5
(g6
g7
(lp11811
V%
p11812
atp11813
Rp11814
(dp11815
g16
VNN
p11816
sbag5
(g6
g7
(lp11817
Vand
p11818
atp11819
Rp11820
(dp11821
g16
VCC
p11822
sbag5
(g6
g7
(lp11823
V3
p11824
atp11825
Rp11826
(dp11827
g16
VCD
p11828
sbag5
(g6
g7
(lp11829
g11812
atp11830
Rp11831
(dp11832
g16
VNN
p11833
sbatp11834
Rp11835
(dp11836
g16
VQP
p11837
sbatp11838
Rp11839
(dp11840
g16
VNP
p11841
sbag5
(g6
g7
(lp11842
g5
(g6
g7
(lp11843
Vrespectively
p11844
atp11845
Rp11846
(dp11847
g16
VRB
p11848
sbatp11849
Rp11850
(dp11851
g16
VADVP
p11852
sbatp11853
Rp11854
(dp11855
g16
VPP
p11856
sbatp11857
Rp11858
(dp11859
g16
VADVP
p11860
sbag5
(g6
g7
(lp11861
g5
(g6
g7
(lp11862
Von
p11863
atp11864
Rp11865
(dp11866
g16
VIN
p11867
sbag5
(g6
g7
(lp11868
g5
(g6
g7
(lp11869
VF-measure
p11870
atp11871
Rp11872
(dp11873
g16
VNNP
p11874
sbatp11875
Rp11876
(dp11877
g16
VNP
p11878
sbatp11879
Rp11880
(dp11881
g16
VPP
p11882
sbag5
(g6
g7
(lp11883
g5
(g6
g7
(lp11884
g5
(g6
g7
(lp11885
Vwhen
p11886
atp11887
Rp11888
(dp11889
g16
VWRB
p11890
sbatp11891
Rp11892
(dp11893
g16
VWHADVP
p11894
sbag5
(g6
g7
(lp11895
g5
(g6
g7
(lp11896
g5
(g6
g7
(lp11897
Vevaluated
p11898
atp11899
Rp11900
(dp11901
g16
VVBN
p11902
sbag5
(g6
g7
(lp11903
g5
(g6
g7
(lp11904
Von
p11905
atp11906
Rp11907
(dp11908
g16
VIN
p11909
sbag5
(g6
g7
(lp11910
g5
(g6
g7
(lp11911
V3-tuples
p11912
atp11913
Rp11914
(dp11915
g16
VJJ
p11916
sbatp11917
Rp11918
(dp11919
g16
VADJP
p11920
sbatp11921
Rp11922
(dp11923
g16
VPP
p11924
sbag5
(g6
g7
(lp11925
g5
(g6
g7
(lp11926
V-LRB-
p11927
atp11928
Rp11929
(dp11930
g16
V-LRB-
p11931
sbag5
(g6
g7
(lp11932
g5
(g6
g7
(lp11933
Vwithout
p11934
atp11935
Rp11936
(dp11937
g16
VIN
p11938
sbag5
(g6
g7
(lp11939
g5
(g6
g7
(lp11940
Vkeywords
p11941
atp11942
Rp11943
(dp11944
g16
VNNS
p11945
sbatp11946
Rp11947
(dp11948
g16
VNP
p11949
sbatp11950
Rp11951
(dp11952
g16
VPP
p11953
sbag5
(g6
g7
(lp11954
V-RRB-
p11955
atp11956
Rp11957
(dp11958
g16
V-RRB-
p11959
sbatp11960
Rp11961
(dp11962
g16
VPRN
p11963
sbatp11964
Rp11965
(dp11966
g16
VVP
p11967
sbatp11968
Rp11969
(dp11970
g16
g207
sbatp11971
Rp11972
(dp11973
g16
VSBAR
p11974
sbatp11975
Rp11976
(dp11977
g16
VVP
p11978
sbatp11979
Rp11980
(dp11981
g16
VVP
p11982
sbatp11983
Rp11984
(dp11985
g16
g207
sbatp11986
Rp11987
(dp11988
g16
VSBAR
p11989
sbatp11990
Rp11991
(dp11992
g16
VVP
p11993
sbatp11994
Rp11995
(dp11996
g16
VVP
p11997
sbag5
(g6
g7
(lp11998
Vor
p11999
atp12000
Rp12001
(dp12002
g16
VCC
p12003
sbag5
(g6
g7
(lp12004
g5
(g6
g7
(lp12005
V4-tuples
p12006
atp12007
Rp12008
(dp12009
g16
VVB
p12010
sbag5
(g6
g7
(lp12011
V-LRB-
p12012
atp12013
Rp12014
(dp12015
g16
V-LRB-
p12016
sbag5
(g6
g7
(lp12017
g5
(g6
g7
(lp12018
Vwith
p12019
atp12020
Rp12021
(dp12022
g16
VIN
p12023
sbatp12024
Rp12025
(dp12026
g16
VPP
p12027
sbag5
(g6
g7
(lp12028
g5
(g6
g7
(lp12029
Vkeywords
p12030
atp12031
Rp12032
(dp12033
g16
VNNS
p12034
sbatp12035
Rp12036
(dp12037
g16
VNP
p12038
sbatp12039
Rp12040
(dp12041
g16
VVP
p12042
sbatp12043
Rp12044
(dp12045
g16
VVP
p12046
sbatp12047
Rp12048
(dp12049
g16
VVP
p12050
sbatp12051
Rp12052
(dp12053
g16
g207
sbatp12054
Rp12055
(dp12056
g16
VROOT
p12057
sbasg384
(icmyPackage
CorE
p12058
(dp12059
g387
(lp12060
(I0
I9
tp12061
a(I0
I10
tp12062
asg391
g11709
sbsg392
(icmyPackage
CorE
p12063
(dp12064
g387
(lp12065
(I0
I11
tp12066
a(I0
I42
tp12067
asg391
g5
(g6
g7
(lp12068
g11717
ag11772
ag11980
ag12001
ag12040
atp12069
Rp12070
(dp12071
g16
g402
sbsbsg403
(icmyPackage
pattern
p12072
(dp12073
g406
I0
sg407
I0
sg408
(lp12074
(lp12075
(lp12076
S'by'
p12077
aS'through'
p12078
aaasg412
(lp12079
I2
aI1
aI1
asg414
(lp12080
S'By extracting comments and comparisons of the cited articles and then organizing them according to the time of publication discovers and displays how the area has developed as a research literature.'
p12081
asg417
I67
sg418
(lp12082
(lp12083
a(lp12084
S'&V-ing@C@'
p12085
aS'&R'
p12086
aasbsg427
(lp12087
(isxpPackage
sxpSent
p12088
(dp12089
g431
(lp12090
I32
asg433
VIt can be observed from Table 2 that by using NW-NER, the performance of event extraction system is improved significantly by 7.5% and 3% respectively on F-measure when evaluated on 3-tuples (without keywords) or 4-tuples (with keywords
p12091
sg435
I14
sg417
I121
sg436
I36
sbasba(icmyPackage
CELink
p12092
(dp12093
g3
(lp12094
g5
(g6
g7
(lp12095
g5
(g6
g7
(lp12096
g5
(g6
g7
(lp12097
g5
(g6
g7
(lp12098
VThis
p12099
atp12100
Rp12101
(dp12102
g16
VDT
p12103
sbatp12104
Rp12105
(dp12106
g16
VNP
p12107
sbag5
(g6
g7
(lp12108
g5
(g6
g7
(lp12109
Vshows
p12110
atp12111
Rp12112
(dp12113
g16
VVBZ
p12114
sbag5
(g6
g7
(lp12115
g5
(g6
g7
(lp12116
Vthat
p12117
atp12118
Rp12119
(dp12120
g16
VIN
p12121
sbag5
(g6
g7
(lp12122
g5
(g6
g7
(lp12123
g5
(g6
g7
(lp12124
Vour
p12125
atp12126
Rp12127
(dp12128
g16
VPRP$
p12129
sbag5
(g6
g7
(lp12130
VLEM
p12131
atp12132
Rp12133
(dp12134
g16
VNNP
p12135
sbag5
(g6
g7
(lp12136
Vmodel
p12137
atp12138
Rp12139
(dp12140
g16
VNN
p12141
sbatp12142
Rp12143
(dp12144
g16
VNP
p12145
sbag5
(g6
g7
(lp12146
g5
(g6
g7
(lp12147
Vis
p12148
atp12149
Rp12150
(dp12151
g16
VVBZ
p12152
sbag5
(g6
g7
(lp12153
g5
(g6
g7
(lp12154
Vless
p12155
atp12156
Rp12157
(dp12158
g16
VRBR
p12159
sbag5
(g6
g7
(lp12160
Vsensitive
p12161
atp12162
Rp12163
(dp12164
g16
VJJ
p12165
sbag5
(g6
g7
(lp12166
g5
(g6
g7
(lp12167
Vto
p12168
atp12169
Rp12170
(dp12171
g16
VTO
p12172
sbag5
(g6
g7
(lp12173
g5
(g6
g7
(lp12174
g5
(g6
g7
(lp12175
Vthe
p12176
atp12177
Rp12178
(dp12179
g16
VDT
p12180
sbag5
(g6
g7
(lp12181
Vnumber
p12182
atp12183
Rp12184
(dp12185
g16
VNN
p12186
sbatp12187
Rp12188
(dp12189
g16
VNP
p12190
sbag5
(g6
g7
(lp12191
g5
(g6
g7
(lp12192
Vof
p12193
atp12194
Rp12195
(dp12196
g16
VIN
p12197
sbag5
(g6
g7
(lp12198
g5
(g6
g7
(lp12199
Vevents
p12200
atp12201
Rp12202
(dp12203
g16
VNNS
p12204
sbag5
(g6
g7
(lp12205
VE
p12206
atp12207
Rp12208
(dp12209
g16
VNN
p12210
sbatp12211
Rp12212
(dp12213
g16
VNP
p12214
sbatp12215
Rp12216
(dp12217
g16
VPP
p12218
sbatp12219
Rp12220
(dp12221
g16
VNP
p12222
sbatp12223
Rp12224
(dp12225
g16
VPP
p12226
sbatp12227
Rp12228
(dp12229
g16
VADJP
p12230
sbag5
(g6
g7
(lp12231
g5
(g6
g7
(lp12232
g5
(g6
g7
(lp12233
Vso
p12234
atp12235
Rp12236
(dp12237
g16
VRB
p12238
sbag5
(g6
g7
(lp12239
Vlong
p12240
atp12241
Rp12242
(dp12243
g16
VRB
p12244
sbatp12245
Rp12246
(dp12247
g16
VADVP
p12248
sbag5
(g6
g7
(lp12249
g5
(g6
g7
(lp12250
Vas
p12251
atp12252
Rp12253
(dp12254
g16
VIN
p12255
sbag5
(g6
g7
(lp12256
g5
(g6
g7
(lp12257
g5
(g6
g7
(lp12258
g12206
atp12259
Rp12260
(dp12261
g16
VNNP
p12262
sbatp12263
Rp12264
(dp12265
g16
VNP
p12266
sbag5
(g6
g7
(lp12267
g5
(g6
g7
(lp12268
Vis
p12269
atp12270
Rp12271
(dp12272
g16
VVBZ
p12273
sbag5
(g6
g7
(lp12274
g5
(g6
g7
(lp12275
Vset
p12276
atp12277
Rp12278
(dp12279
g16
VVBN
p12280
sbag5
(g6
g7
(lp12281
g5
(g6
g7
(lp12282
Vto
p12283
atp12284
Rp12285
(dp12286
g16
VTO
p12287
sbag5
(g6
g7
(lp12288
g5
(g6
g7
(lp12289
g1495
atp12290
Rp12291
(dp12292
g16
VDT
p12293
sbag5
(g6
g7
(lp12294
g5
(g6
g7
(lp12295
Vrelatively
p12296
atp12297
Rp12298
(dp12299
g16
VRB
p12300
sbag5
(g6
g7
(lp12301
Vlarger
p12302
atp12303
Rp12304
(dp12305
g16
VJJR
p12306
sbatp12307
Rp12308
(dp12309
g16
VADJP
p12310
sbag5
(g6
g7
(lp12311
Vvalue
p12312
atp12313
Rp12314
(dp12315
g16
VNN
p12316
sbatp12317
Rp12318
(dp12319
g16
VNP
p12320
sbatp12321
Rp12322
(dp12323
g16
VPP
p12324
sbatp12325
Rp12326
(dp12327
g16
VVP
p12328
sbatp12329
Rp12330
(dp12331
g16
VVP
p12332
sbatp12333
Rp12334
(dp12335
g16
g207
sbatp12336
Rp12337
(dp12338
g16
VSBAR
p12339
sbatp12340
Rp12341
(dp12342
g16
VADVP
p12343
sbatp12344
Rp12345
(dp12346
g16
VVP
p12347
sbatp12348
Rp12349
(dp12350
g16
g207
sbatp12351
Rp12352
(dp12353
g16
VSBAR
p12354
sbatp12355
Rp12356
(dp12357
g16
VVP
p12358
sbatp12359
Rp12360
(dp12361
g16
g207
sbatp12362
Rp12363
(dp12364
g16
VROOT
p12365
sbasg384
(icmyPackage
CorE
p12366
(dp12367
g387
(lp12368
(I0
I0
tp12369
a(I0
I14
tp12370
asg391
g5
(g6
g7
(lp12371
g12105
ag12112
ag12119
ag12143
ag12150
ag12228
atp12372
Rp12373
(dp12374
g16
g402
sbsbsg392
(icmyPackage
CorE
p12375
(dp12376
g387
(lp12377
(I0
I16
tp12378
a(I0
I24
tp12379
asg391
g5
(g6
g7
(lp12380
g12242
ag12253
ag12264
ag12271
ag12278
ag12285
ag12291
ag12308
atp12381
Rp12382
(dp12383
g16
g402
sbsbsg403
(icmyPackage
pattern
p12384
(dp12385
g406
I265
sg407
I1
sg408
(lp12386
(lp12387
S'so'
p12388
aasg412
(lp12389
I1
aI1
aI1
asg414
(lp12390
S'It was not long before he saw me looking at him, and so he began to move.'
p12391
asg417
I0
sg418
(lp12392
(lp12393
S'&C'
p12394
aS'(,/;/./--)'
p12395
aS'(&AND)'
p12396
aa(lp12397
S'(-far)'
p12398
aS'(,)'
p12399
aS'&R'
p12400
aasbsg427
(lp12401
(isxpPackage
sxpSent
p12402
(dp12403
g431
(lp12404
I33
asg433
VThis shows that our LEM model is less sensitive to the number of events E so long as E is set to a relatively larger value
p12405
sg435
I15
sg417
I126
sg436
I37
sbasba(icmyPackage
CELink
p12406
(dp12407
g3
(lp12408
g5
(g6
g7
(lp12409
g5
(g6
g7
(lp12410
g5
(g6
g7
(lp12411
g5
(g6
g7
(lp12412
VAfter
p12413
atp12414
Rp12415
(dp12416
g16
VIN
p12417
sbag5
(g6
g7
(lp12418
g5
(g6
g7
(lp12419
Vthat
p12420
atp12421
Rp12422
(dp12423
g16
VDT
p12424
sbatp12425
Rp12426
(dp12427
g16
VNP
p12428
sbatp12429
Rp12430
(dp12431
g16
VPP
p12432
sbag5
(g6
g7
(lp12433
g79
atp12434
Rp12435
(dp12436
g16
g79
sbag5
(g6
g7
(lp12437
g5
(g6
g7
(lp12438
Vthe
p12439
atp12440
Rp12441
(dp12442
g16
VDT
p12443
sbag5
(g6
g7
(lp12444
Vmodel
p12445
atp12446
Rp12447
(dp12448
g16
VNN
p12449
sbatp12450
Rp12451
(dp12452
g16
VNP
p12453
sbag5
(g6
g7
(lp12454
g5
(g6
g7
(lp12455
Vcan
p12456
atp12457
Rp12458
(dp12459
g16
VMD
p12460
sbag5
(g6
g7
(lp12461
g5
(g6
g7
(lp12462
Vautomatically
p12463
atp12464
Rp12465
(dp12466
g16
VRB
p12467
sbatp12468
Rp12469
(dp12470
g16
VADVP
p12471
sbag5
(g6
g7
(lp12472
g5
(g6
g7
(lp12473
Vextract
p12474
atp12475
Rp12476
(dp12477
g16
VVB
p12478
sbag5
(g6
g7
(lp12479
g5
(g6
g7
(lp12480
g5
(g6
g7
(lp12481
Vevents
p12482
atp12483
Rp12484
(dp12485
g16
VNNS
p12486
sbatp12487
Rp12488
(dp12489
g16
VNP
p12490
sbag5
(g6
g7
(lp12491
g5
(g6
g7
(lp12492
g5
(g6
g7
(lp12493
Vwhich
p12494
atp12495
Rp12496
(dp12497
g16
VWDT
p12498
sbatp12499
Rp12500
(dp12501
g16
VWHNP
p12502
sbag5
(g6
g7
(lp12503
g5
(g6
g7
(lp12504
g5
(g6
g7
(lp12505
Vinvolving
p12506
atp12507
Rp12508
(dp12509
g16
VVBG
p12510
sbag5
(g6
g7
(lp12511
g5
(g6
g7
(lp12512
g1495
atp12513
Rp12514
(dp12515
g16
VDT
p12516
sbag5
(g6
g7
(lp12517
Vnamed
p12518
atp12519
Rp12520
(dp12521
g16
VVBN
p12522
sbag5
(g6
g7
(lp12523
Ventity
p12524
atp12525
Rp12526
(dp12527
g16
VNN
p12528
sbatp12529
Rp12530
(dp12531
g16
VNP
p12532
sbag5
(g6
g7
(lp12533
g5
(g6
g7
(lp12534
g5
(g6
g7
(lp12535
Vat
p12536
atp12537
Rp12538
(dp12539
g16
VIN
p12540
sbag5
(g6
g7
(lp12541
g5
(g6
g7
(lp12542
g5
(g6
g7
(lp12543
Vcertain
p12544
atp12545
Rp12546
(dp12547
g16
VJJ
p12548
sbag5
(g6
g7
(lp12549
Vtime
p12550
atp12551
Rp12552
(dp12553
g16
VNN
p12554
sbatp12555
Rp12556
(dp12557
g16
VNP
p12558
sbag5
(g6
g7
(lp12559
g79
atp12560
Rp12561
(dp12562
g16
g79
sbag5
(g6
g7
(lp12563
g5
(g6
g7
(lp12564
Vlocation
p12565
atp12566
Rp12567
(dp12568
g16
VNN
p12569
sbatp12570
Rp12571
(dp12572
g16
VNP
p12573
sbag5
(g6
g7
(lp12574
g79
atp12575
Rp12576
(dp12577
g16
g79
sbatp12578
Rp12579
(dp12580
g16
VNP
p12581
sbatp12582
Rp12583
(dp12584
g16
VPP
p12585
sbag5
(g6
g7
(lp12586
Vand
p12587
atp12588
Rp12589
(dp12590
g16
VCC
p12591
sbag5
(g6
g7
(lp12592
g5
(g6
g7
(lp12593
Vwith
p12594
atp12595
Rp12596
(dp12597
g16
VIN
p12598
sbag5
(g6
g7
(lp12599
g5
(g6
g7
(lp12600
Vevent-related
p12601
atp12602
Rp12603
(dp12604
g16
VJJ
p12605
sbag5
(g6
g7
(lp12606
Vkeywords
p12607
atp12608
Rp12609
(dp12610
g16
VNNS
p12611
sbatp12612
Rp12613
(dp12614
g16
VNP
p12615
sbatp12616
Rp12617
(dp12618
g16
VPP
p12619
sbatp12620
Rp12621
(dp12622
g16
VPP
p12623
sbag5
(g6
g7
(lp12624
g5
(g6
g7
(lp12625
Vbased
p12626
atp12627
Rp12628
(dp12629
g16
VVBN
p12630
sbag5
(g6
g7
(lp12631
g5
(g6
g7
(lp12632
Von
p12633
atp12634
Rp12635
(dp12636
g16
VIN
p12637
sbag5
(g6
g7
(lp12638
g5
(g6
g7
(lp12639
g5
(g6
g7
(lp12640
Vthe
p12641
atp12642
Rp12643
(dp12644
g16
VDT
p12645
sbag5
(g6
g7
(lp12646
Vco-occurrence
p12647
atp12648
Rp12649
(dp12650
g16
VJJ
p12651
sbag5
(g6
g7
(lp12652
Vpatterns
p12653
atp12654
Rp12655
(dp12656
g16
VNNS
p12657
sbatp12658
Rp12659
(dp12660
g16
VNP
p12661
sbag5
(g6
g7
(lp12662
g5
(g6
g7
(lp12663
Vof
p12664
atp12665
Rp12666
(dp12667
g16
VIN
p12668
sbag5
(g6
g7
(lp12669
g5
(g6
g7
(lp12670
Vthe
p12671
atp12672
Rp12673
(dp12674
g16
VDT
p12675
sbag5
(g6
g7
(lp12676
Vevent
p12677
atp12678
Rp12679
(dp12680
g16
VNN
p12681
sbag5
(g6
g7
(lp12682
Velements
p12683
atp12684
Rp12685
(dp12686
g16
VNNS
p12687
sbatp12688
Rp12689
(dp12690
g16
VNP
p12691
sbatp12692
Rp12693
(dp12694
g16
VPP
p12695
sbatp12696
Rp12697
(dp12698
g16
VNP
p12699
sbatp12700
Rp12701
(dp12702
g16
VPP
p12703
sbatp12704
Rp12705
(dp12706
g16
VPP
p12707
sbatp12708
Rp12709
(dp12710
g16
VVP
p12711
sbatp12712
Rp12713
(dp12714
g16
g207
sbatp12715
Rp12716
(dp12717
g16
VSBAR
p12718
sbatp12719
Rp12720
(dp12721
g16
VNP
p12722
sbatp12723
Rp12724
(dp12725
g16
VVP
p12726
sbatp12727
Rp12728
(dp12729
g16
VVP
p12730
sbatp12731
Rp12732
(dp12733
g16
g207
sbatp12734
Rp12735
(dp12736
g16
VROOT
p12737
sbasg384
(icmyPackage
CorE
p12738
(dp12739
g387
(lp12740
(I0
I26
tp12741
a(I0
I32
tp12742
asg391
g12697
sbsg392
(icmyPackage
CorE
p12743
(dp12744
g387
(lp12745
(I0
I0
tp12746
a(I0
I23
tp12747
asg391
g5
(g6
g7
(lp12748
g12430
ag12435
ag12451
ag12458
ag12469
ag12476
ag12488
ag12500
ag12508
ag12530
ag12621
atp12749
Rp12750
(dp12751
g16
g402
sbsbsg403
g2548
sg427
(lp12752
(isxpPackage
sxpSent
p12753
(dp12754
g431
(lp12755
I34
asg433
VAfter that, the model can automatically extract events which involving a named entity at certain time, location, and with event-related keywords based on the co-occurrence patterns of the event elements
p12756
sg435
I16
sg417
I129
sg436
I38
sbasba.