(lp0
(icmyPackage
CELink
p1
(dp2
S'PTreelst'
p3
(lp4
ccopy_reg
_reconstructor
p5
(cnltk.tree
Tree
p6
c__builtin__
list
p7
(lp8
g5
(g6
g7
(lp9
g5
(g6
g7
(lp10
g5
(g6
g7
(lp11
g5
(g6
g7
(lp12
VWe
p13
atp14
Rp15
(dp16
S'_label'
p17
VPRP
p18
sbatp19
Rp20
(dp21
g17
VNP
p22
sbag5
(g6
g7
(lp23
g5
(g6
g7
(lp24
g5
(g6
g7
(lp25
Vsystematically
p26
atp27
Rp28
(dp29
g17
VRB
p30
sbatp31
Rp32
(dp33
g17
VADVP
p34
sbag5
(g6
g7
(lp35
Vexplore
p36
atp37
Rp38
(dp39
g17
VVB
p40
sbag5
(g6
g7
(lp41
g5
(g6
g7
(lp42
Vvarious
p43
atp44
Rp45
(dp46
g17
VJJ
p47
sbag5
(g6
g7
(lp48
Vways
p49
atp50
Rp51
(dp52
g17
VNNS
p53
sbatp54
Rp55
(dp56
g17
VNP
p57
sbag5
(g6
g7
(lp58
g5
(g6
g7
(lp59
g5
(g6
g7
(lp60
Vto
p61
atp62
Rp63
(dp64
g17
VTO
p65
sbag5
(g6
g7
(lp66
g5
(g6
g7
(lp67
g5
(g6
g7
(lp68
Vapply
p69
atp70
Rp71
(dp72
g17
VVB
p73
sbag5
(g6
g7
(lp74
g5
(g6
g7
(lp75
Vword
p76
atp77
Rp78
(dp79
g17
VNN
p80
sbag5
(g6
g7
(lp81
Vembeddings
p82
atp83
Rp84
(dp85
g17
VNNS
p86
sbatp87
Rp88
(dp89
g17
VNP
p90
sbatp91
Rp92
(dp93
g17
VVP
p94
sbag5
(g6
g7
(lp95
Vand
p96
atp97
Rp98
(dp99
g17
VCC
p100
sbag5
(g6
g7
(lp101
g5
(g6
g7
(lp102
Vshow
p103
atp104
Rp105
(dp106
g17
VVB
p107
sbag5
(g6
g7
(lp108
g5
(g6
g7
(lp109
Vthe
p110
atp111
Rp112
(dp113
g17
VDT
p114
sbag5
(g6
g7
(lp115
Vbest
p116
atp117
Rp118
(dp119
g17
VJJS
p120
sbag5
(g6
g7
(lp121
Vadaptation
p122
atp123
Rp124
(dp125
g17
VNN
p126
sbag5
(g6
g7
(lp127
Vimprovement
p128
atp129
Rp130
(dp131
g17
VNN
p132
sbatp133
Rp134
(dp135
g17
VNP
p136
sbag5
(g6
g7
(lp137
g5
(g6
g7
(lp138
Vby
p139
atp140
Rp141
(dp142
g17
VIN
p143
sbag5
(g6
g7
(lp144
g5
(g6
g7
(lp145
g5
(g6
g7
(lp146
Vcombining
p147
atp148
Rp149
(dp150
g17
VVBG
p151
sbag5
(g6
g7
(lp152
g5
(g6
g7
(lp153
g5
(g6
g7
(lp154
Vword
p155
atp156
Rp157
(dp158
g17
VNN
p159
sbag5
(g6
g7
(lp160
Vcluster
p161
atp162
Rp163
(dp164
g17
VNN
p165
sbatp166
Rp167
(dp168
g17
VNP
p169
sbag5
(g6
g7
(lp170
Vand
p171
atp172
Rp173
(dp174
g17
VCC
p175
sbag5
(g6
g7
(lp176
g5
(g6
g7
(lp177
Vword
p178
atp179
Rp180
(dp181
g17
VNN
p182
sbag5
(g6
g7
(lp183
Vembedding
p184
atp185
Rp186
(dp187
g17
VVBG
p188
sbag5
(g6
g7
(lp189
Vinformation
p190
atp191
Rp192
(dp193
g17
VNN
p194
sbatp195
Rp196
(dp197
g17
VNP
p198
sbatp199
Rp200
(dp201
g17
VNP
p202
sbatp203
Rp204
(dp205
g17
VVP
p206
sbatp207
Rp208
(dp209
g17
VS
p210
sbatp211
Rp212
(dp213
g17
VPP
p214
sbatp215
Rp216
(dp217
g17
VVP
p218
sbatp219
Rp220
(dp221
g17
VVP
p222
sbatp223
Rp224
(dp225
g17
VVP
p226
sbatp227
Rp228
(dp229
g17
g210
sbatp230
Rp231
(dp232
g17
VVP
p233
sbatp234
Rp235
(dp236
g17
g210
sbatp237
Rp238
(dp239
g17
VNP
p240
sbatp241
Rp242
(dp243
g17
VROOT
p244
sbasS'cause'
p245
(icmyPackage
CorE
p246
(dp247
S'span'
p248
(lp249
(I0
I16
tp250
a(I0
I22
tp251
asS'PTree'
p252
g208
sbsS'effect'
p253
(icmyPackage
CorE
p254
(dp255
g248
(lp256
(I0
I0
tp257
a(I0
I14
tp258
asg252
g5
(g6
g7
(lp259
g20
ag32
ag38
ag55
ag63
ag92
ag98
ag105
ag134
atp260
Rp261
(dp262
g17
S'ROOT'
p263
sbsbsS'pt'
p264
(icmyPackage
pattern
p265
(dp266
S'pfreq'
p267
I0
sS'moresent'
p268
I0
sS'main_token'
p269
(lp270
(lp271
(lp272
S'by'
p273
aS'through'
p274
aaasS'ptype'
p275
(lp276
I2
aI1
aI1
asS'cases'
p277
(lp278
S'The similar relation can be detected by analyzing the contents of nodes based on such approaches as the Latent Semantic Analysis (LSA) and the Vector Space Model (VSM)'
p279
asS'id'
p280
I68
sS'constraints'
p281
(lp282
(lp283
S'&R@Complete@'
p284
aa(lp285
S'&V-ing@C@'
p286
aasbsS'sInfo'
p287
(lp288
(isxpPackage
sxpSent
p289
(dp290
S'sysCEidlst'
p291
(lp292
I0
asS'sentence_text'
p293
VWe systematically explore various ways to apply word embeddings and show the best adaptation improvement by combining word cluster and word embedding information
p294
sS'id_sec'
p295
I1
sg280
I3
sS'id_para'
p296
I0
sbasba(icmyPackage
CELink
p297
(dp298
g3
(lp299
g5
(g6
g7
(lp300
g5
(g6
g7
(lp301
g5
(g6
g7
(lp302
g5
(g6
g7
(lp303
g5
(g6
g7
(lp304
VRecent
p305
atp306
Rp307
(dp308
g17
VJJ
p309
sbag5
(g6
g7
(lp310
Vresearch
p311
atp312
Rp313
(dp314
g17
VNN
p315
sbatp316
Rp317
(dp318
g17
VNP
p319
sbag5
(g6
g7
(lp320
g5
(g6
g7
(lp321
Vin
p322
atp323
Rp324
(dp325
g17
VIN
p326
sbag5
(g6
g7
(lp327
g5
(g6
g7
(lp328
Vthis
p329
atp330
Rp331
(dp332
g17
VDT
p333
sbag5
(g6
g7
(lp334
Varea
p335
atp336
Rp337
(dp338
g17
VNN
p339
sbatp340
Rp341
(dp342
g17
VNP
p343
sbatp344
Rp345
(dp346
g17
VPP
p347
sbag5
(g6
g7
(lp348
V,
p349
atp350
Rp351
(dp352
g17
g349
sbag5
(g6
g7
(lp353
g5
(g6
g7
(lp354
Vwhether
p355
atp356
Rp357
(dp358
g17
VIN
p359
sbag5
(g6
g7
(lp360
g5
(g6
g7
(lp361
Vfeature-based
p362
atp363
Rp364
(dp365
g17
VJJ
p366
sbag5
(g6
g7
(lp367
V-LSB-
p368
atp369
Rp370
(dp371
g17
VNN
p372
sbag5
(g6
g7
(lp373
VKambhatla2004
p374
atp375
Rp376
(dp377
g17
VNNS
p378
sbag5
(g6
g7
(lp379
g349
atp380
Rp381
(dp382
g17
g349
sbag5
(g6
g7
(lp383
VBoschee
p384
atp385
Rp386
(dp387
g17
VNNP
p388
sbag5
(g6
g7
(lp389
Vet
p390
atp391
Rp392
(dp393
g17
VCC
p394
sbag5
(g6
g7
(lp395
Val.
p396
atp397
Rp398
(dp399
g17
VNNP
p400
sbag5
(g6
g7
(lp401
V2005
p402
atp403
Rp404
(dp405
g17
VCD
p406
sbag5
(g6
g7
(lp407
g349
atp408
Rp409
(dp410
g17
g349
sbag5
(g6
g7
(lp411
VZhou
p412
atp413
Rp414
(dp415
g17
VNNP
p416
sbag5
(g6
g7
(lp417
Vet
p418
atp419
Rp420
(dp421
g17
VCC
p422
sbag5
(g6
g7
(lp423
Val.
p424
atp425
Rp426
(dp427
g17
VNNP
p428
sbag5
(g6
g7
(lp429
V2005
p430
atp431
Rp432
(dp433
g17
VCD
p434
sbag5
(g6
g7
(lp435
g349
atp436
Rp437
(dp438
g17
g349
sbag5
(g6
g7
(lp439
VGrishman
p440
atp441
Rp442
(dp443
g17
VNNP
p444
sbag5
(g6
g7
(lp445
Vet
p446
atp447
Rp448
(dp449
g17
VCC
p450
sbag5
(g6
g7
(lp451
Val.
p452
atp453
Rp454
(dp455
g17
VNNP
p456
sbag5
(g6
g7
(lp457
V2005
p458
atp459
Rp460
(dp461
g17
VCD
p462
sbag5
(g6
g7
(lp463
g349
atp464
Rp465
(dp466
g17
g349
sbag5
(g6
g7
(lp467
VJiang
p468
atp469
Rp470
(dp471
g17
VNNP
p472
sbag5
(g6
g7
(lp473
Vand
p474
atp475
Rp476
(dp477
g17
VCC
p478
sbag5
(g6
g7
(lp479
VZhai2007a
p480
atp481
Rp482
(dp483
g17
VNNP
p484
sbag5
(g6
g7
(lp485
g349
atp486
Rp487
(dp488
g17
g349
sbag5
(g6
g7
(lp489
VChan
p490
atp491
Rp492
(dp493
g17
VNNP
p494
sbag5
(g6
g7
(lp495
Vand
p496
atp497
Rp498
(dp499
g17
VCC
p500
sbag5
(g6
g7
(lp501
VRoth2010
p502
atp503
Rp504
(dp505
g17
VNNP
p506
sbag5
(g6
g7
(lp507
g349
atp508
Rp509
(dp510
g17
g349
sbag5
(g6
g7
(lp511
VSun
p512
atp513
Rp514
(dp515
g17
VNNP
p516
sbag5
(g6
g7
(lp517
Vet
p518
atp519
Rp520
(dp521
g17
VNNP
p522
sbag5
(g6
g7
(lp523
Val.
p524
atp525
Rp526
(dp527
g17
VNNPS
p528
sbag5
(g6
g7
(lp529
V2011
p530
atp531
Rp532
(dp533
g17
VNNP
p534
sbag5
(g6
g7
(lp535
V-RSB-
p536
atp537
Rp538
(dp539
g17
VNNP
p540
sbag5
(g6
g7
(lp541
Vor
p542
atp543
Rp544
(dp545
g17
VCC
p546
sbag5
(g6
g7
(lp547
Vkernel-based
p548
atp549
Rp550
(dp551
g17
VJJ
p552
sbag5
(g6
g7
(lp553
V-LSB-
p554
atp555
Rp556
(dp557
g17
VNN
p558
sbag5
(g6
g7
(lp559
VZelenko
p560
atp561
Rp562
(dp563
g17
VNNP
p564
sbag5
(g6
g7
(lp565
Vet
p566
atp567
Rp568
(dp569
g17
VCC
p570
sbag5
(g6
g7
(lp571
Val.
p572
atp573
Rp574
(dp575
g17
VNNP
p576
sbag5
(g6
g7
(lp577
V2003
p578
atp579
Rp580
(dp581
g17
VCD
p582
sbag5
(g6
g7
(lp583
g349
atp584
Rp585
(dp586
g17
g349
sbag5
(g6
g7
(lp587
VBunescu
p588
atp589
Rp590
(dp591
g17
VNNP
p592
sbag5
(g6
g7
(lp593
Vand
p594
atp595
Rp596
(dp597
g17
VCC
p598
sbag5
(g6
g7
(lp599
VMooney2005a
p600
atp601
Rp602
(dp603
g17
VNNP
p604
sbag5
(g6
g7
(lp605
g349
atp606
Rp607
(dp608
g17
g349
sbag5
(g6
g7
(lp609
VBunescu
p610
atp611
Rp612
(dp613
g17
VNNP
p614
sbag5
(g6
g7
(lp615
Vand
p616
atp617
Rp618
(dp619
g17
VCC
p620
sbag5
(g6
g7
(lp621
VMooney2005b
p622
atp623
Rp624
(dp625
g17
VNNP
p626
sbag5
(g6
g7
(lp627
g349
atp628
Rp629
(dp630
g17
g349
sbag5
(g6
g7
(lp631
VZhang
p632
atp633
Rp634
(dp635
g17
VNNP
p636
sbag5
(g6
g7
(lp637
Vet
p638
atp639
Rp640
(dp641
g17
VCC
p642
sbag5
(g6
g7
(lp643
Val.
p644
atp645
Rp646
(dp647
g17
VNNP
p648
sbag5
(g6
g7
(lp649
V2006
p650
atp651
Rp652
(dp653
g17
VCD
p654
sbag5
(g6
g7
(lp655
g349
atp656
Rp657
(dp658
g17
g349
sbag5
(g6
g7
(lp659
VQian
p660
atp661
Rp662
(dp663
g17
VNNP
p664
sbag5
(g6
g7
(lp665
Vet
p666
atp667
Rp668
(dp669
g17
VCC
p670
sbag5
(g6
g7
(lp671
Val.
p672
atp673
Rp674
(dp675
g17
VNNP
p676
sbag5
(g6
g7
(lp677
V2008
p678
atp679
Rp680
(dp681
g17
VCD
p682
sbag5
(g6
g7
(lp683
g349
atp684
Rp685
(dp686
g17
g349
sbag5
(g6
g7
(lp687
VNguyen
p688
atp689
Rp690
(dp691
g17
VNNP
p692
sbag5
(g6
g7
(lp693
Vet
p694
atp695
Rp696
(dp697
g17
VCC
p698
sbag5
(g6
g7
(lp699
Val.
p700
atp701
Rp702
(dp703
g17
VNNP
p704
sbag5
(g6
g7
(lp705
V2009
p706
atp707
Rp708
(dp709
g17
VCD
p710
sbag5
(g6
g7
(lp711
V-RSB-
p712
atp713
Rp714
(dp715
g17
VNNS
p716
sbatp717
Rp718
(dp719
g17
VNP
p720
sbatp721
Rp722
(dp723
g17
VPP
p724
sbag5
(g6
g7
(lp725
g349
atp726
Rp727
(dp728
g17
g349
sbatp729
Rp730
(dp731
g17
VNP
p732
sbag5
(g6
g7
(lp733
g5
(g6
g7
(lp734
Vattempts
p735
atp736
Rp737
(dp738
g17
VVBZ
p739
sbag5
(g6
g7
(lp740
g5
(g6
g7
(lp741
g5
(g6
g7
(lp742
Vto
p743
atp744
Rp745
(dp746
g17
VTO
p747
sbag5
(g6
g7
(lp748
g5
(g6
g7
(lp749
Vimprove
p750
atp751
Rp752
(dp753
g17
VVB
p754
sbag5
(g6
g7
(lp755
g5
(g6
g7
(lp756
Vthe
p757
atp758
Rp759
(dp760
g17
VDT
p761
sbag5
(g6
g7
(lp762
VRE
p763
atp764
Rp765
(dp766
g17
VNNP
p767
sbag5
(g6
g7
(lp768
Vperformance
p769
atp770
Rp771
(dp772
g17
VNN
p773
sbatp774
Rp775
(dp776
g17
VNP
p777
sbag5
(g6
g7
(lp778
g5
(g6
g7
(lp779
Vby
p780
atp781
Rp782
(dp783
g17
VIN
p784
sbag5
(g6
g7
(lp785
g5
(g6
g7
(lp786
g5
(g6
g7
(lp787
Venriching
p788
atp789
Rp790
(dp791
g17
VVBG
p792
sbag5
(g6
g7
(lp793
g5
(g6
g7
(lp794
Vthe
p795
atp796
Rp797
(dp798
g17
VDT
p799
sbag5
(g6
g7
(lp800
Vfeature
p801
atp802
Rp803
(dp804
g17
VNN
p805
sbag5
(g6
g7
(lp806
Vsets
p807
atp808
Rp809
(dp810
g17
VNNS
p811
sbatp812
Rp813
(dp814
g17
VNP
p815
sbag5
(g6
g7
(lp816
g5
(g6
g7
(lp817
Vfrom
p818
atp819
Rp820
(dp821
g17
VIN
p822
sbag5
(g6
g7
(lp823
g5
(g6
g7
(lp824
Vmultiple
p825
atp826
Rp827
(dp828
g17
VJJ
p829
sbag5
(g6
g7
(lp830
Vsentence
p831
atp832
Rp833
(dp834
g17
VNN
p835
sbag5
(g6
g7
(lp836
Vanalyses
p837
atp838
Rp839
(dp840
g17
VNNS
p841
sbag5
(g6
g7
(lp842
Vand
p843
atp844
Rp845
(dp846
g17
VCC
p847
sbag5
(g6
g7
(lp848
Vknowledge
p849
atp850
Rp851
(dp852
g17
VNN
p853
sbag5
(g6
g7
(lp854
Vresources
p855
atp856
Rp857
(dp858
g17
VNNS
p859
sbatp860
Rp861
(dp862
g17
VNP
p863
sbatp864
Rp865
(dp866
g17
VPP
p867
sbatp868
Rp869
(dp870
g17
VVP
p871
sbatp872
Rp873
(dp874
g17
g210
sbatp875
Rp876
(dp877
g17
VPP
p878
sbatp879
Rp880
(dp881
g17
VVP
p882
sbatp883
Rp884
(dp885
g17
VVP
p886
sbatp887
Rp888
(dp889
g17
g210
sbatp890
Rp891
(dp892
g17
VVP
p893
sbatp894
Rp895
(dp896
g17
g210
sbatp897
Rp898
(dp899
g17
VROOT
p900
sbasg245
(icmyPackage
CorE
p901
(dp902
g248
(lp903
(I0
I78
tp904
a(I0
I88
tp905
asg252
g873
sbsg253
(icmyPackage
CorE
p906
(dp907
g248
(lp908
(I0
I0
tp909
a(I0
I76
tp910
asg252
g5
(g6
g7
(lp911
g730
ag737
ag745
ag752
ag775
atp912
Rp913
(dp914
g17
g263
sbsbsg264
g265
sg287
(lp915
(isxpPackage
sxpSent
p916
(dp917
g291
(lp918
I1
asg293
VRecent research in this area, whether feature-based [ Kambhatla2004 , Boschee et al.2005 , Zhou et al.2005 , Grishman et al.2005 , Jiang and Zhai2007a , Chan and Roth2010 , Sun et al.2011 ] or kernel-based [ Zelenko et al.2003 , Bunescu and Mooney2005a , Bunescu and Mooney2005b , Zhang et al.2006 , Qian et al.2008 , Nguyen et al.2009 ] , attempts to improve the RE performance by enriching the feature sets from multiple sentence analyses and knowledge resources
p919
sg295
I2
sg280
I6
sg296
I1
sbasba(icmyPackage
CELink
p920
(dp921
g3
(lp922
g5
(g6
g7
(lp923
g5
(g6
g7
(lp924
g5
(g6
g7
(lp925
g5
(g6
g7
(lp926
V+
p927
atp928
Rp929
(dp930
g17
VVB
p931
sbag5
(g6
g7
(lp932
g5
(g6
g7
(lp933
g5
(g6
g7
(lp934
g5
(g6
g7
(lp935
VIt
p936
atp937
Rp938
(dp939
g17
VPRP
p940
sbatp941
Rp942
(dp943
g17
VNP
p944
sbag5
(g6
g7
(lp945
g5
(g6
g7
(lp946
Vis
p947
atp948
Rp949
(dp950
g17
VVBZ
p951
sbag5
(g6
g7
(lp952
g5
(g6
g7
(lp953
Vunclear
p954
atp955
Rp956
(dp957
g17
VJJ
p958
sbatp959
Rp960
(dp961
g17
VADJP
p962
sbag5
(g6
g7
(lp963
g5
(g6
g7
(lp964
Vif
p965
atp966
Rp967
(dp968
g17
VIN
p969
sbag5
(g6
g7
(lp970
g5
(g6
g7
(lp971
g5
(g6
g7
(lp972
Vthis
p973
atp974
Rp975
(dp976
g17
VDT
p977
sbag5
(g6
g7
(lp978
Vapproach
p979
atp980
Rp981
(dp982
g17
VNN
p983
sbatp984
Rp985
(dp986
g17
VNP
p987
sbag5
(g6
g7
(lp988
g5
(g6
g7
(lp989
Vcan
p990
atp991
Rp992
(dp993
g17
VMD
p994
sbag5
(g6
g7
(lp995
g5
(g6
g7
(lp996
Vencode
p997
atp998
Rp999
(dp1000
g17
VVB
p1001
sbag5
(g6
g7
(lp1002
g5
(g6
g7
(lp1003
g5
(g6
g7
(lp1004
Vreal-valued
p1005
atp1006
Rp1007
(dp1008
g17
VJJ
p1009
sbag5
(g6
g7
(lp1010
Vfeatures
p1011
atp1012
Rp1013
(dp1014
g17
VNNS
p1015
sbatp1016
Rp1017
(dp1018
g17
VNP
p1019
sbag5
(g6
g7
(lp1020
g5
(g6
g7
(lp1021
Vof
p1022
atp1023
Rp1024
(dp1025
g17
VIN
p1026
sbag5
(g6
g7
(lp1027
g5
(g6
g7
(lp1028
g5
(g6
g7
(lp1029
Vwords
p1030
atp1031
Rp1032
(dp1033
g17
VNNS
p1034
sbatp1035
Rp1036
(dp1037
g17
VNP
p1038
sbag5
(g6
g7
(lp1039
g5
(g6
g7
(lp1040
V-LRB-
p1041
atp1042
Rp1043
(dp1044
g17
V-LRB-
p1045
sbag5
(g6
g7
(lp1046
g5
(g6
g7
(lp1047
Vsuch
p1048
atp1049
Rp1050
(dp1051
g17
VJJ
p1052
sbag5
(g6
g7
(lp1053
Vas
p1054
atp1055
Rp1056
(dp1057
g17
VIN
p1058
sbag5
(g6
g7
(lp1059
g5
(g6
g7
(lp1060
Vword
p1061
atp1062
Rp1063
(dp1064
g17
VNN
p1065
sbag5
(g6
g7
(lp1066
Vembeddings
p1067
atp1068
Rp1069
(dp1070
g17
VNNS
p1071
sbag5
(g6
g7
(lp1072
V-LSB-
p1073
atp1074
Rp1075
(dp1076
g17
VNNP
p1077
sbag5
(g6
g7
(lp1078
VMnih
p1079
atp1080
Rp1081
(dp1082
g17
VNNP
p1083
sbag5
(g6
g7
(lp1084
Vand
p1085
atp1086
Rp1087
(dp1088
g17
VCC
p1089
sbag5
(g6
g7
(lp1090
VHinton2007
p1091
atp1092
Rp1093
(dp1094
g17
VNNP
p1095
sbag5
(g6
g7
(lp1096
g349
atp1097
Rp1098
(dp1099
g17
g349
sbag5
(g6
g7
(lp1100
VCollobert
p1101
atp1102
Rp1103
(dp1104
g17
VNNP
p1105
sbag5
(g6
g7
(lp1106
Vand
p1107
atp1108
Rp1109
(dp1110
g17
VCC
p1111
sbag5
(g6
g7
(lp1112
VWeston2008
p1113
atp1114
Rp1115
(dp1116
g17
VNNP
p1117
sbag5
(g6
g7
(lp1118
V-RSB-
p1119
atp1120
Rp1121
(dp1122
g17
VNNP
p1123
sbatp1124
Rp1125
(dp1126
g17
VNP
p1127
sbatp1128
Rp1129
(dp1130
g17
VPP
p1131
sbag5
(g6
g7
(lp1132
V-RRB-
p1133
atp1134
Rp1135
(dp1136
g17
V-RRB-
p1137
sbatp1138
Rp1139
(dp1140
g17
VPRN
p1141
sbatp1142
Rp1143
(dp1144
g17
VNP
p1145
sbatp1146
Rp1147
(dp1148
g17
VPP
p1149
sbatp1150
Rp1151
(dp1152
g17
VNP
p1153
sbag5
(g6
g7
(lp1154
g5
(g6
g7
(lp1155
Veffectively
p1156
atp1157
Rp1158
(dp1159
g17
VRB
p1160
sbatp1161
Rp1162
(dp1163
g17
VADVP
p1164
sbatp1165
Rp1166
(dp1167
g17
VVP
p1168
sbatp1169
Rp1170
(dp1171
g17
VVP
p1172
sbatp1173
Rp1174
(dp1175
g17
g210
sbatp1176
Rp1177
(dp1178
g17
VSBAR
p1179
sbatp1180
Rp1181
(dp1182
g17
VVP
p1183
sbatp1184
Rp1185
(dp1186
g17
g210
sbatp1187
Rp1188
(dp1189
g17
VSBAR
p1190
sbatp1191
Rp1192
(dp1193
g17
VVP
p1194
sbatp1195
Rp1196
(dp1197
g17
g210
sbatp1198
Rp1199
(dp1200
g17
VROOT
p1201
sbasg245
(icmyPackage
CorE
p1202
(dp1203
g248
(lp1204
(I0
I5
tp1205
a(I0
I28
tp1206
asg252
g1174
sbsg253
(icmyPackage
CorE
p1207
(dp1208
g248
(lp1209
(I0
I1
tp1210
a(I0
I3
tp1211
asg252
g5
(g6
g7
(lp1212
g942
ag949
ag960
atp1213
Rp1214
(dp1215
g17
g263
sbsbsg264
(icmyPackage
pattern
p1216
(dp1217
g267
I0
sg268
I0
sg269
(lp1218
(lp1219
S'if'
p1220
aasg275
(lp1221
I1
aI1
aI1
asg277
(lp1222
S'An effective knowledge flow network enables a research team to be very powerful in generating new knowledge if every node can innovate and output new knowledge to appropriate members.'
p1223
asg280
I14
sg281
(lp1224
(lp1225
S'&R@Complete@'
p1226
aa(lp1227
S'&C@Complete@'
p1228
aasbsg287
(lp1229
(isxpPackage
sxpSent
p1230
(dp1231
g291
(lp1232
I2
aI3
asg293
V+ It is unclear if this approach can encode real-valued features of words (such as word embeddings [ Mnih and Hinton2007 , Collobert and Weston2008 ] ) effectively
p1233
sg295
I2
sg280
I17
sg296
I4
sbasba(icmyPackage
CELink
p1234
(dp1235
g3
(lp1236
g1199
ag5
(g6
g7
(lp1237
g5
(g6
g7
(lp1238
g5
(g6
g7
(lp1239
g5
(g6
g7
(lp1240
VAs
p1241
atp1242
Rp1243
(dp1244
g17
VIN
p1245
sbag5
(g6
g7
(lp1246
g5
(g6
g7
(lp1247
g5
(g6
g7
(lp1248
Vthe
p1249
atp1250
Rp1251
(dp1252
g17
VDT
p1253
sbag5
(g6
g7
(lp1254
Vreal-valued
p1255
atp1256
Rp1257
(dp1258
g17
VJJ
p1259
sbag5
(g6
g7
(lp1260
Vfeatures
p1261
atp1262
Rp1263
(dp1264
g17
VNNS
p1265
sbatp1266
Rp1267
(dp1268
g17
VNP
p1269
sbag5
(g6
g7
(lp1270
g5
(g6
g7
(lp1271
Vare
p1272
atp1273
Rp1274
(dp1275
g17
VVBP
p1276
sbag5
(g6
g7
(lp1277
g5
(g6
g7
(lp1278
Vable
p1279
atp1280
Rp1281
(dp1282
g17
VJJ
p1283
sbag5
(g6
g7
(lp1284
g5
(g6
g7
(lp1285
g5
(g6
g7
(lp1286
Vto
p1287
atp1288
Rp1289
(dp1290
g17
VTO
p1291
sbag5
(g6
g7
(lp1292
g5
(g6
g7
(lp1293
Vcapture
p1294
atp1295
Rp1296
(dp1297
g17
VVB
p1298
sbag5
(g6
g7
(lp1299
g5
(g6
g7
(lp1300
g5
(g6
g7
(lp1301
g5
(g6
g7
(lp1302
Vlatent
p1303
atp1304
Rp1305
(dp1306
g17
VJJ
p1307
sbag5
(g6
g7
(lp1308
Vyet
p1309
atp1310
Rp1311
(dp1312
g17
VCC
p1313
sbag5
(g6
g7
(lp1314
Vuseful
p1315
atp1316
Rp1317
(dp1318
g17
VJJ
p1319
sbatp1320
Rp1321
(dp1322
g17
VADJP
p1323
sbag5
(g6
g7
(lp1324
Vproperties
p1325
atp1326
Rp1327
(dp1328
g17
VNNS
p1329
sbatp1330
Rp1331
(dp1332
g17
VNP
p1333
sbag5
(g6
g7
(lp1334
g5
(g6
g7
(lp1335
Vof
p1336
atp1337
Rp1338
(dp1339
g17
VIN
p1340
sbag5
(g6
g7
(lp1341
g5
(g6
g7
(lp1342
Vwords
p1343
atp1344
Rp1345
(dp1346
g17
VNNS
p1347
sbatp1348
Rp1349
(dp1350
g17
VNP
p1351
sbatp1352
Rp1353
(dp1354
g17
VPP
p1355
sbatp1356
Rp1357
(dp1358
g17
VNP
p1359
sbatp1360
Rp1361
(dp1362
g17
VVP
p1363
sbatp1364
Rp1365
(dp1366
g17
VVP
p1367
sbatp1368
Rp1369
(dp1370
g17
g210
sbatp1371
Rp1372
(dp1373
g17
VADJP
p1374
sbatp1375
Rp1376
(dp1377
g17
VVP
p1378
sbatp1379
Rp1380
(dp1381
g17
g210
sbatp1382
Rp1383
(dp1384
g17
VSBAR
p1385
sbag5
(g6
g7
(lp1386
g349
atp1387
Rp1388
(dp1389
g17
g349
sbag5
(g6
g7
(lp1390
g5
(g6
g7
(lp1391
g5
(g6
g7
(lp1392
Vthe
p1393
atp1394
Rp1395
(dp1396
g17
VDT
p1397
sbag5
(g6
g7
(lp1398
Vaugmentation
p1399
atp1400
Rp1401
(dp1402
g17
VNN
p1403
sbatp1404
Rp1405
(dp1406
g17
VNP
p1407
sbag5
(g6
g7
(lp1408
g5
(g6
g7
(lp1409
Vof
p1410
atp1411
Rp1412
(dp1413
g17
VIN
p1414
sbag5
(g6
g7
(lp1415
g5
(g6
g7
(lp1416
g5
(g6
g7
(lp1417
Vlexical
p1418
atp1419
Rp1420
(dp1421
g17
VJJ
p1422
sbag5
(g6
g7
(lp1423
Vterms
p1424
atp1425
Rp1426
(dp1427
g17
VNNS
p1428
sbatp1429
Rp1430
(dp1431
g17
VNP
p1432
sbag5
(g6
g7
(lp1433
g5
(g6
g7
(lp1434
Vwith
p1435
atp1436
Rp1437
(dp1438
g17
VIN
p1439
sbag5
(g6
g7
(lp1440
g5
(g6
g7
(lp1441
Vthese
p1442
atp1443
Rp1444
(dp1445
g17
VDT
p1446
sbag5
(g6
g7
(lp1447
Vfeatures
p1448
atp1449
Rp1450
(dp1451
g17
VNNS
p1452
sbatp1453
Rp1454
(dp1455
g17
VNP
p1456
sbatp1457
Rp1458
(dp1459
g17
VPP
p1460
sbatp1461
Rp1462
(dp1463
g17
VNP
p1464
sbatp1465
Rp1466
(dp1467
g17
VPP
p1468
sbatp1469
Rp1470
(dp1471
g17
VNP
p1472
sbag5
(g6
g7
(lp1473
g5
(g6
g7
(lp1474
Vis
p1475
atp1476
Rp1477
(dp1478
g17
VVBZ
p1479
sbag5
(g6
g7
(lp1480
g5
(g6
g7
(lp1481
Vdesirable
p1482
atp1483
Rp1484
(dp1485
g17
VJJ
p1486
sbatp1487
Rp1488
(dp1489
g17
VADJP
p1490
sbag5
(g6
g7
(lp1491
g5
(g6
g7
(lp1492
g5
(g6
g7
(lp1493
Vto
p1494
atp1495
Rp1496
(dp1497
g17
VTO
p1498
sbag5
(g6
g7
(lp1499
g5
(g6
g7
(lp1500
Vprovide
p1501
atp1502
Rp1503
(dp1504
g17
VVB
p1505
sbag5
(g6
g7
(lp1506
g5
(g6
g7
(lp1507
Va
p1508
atp1509
Rp1510
(dp1511
g17
VDT
p1512
sbag5
(g6
g7
(lp1513
g5
(g6
g7
(lp1514
Vmore
p1515
atp1516
Rp1517
(dp1518
g17
VRBR
p1519
sbag5
(g6
g7
(lp1520
Vgeneral
p1521
atp1522
Rp1523
(dp1524
g17
VJJ
p1525
sbatp1526
Rp1527
(dp1528
g17
VADJP
p1529
sbag5
(g6
g7
(lp1530
Vrepresentation
p1531
atp1532
Rp1533
(dp1534
g17
VNN
p1535
sbatp1536
Rp1537
(dp1538
g17
VNP
p1539
sbatp1540
Rp1541
(dp1542
g17
VVP
p1543
sbatp1544
Rp1545
(dp1546
g17
VVP
p1547
sbatp1548
Rp1549
(dp1550
g17
g210
sbag5
(g6
g7
(lp1551
g349
atp1552
Rp1553
(dp1554
g17
g349
sbag5
(g6
g7
(lp1555
g5
(g6
g7
(lp1556
g5
(g6
g7
(lp1557
Vpotentially
p1558
atp1559
Rp1560
(dp1561
g17
VRB
p1562
sbatp1563
Rp1564
(dp1565
g17
VADVP
p1566
sbag5
(g6
g7
(lp1567
g5
(g6
g7
(lp1568
Vhelping
p1569
atp1570
Rp1571
(dp1572
g17
VVBG
p1573
sbag5
(g6
g7
(lp1574
g5
(g6
g7
(lp1575
g5
(g6
g7
(lp1576
Vrelation
p1577
atp1578
Rp1579
(dp1580
g17
VNN
p1581
sbag5
(g6
g7
(lp1582
Vextractors
p1583
atp1584
Rp1585
(dp1586
g17
VNNS
p1587
sbatp1588
Rp1589
(dp1590
g17
VNP
p1591
sbag5
(g6
g7
(lp1592
g5
(g6
g7
(lp1593
Vperform
p1594
atp1595
Rp1596
(dp1597
g17
VVB
p1598
sbag5
(g6
g7
(lp1599
g5
(g6
g7
(lp1600
Vmore
p1601
atp1602
Rp1603
(dp1604
g17
VJJR
p1605
sbag5
(g6
g7
(lp1606
Vrobustly
p1607
atp1608
Rp1609
(dp1610
g17
VNN
p1611
sbatp1612
Rp1613
(dp1614
g17
VNP
p1615
sbag5
(g6
g7
(lp1616
g5
(g6
g7
(lp1617
Vacross
p1618
atp1619
Rp1620
(dp1621
g17
VIN
p1622
sbag5
(g6
g7
(lp1623
g5
(g6
g7
(lp1624
Vdomains
p1625
atp1626
Rp1627
(dp1628
g17
VNNS
p1629
sbatp1630
Rp1631
(dp1632
g17
VNP
p1633
sbatp1634
Rp1635
(dp1636
g17
VPP
p1637
sbatp1638
Rp1639
(dp1640
g17
VVP
p1641
sbatp1642
Rp1643
(dp1644
g17
g210
sbatp1645
Rp1646
(dp1647
g17
VVP
p1648
sbatp1649
Rp1650
(dp1651
g17
g210
sbatp1652
Rp1653
(dp1654
g17
VVP
p1655
sbatp1656
Rp1657
(dp1658
g17
g210
sbatp1659
Rp1660
(dp1661
g17
VROOT
p1662
sbasg245
(icmyPackage
CorE
p1663
(dp1664
g248
(lp1665
(I1
I1
tp1666
a(I1
I40
tp1667
asg252
g5
(g6
g7
(lp1668
g1380
ag1388
ag1470
ag1653
atp1669
Rp1670
(dp1671
g17
g263
sbsbsg253
(icmyPackage
CorE
p1672
(dp1673
g248
(lp1674
(I0
I1
tp1675
a(I0
I28
tp1676
asg252
g1188
sbsg264
(icmyPackage
pattern
p1677
(dp1678
g267
I26
sg268
I1
sg269
(lp1679
(lp1680
S'as'
p1681
aasg275
(lp1682
I3
aI1
aI1
asg277
(lp1683
S'You do not need to worry about the operation, as the software is very easy to use.'
p1684
asg280
I80
sg281
(lp1685
(lp1686
S'&R@Complete@'
p1687
aS'(,)'
p1688
aS'(-such/-same/-seem/-regard/-regards/-regarded/-view/-views/-viewed/-denote/-denoted/-denotes)'
p1689
aa(lp1690
S'(-if/-follow/-follows/-&adv)'
p1691
aS'&C@Complete@'
p1692
aasbsg287
(lp1693
g1230
a(isxpPackage
sxpSent
p1694
(dp1695
g291
(lp1696
I3
asg293
VAs the real-valued features are able to capture latent yet useful properties of words, the augmentation of lexical terms with these features is desirable to provide a more general representation, potentially helping relation extractors perform more robustly across domains
p1697
sg295
I2
sg280
I18
sg296
I4
sbasba(icmyPackage
CELink
p1698
(dp1699
g3
(lp1700
g5
(g6
g7
(lp1701
g5
(g6
g7
(lp1702
g5
(g6
g7
(lp1703
g5
(g6
g7
(lp1704
VIn
p1705
atp1706
Rp1707
(dp1708
g17
VIN
p1709
sbag5
(g6
g7
(lp1710
g5
(g6
g7
(lp1711
Vthis
p1712
atp1713
Rp1714
(dp1715
g17
VDT
p1716
sbag5
(g6
g7
(lp1717
Vwork
p1718
atp1719
Rp1720
(dp1721
g17
VNN
p1722
sbatp1723
Rp1724
(dp1725
g17
VNP
p1726
sbatp1727
Rp1728
(dp1729
g17
VPP
p1730
sbag5
(g6
g7
(lp1731
g349
atp1732
Rp1733
(dp1734
g17
g349
sbag5
(g6
g7
(lp1735
g5
(g6
g7
(lp1736
Vwe
p1737
atp1738
Rp1739
(dp1740
g17
VPRP
p1741
sbatp1742
Rp1743
(dp1744
g17
VNP
p1745
sbag5
(g6
g7
(lp1746
g5
(g6
g7
(lp1747
Vpropose
p1748
atp1749
Rp1750
(dp1751
g17
VVBP
p1752
sbag5
(g6
g7
(lp1753
g5
(g6
g7
(lp1754
g5
(g6
g7
(lp1755
Vto
p1756
atp1757
Rp1758
(dp1759
g17
VTO
p1760
sbag5
(g6
g7
(lp1761
g5
(g6
g7
(lp1762
Vavoid
p1763
atp1764
Rp1765
(dp1766
g17
VVB
p1767
sbag5
(g6
g7
(lp1768
g5
(g6
g7
(lp1769
Vthese
p1770
atp1771
Rp1772
(dp1773
g17
VDT
p1774
sbag5
(g6
g7
(lp1775
Vlimitations
p1776
atp1777
Rp1778
(dp1779
g17
VNNS
p1780
sbatp1781
Rp1782
(dp1783
g17
VNP
p1784
sbag5
(g6
g7
(lp1785
g5
(g6
g7
(lp1786
Vby
p1787
atp1788
Rp1789
(dp1790
g17
VIN
p1791
sbag5
(g6
g7
(lp1792
g5
(g6
g7
(lp1793
g5
(g6
g7
(lp1794
Vapplying
p1795
atp1796
Rp1797
(dp1798
g17
VVBG
p1799
sbag5
(g6
g7
(lp1800
g5
(g6
g7
(lp1801
g5
(g6
g7
(lp1802
g5
(g6
g7
(lp1803
g1508
atp1804
Rp1805
(dp1806
g17
VDT
p1807
sbag5
(g6
g7
(lp1808
Vfeature-based
p1809
atp1810
Rp1811
(dp1812
g17
VJJ
p1813
sbag5
(g6
g7
(lp1814
Vapproach
p1815
atp1816
Rp1817
(dp1818
g17
VNN
p1819
sbatp1820
Rp1821
(dp1822
g17
VNP
p1823
sbag5
(g6
g7
(lp1824
g5
(g6
g7
(lp1825
Vfor
p1826
atp1827
Rp1828
(dp1829
g17
VIN
p1830
sbag5
(g6
g7
(lp1831
g5
(g6
g7
(lp1832
VRE
p1833
atp1834
Rp1835
(dp1836
g17
VNNP
p1837
sbatp1838
Rp1839
(dp1840
g17
VNP
p1841
sbatp1842
Rp1843
(dp1844
g17
VPP
p1845
sbag5
(g6
g7
(lp1846
g5
(g6
g7
(lp1847
g5
(g6
g7
(lp1848
Vwhich
p1849
atp1850
Rp1851
(dp1852
g17
VWDT
p1853
sbatp1854
Rp1855
(dp1856
g17
VWHNP
p1857
sbag5
(g6
g7
(lp1858
g5
(g6
g7
(lp1859
g5
(g6
g7
(lp1860
Vallows
p1861
atp1862
Rp1863
(dp1864
g17
VVBZ
p1865
sbag5
(g6
g7
(lp1866
g5
(g6
g7
(lp1867
g5
(g6
g7
(lp1868
Vus
p1869
atp1870
Rp1871
(dp1872
g17
VPRP
p1873
sbatp1874
Rp1875
(dp1876
g17
VNP
p1877
sbag5
(g6
g7
(lp1878
g5
(g6
g7
(lp1879
Vto
p1880
atp1881
Rp1882
(dp1883
g17
VTO
p1884
sbag5
(g6
g7
(lp1885
g5
(g6
g7
(lp1886
Vintegrate
p1887
atp1888
Rp1889
(dp1890
g17
VVB
p1891
sbag5
(g6
g7
(lp1892
g5
(g6
g7
(lp1893
g5
(g6
g7
(lp1894
g5
(g6
g7
(lp1895
Vvarious
p1896
atp1897
Rp1898
(dp1899
g17
VJJ
p1900
sbag5
(g6
g7
(lp1901
Vword
p1902
atp1903
Rp1904
(dp1905
g17
VNN
p1906
sbag5
(g6
g7
(lp1907
Vfeatures
p1908
atp1909
Rp1910
(dp1911
g17
VNNS
p1912
sbatp1913
Rp1914
(dp1915
g17
VNP
p1916
sbag5
(g6
g7
(lp1917
g5
(g6
g7
(lp1918
Vof
p1919
atp1920
Rp1921
(dp1922
g17
VIN
p1923
sbag5
(g6
g7
(lp1924
g5
(g6
g7
(lp1925
g5
(g6
g7
(lp1926
Vgeneralization
p1927
atp1928
Rp1929
(dp1930
g17
VNN
p1931
sbatp1932
Rp1933
(dp1934
g17
VNP
p1935
sbag5
(g6
g7
(lp1936
g5
(g6
g7
(lp1937
Vinto
p1938
atp1939
Rp1940
(dp1941
g17
VIN
p1942
sbag5
(g6
g7
(lp1943
g5
(g6
g7
(lp1944
g1508
atp1945
Rp1946
(dp1947
g17
VDT
p1948
sbag5
(g6
g7
(lp1949
Vsingle
p1950
atp1951
Rp1952
(dp1953
g17
VJJ
p1954
sbag5
(g6
g7
(lp1955
Vsystem
p1956
atp1957
Rp1958
(dp1959
g17
VNN
p1960
sbatp1961
Rp1962
(dp1963
g17
VNP
p1964
sbatp1965
Rp1966
(dp1967
g17
VPP
p1968
sbatp1969
Rp1970
(dp1971
g17
VNP
p1972
sbatp1973
Rp1974
(dp1975
g17
VPP
p1976
sbatp1977
Rp1978
(dp1979
g17
VNP
p1980
sbag5
(g6
g7
(lp1981
g5
(g6
g7
(lp1982
Vmore
p1983
atp1984
Rp1985
(dp1986
g17
VRBR
p1987
sbag5
(g6
g7
(lp1988
Vnaturally
p1989
atp1990
Rp1991
(dp1992
g17
VRB
p1993
sbatp1994
Rp1995
(dp1996
g17
VADJP
p1997
sbatp1998
Rp1999
(dp2000
g17
g210
sbatp2001
Rp2002
(dp2003
g17
VVP
p2004
sbatp2005
Rp2006
(dp2007
g17
VVP
p2008
sbatp2009
Rp2010
(dp2011
g17
g210
sbatp2012
Rp2013
(dp2014
g17
VVP
p2015
sbatp2016
Rp2017
(dp2018
g17
g210
sbatp2019
Rp2020
(dp2021
g17
VSBAR
p2022
sbatp2023
Rp2024
(dp2025
g17
VNP
p2026
sbag5
(g6
g7
(lp2027
Vand
p2028
atp2029
Rp2030
(dp2031
g17
VCC
p2032
sbag5
(g6
g7
(lp2033
g5
(g6
g7
(lp2034
Veffectively
p2035
atp2036
Rp2037
(dp2038
g17
VRB
p2039
sbatp2040
Rp2041
(dp2042
g17
VADVP
p2043
sbatp2044
Rp2045
(dp2046
g17
VNP
p2047
sbatp2048
Rp2049
(dp2050
g17
VVP
p2051
sbatp2052
Rp2053
(dp2054
g17
g210
sbatp2055
Rp2056
(dp2057
g17
VPP
p2058
sbatp2059
Rp2060
(dp2061
g17
VVP
p2062
sbatp2063
Rp2064
(dp2065
g17
VVP
p2066
sbatp2067
Rp2068
(dp2069
g17
g210
sbatp2070
Rp2071
(dp2072
g17
VVP
p2073
sbatp2074
Rp2075
(dp2076
g17
g210
sbatp2077
Rp2078
(dp2079
g17
VROOT
p2080
sbasg245
(icmyPackage
CorE
p2081
(dp2082
g248
(lp2083
(I0
I11
tp2084
a(I0
I34
tp2085
asg252
g2053
sbsg253
(icmyPackage
CorE
p2086
(dp2087
g248
(lp2088
(I0
I0
tp2089
a(I0
I9
tp2090
asg252
g5
(g6
g7
(lp2091
g1728
ag1733
ag1743
ag1750
ag1758
ag1765
ag1782
atp2092
Rp2093
(dp2094
g17
g263
sbsbsg264
g265
sg287
(lp2095
(isxpPackage
sxpSent
p2096
(dp2097
g291
(lp2098
I4
asg293
VIn this work, we propose to avoid these limitations by applying a feature-based approach for RE which allows us to integrate various word features of generalization into a single system more naturally and effectively
p2099
sg295
I2
sg280
I19
sg296
I5
sbasba(icmyPackage
CELink
p2100
(dp2101
g3
(lp2102
g5
(g6
g7
(lp2103
g5
(g6
g7
(lp2104
g5
(g6
g7
(lp2105
g5
(g6
g7
(lp2106
VIn
p2107
atp2108
Rp2109
(dp2110
g17
VIN
p2111
sbag5
(g6
g7
(lp2112
g5
(g6
g7
(lp2113
VDA
p2114
atp2115
Rp2116
(dp2117
g17
VNNP
p2118
sbag5
(g6
g7
(lp2119
Vterms
p2120
atp2121
Rp2122
(dp2123
g17
VNNS
p2124
sbatp2125
Rp2126
(dp2127
g17
VNP
p2128
sbatp2129
Rp2130
(dp2131
g17
VPP
p2132
sbag5
(g6
g7
(lp2133
g349
atp2134
Rp2135
(dp2136
g17
g349
sbag5
(g6
g7
(lp2137
g5
(g6
g7
(lp2138
Vsince
p2139
atp2140
Rp2141
(dp2142
g17
VIN
p2143
sbag5
(g6
g7
(lp2144
g5
(g6
g7
(lp2145
g5
(g6
g7
(lp2146
g5
(g6
g7
(lp2147
Vthe
p2148
atp2149
Rp2150
(dp2151
g17
VDT
p2152
sbag5
(g6
g7
(lp2153
Vvocabularies
p2154
atp2155
Rp2156
(dp2157
g17
VNNS
p2158
sbatp2159
Rp2160
(dp2161
g17
VNP
p2162
sbag5
(g6
g7
(lp2163
g5
(g6
g7
(lp2164
Vof
p2165
atp2166
Rp2167
(dp2168
g17
VIN
p2169
sbag5
(g6
g7
(lp2170
g5
(g6
g7
(lp2171
Vthe
p2172
atp2173
Rp2174
(dp2175
g17
VDT
p2176
sbag5
(g6
g7
(lp2177
Vsource
p2178
atp2179
Rp2180
(dp2181
g17
VNN
p2182
sbag5
(g6
g7
(lp2183
Vand
p2184
atp2185
Rp2186
(dp2187
g17
VCC
p2188
sbag5
(g6
g7
(lp2189
Vtarget
p2190
atp2191
Rp2192
(dp2193
g17
VNN
p2194
sbag5
(g6
g7
(lp2195
Vdomains
p2196
atp2197
Rp2198
(dp2199
g17
VNNS
p2200
sbatp2201
Rp2202
(dp2203
g17
VNP
p2204
sbatp2205
Rp2206
(dp2207
g17
VPP
p2208
sbatp2209
Rp2210
(dp2211
g17
VNP
p2212
sbag5
(g6
g7
(lp2213
g5
(g6
g7
(lp2214
Vare
p2215
atp2216
Rp2217
(dp2218
g17
VVBP
p2219
sbag5
(g6
g7
(lp2220
g5
(g6
g7
(lp2221
Vusually
p2222
atp2223
Rp2224
(dp2225
g17
VRB
p2226
sbatp2227
Rp2228
(dp2229
g17
VADVP
p2230
sbag5
(g6
g7
(lp2231
g5
(g6
g7
(lp2232
Vdifferent
p2233
atp2234
Rp2235
(dp2236
g17
VJJ
p2237
sbatp2238
Rp2239
(dp2240
g17
VADJP
p2241
sbatp2242
Rp2243
(dp2244
g17
VVP
p2245
sbatp2246
Rp2247
(dp2248
g17
g210
sbatp2249
Rp2250
(dp2251
g17
VSBAR
p2252
sbag5
(g6
g7
(lp2253
g349
atp2254
Rp2255
(dp2256
g17
g349
sbag5
(g6
g7
(lp2257
g5
(g6
g7
(lp2258
Vword
p2259
atp2260
Rp2261
(dp2262
g17
VNN
p2263
sbag5
(g6
g7
(lp2264
Vrepresentations
p2265
atp2266
Rp2267
(dp2268
g17
VNNS
p2269
sbatp2270
Rp2271
(dp2272
g17
VNP
p2273
sbag5
(g6
g7
(lp2274
g5
(g6
g7
(lp2275
Vwould
p2276
atp2277
Rp2278
(dp2279
g17
VMD
p2280
sbag5
(g6
g7
(lp2281
g5
(g6
g7
(lp2282
g5
(g6
g7
(lp2283
Vmitigate
p2284
atp2285
Rp2286
(dp2287
g17
VVB
p2288
sbag5
(g6
g7
(lp2289
g5
(g6
g7
(lp2290
Vthe
p2291
atp2292
Rp2293
(dp2294
g17
VDT
p2295
sbag5
(g6
g7
(lp2296
Vlexical
p2297
atp2298
Rp2299
(dp2300
g17
VJJ
p2301
sbag5
(g6
g7
(lp2302
Vsparsity
p2303
atp2304
Rp2305
(dp2306
g17
VNN
p2307
sbatp2308
Rp2309
(dp2310
g17
VNP
p2311
sbag5
(g6
g7
(lp2312
g5
(g6
g7
(lp2313
Vby
p2314
atp2315
Rp2316
(dp2317
g17
VIN
p2318
sbag5
(g6
g7
(lp2319
g5
(g6
g7
(lp2320
g5
(g6
g7
(lp2321
Vproviding
p2322
atp2323
Rp2324
(dp2325
g17
VVBG
p2326
sbag5
(g6
g7
(lp2327
g5
(g6
g7
(lp2328
g5
(g6
g7
(lp2329
Vgeneral
p2330
atp2331
Rp2332
(dp2333
g17
VJJ
p2334
sbag5
(g6
g7
(lp2335
Vfeatures
p2336
atp2337
Rp2338
(dp2339
g17
VNNS
p2340
sbatp2341
Rp2342
(dp2343
g17
VNP
p2344
sbag5
(g6
g7
(lp2345
g5
(g6
g7
(lp2346
Vof
p2347
atp2348
Rp2349
(dp2350
g17
VIN
p2351
sbag5
(g6
g7
(lp2352
g5
(g6
g7
(lp2353
g5
(g6
g7
(lp2354
Vwords
p2355
atp2356
Rp2357
(dp2358
g17
VNNS
p2359
sbatp2360
Rp2361
(dp2362
g17
VNP
p2363
sbag5
(g6
g7
(lp2364
g5
(g6
g7
(lp2365
g5
(g6
g7
(lp2366
Vthat
p2367
atp2368
Rp2369
(dp2370
g17
VWDT
p2371
sbatp2372
Rp2373
(dp2374
g17
VWHNP
p2375
sbag5
(g6
g7
(lp2376
g5
(g6
g7
(lp2377
g5
(g6
g7
(lp2378
Vare
p2379
atp2380
Rp2381
(dp2382
g17
VVBP
p2383
sbag5
(g6
g7
(lp2384
g5
(g6
g7
(lp2385
Vshared
p2386
atp2387
Rp2388
(dp2389
g17
VVBN
p2390
sbag5
(g6
g7
(lp2391
g5
(g6
g7
(lp2392
Vacross
p2393
atp2394
Rp2395
(dp2396
g17
VIN
p2397
sbag5
(g6
g7
(lp2398
g5
(g6
g7
(lp2399
Vdomains
p2400
atp2401
Rp2402
(dp2403
g17
VNNS
p2404
sbatp2405
Rp2406
(dp2407
g17
VNP
p2408
sbatp2409
Rp2410
(dp2411
g17
VPP
p2412
sbatp2413
Rp2414
(dp2415
g17
VVP
p2416
sbatp2417
Rp2418
(dp2419
g17
VVP
p2420
sbatp2421
Rp2422
(dp2423
g17
g210
sbatp2424
Rp2425
(dp2426
g17
VSBAR
p2427
sbatp2428
Rp2429
(dp2430
g17
VNP
p2431
sbatp2432
Rp2433
(dp2434
g17
VPP
p2435
sbatp2436
Rp2437
(dp2438
g17
VNP
p2439
sbatp2440
Rp2441
(dp2442
g17
VVP
p2443
sbatp2444
Rp2445
(dp2446
g17
g210
sbatp2447
Rp2448
(dp2449
g17
VPP
p2450
sbatp2451
Rp2452
(dp2453
g17
VVP
p2454
sbag5
(g6
g7
(lp2455
g349
atp2456
Rp2457
(dp2458
g17
g349
sbag5
(g6
g7
(lp2459
g5
(g6
g7
(lp2460
Vhence
p2461
atp2462
Rp2463
(dp2464
g17
VRB
p2465
sbatp2466
Rp2467
(dp2468
g17
VADVP
p2469
sbag5
(g6
g7
(lp2470
g5
(g6
g7
(lp2471
Vbridge
p2472
atp2473
Rp2474
(dp2475
g17
VVB
p2476
sbag5
(g6
g7
(lp2477
g5
(g6
g7
(lp2478
g5
(g6
g7
(lp2479
Vthe
p2480
atp2481
Rp2482
(dp2483
g17
VDT
p2484
sbag5
(g6
g7
(lp2485
Vgap
p2486
atp2487
Rp2488
(dp2489
g17
VNN
p2490
sbatp2491
Rp2492
(dp2493
g17
VNP
p2494
sbag5
(g6
g7
(lp2495
g5
(g6
g7
(lp2496
Vbetween
p2497
atp2498
Rp2499
(dp2500
g17
VIN
p2501
sbag5
(g6
g7
(lp2502
g5
(g6
g7
(lp2503
Vdomains
p2504
atp2505
Rp2506
(dp2507
g17
VNNS
p2508
sbatp2509
Rp2510
(dp2511
g17
VNP
p2512
sbatp2513
Rp2514
(dp2515
g17
VPP
p2516
sbatp2517
Rp2518
(dp2519
g17
VNP
p2520
sbatp2521
Rp2522
(dp2523
g17
VVP
p2524
sbatp2525
Rp2526
(dp2527
g17
VVP
p2528
sbatp2529
Rp2530
(dp2531
g17
VVP
p2532
sbatp2533
Rp2534
(dp2535
g17
g210
sbatp2536
Rp2537
(dp2538
g17
VROOT
p2539
sbasg245
(icmyPackage
CorE
p2540
(dp2541
g248
(lp2542
(I0
I5
tp2543
a(I0
I15
tp2544
asg252
g2247
sbsg253
(icmyPackage
CorE
p2545
(dp2546
g248
(lp2547
(I0
I17
tp2548
a(I0
I41
tp2549
asg252
g5
(g6
g7
(lp2550
g2271
ag2530
atp2551
Rp2552
(dp2553
g17
g263
sbsbsg264
(icmyPackage
pattern
p2554
(dp2555
g267
I15
sg268
I0
sg269
(lp2556
(lp2557
S'since'
p2558
aa(lp2559
S','
p2560
aasg275
(lp2561
I3
aI1
aI1
asg277
(lp2562
S'But, since the herpes virus does not always show its symptoms, prevention is not fool proof.'
p2563
asg280
I78
sg281
(lp2564
(lp2565
a(lp2566
S'&C@NCTime@'
p2567
aa(lp2568
S'&R@NCTime@'
p2569
aasbsg287
(lp2570
(isxpPackage
sxpSent
p2571
(dp2572
g291
(lp2573
I5
aI6
aI7
asg293
VIn DA terms, since the vocabularies of the source and target domains are usually different, word representations would mitigate the lexical sparsity by providing general features of words that are shared across domains, hence bridge the gap between domains
p2574
sg295
I2
sg280
I21
sg296
I6
sbasba(icmyPackage
CELink
p2575
(dp2576
g3
(lp2577
g2552
asg245
(icmyPackage
CorE
p2578
(dp2579
g248
(lp2580
(I0
I0
tp2581
a(I0
I17
tp2582
asg252
g5
(g6
g7
(lp2583
g2271
ag2278
ag2452
atp2584
Rp2585
(dp2586
g17
g263
sbsbsg253
(icmyPackage
CorE
p2587
(dp2588
g248
(lp2589
(I0
I20
tp2590
a(I0
I24
tp2591
asg252
g2522
sbsg264
(icmyPackage
pattern
p2592
(dp2593
g267
I7
sg268
I1
sg269
(lp2594
(lp2595
S'hence'
p2596
aasg275
(lp2597
I1
aI1
aI1
asg277
(lp2598
S'Increase in temperature increases the rate of deposition and hence the heat loss to the surroundings should be prevented.'
p2599
asg280
I4
sg281
(lp2600
(lp2601
S'&C'
p2602
aS'(,/;/./--)'
p2603
aS'(&AND)'
p2604
aa(lp2605
S'(,)'
p2606
aS'&R'
p2607
aasbsg287
(lp2608
g2571
asba(icmyPackage
CELink
p2609
(dp2610
g3
(lp2611
g2585
asg245
(icmyPackage
CorE
p2612
(dp2613
g248
(lp2614
(I0
I8
tp2615
a(I0
I17
tp2616
asg252
g2445
sbsg253
(icmyPackage
CorE
p2617
(dp2618
g248
(lp2619
(I0
I0
tp2620
a(I0
I6
tp2621
asg252
g5
(g6
g7
(lp2622
g2271
ag2278
ag2286
ag2309
atp2623
Rp2624
(dp2625
g17
g263
sbsbsg264
g265
sg287
(lp2626
g2571
asba(icmyPackage
CELink
p2627
(dp2628
g3
(lp2629
g5
(g6
g7
(lp2630
g5
(g6
g7
(lp2631
g5
(g6
g7
(lp2632
g5
(g6
g7
(lp2633
VIn
p2634
atp2635
Rp2636
(dp2637
g17
VIN
p2638
sbag5
(g6
g7
(lp2639
g5
(g6
g7
(lp2640
Vtraditional
p2641
atp2642
Rp2643
(dp2644
g17
VJJ
p2645
sbag5
(g6
g7
(lp2646
Vmachine
p2647
atp2648
Rp2649
(dp2650
g17
VNN
p2651
sbag5
(g6
g7
(lp2652
Vlearning
p2653
atp2654
Rp2655
(dp2656
g17
VNN
p2657
sbatp2658
Rp2659
(dp2660
g17
VNP
p2661
sbatp2662
Rp2663
(dp2664
g17
VPP
p2665
sbag5
(g6
g7
(lp2666
g5
(g6
g7
(lp2667
g5
(g6
g7
(lp2668
Vwhere
p2669
atp2670
Rp2671
(dp2672
g17
VWRB
p2673
sbatp2674
Rp2675
(dp2676
g17
VWHADVP
p2677
sbag5
(g6
g7
(lp2678
g5
(g6
g7
(lp2679
g5
(g6
g7
(lp2680
Vthe
p2681
atp2682
Rp2683
(dp2684
g17
VDT
p2685
sbag5
(g6
g7
(lp2686
Vchallenge
p2687
atp2688
Rp2689
(dp2690
g17
VNN
p2691
sbatp2692
Rp2693
(dp2694
g17
VNP
p2695
sbag5
(g6
g7
(lp2696
g5
(g6
g7
(lp2697
Vis
p2698
atp2699
Rp2700
(dp2701
g17
VVBZ
p2702
sbag5
(g6
g7
(lp2703
g5
(g6
g7
(lp2704
g5
(g6
g7
(lp2705
Vto
p2706
atp2707
Rp2708
(dp2709
g17
VTO
p2710
sbag5
(g6
g7
(lp2711
g5
(g6
g7
(lp2712
Vutilize
p2713
atp2714
Rp2715
(dp2716
g17
VVB
p2717
sbag5
(g6
g7
(lp2718
g5
(g6
g7
(lp2719
g5
(g6
g7
(lp2720
Vthe
p2721
atp2722
Rp2723
(dp2724
g17
VDT
p2725
sbag5
(g6
g7
(lp2726
Vtraining
p2727
atp2728
Rp2729
(dp2730
g17
VNN
p2731
sbag5
(g6
g7
(lp2732
Vdata
p2733
atp2734
Rp2735
(dp2736
g17
VNNS
p2737
sbatp2738
Rp2739
(dp2740
g17
VNP
p2741
sbag5
(g6
g7
(lp2742
g5
(g6
g7
(lp2743
Vto
p2744
atp2745
Rp2746
(dp2747
g17
VTO
p2748
sbag5
(g6
g7
(lp2749
g5
(g6
g7
(lp2750
Vmake
p2751
atp2752
Rp2753
(dp2754
g17
VVB
p2755
sbag5
(g6
g7
(lp2756
g5
(g6
g7
(lp2757
Vpredictions
p2758
atp2759
Rp2760
(dp2761
g17
VNNS
p2762
sbatp2763
Rp2764
(dp2765
g17
VNP
p2766
sbag5
(g6
g7
(lp2767
g5
(g6
g7
(lp2768
Von
p2769
atp2770
Rp2771
(dp2772
g17
VIN
p2773
sbag5
(g6
g7
(lp2774
g5
(g6
g7
(lp2775
g5
(g6
g7
(lp2776
g5
(g6
g7
(lp2777
Vunseen
p2778
atp2779
Rp2780
(dp2781
g17
VJJ
p2782
sbatp2783
Rp2784
(dp2785
g17
VADJP
p2786
sbag5
(g6
g7
(lp2787
Vdata
p2788
atp2789
Rp2790
(dp2791
g17
VNN
p2792
sbag5
(g6
g7
(lp2793
Vpoints
p2794
atp2795
Rp2796
(dp2797
g17
VNNS
p2798
sbatp2799
Rp2800
(dp2801
g17
VNP
p2802
sbag5
(g6
g7
(lp2803
g5
(g6
g7
(lp2804
V-LRB-
p2805
atp2806
Rp2807
(dp2808
g17
V-LRB-
p2809
sbag5
(g6
g7
(lp2810
g5
(g6
g7
(lp2811
Vgenerated
p2812
atp2813
Rp2814
(dp2815
g17
VVBN
p2816
sbag5
(g6
g7
(lp2817
g5
(g6
g7
(lp2818
Vfrom
p2819
atp2820
Rp2821
(dp2822
g17
VIN
p2823
sbag5
(g6
g7
(lp2824
g5
(g6
g7
(lp2825
g5
(g6
g7
(lp2826
Vthe
p2827
atp2828
Rp2829
(dp2830
g17
VDT
p2831
sbag5
(g6
g7
(lp2832
Vsame
p2833
atp2834
Rp2835
(dp2836
g17
VJJ
p2837
sbag5
(g6
g7
(lp2838
Vdistribution
p2839
atp2840
Rp2841
(dp2842
g17
VNN
p2843
sbatp2844
Rp2845
(dp2846
g17
VNP
p2847
sbag5
(g6
g7
(lp2848
g5
(g6
g7
(lp2849
Vas
p2850
atp2851
Rp2852
(dp2853
g17
VIN
p2854
sbag5
(g6
g7
(lp2855
g5
(g6
g7
(lp2856
Vthe
p2857
atp2858
Rp2859
(dp2860
g17
VDT
p2861
sbag5
(g6
g7
(lp2862
Vtraining
p2863
atp2864
Rp2865
(dp2866
g17
VNN
p2867
sbag5
(g6
g7
(lp2868
Vdata
p2869
atp2870
Rp2871
(dp2872
g17
VNNS
p2873
sbatp2874
Rp2875
(dp2876
g17
VNP
p2877
sbatp2878
Rp2879
(dp2880
g17
VPP
p2881
sbatp2882
Rp2883
(dp2884
g17
VNP
p2885
sbatp2886
Rp2887
(dp2888
g17
VPP
p2889
sbatp2890
Rp2891
(dp2892
g17
VVP
p2893
sbag5
(g6
g7
(lp2894
V-RRB-
p2895
atp2896
Rp2897
(dp2898
g17
V-RRB-
p2899
sbatp2900
Rp2901
(dp2902
g17
VPRN
p2903
sbatp2904
Rp2905
(dp2906
g17
VNP
p2907
sbatp2908
Rp2909
(dp2910
g17
VPP
p2911
sbatp2912
Rp2913
(dp2914
g17
VVP
p2915
sbatp2916
Rp2917
(dp2918
g17
VVP
p2919
sbatp2920
Rp2921
(dp2922
g17
g210
sbatp2923
Rp2924
(dp2925
g17
VVP
p2926
sbatp2927
Rp2928
(dp2929
g17
VVP
p2930
sbatp2931
Rp2932
(dp2933
g17
g210
sbatp2934
Rp2935
(dp2936
g17
VVP
p2937
sbatp2938
Rp2939
(dp2940
g17
g210
sbatp2941
Rp2942
(dp2943
g17
VSBAR
p2944
sbag5
(g6
g7
(lp2945
g349
atp2946
Rp2947
(dp2948
g17
g349
sbag5
(g6
g7
(lp2949
g5
(g6
g7
(lp2950
g5
(g6
g7
(lp2951
Vthe
p2952
atp2953
Rp2954
(dp2955
g17
VDT
p2956
sbag5
(g6
g7
(lp2957
Vclassifier
p2958
atp2959
Rp2960
(dp2961
g17
VNN
p2962
sbatp2963
Rp2964
(dp2965
g17
VNP
p2966
sbag5
(g6
g7
(lp2967
g5
(g6
g7
(lp2968
Vwith
p2969
atp2970
Rp2971
(dp2972
g17
VIN
p2973
sbag5
(g6
g7
(lp2974
g5
(g6
g7
(lp2975
g1508
atp2976
Rp2977
(dp2978
g17
VDT
p2979
sbag5
(g6
g7
(lp2980
Vgood
p2981
atp2982
Rp2983
(dp2984
g17
VJJ
p2985
sbag5
(g6
g7
(lp2986
Vgeneralization
p2987
atp2988
Rp2989
(dp2990
g17
VNN
p2991
sbag5
(g6
g7
(lp2992
Vperformance
p2993
atp2994
Rp2995
(dp2996
g17
VNN
p2997
sbatp2998
Rp2999
(dp3000
g17
VNP
p3001
sbatp3002
Rp3003
(dp3004
g17
VPP
p3005
sbatp3006
Rp3007
(dp3008
g17
VNP
p3009
sbag5
(g6
g7
(lp3010
g5
(g6
g7
(lp3011
Vis
p3012
atp3013
Rp3014
(dp3015
g17
VVBZ
p3016
sbag5
(g6
g7
(lp3017
g5
(g6
g7
(lp3018
g5
(g6
g7
(lp3019
Vthe
p3020
atp3021
Rp3022
(dp3023
g17
VDT
p3024
sbag5
(g6
g7
(lp3025
Vone
p3026
atp3027
Rp3028
(dp3029
g17
VNN
p3030
sbatp3031
Rp3032
(dp3033
g17
VNP
p3034
sbag5
(g6
g7
(lp3035
g5
(g6
g7
(lp3036
g5
(g6
g7
(lp3037
Vthat
p3038
atp3039
Rp3040
(dp3041
g17
VWDT
p3042
sbatp3043
Rp3044
(dp3045
g17
VWHNP
p3046
sbag5
(g6
g7
(lp3047
g5
(g6
g7
(lp3048
g5
(g6
g7
(lp3049
g5
(g6
g7
(lp3050
Vnot
p3051
atp3052
Rp3053
(dp3054
g17
VRB
p3055
sbag5
(g6
g7
(lp3056
Vonly
p3057
atp3058
Rp3059
(dp3060
g17
VJJ
p3061
sbatp3062
Rp3063
(dp3064
g17
VCONJP
p3065
sbag5
(g6
g7
(lp3066
g5
(g6
g7
(lp3067
Vfits
p3068
atp3069
Rp3070
(dp3071
g17
VVBZ
p3072
sbag5
(g6
g7
(lp3073
g5
(g6
g7
(lp3074
Vthe
p3075
atp3076
Rp3077
(dp3078
g17
VDT
p3079
sbag5
(g6
g7
(lp3080
Vtraining
p3081
atp3082
Rp3083
(dp3084
g17
VNN
p3085
sbag5
(g6
g7
(lp3086
Vdata
p3087
atp3088
Rp3089
(dp3090
g17
VNNS
p3091
sbatp3092
Rp3093
(dp3094
g17
VNP
p3095
sbatp3096
Rp3097
(dp3098
g17
VVP
p3099
sbag5
(g6
g7
(lp3100
g349
atp3101
Rp3102
(dp3103
g17
g349
sbag5
(g6
g7
(lp3104
g5
(g6
g7
(lp3105
Vbut
p3106
atp3107
Rp3108
(dp3109
g17
VCC
p3110
sbag5
(g6
g7
(lp3111
Valso
p3112
atp3113
Rp3114
(dp3115
g17
VRB
p3116
sbatp3117
Rp3118
(dp3119
g17
VCONJP
p3120
sbag5
(g6
g7
(lp3121
g5
(g6
g7
(lp3122
Vavoids
p3123
atp3124
Rp3125
(dp3126
g17
VVBZ
p3127
sbag5
(g6
g7
(lp3128
g5
(g6
g7
(lp3129
g5
(g6
g7
(lp3130
Vovefitting
p3131
atp3132
Rp3133
(dp3134
g17
VVBG
p3135
sbag5
(g6
g7
(lp3136
g5
(g6
g7
(lp3137
Vover
p3138
atp3139
Rp3140
(dp3141
g17
VRP
p3142
sbatp3143
Rp3144
(dp3145
g17
VPRT
p3146
sbag5
(g6
g7
(lp3147
g5
(g6
g7
(lp3148
Vit
p3149
atp3150
Rp3151
(dp3152
g17
VPRP
p3153
sbatp3154
Rp3155
(dp3156
g17
VNP
p3157
sbatp3158
Rp3159
(dp3160
g17
VVP
p3161
sbatp3162
Rp3163
(dp3164
g17
g210
sbatp3165
Rp3166
(dp3167
g17
VVP
p3168
sbatp3169
Rp3170
(dp3171
g17
VVP
p3172
sbatp3173
Rp3174
(dp3175
g17
g210
sbatp3176
Rp3177
(dp3178
g17
VSBAR
p3179
sbatp3180
Rp3181
(dp3182
g17
VNP
p3183
sbatp3184
Rp3185
(dp3186
g17
VVP
p3187
sbatp3188
Rp3189
(dp3190
g17
g210
sbatp3191
Rp3192
(dp3193
g17
VROOT
p3194
sbasg245
(icmyPackage
CorE
p3195
(dp3196
g248
(lp3197
(I0
I27
tp3198
a(I0
I55
tp3199
asg252
g5
(g6
g7
(lp3200
g2875
ag2897
ag2947
ag3007
ag3185
atp3201
Rp3202
(dp3203
g17
g263
sbsbsg253
(icmyPackage
CorE
p3204
(dp3205
g248
(lp3206
(I0
I1
tp3207
a(I0
I25
tp3208
asg252
g5
(g6
g7
(lp3209
g2659
ag2675
ag2693
ag2700
ag2708
ag2715
ag2739
ag2746
ag2753
ag2764
ag2771
ag2800
ag2807
ag2814
ag2821
ag2845
atp3210
Rp3211
(dp3212
g17
g263
sbsbsg264
g1677
sg287
(lp3213
(isxpPackage
sxpSent
p3214
(dp3215
g291
(lp3216
I8
asg293
VIn traditional machine learning where the challenge is to utilize the training data to make predictions on unseen data points (generated from the same distribution as the training data), the classifier with a good generalization performance is the one that not only fits the training data, but also avoids ovefitting over it
p3217
sg295
I3
sg280
I27
sg296
I8
sbasba(icmyPackage
CELink
p3218
(dp3219
g3
(lp3220
g5
(g6
g7
(lp3221
g5
(g6
g7
(lp3222
g5
(g6
g7
(lp3223
g5
(g6
g7
(lp3224
g5
(g6
g7
(lp3225
VExploiting
p3226
atp3227
Rp3228
(dp3229
g17
VVBG
p3230
sbag5
(g6
g7
(lp3231
g5
(g6
g7
(lp3232
Vthe
p3233
atp3234
Rp3235
(dp3236
g17
VDT
p3237
sbag5
(g6
g7
(lp3238
Vshared
p3239
atp3240
Rp3241
(dp3242
g17
VVBN
p3243
sbag5
(g6
g7
(lp3244
Vinterest
p3245
atp3246
Rp3247
(dp3248
g17
VNN
p3249
sbatp3250
Rp3251
(dp3252
g17
VNP
p3253
sbag5
(g6
g7
(lp3254
g5
(g6
g7
(lp3255
Vin
p3256
atp3257
Rp3258
(dp3259
g17
VIN
p3260
sbag5
(g6
g7
(lp3261
g5
(g6
g7
(lp3262
Vgeneralization
p3263
atp3264
Rp3265
(dp3266
g17
VNN
p3267
sbag5
(g6
g7
(lp3268
Vperformance
p3269
atp3270
Rp3271
(dp3272
g17
VNN
p3273
sbatp3274
Rp3275
(dp3276
g17
VNP
p3277
sbatp3278
Rp3279
(dp3280
g17
VPP
p3281
sbag5
(g6
g7
(lp3282
g5
(g6
g7
(lp3283
Vwith
p3284
atp3285
Rp3286
(dp3287
g17
VIN
p3288
sbag5
(g6
g7
(lp3289
g5
(g6
g7
(lp3290
Vtraditional
p3291
atp3292
Rp3293
(dp3294
g17
VJJ
p3295
sbag5
(g6
g7
(lp3296
Vmachine
p3297
atp3298
Rp3299
(dp3300
g17
VNN
p3301
sbag5
(g6
g7
(lp3302
Vlearning
p3303
atp3304
Rp3305
(dp3306
g17
VNN
p3307
sbatp3308
Rp3309
(dp3310
g17
VNP
p3311
sbatp3312
Rp3313
(dp3314
g17
VPP
p3315
sbag5
(g6
g7
(lp3316
g349
atp3317
Rp3318
(dp3319
g17
g349
sbag5
(g6
g7
(lp3320
g5
(g6
g7
(lp3321
Vin
p3322
atp3323
Rp3324
(dp3325
g17
VIN
p3326
sbag5
(g6
g7
(lp3327
g5
(g6
g7
(lp3328
g5
(g6
g7
(lp3329
Vdomain
p3330
atp3331
Rp3332
(dp3333
g17
VNN
p3334
sbag5
(g6
g7
(lp3335
Vadaptation
p3336
atp3337
Rp3338
(dp3339
g17
VNN
p3340
sbatp3341
Rp3342
(dp3343
g17
VNP
p3344
sbag5
(g6
g7
(lp3345
g5
(g6
g7
(lp3346
Vfor
p3347
atp3348
Rp3349
(dp3350
g17
VIN
p3351
sbag5
(g6
g7
(lp3352
g5
(g6
g7
(lp3353
VRE
p3354
atp3355
Rp3356
(dp3357
g17
VNNP
p3358
sbatp3359
Rp3360
(dp3361
g17
VNP
p3362
sbatp3363
Rp3364
(dp3365
g17
VPP
p3366
sbatp3367
Rp3368
(dp3369
g17
VNP
p3370
sbatp3371
Rp3372
(dp3373
g17
VPP
p3374
sbatp3375
Rp3376
(dp3377
g17
VVP
p3378
sbatp3379
Rp3380
(dp3381
g17
g210
sbag5
(g6
g7
(lp3382
g349
atp3383
Rp3384
(dp3385
g17
g349
sbag5
(g6
g7
(lp3386
g5
(g6
g7
(lp3387
Vwe
p3388
atp3389
Rp3390
(dp3391
g17
VPRP
p3392
sbatp3393
Rp3394
(dp3395
g17
VNP
p3396
sbag5
(g6
g7
(lp3397
g5
(g6
g7
(lp3398
Vwould
p3399
atp3400
Rp3401
(dp3402
g17
VMD
p3403
sbag5
(g6
g7
(lp3404
g5
(g6
g7
(lp3405
Vprefer
p3406
atp3407
Rp3408
(dp3409
g17
VVB
p3410
sbag5
(g6
g7
(lp3411
g5
(g6
g7
(lp3412
g5
(g6
g7
(lp3413
Vthe
p3414
atp3415
Rp3416
(dp3417
g17
VDT
p3418
sbag5
(g6
g7
(lp3419
Vrelation
p3420
atp3421
Rp3422
(dp3423
g17
VNN
p3424
sbag5
(g6
g7
(lp3425
Vextractor
p3426
atp3427
Rp3428
(dp3429
g17
VNN
p3430
sbatp3431
Rp3432
(dp3433
g17
VNP
p3434
sbag5
(g6
g7
(lp3435
g5
(g6
g7
(lp3436
g5
(g6
g7
(lp3437
Vthat
p3438
atp3439
Rp3440
(dp3441
g17
VWDT
p3442
sbatp3443
Rp3444
(dp3445
g17
VWHNP
p3446
sbag5
(g6
g7
(lp3447
g5
(g6
g7
(lp3448
g5
(g6
g7
(lp3449
g5
(g6
g7
(lp3450
Vfits
p3451
atp3452
Rp3453
(dp3454
g17
VVBZ
p3455
sbag5
(g6
g7
(lp3456
g5
(g6
g7
(lp3457
Vthe
p3458
atp3459
Rp3460
(dp3461
g17
VDT
p3462
sbag5
(g6
g7
(lp3463
Vsource
p3464
atp3465
Rp3466
(dp3467
g17
VNN
p3468
sbag5
(g6
g7
(lp3469
Vdomain
p3470
atp3471
Rp3472
(dp3473
g17
VNN
p3474
sbag5
(g6
g7
(lp3475
Vdata
p3476
atp3477
Rp3478
(dp3479
g17
VNN
p3480
sbatp3481
Rp3482
(dp3483
g17
VNP
p3484
sbatp3485
Rp3486
(dp3487
g17
VVP
p3488
sbag5
(g6
g7
(lp3489
g349
atp3490
Rp3491
(dp3492
g17
g349
sbag5
(g6
g7
(lp3493
Vbut
p3494
atp3495
Rp3496
(dp3497
g17
VCC
p3498
sbag5
(g6
g7
(lp3499
g5
(g6
g7
(lp3500
g5
(g6
g7
(lp3501
Valso
p3502
atp3503
Rp3504
(dp3505
g17
VRB
p3506
sbatp3507
Rp3508
(dp3509
g17
VADVP
p3510
sbag5
(g6
g7
(lp3511
Vcircumvents
p3512
atp3513
Rp3514
(dp3515
g17
VVBZ
p3516
sbag5
(g6
g7
(lp3517
g5
(g6
g7
(lp3518
Vthe
p3519
atp3520
Rp3521
(dp3522
g17
VDT
p3523
sbag5
(g6
g7
(lp3524
Voverfitting
p3525
atp3526
Rp3527
(dp3528
g17
VJJ
p3529
sbag5
(g6
g7
(lp3530
Vproblem
p3531
atp3532
Rp3533
(dp3534
g17
VNN
p3535
sbatp3536
Rp3537
(dp3538
g17
VNP
p3539
sbag5
(g6
g7
(lp3540
g5
(g6
g7
(lp3541
Vover
p3542
atp3543
Rp3544
(dp3545
g17
VIN
p3546
sbag5
(g6
g7
(lp3547
g5
(g6
g7
(lp3548
g5
(g6
g7
(lp3549
Vthis
p3550
atp3551
Rp3552
(dp3553
g17
VDT
p3554
sbag5
(g6
g7
(lp3555
Vsource
p3556
atp3557
Rp3558
(dp3559
g17
VNN
p3560
sbag5
(g6
g7
(lp3561
Vdomain
p3562
atp3563
Rp3564
(dp3565
g17
VNN
p3566
sbag5
(g6
g7
(lp3567
g5
(g6
g7
(lp3568
g5
(g6
g7
(lp3569
V1
p3570
atp3571
Rp3572
(dp3573
g17
VCD
p3574
sbag5
(g6
g7
(lp3575
g3570
atp3576
Rp3577
(dp3578
g17
VCD
p3579
sbatp3580
Rp3581
(dp3582
g17
VQP
p3583
sbatp3584
Rp3585
(dp3586
g17
VADJP
p3587
sbag5
(g6
g7
(lp3588
Vdomain
p3589
atp3590
Rp3591
(dp3592
g17
VNN
p3593
sbatp3594
Rp3595
(dp3596
g17
VNP
p3597
sbag5
(g6
g7
(lp3598
g5
(g6
g7
(lp3599
Voverfitting
p3600
atp3601
Rp3602
(dp3603
g17
VVBG
p3604
sbag5
(g6
g7
(lp3605
g5
(g6
g7
(lp3606
g5
(g6
g7
(lp3607
V-LSB-
p3608
atp3609
Rp3610
(dp3611
g17
VNNP
p3612
sbag5
(g6
g7
(lp3613
VJiang
p3614
atp3615
Rp3616
(dp3617
g17
VNNP
p3618
sbatp3619
Rp3620
(dp3621
g17
VNP
p3622
sbag5
(g6
g7
(lp3623
Vand
p3624
atp3625
Rp3626
(dp3627
g17
VCC
p3628
sbag5
(g6
g7
(lp3629
g5
(g6
g7
(lp3630
VZhai2007b
p3631
atp3632
Rp3633
(dp3634
g17
VNNP
p3635
sbag5
(g6
g7
(lp3636
V-RSB-
p3637
atp3638
Rp3639
(dp3640
g17
VNNP
p3641
sbatp3642
Rp3643
(dp3644
g17
VNP
p3645
sbatp3646
Rp3647
(dp3648
g17
VNP
p3649
sbag5
(g6
g7
(lp3650
g5
(g6
g7
(lp3651
Vso
p3652
atp3653
Rp3654
(dp3655
g17
VRB
p3656
sbag5
(g6
g7
(lp3657
Vthat
p3658
atp3659
Rp3660
(dp3661
g17
VIN
p3662
sbag5
(g6
g7
(lp3663
g5
(g6
g7
(lp3664
g5
(g6
g7
(lp3665
Vit
p3666
atp3667
Rp3668
(dp3669
g17
VPRP
p3670
sbatp3671
Rp3672
(dp3673
g17
VNP
p3674
sbag5
(g6
g7
(lp3675
g5
(g6
g7
(lp3676
Vcould
p3677
atp3678
Rp3679
(dp3680
g17
VMD
p3681
sbag5
(g6
g7
(lp3682
g5
(g6
g7
(lp3683
Vgeneralize
p3684
atp3685
Rp3686
(dp3687
g17
VVB
p3688
sbag5
(g6
g7
(lp3689
g5
(g6
g7
(lp3690
Vwell
p3691
atp3692
Rp3693
(dp3694
g17
VRB
p3695
sbatp3696
Rp3697
(dp3698
g17
VADVP
p3699
sbag5
(g6
g7
(lp3700
g5
(g6
g7
(lp3701
Von
p3702
atp3703
Rp3704
(dp3705
g17
VIN
p3706
sbag5
(g6
g7
(lp3707
g5
(g6
g7
(lp3708
Vnew
p3709
atp3710
Rp3711
(dp3712
g17
VJJ
p3713
sbag5
(g6
g7
(lp3714
Vdomains
p3715
atp3716
Rp3717
(dp3718
g17
VNNS
p3719
sbatp3720
Rp3721
(dp3722
g17
VNP
p3723
sbatp3724
Rp3725
(dp3726
g17
VPP
p3727
sbatp3728
Rp3729
(dp3730
g17
VVP
p3731
sbatp3732
Rp3733
(dp3734
g17
VVP
p3735
sbatp3736
Rp3737
(dp3738
g17
g210
sbatp3739
Rp3740
(dp3741
g17
VSBAR
p3742
sbatp3743
Rp3744
(dp3745
g17
VVP
p3746
sbatp3747
Rp3748
(dp3749
g17
VNP
p3750
sbatp3751
Rp3752
(dp3753
g17
VPP
p3754
sbatp3755
Rp3756
(dp3757
g17
VVP
p3758
sbatp3759
Rp3760
(dp3761
g17
VVP
p3762
sbatp3763
Rp3764
(dp3765
g17
g210
sbatp3766
Rp3767
(dp3768
g17
VSBAR
p3769
sbatp3770
Rp3771
(dp3772
g17
VNP
p3773
sbatp3774
Rp3775
(dp3776
g17
VVP
p3777
sbatp3778
Rp3779
(dp3780
g17
VVP
p3781
sbatp3782
Rp3783
(dp3784
g17
g210
sbatp3785
Rp3786
(dp3787
g17
VROOT
p3788
sbasg245
(icmyPackage
CorE
p3789
(dp3790
g248
(lp3791
(I0
I0
tp3792
a(I0
I49
tp3793
asg252
g5
(g6
g7
(lp3794
g3380
ag3384
ag3394
ag3401
ag3408
ag3432
ag3444
ag3486
ag3491
ag3496
ag3508
ag3514
ag3537
ag3544
ag3595
ag3602
ag3647
atp3795
Rp3796
(dp3797
g17
g263
sbsbsg253
(icmyPackage
CorE
p3798
(dp3799
g248
(lp3800
(I0
I52
tp3801
a(I0
I58
tp3802
asg252
g3737
sbsg264
(icmyPackage
pattern
p3803
(dp3804
g267
I45
sg268
I0
sg269
(lp3805
(lp3806
S'so'
p3807
aS'that'
p3808
aasg275
(lp3809
I3
aI1
aI1
asg277
(lp3810
S'The teacher then decided to ask him some very easy questions so that he could get a few right.'
p3811
asg280
I77
sg281
(lp3812
(lp3813
S'&C'
p3814
aa(lp3815
S'&R'
p3816
aasbsg287
(lp3817
(isxpPackage
sxpSent
p3818
(dp3819
g291
(lp3820
I9
aI10
asg293
VExploiting the shared interest in generalization performance with traditional machine learning, in domain adaptation for RE, we would prefer the relation extractor that fits the source domain data, but also circumvents the overfitting problem over this source domain 1 1 domain overfitting [ Jiang and Zhai2007b ] so that it could generalize well on new domains
p3821
sg295
I3
sg280
I29
sg296
I8
sbasba(icmyPackage
CELink
p3822
(dp3823
g3
(lp3824
g3796
asg245
(icmyPackage
CorE
p3825
(dp3826
g248
(lp3827
(I0
I0
tp3828
a(I0
I16
tp3829
asg252
g3380
sbsg253
(icmyPackage
CorE
p3830
(dp3831
g248
(lp3832
(I0
I18
tp3833
a(I0
I49
tp3834
asg252
g5
(g6
g7
(lp3835
g3394
ag3401
ag3408
ag3432
ag3444
ag3486
ag3491
ag3496
ag3508
ag3514
ag3537
ag3544
ag3595
ag3602
ag3647
atp3836
Rp3837
(dp3838
g17
g263
sbsbsg264
(icmyPackage
pattern
p3839
(dp3840
g267
I30
sg268
I0
sg269
(lp3841
sg275
(lp3842
I3
aI2
aI1
asg277
(lp3843
S'Being over here we tend to be a bit isolated.'
p3844
aS'Not being sure of the word, he turned it up in the dictionary.'
p3845
asg280
I81
sg281
(lp3846
(lp3847
S'&V-ing@C@'
p3848
aS'(,)'
p3849
aS'&R@Complete@'
p3850
aasbsg287
(lp3851
g3818
asba(icmyPackage
CELink
p3852
(dp3853
g3
(lp3854
g5
(g6
g7
(lp3855
g5
(g6
g7
(lp3856
g5
(g6
g7
(lp3857
g5
(g6
g7
(lp3858
VEventually
p3859
atp3860
Rp3861
(dp3862
g17
VRB
p3863
sbatp3864
Rp3865
(dp3866
g17
VADVP
p3867
sbag5
(g6
g7
(lp3868
g349
atp3869
Rp3870
(dp3871
g17
g349
sbag5
(g6
g7
(lp3872
g5
(g6
g7
(lp3873
Vregularization
p3874
atp3875
Rp3876
(dp3877
g17
VNN
p3878
sbag5
(g6
g7
(lp3879
Vmethods
p3880
atp3881
Rp3882
(dp3883
g17
VNNS
p3884
sbatp3885
Rp3886
(dp3887
g17
VNP
p3888
sbag5
(g6
g7
(lp3889
g5
(g6
g7
(lp3890
Vcan
p3891
atp3892
Rp3893
(dp3894
g17
VMD
p3895
sbag5
(g6
g7
(lp3896
g5
(g6
g7
(lp3897
Vbe
p3898
atp3899
Rp3900
(dp3901
g17
VVB
p3902
sbag5
(g6
g7
(lp3903
g5
(g6
g7
(lp3904
Vconsidered
p3905
atp3906
Rp3907
(dp3908
g17
VVBN
p3909
sbag5
(g6
g7
(lp3910
g5
(g6
g7
(lp3911
Vnaturally
p3912
atp3913
Rp3914
(dp3915
g17
VRB
p3916
sbatp3917
Rp3918
(dp3919
g17
VADVP
p3920
sbag5
(g6
g7
(lp3921
g5
(g6
g7
(lp3922
Vas
p3923
atp3924
Rp3925
(dp3926
g17
VIN
p3927
sbag5
(g6
g7
(lp3928
g5
(g6
g7
(lp3929
g1508
atp3930
Rp3931
(dp3932
g17
VDT
p3933
sbag5
(g6
g7
(lp3934
g5
(g6
g7
(lp3935
Vsimple
p3936
atp3937
Rp3938
(dp3939
g17
VJJ
p3940
sbag5
(g6
g7
(lp3941
Vyet
p3942
atp3943
Rp3944
(dp3945
g17
VCC
p3946
sbag5
(g6
g7
(lp3947
Vgeneral
p3948
atp3949
Rp3950
(dp3951
g17
VJJ
p3952
sbatp3953
Rp3954
(dp3955
g17
VADJP
p3956
sbag5
(g6
g7
(lp3957
Vtechnique
p3958
atp3959
Rp3960
(dp3961
g17
VNN
p3962
sbatp3963
Rp3964
(dp3965
g17
VNP
p3966
sbatp3967
Rp3968
(dp3969
g17
VPP
p3970
sbag5
(g6
g7
(lp3971
g5
(g6
g7
(lp3972
g5
(g6
g7
(lp3973
Vto
p3974
atp3975
Rp3976
(dp3977
g17
VTO
p3978
sbag5
(g6
g7
(lp3979
g5
(g6
g7
(lp3980
Vcope
p3981
atp3982
Rp3983
(dp3984
g17
VVB
p3985
sbag5
(g6
g7
(lp3986
g5
(g6
g7
(lp3987
Vwith
p3988
atp3989
Rp3990
(dp3991
g17
VIN
p3992
sbag5
(g6
g7
(lp3993
g5
(g6
g7
(lp3994
VDA
p3995
atp3996
Rp3997
(dp3998
g17
VNNP
p3999
sbag5
(g6
g7
(lp4000
Vproblems
p4001
atp4002
Rp4003
(dp4004
g17
VNNS
p4005
sbatp4006
Rp4007
(dp4008
g17
VNP
p4009
sbatp4010
Rp4011
(dp4012
g17
VPP
p4013
sbatp4014
Rp4015
(dp4016
g17
VVP
p4017
sbatp4018
Rp4019
(dp4020
g17
VVP
p4021
sbatp4022
Rp4023
(dp4024
g17
g210
sbatp4025
Rp4026
(dp4027
g17
VVP
p4028
sbatp4029
Rp4030
(dp4031
g17
VVP
p4032
sbatp4033
Rp4034
(dp4035
g17
VVP
p4036
sbatp4037
Rp4038
(dp4039
g17
g210
sbatp4040
Rp4041
(dp4042
g17
VROOT
p4043
sbag5
(g6
g7
(lp4044
g5
(g6
g7
(lp4045
g5
(g6
g7
(lp4046
g5
(g6
g7
(lp4047
VFollowing
p4048
atp4049
Rp4050
(dp4051
g17
VVBG
p4052
sbag5
(g6
g7
(lp4053
g5
(g6
g7
(lp4054
g5
(g6
g7
(lp4055
VPlank
p4056
atp4057
Rp4058
(dp4059
g17
VNNP
p4060
sbatp4061
Rp4062
(dp4063
g17
VNP
p4064
sbag5
(g6
g7
(lp4065
Vand
p4066
atp4067
Rp4068
(dp4069
g17
VCC
p4070
sbag5
(g6
g7
(lp4071
g5
(g6
g7
(lp4072
VMoschitti
p4073
atp4074
Rp4075
(dp4076
g17
VNNP
p4077
sbag5
(g6
g7
(lp4078
V-LSB-
p4079
atp4080
Rp4081
(dp4082
g17
VNNP
p4083
sbag5
(g6
g7
(lp4084
VPlank
p4085
atp4086
Rp4087
(dp4088
g17
VNNP
p4089
sbag5
(g6
g7
(lp4090
Vand
p4091
atp4092
Rp4093
(dp4094
g17
VCC
p4095
sbag5
(g6
g7
(lp4096
VMoschitti2013
p4097
atp4098
Rp4099
(dp4100
g17
VNNP
p4101
sbag5
(g6
g7
(lp4102
V-RSB-
p4103
atp4104
Rp4105
(dp4106
g17
VNNP
p4107
sbatp4108
Rp4109
(dp4110
g17
VNP
p4111
sbatp4112
Rp4113
(dp4114
g17
VNP
p4115
sbatp4116
Rp4117
(dp4118
g17
VPP
p4119
sbag5
(g6
g7
(lp4120
g349
atp4121
Rp4122
(dp4123
g17
g349
sbag5
(g6
g7
(lp4124
g5
(g6
g7
(lp4125
Vwe
p4126
atp4127
Rp4128
(dp4129
g17
VPRP
p4130
sbatp4131
Rp4132
(dp4133
g17
VNP
p4134
sbag5
(g6
g7
(lp4135
g5
(g6
g7
(lp4136
Vassume
p4137
atp4138
Rp4139
(dp4140
g17
VVBP
p4141
sbag5
(g6
g7
(lp4142
g5
(g6
g7
(lp4143
Vthat
p4144
atp4145
Rp4146
(dp4147
g17
VIN
p4148
sbag5
(g6
g7
(lp4149
g5
(g6
g7
(lp4150
g5
(g6
g7
(lp4151
Vwe
p4152
atp4153
Rp4154
(dp4155
g17
VPRP
p4156
sbatp4157
Rp4158
(dp4159
g17
VNP
p4160
sbag5
(g6
g7
(lp4161
g5
(g6
g7
(lp4162
Vonly
p4163
atp4164
Rp4165
(dp4166
g17
VRB
p4167
sbatp4168
Rp4169
(dp4170
g17
VADVP
p4171
sbag5
(g6
g7
(lp4172
g5
(g6
g7
(lp4173
Vhave
p4174
atp4175
Rp4176
(dp4177
g17
VVBP
p4178
sbag5
(g6
g7
(lp4179
g5
(g6
g7
(lp4180
Vlabeled
p4181
atp4182
Rp4183
(dp4184
g17
VVBN
p4185
sbag5
(g6
g7
(lp4186
g5
(g6
g7
(lp4187
g5
(g6
g7
(lp4188
g5
(g6
g7
(lp4189
Vdata
p4190
atp4191
Rp4192
(dp4193
g17
VNNS
p4194
sbatp4195
Rp4196
(dp4197
g17
VNP
p4198
sbag5
(g6
g7
(lp4199
g5
(g6
g7
(lp4200
Vin
p4201
atp4202
Rp4203
(dp4204
g17
VIN
p4205
sbag5
(g6
g7
(lp4206
g5
(g6
g7
(lp4207
g1508
atp4208
Rp4209
(dp4210
g17
VDT
p4211
sbag5
(g6
g7
(lp4212
Vsingle
p4213
atp4214
Rp4215
(dp4216
g17
VJJ
p4217
sbag5
(g6
g7
(lp4218
Vsource
p4219
atp4220
Rp4221
(dp4222
g17
VNN
p4223
sbag5
(g6
g7
(lp4224
Vdomain
p4225
atp4226
Rp4227
(dp4228
g17
VNN
p4229
sbatp4230
Rp4231
(dp4232
g17
VNP
p4233
sbatp4234
Rp4235
(dp4236
g17
VPP
p4237
sbatp4238
Rp4239
(dp4240
g17
VNP
p4241
sbag5
(g6
g7
(lp4242
Vbut
p4243
atp4244
Rp4245
(dp4246
g17
VCC
p4247
sbag5
(g6
g7
(lp4248
g5
(g6
g7
(lp4249
Vno
p4250
atp4251
Rp4252
(dp4253
g17
VDT
p4254
sbag5
(g6
g7
(lp4255
g5
(g6
g7
(lp4256
Vlabeled
p4257
atp4258
Rp4259
(dp4260
g17
VNN
p4261
sbag5
(g6
g7
(lp4262
g5
(g6
g7
(lp4263
Vas
p4264
atp4265
Rp4266
(dp4267
g17
VRB
p4268
sbag5
(g6
g7
(lp4269
Vwell
p4270
atp4271
Rp4272
(dp4273
g17
VRB
p4274
sbag5
(g6
g7
(lp4275
Vas
p4276
atp4277
Rp4278
(dp4279
g17
VIN
p4280
sbatp4281
Rp4282
(dp4283
g17
VCONJP
p4284
sbag5
(g6
g7
(lp4285
Vunlabeled
p4286
atp4287
Rp4288
(dp4289
g17
VJJ
p4290
sbatp4291
Rp4292
(dp4293
g17
VADJP
p4294
sbag5
(g6
g7
(lp4295
Vtarget
p4296
atp4297
Rp4298
(dp4299
g17
VNN
p4300
sbag5
(g6
g7
(lp4301
Vdata
p4302
atp4303
Rp4304
(dp4305
g17
VNN
p4306
sbatp4307
Rp4308
(dp4309
g17
VNP
p4310
sbatp4311
Rp4312
(dp4313
g17
VNP
p4314
sbatp4315
Rp4316
(dp4317
g17
VVP
p4318
sbatp4319
Rp4320
(dp4321
g17
VVP
p4322
sbatp4323
Rp4324
(dp4325
g17
g210
sbatp4326
Rp4327
(dp4328
g17
VSBAR
p4329
sbatp4330
Rp4331
(dp4332
g17
VVP
p4333
sbatp4334
Rp4335
(dp4336
g17
g210
sbatp4337
Rp4338
(dp4339
g17
VROOT
p4340
sbasg245
(icmyPackage
CorE
p4341
(dp4342
g248
(lp4343
(I0
I9
tp4344
a(I1
I31
tp4345
asg252
g5
(g6
g7
(lp4346
g3964
ag4023
ag4338
atp4347
Rp4348
(dp4349
g17
g263
sbsbsg253
(icmyPackage
CorE
p4350
(dp4351
g248
(lp4352
(I0
I0
tp4353
a(I0
I7
tp4354
asg252
g5
(g6
g7
(lp4355
g3865
ag3870
ag3886
ag3893
ag3900
ag3907
ag3918
atp4356
Rp4357
(dp4358
g17
g263
sbsbsg264
g1677
sg287
(lp4359
(isxpPackage
sxpSent
p4360
(dp4361
g291
(lp4362
I11
asg293
VEventually, regularization methods can be considered naturally as a simple yet general technique to cope with DA problems
p4363
sg295
I3
sg280
I30
sg296
I8
sba(isxpPackage
sxpSent
p4364
(dp4365
g291
(lp4366
I11
asg293
VFollowing Plank and Moschitti [ Plank and Moschitti2013 ] , we assume that we only have labeled data in a single source domain but no labeled as well as unlabeled target data
p4367
sg295
I3
sg280
I31
sg296
I9
sbasba(icmyPackage
CELink
p4368
(dp4369
g3
(lp4370
g5
(g6
g7
(lp4371
g5
(g6
g7
(lp4372
g5
(g6
g7
(lp4373
g5
(g6
g7
(lp4374
VFinally
p4375
atp4376
Rp4377
(dp4378
g17
VRB
p4379
sbatp4380
Rp4381
(dp4382
g17
VADVP
p4383
sbag5
(g6
g7
(lp4384
g349
atp4385
Rp4386
(dp4387
g17
g349
sbag5
(g6
g7
(lp4388
g5
(g6
g7
(lp4389
Vdue
p4390
atp4391
Rp4392
(dp4393
g17
VJJ
p4394
sbag5
(g6
g7
(lp4395
Vto
p4396
atp4397
Rp4398
(dp4399
g17
VTO
p4400
sbag5
(g6
g7
(lp4401
g5
(g6
g7
(lp4402
Vthis
p4403
atp4404
Rp4405
(dp4406
g17
VDT
p4407
sbag5
(g6
g7
(lp4408
Vsetting
p4409
atp4410
Rp4411
(dp4412
g17
VNN
p4413
sbatp4414
Rp4415
(dp4416
g17
VNP
p4417
sbatp4418
Rp4419
(dp4420
g17
VPP
p4421
sbag5
(g6
g7
(lp4422
g349
atp4423
Rp4424
(dp4425
g17
g349
sbag5
(g6
g7
(lp4426
g5
(g6
g7
(lp4427
g5
(g6
g7
(lp4428
Vthe
p4429
atp4430
Rp4431
(dp4432
g17
VDT
p4433
sbag5
(g6
g7
(lp4434
Vbest
p4435
atp4436
Rp4437
(dp4438
g17
VJJS
p4439
sbag5
(g6
g7
(lp4440
Vway
p4441
atp4442
Rp4443
(dp4444
g17
VNN
p4445
sbatp4446
Rp4447
(dp4448
g17
VNP
p4449
sbag5
(g6
g7
(lp4450
g5
(g6
g7
(lp4451
g5
(g6
g7
(lp4452
g5
(g6
g7
(lp4453
Vto
p4454
atp4455
Rp4456
(dp4457
g17
VTO
p4458
sbag5
(g6
g7
(lp4459
g5
(g6
g7
(lp4460
Vset
p4461
atp4462
Rp4463
(dp4464
g17
VVB
p4465
sbag5
(g6
g7
(lp4466
g5
(g6
g7
(lp4467
Vup
p4468
atp4469
Rp4470
(dp4471
g17
VRP
p4472
sbatp4473
Rp4474
(dp4475
g17
VPRT
p4476
sbag5
(g6
g7
(lp4477
g5
(g6
g7
(lp4478
Vthe
p4479
atp4480
Rp4481
(dp4482
g17
VDT
p4483
sbag5
(g6
g7
(lp4484
Vregularization
p4485
atp4486
Rp4487
(dp4488
g17
VNN
p4489
sbag5
(g6
g7
(lp4490
Vparameter
p4491
atp4492
Rp4493
(dp4494
g17
VNN
p4495
sbatp4496
Rp4497
(dp4498
g17
VNP
p4499
sbatp4500
Rp4501
(dp4502
g17
VVP
p4503
sbatp4504
Rp4505
(dp4506
g17
VVP
p4507
sbatp4508
Rp4509
(dp4510
g17
g210
sbatp4511
Rp4512
(dp4513
g17
VSBAR
p4514
sbatp4515
Rp4516
(dp4517
g17
VNP
p4518
sbag5
(g6
g7
(lp4519
g5
(g6
g7
(lp4520
Vis
p4521
atp4522
Rp4523
(dp4524
g17
VVBZ
p4525
sbag5
(g6
g7
(lp4526
g5
(g6
g7
(lp4527
g5
(g6
g7
(lp4528
Vto
p4529
atp4530
Rp4531
(dp4532
g17
VTO
p4533
sbag5
(g6
g7
(lp4534
g5
(g6
g7
(lp4535
Vimpose
p4536
atp4537
Rp4538
(dp4539
g17
VVB
p4540
sbag5
(g6
g7
(lp4541
g5
(g6
g7
(lp4542
Vthe
p4543
atp4544
Rp4545
(dp4546
g17
VDT
p4547
sbag5
(g6
g7
(lp4548
Vsame
p4549
atp4550
Rp4551
(dp4552
g17
VJJ
p4553
sbag5
(g6
g7
(lp4554
Vregularization
p4555
atp4556
Rp4557
(dp4558
g17
VNN
p4559
sbag5
(g6
g7
(lp4560
Vparameter
p4561
atp4562
Rp4563
(dp4564
g17
VNN
p4565
sbatp4566
Rp4567
(dp4568
g17
VNP
p4569
sbag5
(g6
g7
(lp4570
g5
(g6
g7
(lp4571
Von
p4572
atp4573
Rp4574
(dp4575
g17
VIN
p4576
sbag5
(g6
g7
(lp4577
g5
(g6
g7
(lp4578
g5
(g6
g7
(lp4579
Vevery
p4580
atp4581
Rp4582
(dp4583
g17
VDT
p4584
sbag5
(g6
g7
(lp4585
Vfeature
p4586
atp4587
Rp4588
(dp4589
g17
VNN
p4590
sbatp4591
Rp4592
(dp4593
g17
VNP
p4594
sbag5
(g6
g7
(lp4595
g5
(g6
g7
(lp4596
Vrather
p4597
atp4598
Rp4599
(dp4600
g17
VRB
p4601
sbag5
(g6
g7
(lp4602
Vthan
p4603
atp4604
Rp4605
(dp4606
g17
VIN
p4607
sbatp4608
Rp4609
(dp4610
g17
VCONJP
p4611
sbag5
(g6
g7
(lp4612
g5
(g6
g7
(lp4613
g1508
atp4614
Rp4615
(dp4616
g17
VDT
p4617
sbag5
(g6
g7
(lp4618
Vskewed
p4619
atp4620
Rp4621
(dp4622
g17
VNNP
p4623
sbag5
(g6
g7
(lp4624
Vregularization
p4625
atp4626
Rp4627
(dp4628
g17
VNNP
p4629
sbag5
(g6
g7
(lp4630
V-LSB-
p4631
atp4632
Rp4633
(dp4634
g17
VNNP
p4635
sbag5
(g6
g7
(lp4636
VJiang
p4637
atp4638
Rp4639
(dp4640
g17
VNNP
p4641
sbag5
(g6
g7
(lp4642
Vand
p4643
atp4644
Rp4645
(dp4646
g17
VCC
p4647
sbag5
(g6
g7
(lp4648
VZhai2007b
p4649
atp4650
Rp4651
(dp4652
g17
VNNP
p4653
sbag5
(g6
g7
(lp4654
V-RSB-
p4655
atp4656
Rp4657
(dp4658
g17
VNNP
p4659
sbatp4660
Rp4661
(dp4662
g17
VNP
p4663
sbatp4664
Rp4665
(dp4666
g17
VNP
p4667
sbatp4668
Rp4669
(dp4670
g17
VPP
p4671
sbatp4672
Rp4673
(dp4674
g17
VVP
p4675
sbatp4676
Rp4677
(dp4678
g17
VVP
p4679
sbatp4680
Rp4681
(dp4682
g17
g210
sbatp4683
Rp4684
(dp4685
g17
VVP
p4686
sbatp4687
Rp4688
(dp4689
g17
g210
sbatp4690
Rp4691
(dp4692
g17
VROOT
p4693
sbasg245
(icmyPackage
CorE
p4694
(dp4695
g248
(lp4696
(I0
I4
tp4697
a(I0
I5
tp4698
asg252
g4415
sbsg253
(icmyPackage
CorE
p4699
(dp4700
g248
(lp4701
(I0
I7
tp4702
a(I0
I35
tp4703
asg252
g5
(g6
g7
(lp4704
g4516
ag4684
atp4705
Rp4706
(dp4707
g17
g263
sbsbsg264
(icmyPackage
pattern
p4708
(dp4709
g267
I0
sg268
I0
sg269
(lp4710
(lp4711
S'due'
p4712
aS'to'
p4713
aasg275
(lp4714
I2
aI1
aI1
asg277
(lp4715
S'Due to limitations in size and legal rules, our efforts did not blossom'
p4716
asg280
I71
sg281
(lp4717
(lp4718
a(lp4719
S'&NP@C@'
p4720
aS'(,)'
p4721
aS'&R'
p4722
aasbsg287
(lp4723
(isxpPackage
sxpSent
p4724
(dp4725
g291
(lp4726
I12
asg293
VFinally, due to this setting, the best way to set up the regularization parameter is to impose the same regularization parameter on every feature rather than a skewed regularization [ Jiang and Zhai2007b ]
p4727
sg295
I3
sg280
I36
sg296
I9
sbasba(icmyPackage
CELink
p4728
(dp4729
g3
(lp4730
g5
(g6
g7
(lp4731
g5
(g6
g7
(lp4732
g5
(g6
g7
(lp4733
g5
(g6
g7
(lp4734
g5
(g6
g7
(lp4735
V-LSB-
p4736
atp4737
Rp4738
(dp4739
g17
VNNP
p4740
sbag5
(g6
g7
(lp4741
VSocher
p4742
atp4743
Rp4744
(dp4745
g17
VNNP
p4746
sbag5
(g6
g7
(lp4747
Vet
p4748
atp4749
Rp4750
(dp4751
g17
VCC
p4752
sbag5
(g6
g7
(lp4753
Val.
p4754
atp4755
Rp4756
(dp4757
g17
VNNP
p4758
sbag5
(g6
g7
(lp4759
V2012
p4760
atp4761
Rp4762
(dp4763
g17
VCD
p4764
sbag5
(g6
g7
(lp4765
V-RSB-
p4766
atp4767
Rp4768
(dp4769
g17
VNNP
p4770
sbatp4771
Rp4772
(dp4773
g17
VNP
p4774
sbag5
(g6
g7
(lp4775
Vand
p4776
atp4777
Rp4778
(dp4779
g17
VCC
p4780
sbag5
(g6
g7
(lp4781
g5
(g6
g7
(lp4782
VKhashabi
p4783
atp4784
Rp4785
(dp4786
g17
VNNP
p4787
sbag5
(g6
g7
(lp4788
V-LSB-
p4789
atp4790
Rp4791
(dp4792
g17
VNNP
p4793
sbag5
(g6
g7
(lp4794
VKhashabi2013
p4795
atp4796
Rp4797
(dp4798
g17
VNNP
p4799
sbag5
(g6
g7
(lp4800
V-RSB-
p4801
atp4802
Rp4803
(dp4804
g17
VNNP
p4805
sbatp4806
Rp4807
(dp4808
g17
VNP
p4809
sbatp4810
Rp4811
(dp4812
g17
VNP
p4813
sbag5
(g6
g7
(lp4814
g5
(g6
g7
(lp4815
Vuse
p4816
atp4817
Rp4818
(dp4819
g17
VVBP
p4820
sbag5
(g6
g7
(lp4821
g5
(g6
g7
(lp4822
Vpre-trained
p4823
atp4824
Rp4825
(dp4826
g17
VJJ
p4827
sbag5
(g6
g7
(lp4828
Vword
p4829
atp4830
Rp4831
(dp4832
g17
VNN
p4833
sbag5
(g6
g7
(lp4834
Vembeddings
p4835
atp4836
Rp4837
(dp4838
g17
VNNS
p4839
sbatp4840
Rp4841
(dp4842
g17
VNP
p4843
sbag5
(g6
g7
(lp4844
g5
(g6
g7
(lp4845
Vas
p4846
atp4847
Rp4848
(dp4849
g17
VIN
p4850
sbag5
(g6
g7
(lp4851
g5
(g6
g7
(lp4852
g5
(g6
g7
(lp4853
Vinput
p4854
atp4855
Rp4856
(dp4857
g17
VNN
p4858
sbatp4859
Rp4860
(dp4861
g17
VNP
p4862
sbag5
(g6
g7
(lp4863
g5
(g6
g7
(lp4864
Vfor
p4865
atp4866
Rp4867
(dp4868
g17
VIN
p4869
sbag5
(g6
g7
(lp4870
g5
(g6
g7
(lp4871
g5
(g6
g7
(lp4872
VMatrix-Vector
p4873
atp4874
Rp4875
(dp4876
g17
VNNP
p4877
sbag5
(g6
g7
(lp4878
VRecursive
p4879
atp4880
Rp4881
(dp4882
g17
VNNP
p4883
sbag5
(g6
g7
(lp4884
VNeural
p4885
atp4886
Rp4887
(dp4888
g17
VNNP
p4889
sbag5
(g6
g7
(lp4890
VNetworks
p4891
atp4892
Rp4893
(dp4894
g17
VNNPS
p4895
sbatp4896
Rp4897
(dp4898
g17
VNP
p4899
sbag5
(g6
g7
(lp4900
g5
(g6
g7
(lp4901
V-LRB-
p4902
atp4903
Rp4904
(dp4905
g17
V-LRB-
p4906
sbag5
(g6
g7
(lp4907
g5
(g6
g7
(lp4908
VMV-RNN
p4909
atp4910
Rp4911
(dp4912
g17
VNNP
p4913
sbatp4914
Rp4915
(dp4916
g17
VNP
p4917
sbag5
(g6
g7
(lp4918
V-RRB-
p4919
atp4920
Rp4921
(dp4922
g17
V-RRB-
p4923
sbatp4924
Rp4925
(dp4926
g17
VPRN
p4927
sbatp4928
Rp4929
(dp4930
g17
VNP
p4931
sbatp4932
Rp4933
(dp4934
g17
VPP
p4935
sbatp4936
Rp4937
(dp4938
g17
VNP
p4939
sbatp4940
Rp4941
(dp4942
g17
VPP
p4943
sbag5
(g6
g7
(lp4944
g5
(g6
g7
(lp4945
g5
(g6
g7
(lp4946
Vto
p4947
atp4948
Rp4949
(dp4950
g17
VTO
p4951
sbag5
(g6
g7
(lp4952
g5
(g6
g7
(lp4953
Vlearn
p4954
atp4955
Rp4956
(dp4957
g17
VVB
p4958
sbag5
(g6
g7
(lp4959
g5
(g6
g7
(lp4960
Vcompositional
p4961
atp4962
Rp4963
(dp4964
g17
VJJ
p4965
sbag5
(g6
g7
(lp4966
Vstructures
p4967
atp4968
Rp4969
(dp4970
g17
VNNS
p4971
sbatp4972
Rp4973
(dp4974
g17
VNP
p4975
sbag5
(g6
g7
(lp4976
g5
(g6
g7
(lp4977
Vfor
p4978
atp4979
Rp4980
(dp4981
g17
VIN
p4982
sbag5
(g6
g7
(lp4983
g5
(g6
g7
(lp4984
VRE
p4985
atp4986
Rp4987
(dp4988
g17
VNNP
p4989
sbatp4990
Rp4991
(dp4992
g17
VNP
p4993
sbatp4994
Rp4995
(dp4996
g17
VPP
p4997
sbatp4998
Rp4999
(dp5000
g17
VVP
p5001
sbatp5002
Rp5003
(dp5004
g17
VVP
p5005
sbatp5006
Rp5007
(dp5008
g17
g210
sbatp5009
Rp5010
(dp5011
g17
VVP
p5012
sbatp5013
Rp5014
(dp5015
g17
g210
sbatp5016
Rp5017
(dp5018
g17
VROOT
p5019
sbag5
(g6
g7
(lp5020
g5
(g6
g7
(lp5021
g5
(g6
g7
(lp5022
g5
(g6
g7
(lp5023
VHowever
p5024
atp5025
Rp5026
(dp5027
g17
VRB
p5028
sbatp5029
Rp5030
(dp5031
g17
VADVP
p5032
sbag5
(g6
g7
(lp5033
g349
atp5034
Rp5035
(dp5036
g17
g349
sbag5
(g6
g7
(lp5037
g5
(g6
g7
(lp5038
g5
(g6
g7
(lp5039
Vnone
p5040
atp5041
Rp5042
(dp5043
g17
VNN
p5044
sbatp5045
Rp5046
(dp5047
g17
VNP
p5048
sbag5
(g6
g7
(lp5049
g5
(g6
g7
(lp5050
Vof
p5051
atp5052
Rp5053
(dp5054
g17
VIN
p5055
sbag5
(g6
g7
(lp5056
g5
(g6
g7
(lp5057
Vthese
p5058
atp5059
Rp5060
(dp5061
g17
VDT
p5062
sbatp5063
Rp5064
(dp5065
g17
VNP
p5066
sbatp5067
Rp5068
(dp5069
g17
VPP
p5070
sbatp5071
Rp5072
(dp5073
g17
VNP
p5074
sbag5
(g6
g7
(lp5075
g5
(g6
g7
(lp5076
Vworks
p5077
atp5078
Rp5079
(dp5080
g17
VVBZ
p5081
sbag5
(g6
g7
(lp5082
g5
(g6
g7
(lp5083
Vevaluate
p5084
atp5085
Rp5086
(dp5087
g17
VVB
p5088
sbag5
(g6
g7
(lp5089
g5
(g6
g7
(lp5090
Vword
p5091
atp5092
Rp5093
(dp5094
g17
VNN
p5095
sbag5
(g6
g7
(lp5096
Vembeddings
p5097
atp5098
Rp5099
(dp5100
g17
VNNS
p5101
sbatp5102
Rp5103
(dp5104
g17
VNP
p5105
sbag5
(g6
g7
(lp5106
g5
(g6
g7
(lp5107
Vfor
p5108
atp5109
Rp5110
(dp5111
g17
VIN
p5112
sbag5
(g6
g7
(lp5113
g5
(g6
g7
(lp5114
g5
(g6
g7
(lp5115
Vdomain
p5116
atp5117
Rp5118
(dp5119
g17
VNN
p5120
sbag5
(g6
g7
(lp5121
Vadaptation
p5122
atp5123
Rp5124
(dp5125
g17
VNN
p5126
sbatp5127
Rp5128
(dp5129
g17
VNP
p5130
sbag5
(g6
g7
(lp5131
g5
(g6
g7
(lp5132
Vof
p5133
atp5134
Rp5135
(dp5136
g17
VIN
p5137
sbag5
(g6
g7
(lp5138
g5
(g6
g7
(lp5139
VRE
p5140
atp5141
Rp5142
(dp5143
g17
VNNP
p5144
sbatp5145
Rp5146
(dp5147
g17
VNP
p5148
sbatp5149
Rp5150
(dp5151
g17
VPP
p5152
sbag5
(g6
g7
(lp5153
g5
(g6
g7
(lp5154
g5
(g6
g7
(lp5155
Vwhich
p5156
atp5157
Rp5158
(dp5159
g17
VWDT
p5160
sbatp5161
Rp5162
(dp5163
g17
VWHNP
p5164
sbag5
(g6
g7
(lp5165
g5
(g6
g7
(lp5166
g5
(g6
g7
(lp5167
Vis
p5168
atp5169
Rp5170
(dp5171
g17
VVBZ
p5172
sbag5
(g6
g7
(lp5173
g5
(g6
g7
(lp5174
g5
(g6
g7
(lp5175
Vour
p5176
atp5177
Rp5178
(dp5179
g17
VPRP$
p5180
sbag5
(g6
g7
(lp5181
Vmain
p5182
atp5183
Rp5184
(dp5185
g17
VJJ
p5186
sbag5
(g6
g7
(lp5187
Vfocus
p5188
atp5189
Rp5190
(dp5191
g17
VNN
p5192
sbatp5193
Rp5194
(dp5195
g17
VNP
p5196
sbag5
(g6
g7
(lp5197
g5
(g6
g7
(lp5198
Vin
p5199
atp5200
Rp5201
(dp5202
g17
VIN
p5203
sbag5
(g6
g7
(lp5204
g5
(g6
g7
(lp5205
Vthis
p5206
atp5207
Rp5208
(dp5209
g17
VDT
p5210
sbag5
(g6
g7
(lp5211
Vpaper
p5212
atp5213
Rp5214
(dp5215
g17
VNN
p5216
sbatp5217
Rp5218
(dp5219
g17
VNP
p5220
sbatp5221
Rp5222
(dp5223
g17
VPP
p5224
sbatp5225
Rp5226
(dp5227
g17
VNP
p5228
sbatp5229
Rp5230
(dp5231
g17
VVP
p5232
sbatp5233
Rp5234
(dp5235
g17
g210
sbatp5236
Rp5237
(dp5238
g17
VSBAR
p5239
sbatp5240
Rp5241
(dp5242
g17
VNP
p5243
sbatp5244
Rp5245
(dp5246
g17
VPP
p5247
sbatp5248
Rp5249
(dp5250
g17
VVP
p5251
sbatp5252
Rp5253
(dp5254
g17
VVP
p5255
sbatp5256
Rp5257
(dp5258
g17
g210
sbatp5259
Rp5260
(dp5261
g17
VROOT
p5262
sbasg245
(icmyPackage
CorE
p5263
(dp5264
g248
(lp5265
(I0
I16
tp5266
a(I1
I21
tp5267
asg252
g5
(g6
g7
(lp5268
g4937
ag5007
ag5260
atp5269
Rp5270
(dp5271
g17
g263
sbsbsg253
(icmyPackage
CorE
p5272
(dp5273
g248
(lp5274
(I0
I0
tp5275
a(I0
I14
tp5276
asg252
g5
(g6
g7
(lp5277
g4811
ag4818
ag4841
atp5278
Rp5279
(dp5280
g17
g263
sbsbsg264
g1677
sg287
(lp5281
(isxpPackage
sxpSent
p5282
(dp5283
g291
(lp5284
I13
asg293
V[ Socher et al.2012 ] and Khashabi [ Khashabi2013 ] use pre-trained word embeddings as input for Matrix-Vector Recursive Neural Networks (MV-RNN) to learn compositional structures for RE
p5285
sg295
I4
sg280
I41
sg296
I10
sba(isxpPackage
sxpSent
p5286
(dp5287
g291
(lp5288
I13
asg293
VHowever, none of these works evaluate word embeddings for domain adaptation of RE which is our main focus in this paper
p5289
sg295
I4
sg280
I42
sg296
I10
sbasba(icmyPackage
CELink
p5290
(dp5291
g3
(lp5292
g5
(g6
g7
(lp5293
g5
(g6
g7
(lp5294
g5
(g6
g7
(lp5295
g5
(g6
g7
(lp5296
V-LSB-
p5297
atp5298
Rp5299
(dp5300
g17
VNNP
p5301
sbag5
(g6
g7
(lp5302
VBlitzer
p5303
atp5304
Rp5305
(dp5306
g17
VNNP
p5307
sbag5
(g6
g7
(lp5308
Vet
p5309
atp5310
Rp5311
(dp5312
g17
VCC
p5313
sbag5
(g6
g7
(lp5314
Val.
p5315
atp5316
Rp5317
(dp5318
g17
VNNP
p5319
sbag5
(g6
g7
(lp5320
V2006
p5321
atp5322
Rp5323
(dp5324
g17
VNNPS
p5325
sbag5
(g6
g7
(lp5326
V-RSB-
p5327
atp5328
Rp5329
(dp5330
g17
VNNP
p5331
sbatp5332
Rp5333
(dp5334
g17
VNP
p5335
sbag5
(g6
g7
(lp5336
g5
(g6
g7
(lp5337
Vpropose
p5338
atp5339
Rp5340
(dp5341
g17
VVBP
p5342
sbag5
(g6
g7
(lp5343
g5
(g6
g7
(lp5344
g5
(g6
g7
(lp5345
Vstructural
p5346
atp5347
Rp5348
(dp5349
g17
VJJ
p5350
sbag5
(g6
g7
(lp5351
Vcorrespondence
p5352
atp5353
Rp5354
(dp5355
g17
VNN
p5356
sbag5
(g6
g7
(lp5357
Vlearning
p5358
atp5359
Rp5360
(dp5361
g17
VNN
p5362
sbatp5363
Rp5364
(dp5365
g17
VNP
p5366
sbag5
(g6
g7
(lp5367
g5
(g6
g7
(lp5368
V-LRB-
p5369
atp5370
Rp5371
(dp5372
g17
V-LRB-
p5373
sbag5
(g6
g7
(lp5374
g5
(g6
g7
(lp5375
VSCL
p5376
atp5377
Rp5378
(dp5379
g17
VNNP
p5380
sbatp5381
Rp5382
(dp5383
g17
VNP
p5384
sbag5
(g6
g7
(lp5385
V-RRB-
p5386
atp5387
Rp5388
(dp5389
g17
V-RRB-
p5390
sbatp5391
Rp5392
(dp5393
g17
VPRN
p5394
sbag5
(g6
g7
(lp5395
g5
(g6
g7
(lp5396
Vwhile
p5397
atp5398
Rp5399
(dp5400
g17
VIN
p5401
sbag5
(g6
g7
(lp5402
g5
(g6
g7
(lp5403
g5
(g6
g7
(lp5404
VHuang
p5405
atp5406
Rp5407
(dp5408
g17
VNNP
p5409
sbag5
(g6
g7
(lp5410
Vand
p5411
atp5412
Rp5413
(dp5414
g17
VCC
p5415
sbag5
(g6
g7
(lp5416
VYates
p5417
atp5418
Rp5419
(dp5420
g17
VNNP
p5421
sbag5
(g6
g7
(lp5422
V-LSB-
p5423
atp5424
Rp5425
(dp5426
g17
VNNP
p5427
sbag5
(g6
g7
(lp5428
VHuang
p5429
atp5430
Rp5431
(dp5432
g17
VNNP
p5433
sbag5
(g6
g7
(lp5434
Vand
p5435
atp5436
Rp5437
(dp5438
g17
VCC
p5439
sbag5
(g6
g7
(lp5440
VYates2010
p5441
atp5442
Rp5443
(dp5444
g17
VNNP
p5445
sbag5
(g6
g7
(lp5446
V-RSB-
p5447
atp5448
Rp5449
(dp5450
g17
VNNP
p5451
sbatp5452
Rp5453
(dp5454
g17
VNP
p5455
sbag5
(g6
g7
(lp5456
g5
(g6
g7
(lp5457
Vattempt
p5458
atp5459
Rp5460
(dp5461
g17
VVBP
p5462
sbag5
(g6
g7
(lp5463
g5
(g6
g7
(lp5464
g5
(g6
g7
(lp5465
Vto
p5466
atp5467
Rp5468
(dp5469
g17
VTO
p5470
sbag5
(g6
g7
(lp5471
g5
(g6
g7
(lp5472
Vlearn
p5473
atp5474
Rp5475
(dp5476
g17
VVB
p5477
sbag5
(g6
g7
(lp5478
g5
(g6
g7
(lp5479
g1508
atp5480
Rp5481
(dp5482
g17
VDT
p5483
sbag5
(g6
g7
(lp5484
Vmulti-dimensional
p5485
atp5486
Rp5487
(dp5488
g17
VJJ
p5489
sbag5
(g6
g7
(lp5490
Vfeature
p5491
atp5492
Rp5493
(dp5494
g17
VNN
p5495
sbag5
(g6
g7
(lp5496
Vrepresentation
p5497
atp5498
Rp5499
(dp5500
g17
VNN
p5501
sbatp5502
Rp5503
(dp5504
g17
VNP
p5505
sbatp5506
Rp5507
(dp5508
g17
VVP
p5509
sbatp5510
Rp5511
(dp5512
g17
VVP
p5513
sbatp5514
Rp5515
(dp5516
g17
g210
sbatp5517
Rp5518
(dp5519
g17
VVP
p5520
sbatp5521
Rp5522
(dp5523
g17
g210
sbatp5524
Rp5525
(dp5526
g17
VSBAR
p5527
sbatp5528
Rp5529
(dp5530
g17
VNP
p5531
sbatp5532
Rp5533
(dp5534
g17
VVP
p5535
sbatp5536
Rp5537
(dp5538
g17
g210
sbatp5539
Rp5540
(dp5541
g17
VROOT
p5542
sbag5
(g6
g7
(lp5543
g5
(g6
g7
(lp5544
g5
(g6
g7
(lp5545
g5
(g6
g7
(lp5546
VUnfortunately
p5547
atp5548
Rp5549
(dp5550
g17
VRB
p5551
sbatp5552
Rp5553
(dp5554
g17
VADVP
p5555
sbag5
(g6
g7
(lp5556
g349
atp5557
Rp5558
(dp5559
g17
g349
sbag5
(g6
g7
(lp5560
g5
(g6
g7
(lp5561
Vthese
p5562
atp5563
Rp5564
(dp5565
g17
VDT
p5566
sbag5
(g6
g7
(lp5567
Vmethods
p5568
atp5569
Rp5570
(dp5571
g17
VNNS
p5572
sbatp5573
Rp5574
(dp5575
g17
VNP
p5576
sbag5
(g6
g7
(lp5577
g5
(g6
g7
(lp5578
Vrequire
p5579
atp5580
Rp5581
(dp5582
g17
VVBP
p5583
sbag5
(g6
g7
(lp5584
g5
(g6
g7
(lp5585
g5
(g6
g7
(lp5586
Vunlabeled
p5587
atp5588
Rp5589
(dp5590
g17
VJJ
p5591
sbag5
(g6
g7
(lp5592
Vtarget
p5593
atp5594
Rp5595
(dp5596
g17
VNN
p5597
sbag5
(g6
g7
(lp5598
Vdomain
p5599
atp5600
Rp5601
(dp5602
g17
VNN
p5603
sbag5
(g6
g7
(lp5604
Vdata
p5605
atp5606
Rp5607
(dp5608
g17
VNNS
p5609
sbatp5610
Rp5611
(dp5612
g17
VNP
p5613
sbag5
(g6
g7
(lp5614
g5
(g6
g7
(lp5615
g5
(g6
g7
(lp5616
Vwhich
p5617
atp5618
Rp5619
(dp5620
g17
VWDT
p5621
sbatp5622
Rp5623
(dp5624
g17
VWHNP
p5625
sbag5
(g6
g7
(lp5626
g5
(g6
g7
(lp5627
g5
(g6
g7
(lp5628
Vare
p5629
atp5630
Rp5631
(dp5632
g17
VVBP
p5633
sbag5
(g6
g7
(lp5634
g5
(g6
g7
(lp5635
Vunavailable
p5636
atp5637
Rp5638
(dp5639
g17
VJJ
p5640
sbag5
(g6
g7
(lp5641
g5
(g6
g7
(lp5642
Vin
p5643
atp5644
Rp5645
(dp5646
g17
VIN
p5647
sbag5
(g6
g7
(lp5648
g5
(g6
g7
(lp5649
g5
(g6
g7
(lp5650
Vour
p5651
atp5652
Rp5653
(dp5654
g17
VPRP$
p5655
sbag5
(g6
g7
(lp5656
Vsingle-system
p5657
atp5658
Rp5659
(dp5660
g17
VJJ
p5661
sbag5
(g6
g7
(lp5662
Vsetting
p5663
atp5664
Rp5665
(dp5666
g17
VNN
p5667
sbatp5668
Rp5669
(dp5670
g17
VNP
p5671
sbag5
(g6
g7
(lp5672
g5
(g6
g7
(lp5673
Vof
p5674
atp5675
Rp5676
(dp5677
g17
VIN
p5678
sbag5
(g6
g7
(lp5679
g5
(g6
g7
(lp5680
VDA
p5681
atp5682
Rp5683
(dp5684
g17
VNNP
p5685
sbatp5686
Rp5687
(dp5688
g17
VNP
p5689
sbatp5690
Rp5691
(dp5692
g17
VPP
p5693
sbatp5694
Rp5695
(dp5696
g17
VNP
p5697
sbatp5698
Rp5699
(dp5700
g17
VPP
p5701
sbatp5702
Rp5703
(dp5704
g17
VADJP
p5705
sbatp5706
Rp5707
(dp5708
g17
VVP
p5709
sbatp5710
Rp5711
(dp5712
g17
g210
sbatp5713
Rp5714
(dp5715
g17
VSBAR
p5716
sbatp5717
Rp5718
(dp5719
g17
VNP
p5720
sbatp5721
Rp5722
(dp5723
g17
VVP
p5724
sbatp5725
Rp5726
(dp5727
g17
g210
sbatp5728
Rp5729
(dp5730
g17
VROOT
p5731
sbasg245
(icmyPackage
CorE
p5732
(dp5733
g248
(lp5734
(I1
I5
tp5735
a(I1
I17
tp5736
asg252
g5718
sbsg253
(icmyPackage
CorE
p5737
(dp5738
g248
(lp5739
(I0
I1
tp5740
a(I1
I0
tp5741
asg252
g5
(g6
g7
(lp5742
g5305
ag5311
ag5317
ag5323
ag5329
ag5533
ag5553
atp5743
Rp5744
(dp5745
g17
g263
sbsbsg264
(icmyPackage
pattern
p5746
(dp5747
g267
I0
sg268
I1
sg269
(lp5748
(lp5749
(lp5750
S'concern'
p5751
aS'concerns'
p5752
aS'concerned'
p5753
aS'require'
p5754
aS'requires'
p5755
aS'required'
p5756
aS'request'
p5757
aS'requests'
p5758
aS'requested'
p5759
aaasg275
(lp5760
I4
aI1
aI1
asg277
(lp5761
S'For example, this enables e-learning systems to capture student behaviors during studying so that leaning materials and processes can be organized and adapted in real time to raise the effectiveness of study. This concerns the classification on students\xe2\x80\x99 behaviors (including micro expressions) and carrying out real-time analysis and adaptation.'
p5762
asg280
I90
sg281
(lp5763
(lp5764
S'&R'
p5765
aS'(,/./;/--)'
p5766
aS'&this'
p5767
aS'(&adj)'
p5768
aS'(&N)'
p5769
aS'(&CAN/have/has/had)'
p5770
aS'(&ADV)'
p5771
aa(lp5772
S'(about)'
p5773
aS'&V-ing/&NP@C@'
p5774
aasbsg287
(lp5775
(isxpPackage
sxpSent
p5776
(dp5777
g291
(lp5778
I14
asg293
V[ Blitzer et al.2006 ] propose structural correspondence learning (SCL) while Huang and Yates [ Huang and Yates2010 ] attempt to learn a multi-dimensional feature representation
p5779
sg295
I4
sg280
I44
sg296
I11
sba(isxpPackage
sxpSent
p5780
(dp5781
g291
(lp5782
I14
asg293
VUnfortunately, these methods require unlabeled target domain data which are unavailable in our single-system setting of DA
p5783
sg295
I4
sg280
I45
sg296
I11
sbasba(icmyPackage
CELink
p5784
(dp5785
g3
(lp5786
g5
(g6
g7
(lp5787
g5
(g6
g7
(lp5788
g5
(g6
g7
(lp5789
g5
(g6
g7
(lp5790
VHowever
p5791
atp5792
Rp5793
(dp5794
g17
VRB
p5795
sbatp5796
Rp5797
(dp5798
g17
VADVP
p5799
sbag5
(g6
g7
(lp5800
g349
atp5801
Rp5802
(dp5803
g17
g349
sbag5
(g6
g7
(lp5804
g5
(g6
g7
(lp5805
Vthese
p5806
atp5807
Rp5808
(dp5809
g17
VDT
p5810
sbag5
(g6
g7
(lp5811
Vmethods
p5812
atp5813
Rp5814
(dp5815
g17
VNNS
p5816
sbatp5817
Rp5818
(dp5819
g17
VNP
p5820
sbag5
(g6
g7
(lp5821
g5
(g6
g7
(lp5822
Vassume
p5823
atp5824
Rp5825
(dp5826
g17
VVBP
p5827
sbag5
(g6
g7
(lp5828
g5
(g6
g7
(lp5829
g5
(g6
g7
(lp5830
g5
(g6
g7
(lp5831
Vsome
p5832
atp5833
Rp5834
(dp5835
g17
VDT
p5836
sbatp5837
Rp5838
(dp5839
g17
VNP
p5840
sbag5
(g6
g7
(lp5841
g5
(g6
g7
(lp5842
g5
(g6
g7
(lp5843
Vlabeled
p5844
atp5845
Rp5846
(dp5847
g17
VVBD
p5848
sbag5
(g6
g7
(lp5849
g5
(g6
g7
(lp5850
Vdata
p5851
atp5852
Rp5853
(dp5854
g17
VNNS
p5855
sbatp5856
Rp5857
(dp5858
g17
VNP
p5859
sbag5
(g6
g7
(lp5860
g5
(g6
g7
(lp5861
Vin
p5862
atp5863
Rp5864
(dp5865
g17
VIN
p5866
sbag5
(g6
g7
(lp5867
g5
(g6
g7
(lp5868
Vtarget
p5869
atp5870
Rp5871
(dp5872
g17
VNN
p5873
sbag5
(g6
g7
(lp5874
Vdomains
p5875
atp5876
Rp5877
(dp5878
g17
VNNS
p5879
sbatp5880
Rp5881
(dp5882
g17
VNP
p5883
sbatp5884
Rp5885
(dp5886
g17
VPP
p5887
sbatp5888
Rp5889
(dp5890
g17
VVP
p5891
sbag5
(g6
g7
(lp5892
Vand
p5893
atp5894
Rp5895
(dp5896
g17
VCC
p5897
sbag5
(g6
g7
(lp5898
g5
(g6
g7
(lp5899
Vare
p5900
atp5901
Rp5902
(dp5903
g17
VVBP
p5904
sbag5
(g6
g7
(lp5905
g5
(g6
g7
(lp5906
Vthus
p5907
atp5908
Rp5909
(dp5910
g17
VRB
p5911
sbatp5912
Rp5913
(dp5914
g17
VADVP
p5915
sbag5
(g6
g7
(lp5916
g5
(g6
g7
(lp5917
Vnot
p5918
atp5919
Rp5920
(dp5921
g17
VRB
p5922
sbag5
(g6
g7
(lp5923
Vapplicable
p5924
atp5925
Rp5926
(dp5927
g17
VJJ
p5928
sbag5
(g6
g7
(lp5929
g5
(g6
g7
(lp5930
Vin
p5931
atp5932
Rp5933
(dp5934
g17
VIN
p5935
sbag5
(g6
g7
(lp5936
g5
(g6
g7
(lp5937
g5
(g6
g7
(lp5938
Vour
p5939
atp5940
Rp5941
(dp5942
g17
VPRP$
p5943
sbag5
(g6
g7
(lp5944
Vsetting
p5945
atp5946
Rp5947
(dp5948
g17
VNN
p5949
sbatp5950
Rp5951
(dp5952
g17
VNP
p5953
sbag5
(g6
g7
(lp5954
g5
(g6
g7
(lp5955
Vof
p5956
atp5957
Rp5958
(dp5959
g17
VIN
p5960
sbag5
(g6
g7
(lp5961
g5
(g6
g7
(lp5962
Vunsupervised
p5963
atp5964
Rp5965
(dp5966
g17
VJJ
p5967
sbag5
(g6
g7
(lp5968
VDA
p5969
atp5970
Rp5971
(dp5972
g17
VNNP
p5973
sbatp5974
Rp5975
(dp5976
g17
VNP
p5977
sbatp5978
Rp5979
(dp5980
g17
VPP
p5981
sbatp5982
Rp5983
(dp5984
g17
VNP
p5985
sbatp5986
Rp5987
(dp5988
g17
VPP
p5989
sbatp5990
Rp5991
(dp5992
g17
VADJP
p5993
sbatp5994
Rp5995
(dp5996
g17
VVP
p5997
sbatp5998
Rp5999
(dp6000
g17
VVP
p6001
sbatp6002
Rp6003
(dp6004
g17
g210
sbatp6005
Rp6006
(dp6007
g17
VSBAR
p6008
sbatp6009
Rp6010
(dp6011
g17
VVP
p6012
sbatp6013
Rp6014
(dp6015
g17
g210
sbatp6016
Rp6017
(dp6018
g17
VROOT
p6019
sbag5
(g6
g7
(lp6020
g5
(g6
g7
(lp6021
g5
(g6
g7
(lp6022
g5
(g6
g7
(lp6023
VAbove
p6024
atp6025
Rp6026
(dp6027
g17
VIN
p6028
sbag5
(g6
g7
(lp6029
Vall
p6030
atp6031
Rp6032
(dp6033
g17
VDT
p6034
sbatp6035
Rp6036
(dp6037
g17
VADVP
p6038
sbag5
(g6
g7
(lp6039
g349
atp6040
Rp6041
(dp6042
g17
g349
sbag5
(g6
g7
(lp6043
g5
(g6
g7
(lp6044
Vwe
p6045
atp6046
Rp6047
(dp6048
g17
VPRP
p6049
sbatp6050
Rp6051
(dp6052
g17
VNP
p6053
sbag5
(g6
g7
(lp6054
g5
(g6
g7
(lp6055
Vmove
p6056
atp6057
Rp6058
(dp6059
g17
VVBP
p6060
sbag5
(g6
g7
(lp6061
g5
(g6
g7
(lp6062
g5
(g6
g7
(lp6063
g5
(g6
g7
(lp6064
Vone
p6065
atp6066
Rp6067
(dp6068
g17
VCD
p6069
sbag5
(g6
g7
(lp6070
Vstep
p6071
atp6072
Rp6073
(dp6074
g17
VNN
p6075
sbatp6076
Rp6077
(dp6078
g17
VNP
p6079
sbag5
(g6
g7
(lp6080
Vfurther
p6081
atp6082
Rp6083
(dp6084
g17
VRBR
p6085
sbatp6086
Rp6087
(dp6088
g17
VADVP
p6089
sbag5
(g6
g7
(lp6090
Vby
p6091
atp6092
Rp6093
(dp6094
g17
VIN
p6095
sbag5
(g6
g7
(lp6096
g5
(g6
g7
(lp6097
g5
(g6
g7
(lp6098
Vevaluating
p6099
atp6100
Rp6101
(dp6102
g17
VVBG
p6103
sbag5
(g6
g7
(lp6104
g5
(g6
g7
(lp6105
g5
(g6
g7
(lp6106
Vthe
p6107
atp6108
Rp6109
(dp6110
g17
VDT
p6111
sbag5
(g6
g7
(lp6112
Veffectiveness
p6113
atp6114
Rp6115
(dp6116
g17
VNN
p6117
sbatp6118
Rp6119
(dp6120
g17
VNP
p6121
sbag5
(g6
g7
(lp6122
g5
(g6
g7
(lp6123
Vof
p6124
atp6125
Rp6126
(dp6127
g17
VIN
p6128
sbag5
(g6
g7
(lp6129
g5
(g6
g7
(lp6130
Vword
p6131
atp6132
Rp6133
(dp6134
g17
VNN
p6135
sbag5
(g6
g7
(lp6136
Vembeddings
p6137
atp6138
Rp6139
(dp6140
g17
VNNS
p6141
sbatp6142
Rp6143
(dp6144
g17
VNP
p6145
sbatp6146
Rp6147
(dp6148
g17
VPP
p6149
sbatp6150
Rp6151
(dp6152
g17
VNP
p6153
sbag5
(g6
g7
(lp6154
g5
(g6
g7
(lp6155
Von
p6156
atp6157
Rp6158
(dp6159
g17
VIN
p6160
sbag5
(g6
g7
(lp6161
g5
(g6
g7
(lp6162
g5
(g6
g7
(lp6163
Vdomain
p6164
atp6165
Rp6166
(dp6167
g17
VNN
p6168
sbag5
(g6
g7
(lp6169
Vadaptation
p6170
atp6171
Rp6172
(dp6173
g17
VNN
p6174
sbatp6175
Rp6176
(dp6177
g17
VNP
p6178
sbag5
(g6
g7
(lp6179
g5
(g6
g7
(lp6180
Vfor
p6181
atp6182
Rp6183
(dp6184
g17
VIN
p6185
sbag5
(g6
g7
(lp6186
g5
(g6
g7
(lp6187
VRE
p6188
atp6189
Rp6190
(dp6191
g17
VNNP
p6192
sbatp6193
Rp6194
(dp6195
g17
VNP
p6196
sbatp6197
Rp6198
(dp6199
g17
VPP
p6200
sbag5
(g6
g7
(lp6201
g5
(g6
g7
(lp6202
g5
(g6
g7
(lp6203
Vwhich
p6204
atp6205
Rp6206
(dp6207
g17
VWDT
p6208
sbatp6209
Rp6210
(dp6211
g17
VWHNP
p6212
sbag5
(g6
g7
(lp6213
g5
(g6
g7
(lp6214
g5
(g6
g7
(lp6215
Vis
p6216
atp6217
Rp6218
(dp6219
g17
VVBZ
p6220
sbag5
(g6
g7
(lp6221
g5
(g6
g7
(lp6222
Vvery
p6223
atp6224
Rp6225
(dp6226
g17
VRB
p6227
sbag5
(g6
g7
(lp6228
Vdifferent
p6229
atp6230
Rp6231
(dp6232
g17
VJJ
p6233
sbag5
(g6
g7
(lp6234
g5
(g6
g7
(lp6235
Vfrom
p6236
atp6237
Rp6238
(dp6239
g17
VIN
p6240
sbag5
(g6
g7
(lp6241
g5
(g6
g7
(lp6242
g5
(g6
g7
(lp6243
Vthe
p6244
atp6245
Rp6246
(dp6247
g17
VDT
p6248
sbag5
(g6
g7
(lp6249
Vprincipal
p6250
atp6251
Rp6252
(dp6253
g17
VJJ
p6254
sbag5
(g6
g7
(lp6255
Vtopic
p6256
atp6257
Rp6258
(dp6259
g17
VNN
p6260
sbatp6261
Rp6262
(dp6263
g17
VNP
p6264
sbag5
(g6
g7
(lp6265
g5
(g6
g7
(lp6266
Vof
p6267
atp6268
Rp6269
(dp6270
g17
VIN
p6271
sbag5
(g6
g7
(lp6272
g5
(g6
g7
(lp6273
Vsequence
p6274
atp6275
Rp6276
(dp6277
g17
VNN
p6278
sbatp6279
Rp6280
(dp6281
g17
VNP
p6282
sbatp6283
Rp6284
(dp6285
g17
VPP
p6286
sbatp6287
Rp6288
(dp6289
g17
VNP
p6290
sbatp6291
Rp6292
(dp6293
g17
VPP
p6294
sbatp6295
Rp6296
(dp6297
g17
VADJP
p6298
sbag5
(g6
g7
(lp6299
g5
(g6
g7
(lp6300
g5
(g6
g7
(lp6301
Vlabeling
p6302
atp6303
Rp6304
(dp6305
g17
VVBG
p6306
sbag5
(g6
g7
(lp6307
g5
(g6
g7
(lp6308
Vin
p6309
atp6310
Rp6311
(dp6312
g17
VIN
p6313
sbag5
(g6
g7
(lp6314
g5
(g6
g7
(lp6315
Vthe
p6316
atp6317
Rp6318
(dp6319
g17
VDT
p6320
sbag5
(g6
g7
(lp6321
Vprevious
p6322
atp6323
Rp6324
(dp6325
g17
VJJ
p6326
sbag5
(g6
g7
(lp6327
Vresearch
p6328
atp6329
Rp6330
(dp6331
g17
VNN
p6332
sbatp6333
Rp6334
(dp6335
g17
VNP
p6336
sbatp6337
Rp6338
(dp6339
g17
VPP
p6340
sbatp6341
Rp6342
(dp6343
g17
VVP
p6344
sbatp6345
Rp6346
(dp6347
g17
g210
sbatp6348
Rp6349
(dp6350
g17
VVP
p6351
sbatp6352
Rp6353
(dp6354
g17
g210
sbatp6355
Rp6356
(dp6357
g17
VSBAR
p6358
sbatp6359
Rp6360
(dp6361
g17
VNP
p6362
sbatp6363
Rp6364
(dp6365
g17
VPP
p6366
sbatp6367
Rp6368
(dp6369
g17
VVP
p6370
sbatp6371
Rp6372
(dp6373
g17
g210
sbatp6374
Rp6375
(dp6376
g17
VPP
p6377
sbatp6378
Rp6379
(dp6380
g17
VVP
p6381
sbatp6382
Rp6383
(dp6384
g17
g210
sbatp6385
Rp6386
(dp6387
g17
VROOT
p6388
sbasg245
(icmyPackage
CorE
p6389
(dp6390
g248
(lp6391
(I0
I0
tp6392
a(I0
I12
tp6393
asg252
g5
(g6
g7
(lp6394
g5797
ag5802
ag5818
ag5825
ag5838
ag5889
ag5895
ag5902
atp6395
Rp6396
(dp6397
g17
g263
sbsbsg253
(icmyPackage
CorE
p6398
(dp6399
g248
(lp6400
(I0
I14
tp6401
a(I1
I33
tp6402
asg252
g5
(g6
g7
(lp6403
g5991
ag6036
ag6041
ag6051
ag6058
ag6087
ag6093
ag6101
ag6151
ag6158
ag6176
ag6198
ag6210
ag6218
ag6296
ag6304
ag6311
ag6318
ag6324
atp6404
Rp6405
(dp6406
g17
g263
sbsbsg264
(icmyPackage
pattern
p6407
(dp6408
g267
I35
sg268
I1
sg269
(lp6409
(lp6410
S'thus'
p6411
aasg275
(lp6412
I1
aI1
aI1
asg277
(lp6413
S'Japan will be on the dark side of the Earth, and thus will lack the warming influence of the Sun.'
p6414
asg280
I2
sg281
(lp6415
(lp6416
S'&C'
p6417
aS'(,/;/./--)'
p6418
aS'(&AND)'
p6419
aa(lp6420
S'&R'
p6421
aasbsg287
(lp6422
(isxpPackage
sxpSent
p6423
(dp6424
g291
(lp6425
I15
asg293
VHowever, these methods assume some labeled data in target domains and are thus not applicable in our setting of unsupervised DA
p6426
sg295
I4
sg280
I48
sg296
I11
sba(isxpPackage
sxpSent
p6427
(dp6428
g291
(lp6429
I15
aI16
asg293
VAbove all, we move one step further by evaluating the effectiveness of word embeddings on domain adaptation for RE which is very different from the principal topic of sequence labeling in the previous research
p6430
sg295
I4
sg280
I49
sg296
I11
sbasba(icmyPackage
CELink
p6431
(dp6432
g3
(lp6433
g6386
asg245
(icmyPackage
CorE
p6434
(dp6435
g248
(lp6436
(I0
I9
tp6437
a(I0
I34
tp6438
asg252
g6372
sbsg253
(icmyPackage
CorE
p6439
(dp6440
g248
(lp6441
(I0
I0
tp6442
a(I0
I7
tp6443
asg252
g5
(g6
g7
(lp6444
g6036
ag6041
ag6051
ag6058
ag6087
atp6445
Rp6446
(dp6447
g17
g263
sbsbsg264
g265
sg287
(lp6448
g6427
asba(icmyPackage
CELink
p6449
(dp6450
g3
(lp6451
g5
(g6
g7
(lp6452
g5
(g6
g7
(lp6453
g5
(g6
g7
(lp6454
g5
(g6
g7
(lp6455
g5
(g6
g7
(lp6456
VWe
p6457
atp6458
Rp6459
(dp6460
g17
VPRP
p6461
sbatp6462
Rp6463
(dp6464
g17
VNP
p6465
sbag5
(g6
g7
(lp6466
g5
(g6
g7
(lp6467
g5
(g6
g7
(lp6468
Vconsider
p6469
atp6470
Rp6471
(dp6472
g17
VVB
p6473
sbag5
(g6
g7
(lp6474
g5
(g6
g7
(lp6475
g5
(g6
g7
(lp6476
Vtwo
p6477
atp6478
Rp6479
(dp6480
g17
VCD
p6481
sbag5
(g6
g7
(lp6482
Vtypes
p6483
atp6484
Rp6485
(dp6486
g17
VNNS
p6487
sbatp6488
Rp6489
(dp6490
g17
VNP
p6491
sbag5
(g6
g7
(lp6492
g5
(g6
g7
(lp6493
Vof
p6494
atp6495
Rp6496
(dp6497
g17
VIN
p6498
sbag5
(g6
g7
(lp6499
g5
(g6
g7
(lp6500
Vword
p6501
atp6502
Rp6503
(dp6504
g17
VNN
p6505
sbag5
(g6
g7
(lp6506
Vrepresentations
p6507
atp6508
Rp6509
(dp6510
g17
VNNS
p6511
sbatp6512
Rp6513
(dp6514
g17
VNP
p6515
sbatp6516
Rp6517
(dp6518
g17
VPP
p6519
sbatp6520
Rp6521
(dp6522
g17
VNP
p6523
sbatp6524
Rp6525
(dp6526
g17
VVP
p6527
sbag5
(g6
g7
(lp6528
Vand
p6529
atp6530
Rp6531
(dp6532
g17
VCC
p6533
sbag5
(g6
g7
(lp6534
g5
(g6
g7
(lp6535
Vuse
p6536
atp6537
Rp6538
(dp6539
g17
VVB
p6540
sbag5
(g6
g7
(lp6541
g5
(g6
g7
(lp6542
Vthem
p6543
atp6544
Rp6545
(dp6546
g17
VPRP
p6547
sbatp6548
Rp6549
(dp6550
g17
VNP
p6551
sbag5
(g6
g7
(lp6552
g5
(g6
g7
(lp6553
Vas
p6554
atp6555
Rp6556
(dp6557
g17
VIN
p6558
sbag5
(g6
g7
(lp6559
g5
(g6
g7
(lp6560
g5
(g6
g7
(lp6561
Vadditional
p6562
atp6563
Rp6564
(dp6565
g17
VJJ
p6566
sbag5
(g6
g7
(lp6567
Vfeatures
p6568
atp6569
Rp6570
(dp6571
g17
VNNS
p6572
sbatp6573
Rp6574
(dp6575
g17
VNP
p6576
sbag5
(g6
g7
(lp6577
g5
(g6
g7
(lp6578
Vin
p6579
atp6580
Rp6581
(dp6582
g17
VIN
p6583
sbag5
(g6
g7
(lp6584
g5
(g6
g7
(lp6585
Vour
p6586
atp6587
Rp6588
(dp6589
g17
VPRP$
p6590
sbag5
(g6
g7
(lp6591
VDA
p6592
atp6593
Rp6594
(dp6595
g17
VNNP
p6596
sbag5
(g6
g7
(lp6597
Vsystem
p6598
atp6599
Rp6600
(dp6601
g17
VNN
p6602
sbatp6603
Rp6604
(dp6605
g17
VNP
p6606
sbatp6607
Rp6608
(dp6609
g17
VPP
p6610
sbatp6611
Rp6612
(dp6613
g17
VNP
p6614
sbatp6615
Rp6616
(dp6617
g17
VPP
p6618
sbatp6619
Rp6620
(dp6621
g17
VVP
p6622
sbatp6623
Rp6624
(dp6625
g17
VVP
p6626
sbatp6627
Rp6628
(dp6629
g17
g210
sbag5
(g6
g7
(lp6630
g349
atp6631
Rp6632
(dp6633
g17
g349
sbag5
(g6
g7
(lp6634
g5
(g6
g7
(lp6635
g5
(g6
g7
(lp6636
Vnamely
p6637
atp6638
Rp6639
(dp6640
g17
VRB
p6641
sbatp6642
Rp6643
(dp6644
g17
VADVP
p6645
sbag5
(g6
g7
(lp6646
g5
(g6
g7
(lp6647
VBrown
p6648
atp6649
Rp6650
(dp6651
g17
VNNP
p6652
sbag5
(g6
g7
(lp6653
Vword
p6654
atp6655
Rp6656
(dp6657
g17
VNN
p6658
sbag5
(g6
g7
(lp6659
Vclustering
p6660
atp6661
Rp6662
(dp6663
g17
VNN
p6664
sbag5
(g6
g7
(lp6665
V-LSB-
p6666
atp6667
Rp6668
(dp6669
g17
VNNP
p6670
sbag5
(g6
g7
(lp6671
VBrown
p6672
atp6673
Rp6674
(dp6675
g17
VNNP
p6676
sbag5
(g6
g7
(lp6677
Vet
p6678
atp6679
Rp6680
(dp6681
g17
VNNP
p6682
sbatp6683
Rp6684
(dp6685
g17
VNP
p6686
sbag5
(g6
g7
(lp6687
g5
(g6
g7
(lp6688
Val.
p6689
atp6690
Rp6691
(dp6692
g17
VVBP
p6693
sbag5
(g6
g7
(lp6694
g5
(g6
g7
(lp6695
V1992
p6696
atp6697
Rp6698
(dp6699
g17
VCD
p6700
sbag5
(g6
g7
(lp6701
V-RSB-
p6702
atp6703
Rp6704
(dp6705
g17
VNNS
p6706
sbatp6707
Rp6708
(dp6709
g17
VNP
p6710
sbatp6711
Rp6712
(dp6713
g17
VVP
p6714
sbatp6715
Rp6716
(dp6717
g17
g210
sbag5
(g6
g7
(lp6718
Vand
p6719
atp6720
Rp6721
(dp6722
g17
VCC
p6723
sbag5
(g6
g7
(lp6724
g5
(g6
g7
(lp6725
g5
(g6
g7
(lp6726
Vword
p6727
atp6728
Rp6729
(dp6730
g17
VNN
p6731
sbatp6732
Rp6733
(dp6734
g17
VNP
p6735
sbag5
(g6
g7
(lp6736
g5
(g6
g7
(lp6737
Vembeddings
p6738
atp6739
Rp6740
(dp6741
g17
VVBZ
p6742
sbag5
(g6
g7
(lp6743
g5
(g6
g7
(lp6744
V-LSB-
p6745
atp6746
Rp6747
(dp6748
g17
VCD
p6749
sbag5
(g6
g7
(lp6750
VBengio
p6751
atp6752
Rp6753
(dp6754
g17
VNNP
p6755
sbag5
(g6
g7
(lp6756
Vet
p6757
atp6758
Rp6759
(dp6760
g17
VCC
p6761
sbag5
(g6
g7
(lp6762
Val.
p6763
atp6764
Rp6765
(dp6766
g17
VNNP
p6767
sbag5
(g6
g7
(lp6768
V2001
p6769
atp6770
Rp6771
(dp6772
g17
VCD
p6773
sbag5
(g6
g7
(lp6774
V-RSB-
p6775
atp6776
Rp6777
(dp6778
g17
VNNS
p6779
sbatp6780
Rp6781
(dp6782
g17
VNP
p6783
sbatp6784
Rp6785
(dp6786
g17
VVP
p6787
sbatp6788
Rp6789
(dp6790
g17
g210
sbatp6791
Rp6792
(dp6793
g17
g210
sbatp6794
Rp6795
(dp6796
g17
VROOT
p6797
sbasg245
(icmyPackage
CorE
p6798
(dp6799
g248
(lp6800
(I0
I11
tp6801
a(I0
I34
tp6802
asg252
g5
(g6
g7
(lp6803
g6612
ag6632
ag6716
ag6721
ag6733
ag6740
ag6747
ag6753
ag6759
ag6765
atp6804
Rp6805
(dp6806
g17
g263
sbsbsg253
(icmyPackage
CorE
p6807
(dp6808
g248
(lp6809
(I0
I0
tp6810
a(I0
I9
tp6811
asg252
g5
(g6
g7
(lp6812
g6463
ag6525
ag6531
ag6538
ag6549
atp6813
Rp6814
(dp6815
g17
g263
sbsbsg264
g1677
sg287
(lp6816
(isxpPackage
sxpSent
p6817
(dp6818
g291
(lp6819
I17
asg293
VWe consider two types of word representations and use them as additional features in our DA system, namely Brown word clustering [ Brown et al.1992 ] and word embeddings [ Bengio et al.2001 ]
p6820
sg295
I5
sg280
I50
sg296
I12
sbasba(icmyPackage
CELink
p6821
(dp6822
g3
(lp6823
g5
(g6
g7
(lp6824
g5
(g6
g7
(lp6825
g5
(g6
g7
(lp6826
g5
(g6
g7
(lp6827
VWhile
p6828
atp6829
Rp6830
(dp6831
g17
VIN
p6832
sbag5
(g6
g7
(lp6833
g5
(g6
g7
(lp6834
g5
(g6
g7
(lp6835
Vword
p6836
atp6837
Rp6838
(dp6839
g17
VNN
p6840
sbag5
(g6
g7
(lp6841
Vclusters
p6842
atp6843
Rp6844
(dp6845
g17
VNNS
p6846
sbatp6847
Rp6848
(dp6849
g17
VNP
p6850
sbag5
(g6
g7
(lp6851
g5
(g6
g7
(lp6852
Vcan
p6853
atp6854
Rp6855
(dp6856
g17
VMD
p6857
sbag5
(g6
g7
(lp6858
g5
(g6
g7
(lp6859
Vbe
p6860
atp6861
Rp6862
(dp6863
g17
VVB
p6864
sbag5
(g6
g7
(lp6865
g5
(g6
g7
(lp6866
Vrecognized
p6867
atp6868
Rp6869
(dp6870
g17
VVBN
p6871
sbag5
(g6
g7
(lp6872
g5
(g6
g7
(lp6873
Vas
p6874
atp6875
Rp6876
(dp6877
g17
VIN
p6878
sbag5
(g6
g7
(lp6879
g5
(g6
g7
(lp6880
g5
(g6
g7
(lp6881
Van
p6882
atp6883
Rp6884
(dp6885
g17
VDT
p6886
sbag5
(g6
g7
(lp6887
Vone-hot
p6888
atp6889
Rp6890
(dp6891
g17
VJJ
p6892
sbag5
(g6
g7
(lp6893
Vvector
p6894
atp6895
Rp6896
(dp6897
g17
VNN
p6898
sbag5
(g6
g7
(lp6899
Vrepresentation
p6900
atp6901
Rp6902
(dp6903
g17
VNN
p6904
sbatp6905
Rp6906
(dp6907
g17
VNP
p6908
sbag5
(g6
g7
(lp6909
g5
(g6
g7
(lp6910
Vover
p6911
atp6912
Rp6913
(dp6914
g17
VIN
p6915
sbag5
(g6
g7
(lp6916
g5
(g6
g7
(lp6917
g1508
atp6918
Rp6919
(dp6920
g17
VDT
p6921
sbag5
(g6
g7
(lp6922
Vsmall
p6923
atp6924
Rp6925
(dp6926
g17
VJJ
p6927
sbag5
(g6
g7
(lp6928
Vvocabulary
p6929
atp6930
Rp6931
(dp6932
g17
VNN
p6933
sbatp6934
Rp6935
(dp6936
g17
VNP
p6937
sbatp6938
Rp6939
(dp6940
g17
VPP
p6941
sbatp6942
Rp6943
(dp6944
g17
VNP
p6945
sbatp6946
Rp6947
(dp6948
g17
VPP
p6949
sbatp6950
Rp6951
(dp6952
g17
VVP
p6953
sbatp6954
Rp6955
(dp6956
g17
VVP
p6957
sbatp6958
Rp6959
(dp6960
g17
VVP
p6961
sbatp6962
Rp6963
(dp6964
g17
g210
sbatp6965
Rp6966
(dp6967
g17
VSBAR
p6968
sbag5
(g6
g7
(lp6969
g349
atp6970
Rp6971
(dp6972
g17
g349
sbag5
(g6
g7
(lp6973
g5
(g6
g7
(lp6974
Vword
p6975
atp6976
Rp6977
(dp6978
g17
VNN
p6979
sbag5
(g6
g7
(lp6980
Vembeddings
p6981
atp6982
Rp6983
(dp6984
g17
VNNS
p6985
sbatp6986
Rp6987
(dp6988
g17
VNP
p6989
sbag5
(g6
g7
(lp6990
g5
(g6
g7
(lp6991
Vare
p6992
atp6993
Rp6994
(dp6995
g17
VVBP
p6996
sbag5
(g6
g7
(lp6997
g5
(g6
g7
(lp6998
g5
(g6
g7
(lp6999
Vdense
p7000
atp7001
Rp7002
(dp7003
g17
VJJ
p7004
sbatp7005
Rp7006
(dp7007
g17
VNP
p7008
sbag5
(g6
g7
(lp7009
g349
atp7010
Rp7011
(dp7012
g17
g349
sbag5
(g6
g7
(lp7013
g5
(g6
g7
(lp7014
Vlow-dimensional
p7015
atp7016
Rp7017
(dp7018
g17
VNN
p7019
sbatp7020
Rp7021
(dp7022
g17
VNP
p7023
sbag5
(g6
g7
(lp7024
g349
atp7025
Rp7026
(dp7027
g17
g349
sbag5
(g6
g7
(lp7028
Vand
p7029
atp7030
Rp7031
(dp7032
g17
VCC
p7033
sbag5
(g6
g7
(lp7034
g5
(g6
g7
(lp7035
g5
(g6
g7
(lp7036
Vreal-valued
p7037
atp7038
Rp7039
(dp7040
g17
VJJ
p7041
sbag5
(g6
g7
(lp7042
Vvectors
p7043
atp7044
Rp7045
(dp7046
g17
VNNS
p7047
sbatp7048
Rp7049
(dp7050
g17
VNP
p7051
sbag5
(g6
g7
(lp7052
V-LRB-
p7053
atp7054
Rp7055
(dp7056
g17
V-LRB-
p7057
sbag5
(g6
g7
(lp7058
g5
(g6
g7
(lp7059
g5
(g6
g7
(lp7060
Vdistributed
p7061
atp7062
Rp7063
(dp7064
g17
VNNP
p7065
sbatp7066
Rp7067
(dp7068
g17
VNP
p7069
sbag5
(g6
g7
(lp7070
g5
(g6
g7
(lp7071
Vrepresentations
p7072
atp7073
Rp7074
(dp7075
g17
VNNS
p7076
sbatp7077
Rp7078
(dp7079
g17
VNP
p7080
sbatp7081
Rp7082
(dp7083
g17
VNP
p7084
sbatp7085
Rp7086
(dp7087
g17
VNP
p7088
sbatp7089
Rp7090
(dp7091
g17
VNP
p7092
sbatp7093
Rp7094
(dp7095
g17
VVP
p7096
sbatp7097
Rp7098
(dp7099
g17
g210
sbatp7100
Rp7101
(dp7102
g17
VROOT
p7103
sbasg245
(icmyPackage
CorE
p7104
(dp7105
g248
(lp7106
(I0
I7
tp7107
a(I0
I28
tp7108
asg252
g5
(g6
g7
(lp7109
g6943
ag6971
ag6987
ag7094
atp7110
Rp7111
(dp7112
g17
g263
sbsbsg253
(icmyPackage
CorE
p7113
(dp7114
g248
(lp7115
(I0
I1
tp7116
a(I0
I5
tp7117
asg252
g5
(g6
g7
(lp7118
g6848
ag6855
ag6862
ag6869
atp7119
Rp7120
(dp7121
g17
g263
sbsbsg264
g1677
sg287
(lp7122
(isxpPackage
sxpSent
p7123
(dp7124
g291
(lp7125
I18
asg293
VWhile word clusters can be recognized as an one-hot vector representation over a small vocabulary, word embeddings are dense, low-dimensional, and real-valued vectors (distributed representations
p7126
sg295
I5
sg280
I51
sg296
I12
sbasba(icmyPackage
CELink
p7127
(dp7128
g3
(lp7129
g5
(g6
g7
(lp7130
g5
(g6
g7
(lp7131
g5
(g6
g7
(lp7132
g5
(g6
g7
(lp7133
VThis
p7134
atp7135
Rp7136
(dp7137
g17
VDT
p7138
sbag5
(g6
g7
(lp7139
Vissue
p7140
atp7141
Rp7142
(dp7143
g17
VNN
p7144
sbatp7145
Rp7146
(dp7147
g17
VNP
p7148
sbag5
(g6
g7
(lp7149
g5
(g6
g7
(lp7150
Vbecomes
p7151
atp7152
Rp7153
(dp7154
g17
VVBZ
p7155
sbag5
(g6
g7
(lp7156
g5
(g6
g7
(lp7157
Vmore
p7158
atp7159
Rp7160
(dp7161
g17
VRBR
p7162
sbag5
(g6
g7
(lp7163
Vserious
p7164
atp7165
Rp7166
(dp7167
g17
VJJ
p7168
sbag5
(g6
g7
(lp7169
g5
(g6
g7
(lp7170
Vin
p7171
atp7172
Rp7173
(dp7174
g17
VIN
p7175
sbag5
(g6
g7
(lp7176
g5
(g6
g7
(lp7177
g5
(g6
g7
(lp7178
Vour
p7179
atp7180
Rp7181
(dp7182
g17
VPRP$
p7183
sbag5
(g6
g7
(lp7184
Vsetting
p7185
atp7186
Rp7187
(dp7188
g17
VNN
p7189
sbatp7190
Rp7191
(dp7192
g17
VNP
p7193
sbag5
(g6
g7
(lp7194
g5
(g6
g7
(lp7195
Vof
p7196
atp7197
Rp7198
(dp7199
g17
VIN
p7200
sbag5
(g6
g7
(lp7201
g5
(g6
g7
(lp7202
Vsingle-system
p7203
atp7204
Rp7205
(dp7206
g17
VNNP
p7207
sbag5
(g6
g7
(lp7208
VDA
p7209
atp7210
Rp7211
(dp7212
g17
VNNP
p7213
sbatp7214
Rp7215
(dp7216
g17
VNP
p7217
sbatp7218
Rp7219
(dp7220
g17
VPP
p7221
sbatp7222
Rp7223
(dp7224
g17
VNP
p7225
sbatp7226
Rp7227
(dp7228
g17
VPP
p7229
sbatp7230
Rp7231
(dp7232
g17
VADJP
p7233
sbag5
(g6
g7
(lp7234
g5
(g6
g7
(lp7235
g5
(g6
g7
(lp7236
Vwhere
p7237
atp7238
Rp7239
(dp7240
g17
VWRB
p7241
sbatp7242
Rp7243
(dp7244
g17
VWHADVP
p7245
sbag5
(g6
g7
(lp7246
g5
(g6
g7
(lp7247
g5
(g6
g7
(lp7248
g5
(g6
g7
(lp7249
Vwe
p7250
atp7251
Rp7252
(dp7253
g17
VPRP
p7254
sbatp7255
Rp7256
(dp7257
g17
VNP
p7258
sbag5
(g6
g7
(lp7259
g5
(g6
g7
(lp7260
Vhave
p7261
atp7262
Rp7263
(dp7264
g17
VVBP
p7265
sbag5
(g6
g7
(lp7266
g5
(g6
g7
(lp7267
g1508
atp7268
Rp7269
(dp7270
g17
VDT
p7271
sbag5
(g6
g7
(lp7272
Vsingle
p7273
atp7274
Rp7275
(dp7276
g17
VJJ
p7277
sbag5
(g6
g7
(lp7278
Vsource
p7279
atp7280
Rp7281
(dp7282
g17
VNN
p7283
sbag5
(g6
g7
(lp7284
Vdomain
p7285
atp7286
Rp7287
(dp7288
g17
VNN
p7289
sbatp7290
Rp7291
(dp7292
g17
VNP
p7293
sbag5
(g6
g7
(lp7294
g5
(g6
g7
(lp7295
Vwith
p7296
atp7297
Rp7298
(dp7299
g17
VIN
p7300
sbag5
(g6
g7
(lp7301
g5
(g6
g7
(lp7302
g5
(g6
g7
(lp7303
Vmultiple
p7304
atp7305
Rp7306
(dp7307
g17
VJJ
p7308
sbag5
(g6
g7
(lp7309
Vdissimilar
p7310
atp7311
Rp7312
(dp7313
g17
VJJ
p7314
sbatp7315
Rp7316
(dp7317
g17
VADJP
p7318
sbag5
(g6
g7
(lp7319
Vtarget
p7320
atp7321
Rp7322
(dp7323
g17
VNN
p7324
sbag5
(g6
g7
(lp7325
Vdomains
p7326
atp7327
Rp7328
(dp7329
g17
VNNS
p7330
sbatp7331
Rp7332
(dp7333
g17
VNP
p7334
sbatp7335
Rp7336
(dp7337
g17
VPP
p7338
sbatp7339
Rp7340
(dp7341
g17
VVP
p7342
sbatp7343
Rp7344
(dp7345
g17
g210
sbag5
(g6
g7
(lp7346
Vand
p7347
atp7348
Rp7349
(dp7350
g17
VCC
p7351
sbag5
(g6
g7
(lp7352
g5
(g6
g7
(lp7353
g5
(g6
g7
(lp7354
g5
(g6
g7
(lp7355
Van
p7356
atp7357
Rp7358
(dp7359
g17
VDT
p7360
sbag5
(g6
g7
(lp7361
Vautomatic
p7362
atp7363
Rp7364
(dp7365
g17
VJJ
p7366
sbag5
(g6
g7
(lp7367
Vsystem
p7368
atp7369
Rp7370
(dp7371
g17
VNN
p7372
sbatp7373
Rp7374
(dp7375
g17
VNP
p7376
sbag5
(g6
g7
(lp7377
g5
(g6
g7
(lp7378
Vable
p7379
atp7380
Rp7381
(dp7382
g17
VJJ
p7383
sbag5
(g6
g7
(lp7384
g5
(g6
g7
(lp7385
g5
(g6
g7
(lp7386
Vto
p7387
atp7388
Rp7389
(dp7390
g17
VTO
p7391
sbag5
(g6
g7
(lp7392
g5
(g6
g7
(lp7393
Vrecognize
p7394
atp7395
Rp7396
(dp7397
g17
VVB
p7398
sbag5
(g6
g7
(lp7399
g5
(g6
g7
(lp7400
Ventity
p7401
atp7402
Rp7403
(dp7404
g17
VNN
p7405
sbag5
(g6
g7
(lp7406
Vand
p7407
atp7408
Rp7409
(dp7410
g17
VCC
p7411
sbag5
(g6
g7
(lp7412
Vmention
p7413
atp7414
Rp7415
(dp7416
g17
VNN
p7417
sbag5
(g6
g7
(lp7418
Vtypes
p7419
atp7420
Rp7421
(dp7422
g17
VNNS
p7423
sbatp7424
Rp7425
(dp7426
g17
VNP
p7427
sbag5
(g6
g7
(lp7428
g5
(g6
g7
(lp7429
Vvery
p7430
atp7431
Rp7432
(dp7433
g17
VRB
p7434
sbag5
(g6
g7
(lp7435
Vwell
p7436
atp7437
Rp7438
(dp7439
g17
VRB
p7440
sbatp7441
Rp7442
(dp7443
g17
VADVP
p7444
sbag5
(g6
g7
(lp7445
g5
(g6
g7
(lp7446
Vin
p7447
atp7448
Rp7449
(dp7450
g17
VIN
p7451
sbag5
(g6
g7
(lp7452
g5
(g6
g7
(lp7453
Vdifferent
p7454
atp7455
Rp7456
(dp7457
g17
VJJ
p7458
sbag5
(g6
g7
(lp7459
Vdomains
p7460
atp7461
Rp7462
(dp7463
g17
VNNS
p7464
sbatp7465
Rp7466
(dp7467
g17
VNP
p7468
sbatp7469
Rp7470
(dp7471
g17
VPP
p7472
sbatp7473
Rp7474
(dp7475
g17
VVP
p7476
sbatp7477
Rp7478
(dp7479
g17
VVP
p7480
sbatp7481
Rp7482
(dp7483
g17
g210
sbatp7484
Rp7485
(dp7486
g17
VADJP
p7487
sbatp7488
Rp7489
(dp7490
g17
VNP
p7491
sbag5
(g6
g7
(lp7492
g5
(g6
g7
(lp7493
Vmay
p7494
atp7495
Rp7496
(dp7497
g17
VMD
p7498
sbag5
(g6
g7
(lp7499
Vnot
p7500
atp7501
Rp7502
(dp7503
g17
VRB
p7504
sbag5
(g6
g7
(lp7505
g5
(g6
g7
(lp7506
Vbe
p7507
atp7508
Rp7509
(dp7510
g17
VVB
p7511
sbag5
(g6
g7
(lp7512
g5
(g6
g7
(lp7513
Vavailable
p7514
atp7515
Rp7516
(dp7517
g17
VJJ
p7518
sbatp7519
Rp7520
(dp7521
g17
VADJP
p7522
sbatp7523
Rp7524
(dp7525
g17
VVP
p7526
sbatp7527
Rp7528
(dp7529
g17
VVP
p7530
sbatp7531
Rp7532
(dp7533
g17
g210
sbatp7534
Rp7535
(dp7536
g17
g210
sbatp7537
Rp7538
(dp7539
g17
VSBAR
p7540
sbatp7541
Rp7542
(dp7543
g17
VVP
p7544
sbatp7545
Rp7546
(dp7547
g17
g210
sbatp7548
Rp7549
(dp7550
g17
VROOT
p7551
sbag5
(g6
g7
(lp7552
g5
(g6
g7
(lp7553
g5
(g6
g7
(lp7554
g5
(g6
g7
(lp7555
VTherefore
p7556
atp7557
Rp7558
(dp7559
g17
VRB
p7560
sbatp7561
Rp7562
(dp7563
g17
VADVP
p7564
sbag5
(g6
g7
(lp7565
g349
atp7566
Rp7567
(dp7568
g17
g349
sbag5
(g6
g7
(lp7569
g5
(g6
g7
(lp7570
Vfollowing
p7571
atp7572
Rp7573
(dp7574
g17
VVBG
p7575
sbag5
(g6
g7
(lp7576
g5
(g6
g7
(lp7577
g5
(g6
g7
(lp7578
Vthe
p7579
atp7580
Rp7581
(dp7582
g17
VDT
p7583
sbag5
(g6
g7
(lp7584
Vsettings
p7585
atp7586
Rp7587
(dp7588
g17
VNNS
p7589
sbatp7590
Rp7591
(dp7592
g17
VNP
p7593
sbag5
(g6
g7
(lp7594
g5
(g6
g7
(lp7595
Vof
p7596
atp7597
Rp7598
(dp7599
g17
VIN
p7600
sbag5
(g6
g7
(lp7601
g5
(g6
g7
(lp7602
g5
(g6
g7
(lp7603
VPlank
p7604
atp7605
Rp7606
(dp7607
g17
VNNP
p7608
sbatp7609
Rp7610
(dp7611
g17
VNP
p7612
sbag5
(g6
g7
(lp7613
Vand
p7614
atp7615
Rp7616
(dp7617
g17
VCC
p7618
sbag5
(g6
g7
(lp7619
g5
(g6
g7
(lp7620
VMoschitti
p7621
atp7622
Rp7623
(dp7624
g17
VNNP
p7625
sbag5
(g6
g7
(lp7626
V-LSB-
p7627
atp7628
Rp7629
(dp7630
g17
VNNP
p7631
sbag5
(g6
g7
(lp7632
VPlank
p7633
atp7634
Rp7635
(dp7636
g17
VNNP
p7637
sbag5
(g6
g7
(lp7638
Vand
p7639
atp7640
Rp7641
(dp7642
g17
VCC
p7643
sbag5
(g6
g7
(lp7644
VMoschitti2013
p7645
atp7646
Rp7647
(dp7648
g17
VNNP
p7649
sbag5
(g6
g7
(lp7650
V-RSB-
p7651
atp7652
Rp7653
(dp7654
g17
VNNP
p7655
sbatp7656
Rp7657
(dp7658
g17
VNP
p7659
sbatp7660
Rp7661
(dp7662
g17
VNP
p7663
sbatp7664
Rp7665
(dp7666
g17
VPP
p7667
sbatp7668
Rp7669
(dp7670
g17
VNP
p7671
sbatp7672
Rp7673
(dp7674
g17
VPP
p7675
sbag5
(g6
g7
(lp7676
g349
atp7677
Rp7678
(dp7679
g17
g349
sbag5
(g6
g7
(lp7680
g5
(g6
g7
(lp7681
Vwe
p7682
atp7683
Rp7684
(dp7685
g17
VPRP
p7686
sbatp7687
Rp7688
(dp7689
g17
VNP
p7690
sbag5
(g6
g7
(lp7691
g5
(g6
g7
(lp7692
Vwill
p7693
atp7694
Rp7695
(dp7696
g17
VMD
p7697
sbag5
(g6
g7
(lp7698
g5
(g6
g7
(lp7699
Vonly
p7700
atp7701
Rp7702
(dp7703
g17
VRB
p7704
sbatp7705
Rp7706
(dp7707
g17
VADVP
p7708
sbag5
(g6
g7
(lp7709
g5
(g6
g7
(lp7710
g5
(g6
g7
(lp7711
Vassume
p7712
atp7713
Rp7714
(dp7715
g17
VVB
p7716
sbag5
(g6
g7
(lp7717
g5
(g6
g7
(lp7718
Ventity
p7719
atp7720
Rp7721
(dp7722
g17
VNN
p7723
sbag5
(g6
g7
(lp7724
Vboundaries
p7725
atp7726
Rp7727
(dp7728
g17
VNNS
p7729
sbatp7730
Rp7731
(dp7732
g17
VNP
p7733
sbatp7734
Rp7735
(dp7736
g17
VVP
p7737
sbag5
(g6
g7
(lp7738
Vand
p7739
atp7740
Rp7741
(dp7742
g17
VCC
p7743
sbag5
(g6
g7
(lp7744
Vnot
p7745
atp7746
Rp7747
(dp7748
g17
VRB
p7749
sbag5
(g6
g7
(lp7750
g5
(g6
g7
(lp7751
Vrely
p7752
atp7753
Rp7754
(dp7755
g17
VVB
p7756
sbag5
(g6
g7
(lp7757
g5
(g6
g7
(lp7758
Von
p7759
atp7760
Rp7761
(dp7762
g17
VIN
p7763
sbag5
(g6
g7
(lp7764
g5
(g6
g7
(lp7765
g5
(g6
g7
(lp7766
Vthe
p7767
atp7768
Rp7769
(dp7770
g17
VDT
p7771
sbag5
(g6
g7
(lp7772
Vgold
p7773
atp7774
Rp7775
(dp7776
g17
VJJ
p7777
sbag5
(g6
g7
(lp7778
Vstandard
p7779
atp7780
Rp7781
(dp7782
g17
VJJ
p7783
sbag5
(g6
g7
(lp7784
Vinformation
p7785
atp7786
Rp7787
(dp7788
g17
VNN
p7789
sbatp7790
Rp7791
(dp7792
g17
VNP
p7793
sbag5
(g6
g7
(lp7794
g5
(g6
g7
(lp7795
Vin
p7796
atp7797
Rp7798
(dp7799
g17
VIN
p7800
sbag5
(g6
g7
(lp7801
g5
(g6
g7
(lp7802
Vthe
p7803
atp7804
Rp7805
(dp7806
g17
VDT
p7807
sbag5
(g6
g7
(lp7808
Vexperiments
p7809
atp7810
Rp7811
(dp7812
g17
VNNS
p7813
sbatp7814
Rp7815
(dp7816
g17
VNP
p7817
sbatp7818
Rp7819
(dp7820
g17
VPP
p7821
sbatp7822
Rp7823
(dp7824
g17
VNP
p7825
sbatp7826
Rp7827
(dp7828
g17
VPP
p7829
sbatp7830
Rp7831
(dp7832
g17
VVP
p7833
sbatp7834
Rp7835
(dp7836
g17
VVP
p7837
sbatp7838
Rp7839
(dp7840
g17
VVP
p7841
sbatp7842
Rp7843
(dp7844
g17
g210
sbatp7845
Rp7846
(dp7847
g17
VROOT
p7848
sbasg245
(icmyPackage
CorE
p7849
(dp7850
g248
(lp7851
(I0
I0
tp7852
a(I0
I42
tp7853
asg252
g7549
sbsg253
(icmyPackage
CorE
p7854
(dp7855
g248
(lp7856
(I1
I2
tp7857
a(I1
I31
tp7858
asg252
g5
(g6
g7
(lp7859
g7673
ag7678
ag7688
ag7839
atp7860
Rp7861
(dp7862
g17
g263
sbsbsg264
(icmyPackage
pattern
p7863
(dp7864
g267
I62
sg268
I1
sg269
(lp7865
(lp7866
S'therefore'
p7867
aasg275
(lp7868
I1
aI1
aI1
asg277
(lp7869
S'He never lies; therefore, everyone likes to make friends with him.'
p7870
asg280
I1
sg281
(lp7871
(lp7872
S'&C'
p7873
aS'(,/;/./--)'
p7874
aS'(&AND)'
p7875
aa(lp7876
S'(,)'
p7877
aS'&R'
p7878
aasbsg287
(lp7879
(isxpPackage
sxpSent
p7880
(dp7881
g291
(lp7882
I19
asg293
VThis issue becomes more serious in our setting of single-system DA where we have a single source domain with multiple dissimilar target domains and an automatic system able to recognize entity and mention types very well in different domains may not be available
p7883
sg295
I7
sg280
I58
sg296
I13
sba(isxpPackage
sxpSent
p7884
(dp7885
g291
(lp7886
I19
asg293
VTherefore, following the settings of Plank and Moschitti [ Plank and Moschitti2013 ] , we will only assume entity boundaries and not rely on the gold standard information in the experiments
p7887
sg295
I7
sg280
I59
sg296
I13
sbasba(icmyPackage
CELink
p7888
(dp7889
g3
(lp7890
g5
(g6
g7
(lp7891
g5
(g6
g7
(lp7892
g5
(g6
g7
(lp7893
g5
(g6
g7
(lp7894
VWe
p7895
atp7896
Rp7897
(dp7898
g17
VPRP
p7899
sbatp7900
Rp7901
(dp7902
g17
VNP
p7903
sbag5
(g6
g7
(lp7904
g5
(g6
g7
(lp7905
Vapply
p7906
atp7907
Rp7908
(dp7909
g17
VVBP
p7910
sbag5
(g6
g7
(lp7911
g5
(g6
g7
(lp7912
g5
(g6
g7
(lp7913
Vthe
p7914
atp7915
Rp7916
(dp7917
g17
VDT
p7918
sbag5
(g6
g7
(lp7919
Vsame
p7920
atp7921
Rp7922
(dp7923
g17
VJJ
p7924
sbag5
(g6
g7
(lp7925
Vfeature
p7926
atp7927
Rp7928
(dp7929
g17
VNN
p7930
sbatp7931
Rp7932
(dp7933
g17
VNP
p7934
sbag5
(g6
g7
(lp7935
g5
(g6
g7
(lp7936
Vset
p7937
atp7938
Rp7939
(dp7940
g17
VVBN
p7941
sbag5
(g6
g7
(lp7942
g5
(g6
g7
(lp7943
Vas
p7944
atp7945
Rp7946
(dp7947
g17
VIN
p7948
sbag5
(g6
g7
(lp7949
g5
(g6
g7
(lp7950
VSun
p7951
atp7952
Rp7953
(dp7954
g17
VNNP
p7955
sbag5
(g6
g7
(lp7956
Vet
p7957
atp7958
Rp7959
(dp7960
g17
VCC
p7961
sbag5
(g6
g7
(lp7962
Val
p7963
atp7964
Rp7965
(dp7966
g17
VNNP
p7967
sbatp7968
Rp7969
(dp7970
g17
VNP
p7971
sbatp7972
Rp7973
(dp7974
g17
VPP
p7975
sbatp7976
Rp7977
(dp7978
g17
VVP
p7979
sbatp7980
Rp7981
(dp7982
g17
VNP
p7983
sbatp7984
Rp7985
(dp7986
g17
VVP
p7987
sbatp7988
Rp7989
(dp7990
g17
g210
sbatp7991
Rp7992
(dp7993
g17
VROOT
p7994
sbag5
(g6
g7
(lp7995
g5
(g6
g7
(lp7996
g5
(g6
g7
(lp7997
g5
(g6
g7
(lp7998
V-LSB-
p7999
atp8000
Rp8001
(dp8002
g17
VNNP
p8003
sbag5
(g6
g7
(lp8004
VSun
p8005
atp8006
Rp8007
(dp8008
g17
VNNP
p8009
sbag5
(g6
g7
(lp8010
Vet
p8011
atp8012
Rp8013
(dp8014
g17
VNNP
p8015
sbag5
(g6
g7
(lp8016
Val.
p8017
atp8018
Rp8019
(dp8020
g17
VNN
p8021
sbag5
(g6
g7
(lp8022
V2011
p8023
atp8024
Rp8025
(dp8026
g17
VNNP
p8027
sbag5
(g6
g7
(lp8028
V-RSB-
p8029
atp8030
Rp8031
(dp8032
g17
VNNP
p8033
sbatp8034
Rp8035
(dp8036
g17
VNP
p8037
sbag5
(g6
g7
(lp8038
Vbut
p8039
atp8040
Rp8041
(dp8042
g17
VCC
p8043
sbag5
(g6
g7
(lp8044
g5
(g6
g7
(lp8045
g5
(g6
g7
(lp8046
g5
(g6
g7
(lp8047
Vremove
p8048
atp8049
Rp8050
(dp8051
g17
VVB
p8052
sbag5
(g6
g7
(lp8053
g5
(g6
g7
(lp8054
Vthe
p8055
atp8056
Rp8057
(dp8058
g17
VDT
p8059
sbag5
(g6
g7
(lp8060
Ventity
p8061
atp8062
Rp8063
(dp8064
g17
VNN
p8065
sbatp8066
Rp8067
(dp8068
g17
VNP
p8069
sbatp8070
Rp8071
(dp8072
g17
VVP
p8073
sbag5
(g6
g7
(lp8074
Vand
p8075
atp8076
Rp8077
(dp8078
g17
VCC
p8079
sbag5
(g6
g7
(lp8080
g5
(g6
g7
(lp8081
Vmention
p8082
atp8083
Rp8084
(dp8085
g17
VVB
p8086
sbag5
(g6
g7
(lp8087
g5
(g6
g7
(lp8088
g5
(g6
g7
(lp8089
Vtype
p8090
atp8091
Rp8092
(dp8093
g17
VNN
p8094
sbag5
(g6
g7
(lp8095
Vinformation
p8096
atp8097
Rp8098
(dp8099
g17
VNN
p8100
sbatp8101
Rp8102
(dp8103
g17
VNP
p8104
sbag5
(g6
g7
(lp8105
g5
(g6
g7
(lp8106
V2
p8107
atp8108
Rp8109
(dp8110
g17
VCD
p8111
sbag5
(g6
g7
(lp8112
g8107
atp8113
Rp8114
(dp8115
g17
VCD
p8116
sbatp8117
Rp8118
(dp8119
g17
VADJP
p8120
sbag5
(g6
g7
(lp8121
g5
(g6
g7
(lp8122
g5
(g6
g7
(lp8123
g5
(g6
g7
(lp8124
VWe
p8125
atp8126
Rp8127
(dp8128
g17
VPRP
p8129
sbatp8130
Rp8131
(dp8132
g17
VNP
p8133
sbag5
(g6
g7
(lp8134
g5
(g6
g7
(lp8135
Vhave
p8136
atp8137
Rp8138
(dp8139
g17
VVBP
p8140
sbag5
(g6
g7
(lp8141
g5
(g6
g7
(lp8142
Vthe
p8143
atp8144
Rp8145
(dp8146
g17
VDT
p8147
sbag5
(g6
g7
(lp8148
Vsame
p8149
atp8150
Rp8151
(dp8152
g17
VJJ
p8153
sbag5
(g6
g7
(lp8154
Vobservation
p8155
atp8156
Rp8157
(dp8158
g17
VNN
p8159
sbatp8160
Rp8161
(dp8162
g17
VNP
p8163
sbag5
(g6
g7
(lp8164
g5
(g6
g7
(lp8165
Vas
p8166
atp8167
Rp8168
(dp8169
g17
VIN
p8170
sbag5
(g6
g7
(lp8171
g5
(g6
g7
(lp8172
g5
(g6
g7
(lp8173
VPlank
p8174
atp8175
Rp8176
(dp8177
g17
VNNP
p8178
sbatp8179
Rp8180
(dp8181
g17
VNP
p8182
sbag5
(g6
g7
(lp8183
Vand
p8184
atp8185
Rp8186
(dp8187
g17
VCC
p8188
sbag5
(g6
g7
(lp8189
g5
(g6
g7
(lp8190
VMoschitti
p8191
atp8192
Rp8193
(dp8194
g17
VNNP
p8195
sbag5
(g6
g7
(lp8196
V-LSB-
p8197
atp8198
Rp8199
(dp8200
g17
VNNP
p8201
sbag5
(g6
g7
(lp8202
VPlank
p8203
atp8204
Rp8205
(dp8206
g17
VNNP
p8207
sbag5
(g6
g7
(lp8208
Vand
p8209
atp8210
Rp8211
(dp8212
g17
VCC
p8213
sbag5
(g6
g7
(lp8214
VMoschitti2013
p8215
atp8216
Rp8217
(dp8218
g17
VNNP
p8219
sbag5
(g6
g7
(lp8220
V-RSB-
p8221
atp8222
Rp8223
(dp8224
g17
VNNP
p8225
sbatp8226
Rp8227
(dp8228
g17
VNP
p8229
sbatp8230
Rp8231
(dp8232
g17
VNP
p8233
sbatp8234
Rp8235
(dp8236
g17
VPP
p8237
sbatp8238
Rp8239
(dp8240
g17
VVP
p8241
sbatp8242
Rp8243
(dp8244
g17
g210
sbatp8245
Rp8246
(dp8247
g17
VSBAR
p8248
sbatp8249
Rp8250
(dp8251
g17
VNP
p8252
sbag5
(g6
g7
(lp8253
g5
(g6
g7
(lp8254
Vthat
p8255
atp8256
Rp8257
(dp8258
g17
VIN
p8259
sbag5
(g6
g7
(lp8260
g5
(g6
g7
(lp8261
g5
(g6
g7
(lp8262
g5
(g6
g7
(lp8263
Vwhen
p8264
atp8265
Rp8266
(dp8267
g17
VWRB
p8268
sbatp8269
Rp8270
(dp8271
g17
VWHADVP
p8272
sbag5
(g6
g7
(lp8273
g5
(g6
g7
(lp8274
g5
(g6
g7
(lp8275
Vthe
p8276
atp8277
Rp8278
(dp8279
g17
VDT
p8280
sbag5
(g6
g7
(lp8281
Vgold-standard
p8282
atp8283
Rp8284
(dp8285
g17
VJJ
p8286
sbag5
(g6
g7
(lp8287
Vlabels
p8288
atp8289
Rp8290
(dp8291
g17
VNNS
p8292
sbatp8293
Rp8294
(dp8295
g17
VNP
p8296
sbag5
(g6
g7
(lp8297
g5
(g6
g7
(lp8298
Vare
p8299
atp8300
Rp8301
(dp8302
g17
VVBP
p8303
sbag5
(g6
g7
(lp8304
g5
(g6
g7
(lp8305
Vused
p8306
atp8307
Rp8308
(dp8309
g17
VVBN
p8310
sbatp8311
Rp8312
(dp8313
g17
VVP
p8314
sbatp8315
Rp8316
(dp8317
g17
VVP
p8318
sbatp8319
Rp8320
(dp8321
g17
g210
sbatp8322
Rp8323
(dp8324
g17
VSBAR
p8325
sbag5
(g6
g7
(lp8326
g349
atp8327
Rp8328
(dp8329
g17
g349
sbag5
(g6
g7
(lp8330
g5
(g6
g7
(lp8331
g5
(g6
g7
(lp8332
Vthe
p8333
atp8334
Rp8335
(dp8336
g17
VDT
p8337
sbag5
(g6
g7
(lp8338
Vimpact
p8339
atp8340
Rp8341
(dp8342
g17
VNN
p8343
sbatp8344
Rp8345
(dp8346
g17
VNP
p8347
sbag5
(g6
g7
(lp8348
g5
(g6
g7
(lp8349
Vof
p8350
atp8351
Rp8352
(dp8353
g17
VIN
p8354
sbag5
(g6
g7
(lp8355
g5
(g6
g7
(lp8356
Vword
p8357
atp8358
Rp8359
(dp8360
g17
VNN
p8361
sbag5
(g6
g7
(lp8362
Vrepresentations
p8363
atp8364
Rp8365
(dp8366
g17
VNNS
p8367
sbatp8368
Rp8369
(dp8370
g17
VNP
p8371
sbatp8372
Rp8373
(dp8374
g17
VPP
p8375
sbatp8376
Rp8377
(dp8378
g17
VNP
p8379
sbag5
(g6
g7
(lp8380
g5
(g6
g7
(lp8381
Vis
p8382
atp8383
Rp8384
(dp8385
g17
VVBZ
p8386
sbag5
(g6
g7
(lp8387
g5
(g6
g7
(lp8388
Vlimited
p8389
atp8390
Rp8391
(dp8392
g17
VJJ
p8393
sbatp8394
Rp8395
(dp8396
g17
VADJP
p8397
sbag5
(g6
g7
(lp8398
g5
(g6
g7
(lp8399
Vsince
p8400
atp8401
Rp8402
(dp8403
g17
VIN
p8404
sbag5
(g6
g7
(lp8405
g5
(g6
g7
(lp8406
g5
(g6
g7
(lp8407
Vthe
p8408
atp8409
Rp8410
(dp8411
g17
VDT
p8412
sbag5
(g6
g7
(lp8413
Vgold-standard
p8414
atp8415
Rp8416
(dp8417
g17
VJJ
p8418
sbag5
(g6
g7
(lp8419
Vinformation
p8420
atp8421
Rp8422
(dp8423
g17
VNN
p8424
sbatp8425
Rp8426
(dp8427
g17
VNP
p8428
sbag5
(g6
g7
(lp8429
g5
(g6
g7
(lp8430
Vseems
p8431
atp8432
Rp8433
(dp8434
g17
VVBZ
p8435
sbag5
(g6
g7
(lp8436
g5
(g6
g7
(lp8437
g5
(g6
g7
(lp8438
Vto
p8439
atp8440
Rp8441
(dp8442
g17
VTO
p8443
sbag5
(g6
g7
(lp8444
g5
(g6
g7
(lp8445
Vdominate
p8446
atp8447
Rp8448
(dp8449
g17
VVB
p8450
sbatp8451
Rp8452
(dp8453
g17
VVP
p8454
sbatp8455
Rp8456
(dp8457
g17
VVP
p8458
sbatp8459
Rp8460
(dp8461
g17
g210
sbatp8462
Rp8463
(dp8464
g17
VVP
p8465
sbatp8466
Rp8467
(dp8468
g17
g210
sbatp8469
Rp8470
(dp8471
g17
VSBAR
p8472
sbatp8473
Rp8474
(dp8475
g17
VVP
p8476
sbatp8477
Rp8478
(dp8479
g17
g210
sbatp8480
Rp8481
(dp8482
g17
VSBAR
p8483
sbatp8484
Rp8485
(dp8486
g17
VVP
p8487
sbatp8488
Rp8489
(dp8490
g17
VVP
p8491
sbatp8492
Rp8493
(dp8494
g17
g210
sbatp8495
Rp8496
(dp8497
g17
VUCP
p8498
sbatp8499
Rp8500
(dp8501
g17
VROOT
p8502
sbasg245
(icmyPackage
CorE
p8503
(dp8504
g248
(lp8505
(I0
I7
tp8506
a(I1
I37
tp8507
asg252
g5
(g6
g7
(lp8508
g7969
ag8035
ag8041
ag8071
ag8077
ag8084
ag8250
ag8257
ag8323
ag8328
atp8509
Rp8510
(dp8511
g17
g263
sbsbsg253
(icmyPackage
CorE
p8512
(dp8513
g248
(lp8514
(I0
I0
tp8515
a(I0
I5
tp8516
asg252
g5
(g6
g7
(lp8517
g7901
ag7908
ag7932
ag7939
atp8518
Rp8519
(dp8520
g17
g263
sbsbsg264
g1677
sg287
(lp8521
(isxpPackage
sxpSent
p8522
(dp8523
g291
(lp8524
I20
asg293
VWe apply the same feature set as Sun et al
p8525
sg295
I7
sg280
I60
sg296
I13
sba(isxpPackage
sxpSent
p8526
(dp8527
g291
(lp8528
I20
aI21
asg293
V[ Sun et al.2011 ] but remove the entity and mention type information 2 2 We have the same observation as Plank and Moschitti [ Plank and Moschitti2013 ] that when the gold-standard labels are used, the impact of word representations is limited since the gold-standard information seems to dominate
p8529
sg295
I7
sg280
I61
sg296
I13
sbasba(icmyPackage
CELink
p8530
(dp8531
g3
(lp8532
g8500
asg245
(icmyPackage
CorE
p8533
(dp8534
g248
(lp8535
(I0
I46
tp8536
a(I0
I51
tp8537
asg252
g8467
sbsg253
(icmyPackage
CorE
p8538
(dp8539
g248
(lp8540
(I0
I0
tp8541
a(I0
I44
tp8542
asg252
g5
(g6
g7
(lp8543
g8035
ag8041
ag8071
ag8077
ag8084
ag8250
ag8257
ag8323
ag8328
ag8377
ag8384
ag8395
atp8544
Rp8545
(dp8546
g17
g263
sbsbsg264
(icmyPackage
pattern
p8547
(dp8548
g267
I23
sg268
I1
sg269
(lp8549
(lp8550
S'since'
p8551
aasg275
(lp8552
I3
aI1
aI1
asg277
(lp8553
S'This is one of the simplest cases since the surface is so thin.'
p8554
aS'He could not answer the question, since he had not made up his mind.'
p8555
aS'That manager has been a basket case here since his wife left him.'
p8556
asg280
I79
sg281
(lp8557
(lp8558
S'&R@NCTime@'
p8559
aS'(,)'
p8560
aa(lp8561
S'&C@NCTime@'
p8562
aasbsg287
(lp8563
g8526
asba(icmyPackage
CELink
p8564
(dp8565
g3
(lp8566
g5
(g6
g7
(lp8567
g5
(g6
g7
(lp8568
g5
(g6
g7
(lp8569
g5
(g6
g7
(lp8570
VHowever
p8571
atp8572
Rp8573
(dp8574
g17
VRB
p8575
sbatp8576
Rp8577
(dp8578
g17
VADVP
p8579
sbag5
(g6
g7
(lp8580
g349
atp8581
Rp8582
(dp8583
g17
g349
sbag5
(g6
g7
(lp8584
g5
(g6
g7
(lp8585
g5
(g6
g7
(lp8586
Vwhenever
p8587
atp8588
Rp8589
(dp8590
g17
VWRB
p8591
sbatp8592
Rp8593
(dp8594
g17
VWHADVP
p8595
sbag5
(g6
g7
(lp8596
g5
(g6
g7
(lp8597
g5
(g6
g7
(lp8598
Vthe
p8599
atp8600
Rp8601
(dp8602
g17
VDT
p8603
sbag5
(g6
g7
(lp8604
Vgold
p8605
atp8606
Rp8607
(dp8608
g17
VJJ
p8609
sbag5
(g6
g7
(lp8610
Vlabels
p8611
atp8612
Rp8613
(dp8614
g17
VNNS
p8615
sbatp8616
Rp8617
(dp8618
g17
VNP
p8619
sbag5
(g6
g7
(lp8620
g5
(g6
g7
(lp8621
Vare
p8622
atp8623
Rp8624
(dp8625
g17
VVBP
p8626
sbag5
(g6
g7
(lp8627
Vnot
p8628
atp8629
Rp8630
(dp8631
g17
VRB
p8632
sbag5
(g6
g7
(lp8633
g5
(g6
g7
(lp8634
Vavailable
p8635
atp8636
Rp8637
(dp8638
g17
VJJ
p8639
sbag5
(g6
g7
(lp8640
Vor
p8641
atp8642
Rp8643
(dp8644
g17
VCC
p8645
sbag5
(g6
g7
(lp8646
Vinaccurate
p8647
atp8648
Rp8649
(dp8650
g17
VJJ
p8651
sbatp8652
Rp8653
(dp8654
g17
VADJP
p8655
sbatp8656
Rp8657
(dp8658
g17
VVP
p8659
sbatp8660
Rp8661
(dp8662
g17
g210
sbatp8663
Rp8664
(dp8665
g17
VSBAR
p8666
sbag5
(g6
g7
(lp8667
g349
atp8668
Rp8669
(dp8670
g17
g349
sbag5
(g6
g7
(lp8671
g5
(g6
g7
(lp8672
Vthe
p8673
atp8674
Rp8675
(dp8676
g17
VDT
p8677
sbag5
(g6
g7
(lp8678
Vword
p8679
atp8680
Rp8681
(dp8682
g17
VNN
p8683
sbag5
(g6
g7
(lp8684
Vrepresentations
p8685
atp8686
Rp8687
(dp8688
g17
VNNS
p8689
sbatp8690
Rp8691
(dp8692
g17
VNP
p8693
sbag5
(g6
g7
(lp8694
g5
(g6
g7
(lp8695
Vwould
p8696
atp8697
Rp8698
(dp8699
g17
VMD
p8700
sbag5
(g6
g7
(lp8701
g5
(g6
g7
(lp8702
Vbe
p8703
atp8704
Rp8705
(dp8706
g17
VVB
p8707
sbag5
(g6
g7
(lp8708
g5
(g6
g7
(lp8709
Vuseful
p8710
atp8711
Rp8712
(dp8713
g17
VJJ
p8714
sbag5
(g6
g7
(lp8715
g5
(g6
g7
(lp8716
Vfor
p8717
atp8718
Rp8719
(dp8720
g17
VIN
p8721
sbag5
(g6
g7
(lp8722
g5
(g6
g7
(lp8723
g5
(g6
g7
(lp8724
Vimproving
p8725
atp8726
Rp8727
(dp8728
g17
VVBG
p8729
sbag5
(g6
g7
(lp8730
g5
(g6
g7
(lp8731
Vadaptability
p8732
atp8733
Rp8734
(dp8735
g17
VJJ
p8736
sbag5
(g6
g7
(lp8737
Vperformance
p8738
atp8739
Rp8740
(dp8741
g17
VNN
p8742
sbatp8743
Rp8744
(dp8745
g17
VNP
p8746
sbatp8747
Rp8748
(dp8749
g17
VVP
p8750
sbatp8751
Rp8752
(dp8753
g17
g210
sbatp8754
Rp8755
(dp8756
g17
VPP
p8757
sbatp8758
Rp8759
(dp8760
g17
VADJP
p8761
sbatp8762
Rp8763
(dp8764
g17
VVP
p8765
sbatp8766
Rp8767
(dp8768
g17
VVP
p8769
sbatp8770
Rp8771
(dp8772
g17
g210
sbatp8773
Rp8774
(dp8775
g17
VROOT
p8776
sbasg245
(icmyPackage
CorE
p8777
(dp8778
g248
(lp8779
(I0
I19
tp8780
a(I0
I21
tp8781
asg252
g8752
sbsg253
(icmyPackage
CorE
p8782
(dp8783
g248
(lp8784
(I0
I0
tp8785
a(I0
I17
tp8786
asg252
g5
(g6
g7
(lp8787
g8577
ag8582
ag8664
ag8669
ag8691
ag8698
ag8705
ag8712
atp8788
Rp8789
(dp8790
g17
g263
sbsbsg264
(icmyPackage
pattern
p8791
(dp8792
g267
I25
sg268
I0
sg269
(lp8793
(lp8794
S'for'
p8795
aasg275
(lp8796
I2
aI1
aI1
asg277
(lp8797
S'She was angry with him for being late.'
p8798
asg280
I44
sg281
(lp8799
(lp8800
S'&R'
p8801
aa(lp8802
S'&V-ing@C@'
p8803
aasbsg287
(lp8804
(isxpPackage
sxpSent
p8805
(dp8806
g291
(lp8807
I22
asg293
VHowever, whenever the gold labels are not available or inaccurate, the word representations would be useful for improving adaptability performance
p8808
sg295
I7
sg280
I62
sg296
I13
sbasba(icmyPackage
CELink
p8809
(dp8810
g3
(lp8811
g5
(g6
g7
(lp8812
g5
(g6
g7
(lp8813
g5
(g6
g7
(lp8814
g5
(g6
g7
(lp8815
g5
(g6
g7
(lp8816
V-LSB-
p8817
atp8818
Rp8819
(dp8820
g17
VVB
p8821
sbag5
(g6
g7
(lp8822
g5
(g6
g7
(lp8823
g5
(g6
g7
(lp8824
VSun
p8825
atp8826
Rp8827
(dp8828
g17
VNNP
p8829
sbag5
(g6
g7
(lp8830
Vet
p8831
atp8832
Rp8833
(dp8834
g17
VFW
p8835
sbag5
(g6
g7
(lp8836
Val.
p8837
atp8838
Rp8839
(dp8840
g17
VNNP
p8841
sbag5
(g6
g7
(lp8842
V2011
p8843
atp8844
Rp8845
(dp8846
g17
VFW
p8847
sbag5
(g6
g7
(lp8848
V-RSB-
p8849
atp8850
Rp8851
(dp8852
g17
VNNP
p8853
sbatp8854
Rp8855
(dp8856
g17
VNP
p8857
sbag5
(g6
g7
(lp8858
g349
atp8859
Rp8860
(dp8861
g17
g349
sbag5
(g6
g7
(lp8862
g5
(g6
g7
(lp8863
g5
(g6
g7
(lp8864
Vwe
p8865
atp8866
Rp8867
(dp8868
g17
VPRP
p8869
sbatp8870
Rp8871
(dp8872
g17
VNP
p8873
sbag5
(g6
g7
(lp8874
g5
(g6
g7
(lp8875
Vfirst
p8876
atp8877
Rp8878
(dp8879
g17
VJJ
p8880
sbag5
(g6
g7
(lp8881
Vgroup
p8882
atp8883
Rp8884
(dp8885
g17
VNN
p8886
sbag5
(g6
g7
(lp8887
Vlexical
p8888
atp8889
Rp8890
(dp8891
g17
VNN
p8892
sbag5
(g6
g7
(lp8893
Vfeatures
p8894
atp8895
Rp8896
(dp8897
g17
VNNS
p8898
sbatp8899
Rp8900
(dp8901
g17
VNP
p8902
sbatp8903
Rp8904
(dp8905
g17
VNP
p8906
sbatp8907
Rp8908
(dp8909
g17
VNP
p8910
sbag5
(g6
g7
(lp8911
g5
(g6
g7
(lp8912
Vinto
p8913
atp8914
Rp8915
(dp8916
g17
VIN
p8917
sbag5
(g6
g7
(lp8918
g5
(g6
g7
(lp8919
V4
p8920
atp8921
Rp8922
(dp8923
g17
VCD
p8924
sbag5
(g6
g7
(lp8925
Vgroups
p8926
atp8927
Rp8928
(dp8929
g17
VNNS
p8930
sbatp8931
Rp8932
(dp8933
g17
VNP
p8934
sbatp8935
Rp8936
(dp8937
g17
VPP
p8938
sbatp8939
Rp8940
(dp8941
g17
VVP
p8942
sbag5
(g6
g7
(lp8943
Vand
p8944
atp8945
Rp8946
(dp8947
g17
VCC
p8948
sbag5
(g6
g7
(lp8949
g5
(g6
g7
(lp8950
Vrank
p8951
atp8952
Rp8953
(dp8954
g17
VVB
p8955
sbag5
(g6
g7
(lp8956
g5
(g6
g7
(lp8957
Vtheir
p8958
atp8959
Rp8960
(dp8961
g17
VPRP$
p8962
sbag5
(g6
g7
(lp8963
Vimportance
p8964
atp8965
Rp8966
(dp8967
g17
VNN
p8968
sbatp8969
Rp8970
(dp8971
g17
VNP
p8972
sbag5
(g6
g7
(lp8973
g5
(g6
g7
(lp8974
Vbased
p8975
atp8976
Rp8977
(dp8978
g17
VVBN
p8979
sbag5
(g6
g7
(lp8980
g5
(g6
g7
(lp8981
Von
p8982
atp8983
Rp8984
(dp8985
g17
VIN
p8986
sbag5
(g6
g7
(lp8987
g5
(g6
g7
(lp8988
g5
(g6
g7
(lp8989
Vlinguistic
p8990
atp8991
Rp8992
(dp8993
g17
VJJ
p8994
sbag5
(g6
g7
(lp8995
Vintuition
p8996
atp8997
Rp8998
(dp8999
g17
VNN
p9000
sbag5
(g6
g7
(lp9001
Vand
p9002
atp9003
Rp9004
(dp9005
g17
VCC
p9006
sbag5
(g6
g7
(lp9007
Villustrations
p9008
atp9009
Rp9010
(dp9011
g17
VNNS
p9012
sbatp9013
Rp9014
(dp9015
g17
VNP
p9016
sbag5
(g6
g7
(lp9017
g5
(g6
g7
(lp9018
Vof
p9019
atp9020
Rp9021
(dp9022
g17
VIN
p9023
sbag5
(g6
g7
(lp9024
g5
(g6
g7
(lp9025
g5
(g6
g7
(lp9026
Vthe
p9027
atp9028
Rp9029
(dp9030
g17
VDT
p9031
sbag5
(g6
g7
(lp9032
Vcontributions
p9033
atp9034
Rp9035
(dp9036
g17
VNNS
p9037
sbatp9038
Rp9039
(dp9040
g17
VNP
p9041
sbag5
(g6
g7
(lp9042
g5
(g6
g7
(lp9043
Vof
p9044
atp9045
Rp9046
(dp9047
g17
VIN
p9048
sbag5
(g6
g7
(lp9049
g5
(g6
g7
(lp9050
g5
(g6
g7
(lp9051
Vdifferent
p9052
atp9053
Rp9054
(dp9055
g17
VJJ
p9056
sbag5
(g6
g7
(lp9057
Vlexical
p9058
atp9059
Rp9060
(dp9061
g17
VJJ
p9062
sbag5
(g6
g7
(lp9063
Vfeatures
p9064
atp9065
Rp9066
(dp9067
g17
VNNS
p9068
sbatp9069
Rp9070
(dp9071
g17
VNP
p9072
sbag5
(g6
g7
(lp9073
g5
(g6
g7
(lp9074
Vfrom
p9075
atp9076
Rp9077
(dp9078
g17
VIN
p9079
sbag5
(g6
g7
(lp9080
g5
(g6
g7
(lp9081
Vvarious
p9082
atp9083
Rp9084
(dp9085
g17
VJJ
p9086
sbag5
(g6
g7
(lp9087
Vfeature-based
p9088
atp9089
Rp9090
(dp9091
g17
VJJ
p9092
sbag5
(g6
g7
(lp9093
VRE
p9094
atp9095
Rp9096
(dp9097
g17
VNNP
p9098
sbag5
(g6
g7
(lp9099
Vsystems
p9100
atp9101
Rp9102
(dp9103
g17
VNNS
p9104
sbatp9105
Rp9106
(dp9107
g17
VNP
p9108
sbatp9109
Rp9110
(dp9111
g17
VPP
p9112
sbatp9113
Rp9114
(dp9115
g17
VNP
p9116
sbatp9117
Rp9118
(dp9119
g17
VPP
p9120
sbatp9121
Rp9122
(dp9123
g17
VNP
p9124
sbatp9125
Rp9126
(dp9127
g17
VPP
p9128
sbatp9129
Rp9130
(dp9131
g17
VNP
p9132
sbatp9133
Rp9134
(dp9135
g17
VPP
p9136
sbatp9137
Rp9138
(dp9139
g17
VPP
p9140
sbatp9141
Rp9142
(dp9143
g17
VVP
p9144
sbatp9145
Rp9146
(dp9147
g17
VVP
p9148
sbatp9149
Rp9150
(dp9151
g17
g210
sbatp9152
Rp9153
(dp9154
g17
VROOT
p9155
sbasg245
(icmyPackage
CorE
p9156
(dp9157
g248
(lp9158
(I0
I21
tp9159
a(I0
I36
tp9160
asg252
g9130
sbsg253
(icmyPackage
CorE
p9161
(dp9162
g248
(lp9163
(I0
I0
tp9164
a(I0
I18
tp9165
asg252
g5
(g6
g7
(lp9166
g8940
ag8946
ag8953
ag8970
atp9167
Rp9168
(dp9169
g17
g263
sbsbsg264
(icmyPackage
pattern
p9170
(dp9171
g267
I0
sg268
I0
sg269
(lp9172
(lp9173
S'based'
p9174
aS'on'
p9175
aasg275
(lp9176
I2
aI1
aI1
asg277
(lp9177
S'He said he planned to announce details of legislation on Sunday based on a Republican plan that would provide a short-term solution'
p9178
asg280
I48
sg281
(lp9179
(lp9180
S'&R'
p9181
aS'(,)'
p9182
aS'(&ADV)'
p9183
aa(lp9184
S'&V-ing/&NP@C@'
p9185
aS'(&Clause@C@)'
p9186
aasbsg287
(lp9187
(isxpPackage
sxpSent
p9188
(dp9189
g291
(lp9190
I23
asg293
V[ Sun et al.2011 ] , we first group lexical features into 4 groups and rank their importance based on linguistic intuition and illustrations of the contributions of different lexical features from various feature-based RE systems
p9191
sg295
I8
sg280
I68
sg296
I14
sbasba(icmyPackage
CELink
p9192
(dp9193
g3
(lp9194
g5
(g6
g7
(lp9195
g5
(g6
g7
(lp9196
g5
(g6
g7
(lp9197
g5
(g6
g7
(lp9198
VAfter
p9199
atp9200
Rp9201
(dp9202
g17
VIN
p9203
sbag5
(g6
g7
(lp9204
g5
(g6
g7
(lp9205
Vthat
p9206
atp9207
Rp9208
(dp9209
g17
VDT
p9210
sbatp9211
Rp9212
(dp9213
g17
VNP
p9214
sbatp9215
Rp9216
(dp9217
g17
VPP
p9218
sbag5
(g6
g7
(lp9219
g349
atp9220
Rp9221
(dp9222
g17
g349
sbag5
(g6
g7
(lp9223
g5
(g6
g7
(lp9224
Vwe
p9225
atp9226
Rp9227
(dp9228
g17
VPRP
p9229
sbatp9230
Rp9231
(dp9232
g17
VNP
p9233
sbag5
(g6
g7
(lp9234
g5
(g6
g7
(lp9235
Vevaluate
p9236
atp9237
Rp9238
(dp9239
g17
VVBD
p9240
sbag5
(g6
g7
(lp9241
g5
(g6
g7
(lp9242
g5
(g6
g7
(lp9243
Vthe
p9244
atp9245
Rp9246
(dp9247
g17
VDT
p9248
sbag5
(g6
g7
(lp9249
Veffectiveness
p9250
atp9251
Rp9252
(dp9253
g17
VNN
p9254
sbatp9255
Rp9256
(dp9257
g17
VNP
p9258
sbag5
(g6
g7
(lp9259
g5
(g6
g7
(lp9260
Vof
p9261
atp9262
Rp9263
(dp9264
g17
VIN
p9265
sbag5
(g6
g7
(lp9266
g5
(g6
g7
(lp9267
g5
(g6
g7
(lp9268
Vthese
p9269
atp9270
Rp9271
(dp9272
g17
VDT
p9273
sbag5
(g6
g7
(lp9274
Vlexical
p9275
atp9276
Rp9277
(dp9278
g17
VJJ
p9279
sbag5
(g6
g7
(lp9280
Vfeature
p9281
atp9282
Rp9283
(dp9284
g17
VNN
p9285
sbag5
(g6
g7
(lp9286
Vgroups
p9287
atp9288
Rp9289
(dp9290
g17
VNNS
p9291
sbatp9292
Rp9293
(dp9294
g17
VNP
p9295
sbag5
(g6
g7
(lp9296
g5
(g6
g7
(lp9297
Vfor
p9298
atp9299
Rp9300
(dp9301
g17
VIN
p9302
sbag5
(g6
g7
(lp9303
g5
(g6
g7
(lp9304
g5
(g6
g7
(lp9305
Vword
p9306
atp9307
Rp9308
(dp9309
g17
VNN
p9310
sbag5
(g6
g7
(lp9311
Vembedding
p9312
atp9313
Rp9314
(dp9315
g17
VVBG
p9316
sbag5
(g6
g7
(lp9317
Vaugmentation
p9318
atp9319
Rp9320
(dp9321
g17
VNN
p9322
sbatp9323
Rp9324
(dp9325
g17
VNP
p9326
sbag5
(g6
g7
(lp9327
g5
(g6
g7
(lp9328
g5
(g6
g7
(lp9329
Vindividually
p9330
atp9331
Rp9332
(dp9333
g17
VRB
p9334
sbatp9335
Rp9336
(dp9337
g17
VADVP
p9338
sbag5
(g6
g7
(lp9339
Vand
p9340
atp9341
Rp9342
(dp9343
g17
VCC
p9344
sbag5
(g6
g7
(lp9345
g5
(g6
g7
(lp9346
Vincrementally
p9347
atp9348
Rp9349
(dp9350
g17
VJJ
p9351
sbatp9352
Rp9353
(dp9354
g17
VADJP
p9355
sbatp9356
Rp9357
(dp9358
g17
VUCP
p9359
sbatp9360
Rp9361
(dp9362
g17
VNP
p9363
sbatp9364
Rp9365
(dp9366
g17
VPP
p9367
sbatp9368
Rp9369
(dp9370
g17
VNP
p9371
sbatp9372
Rp9373
(dp9374
g17
VPP
p9375
sbatp9376
Rp9377
(dp9378
g17
VNP
p9379
sbag5
(g6
g7
(lp9380
g5
(g6
g7
(lp9381
Vaccording
p9382
atp9383
Rp9384
(dp9385
g17
VVBG
p9386
sbag5
(g6
g7
(lp9387
g5
(g6
g7
(lp9388
Vto
p9389
atp9390
Rp9391
(dp9392
g17
VTO
p9393
sbag5
(g6
g7
(lp9394
g5
(g6
g7
(lp9395
g5
(g6
g7
(lp9396
Vthe
p9397
atp9398
Rp9399
(dp9400
g17
VDT
p9401
sbag5
(g6
g7
(lp9402
Vrank
p9403
atp9404
Rp9405
(dp9406
g17
VNN
p9407
sbatp9408
Rp9409
(dp9410
g17
VNP
p9411
sbag5
(g6
g7
(lp9412
g5
(g6
g7
(lp9413
Vof
p9414
atp9415
Rp9416
(dp9417
g17
VIN
p9418
sbag5
(g6
g7
(lp9419
g5
(g6
g7
(lp9420
Vimportance
p9421
atp9422
Rp9423
(dp9424
g17
VNN
p9425
sbatp9426
Rp9427
(dp9428
g17
VNP
p9429
sbatp9430
Rp9431
(dp9432
g17
VPP
p9433
sbatp9434
Rp9435
(dp9436
g17
VNP
p9437
sbatp9438
Rp9439
(dp9440
g17
VPP
p9441
sbatp9442
Rp9443
(dp9444
g17
VPP
p9445
sbatp9446
Rp9447
(dp9448
g17
VVP
p9449
sbatp9450
Rp9451
(dp9452
g17
g210
sbatp9453
Rp9454
(dp9455
g17
VROOT
p9456
sbasg245
(icmyPackage
CorE
p9457
(dp9458
g248
(lp9459
(I0
I21
tp9460
a(I0
I24
tp9461
asg252
g9435
sbsg253
(icmyPackage
CorE
p9462
(dp9463
g248
(lp9464
(I0
I0
tp9465
a(I0
I18
tp9466
asg252
g5
(g6
g7
(lp9467
g9216
ag9221
ag9231
ag9238
ag9377
atp9468
Rp9469
(dp9470
g17
g263
sbsbsg264
(icmyPackage
pattern
p9471
(dp9472
g267
I0
sg268
I0
sg269
(lp9473
(lp9474
S'according'
p9475
aS'to'
p9476
aasg275
(lp9477
I2
aI1
aI1
asg277
(lp9478
S'There could be different ways to arrange pictures in displays but picture should be selected according to the core sentences and arranged near the core sentences according to the semantic locality principle.'
p9479
asg280
I55
sg281
(lp9480
(lp9481
S'&R'
p9482
aS'(,)'
p9483
aa(lp9484
S'&NP@C@'
p9485
aasbsg287
(lp9486
(isxpPackage
sxpSent
p9487
(dp9488
g291
(lp9489
I24
asg293
VAfter that, we evaluate the effectiveness of these lexical feature groups for word embedding augmentation individually and incrementally according to the rank of importance
p9490
sg295
I8
sg280
I69
sg296
I14
sbasba(icmyPackage
CELink
p9491
(dp9492
g3
(lp9493
g5
(g6
g7
(lp9494
g5
(g6
g7
(lp9495
g5
(g6
g7
(lp9496
g5
(g6
g7
(lp9497
VOur
p9498
atp9499
Rp9500
(dp9501
g17
VPRP$
p9502
sbag5
(g6
g7
(lp9503
Vrelation
p9504
atp9505
Rp9506
(dp9507
g17
VNN
p9508
sbag5
(g6
g7
(lp9509
Vextraction
p9510
atp9511
Rp9512
(dp9513
g17
VNN
p9514
sbag5
(g6
g7
(lp9515
Vsystem
p9516
atp9517
Rp9518
(dp9519
g17
VNN
p9520
sbatp9521
Rp9522
(dp9523
g17
VNP
p9524
sbag5
(g6
g7
(lp9525
g5
(g6
g7
(lp9526
Vis
p9527
atp9528
Rp9529
(dp9530
g17
VVBZ
p9531
sbag5
(g6
g7
(lp9532
g5
(g6
g7
(lp9533
g5
(g6
g7
(lp9534
Vhierarchical
p9535
atp9536
Rp9537
(dp9538
g17
VVB
p9539
sbag5
(g6
g7
(lp9540
g5
(g6
g7
(lp9541
g5
(g6
g7
(lp9542
V-LSB-
p9543
atp9544
Rp9545
(dp9546
g17
VNNP
p9547
sbag5
(g6
g7
(lp9548
VBunescu
p9549
atp9550
Rp9551
(dp9552
g17
VNNP
p9553
sbatp9554
Rp9555
(dp9556
g17
VNP
p9557
sbag5
(g6
g7
(lp9558
Vand
p9559
atp9560
Rp9561
(dp9562
g17
VCC
p9563
sbag5
(g6
g7
(lp9564
g5
(g6
g7
(lp9565
VMooney2005b
p9566
atp9567
Rp9568
(dp9569
g17
VNNP
p9570
sbag5
(g6
g7
(lp9571
g349
atp9572
Rp9573
(dp9574
g17
g349
sbag5
(g6
g7
(lp9575
VSun
p9576
atp9577
Rp9578
(dp9579
g17
VNNP
p9580
sbag5
(g6
g7
(lp9581
Vet
p9582
atp9583
Rp9584
(dp9585
g17
VCC
p9586
sbag5
(g6
g7
(lp9587
Val.
p9588
atp9589
Rp9590
(dp9591
g17
VNNP
p9592
sbag5
(g6
g7
(lp9593
V2011
p9594
atp9595
Rp9596
(dp9597
g17
VCD
p9598
sbag5
(g6
g7
(lp9599
V-RSB-
p9600
atp9601
Rp9602
(dp9603
g17
VNNP
p9604
sbatp9605
Rp9606
(dp9607
g17
VNP
p9608
sbatp9609
Rp9610
(dp9611
g17
VNP
p9612
sbatp9613
Rp9614
(dp9615
g17
VVP
p9616
sbag5
(g6
g7
(lp9617
Vand
p9618
atp9619
Rp9620
(dp9621
g17
VCC
p9622
sbag5
(g6
g7
(lp9623
g5
(g6
g7
(lp9624
Vapply
p9625
atp9626
Rp9627
(dp9628
g17
VVB
p9629
sbag5
(g6
g7
(lp9630
g5
(g6
g7
(lp9631
g5
(g6
g7
(lp9632
g5
(g6
g7
(lp9633
Vmaximum
p9634
atp9635
Rp9636
(dp9637
g17
VJJ
p9638
sbag5
(g6
g7
(lp9639
Ventropy
p9640
atp9641
Rp9642
(dp9643
g17
VNN
p9644
sbatp9645
Rp9646
(dp9647
g17
VNP
p9648
sbag5
(g6
g7
(lp9649
g5
(g6
g7
(lp9650
V-LRB-
p9651
atp9652
Rp9653
(dp9654
g17
V-LRB-
p9655
sbag5
(g6
g7
(lp9656
g5
(g6
g7
(lp9657
VMaxEnt
p9658
atp9659
Rp9660
(dp9661
g17
VNNP
p9662
sbatp9663
Rp9664
(dp9665
g17
VNP
p9666
sbag5
(g6
g7
(lp9667
V-RRB-
p9668
atp9669
Rp9670
(dp9671
g17
V-RRB-
p9672
sbatp9673
Rp9674
(dp9675
g17
VPRN
p9676
sbatp9677
Rp9678
(dp9679
g17
VNP
p9680
sbag5
(g6
g7
(lp9681
g5
(g6
g7
(lp9682
Vin
p9683
atp9684
Rp9685
(dp9686
g17
VIN
p9687
sbag5
(g6
g7
(lp9688
g5
(g6
g7
(lp9689
Vthe
p9690
atp9691
Rp9692
(dp9693
g17
VDT
p9694
sbag5
(g6
g7
(lp9695
VMALLET
p9696
atp9697
Rp9698
(dp9699
g17
VJJ
p9700
sbag5
(g6
g7
(lp9701
g5
(g6
g7
(lp9702
g5
(g6
g7
(lp9703
V3
p9704
atp9705
Rp9706
(dp9707
g17
VCD
p9708
sbag5
(g6
g7
(lp9709
g9704
atp9710
Rp9711
(dp9712
g17
VCD
p9713
sbatp9714
Rp9715
(dp9716
g17
VQP
p9717
sbatp9718
Rp9719
(dp9720
g17
VADJP
p9721
sbag5
(g6
g7
(lp9722
Vhttp://mallet.cs.umass.edu/
p9723
atp9724
Rp9725
(dp9726
g17
VJJ
p9727
sbag5
(g6
g7
(lp9728
Vtoolkit
p9729
atp9730
Rp9731
(dp9732
g17
VNN
p9733
sbatp9734
Rp9735
(dp9736
g17
VNP
p9737
sbatp9738
Rp9739
(dp9740
g17
VPP
p9741
sbatp9742
Rp9743
(dp9744
g17
VNP
p9745
sbag5
(g6
g7
(lp9746
g5
(g6
g7
(lp9747
Vas
p9748
atp9749
Rp9750
(dp9751
g17
VIN
p9752
sbag5
(g6
g7
(lp9753
g5
(g6
g7
(lp9754
g5
(g6
g7
(lp9755
Vthe
p9756
atp9757
Rp9758
(dp9759
g17
VDT
p9760
sbag5
(g6
g7
(lp9761
Vmachine
p9762
atp9763
Rp9764
(dp9765
g17
VNN
p9766
sbatp9767
Rp9768
(dp9769
g17
VNP
p9770
sbag5
(g6
g7
(lp9771
g5
(g6
g7
(lp9772
Vlearning
p9773
atp9774
Rp9775
(dp9776
g17
VVBG
p9777
sbag5
(g6
g7
(lp9778
g5
(g6
g7
(lp9779
Vtool
p9780
atp9781
Rp9782
(dp9783
g17
VNN
p9784
sbatp9785
Rp9786
(dp9787
g17
VNP
p9788
sbatp9789
Rp9790
(dp9791
g17
VVP
p9792
sbatp9793
Rp9794
(dp9795
g17
VNP
p9796
sbatp9797
Rp9798
(dp9799
g17
VPP
p9800
sbatp9801
Rp9802
(dp9803
g17
VVP
p9804
sbatp9805
Rp9806
(dp9807
g17
VVP
p9808
sbatp9809
Rp9810
(dp9811
g17
VVP
p9812
sbatp9813
Rp9814
(dp9815
g17
g210
sbatp9816
Rp9817
(dp9818
g17
VROOT
p9819
sbag5
(g6
g7
(lp9820
g5
(g6
g7
(lp9821
g5
(g6
g7
(lp9822
g5
(g6
g7
(lp9823
VFor
p9824
atp9825
Rp9826
(dp9827
g17
VIN
p9828
sbag5
(g6
g7
(lp9829
g5
(g6
g7
(lp9830
VBrown
p9831
atp9832
Rp9833
(dp9834
g17
VNNP
p9835
sbag5
(g6
g7
(lp9836
Vword
p9837
atp9838
Rp9839
(dp9840
g17
VNN
p9841
sbag5
(g6
g7
(lp9842
Vclusters
p9843
atp9844
Rp9845
(dp9846
g17
VNNS
p9847
sbatp9848
Rp9849
(dp9850
g17
VNP
p9851
sbatp9852
Rp9853
(dp9854
g17
VPP
p9855
sbag5
(g6
g7
(lp9856
g349
atp9857
Rp9858
(dp9859
g17
g349
sbag5
(g6
g7
(lp9860
g5
(g6
g7
(lp9861
Vwe
p9862
atp9863
Rp9864
(dp9865
g17
VPRP
p9866
sbatp9867
Rp9868
(dp9869
g17
VNP
p9870
sbag5
(g6
g7
(lp9871
g5
(g6
g7
(lp9872
Vdirectly
p9873
atp9874
Rp9875
(dp9876
g17
VRB
p9877
sbatp9878
Rp9879
(dp9880
g17
VADVP
p9881
sbag5
(g6
g7
(lp9882
g5
(g6
g7
(lp9883
Vapply
p9884
atp9885
Rp9886
(dp9887
g17
VVBP
p9888
sbag5
(g6
g7
(lp9889
g5
(g6
g7
(lp9890
g5
(g6
g7
(lp9891
Vthe
p9892
atp9893
Rp9894
(dp9895
g17
VDT
p9896
sbag5
(g6
g7
(lp9897
Vclustering
p9898
atp9899
Rp9900
(dp9901
g17
VNN
p9902
sbatp9903
Rp9904
(dp9905
g17
VNP
p9906
sbag5
(g6
g7
(lp9907
g5
(g6
g7
(lp9908
Vtrained
p9909
atp9910
Rp9911
(dp9912
g17
VVBN
p9913
sbag5
(g6
g7
(lp9914
g5
(g6
g7
(lp9915
Vby
p9916
atp9917
Rp9918
(dp9919
g17
VIN
p9920
sbag5
(g6
g7
(lp9921
g5
(g6
g7
(lp9922
g5
(g6
g7
(lp9923
VPlank
p9924
atp9925
Rp9926
(dp9927
g17
VNNP
p9928
sbatp9929
Rp9930
(dp9931
g17
VNP
p9932
sbag5
(g6
g7
(lp9933
Vand
p9934
atp9935
Rp9936
(dp9937
g17
VCC
p9938
sbag5
(g6
g7
(lp9939
g5
(g6
g7
(lp9940
VMoschitti
p9941
atp9942
Rp9943
(dp9944
g17
VNNP
p9945
sbag5
(g6
g7
(lp9946
V-LSB-
p9947
atp9948
Rp9949
(dp9950
g17
VNNP
p9951
sbag5
(g6
g7
(lp9952
VPlank
p9953
atp9954
Rp9955
(dp9956
g17
VNNP
p9957
sbag5
(g6
g7
(lp9958
Vand
p9959
atp9960
Rp9961
(dp9962
g17
VCC
p9963
sbag5
(g6
g7
(lp9964
VMoschitti2013
p9965
atp9966
Rp9967
(dp9968
g17
VNNP
p9969
sbag5
(g6
g7
(lp9970
V-RSB-
p9971
atp9972
Rp9973
(dp9974
g17
VNNP
p9975
sbatp9976
Rp9977
(dp9978
g17
VNP
p9979
sbatp9980
Rp9981
(dp9982
g17
VNP
p9983
sbatp9984
Rp9985
(dp9986
g17
VPP
p9987
sbag5
(g6
g7
(lp9988
g5
(g6
g7
(lp9989
g5
(g6
g7
(lp9990
Vto
p9991
atp9992
Rp9993
(dp9994
g17
VTO
p9995
sbag5
(g6
g7
(lp9996
g5
(g6
g7
(lp9997
Vfacilitate
p9998
atp9999
Rp10000
(dp10001
g17
VVB
p10002
sbag5
(g6
g7
(lp10003
g5
(g6
g7
(lp10004
Vsystem
p10005
atp10006
Rp10007
(dp10008
g17
VNN
p10009
sbag5
(g6
g7
(lp10010
Vcomparison
p10011
atp10012
Rp10013
(dp10014
g17
VNN
p10015
sbatp10016
Rp10017
(dp10018
g17
VNP
p10019
sbag5
(g6
g7
(lp10020
g5
(g6
g7
(lp10021
Vlater
p10022
atp10023
Rp10024
(dp10025
g17
VRB
p10026
sbatp10027
Rp10028
(dp10029
g17
VADVP
p10030
sbatp10031
Rp10032
(dp10033
g17
VVP
p10034
sbatp10035
Rp10036
(dp10037
g17
VVP
p10038
sbatp10039
Rp10040
(dp10041
g17
g210
sbatp10042
Rp10043
(dp10044
g17
VVP
p10045
sbatp10046
Rp10047
(dp10048
g17
VNP
p10049
sbatp10050
Rp10051
(dp10052
g17
VVP
p10053
sbatp10054
Rp10055
(dp10056
g17
g210
sbatp10057
Rp10058
(dp10059
g17
VROOT
p10060
sbasg245
(icmyPackage
CorE
p10061
(dp10062
g248
(lp10063
(I0
I31
tp10064
a(I1
I23
tp10065
asg252
g5
(g6
g7
(lp10066
g9794
ag9853
ag9858
ag9868
ag9879
ag9886
ag9904
ag9911
ag9985
ag9993
ag10000
ag10017
atp10067
Rp10068
(dp10069
g17
g263
sbsbsg253
(icmyPackage
CorE
p10070
(dp10071
g248
(lp10072
(I0
I0
tp10073
a(I0
I29
tp10074
asg252
g5
(g6
g7
(lp10075
g9522
ag9529
ag9614
ag9620
ag9627
ag9743
atp10076
Rp10077
(dp10078
g17
g263
sbsbsg264
g1677
sg287
(lp10079
(isxpPackage
sxpSent
p10080
(dp10081
g291
(lp10082
I25
asg293
VOur relation extraction system is hierarchical [ Bunescu and Mooney2005b , Sun et al.2011 ] and apply maximum entropy (MaxEnt) in the MALLET 3 3 http://mallet.cs.umass.edu/ toolkit as the machine learning tool
p10083
sg295
I10
sg280
I73
sg296
I15
sba(isxpPackage
sxpSent
p10084
(dp10085
g291
(lp10086
I25
asg293
VFor Brown word clusters, we directly apply the clustering trained by Plank and Moschitti [ Plank and Moschitti2013 ] to facilitate system comparison later
p10087
sg295
I10
sg280
I74
sg296
I15
sbasba(icmyPackage
CELink
p10088
(dp10089
g3
(lp10090
g5
(g6
g7
(lp10091
g5
(g6
g7
(lp10092
g5
(g6
g7
(lp10093
g5
(g6
g7
(lp10094
VWe
p10095
atp10096
Rp10097
(dp10098
g17
VPRP
p10099
sbatp10100
Rp10101
(dp10102
g17
VNP
p10103
sbag5
(g6
g7
(lp10104
g5
(g6
g7
(lp10105
Vuse
p10106
atp10107
Rp10108
(dp10109
g17
VVBP
p10110
sbag5
(g6
g7
(lp10111
g5
(g6
g7
(lp10112
g5
(g6
g7
(lp10113
Vthe
p10114
atp10115
Rp10116
(dp10117
g17
VDT
p10118
sbag5
(g6
g7
(lp10119
VACE
p10120
atp10121
Rp10122
(dp10123
g17
VNNP
p10124
sbag5
(g6
g7
(lp10125
V2005
p10126
atp10127
Rp10128
(dp10129
g17
VCD
p10130
sbag5
(g6
g7
(lp10131
Vcorpus
p10132
atp10133
Rp10134
(dp10135
g17
VNN
p10136
sbatp10137
Rp10138
(dp10139
g17
VNP
p10140
sbag5
(g6
g7
(lp10141
g5
(g6
g7
(lp10142
Vfor
p10143
atp10144
Rp10145
(dp10146
g17
VIN
p10147
sbag5
(g6
g7
(lp10148
g5
(g6
g7
(lp10149
g5
(g6
g7
(lp10150
VDA
p10151
atp10152
Rp10153
(dp10154
g17
VNNP
p10155
sbag5
(g6
g7
(lp10156
Vexperiments
p10157
atp10158
Rp10159
(dp10160
g17
VNNS
p10161
sbatp10162
Rp10163
(dp10164
g17
VNP
p10165
sbag5
(g6
g7
(lp10166
g5
(g6
g7
(lp10167
V-LRB-
p10168
atp10169
Rp10170
(dp10171
g17
V-LRB-
p10172
sbag5
(g6
g7
(lp10173
g5
(g6
g7
(lp10174
g5
(g6
g7
(lp10175
Vas
p10176
atp10177
Rp10178
(dp10179
g17
VRB
p10180
sbag5
(g6
g7
(lp10181
g5
(g6
g7
(lp10182
Vin
p10183
atp10184
Rp10185
(dp10186
g17
VIN
p10187
sbag5
(g6
g7
(lp10188
g5
(g6
g7
(lp10189
VPlank
p10190
atp10191
Rp10192
(dp10193
g17
VNNP
p10194
sbatp10195
Rp10196
(dp10197
g17
VNP
p10198
sbatp10199
Rp10200
(dp10201
g17
VPP
p10202
sbatp10203
Rp10204
(dp10205
g17
VADVP
p10206
sbag5
(g6
g7
(lp10207
Vand
p10208
atp10209
Rp10210
(dp10211
g17
VCC
p10212
sbag5
(g6
g7
(lp10213
g5
(g6
g7
(lp10214
g5
(g6
g7
(lp10215
VMoschitti
p10216
atp10217
Rp10218
(dp10219
g17
VNNP
p10220
sbag5
(g6
g7
(lp10221
V-LSB-
p10222
atp10223
Rp10224
(dp10225
g17
VNNP
p10226
sbag5
(g6
g7
(lp10227
VPlank
p10228
atp10229
Rp10230
(dp10231
g17
VNNP
p10232
sbatp10233
Rp10234
(dp10235
g17
VNP
p10236
sbag5
(g6
g7
(lp10237
Vand
p10238
atp10239
Rp10240
(dp10241
g17
VCC
p10242
sbag5
(g6
g7
(lp10243
g5
(g6
g7
(lp10244
VMoschitti2013
p10245
atp10246
Rp10247
(dp10248
g17
VNNP
p10249
sbag5
(g6
g7
(lp10250
V-RSB-
p10251
atp10252
Rp10253
(dp10254
g17
VNNP
p10255
sbatp10256
Rp10257
(dp10258
g17
VNP
p10259
sbatp10260
Rp10261
(dp10262
g17
VNP
p10263
sbatp10264
Rp10265
(dp10266
g17
VUCP
p10267
sbatp10268
Rp10269
(dp10270
g17
VPRN
p10271
sbatp10272
Rp10273
(dp10274
g17
VNP
p10275
sbatp10276
Rp10277
(dp10278
g17
VPP
p10279
sbatp10280
Rp10281
(dp10282
g17
VNP
p10283
sbatp10284
Rp10285
(dp10286
g17
VVP
p10287
sbatp10288
Rp10289
(dp10290
g17
g210
sbatp10291
Rp10292
(dp10293
g17
VROOT
p10294
sbag5
(g6
g7
(lp10295
g5
(g6
g7
(lp10296
g5
(g6
g7
(lp10297
g5
(g6
g7
(lp10298
VIt
p10299
atp10300
Rp10301
(dp10302
g17
VPRP
p10303
sbatp10304
Rp10305
(dp10306
g17
VNP
p10307
sbag5
(g6
g7
(lp10308
g5
(g6
g7
(lp10309
Vinvolves
p10310
atp10311
Rp10312
(dp10313
g17
VVBZ
p10314
sbag5
(g6
g7
(lp10315
g5
(g6
g7
(lp10316
g5
(g6
g7
(lp10317
V6
p10318
atp10319
Rp10320
(dp10321
g17
VCD
p10322
sbag5
(g6
g7
(lp10323
Vrelation
p10324
atp10325
Rp10326
(dp10327
g17
VNN
p10328
sbag5
(g6
g7
(lp10329
Vtypes
p10330
atp10331
Rp10332
(dp10333
g17
VNNS
p10334
sbatp10335
Rp10336
(dp10337
g17
VNP
p10338
sbag5
(g6
g7
(lp10339
Vand
p10340
atp10341
Rp10342
(dp10343
g17
VCC
p10344
sbag5
(g6
g7
(lp10345
g5
(g6
g7
(lp10346
g5
(g6
g7
(lp10347
g5
(g6
g7
(lp10348
g10318
atp10349
Rp10350
(dp10351
g17
VCD
p10352
sbag5
(g6
g7
(lp10353
Vdomains
p10354
atp10355
Rp10356
(dp10357
g17
VNNS
p10358
sbag5
(g6
g7
(lp10359
Vbroadcast
p10360
atp10361
Rp10362
(dp10363
g17
VNN
p10364
sbag5
(g6
g7
(lp10365
Vnews
p10366
atp10367
Rp10368
(dp10369
g17
VNN
p10370
sbatp10371
Rp10372
(dp10373
g17
VNP
p10374
sbag5
(g6
g7
(lp10375
g5
(g6
g7
(lp10376
V-LRB-
p10377
atp10378
Rp10379
(dp10380
g17
V-LRB-
p10381
sbag5
(g6
g7
(lp10382
g5
(g6
g7
(lp10383
Vbn
p10384
atp10385
Rp10386
(dp10387
g17
VNN
p10388
sbatp10389
Rp10390
(dp10391
g17
VNP
p10392
sbag5
(g6
g7
(lp10393
V-RRB-
p10394
atp10395
Rp10396
(dp10397
g17
V-RRB-
p10398
sbatp10399
Rp10400
(dp10401
g17
VPRN
p10402
sbatp10403
Rp10404
(dp10405
g17
VNP
p10406
sbag5
(g6
g7
(lp10407
g349
atp10408
Rp10409
(dp10410
g17
g349
sbag5
(g6
g7
(lp10411
g5
(g6
g7
(lp10412
g5
(g6
g7
(lp10413
Vnewswire
p10414
atp10415
Rp10416
(dp10417
g17
VNN
p10418
sbatp10419
Rp10420
(dp10421
g17
VNP
p10422
sbag5
(g6
g7
(lp10423
g5
(g6
g7
(lp10424
V-LRB-
p10425
atp10426
Rp10427
(dp10428
g17
V-LRB-
p10429
sbag5
(g6
g7
(lp10430
g5
(g6
g7
(lp10431
Vnw
p10432
atp10433
Rp10434
(dp10435
g17
VNN
p10436
sbatp10437
Rp10438
(dp10439
g17
VNP
p10440
sbag5
(g6
g7
(lp10441
V-RRB-
p10442
atp10443
Rp10444
(dp10445
g17
V-RRB-
p10446
sbatp10447
Rp10448
(dp10449
g17
VPRN
p10450
sbatp10451
Rp10452
(dp10453
g17
VNP
p10454
sbag5
(g6
g7
(lp10455
g349
atp10456
Rp10457
(dp10458
g17
g349
sbag5
(g6
g7
(lp10459
g5
(g6
g7
(lp10460
g5
(g6
g7
(lp10461
Vbroadcast
p10462
atp10463
Rp10464
(dp10465
g17
VNN
p10466
sbag5
(g6
g7
(lp10467
Vconversation
p10468
atp10469
Rp10470
(dp10471
g17
VNN
p10472
sbatp10473
Rp10474
(dp10475
g17
VNP
p10476
sbag5
(g6
g7
(lp10477
g5
(g6
g7
(lp10478
V-LRB-
p10479
atp10480
Rp10481
(dp10482
g17
V-LRB-
p10483
sbag5
(g6
g7
(lp10484
g5
(g6
g7
(lp10485
Vbc
p10486
atp10487
Rp10488
(dp10489
g17
VNN
p10490
sbatp10491
Rp10492
(dp10493
g17
VNP
p10494
sbag5
(g6
g7
(lp10495
V-RRB-
p10496
atp10497
Rp10498
(dp10499
g17
V-RRB-
p10500
sbatp10501
Rp10502
(dp10503
g17
VPRN
p10504
sbatp10505
Rp10506
(dp10507
g17
VNP
p10508
sbag5
(g6
g7
(lp10509
g349
atp10510
Rp10511
(dp10512
g17
g349
sbag5
(g6
g7
(lp10513
g5
(g6
g7
(lp10514
g5
(g6
g7
(lp10515
Vtelephone
p10516
atp10517
Rp10518
(dp10519
g17
VNN
p10520
sbag5
(g6
g7
(lp10521
Vconversation
p10522
atp10523
Rp10524
(dp10525
g17
VNN
p10526
sbatp10527
Rp10528
(dp10529
g17
VNP
p10530
sbag5
(g6
g7
(lp10531
g5
(g6
g7
(lp10532
V-LRB-
p10533
atp10534
Rp10535
(dp10536
g17
V-LRB-
p10537
sbag5
(g6
g7
(lp10538
g5
(g6
g7
(lp10539
Vcts
p10540
atp10541
Rp10542
(dp10543
g17
VNN
p10544
sbatp10545
Rp10546
(dp10547
g17
VNP
p10548
sbag5
(g6
g7
(lp10549
V-RRB-
p10550
atp10551
Rp10552
(dp10553
g17
V-RRB-
p10554
sbatp10555
Rp10556
(dp10557
g17
VPRN
p10558
sbatp10559
Rp10560
(dp10561
g17
VNP
p10562
sbag5
(g6
g7
(lp10563
g349
atp10564
Rp10565
(dp10566
g17
g349
sbag5
(g6
g7
(lp10567
g5
(g6
g7
(lp10568
g5
(g6
g7
(lp10569
Vweblogs
p10570
atp10571
Rp10572
(dp10573
g17
VNNS
p10574
sbatp10575
Rp10576
(dp10577
g17
VNP
p10578
sbag5
(g6
g7
(lp10579
g5
(g6
g7
(lp10580
V-LRB-
p10581
atp10582
Rp10583
(dp10584
g17
V-LRB-
p10585
sbag5
(g6
g7
(lp10586
g5
(g6
g7
(lp10587
Vwl
p10588
atp10589
Rp10590
(dp10591
g17
VNN
p10592
sbatp10593
Rp10594
(dp10595
g17
VNP
p10596
sbag5
(g6
g7
(lp10597
V-RRB-
p10598
atp10599
Rp10600
(dp10601
g17
V-RRB-
p10602
sbatp10603
Rp10604
(dp10605
g17
VPRN
p10606
sbatp10607
Rp10608
(dp10609
g17
VNP
p10610
sbag5
(g6
g7
(lp10611
Vand
p10612
atp10613
Rp10614
(dp10615
g17
VCC
p10616
sbag5
(g6
g7
(lp10617
g5
(g6
g7
(lp10618
Vusenet
p10619
atp10620
Rp10621
(dp10622
g17
VNNP
p10623
sbag5
(g6
g7
(lp10624
V-LRB-
p10625
atp10626
Rp10627
(dp10628
g17
V-LRB-
p10629
sbag5
(g6
g7
(lp10630
Vun
p10631
atp10632
Rp10633
(dp10634
g17
VNNP
p10635
sbatp10636
Rp10637
(dp10638
g17
VNP
p10639
sbatp10640
Rp10641
(dp10642
g17
VNP
p10643
sbatp10644
Rp10645
(dp10646
g17
VNP
p10647
sbatp10648
Rp10649
(dp10650
g17
VVP
p10651
sbatp10652
Rp10653
(dp10654
g17
g210
sbatp10655
Rp10656
(dp10657
g17
VROOT
p10658
sbasg245
(icmyPackage
CorE
p10659
(dp10660
g248
(lp10661
(I0
I11
tp10662
a(I1
I37
tp10663
asg252
g5
(g6
g7
(lp10664
g10200
ag10210
ag10261
ag10305
ag10312
ag10336
ag10342
ag10404
ag10409
ag10452
ag10457
ag10506
ag10511
ag10560
ag10565
ag10608
ag10614
ag10621
ag10627
atp10665
Rp10666
(dp10667
g17
g263
sbsbsg253
(icmyPackage
CorE
p10668
(dp10669
g248
(lp10670
(I0
I0
tp10671
a(I0
I9
tp10672
asg252
g5
(g6
g7
(lp10673
g10101
ag10108
ag10138
ag10145
ag10163
ag10170
atp10674
Rp10675
(dp10676
g17
g263
sbsbsg264
g1677
sg287
(lp10677
(isxpPackage
sxpSent
p10678
(dp10679
g291
(lp10680
I26
asg293
VWe use the ACE 2005 corpus for DA experiments (as in Plank and Moschitti [ Plank and Moschitti2013 ]
p10681
sg295
I10
sg280
I78
sg296
I16
sba(isxpPackage
sxpSent
p10682
(dp10683
g291
(lp10684
I26
asg293
VIt involves 6 relation types and 6 domains broadcast news (bn), newswire (nw), broadcast conversation (bc), telephone conversation (cts), weblogs (wl) and usenet (un
p10685
sg295
I10
sg280
I79
sg296
I16
sbasba(icmyPackage
CELink
p10686
(dp10687
g3
(lp10688
g5
(g6
g7
(lp10689
g5
(g6
g7
(lp10690
g5
(g6
g7
(lp10691
g5
(g6
g7
(lp10692
VWe
p10693
atp10694
Rp10695
(dp10696
g17
VPRP
p10697
sbatp10698
Rp10699
(dp10700
g17
VNP
p10701
sbag5
(g6
g7
(lp10702
g5
(g6
g7
(lp10703
Vfollow
p10704
atp10705
Rp10706
(dp10707
g17
VVBP
p10708
sbag5
(g6
g7
(lp10709
g5
(g6
g7
(lp10710
g5
(g6
g7
(lp10711
g5
(g6
g7
(lp10712
Vthe
p10713
atp10714
Rp10715
(dp10716
g17
VDT
p10717
sbag5
(g6
g7
(lp10718
Vstandard
p10719
atp10720
Rp10721
(dp10722
g17
VJJ
p10723
sbag5
(g6
g7
(lp10724
Vpractices
p10725
atp10726
Rp10727
(dp10728
g17
VNNS
p10729
sbatp10730
Rp10731
(dp10732
g17
VNP
p10733
sbag5
(g6
g7
(lp10734
g5
(g6
g7
(lp10735
Von
p10736
atp10737
Rp10738
(dp10739
g17
VIN
p10740
sbag5
(g6
g7
(lp10741
g5
(g6
g7
(lp10742
VACE
p10743
atp10744
Rp10745
(dp10746
g17
VNNP
p10747
sbag5
(g6
g7
(lp10748
V-LSB-
p10749
atp10750
Rp10751
(dp10752
g17
VNNP
p10753
sbag5
(g6
g7
(lp10754
VPlank
p10755
atp10756
Rp10757
(dp10758
g17
VNNP
p10759
sbag5
(g6
g7
(lp10760
Vand
p10761
atp10762
Rp10763
(dp10764
g17
VCC
p10765
sbag5
(g6
g7
(lp10766
VMoschitti2013
p10767
atp10768
Rp10769
(dp10770
g17
VNNP
p10771
sbag5
(g6
g7
(lp10772
V-RSB-
p10773
atp10774
Rp10775
(dp10776
g17
VNNP
p10777
sbatp10778
Rp10779
(dp10780
g17
VNP
p10781
sbatp10782
Rp10783
(dp10784
g17
VPP
p10785
sbatp10786
Rp10787
(dp10788
g17
VNP
p10789
sbag5
(g6
g7
(lp10790
Vand
p10791
atp10792
Rp10793
(dp10794
g17
VCC
p10795
sbag5
(g6
g7
(lp10796
g5
(g6
g7
(lp10797
g5
(g6
g7
(lp10798
g5
(g6
g7
(lp10799
g5
(g6
g7
(lp10800
Vuse
p10801
atp10802
Rp10803
(dp10804
g17
VNN
p10805
sbag5
(g6
g7
(lp10806
Vnews
p10807
atp10808
Rp10809
(dp10810
g17
VNN
p10811
sbatp10812
Rp10813
(dp10814
g17
VNP
p10815
sbag5
(g6
g7
(lp10816
g5
(g6
g7
(lp10817
V-LRB-
p10818
atp10819
Rp10820
(dp10821
g17
V-LRB-
p10822
sbag5
(g6
g7
(lp10823
g5
(g6
g7
(lp10824
g5
(g6
g7
(lp10825
Vthe
p10826
atp10827
Rp10828
(dp10829
g17
VDT
p10830
sbag5
(g6
g7
(lp10831
Vunion
p10832
atp10833
Rp10834
(dp10835
g17
VNN
p10836
sbatp10837
Rp10838
(dp10839
g17
VNP
p10840
sbag5
(g6
g7
(lp10841
g5
(g6
g7
(lp10842
Vof
p10843
atp10844
Rp10845
(dp10846
g17
VIN
p10847
sbag5
(g6
g7
(lp10848
g5
(g6
g7
(lp10849
Vbn
p10850
atp10851
Rp10852
(dp10853
g17
VNN
p10854
sbag5
(g6
g7
(lp10855
Vand
p10856
atp10857
Rp10858
(dp10859
g17
VCC
p10860
sbag5
(g6
g7
(lp10861
Vnw
p10862
atp10863
Rp10864
(dp10865
g17
VNN
p10866
sbatp10867
Rp10868
(dp10869
g17
VNP
p10870
sbatp10871
Rp10872
(dp10873
g17
VPP
p10874
sbatp10875
Rp10876
(dp10877
g17
VNP
p10878
sbag5
(g6
g7
(lp10879
V-RRB-
p10880
atp10881
Rp10882
(dp10883
g17
V-RRB-
p10884
sbatp10885
Rp10886
(dp10887
g17
VPRN
p10888
sbatp10889
Rp10890
(dp10891
g17
VNP
p10892
sbag5
(g6
g7
(lp10893
g5
(g6
g7
(lp10894
Vas
p10895
atp10896
Rp10897
(dp10898
g17
VIN
p10899
sbag5
(g6
g7
(lp10900
g5
(g6
g7
(lp10901
Vthe
p10902
atp10903
Rp10904
(dp10905
g17
VDT
p10906
sbag5
(g6
g7
(lp10907
Vsource
p10908
atp10909
Rp10910
(dp10911
g17
VNN
p10912
sbag5
(g6
g7
(lp10913
Vdomain
p10914
atp10915
Rp10916
(dp10917
g17
VNN
p10918
sbatp10919
Rp10920
(dp10921
g17
VNP
p10922
sbatp10923
Rp10924
(dp10925
g17
VPP
p10926
sbatp10927
Rp10928
(dp10929
g17
VNP
p10930
sbag5
(g6
g7
(lp10931
Vand
p10932
atp10933
Rp10934
(dp10935
g17
VCC
p10936
sbag5
(g6
g7
(lp10937
g5
(g6
g7
(lp10938
g5
(g6
g7
(lp10939
Vbc
p10940
atp10941
Rp10942
(dp10943
g17
VNN
p10944
sbag5
(g6
g7
(lp10945
g349
atp10946
Rp10947
(dp10948
g17
g349
sbag5
(g6
g7
(lp10949
Vcts
p10950
atp10951
Rp10952
(dp10953
g17
VNN
p10954
sbag5
(g6
g7
(lp10955
Vand
p10956
atp10957
Rp10958
(dp10959
g17
VCC
p10960
sbag5
(g6
g7
(lp10961
Vwl
p10962
atp10963
Rp10964
(dp10965
g17
VNN
p10966
sbatp10967
Rp10968
(dp10969
g17
VNP
p10970
sbag5
(g6
g7
(lp10971
g5
(g6
g7
(lp10972
Vas
p10973
atp10974
Rp10975
(dp10976
g17
VIN
p10977
sbag5
(g6
g7
(lp10978
g5
(g6
g7
(lp10979
Vour
p10980
atp10981
Rp10982
(dp10983
g17
VPRP$
p10984
sbag5
(g6
g7
(lp10985
Vtarget
p10986
atp10987
Rp10988
(dp10989
g17
VNN
p10990
sbag5
(g6
g7
(lp10991
Vdomains
p10992
atp10993
Rp10994
(dp10995
g17
VNNS
p10996
sbatp10997
Rp10998
(dp10999
g17
VNP
p11000
sbatp11001
Rp11002
(dp11003
g17
VPP
p11004
sbatp11005
Rp11006
(dp11007
g17
VNP
p11008
sbatp11009
Rp11010
(dp11011
g17
VNP
p11012
sbatp11013
Rp11014
(dp11015
g17
VNP
p11016
sbatp11017
Rp11018
(dp11019
g17
VVP
p11020
sbatp11021
Rp11022
(dp11023
g17
g210
sbatp11024
Rp11025
(dp11026
g17
VROOT
p11027
sbag5
(g6
g7
(lp11028
g5
(g6
g7
(lp11029
g5
(g6
g7
(lp11030
g5
(g6
g7
(lp11031
VWe
p11032
atp11033
Rp11034
(dp11035
g17
VPRP
p11036
sbatp11037
Rp11038
(dp11039
g17
VNP
p11040
sbag5
(g6
g7
(lp11041
g5
(g6
g7
(lp11042
Vtake
p11043
atp11044
Rp11045
(dp11046
g17
VVBP
p11047
sbag5
(g6
g7
(lp11048
g5
(g6
g7
(lp11049
g5
(g6
g7
(lp11050
Vhalf
p11051
atp11052
Rp11053
(dp11054
g17
VNN
p11055
sbatp11056
Rp11057
(dp11058
g17
VNP
p11059
sbag5
(g6
g7
(lp11060
g5
(g6
g7
(lp11061
Vof
p11062
atp11063
Rp11064
(dp11065
g17
VIN
p11066
sbag5
(g6
g7
(lp11067
g5
(g6
g7
(lp11068
Vbc
p11069
atp11070
Rp11071
(dp11072
g17
VNN
p11073
sbatp11074
Rp11075
(dp11076
g17
VNP
p11077
sbatp11078
Rp11079
(dp11080
g17
VPP
p11081
sbatp11082
Rp11083
(dp11084
g17
VNP
p11085
sbag5
(g6
g7
(lp11086
g5
(g6
g7
(lp11087
Vas
p11088
atp11089
Rp11090
(dp11091
g17
VIN
p11092
sbag5
(g6
g7
(lp11093
g5
(g6
g7
(lp11094
g5
(g6
g7
(lp11095
Vthe
p11096
atp11097
Rp11098
(dp11099
g17
VDT
p11100
sbag5
(g6
g7
(lp11101
Vonly
p11102
atp11103
Rp11104
(dp11105
g17
VJJ
p11106
sbag5
(g6
g7
(lp11107
Vtarget
p11108
atp11109
Rp11110
(dp11111
g17
VNN
p11112
sbag5
(g6
g7
(lp11113
Vdevelopment
p11114
atp11115
Rp11116
(dp11117
g17
VNN
p11118
sbatp11119
Rp11120
(dp11121
g17
VNP
p11122
sbag5
(g6
g7
(lp11123
g5
(g6
g7
(lp11124
Vset
p11125
atp11126
Rp11127
(dp11128
g17
VVBD
p11129
sbatp11130
Rp11131
(dp11132
g17
VVP
p11133
sbatp11134
Rp11135
(dp11136
g17
g210
sbatp11137
Rp11138
(dp11139
g17
VSBAR
p11140
sbag5
(g6
g7
(lp11141
g349
atp11142
Rp11143
(dp11144
g17
g349
sbag5
(g6
g7
(lp11145
Vand
p11146
atp11147
Rp11148
(dp11149
g17
VCC
p11150
sbag5
(g6
g7
(lp11151
Vuse
p11152
atp11153
Rp11154
(dp11155
g17
VVBP
p11156
sbag5
(g6
g7
(lp11157
g5
(g6
g7
(lp11158
g5
(g6
g7
(lp11159
Vthe
p11160
atp11161
Rp11162
(dp11163
g17
VDT
p11164
sbag5
(g6
g7
(lp11165
Vremaining
p11166
atp11167
Rp11168
(dp11169
g17
VVBG
p11170
sbag5
(g6
g7
(lp11171
Vdata
p11172
atp11173
Rp11174
(dp11175
g17
VNNS
p11176
sbatp11177
Rp11178
(dp11179
g17
VNP
p11180
sbag5
(g6
g7
(lp11181
Vand
p11182
atp11183
Rp11184
(dp11185
g17
VCC
p11186
sbag5
(g6
g7
(lp11187
g5
(g6
g7
(lp11188
g5
(g6
g7
(lp11189
Vdomains
p11190
atp11191
Rp11192
(dp11193
g17
VNNS
p11194
sbatp11195
Rp11196
(dp11197
g17
VNP
p11198
sbag5
(g6
g7
(lp11199
g5
(g6
g7
(lp11200
Vfor
p11201
atp11202
Rp11203
(dp11204
g17
VIN
p11205
sbag5
(g6
g7
(lp11206
g5
(g6
g7
(lp11207
g5
(g6
g7
(lp11208
Vtesting
p11209
atp11210
Rp11211
(dp11212
g17
VVBG
p11213
sbag5
(g6
g7
(lp11214
g5
(g6
g7
(lp11215
g5
(g6
g7
(lp11216
g5
(g6
g7
(lp11217
g5
(g6
g7
(lp11218
Vpurposes
p11219
atp11220
Rp11221
(dp11222
g17
VNNS
p11223
sbatp11224
Rp11225
(dp11226
g17
VNP
p11227
sbag5
(g6
g7
(lp11228
V-LRB-
p11229
atp11230
Rp11231
(dp11232
g17
V-LRB-
p11233
sbag5
(g6
g7
(lp11234
g5
(g6
g7
(lp11235
Vas
p11236
atp11237
Rp11238
(dp11239
g17
VIN
p11240
sbag5
(g6
g7
(lp11241
g5
(g6
g7
(lp11242
Vthey
p11243
atp11244
Rp11245
(dp11246
g17
VPRP
p11247
sbatp11248
Rp11249
(dp11250
g17
VNP
p11251
sbatp11252
Rp11253
(dp11254
g17
VPP
p11255
sbatp11256
Rp11257
(dp11258
g17
VNP
p11259
sbag5
(g6
g7
(lp11260
g5
(g6
g7
(lp11261
Vare
p11262
atp11263
Rp11264
(dp11265
g17
VVBP
p11266
sbag5
(g6
g7
(lp11267
g5
(g6
g7
(lp11268
Vsmall
p11269
atp11270
Rp11271
(dp11272
g17
VJJ
p11273
sbatp11274
Rp11275
(dp11276
g17
VADJP
p11277
sbag5
(g6
g7
(lp11278
g5
(g6
g7
(lp11279
Valready
p11280
atp11281
Rp11282
(dp11283
g17
VRB
p11284
sbatp11285
Rp11286
(dp11287
g17
VADVP
p11288
sbatp11289
Rp11290
(dp11291
g17
VVP
p11292
sbatp11293
Rp11294
(dp11295
g17
g210
sbatp11296
Rp11297
(dp11298
g17
VSBAR
p11299
sbatp11300
Rp11301
(dp11302
g17
VVP
p11303
sbatp11304
Rp11305
(dp11306
g17
g210
sbatp11307
Rp11308
(dp11309
g17
VPP
p11310
sbatp11311
Rp11312
(dp11313
g17
VNP
p11314
sbatp11315
Rp11316
(dp11317
g17
VNP
p11318
sbatp11319
Rp11320
(dp11321
g17
VVP
p11322
sbatp11323
Rp11324
(dp11325
g17
g210
sbatp11326
Rp11327
(dp11328
g17
VROOT
p11329
sbasg245
(icmyPackage
CorE
p11330
(dp11331
g248
(lp11332
(I0
I24
tp11333
a(I1
I26
tp11334
asg252
g5
(g6
g7
(lp11335
g10920
ag10934
ag11006
ag11038
ag11045
ag11083
ag11138
ag11143
ag11148
ag11154
ag11178
ag11184
ag11196
ag11203
ag11211
ag11257
ag11264
ag11275
atp11336
Rp11337
(dp11338
g17
g263
sbsbsg253
(icmyPackage
CorE
p11339
(dp11340
g248
(lp11341
(I0
I0
tp11342
a(I0
I22
tp11343
asg252
g5
(g6
g7
(lp11344
g10699
ag10706
ag10787
ag10793
ag10890
atp11345
Rp11346
(dp11347
g17
g263
sbsbsg264
g1677
sg287
(lp11348
(isxpPackage
sxpSent
p11349
(dp11350
g291
(lp11351
I27
asg293
VWe follow the standard practices on ACE [ Plank and Moschitti2013 ] and use news (the union of bn and nw) as the source domain and bc , cts and wl as our target domains
p11352
sg295
I10
sg280
I80
sg296
I16
sba(isxpPackage
sxpSent
p11353
(dp11354
g291
(lp11355
I27
aI28
aI29
asg293
VWe take half of bc as the only target development set, and use the remaining data and domains for testing purposes (as they are small already
p11356
sg295
I10
sg280
I81
sg296
I16
sbasba(icmyPackage
CELink
p11357
(dp11358
g3
(lp11359
g11327
asg245
(icmyPackage
CorE
p11360
(dp11361
g248
(lp11362
(I0
I6
tp11363
a(I0
I27
tp11364
asg252
g5
(g6
g7
(lp11365
g11135
ag11143
ag11148
ag11154
ag11316
atp11366
Rp11367
(dp11368
g17
g263
sbsbsg253
(icmyPackage
CorE
p11369
(dp11370
g248
(lp11371
(I0
I0
tp11372
a(I0
I4
tp11373
asg252
g5
(g6
g7
(lp11374
g11038
ag11045
ag11083
atp11375
Rp11376
(dp11377
g17
g263
sbsbsg264
g1677
sg287
(lp11378
g11353
asba(icmyPackage
CELink
p11379
(dp11380
g3
(lp11381
g11367
asg245
(icmyPackage
CorE
p11382
(dp11383
g248
(lp11384
(I0
I18
tp11385
a(I0
I21
tp11386
asg252
g5
(g6
g7
(lp11387
g11249
ag11290
atp11388
Rp11389
(dp11390
g17
g263
sbsbsg253
(icmyPackage
CorE
p11391
(dp11392
g248
(lp11393
(I0
I0
tp11394
a(I0
I16
tp11395
asg252
g5
(g6
g7
(lp11396
g11135
ag11143
ag11148
ag11154
ag11178
ag11184
ag11196
ag11203
ag11211
ag11225
ag11231
atp11397
Rp11398
(dp11399
g17
g263
sbsbsg264
g1677
sg287
(lp11400
g11353
asba(icmyPackage
CELink
p11401
(dp11402
g3
(lp11403
g5
(g6
g7
(lp11404
g5
(g6
g7
(lp11405
g5
(g6
g7
(lp11406
g5
(g6
g7
(lp11407
VIntroducing
p11408
atp11409
Rp11410
(dp11411
g17
VVBG
p11412
sbag5
(g6
g7
(lp11413
g5
(g6
g7
(lp11414
Vembeddings
p11415
atp11416
Rp11417
(dp11418
g17
VNNS
p11419
sbatp11420
Rp11421
(dp11422
g17
VNP
p11423
sbag5
(g6
g7
(lp11424
g5
(g6
g7
(lp11425
Vto
p11426
atp11427
Rp11428
(dp11429
g17
VTO
p11430
sbag5
(g6
g7
(lp11431
g5
(g6
g7
(lp11432
g5
(g6
g7
(lp11433
Vwords
p11434
atp11435
Rp11436
(dp11437
g17
VNNS
p11438
sbatp11439
Rp11440
(dp11441
g17
VNP
p11442
sbag5
(g6
g7
(lp11443
g5
(g6
g7
(lp11444
Vof
p11445
atp11446
Rp11447
(dp11448
g17
VIN
p11449
sbag5
(g6
g7
(lp11450
g5
(g6
g7
(lp11451
Vmentions
p11452
atp11453
Rp11454
(dp11455
g17
VNNP
p11456
sbatp11457
Rp11458
(dp11459
g17
VNP
p11460
sbatp11461
Rp11462
(dp11463
g17
VPP
p11464
sbatp11465
Rp11466
(dp11467
g17
VNP
p11468
sbatp11469
Rp11470
(dp11471
g17
VPP
p11472
sbatp11473
Rp11474
(dp11475
g17
VVP
p11476
sbag5
(g6
g7
(lp11477
g5
(g6
g7
(lp11478
g5
(g6
g7
(lp11479
Valone
p11480
atp11481
Rp11482
(dp11483
g17
VRB
p11484
sbatp11485
Rp11486
(dp11487
g17
VADVP
p11488
sbag5
(g6
g7
(lp11489
Vhas
p11490
atp11491
Rp11492
(dp11493
g17
VVBZ
p11494
sbag5
(g6
g7
(lp11495
g5
(g6
g7
(lp11496
g5
(g6
g7
(lp11497
Vmild
p11498
atp11499
Rp11500
(dp11501
g17
VJJ
p11502
sbag5
(g6
g7
(lp11503
Vimpact
p11504
atp11505
Rp11506
(dp11507
g17
VNN
p11508
sbatp11509
Rp11510
(dp11511
g17
VNP
p11512
sbag5
(g6
g7
(lp11513
g5
(g6
g7
(lp11514
Vwhile
p11515
atp11516
Rp11517
(dp11518
g17
VIN
p11519
sbag5
(g6
g7
(lp11520
g5
(g6
g7
(lp11521
g5
(g6
g7
(lp11522
Vit
p11523
atp11524
Rp11525
(dp11526
g17
VPRP
p11527
sbatp11528
Rp11529
(dp11530
g17
VNP
p11531
sbag5
(g6
g7
(lp11532
g5
(g6
g7
(lp11533
Vis
p11534
atp11535
Rp11536
(dp11537
g17
VVBZ
p11538
sbag5
(g6
g7
(lp11539
g5
(g6
g7
(lp11540
Vgenerally
p11541
atp11542
Rp11543
(dp11544
g17
VRB
p11545
sbatp11546
Rp11547
(dp11548
g17
VADVP
p11549
sbag5
(g6
g7
(lp11550
g5
(g6
g7
(lp11551
g1508
atp11552
Rp11553
(dp11554
g17
VDT
p11555
sbag5
(g6
g7
(lp11556
Vbad
p11557
atp11558
Rp11559
(dp11560
g17
VJJ
p11561
sbag5
(g6
g7
(lp11562
Videa
p11563
atp11564
Rp11565
(dp11566
g17
VNN
p11567
sbag5
(g6
g7
(lp11568
g5
(g6
g7
(lp11569
g5
(g6
g7
(lp11570
Vto
p11571
atp11572
Rp11573
(dp11574
g17
VTO
p11575
sbag5
(g6
g7
(lp11576
g5
(g6
g7
(lp11577
Vaugment
p11578
atp11579
Rp11580
(dp11581
g17
VVB
p11582
sbag5
(g6
g7
(lp11583
g5
(g6
g7
(lp11584
Vchunk
p11585
atp11586
Rp11587
(dp11588
g17
VNN
p11589
sbatp11590
Rp11591
(dp11592
g17
VNP
p11593
sbatp11594
Rp11595
(dp11596
g17
VVP
p11597
sbatp11598
Rp11599
(dp11600
g17
VVP
p11601
sbatp11602
Rp11603
(dp11604
g17
g210
sbatp11605
Rp11606
(dp11607
g17
VNP
p11608
sbatp11609
Rp11610
(dp11611
g17
VVP
p11612
sbatp11613
Rp11614
(dp11615
g17
g210
sbatp11616
Rp11617
(dp11618
g17
VSBAR
p11619
sbatp11620
Rp11621
(dp11622
g17
VNP
p11623
sbatp11624
Rp11625
(dp11626
g17
VVP
p11627
sbag5
(g6
g7
(lp11628
g5
(g6
g7
(lp11629
g5
(g6
g7
(lp11630
Vheads
p11631
atp11632
Rp11633
(dp11634
g17
VNNS
p11635
sbag5
(g6
g7
(lp11636
Vand
p11637
atp11638
Rp11639
(dp11640
g17
VCC
p11641
sbag5
(g6
g7
(lp11642
Vwords
p11643
atp11644
Rp11645
(dp11646
g17
VNNS
p11647
sbatp11648
Rp11649
(dp11650
g17
VNP
p11651
sbag5
(g6
g7
(lp11652
g5
(g6
g7
(lp11653
Vin
p11654
atp11655
Rp11656
(dp11657
g17
VIN
p11658
sbag5
(g6
g7
(lp11659
g5
(g6
g7
(lp11660
Vthe
p11661
atp11662
Rp11663
(dp11664
g17
VDT
p11665
sbag5
(g6
g7
(lp11666
Vcontexts
p11667
atp11668
Rp11669
(dp11670
g17
VNNS
p11671
sbatp11672
Rp11673
(dp11674
g17
VNP
p11675
sbatp11676
Rp11677
(dp11678
g17
VPP
p11679
sbatp11680
Rp11681
(dp11682
g17
VNP
p11683
sbatp11684
Rp11685
(dp11686
g17
VSINV
p11687
sbatp11688
Rp11689
(dp11690
g17
VROOT
p11691
sbasg245
(icmyPackage
CorE
p11692
(dp11693
g248
(lp11694
(I0
I0
tp11695
a(I0
I5
tp11696
asg252
g11474
sbsg253
(icmyPackage
CorE
p11697
(dp11698
g248
(lp11699
(I0
I6
tp11700
a(I0
I8
tp11701
asg252
g5
(g6
g7
(lp11702
g11486
ag11492
ag11500
atp11703
Rp11704
(dp11705
g17
g263
sbsbsg264
g3839
sg287
(lp11706
(isxpPackage
sxpSent
p11707
(dp11708
g291
(lp11709
I30
asg293
VIntroducing embeddings to words of mentions alone has mild impact while it is generally a bad idea to augment chunk heads and words in the contexts
p11710
sg295
I11
sg280
I91
sg296
I18
sbasba(icmyPackage
CELink
p11711
(dp11712
g3
(lp11713
g5
(g6
g7
(lp11714
g5
(g6
g7
(lp11715
g5
(g6
g7
(lp11716
g5
(g6
g7
(lp11717
VWe
p11718
atp11719
Rp11720
(dp11721
g17
VPRP
p11722
sbatp11723
Rp11724
(dp11725
g17
VNP
p11726
sbag5
(g6
g7
(lp11727
g5
(g6
g7
(lp11728
Vevaluate
p11729
atp11730
Rp11731
(dp11732
g17
VVBD
p11733
sbag5
(g6
g7
(lp11734
g5
(g6
g7
(lp11735
g5
(g6
g7
(lp11736
g5
(g6
g7
(lp11737
g5
(g6
g7
(lp11738
Vword
p11739
atp11740
Rp11741
(dp11742
g17
VNN
p11743
sbag5
(g6
g7
(lp11744
Vcluster
p11745
atp11746
Rp11747
(dp11748
g17
VNN
p11749
sbag5
(g6
g7
(lp11750
Vand
p11751
atp11752
Rp11753
(dp11754
g17
VCC
p11755
sbag5
(g6
g7
(lp11756
Vembedding
p11757
atp11758
Rp11759
(dp11760
g17
VNN
p11761
sbatp11762
Rp11763
(dp11764
g17
VNP
p11765
sbag5
(g6
g7
(lp11766
g5
(g6
g7
(lp11767
V-LRB-
p11768
atp11769
Rp11770
(dp11771
g17
V-LRB-
p11772
sbag5
(g6
g7
(lp11773
g5
(g6
g7
(lp11774
Vdenoted
p11775
atp11776
Rp11777
(dp11778
g17
VVBN
p11779
sbag5
(g6
g7
(lp11780
g5
(g6
g7
(lp11781
Vby
p11782
atp11783
Rp11784
(dp11785
g17
VIN
p11786
sbag5
(g6
g7
(lp11787
g5
(g6
g7
(lp11788
VED
p11789
atp11790
Rp11791
(dp11792
g17
VNNP
p11793
sbatp11794
Rp11795
(dp11796
g17
VNP
p11797
sbatp11798
Rp11799
(dp11800
g17
VPP
p11801
sbatp11802
Rp11803
(dp11804
g17
VVP
p11805
sbag5
(g6
g7
(lp11806
V-RRB-
p11807
atp11808
Rp11809
(dp11810
g17
V-RRB-
p11811
sbatp11812
Rp11813
(dp11814
g17
VPRN
p11815
sbatp11816
Rp11817
(dp11818
g17
VNP
p11819
sbag5
(g6
g7
(lp11820
g5
(g6
g7
(lp11821
Vfeatures
p11822
atp11823
Rp11824
(dp11825
g17
VVBZ
p11826
sbag5
(g6
g7
(lp11827
g5
(g6
g7
(lp11828
g5
(g6
g7
(lp11829
Vby
p11830
atp11831
Rp11832
(dp11833
g17
VIN
p11834
sbag5
(g6
g7
(lp11835
g5
(g6
g7
(lp11836
g5
(g6
g7
(lp11837
Vadding
p11838
atp11839
Rp11840
(dp11841
g17
VVBG
p11842
sbag5
(g6
g7
(lp11843
g5
(g6
g7
(lp11844
Vthem
p11845
atp11846
Rp11847
(dp11848
g17
VPRP
p11849
sbatp11850
Rp11851
(dp11852
g17
VNP
p11853
sbag5
(g6
g7
(lp11854
g5
(g6
g7
(lp11855
Vindividually
p11856
atp11857
Rp11858
(dp11859
g17
VRB
p11860
sbatp11861
Rp11862
(dp11863
g17
VADVP
p11864
sbatp11865
Rp11866
(dp11867
g17
VVP
p11868
sbatp11869
Rp11870
(dp11871
g17
g210
sbatp11872
Rp11873
(dp11874
g17
VPP
p11875
sbag5
(g6
g7
(lp11876
g5
(g6
g7
(lp11877
Vas
p11878
atp11879
Rp11880
(dp11881
g17
VRB
p11882
sbag5
(g6
g7
(lp11883
Vwell
p11884
atp11885
Rp11886
(dp11887
g17
VRB
p11888
sbag5
(g6
g7
(lp11889
Vas
p11890
atp11891
Rp11892
(dp11893
g17
VIN
p11894
sbatp11895
Rp11896
(dp11897
g17
VCONJP
p11898
sbag5
(g6
g7
(lp11899
g5
(g6
g7
(lp11900
g5
(g6
g7
(lp11901
Vsimultaneously
p11902
atp11903
Rp11904
(dp11905
g17
VRB
p11906
sbatp11907
Rp11908
(dp11909
g17
VADVP
p11910
sbag5
(g6
g7
(lp11911
Vinto
p11912
atp11913
Rp11914
(dp11915
g17
VIN
p11916
sbag5
(g6
g7
(lp11917
g5
(g6
g7
(lp11918
g5
(g6
g7
(lp11919
Vthe
p11920
atp11921
Rp11922
(dp11923
g17
VDT
p11924
sbag5
(g6
g7
(lp11925
Vbaseline
p11926
atp11927
Rp11928
(dp11929
g17
VJJ
p11930
sbag5
(g6
g7
(lp11931
Vfeature
p11932
atp11933
Rp11934
(dp11935
g17
VNN
p11936
sbatp11937
Rp11938
(dp11939
g17
VNP
p11940
sbag5
(g6
g7
(lp11941
g5
(g6
g7
(lp11942
Vset
p11943
atp11944
Rp11945
(dp11946
g17
VVBN
p11947
sbatp11948
Rp11949
(dp11950
g17
VVP
p11951
sbatp11952
Rp11953
(dp11954
g17
VNP
p11955
sbatp11956
Rp11957
(dp11958
g17
VPP
p11959
sbatp11960
Rp11961
(dp11962
g17
VPP
p11963
sbatp11964
Rp11965
(dp11966
g17
VVP
p11967
sbatp11968
Rp11969
(dp11970
g17
g210
sbatp11971
Rp11972
(dp11973
g17
VSBAR
p11974
sbatp11975
Rp11976
(dp11977
g17
VVP
p11978
sbatp11979
Rp11980
(dp11981
g17
g210
sbatp11982
Rp11983
(dp11984
g17
VROOT
p11985
sbag5
(g6
g7
(lp11986
g5
(g6
g7
(lp11987
g5
(g6
g7
(lp11988
VFor
p11989
atp11990
Rp11991
(dp11992
g17
VIN
p11993
sbag5
(g6
g7
(lp11994
g5
(g6
g7
(lp11995
g5
(g6
g7
(lp11996
g5
(g6
g7
(lp11997
Vword
p11998
atp11999
Rp12000
(dp12001
g17
VNN
p12002
sbag5
(g6
g7
(lp12003
Vclusters
p12004
atp12005
Rp12006
(dp12007
g17
VNNS
p12008
sbatp12009
Rp12010
(dp12011
g17
VNP
p12012
sbag5
(g6
g7
(lp12013
g349
atp12014
Rp12015
(dp12016
g17
g349
sbag5
(g6
g7
(lp12017
g5
(g6
g7
(lp12018
g5
(g6
g7
(lp12019
Vwe
p12020
atp12021
Rp12022
(dp12023
g17
VVBP
p12024
sbag5
(g6
g7
(lp12025
Vexperiment
p12026
atp12027
Rp12028
(dp12029
g17
VNN
p12030
sbatp12031
Rp12032
(dp12033
g17
VNP
p12034
sbag5
(g6
g7
(lp12035
g5
(g6
g7
(lp12036
Vwith
p12037
atp12038
Rp12039
(dp12040
g17
VIN
p12041
sbag5
(g6
g7
(lp12042
g5
(g6
g7
(lp12043
g5
(g6
g7
(lp12044
Vtwo
p12045
atp12046
Rp12047
(dp12048
g17
VCD
p12049
sbag5
(g6
g7
(lp12050
Vpossibilities
p12051
atp12052
Rp12053
(dp12054
g17
VNNS
p12055
sbatp12056
Rp12057
(dp12058
g17
VNP
p12059
sbag5
(g6
g7
(lp12060
g5
(g6
g7
(lp12061
Vi
p12062
atp12063
Rp12064
(dp12065
g17
VFW
p12066
sbatp12067
Rp12068
(dp12069
g17
VNP
p12070
sbatp12071
Rp12072
(dp12073
g17
VNP
p12074
sbatp12075
Rp12076
(dp12077
g17
VPP
p12078
sbatp12079
Rp12080
(dp12081
g17
VNP
p12082
sbag5
(g6
g7
(lp12083
V-RRB-
p12084
atp12085
Rp12086
(dp12087
g17
V-RRB-
p12088
sbatp12089
Rp12090
(dp12091
g17
VNP
p12092
sbag5
(g6
g7
(lp12093
g5
(g6
g7
(lp12094
g5
(g6
g7
(lp12095
g5
(g6
g7
(lp12096
Vonly
p12097
atp12098
Rp12099
(dp12100
g17
VRB
p12101
sbatp12102
Rp12103
(dp12104
g17
VADVP
p12105
sbag5
(g6
g7
(lp12106
Vusing
p12107
atp12108
Rp12109
(dp12110
g17
VVBG
p12111
sbag5
(g6
g7
(lp12112
g5
(g6
g7
(lp12113
g5
(g6
g7
(lp12114
g5
(g6
g7
(lp12115
g5
(g6
g7
(lp12116
g1508
atp12117
Rp12118
(dp12119
g17
VDT
p12120
sbag5
(g6
g7
(lp12121
Vsingle
p12122
atp12123
Rp12124
(dp12125
g17
VJJ
p12126
sbag5
(g6
g7
(lp12127
Vprefix
p12128
atp12129
Rp12130
(dp12131
g17
VNN
p12132
sbag5
(g6
g7
(lp12133
Vlength
p12134
atp12135
Rp12136
(dp12137
g17
VNN
p12138
sbatp12139
Rp12140
(dp12141
g17
VNP
p12142
sbag5
(g6
g7
(lp12143
g5
(g6
g7
(lp12144
Vof
p12145
atp12146
Rp12147
(dp12148
g17
VIN
p12149
sbag5
(g6
g7
(lp12150
g5
(g6
g7
(lp12151
V10
p12152
atp12153
Rp12154
(dp12155
g17
VCD
p12156
sbatp12157
Rp12158
(dp12159
g17
VNP
p12160
sbatp12161
Rp12162
(dp12163
g17
VPP
p12164
sbatp12165
Rp12166
(dp12167
g17
VNP
p12168
sbag5
(g6
g7
(lp12169
g5
(g6
g7
(lp12170
V-LRB-
p12171
atp12172
Rp12173
(dp12174
g17
V-LRB-
p12175
sbag5
(g6
g7
(lp12176
g5
(g6
g7
(lp12177
Vas
p12178
atp12179
Rp12180
(dp12181
g17
VIN
p12182
sbag5
(g6
g7
(lp12183
g5
(g6
g7
(lp12184
g5
(g6
g7
(lp12185
VPlank
p12186
atp12187
Rp12188
(dp12189
g17
VNNP
p12190
sbag5
(g6
g7
(lp12191
Vand
p12192
atp12193
Rp12194
(dp12195
g17
VCC
p12196
sbag5
(g6
g7
(lp12197
VMoschitti
p12198
atp12199
Rp12200
(dp12201
g17
VNNP
p12202
sbag5
(g6
g7
(lp12203
V-LSB-
p12204
atp12205
Rp12206
(dp12207
g17
VNNP
p12208
sbag5
(g6
g7
(lp12209
VPlank
p12210
atp12211
Rp12212
(dp12213
g17
VNNP
p12214
sbag5
(g6
g7
(lp12215
Vand
p12216
atp12217
Rp12218
(dp12219
g17
VCC
p12220
sbag5
(g6
g7
(lp12221
VMoschitti2013
p12222
atp12223
Rp12224
(dp12225
g17
VNNP
p12226
sbag5
(g6
g7
(lp12227
V-RSB-
p12228
atp12229
Rp12230
(dp12231
g17
VNNP
p12232
sbatp12233
Rp12234
(dp12235
g17
VNP
p12236
sbag5
(g6
g7
(lp12237
g5
(g6
g7
(lp12238
Vdid
p12239
atp12240
Rp12241
(dp12242
g17
VVBD
p12243
sbatp12244
Rp12245
(dp12246
g17
VVP
p12247
sbatp12248
Rp12249
(dp12250
g17
g210
sbatp12251
Rp12252
(dp12253
g17
VSBAR
p12254
sbag5
(g6
g7
(lp12255
V-RRB-
p12256
atp12257
Rp12258
(dp12259
g17
V-RRB-
p12260
sbatp12261
Rp12262
(dp12263
g17
VPRN
p12264
sbatp12265
Rp12266
(dp12267
g17
VNP
p12268
sbag5
(g6
g7
(lp12269
g5
(g6
g7
(lp12270
V-LRB-
p12271
atp12272
Rp12273
(dp12274
g17
V-LRB-
p12275
sbag5
(g6
g7
(lp12276
g5
(g6
g7
(lp12277
Vdenoted
p12278
atp12279
Rp12280
(dp12281
g17
VVBN
p12282
sbag5
(g6
g7
(lp12283
g5
(g6
g7
(lp12284
Vby
p12285
atp12286
Rp12287
(dp12288
g17
VIN
p12289
sbag5
(g6
g7
(lp12290
g5
(g6
g7
(lp12291
VWC10
p12292
atp12293
Rp12294
(dp12295
g17
VNNP
p12296
sbatp12297
Rp12298
(dp12299
g17
VNP
p12300
sbatp12301
Rp12302
(dp12303
g17
VPP
p12304
sbatp12305
Rp12306
(dp12307
g17
VVP
p12308
sbag5
(g6
g7
(lp12309
V-RRB-
p12310
atp12311
Rp12312
(dp12313
g17
V-RRB-
p12314
sbatp12315
Rp12316
(dp12317
g17
VPRN
p12318
sbatp12319
Rp12320
(dp12321
g17
VNP
p12322
sbatp12323
Rp12324
(dp12325
g17
VVP
p12326
sbag5
(g6
g7
(lp12327
Vand
p12328
atp12329
Rp12330
(dp12331
g17
VCC
p12332
sbag5
(g6
g7
(lp12333
g5
(g6
g7
(lp12334
V-LRB-
p12335
atp12336
Rp12337
(dp12338
g17
V-LRB-
p12339
sbag5
(g6
g7
(lp12340
g5
(g6
g7
(lp12341
g5
(g6
g7
(lp12342
Vii
p12343
atp12344
Rp12345
(dp12346
g17
VVB
p12347
sbatp12348
Rp12349
(dp12350
g17
VVP
p12351
sbatp12352
Rp12353
(dp12354
g17
g210
sbag5
(g6
g7
(lp12355
V-RRB-
p12356
atp12357
Rp12358
(dp12359
g17
V-RRB-
p12360
sbatp12361
Rp12362
(dp12363
g17
VPRN
p12364
sbag5
(g6
g7
(lp12365
g5
(g6
g7
(lp12366
Vapplying
p12367
atp12368
Rp12369
(dp12370
g17
VVBG
p12371
sbag5
(g6
g7
(lp12372
g5
(g6
g7
(lp12373
g5
(g6
g7
(lp12374
g5
(g6
g7
(lp12375
Vmultiple
p12376
atp12377
Rp12378
(dp12379
g17
VJJ
p12380
sbag5
(g6
g7
(lp12381
Vprefix
p12382
atp12383
Rp12384
(dp12385
g17
VNN
p12386
sbag5
(g6
g7
(lp12387
Vlengths
p12388
atp12389
Rp12390
(dp12391
g17
VNNS
p12392
sbatp12393
Rp12394
(dp12395
g17
VNP
p12396
sbag5
(g6
g7
(lp12397
g5
(g6
g7
(lp12398
Vof
p12399
atp12400
Rp12401
(dp12402
g17
VIN
p12403
sbag5
(g6
g7
(lp12404
g5
(g6
g7
(lp12405
g8920
atp12406
Rp12407
(dp12408
g17
VCD
p12409
sbatp12410
Rp12411
(dp12412
g17
VNP
p12413
sbatp12414
Rp12415
(dp12416
g17
VPP
p12417
sbatp12418
Rp12419
(dp12420
g17
VNP
p12421
sbag5
(g6
g7
(lp12422
g349
atp12423
Rp12424
(dp12425
g17
g349
sbag5
(g6
g7
(lp12426
g5
(g6
g7
(lp12427
g10318
atp12428
Rp12429
(dp12430
g17
VCD
p12431
sbatp12432
Rp12433
(dp12434
g17
VNP
p12435
sbag5
(g6
g7
(lp12436
g349
atp12437
Rp12438
(dp12439
g17
g349
sbag5
(g6
g7
(lp12440
g5
(g6
g7
(lp12441
V8
p12442
atp12443
Rp12444
(dp12445
g17
VCD
p12446
sbatp12447
Rp12448
(dp12449
g17
VNP
p12450
sbag5
(g6
g7
(lp12451
g349
atp12452
Rp12453
(dp12454
g17
g349
sbag5
(g6
g7
(lp12455
g5
(g6
g7
(lp12456
g5
(g6
g7
(lp12457
V10
p12458
atp12459
Rp12460
(dp12461
g17
VCD
p12462
sbatp12463
Rp12464
(dp12465
g17
VNP
p12466
sbag5
(g6
g7
(lp12467
Vtogether
p12468
atp12469
Rp12470
(dp12471
g17
VRB
p12472
sbatp12473
Rp12474
(dp12475
g17
VADVP
p12476
sbatp12477
Rp12478
(dp12479
g17
VNP
p12480
sbag5
(g6
g7
(lp12481
g5
(g6
g7
(lp12482
Vwith
p12483
atp12484
Rp12485
(dp12486
g17
VIN
p12487
sbag5
(g6
g7
(lp12488
g5
(g6
g7
(lp12489
g5
(g6
g7
(lp12490
Vthe
p12491
atp12492
Rp12493
(dp12494
g17
VDT
p12495
sbag5
(g6
g7
(lp12496
Vfull
p12497
atp12498
Rp12499
(dp12500
g17
VJJ
p12501
sbag5
(g6
g7
(lp12502
Vstring
p12503
atp12504
Rp12505
(dp12506
g17
VNN
p12507
sbatp12508
Rp12509
(dp12510
g17
VNP
p12511
sbag5
(g6
g7
(lp12512
g5
(g6
g7
(lp12513
V-LRB-
p12514
atp12515
Rp12516
(dp12517
g17
V-LRB-
p12518
sbag5
(g6
g7
(lp12519
g5
(g6
g7
(lp12520
g5
(g6
g7
(lp12521
Vdenoted
p12522
atp12523
Rp12524
(dp12525
g17
VRB
p12526
sbatp12527
Rp12528
(dp12529
g17
VADVP
p12530
sbag5
(g6
g7
(lp12531
g5
(g6
g7
(lp12532
Vby
p12533
atp12534
Rp12535
(dp12536
g17
VIN
p12537
sbag5
(g6
g7
(lp12538
g5
(g6
g7
(lp12539
VWC
p12540
atp12541
Rp12542
(dp12543
g17
VNNP
p12544
sbatp12545
Rp12546
(dp12547
g17
VNP
p12548
sbatp12549
Rp12550
(dp12551
g17
VPP
p12552
sbatp12553
Rp12554
(dp12555
g17
VUCP
p12556
sbatp12557
Rp12558
(dp12559
g17
VPRN
p12560
sbatp12561
Rp12562
(dp12563
g17
VNP
p12564
sbatp12565
Rp12566
(dp12567
g17
VPP
p12568
sbatp12569
Rp12570
(dp12571
g17
VVP
p12572
sbatp12573
Rp12574
(dp12575
g17
VVP
p12576
sbatp12577
Rp12578
(dp12579
g17
VNP
p12580
sbatp12581
Rp12582
(dp12583
g17
VPP
p12584
sbatp12585
Rp12586
(dp12587
g17
VROOT
p12588
sbasg245
(icmyPackage
CorE
p12589
(dp12590
g248
(lp12591
(I1
I21
tp12592
a(I1
I34
tp12593
asg252
g5
(g6
g7
(lp12594
g12249
ag12258
ag12273
ag12306
atp12595
Rp12596
(dp12597
g17
g263
sbsbsg253
(icmyPackage
CorE
p12598
(dp12599
g248
(lp12600
(I0
I3
tp12601
a(I1
I19
tp12602
asg252
g5
(g6
g7
(lp12603
g11747
ag11753
ag11759
ag11813
ag11965
ag11991
ag12090
ag12103
ag12109
ag12166
ag12173
atp12604
Rp12605
(dp12606
g17
g263
sbsbsg264
g1677
sg287
(lp12607
(isxpPackage
sxpSent
p12608
(dp12609
g291
(lp12610
I31
asg293
VWe evaluate word cluster and embedding (denoted by ED) features by adding them individually as well as simultaneously into the baseline feature set
p12611
sg295
I12
sg280
I97
sg296
I20
sba(isxpPackage
sxpSent
p12612
(dp12613
g291
(lp12614
I31
asg293
VFor word clusters, we experiment with two possibilities i) only using a single prefix length of 10 (as Plank and Moschitti [ Plank and Moschitti2013 ] did) (denoted by WC10) and (ii) applying multiple prefix lengths of 4, 6, 8, 10 together with the full string (denoted by WC
p12615
sg295
I12
sg280
I98
sg296
I20
sbasba(icmyPackage
CELink
p12616
(dp12617
g3
(lp12618
g5
(g6
g7
(lp12619
g5
(g6
g7
(lp12620
g5
(g6
g7
(lp12621
g5
(g6
g7
(lp12622
VRow
p12623
atp12624
Rp12625
(dp12626
g17
VVB
p12627
sbag5
(g6
g7
(lp12628
g5
(g6
g7
(lp12629
g8920
atp12630
Rp12631
(dp12632
g17
VCD
p12633
sbag5
(g6
g7
(lp12634
Vshows
p12635
atp12636
Rp12637
(dp12638
g17
VNNS
p12639
sbatp12640
Rp12641
(dp12642
g17
VNP
p12643
sbag5
(g6
g7
(lp12644
g5
(g6
g7
(lp12645
Vthat
p12646
atp12647
Rp12648
(dp12649
g17
VIN
p12650
sbag5
(g6
g7
(lp12651
g5
(g6
g7
(lp12652
g5
(g6
g7
(lp12653
g5
(g6
g7
(lp12654
Vword
p12655
atp12656
Rp12657
(dp12658
g17
VNN
p12659
sbatp12660
Rp12661
(dp12662
g17
VNP
p12663
sbag5
(g6
g7
(lp12664
g5
(g6
g7
(lp12665
Vembedding
p12666
atp12667
Rp12668
(dp12669
g17
VVBG
p12670
sbag5
(g6
g7
(lp12671
g5
(g6
g7
(lp12672
Vitself
p12673
atp12674
Rp12675
(dp12676
g17
VPRP
p12677
sbatp12678
Rp12679
(dp12680
g17
VNP
p12681
sbatp12682
Rp12683
(dp12684
g17
VVP
p12685
sbatp12686
Rp12687
(dp12688
g17
VNP
p12689
sbag5
(g6
g7
(lp12690
g5
(g6
g7
(lp12691
Vis
p12692
atp12693
Rp12694
(dp12695
g17
VVBZ
p12696
sbag5
(g6
g7
(lp12697
g5
(g6
g7
(lp12698
Valso
p12699
atp12700
Rp12701
(dp12702
g17
VRB
p12703
sbatp12704
Rp12705
(dp12706
g17
VADVP
p12707
sbag5
(g6
g7
(lp12708
g5
(g6
g7
(lp12709
Vvery
p12710
atp12711
Rp12712
(dp12713
g17
VRB
p12714
sbag5
(g6
g7
(lp12715
Vuseful
p12716
atp12717
Rp12718
(dp12719
g17
VJJ
p12720
sbag5
(g6
g7
(lp12721
g5
(g6
g7
(lp12722
Vfor
p12723
atp12724
Rp12725
(dp12726
g17
VIN
p12727
sbag5
(g6
g7
(lp12728
g5
(g6
g7
(lp12729
g5
(g6
g7
(lp12730
Vdomain
p12731
atp12732
Rp12733
(dp12734
g17
VNN
p12735
sbag5
(g6
g7
(lp12736
Vadaptation
p12737
atp12738
Rp12739
(dp12740
g17
VNN
p12741
sbatp12742
Rp12743
(dp12744
g17
VNP
p12745
sbag5
(g6
g7
(lp12746
g5
(g6
g7
(lp12747
Vin
p12748
atp12749
Rp12750
(dp12751
g17
VIN
p12752
sbag5
(g6
g7
(lp12753
g5
(g6
g7
(lp12754
VRE
p12755
atp12756
Rp12757
(dp12758
g17
VNNP
p12759
sbatp12760
Rp12761
(dp12762
g17
VNP
p12763
sbatp12764
Rp12765
(dp12766
g17
VPP
p12767
sbatp12768
Rp12769
(dp12770
g17
VNP
p12771
sbatp12772
Rp12773
(dp12774
g17
VPP
p12775
sbatp12776
Rp12777
(dp12778
g17
VADJP
p12779
sbag5
(g6
g7
(lp12780
g5
(g6
g7
(lp12781
Vsince
p12782
atp12783
Rp12784
(dp12785
g17
VIN
p12786
sbag5
(g6
g7
(lp12787
g5
(g6
g7
(lp12788
g5
(g6
g7
(lp12789
Vit
p12790
atp12791
Rp12792
(dp12793
g17
VPRP
p12794
sbatp12795
Rp12796
(dp12797
g17
VNP
p12798
sbag5
(g6
g7
(lp12799
g5
(g6
g7
(lp12800
Vimproves
p12801
atp12802
Rp12803
(dp12804
g17
VVBZ
p12805
sbag5
(g6
g7
(lp12806
g5
(g6
g7
(lp12807
g5
(g6
g7
(lp12808
Vthe
p12809
atp12810
Rp12811
(dp12812
g17
VDT
p12813
sbag5
(g6
g7
(lp12814
Vbaseline
p12815
atp12816
Rp12817
(dp12818
g17
VJJ
p12819
sbag5
(g6
g7
(lp12820
Vsystem
p12821
atp12822
Rp12823
(dp12824
g17
VNN
p12825
sbatp12826
Rp12827
(dp12828
g17
VNP
p12829
sbag5
(g6
g7
(lp12830
g5
(g6
g7
(lp12831
Vfor
p12832
atp12833
Rp12834
(dp12835
g17
VIN
p12836
sbag5
(g6
g7
(lp12837
g5
(g6
g7
(lp12838
Vall
p12839
atp12840
Rp12841
(dp12842
g17
VPDT
p12843
sbag5
(g6
g7
(lp12844
Vthe
p12845
atp12846
Rp12847
(dp12848
g17
VDT
p12849
sbag5
(g6
g7
(lp12850
Vtarget
p12851
atp12852
Rp12853
(dp12854
g17
VNN
p12855
sbag5
(g6
g7
(lp12856
Vdomains
p12857
atp12858
Rp12859
(dp12860
g17
VNNS
p12861
sbatp12862
Rp12863
(dp12864
g17
VNP
p12865
sbatp12866
Rp12867
(dp12868
g17
VPP
p12869
sbatp12870
Rp12871
(dp12872
g17
VNP
p12873
sbatp12874
Rp12875
(dp12876
g17
VVP
p12877
sbatp12878
Rp12879
(dp12880
g17
g210
sbatp12881
Rp12882
(dp12883
g17
VSBAR
p12884
sbatp12885
Rp12886
(dp12887
g17
VVP
p12888
sbatp12889
Rp12890
(dp12891
g17
g210
sbatp12892
Rp12893
(dp12894
g17
VSBAR
p12895
sbatp12896
Rp12897
(dp12898
g17
VVP
p12899
sbatp12900
Rp12901
(dp12902
g17
g210
sbatp12903
Rp12904
(dp12905
g17
VROOT
p12906
sbasg245
(icmyPackage
CorE
p12907
(dp12908
g248
(lp12909
(I0
I17
tp12910
a(I0
I26
tp12911
asg252
g12879
sbsg253
(icmyPackage
CorE
p12912
(dp12913
g248
(lp12914
(I0
I0
tp12915
a(I0
I15
tp12916
asg252
g5
(g6
g7
(lp12917
g12625
ag12641
ag12648
ag12687
ag12694
ag12705
ag12777
atp12918
Rp12919
(dp12920
g17
g263
sbsbsg264
g8547
sg287
(lp12921
(isxpPackage
sxpSent
p12922
(dp12923
g291
(lp12924
I32
asg293
VRow 4 shows that word embedding itself is also very useful for domain adaptation in RE since it improves the baseline system for all the target domains
p12925
sg295
I12
sg280
I111
sg296
I24
sbasba(icmyPackage
CELink
p12926
(dp12927
g3
(lp12928
g5
(g6
g7
(lp12929
g5
(g6
g7
(lp12930
g5
(g6
g7
(lp12931
g5
(g6
g7
(lp12932
VHowever
p12933
atp12934
Rp12935
(dp12936
g17
VRB
p12937
sbatp12938
Rp12939
(dp12940
g17
VADVP
p12941
sbag5
(g6
g7
(lp12942
g349
atp12943
Rp12944
(dp12945
g17
g349
sbag5
(g6
g7
(lp12946
g5
(g6
g7
(lp12947
Vin
p12948
atp12949
Rp12950
(dp12951
g17
VIN
p12952
sbag5
(g6
g7
(lp12953
g5
(g6
g7
(lp12954
Vdomain
p12955
atp12956
Rp12957
(dp12958
g17
VNN
p12959
sbag5
(g6
g7
(lp12960
Vcts
p12961
atp12962
Rp12963
(dp12964
g17
VNN
p12965
sbatp12966
Rp12967
(dp12968
g17
VNP
p12969
sbatp12970
Rp12971
(dp12972
g17
VPP
p12973
sbag5
(g6
g7
(lp12974
g349
atp12975
Rp12976
(dp12977
g17
g349
sbag5
(g6
g7
(lp12978
g5
(g6
g7
(lp12979
g5
(g6
g7
(lp12980
Vthe
p12981
atp12982
Rp12983
(dp12984
g17
VDT
p12985
sbag5
(g6
g7
(lp12986
Vimprovement
p12987
atp12988
Rp12989
(dp12990
g17
VNN
p12991
sbatp12992
Rp12993
(dp12994
g17
VNP
p12995
sbag5
(g6
g7
(lp12996
g5
(g6
g7
(lp12997
Vthat
p12998
atp12999
Rp13000
(dp13001
g17
VIN
p13002
sbag5
(g6
g7
(lp13003
g5
(g6
g7
(lp13004
g5
(g6
g7
(lp13005
Vword
p13006
atp13007
Rp13008
(dp13009
g17
VNN
p13010
sbag5
(g6
g7
(lp13011
Vembeddings
p13012
atp13013
Rp13014
(dp13015
g17
VNNS
p13016
sbatp13017
Rp13018
(dp13019
g17
VNP
p13020
sbag5
(g6
g7
(lp13021
g5
(g6
g7
(lp13022
Vprovide
p13023
atp13024
Rp13025
(dp13026
g17
VVBP
p13027
sbag5
(g6
g7
(lp13028
g5
(g6
g7
(lp13029
Vfor
p13030
atp13031
Rp13032
(dp13033
g17
VIN
p13034
sbag5
(g6
g7
(lp13035
g5
(g6
g7
(lp13036
Vword
p13037
atp13038
Rp13039
(dp13040
g17
VNN
p13041
sbag5
(g6
g7
(lp13042
Vclusters
p13043
atp13044
Rp13045
(dp13046
g17
VNNS
p13047
sbatp13048
Rp13049
(dp13050
g17
VNP
p13051
sbatp13052
Rp13053
(dp13054
g17
VPP
p13055
sbatp13056
Rp13057
(dp13058
g17
VVP
p13059
sbatp13060
Rp13061
(dp13062
g17
g210
sbatp13063
Rp13064
(dp13065
g17
VSBAR
p13066
sbatp13067
Rp13068
(dp13069
g17
VNP
p13070
sbag5
(g6
g7
(lp13071
g5
(g6
g7
(lp13072
Vis
p13073
atp13074
Rp13075
(dp13076
g17
VVBZ
p13077
sbag5
(g6
g7
(lp13078
g5
(g6
g7
(lp13079
Vmodest
p13080
atp13081
Rp13082
(dp13083
g17
VJJ
p13084
sbatp13085
Rp13086
(dp13087
g17
VADJP
p13088
sbatp13089
Rp13090
(dp13091
g17
VVP
p13092
sbatp13093
Rp13094
(dp13095
g17
g210
sbatp13096
Rp13097
(dp13098
g17
VROOT
p13099
sbag5
(g6
g7
(lp13100
g5
(g6
g7
(lp13101
g5
(g6
g7
(lp13102
g5
(g6
g7
(lp13103
VThis
p13104
atp13105
Rp13106
(dp13107
g17
VDT
p13108
sbatp13109
Rp13110
(dp13111
g17
VNP
p13112
sbag5
(g6
g7
(lp13113
g5
(g6
g7
(lp13114
Vis
p13115
atp13116
Rp13117
(dp13118
g17
VVBZ
p13119
sbag5
(g6
g7
(lp13120
g5
(g6
g7
(lp13121
Vbecause
p13122
atp13123
Rp13124
(dp13125
g17
VIN
p13126
sbag5
(g6
g7
(lp13127
g5
(g6
g7
(lp13128
g5
(g6
g7
(lp13129
g5
(g6
g7
(lp13130
Vthe
p13131
atp13132
Rp13133
(dp13134
g17
VDT
p13135
sbag5
(g6
g7
(lp13136
VRCV1
p13137
atp13138
Rp13139
(dp13140
g17
VNN
p13141
sbag5
(g6
g7
(lp13142
Vcorpus
p13143
atp13144
Rp13145
(dp13146
g17
VNN
p13147
sbatp13148
Rp13149
(dp13150
g17
VNP
p13151
sbag5
(g6
g7
(lp13152
g5
(g6
g7
(lp13153
Vused
p13154
atp13155
Rp13156
(dp13157
g17
VVBN
p13158
sbag5
(g6
g7
(lp13159
g5
(g6
g7
(lp13160
g5
(g6
g7
(lp13161
Vto
p13162
atp13163
Rp13164
(dp13165
g17
VTO
p13166
sbag5
(g6
g7
(lp13167
g5
(g6
g7
(lp13168
Vinduce
p13169
atp13170
Rp13171
(dp13172
g17
VVB
p13173
sbag5
(g6
g7
(lp13174
g5
(g6
g7
(lp13175
Vthe
p13176
atp13177
Rp13178
(dp13179
g17
VDT
p13180
sbag5
(g6
g7
(lp13181
Vword
p13182
atp13183
Rp13184
(dp13185
g17
VNN
p13186
sbatp13187
Rp13188
(dp13189
g17
VNP
p13190
sbatp13191
Rp13192
(dp13193
g17
VVP
p13194
sbatp13195
Rp13196
(dp13197
g17
VVP
p13198
sbatp13199
Rp13200
(dp13201
g17
g210
sbatp13202
Rp13203
(dp13204
g17
VVP
p13205
sbatp13206
Rp13207
(dp13208
g17
VNP
p13209
sbag5
(g6
g7
(lp13210
g5
(g6
g7
(lp13211
Vembeddings
p13212
atp13213
Rp13214
(dp13215
g17
VVBZ
p13216
sbag5
(g6
g7
(lp13217
g5
(g6
g7
(lp13218
g5
(g6
g7
(lp13219
g5
(g6
g7
(lp13220
V-LSB-
p13221
atp13222
Rp13223
(dp13224
g17
VNNP
p13225
sbag5
(g6
g7
(lp13226
VTurian
p13227
atp13228
Rp13229
(dp13230
g17
VNNP
p13231
sbag5
(g6
g7
(lp13232
Vet
p13233
atp13234
Rp13235
(dp13236
g17
VCC
p13237
sbag5
(g6
g7
(lp13238
Val.
p13239
atp13240
Rp13241
(dp13242
g17
VNNP
p13243
sbag5
(g6
g7
(lp13244
V2010
p13245
atp13246
Rp13247
(dp13248
g17
VNNPS
p13249
sbag5
(g6
g7
(lp13250
V-RSB-
p13251
atp13252
Rp13253
(dp13254
g17
VNNP
p13255
sbatp13256
Rp13257
(dp13258
g17
VNP
p13259
sbag5
(g6
g7
(lp13260
g5
(g6
g7
(lp13261
Vdoes
p13262
atp13263
Rp13264
(dp13265
g17
VVBZ
p13266
sbag5
(g6
g7
(lp13267
Vnot
p13268
atp13269
Rp13270
(dp13271
g17
VRB
p13272
sbag5
(g6
g7
(lp13273
g5
(g6
g7
(lp13274
Vcover
p13275
atp13276
Rp13277
(dp13278
g17
VVB
p13279
sbag5
(g6
g7
(lp13280
g5
(g6
g7
(lp13281
Vspoken
p13282
atp13283
Rp13284
(dp13285
g17
VVBN
p13286
sbag5
(g6
g7
(lp13287
g5
(g6
g7
(lp13288
g5
(g6
g7
(lp13289
Vlanguage
p13290
atp13291
Rp13292
(dp13293
g17
VNN
p13294
sbag5
(g6
g7
(lp13295
Vwords
p13296
atp13297
Rp13298
(dp13299
g17
VNNS
p13300
sbatp13301
Rp13302
(dp13303
g17
VNP
p13304
sbag5
(g6
g7
(lp13305
g5
(g6
g7
(lp13306
Vin
p13307
atp13308
Rp13309
(dp13310
g17
VIN
p13311
sbag5
(g6
g7
(lp13312
g5
(g6
g7
(lp13313
Vcts
p13314
atp13315
Rp13316
(dp13317
g17
VNN
p13318
sbatp13319
Rp13320
(dp13321
g17
VNP
p13322
sbatp13323
Rp13324
(dp13325
g17
VPP
p13326
sbatp13327
Rp13328
(dp13329
g17
VNP
p13330
sbag5
(g6
g7
(lp13331
g5
(g6
g7
(lp13332
Vvery
p13333
atp13334
Rp13335
(dp13336
g17
VRB
p13337
sbag5
(g6
g7
(lp13338
Vwell
p13339
atp13340
Rp13341
(dp13342
g17
VRB
p13343
sbatp13344
Rp13345
(dp13346
g17
VADVP
p13347
sbatp13348
Rp13349
(dp13350
g17
VVP
p13351
sbatp13352
Rp13353
(dp13354
g17
VVP
p13355
sbatp13356
Rp13357
(dp13358
g17
VVP
p13359
sbatp13360
Rp13361
(dp13362
g17
g210
sbatp13363
Rp13364
(dp13365
g17
VSBAR
p13366
sbatp13367
Rp13368
(dp13369
g17
VVP
p13370
sbatp13371
Rp13372
(dp13373
g17
g210
sbatp13374
Rp13375
(dp13376
g17
VSBAR
p13377
sbatp13378
Rp13379
(dp13380
g17
VVP
p13381
sbatp13382
Rp13383
(dp13384
g17
g210
sbatp13385
Rp13386
(dp13387
g17
VROOT
p13388
sbasg245
(icmyPackage
CorE
p13389
(dp13390
g248
(lp13391
(I1
I3
tp13392
a(I1
I27
tp13393
asg252
g13372
sbsg253
(icmyPackage
CorE
p13394
(dp13395
g248
(lp13396
(I0
I0
tp13397
a(I0
I16
tp13398
asg252
g13097
sbsg264
(icmyPackage
pattern
p13399
(dp13400
g267
I8
sg268
I1
sg269
(lp13401
(lp13402
S'because'
p13403
aasg275
(lp13404
I4
aI1
aI2
asg277
(lp13405
S'Amazing things will happen. This is often because they have found ways of bypassing what might seem like the remorseless inevitability of the curve and its slope.'
p13406
asg280
I100
sg281
(lp13407
(lp13408
S'&R'
p13409
aS'(,/./;/--)'
p13410
aS'(&AND)'
p13411
aS'&THIS'
p13412
aS'&BE'
p13413
aS'(&ADV)'
p13414
aa(lp13415
S'&C'
p13416
aasbsg287
(lp13417
(isxpPackage
sxpSent
p13418
(dp13419
g291
(lp13420
I33
asg293
VHowever, in domain cts, the improvement that word embeddings provide for word clusters is modest
p13421
sg295
I12
sg280
I115
sg296
I25
sba(isxpPackage
sxpSent
p13422
(dp13423
g291
(lp13424
I33
asg293
VThis is because the RCV1 corpus used to induce the word embeddings [ Turian et al.2010 ] does not cover spoken language words in cts very well
p13425
sg295
I12
sg280
I116
sg296
I25
sbasba.