(lp0
(icmyPackage
CELink
p1
(dp2
S'PTreelst'
p3
(lp4
ccopy_reg
_reconstructor
p5
(cnltk.tree
Tree
p6
c__builtin__
list
p7
(lp8
g5
(g6
g7
(lp9
g5
(g6
g7
(lp10
g5
(g6
g7
(lp11
VAs
p12
atp13
Rp14
(dp15
S'_label'
p16
VIN
p17
sbag5
(g6
g7
(lp18
g5
(g6
g7
(lp19
g5
(g6
g7
(lp20
Vstudents
p21
atp22
Rp23
(dp24
g16
VNNS
p25
sbatp26
Rp27
(dp28
g16
VNP
p29
sbag5
(g6
g7
(lp30
g5
(g6
g7
(lp31
Vread
p32
atp33
Rp34
(dp35
g16
VVBP
p36
sbag5
(g6
g7
(lp37
g5
(g6
g7
(lp38
Vexpository
p39
atp40
Rp41
(dp42
g16
VJJ
p43
sbag5
(g6
g7
(lp44
Vtext
p45
atp46
Rp47
(dp48
g16
VNN
p49
sbatp50
Rp51
(dp52
g16
VNP
p53
sbatp54
Rp55
(dp56
g16
VVP
p57
sbatp58
Rp59
(dp60
g16
VS
p61
sbatp62
Rp63
(dp64
g16
VSBAR
p65
sbag5
(g6
g7
(lp66
V,
p67
atp68
Rp69
(dp70
g16
g67
sbag5
(g6
g7
(lp71
g5
(g6
g7
(lp72
Vcomprehension
p73
atp74
Rp75
(dp76
g16
VNN
p77
sbatp78
Rp79
(dp80
g16
VNP
p81
sbag5
(g6
g7
(lp82
g5
(g6
g7
(lp83
Vis
p84
atp85
Rp86
(dp87
g16
VVBZ
p88
sbag5
(g6
g7
(lp89
g5
(g6
g7
(lp90
Vimproved
p91
atp92
Rp93
(dp94
g16
VVBN
p95
sbag5
(g6
g7
(lp96
g5
(g6
g7
(lp97
Vby
p98
atp99
Rp100
(dp101
g16
VIN
p102
sbag5
(g6
g7
(lp103
g5
(g6
g7
(lp104
g5
(g6
g7
(lp105
Vpausing
p106
atp107
Rp108
(dp109
g16
VVBG
p110
sbag5
(g6
g7
(lp111
g5
(g6
g7
(lp112
g5
(g6
g7
(lp113
Vto
p114
atp115
Rp116
(dp117
g16
VTO
p118
sbag5
(g6
g7
(lp119
g5
(g6
g7
(lp120
Vanswer
p121
atp122
Rp123
(dp124
g16
VVB
p125
sbag5
(g6
g7
(lp126
g5
(g6
g7
(lp127
g5
(g6
g7
(lp128
Vquestions
p129
atp130
Rp131
(dp132
g16
VNNS
p133
sbatp134
Rp135
(dp136
g16
VNP
p137
sbag5
(g6
g7
(lp138
g5
(g6
g7
(lp139
g5
(g6
g7
(lp140
Vthat
p141
atp142
Rp143
(dp144
g16
VWDT
p145
sbatp146
Rp147
(dp148
g16
VWHNP
p149
sbag5
(g6
g7
(lp150
g5
(g6
g7
(lp151
g5
(g6
g7
(lp152
Vreinforce
p153
atp154
Rp155
(dp156
g16
VVBP
p157
sbag5
(g6
g7
(lp158
g5
(g6
g7
(lp159
Vthe
p160
atp161
Rp162
(dp163
g16
VDT
p164
sbag5
(g6
g7
(lp165
Vmaterial
p166
atp167
Rp168
(dp169
g16
VNN
p170
sbatp171
Rp172
(dp173
g16
VNP
p174
sbatp175
Rp176
(dp177
g16
VVP
p178
sbatp179
Rp180
(dp181
g16
g61
sbatp182
Rp183
(dp184
g16
VSBAR
p185
sbatp186
Rp187
(dp188
g16
VNP
p189
sbatp190
Rp191
(dp192
g16
VVP
p193
sbatp194
Rp195
(dp196
g16
VVP
p197
sbatp198
Rp199
(dp200
g16
g61
sbatp201
Rp202
(dp203
g16
VVP
p204
sbatp205
Rp206
(dp207
g16
g61
sbatp208
Rp209
(dp210
g16
VPP
p211
sbatp212
Rp213
(dp214
g16
VVP
p215
sbatp216
Rp217
(dp218
g16
VVP
p219
sbatp220
Rp221
(dp222
g16
g61
sbatp223
Rp224
(dp225
g16
VROOT
p226
sbasS'cause'
p227
(icmyPackage
CorE
p228
(dp229
S'span'
p230
(lp231
(I0
I10
tp232
a(I0
I17
tp233
asS'PTree'
p234
g206
sbsS'effect'
p235
(icmyPackage
CorE
p236
(dp237
g230
(lp238
(I0
I0
tp239
a(I0
I8
tp240
asg234
g5
(g6
g7
(lp241
g63
ag69
ag79
ag86
ag93
atp242
Rp243
(dp244
g16
S'ROOT'
p245
sbsbsS'pt'
p246
(icmyPackage
pattern
p247
(dp248
S'pfreq'
p249
I0
sS'moresent'
p250
I0
sS'main_token'
p251
(lp252
(lp253
(lp254
S'by'
p255
aS'through'
p256
aaasS'ptype'
p257
(lp258
I2
aI1
aI1
asS'cases'
p259
(lp260
S'The similar relation can be detected by analyzing the contents of nodes based on such approaches as the Latent Semantic Analysis (LSA) and the Vector Space Model (VSM)'
p261
asS'id'
p262
I68
sS'constraints'
p263
(lp264
(lp265
S'&R@Complete@'
p266
aa(lp267
S'&V-ing@C@'
p268
aasbsS'sInfo'
p269
(lp270
(isxpPackage
sxpSent
p271
(dp272
S'sysCEidlst'
p273
(lp274
I0
asS'sentence_text'
p275
VAs students read expository text, comprehension is improved by pausing to answer questions that reinforce the material
p276
sS'id_sec'
p277
I1
sg262
I0
sS'id_para'
p278
I0
sbasba(icmyPackage
CELink
p279
(dp280
g3
(lp281
g5
(g6
g7
(lp282
g5
(g6
g7
(lp283
g5
(g6
g7
(lp284
g5
(g6
g7
(lp285
g5
(g6
g7
(lp286
VThe
p287
atp288
Rp289
(dp290
g16
VDT
p291
sbag5
(g6
g7
(lp292
Vvast
p293
atp294
Rp295
(dp296
g16
VJJ
p297
sbag5
(g6
g7
(lp298
Vmajority
p299
atp300
Rp301
(dp302
g16
VNN
p303
sbatp304
Rp305
(dp306
g16
VNP
p307
sbag5
(g6
g7
(lp308
g5
(g6
g7
(lp309
Vof
p310
atp311
Rp312
(dp313
g16
VIN
p314
sbag5
(g6
g7
(lp315
g5
(g6
g7
(lp316
Vsystems
p317
atp318
Rp319
(dp320
g16
VNNS
p321
sbatp322
Rp323
(dp324
g16
VNP
p325
sbatp326
Rp327
(dp328
g16
VPP
p329
sbatp330
Rp331
(dp332
g16
VNP
p333
sbag5
(g6
g7
(lp334
g5
(g6
g7
(lp335
Vgenerate
p336
atp337
Rp338
(dp339
g16
VVBP
p340
sbag5
(g6
g7
(lp341
g5
(g6
g7
(lp342
Vquestions
p343
atp344
Rp345
(dp346
g16
VNNS
p347
sbatp348
Rp349
(dp350
g16
VNP
p351
sbag5
(g6
g7
(lp352
g5
(g6
g7
(lp353
Vby
p354
atp355
Rp356
(dp357
g16
VIN
p358
sbag5
(g6
g7
(lp359
g5
(g6
g7
(lp360
g5
(g6
g7
(lp361
g5
(g6
g7
(lp362
Vselecting
p363
atp364
Rp365
(dp366
g16
VVBG
p367
sbag5
(g6
g7
(lp368
g5
(g6
g7
(lp369
g5
(g6
g7
(lp370
Vone
p371
atp372
Rp373
(dp374
g16
VCD
p375
sbag5
(g6
g7
(lp376
Vsentence
p377
atp378
Rp379
(dp380
g16
VNN
p381
sbatp382
Rp383
(dp384
g16
VNP
p385
sbag5
(g6
g7
(lp386
g5
(g6
g7
(lp387
Vat
p388
atp389
Rp390
(dp391
g16
VIN
p392
sbag5
(g6
g7
(lp393
g5
(g6
g7
(lp394
Va
p395
atp396
Rp397
(dp398
g16
VDT
p399
sbag5
(g6
g7
(lp400
Vtime
p401
atp402
Rp403
(dp404
g16
VNN
p405
sbatp406
Rp407
(dp408
g16
VNP
p409
sbatp410
Rp411
(dp412
g16
VPP
p413
sbatp414
Rp415
(dp416
g16
VNP
p417
sbatp418
Rp419
(dp420
g16
VVP
p421
sbag5
(g6
g7
(lp422
g67
atp423
Rp424
(dp425
g16
g67
sbag5
(g6
g7
(lp426
g5
(g6
g7
(lp427
Vextracting
p428
atp429
Rp430
(dp431
g16
VVBG
p432
sbag5
(g6
g7
(lp433
g5
(g6
g7
(lp434
g5
(g6
g7
(lp435
Vportions
p436
atp437
Rp438
(dp439
g16
VNNS
p440
sbatp441
Rp442
(dp443
g16
VNP
p444
sbag5
(g6
g7
(lp445
g5
(g6
g7
(lp446
Vof
p447
atp448
Rp449
(dp450
g16
VIN
p451
sbag5
(g6
g7
(lp452
g5
(g6
g7
(lp453
Vthe
p454
atp455
Rp456
(dp457
g16
VDT
p458
sbag5
(g6
g7
(lp459
Vsource
p460
atp461
Rp462
(dp463
g16
VNN
p464
sbag5
(g6
g7
(lp465
Vsentence
p466
atp467
Rp468
(dp469
g16
VNN
p470
sbatp471
Rp472
(dp473
g16
VNP
p474
sbatp475
Rp476
(dp477
g16
VPP
p478
sbatp479
Rp480
(dp481
g16
VNP
p482
sbatp483
Rp484
(dp485
g16
VVP
p486
sbag5
(g6
g7
(lp487
g67
atp488
Rp489
(dp490
g16
g67
sbag5
(g6
g7
(lp491
g5
(g6
g7
(lp492
Vthen
p493
atp494
Rp495
(dp496
g16
VRB
p497
sbatp498
Rp499
(dp500
g16
VADVP
p501
sbag5
(g6
g7
(lp502
g5
(g6
g7
(lp503
Vapplying
p504
atp505
Rp506
(dp507
g16
VVBG
p508
sbag5
(g6
g7
(lp509
g5
(g6
g7
(lp510
Vtransformation
p511
atp512
Rp513
(dp514
g16
VNN
p515
sbag5
(g6
g7
(lp516
Vrules
p517
atp518
Rp519
(dp520
g16
VNNS
p521
sbag5
(g6
g7
(lp522
Vor
p523
atp524
Rp525
(dp526
g16
VCC
p527
sbag5
(g6
g7
(lp528
Vpatterns
p529
atp530
Rp531
(dp532
g16
VNNS
p533
sbatp534
Rp535
(dp536
g16
VNP
p537
sbag5
(g6
g7
(lp538
g5
(g6
g7
(lp539
Vin
p540
atp541
Rp542
(dp543
g16
VIN
p544
sbag5
(g6
g7
(lp545
Vorder
p546
atp547
Rp548
(dp549
g16
VNN
p550
sbag5
(g6
g7
(lp551
g5
(g6
g7
(lp552
g5
(g6
g7
(lp553
Vto
p554
atp555
Rp556
(dp557
g16
VTO
p558
sbag5
(g6
g7
(lp559
g5
(g6
g7
(lp560
Vconstruct
p561
atp562
Rp563
(dp564
g16
VVB
p565
sbag5
(g6
g7
(lp566
g5
(g6
g7
(lp567
g395
atp568
Rp569
(dp570
g16
VDT
p571
sbag5
(g6
g7
(lp572
Vquestion
p573
atp574
Rp575
(dp576
g16
VNN
p577
sbatp578
Rp579
(dp580
g16
VNP
p581
sbatp582
Rp583
(dp584
g16
VVP
p585
sbatp586
Rp587
(dp588
g16
VVP
p589
sbatp590
Rp591
(dp592
g16
g61
sbatp593
Rp594
(dp595
g16
VSBAR
p596
sbatp597
Rp598
(dp599
g16
VVP
p600
sbatp601
Rp602
(dp603
g16
VVP
p604
sbatp605
Rp606
(dp607
g16
g61
sbatp608
Rp609
(dp610
g16
VPP
p611
sbatp612
Rp613
(dp614
g16
VVP
p615
sbatp616
Rp617
(dp618
g16
g61
sbatp619
Rp620
(dp621
g16
VROOT
p622
sbasg227
(icmyPackage
CorE
p623
(dp624
g230
(lp625
(I0
I8
tp626
a(I0
I33
tp627
asg234
g606
sbsg235
(icmyPackage
CorE
p628
(dp629
g230
(lp630
(I0
I0
tp631
a(I0
I6
tp632
asg234
g5
(g6
g7
(lp633
g331
ag338
ag349
atp634
Rp635
(dp636
g16
g245
sbsbsg246
g247
sg269
(lp637
(isxpPackage
sxpSent
p638
(dp639
g273
(lp640
I1
asg275
VThe vast majority of systems generate questions by selecting one sentence at a time, extracting portions of the source sentence, then applying transformation rules or patterns in order to construct a question
p641
sg277
I3
sg262
I8
sg278
I2
sbasba(icmyPackage
CELink
p642
(dp643
g3
(lp644
g5
(g6
g7
(lp645
g5
(g6
g7
(lp646
g5
(g6
g7
(lp647
g5
(g6
g7
(lp648
VThese
p649
atp650
Rp651
(dp652
g16
VDT
p653
sbag5
(g6
g7
(lp654
Vapproaches
p655
atp656
Rp657
(dp658
g16
VNNS
p659
sbatp660
Rp661
(dp662
g16
VNP
p663
sbag5
(g6
g7
(lp664
g5
(g6
g7
(lp665
Vcan
p666
atp667
Rp668
(dp669
g16
VMD
p670
sbag5
(g6
g7
(lp671
g5
(g6
g7
(lp672
Vpotentially
p673
atp674
Rp675
(dp676
g16
VRB
p677
sbatp678
Rp679
(dp680
g16
VADVP
p681
sbag5
(g6
g7
(lp682
g5
(g6
g7
(lp683
Vask
p684
atp685
Rp686
(dp687
g16
VVB
p688
sbag5
(g6
g7
(lp689
g5
(g6
g7
(lp690
Vdeeper
p691
atp692
Rp693
(dp694
g16
VJJR
p695
sbag5
(g6
g7
(lp696
Vquestions
p697
atp698
Rp699
(dp700
g16
VNNS
p701
sbatp702
Rp703
(dp704
g16
VNP
p705
sbag5
(g6
g7
(lp706
g5
(g6
g7
(lp707
Vdue
p708
atp709
Rp710
(dp711
g16
VJJ
p712
sbag5
(g6
g7
(lp713
Vto
p714
atp715
Rp716
(dp717
g16
VTO
p718
sbag5
(g6
g7
(lp719
g5
(g6
g7
(lp720
g5
(g6
g7
(lp721
Vtheir
p722
atp723
Rp724
(dp725
g16
VPRP$
p726
sbag5
(g6
g7
(lp727
Vfocus
p728
atp729
Rp730
(dp731
g16
VNN
p732
sbatp733
Rp734
(dp735
g16
VNP
p736
sbag5
(g6
g7
(lp737
g5
(g6
g7
(lp738
Von
p739
atp740
Rp741
(dp742
g16
VIN
p743
sbag5
(g6
g7
(lp744
g5
(g6
g7
(lp745
Vsemantics
p746
atp747
Rp748
(dp749
g16
VNNS
p750
sbatp751
Rp752
(dp753
g16
VNP
p754
sbatp755
Rp756
(dp757
g16
VPP
p758
sbatp759
Rp760
(dp761
g16
VNP
p762
sbatp763
Rp764
(dp765
g16
VPP
p766
sbatp767
Rp768
(dp769
g16
VVP
p770
sbatp771
Rp772
(dp773
g16
VVP
p774
sbatp775
Rp776
(dp777
g16
g61
sbatp778
Rp779
(dp780
g16
VROOT
p781
sbasg227
(icmyPackage
CorE
p782
(dp783
g230
(lp784
(I0
I9
tp785
a(I0
I12
tp786
asg234
g760
sbsg235
(icmyPackage
CorE
p787
(dp788
g230
(lp789
(I0
I0
tp790
a(I0
I6
tp791
asg234
g5
(g6
g7
(lp792
g661
ag668
ag679
ag686
ag703
atp793
Rp794
(dp795
g16
g245
sbsbsg246
(icmyPackage
pattern
p796
(dp797
g249
I0
sg250
I0
sg251
(lp798
(lp799
S'due'
p800
aS'to'
p801
aasg257
(lp802
I2
aI1
aI1
asg259
(lp803
S'Data stored on hard disks is at higher risk due to the mechanical nature of the device.'
p804
asg262
I72
sg263
(lp805
(lp806
S'&R'
p807
aa(lp808
S'&NP@C@'
p809
aasbsg269
(lp810
(isxpPackage
sxpSent
p811
(dp812
g273
(lp813
I2
asg275
VThese approaches can potentially ask deeper questions due to their focus on semantics
p814
sg277
I3
sg262
I18
sg278
I3
sbasba(icmyPackage
CELink
p815
(dp816
g3
(lp817
g5
(g6
g7
(lp818
g5
(g6
g7
(lp819
g5
(g6
g7
(lp820
g5
(g6
g7
(lp821
VFirst
p822
atp823
Rp824
(dp825
g16
VRB
p826
sbatp827
Rp828
(dp829
g16
VADVP
p830
sbag5
(g6
g7
(lp831
g67
atp832
Rp833
(dp834
g16
g67
sbag5
(g6
g7
(lp835
g5
(g6
g7
(lp836
Vthe
p837
atp838
Rp839
(dp840
g16
VDT
p841
sbag5
(g6
g7
(lp842
Vsource
p843
atp844
Rp845
(dp846
g16
VNN
p847
sbag5
(g6
g7
(lp848
Vtext
p849
atp850
Rp851
(dp852
g16
VNN
p853
sbatp854
Rp855
(dp856
g16
VNP
p857
sbag5
(g6
g7
(lp858
g5
(g6
g7
(lp859
Vis
p860
atp861
Rp862
(dp863
g16
VVBZ
p864
sbag5
(g6
g7
(lp865
g5
(g6
g7
(lp866
g5
(g6
g7
(lp867
Vdivided
p868
atp869
Rp870
(dp871
g16
VVBN
p872
sbag5
(g6
g7
(lp873
g5
(g6
g7
(lp874
Vinto
p875
atp876
Rp877
(dp878
g16
VIN
p879
sbag5
(g6
g7
(lp880
g5
(g6
g7
(lp881
g5
(g6
g7
(lp882
Vsentences
p883
atp884
Rp885
(dp886
g16
VNNS
p887
sbatp888
Rp889
(dp890
g16
VNP
p891
sbag5
(g6
g7
(lp892
g5
(g6
g7
(lp893
g5
(g6
g7
(lp894
Vwhich
p895
atp896
Rp897
(dp898
g16
VWDT
p899
sbatp900
Rp901
(dp902
g16
VWHNP
p903
sbag5
(g6
g7
(lp904
g5
(g6
g7
(lp905
g5
(g6
g7
(lp906
Vare
p907
atp908
Rp909
(dp910
g16
VVBP
p911
sbag5
(g6
g7
(lp912
g5
(g6
g7
(lp913
Vprocessed
p914
atp915
Rp916
(dp917
g16
VJJ
p918
sbag5
(g6
g7
(lp919
g5
(g6
g7
(lp920
Vby
p921
atp922
Rp923
(dp924
g16
VIN
p925
sbag5
(g6
g7
(lp926
g5
(g6
g7
(lp927
g5
(g6
g7
(lp928
VSENNA
p929
atp930
Rp931
(dp932
g16
VVBG
p933
sbag5
(g6
g7
(lp934
g5
(g6
g7
(lp935
g5
(g6
g7
(lp936
V1
p937
atp938
Rp939
(dp940
g16
VCD
p941
sbag5
(g6
g7
(lp942
g937
atp943
Rp944
(dp945
g16
VCD
p946
sbatp947
Rp948
(dp949
g16
VQP
p950
sbag5
(g6
g7
(lp951
Vhttp://ml.nec-labs.com/senna/
p952
atp953
Rp954
(dp955
g16
VJJ
p956
sbag5
(g6
g7
(lp957
Vsoftware
p958
atp959
Rp960
(dp961
g16
VNN
p962
sbatp963
Rp964
(dp965
g16
VNP
p966
sbatp967
Rp968
(dp969
g16
VVP
p970
sbatp971
Rp972
(dp973
g16
g61
sbatp974
Rp975
(dp976
g16
VPP
p977
sbatp978
Rp979
(dp980
g16
VADJP
p981
sbatp982
Rp983
(dp984
g16
VVP
p985
sbatp986
Rp987
(dp988
g16
g61
sbatp989
Rp990
(dp991
g16
VSBAR
p992
sbatp993
Rp994
(dp995
g16
VNP
p996
sbatp997
Rp998
(dp999
g16
VPP
p1000
sbatp1001
Rp1002
(dp1003
g16
VVP
p1004
sbag5
(g6
g7
(lp1005
g67
atp1006
Rp1007
(dp1008
g16
g67
sbag5
(g6
g7
(lp1009
g5
(g6
g7
(lp1010
Vdescribed
p1011
atp1012
Rp1013
(dp1014
g16
VVBN
p1015
sbag5
(g6
g7
(lp1016
g5
(g6
g7
(lp1017
Vin
p1018
atp1019
Rp1020
(dp1021
g16
VIN
p1022
sbag5
(g6
g7
(lp1023
g5
(g6
g7
(lp1024
V-LRB-
p1025
atp1026
Rp1027
(dp1028
g16
V-LRB-
p1029
sbag5
(g6
g7
(lp1030
VCollobert
p1031
atp1032
Rp1033
(dp1034
g16
VNNP
p1035
sbag5
(g6
g7
(lp1036
Vet
p1037
atp1038
Rp1039
(dp1040
g16
VFW
p1041
sbag5
(g6
g7
(lp1042
Val.
p1043
atp1044
Rp1045
(dp1046
g16
VNNP
p1047
sbatp1048
Rp1049
(dp1050
g16
VNP
p1051
sbatp1052
Rp1053
(dp1054
g16
VPP
p1055
sbatp1056
Rp1057
(dp1058
g16
VVP
p1059
sbag5
(g6
g7
(lp1060
g67
atp1061
Rp1062
(dp1063
g16
g67
sbag5
(g6
g7
(lp1064
g5
(g6
g7
(lp1065
V2011
p1066
atp1067
Rp1068
(dp1069
g16
VCD
p1070
sbatp1071
Rp1072
(dp1073
g16
VNP
p1074
sbatp1075
Rp1076
(dp1077
g16
VVP
p1078
sbatp1079
Rp1080
(dp1081
g16
VVP
p1082
sbatp1083
Rp1084
(dp1085
g16
g61
sbatp1086
Rp1087
(dp1088
g16
VROOT
p1089
sbasg227
(icmyPackage
CorE
p1090
(dp1091
g230
(lp1092
(I0
I13
tp1093
a(I0
I17
tp1094
asg234
g972
sbsg235
(icmyPackage
CorE
p1095
(dp1096
g230
(lp1097
(I0
I18
tp1098
a(I0
I26
tp1099
asg234
g5
(g6
g7
(lp1100
g1007
ag1057
ag1062
ag1072
atp1101
Rp1102
(dp1103
g16
g245
sbsbsg246
(icmyPackage
pattern
p1104
(dp1105
g249
I0
sg250
I0
sg251
(lp1106
(lp1107
(lp1108
S'by'
p1109
aS'through'
p1110
aaasg257
(lp1111
I2
aI1
aI1
asg259
(lp1112
S'By extracting comments and comparisons of the cited articles and then organizing them according to the time of publication discovers and displays how the area has developed as a research literature.'
p1113
asg262
I67
sg263
(lp1114
(lp1115
a(lp1116
S'&V-ing@C@'
p1117
aS'&R'
p1118
aasbsg269
(lp1119
(isxpPackage
sxpSent
p1120
(dp1121
g273
(lp1122
I3
asg275
VFirst, the source text is divided into sentences which are processed by SENNA 1 1 http://ml.nec-labs.com/senna/ software, described in (Collobert et al., 2011
p1123
sg277
I4
sg262
I25
sg278
I5
sbasba(icmyPackage
CELink
p1124
(dp1125
g3
(lp1126
g5
(g6
g7
(lp1127
g5
(g6
g7
(lp1128
g5
(g6
g7
(lp1129
g5
(g6
g7
(lp1130
VAdditionally
p1131
atp1132
Rp1133
(dp1134
g16
VRB
p1135
sbatp1136
Rp1137
(dp1138
g16
VADVP
p1139
sbag5
(g6
g7
(lp1140
g67
atp1141
Rp1142
(dp1143
g16
g67
sbag5
(g6
g7
(lp1144
g5
(g6
g7
(lp1145
Vpatterns
p1146
atp1147
Rp1148
(dp1149
g16
VNNS
p1150
sbatp1151
Rp1152
(dp1153
g16
VNP
p1154
sbag5
(g6
g7
(lp1155
g5
(g6
g7
(lp1156
Vindicate
p1157
atp1158
Rp1159
(dp1160
g16
VVBP
p1161
sbag5
(g6
g7
(lp1162
g5
(g6
g7
(lp1163
g5
(g6
g7
(lp1164
Vthe
p1165
atp1166
Rp1167
(dp1168
g16
VDT
p1169
sbag5
(g6
g7
(lp1170
Vsemantic
p1171
atp1172
Rp1173
(dp1174
g16
VJJ
p1175
sbag5
(g6
g7
(lp1176
Varguments
p1177
atp1178
Rp1179
(dp1180
g16
VNNS
p1181
sbatp1182
Rp1183
(dp1184
g16
VNP
p1185
sbag5
(g6
g7
(lp1186
g5
(g6
g7
(lp1187
g5
(g6
g7
(lp1188
Vthat
p1189
atp1190
Rp1191
(dp1192
g16
VWDT
p1193
sbatp1194
Rp1195
(dp1196
g16
VWHNP
p1197
sbag5
(g6
g7
(lp1198
g5
(g6
g7
(lp1199
g5
(g6
g7
(lp1200
Vprovide
p1201
atp1202
Rp1203
(dp1204
g16
VVBP
p1205
sbag5
(g6
g7
(lp1206
g5
(g6
g7
(lp1207
Vthe
p1208
atp1209
Rp1210
(dp1211
g16
VDT
p1212
sbag5
(g6
g7
(lp1213
Vanswer
p1214
atp1215
Rp1216
(dp1217
g16
VNN
p1218
sbatp1219
Rp1220
(dp1221
g16
VNP
p1222
sbag5
(g6
g7
(lp1223
g5
(g6
g7
(lp1224
Vto
p1225
atp1226
Rp1227
(dp1228
g16
VTO
p1229
sbag5
(g6
g7
(lp1230
g5
(g6
g7
(lp1231
g5
(g6
g7
(lp1232
Vthe
p1233
atp1234
Rp1235
(dp1236
g16
VDT
p1237
sbag5
(g6
g7
(lp1238
Vquestion
p1239
atp1240
Rp1241
(dp1242
g16
VNN
p1243
sbatp1244
Rp1245
(dp1246
g16
VNP
p1247
sbag5
(g6
g7
(lp1248
g67
atp1249
Rp1250
(dp1251
g16
g67
sbag5
(g6
g7
(lp1252
g5
(g6
g7
(lp1253
Vrequired
p1254
atp1255
Rp1256
(dp1257
g16
VJJ
p1258
sbag5
(g6
g7
(lp1259
Vfields
p1260
atp1261
Rp1262
(dp1263
g16
VNNS
p1264
sbatp1265
Rp1266
(dp1267
g16
VNP
p1268
sbag5
(g6
g7
(lp1269
g67
atp1270
Rp1271
(dp1272
g16
g67
sbag5
(g6
g7
(lp1273
Vand
p1274
atp1275
Rp1276
(dp1277
g16
VCC
p1278
sbag5
(g6
g7
(lp1279
g5
(g6
g7
(lp1280
Vfilter
p1281
atp1282
Rp1283
(dp1284
g16
VNN
p1285
sbag5
(g6
g7
(lp1286
Vcondition
p1287
atp1288
Rp1289
(dp1290
g16
VNN
p1291
sbag5
(g6
g7
(lp1292
Vfields
p1293
atp1294
Rp1295
(dp1296
g16
VNNS
p1297
sbatp1298
Rp1299
(dp1300
g16
VNP
p1301
sbatp1302
Rp1303
(dp1304
g16
VNP
p1305
sbatp1306
Rp1307
(dp1308
g16
VPP
p1309
sbatp1310
Rp1311
(dp1312
g16
VVP
p1313
sbatp1314
Rp1315
(dp1316
g16
g61
sbatp1317
Rp1318
(dp1319
g16
VSBAR
p1320
sbatp1321
Rp1322
(dp1323
g16
VNP
p1324
sbatp1325
Rp1326
(dp1327
g16
VVP
p1328
sbatp1329
Rp1330
(dp1331
g16
g61
sbatp1332
Rp1333
(dp1334
g16
VROOT
p1335
sbasg227
(icmyPackage
CorE
p1336
(dp1337
g230
(lp1338
(I0
I2
tp1339
ag1339
asg234
g1152
sbsg235
(icmyPackage
CorE
p1340
(dp1341
g230
(lp1342
(I0
I4
tp1343
a(I0
I21
tp1344
asg234
g1322
sbsg246
(icmyPackage
pattern
p1345
(dp1346
g249
I0
sg250
I0
sg251
(lp1347
(lp1348
(lp1349
S'indicate'
p1350
aS'indicates'
p1351
aS'indicated'
p1352
aS'realize'
p1353
aS'realizes'
p1354
aS'realized'
p1355
aS'ensure'
p1356
aS'ensures'
p1357
aS'ensured'
p1358
aS'imply'
p1359
aS'implies'
p1360
aS'implied'
p1361
aaasg257
(lp1362
I4
aI1
aI1
asg259
(lp1363
S'The basic characteristics and principles of language use and understanding indicate the following dimensions for evaluating a summarization'
p1364
asg262
I88
sg263
(lp1365
(lp1366
S'&NP@C@'
p1367
aS'(&Clause@C@)'
p1368
aa(lp1369
S'&NP@R@'
p1370
aS'(&Clause@R@)'
p1371
aasbsg269
(lp1372
(isxpPackage
sxpSent
p1373
(dp1374
g273
(lp1375
I4
aI5
asg275
VAdditionally, patterns indicate the semantic arguments that provide the answer to the question, required fields, and filter condition fields
p1376
sg277
I4
sg262
I31
sg278
I6
sbasba(icmyPackage
CELink
p1377
(dp1378
g3
(lp1379
g1333
ag5
(g6
g7
(lp1380
g5
(g6
g7
(lp1381
g5
(g6
g7
(lp1382
g5
(g6
g7
(lp1383
VAs
p1384
atp1385
Rp1386
(dp1387
g16
VIN
p1388
sbag5
(g6
g7
(lp1389
g5
(g6
g7
(lp1390
g5
(g6
g7
(lp1391
Vthese
p1392
atp1393
Rp1394
(dp1395
g16
VDT
p1396
sbag5
(g6
g7
(lp1397
Vpatterns
p1398
atp1399
Rp1400
(dp1401
g16
VNNS
p1402
sbatp1403
Rp1404
(dp1405
g16
VNP
p1406
sbag5
(g6
g7
(lp1407
g5
(g6
g7
(lp1408
Vare
p1409
atp1410
Rp1411
(dp1412
g16
VVBP
p1413
sbag5
(g6
g7
(lp1414
g5
(g6
g7
(lp1415
Vmatched
p1416
atp1417
Rp1418
(dp1419
g16
VVBN
p1420
sbatp1421
Rp1422
(dp1423
g16
VVP
p1424
sbatp1425
Rp1426
(dp1427
g16
VVP
p1428
sbatp1429
Rp1430
(dp1431
g16
g61
sbatp1432
Rp1433
(dp1434
g16
VSBAR
p1435
sbag5
(g6
g7
(lp1436
g67
atp1437
Rp1438
(dp1439
g16
g67
sbag5
(g6
g7
(lp1440
g5
(g6
g7
(lp1441
Vthey
p1442
atp1443
Rp1444
(dp1445
g16
VPRP
p1446
sbatp1447
Rp1448
(dp1449
g16
VNP
p1450
sbag5
(g6
g7
(lp1451
g5
(g6
g7
(lp1452
Vwill
p1453
atp1454
Rp1455
(dp1456
g16
VMD
p1457
sbag5
(g6
g7
(lp1458
g5
(g6
g7
(lp1459
Vbe
p1460
atp1461
Rp1462
(dp1463
g16
VVB
p1464
sbag5
(g6
g7
(lp1465
g5
(g6
g7
(lp1466
Vrejected
p1467
atp1468
Rp1469
(dp1470
g16
VVBN
p1471
sbag5
(g6
g7
(lp1472
g5
(g6
g7
(lp1473
Vas
p1474
atp1475
Rp1476
(dp1477
g16
VIN
p1478
sbag5
(g6
g7
(lp1479
g5
(g6
g7
(lp1480
g5
(g6
g7
(lp1481
Vcandidates
p1482
atp1483
Rp1484
(dp1485
g16
VNNS
p1486
sbatp1487
Rp1488
(dp1489
g16
VNP
p1490
sbag5
(g6
g7
(lp1491
g5
(g6
g7
(lp1492
Vfor
p1493
atp1494
Rp1495
(dp1496
g16
VIN
p1497
sbag5
(g6
g7
(lp1498
g5
(g6
g7
(lp1499
g5
(g6
g7
(lp1500
Vgeneration
p1501
atp1502
Rp1503
(dp1504
g16
VNN
p1505
sbatp1506
Rp1507
(dp1508
g16
VNP
p1509
sbag5
(g6
g7
(lp1510
g5
(g6
g7
(lp1511
Vfor
p1512
atp1513
Rp1514
(dp1515
g16
VIN
p1516
sbag5
(g6
g7
(lp1517
g5
(g6
g7
(lp1518
g395
atp1519
Rp1520
(dp1521
g16
VDT
p1522
sbag5
(g6
g7
(lp1523
Vparticular
p1524
atp1525
Rp1526
(dp1527
g16
VJJ
p1528
sbag5
(g6
g7
(lp1529
Vsentence
p1530
atp1531
Rp1532
(dp1533
g16
VNN
p1534
sbatp1535
Rp1536
(dp1537
g16
VNP
p1538
sbatp1539
Rp1540
(dp1541
g16
VPP
p1542
sbatp1543
Rp1544
(dp1545
g16
VNP
p1546
sbatp1547
Rp1548
(dp1549
g16
VPP
p1550
sbatp1551
Rp1552
(dp1553
g16
VNP
p1554
sbatp1555
Rp1556
(dp1557
g16
VPP
p1558
sbag5
(g6
g7
(lp1559
g5
(g6
g7
(lp1560
g5
(g6
g7
(lp1561
Vif
p1562
atp1563
Rp1564
(dp1565
g16
VIN
p1566
sbag5
(g6
g7
(lp1567
g5
(g6
g7
(lp1568
g5
(g6
g7
(lp1569
Vthe
p1570
atp1571
Rp1572
(dp1573
g16
VDT
p1574
sbag5
(g6
g7
(lp1575
Vrequired
p1576
atp1577
Rp1578
(dp1579
g16
VVBN
p1580
sbag5
(g6
g7
(lp1581
Varguments
p1582
atp1583
Rp1584
(dp1585
g16
VNNS
p1586
sbatp1587
Rp1588
(dp1589
g16
VNP
p1590
sbag5
(g6
g7
(lp1591
g5
(g6
g7
(lp1592
Vare
p1593
atp1594
Rp1595
(dp1596
g16
VVBP
p1597
sbag5
(g6
g7
(lp1598
g5
(g6
g7
(lp1599
Vabsent
p1600
atp1601
Rp1602
(dp1603
g16
VJJ
p1604
sbatp1605
Rp1606
(dp1607
g16
VADJP
p1608
sbatp1609
Rp1610
(dp1611
g16
VVP
p1612
sbatp1613
Rp1614
(dp1615
g16
g61
sbatp1616
Rp1617
(dp1618
g16
VSBAR
p1619
sbag5
(g6
g7
(lp1620
Vor
p1621
atp1622
Rp1623
(dp1624
g16
VCC
p1625
sbag5
(g6
g7
(lp1626
g5
(g6
g7
(lp1627
Vif
p1628
atp1629
Rp1630
(dp1631
g16
VIN
p1632
sbag5
(g6
g7
(lp1633
g5
(g6
g7
(lp1634
g5
(g6
g7
(lp1635
Vfilter
p1636
atp1637
Rp1638
(dp1639
g16
VNN
p1640
sbag5
(g6
g7
(lp1641
Vconditions
p1642
atp1643
Rp1644
(dp1645
g16
VNNS
p1646
sbatp1647
Rp1648
(dp1649
g16
VNP
p1650
sbag5
(g6
g7
(lp1651
g5
(g6
g7
(lp1652
Vare
p1653
atp1654
Rp1655
(dp1656
g16
VVBP
p1657
sbag5
(g6
g7
(lp1658
g5
(g6
g7
(lp1659
Vpresent
p1660
atp1661
Rp1662
(dp1663
g16
VJJ
p1664
sbatp1665
Rp1666
(dp1667
g16
VADJP
p1668
sbatp1669
Rp1670
(dp1671
g16
VVP
p1672
sbatp1673
Rp1674
(dp1675
g16
g61
sbatp1676
Rp1677
(dp1678
g16
VSBAR
p1679
sbatp1680
Rp1681
(dp1682
g16
VSBAR
p1683
sbatp1684
Rp1685
(dp1686
g16
VVP
p1687
sbatp1688
Rp1689
(dp1690
g16
VVP
p1691
sbatp1692
Rp1693
(dp1694
g16
VVP
p1695
sbatp1696
Rp1697
(dp1698
g16
g61
sbatp1699
Rp1700
(dp1701
g16
VROOT
p1702
sbasg227
(icmyPackage
CorE
p1703
(dp1704
g230
(lp1705
(I1
I1
tp1706
a(I1
I29
tp1707
asg234
g5
(g6
g7
(lp1708
g1430
ag1438
ag1448
ag1693
atp1709
Rp1710
(dp1711
g16
g245
sbsbsg235
(icmyPackage
CorE
p1712
(dp1713
g230
(lp1714
(I0
I0
tp1715
a(I0
I21
tp1716
asg234
g1333
sbsg246
(icmyPackage
pattern
p1717
(dp1718
g249
I26
sg250
I1
sg251
(lp1719
(lp1720
S'as'
p1721
aasg257
(lp1722
I3
aI1
aI1
asg259
(lp1723
S'You do not need to worry about the operation, as the software is very easy to use.'
p1724
asg262
I80
sg263
(lp1725
(lp1726
S'&R@Complete@'
p1727
aS'(,)'
p1728
aS'(-such/-same/-seem/-regard/-regards/-regarded/-view/-views/-viewed/-denote/-denoted/-denotes)'
p1729
aa(lp1730
S'(-if/-follow/-follows/-&adv)'
p1731
aS'&C@Complete@'
p1732
aasbsg269
(lp1733
g1373
a(isxpPackage
sxpSent
p1734
(dp1735
g273
(lp1736
I5
asg275
VAs these patterns are matched, they will be rejected as candidates for generation for a particular sentence if the required arguments are absent or if filter conditions are present
p1737
sg277
I4
sg262
I32
sg278
I6
sbasba(icmyPackage
CELink
p1738
(dp1739
g3
(lp1740
g5
(g6
g7
(lp1741
g5
(g6
g7
(lp1742
g5
(g6
g7
(lp1743
g5
(g6
g7
(lp1744
VPatterns
p1745
atp1746
Rp1747
(dp1748
g16
VRB
p1749
sbatp1750
Rp1751
(dp1752
g16
VADVP
p1753
sbag5
(g6
g7
(lp1754
g5
(g6
g7
(lp1755
Vspecify
p1756
atp1757
Rp1758
(dp1759
g16
VVB
p1760
sbag5
(g6
g7
(lp1761
g5
(g6
g7
(lp1762
g5
(g6
g7
(lp1763
Vwhether
p1764
atp1765
Rp1766
(dp1767
g16
VIN
p1768
sbag5
(g6
g7
(lp1769
g5
(g6
g7
(lp1770
g5
(g6
g7
(lp1771
Vverbs
p1772
atp1773
Rp1774
(dp1775
g16
VNNS
p1776
sbatp1777
Rp1778
(dp1779
g16
VNP
p1780
sbag5
(g6
g7
(lp1781
g5
(g6
g7
(lp1782
Vshould
p1783
atp1784
Rp1785
(dp1786
g16
VMD
p1787
sbag5
(g6
g7
(lp1788
g5
(g6
g7
(lp1789
Vbe
p1790
atp1791
Rp1792
(dp1793
g16
VVB
p1794
sbag5
(g6
g7
(lp1795
g5
(g6
g7
(lp1796
Vincluded
p1797
atp1798
Rp1799
(dp1800
g16
VVBN
p1801
sbag5
(g6
g7
(lp1802
g5
(g6
g7
(lp1803
Vin
p1804
atp1805
Rp1806
(dp1807
g16
VIN
p1808
sbag5
(g6
g7
(lp1809
g5
(g6
g7
(lp1810
Vtheir
p1811
atp1812
Rp1813
(dp1814
g16
VPRP$
p1815
sbag5
(g6
g7
(lp1816
Vlexical
p1817
atp1818
Rp1819
(dp1820
g16
VJJ
p1821
sbag5
(g6
g7
(lp1822
Vform
p1823
atp1824
Rp1825
(dp1826
g16
VNN
p1827
sbatp1828
Rp1829
(dp1830
g16
VNP
p1831
sbatp1832
Rp1833
(dp1834
g16
VPP
p1835
sbatp1836
Rp1837
(dp1838
g16
VVP
p1839
sbatp1840
Rp1841
(dp1842
g16
VVP
p1843
sbatp1844
Rp1845
(dp1846
g16
VVP
p1847
sbatp1848
Rp1849
(dp1850
g16
g61
sbatp1851
Rp1852
(dp1853
g16
VSBAR
p1854
sbag5
(g6
g7
(lp1855
Vor
p1856
atp1857
Rp1858
(dp1859
g16
VCC
p1860
sbag5
(g6
g7
(lp1861
g5
(g6
g7
(lp1862
Vas
p1863
atp1864
Rp1865
(dp1866
g16
VIN
p1867
sbag5
(g6
g7
(lp1868
g5
(g6
g7
(lp1869
g5
(g6
g7
(lp1870
Vthey
p1871
atp1872
Rp1873
(dp1874
g16
VPRP
p1875
sbatp1876
Rp1877
(dp1878
g16
VNP
p1879
sbag5
(g6
g7
(lp1880
g5
(g6
g7
(lp1881
Vappear
p1882
atp1883
Rp1884
(dp1885
g16
VVBP
p1886
sbag5
(g6
g7
(lp1887
g5
(g6
g7
(lp1888
Vin
p1889
atp1890
Rp1891
(dp1892
g16
VIN
p1893
sbag5
(g6
g7
(lp1894
g5
(g6
g7
(lp1895
Vthe
p1896
atp1897
Rp1898
(dp1899
g16
VDT
p1900
sbag5
(g6
g7
(lp1901
Vsource
p1902
atp1903
Rp1904
(dp1905
g16
VNN
p1906
sbag5
(g6
g7
(lp1907
Vtext
p1908
atp1909
Rp1910
(dp1911
g16
VNN
p1912
sbatp1913
Rp1914
(dp1915
g16
VNP
p1916
sbatp1917
Rp1918
(dp1919
g16
VPP
p1920
sbatp1921
Rp1922
(dp1923
g16
VVP
p1924
sbatp1925
Rp1926
(dp1927
g16
g61
sbatp1928
Rp1929
(dp1930
g16
VSBAR
p1931
sbatp1932
Rp1933
(dp1934
g16
VSBAR
p1935
sbatp1936
Rp1937
(dp1938
g16
VVP
p1939
sbatp1940
Rp1941
(dp1942
g16
g61
sbatp1943
Rp1944
(dp1945
g16
VROOT
p1946
sbasg227
(icmyPackage
CorE
p1947
(dp1948
g230
(lp1949
(I0
I13
tp1950
a(I0
I18
tp1951
asg234
g1926
sbsg235
(icmyPackage
CorE
p1952
(dp1953
g230
(lp1954
(I0
I3
tp1955
a(I0
I11
tp1956
asg234
g5
(g6
g7
(lp1957
g1849
ag1858
atp1958
Rp1959
(dp1960
g16
g245
sbsbsg246
g1717
sg269
(lp1961
(isxpPackage
sxpSent
p1962
(dp1963
g273
(lp1964
I6
asg275
VPatterns specify whether verbs should be included in their lexical form or as they appear in the source text
p1965
sg277
I4
sg262
I39
sg278
I7
sbasba(icmyPackage
CELink
p1966
(dp1967
g3
(lp1968
g5
(g6
g7
(lp1969
g5
(g6
g7
(lp1970
g5
(g6
g7
(lp1971
g5
(g6
g7
(lp1972
VThe
p1973
atp1974
Rp1975
(dp1976
g16
VDT
p1977
sbag5
(g6
g7
(lp1978
Vlungs
p1979
atp1980
Rp1981
(dp1982
g16
VNNS
p1983
sbatp1984
Rp1985
(dp1986
g16
VNP
p1987
sbag5
(g6
g7
(lp1988
g5
(g6
g7
(lp1989
Vtake
p1990
atp1991
Rp1992
(dp1993
g16
VVBP
p1994
sbag5
(g6
g7
(lp1995
g5
(g6
g7
(lp1996
Vin
p1997
atp1998
Rp1999
(dp2000
g16
VIN
p2001
sbag5
(g6
g7
(lp2002
g5
(g6
g7
(lp2003
Vair
p2004
atp2005
Rp2006
(dp2007
g16
VNN
p2008
sbatp2009
Rp2010
(dp2011
g16
VNP
p2012
sbatp2013
Rp2014
(dp2015
g16
VPP
p2016
sbatp2017
Rp2018
(dp2019
g16
VVP
p2020
sbatp2021
Rp2022
(dp2023
g16
g61
sbatp2024
Rp2025
(dp2026
g16
VROOT
p2027
sbag5
(g6
g7
(lp2028
g5
(g6
g7
(lp2029
g5
(g6
g7
(lp2030
g5
(g6
g7
(lp2031
g5
(g6
g7
(lp2032
VThe
p2033
atp2034
Rp2035
(dp2036
g16
VDT
p2037
sbag5
(g6
g7
(lp2038
g5
(g6
g7
(lp2039
Vmost
p2040
atp2041
Rp2042
(dp2043
g16
VRBS
p2044
sbag5
(g6
g7
(lp2045
Vcommon
p2046
atp2047
Rp2048
(dp2049
g16
VJJ
p2050
sbatp2051
Rp2052
(dp2053
g16
VADJP
p2054
sbag5
(g6
g7
(lp2055
Vuse
p2056
atp2057
Rp2058
(dp2059
g16
VNN
p2060
sbatp2061
Rp2062
(dp2063
g16
VNP
p2064
sbag5
(g6
g7
(lp2065
g5
(g6
g7
(lp2066
Vof
p2067
atp2068
Rp2069
(dp2070
g16
VIN
p2071
sbag5
(g6
g7
(lp2072
g5
(g6
g7
(lp2073
g5
(g6
g7
(lp2074
Vthe
p2075
atp2076
Rp2077
(dp2078
g16
VDT
p2079
sbag5
(g6
g7
(lp2080
Vverb
p2081
atp2082
Rp2083
(dp2084
g16
VNN
p2085
sbatp2086
Rp2087
(dp2088
g16
VNP
p2089
sbag5
(g6
g7
(lp2090
g5
(g6
g7
(lp2091
Vas
p2092
atp2093
Rp2094
(dp2095
g16
VIN
p2096
sbag5
(g6
g7
(lp2097
g5
(g6
g7
(lp2098
g5
(g6
g7
(lp2099
Vit
p2100
atp2101
Rp2102
(dp2103
g16
VPRP
p2104
sbatp2105
Rp2106
(dp2107
g16
VNP
p2108
sbag5
(g6
g7
(lp2109
g5
(g6
g7
(lp2110
Vappears
p2111
atp2112
Rp2113
(dp2114
g16
VVBZ
p2115
sbag5
(g6
g7
(lp2116
g5
(g6
g7
(lp2117
Vin
p2118
atp2119
Rp2120
(dp2121
g16
VIN
p2122
sbag5
(g6
g7
(lp2123
g5
(g6
g7
(lp2124
Vthe
p2125
atp2126
Rp2127
(dp2128
g16
VDT
p2129
sbag5
(g6
g7
(lp2130
Vsentence
p2131
atp2132
Rp2133
(dp2134
g16
VNN
p2135
sbatp2136
Rp2137
(dp2138
g16
VNP
p2139
sbatp2140
Rp2141
(dp2142
g16
VPP
p2143
sbatp2144
Rp2145
(dp2146
g16
VVP
p2147
sbatp2148
Rp2149
(dp2150
g16
g61
sbatp2151
Rp2152
(dp2153
g16
VSBAR
p2154
sbatp2155
Rp2156
(dp2157
g16
VNP
p2158
sbatp2159
Rp2160
(dp2161
g16
VPP
p2162
sbatp2163
Rp2164
(dp2165
g16
VNP
p2166
sbag5
(g6
g7
(lp2167
g5
(g6
g7
(lp2168
Vis
p2169
atp2170
Rp2171
(dp2172
g16
VVBZ
p2173
sbag5
(g6
g7
(lp2174
g5
(g6
g7
(lp2175
Vwith
p2176
atp2177
Rp2178
(dp2179
g16
VIN
p2180
sbag5
(g6
g7
(lp2181
g5
(g6
g7
(lp2182
g5
(g6
g7
(lp2183
Vthe
p2184
atp2185
Rp2186
(dp2187
g16
VDT
p2188
sbag5
(g6
g7
(lp2189
Vverb
p2190
atp2191
Rp2192
(dp2193
g16
VNN
p2194
sbatp2195
Rp2196
(dp2197
g16
VNP
p2198
sbag5
(g6
g7
(lp2199
g5
(g6
g7
(lp2200
Vbe
p2201
atp2202
Rp2203
(dp2204
g16
VVB
p2205
sbag5
(g6
g7
(lp2206
g67
atp2207
Rp2208
(dp2209
g16
g67
sbag5
(g6
g7
(lp2210
g5
(g6
g7
(lp2211
Vas
p2212
atp2213
Rp2214
(dp2215
g16
VIN
p2216
sbatp2217
Rp2218
(dp2219
g16
VPP
p2220
sbag5
(g6
g7
(lp2221
g5
(g6
g7
(lp2222
Vin
p2223
atp2224
Rp2225
(dp2226
g16
VIN
p2227
sbatp2228
Rp2229
(dp2230
g16
VPP
p2231
sbatp2232
Rp2233
(dp2234
g16
VVP
p2235
sbatp2236
Rp2237
(dp2238
g16
g61
sbatp2239
Rp2240
(dp2241
g16
VSBAR
p2242
sbatp2243
Rp2244
(dp2245
g16
VVP
p2246
sbatp2247
Rp2248
(dp2249
g16
g61
sbatp2250
Rp2251
(dp2252
g16
VROOT
p2253
sbasg227
(icmyPackage
CorE
p2254
(dp2255
g230
(lp2256
(I1
I8
tp2257
a(I1
I20
tp2258
asg234
g5
(g6
g7
(lp2259
g2149
ag2244
atp2260
Rp2261
(dp2262
g16
g245
sbsbsg235
(icmyPackage
CorE
p2263
(dp2264
g230
(lp2265
(I0
I1
tp2266
a(I1
I6
tp2267
asg234
g5
(g6
g7
(lp2268
g1981
ag2018
ag2062
ag2069
ag2087
atp2269
Rp2270
(dp2271
g16
g245
sbsbsg246
g1717
sg269
(lp2272
(isxpPackage
sxpSent
p2273
(dp2274
g273
(lp2275
I7
asg275
VThe lungs take in air
p2276
sg277
I4
sg262
I41
sg278
I7
sba(isxpPackage
sxpSent
p2277
(dp2278
g273
(lp2279
I7
asg275
VThe most common use of the verb as it appears in the sentence is with the verb be , as in
p2280
sg277
I4
sg262
I42
sg278
I7
sbasba(icmyPackage
CELink
p2281
(dp2282
g3
(lp2283
g5
(g6
g7
(lp2284
g5
(g6
g7
(lp2285
g5
(g6
g7
(lp2286
g5
(g6
g7
(lp2287
VThis
p2288
atp2289
Rp2290
(dp2291
g16
VDT
p2292
sbag5
(g6
g7
(lp2293
Vpattern
p2294
atp2295
Rp2296
(dp2297
g16
VNN
p2298
sbatp2299
Rp2300
(dp2301
g16
VNP
p2302
sbag5
(g6
g7
(lp2303
g5
(g6
g7
(lp2304
Vtakes
p2305
atp2306
Rp2307
(dp2308
g16
VVBZ
p2309
sbag5
(g6
g7
(lp2310
g5
(g6
g7
(lp2311
g5
(g6
g7
(lp2312
Vthe
p2313
atp2314
Rp2315
(dp2316
g16
VDT
p2317
sbag5
(g6
g7
(lp2318
Vcopular
p2319
atp2320
Rp2321
(dp2322
g16
VNN
p2323
sbatp2324
Rp2325
(dp2326
g16
VNP
p2327
sbag5
(g6
g7
(lp2328
g5
(g6
g7
(lp2329
Vbe
p2330
atp2331
Rp2332
(dp2333
g16
VVB
p2334
sbag5
(g6
g7
(lp2335
g5
(g6
g7
(lp2336
Vas
p2337
atp2338
Rp2339
(dp2340
g16
VIN
p2341
sbag5
(g6
g7
(lp2342
g5
(g6
g7
(lp2343
g5
(g6
g7
(lp2344
Vit
p2345
atp2346
Rp2347
(dp2348
g16
VPRP
p2349
sbatp2350
Rp2351
(dp2352
g16
VNP
p2353
sbag5
(g6
g7
(lp2354
g5
(g6
g7
(lp2355
Vappears
p2356
atp2357
Rp2358
(dp2359
g16
VVBZ
p2360
sbag5
(g6
g7
(lp2361
g5
(g6
g7
(lp2362
Vin
p2363
atp2364
Rp2365
(dp2366
g16
VIN
p2367
sbag5
(g6
g7
(lp2368
g5
(g6
g7
(lp2369
Vthe
p2370
atp2371
Rp2372
(dp2373
g16
VDT
p2374
sbag5
(g6
g7
(lp2375
Vsource
p2376
atp2377
Rp2378
(dp2379
g16
VNN
p2380
sbag5
(g6
g7
(lp2381
Vtext
p2382
atp2383
Rp2384
(dp2385
g16
VNN
p2386
sbatp2387
Rp2388
(dp2389
g16
VNP
p2390
sbatp2391
Rp2392
(dp2393
g16
VPP
p2394
sbatp2395
Rp2396
(dp2397
g16
VVP
p2398
sbatp2399
Rp2400
(dp2401
g16
g61
sbatp2402
Rp2403
(dp2404
g16
VSBAR
p2405
sbatp2406
Rp2407
(dp2408
g16
VVP
p2409
sbatp2410
Rp2411
(dp2412
g16
g61
sbatp2413
Rp2414
(dp2415
g16
VVP
p2416
sbatp2417
Rp2418
(dp2419
g16
g61
sbatp2420
Rp2421
(dp2422
g16
VROOT
p2423
sbasg227
(icmyPackage
CorE
p2424
(dp2425
g230
(lp2426
(I0
I7
tp2427
a(I0
I12
tp2428
asg234
g2400
sbsg235
(icmyPackage
CorE
p2429
(dp2430
g230
(lp2431
(I0
I0
tp2432
a(I0
I5
tp2433
asg234
g5
(g6
g7
(lp2434
g2300
ag2307
ag2325
ag2332
atp2435
Rp2436
(dp2437
g16
g245
sbsbsg246
g1717
sg269
(lp2438
(isxpPackage
sxpSent
p2439
(dp2440
g273
(lp2441
I8
asg275
VThis pattern takes the copular be as it appears in the source text
p2442
sg277
I4
sg262
I44
sg278
I7
sbasba(icmyPackage
CELink
p2443
(dp2444
g3
(lp2445
g5
(g6
g7
(lp2446
g5
(g6
g7
(lp2447
g5
(g6
g7
(lp2448
g5
(g6
g7
(lp2449
VTextbooks
p2450
atp2451
Rp2452
(dp2453
g16
VNNS
p2454
sbatp2455
Rp2456
(dp2457
g16
VNP
p2458
sbag5
(g6
g7
(lp2459
g5
(g6
g7
(lp2460
Vwere
p2461
atp2462
Rp2463
(dp2464
g16
VVBD
p2465
sbag5
(g6
g7
(lp2466
g5
(g6
g7
(lp2467
Vchosen
p2468
atp2469
Rp2470
(dp2471
g16
VVBN
p2472
sbag5
(g6
g7
(lp2473
g5
(g6
g7
(lp2474
Vrather
p2475
atp2476
Rp2477
(dp2478
g16
VRB
p2479
sbag5
(g6
g7
(lp2480
Vthan
p2481
atp2482
Rp2483
(dp2484
g16
VIN
p2485
sbag5
(g6
g7
(lp2486
g5
(g6
g7
(lp2487
Vhand-crafted
p2488
atp2489
Rp2490
(dp2491
g16
VJJ
p2492
sbag5
(g6
g7
(lp2493
Vsource
p2494
atp2495
Rp2496
(dp2497
g16
VNN
p2498
sbag5
(g6
g7
(lp2499
Vmaterial
p2500
atp2501
Rp2502
(dp2503
g16
VNN
p2504
sbatp2505
Rp2506
(dp2507
g16
VNP
p2508
sbatp2509
Rp2510
(dp2511
g16
VPP
p2512
sbag5
(g6
g7
(lp2513
g5
(g6
g7
(lp2514
Vso
p2515
atp2516
Rp2517
(dp2518
g16
VRB
p2519
sbag5
(g6
g7
(lp2520
Vthat
p2521
atp2522
Rp2523
(dp2524
g16
VIN
p2525
sbag5
(g6
g7
(lp2526
g5
(g6
g7
(lp2527
g5
(g6
g7
(lp2528
g5
(g6
g7
(lp2529
g395
atp2530
Rp2531
(dp2532
g16
VDT
p2533
sbag5
(g6
g7
(lp2534
g5
(g6
g7
(lp2535
Vmore
p2536
atp2537
Rp2538
(dp2539
g16
VRBR
p2540
sbag5
(g6
g7
(lp2541
Vrealistic
p2542
atp2543
Rp2544
(dp2545
g16
VJJ
p2546
sbatp2547
Rp2548
(dp2549
g16
VADJP
p2550
sbag5
(g6
g7
(lp2551
Vassessment
p2552
atp2553
Rp2554
(dp2555
g16
VNN
p2556
sbatp2557
Rp2558
(dp2559
g16
VNP
p2560
sbag5
(g6
g7
(lp2561
g5
(g6
g7
(lp2562
Vof
p2563
atp2564
Rp2565
(dp2566
g16
VIN
p2567
sbag5
(g6
g7
(lp2568
g5
(g6
g7
(lp2569
Vperformance
p2570
atp2571
Rp2572
(dp2573
g16
VNN
p2574
sbatp2575
Rp2576
(dp2577
g16
VNP
p2578
sbatp2579
Rp2580
(dp2581
g16
VPP
p2582
sbatp2583
Rp2584
(dp2585
g16
VNP
p2586
sbag5
(g6
g7
(lp2587
g5
(g6
g7
(lp2588
Vcould
p2589
atp2590
Rp2591
(dp2592
g16
VMD
p2593
sbag5
(g6
g7
(lp2594
g5
(g6
g7
(lp2595
Vbe
p2596
atp2597
Rp2598
(dp2599
g16
VVB
p2600
sbag5
(g6
g7
(lp2601
g5
(g6
g7
(lp2602
Vachieved
p2603
atp2604
Rp2605
(dp2606
g16
VVBN
p2607
sbatp2608
Rp2609
(dp2610
g16
VVP
p2611
sbatp2612
Rp2613
(dp2614
g16
VVP
p2615
sbatp2616
Rp2617
(dp2618
g16
VVP
p2619
sbatp2620
Rp2621
(dp2622
g16
g61
sbatp2623
Rp2624
(dp2625
g16
VSBAR
p2626
sbatp2627
Rp2628
(dp2629
g16
VVP
p2630
sbatp2631
Rp2632
(dp2633
g16
VVP
p2634
sbatp2635
Rp2636
(dp2637
g16
g61
sbatp2638
Rp2639
(dp2640
g16
VROOT
p2641
sbasg227
(icmyPackage
CorE
p2642
(dp2643
g230
(lp2644
(I0
I0
tp2645
a(I0
I7
tp2646
asg234
g5
(g6
g7
(lp2647
g2456
ag2463
ag2470
ag2510
atp2648
Rp2649
(dp2650
g16
g245
sbsbsg235
(icmyPackage
CorE
p2651
(dp2652
g230
(lp2653
(I0
I10
tp2654
a(I0
I18
tp2655
asg234
g2621
sbsg246
(icmyPackage
pattern
p2656
(dp2657
g249
I45
sg250
I0
sg251
(lp2658
(lp2659
S'so'
p2660
aS'that'
p2661
aasg257
(lp2662
I3
aI1
aI1
asg259
(lp2663
S'The teacher then decided to ask him some very easy questions so that he could get a few right.'
p2664
asg262
I77
sg263
(lp2665
(lp2666
S'&C'
p2667
aa(lp2668
S'&R'
p2669
aasbsg269
(lp2670
(isxpPackage
sxpSent
p2671
(dp2672
g273
(lp2673
I9
asg275
VTextbooks were chosen rather than hand-crafted source material so that a more realistic assessment of performance could be achieved
p2674
sg277
I6
sg262
I54
sg278
I10
sbasba(icmyPackage
CELink
p2675
(dp2676
g3
(lp2677
g5
(g6
g7
(lp2678
g5
(g6
g7
(lp2679
g5
(g6
g7
(lp2680
g5
(g6
g7
(lp2681
VThe
p2682
atp2683
Rp2684
(dp2685
g16
VDT
p2686
sbag5
(g6
g7
(lp2687
Vpatterns
p2688
atp2689
Rp2690
(dp2691
g16
VNNS
p2692
sbatp2693
Rp2694
(dp2695
g16
VNP
p2696
sbag5
(g6
g7
(lp2697
g5
(g6
g7
(lp2698
Vare
p2699
atp2700
Rp2701
(dp2702
g16
VVBP
p2703
sbag5
(g6
g7
(lp2704
g5
(g6
g7
(lp2705
Vdesigned
p2706
atp2707
Rp2708
(dp2709
g16
VVBN
p2710
sbag5
(g6
g7
(lp2711
g5
(g6
g7
(lp2712
g5
(g6
g7
(lp2713
Vto
p2714
atp2715
Rp2716
(dp2717
g16
VTO
p2718
sbag5
(g6
g7
(lp2719
g5
(g6
g7
(lp2720
Vmatch
p2721
atp2722
Rp2723
(dp2724
g16
VVB
p2725
sbag5
(g6
g7
(lp2726
g5
(g6
g7
(lp2727
g5
(g6
g7
(lp2728
Vonly
p2729
atp2730
Rp2731
(dp2732
g16
VRB
p2733
sbag5
(g6
g7
(lp2734
Vthe
p2735
atp2736
Rp2737
(dp2738
g16
VDT
p2739
sbag5
(g6
g7
(lp2740
Varguments
p2741
atp2742
Rp2743
(dp2744
g16
VNNS
p2745
sbatp2746
Rp2747
(dp2748
g16
VNP
p2749
sbag5
(g6
g7
(lp2750
g5
(g6
g7
(lp2751
Vused
p2752
atp2753
Rp2754
(dp2755
g16
VVBN
p2756
sbag5
(g6
g7
(lp2757
g5
(g6
g7
(lp2758
Vas
p2759
atp2760
Rp2761
(dp2762
g16
VIN
p2763
sbag5
(g6
g7
(lp2764
g5
(g6
g7
(lp2765
g5
(g6
g7
(lp2766
Vpart
p2767
atp2768
Rp2769
(dp2770
g16
VNN
p2771
sbatp2772
Rp2773
(dp2774
g16
VNP
p2775
sbag5
(g6
g7
(lp2776
g5
(g6
g7
(lp2777
Vof
p2778
atp2779
Rp2780
(dp2781
g16
VIN
p2782
sbag5
(g6
g7
(lp2783
g5
(g6
g7
(lp2784
g5
(g6
g7
(lp2785
Vthe
p2786
atp2787
Rp2788
(dp2789
g16
VDT
p2790
sbag5
(g6
g7
(lp2791
Vquestion
p2792
atp2793
Rp2794
(dp2795
g16
VNN
p2796
sbatp2797
Rp2798
(dp2799
g16
VNP
p2800
sbag5
(g6
g7
(lp2801
Vor
p2802
atp2803
Rp2804
(dp2805
g16
VCC
p2806
sbag5
(g6
g7
(lp2807
g5
(g6
g7
(lp2808
Vthe
p2809
atp2810
Rp2811
(dp2812
g16
VDT
p2813
sbag5
(g6
g7
(lp2814
Vanswer
p2815
atp2816
Rp2817
(dp2818
g16
VNN
p2819
sbatp2820
Rp2821
(dp2822
g16
VNP
p2823
sbatp2824
Rp2825
(dp2826
g16
VNP
p2827
sbatp2828
Rp2829
(dp2830
g16
VPP
p2831
sbatp2832
Rp2833
(dp2834
g16
VNP
p2835
sbatp2836
Rp2837
(dp2838
g16
VPP
p2839
sbatp2840
Rp2841
(dp2842
g16
VVP
p2843
sbatp2844
Rp2845
(dp2846
g16
VNP
p2847
sbatp2848
Rp2849
(dp2850
g16
VVP
p2851
sbatp2852
Rp2853
(dp2854
g16
VVP
p2855
sbatp2856
Rp2857
(dp2858
g16
g61
sbag5
(g6
g7
(lp2859
g67
atp2860
Rp2861
(dp2862
g16
g67
sbag5
(g6
g7
(lp2863
g5
(g6
g7
(lp2864
Vin
p2865
atp2866
Rp2867
(dp2868
g16
VIN
p2869
sbag5
(g6
g7
(lp2870
Vorder
p2871
atp2872
Rp2873
(dp2874
g16
VNN
p2875
sbag5
(g6
g7
(lp2876
g5
(g6
g7
(lp2877
g5
(g6
g7
(lp2878
Vto
p2879
atp2880
Rp2881
(dp2882
g16
VTO
p2883
sbag5
(g6
g7
(lp2884
g5
(g6
g7
(lp2885
Vprevent
p2886
atp2887
Rp2888
(dp2889
g16
VVB
p2890
sbag5
(g6
g7
(lp2891
g5
(g6
g7
(lp2892
Vover
p2893
atp2894
Rp2895
(dp2896
g16
VRP
p2897
sbatp2898
Rp2899
(dp2900
g16
VPRT
p2901
sbag5
(g6
g7
(lp2902
g5
(g6
g7
(lp2903
g5
(g6
g7
(lp2904
Vgeneration
p2905
atp2906
Rp2907
(dp2908
g16
VNN
p2909
sbatp2910
Rp2911
(dp2912
g16
VNP
p2913
sbag5
(g6
g7
(lp2914
g5
(g6
g7
(lp2915
Vof
p2916
atp2917
Rp2918
(dp2919
g16
VIN
p2920
sbag5
(g6
g7
(lp2921
g5
(g6
g7
(lp2922
Vquestions
p2923
atp2924
Rp2925
(dp2926
g16
VNNS
p2927
sbatp2928
Rp2929
(dp2930
g16
VNP
p2931
sbatp2932
Rp2933
(dp2934
g16
VPP
p2935
sbatp2936
Rp2937
(dp2938
g16
VNP
p2939
sbatp2940
Rp2941
(dp2942
g16
VVP
p2943
sbatp2944
Rp2945
(dp2946
g16
VVP
p2947
sbatp2948
Rp2949
(dp2950
g16
g61
sbatp2951
Rp2952
(dp2953
g16
VSBAR
p2954
sbatp2955
Rp2956
(dp2957
g16
VVP
p2958
sbatp2959
Rp2960
(dp2961
g16
VVP
p2962
sbatp2963
Rp2964
(dp2965
g16
g61
sbatp2966
Rp2967
(dp2968
g16
VROOT
p2969
sbag5
(g6
g7
(lp2970
g5
(g6
g7
(lp2971
g5
(g6
g7
(lp2972
g5
(g6
g7
(lp2973
VThe
p2974
atp2975
Rp2976
(dp2977
g16
VDT
p2978
sbag5
(g6
g7
(lp2979
Vsystem
p2980
atp2981
Rp2982
(dp2983
g16
VNN
p2984
sbatp2985
Rp2986
(dp2987
g16
VNP
p2988
sbag5
(g6
g7
(lp2989
g5
(g6
g7
(lp2990
g5
(g6
g7
(lp2991
Vinserted
p2992
atp2993
Rp2994
(dp2995
g16
VVBD
p2996
sbag5
(g6
g7
(lp2997
g5
(g6
g7
(lp2998
g5
(g6
g7
(lp2999
Vthe
p3000
atp3001
Rp3002
(dp3003
g16
VDT
p3004
sbag5
(g6
g7
(lp3005
Vcorrect
p3006
atp3007
Rp3008
(dp3009
g16
VJJ
p3010
sbag5
(g6
g7
(lp3011
Vforms
p3012
atp3013
Rp3014
(dp3015
g16
VNNS
p3016
sbatp3017
Rp3018
(dp3019
g16
VNP
p3020
sbag5
(g6
g7
(lp3021
g5
(g6
g7
(lp3022
Vof
p3023
atp3024
Rp3025
(dp3026
g16
VIN
p3027
sbag5
(g6
g7
(lp3028
g5
(g6
g7
(lp3029
Vrelease
p3030
atp3031
Rp3032
(dp3033
g16
VNN
p3034
sbatp3035
Rp3036
(dp3037
g16
VNP
p3038
sbatp3039
Rp3040
(dp3041
g16
VPP
p3042
sbatp3043
Rp3044
(dp3045
g16
VNP
p3046
sbatp3047
Rp3048
(dp3049
g16
VVP
p3050
sbag5
(g6
g7
(lp3051
Vand
p3052
atp3053
Rp3054
(dp3055
g16
VCC
p3056
sbag5
(g6
g7
(lp3057
g5
(g6
g7
(lp3058
Vdo
p3059
atp3060
Rp3061
(dp3062
g16
VVBP
p3063
sbatp3064
Rp3065
(dp3066
g16
VVP
p3067
sbag5
(g6
g7
(lp3068
g67
atp3069
Rp3070
(dp3071
g16
g67
sbag5
(g6
g7
(lp3072
Vand
p3073
atp3074
Rp3075
(dp3076
g16
VCC
p3077
sbag5
(g6
g7
(lp3078
g5
(g6
g7
(lp3079
Vignored
p3080
atp3081
Rp3082
(dp3083
g16
VVBD
p3084
sbag5
(g6
g7
(lp3085
g5
(g6
g7
(lp3086
Vthe
p3087
atp3088
Rp3089
(dp3090
g16
VDT
p3091
sbag5
(g6
g7
(lp3092
Vphrase
p3093
atp3094
Rp3095
(dp3096
g16
VNN
p3097
sbatp3098
Rp3099
(dp3100
g16
VNP
p3101
sbag5
(g6
g7
(lp3102
g5
(g6
g7
(lp3103
VAs
p3104
atp3105
Rp3106
(dp3107
g16
VIN
p3108
sbag5
(g6
g7
(lp3109
g5
(g6
g7
(lp3110
g5
(g6
g7
(lp3111
Vthis
p3112
atp3113
Rp3114
(dp3115
g16
VDT
p3116
sbatp3117
Rp3118
(dp3119
g16
VNP
p3120
sbag5
(g6
g7
(lp3121
g5
(g6
g7
(lp3122
Voccurs
p3123
atp3124
Rp3125
(dp3126
g16
VVBZ
p3127
sbag5
(g6
g7
(lp3128
g5
(g6
g7
(lp3129
Vsince
p3130
atp3131
Rp3132
(dp3133
g16
VIN
p3134
sbag5
(g6
g7
(lp3135
g5
(g6
g7
(lp3136
g5
(g6
g7
(lp3137
Vit
p3138
atp3139
Rp3140
(dp3141
g16
VPRP
p3142
sbatp3143
Rp3144
(dp3145
g16
VNP
p3146
sbag5
(g6
g7
(lp3147
g5
(g6
g7
(lp3148
Vis
p3149
atp3150
Rp3151
(dp3152
g16
VVBZ
p3153
sbag5
(g6
g7
(lp3154
Vnot
p3155
atp3156
Rp3157
(dp3158
g16
VRB
p3159
sbag5
(g6
g7
(lp3160
g5
(g6
g7
(lp3161
g5
(g6
g7
(lp3162
Vpart
p3163
atp3164
Rp3165
(dp3166
g16
VNN
p3167
sbatp3168
Rp3169
(dp3170
g16
VNP
p3171
sbag5
(g6
g7
(lp3172
g5
(g6
g7
(lp3173
Vof
p3174
atp3175
Rp3176
(dp3177
g16
VIN
p3178
sbag5
(g6
g7
(lp3179
g5
(g6
g7
(lp3180
Vthe
p3181
atp3182
Rp3183
(dp3184
g16
VDT
p3185
sbag5
(g6
g7
(lp3186
Vsemantic
p3187
atp3188
Rp3189
(dp3190
g16
VJJ
p3191
sbag5
(g6
g7
(lp3192
Vargument
p3193
atp3194
Rp3195
(dp3196
g16
VNN
p3197
sbatp3198
Rp3199
(dp3200
g16
VNP
p3201
sbatp3202
Rp3203
(dp3204
g16
VPP
p3205
sbatp3206
Rp3207
(dp3208
g16
VNP
p3209
sbatp3210
Rp3211
(dp3212
g16
VVP
p3213
sbatp3214
Rp3215
(dp3216
g16
g61
sbatp3217
Rp3218
(dp3219
g16
VSBAR
p3220
sbatp3221
Rp3222
(dp3223
g16
VVP
p3224
sbatp3225
Rp3226
(dp3227
g16
g61
sbatp3228
Rp3229
(dp3230
g16
VSBAR
p3231
sbatp3232
Rp3233
(dp3234
g16
VVP
p3235
sbatp3236
Rp3237
(dp3238
g16
VVP
p3239
sbatp3240
Rp3241
(dp3242
g16
g61
sbatp3243
Rp3244
(dp3245
g16
VROOT
p3246
sbasg227
(icmyPackage
CorE
p3247
(dp3248
g230
(lp3249
(I0
I11
tp3250
a(I1
I25
tp3251
asg234
g5
(g6
g7
(lp3252
g2833
ag2861
ag2952
ag2986
ag3048
ag3054
ag3065
ag3070
ag3075
ag3082
ag3099
ag3106
ag3118
ag3125
ag3132
ag3144
ag3151
ag3157
ag3169
ag3176
ag3183
ag3189
atp3253
Rp3254
(dp3255
g16
g245
sbsbsg235
(icmyPackage
CorE
p3256
(dp3257
g230
(lp3258
(I0
I0
tp3259
a(I0
I9
tp3260
asg234
g5
(g6
g7
(lp3261
g2694
ag2701
ag2708
ag2716
ag2723
ag2747
ag2754
atp3262
Rp3263
(dp3264
g16
g245
sbsbsg246
g1717
sg269
(lp3265
(isxpPackage
sxpSent
p3266
(dp3267
g273
(lp3268
I10
asg275
VThe patterns are designed to match only the arguments used as part of the question or the answer, in order to prevent over generation of questions
p3269
sg277
I7
sg262
I61
sg278
I11
sba(isxpPackage
sxpSent
p3270
(dp3271
g273
(lp3272
I10
aI11
aI12
asg275
VThe system inserted the correct forms of release and do , and ignored the phrase As this occurs since it is not part of the semantic argument
p3273
sg277
I7
sg262
I62
sg278
I11
sbasba(icmyPackage
CELink
p3274
(dp3275
g3
(lp3276
g3244
asg227
(icmyPackage
CorE
p3277
(dp3278
g230
(lp3279
(I0
I19
tp3280
a(I0
I26
tp3281
asg234
g3215
sbsg235
(icmyPackage
CorE
p3282
(dp3283
g230
(lp3284
(I0
I0
tp3285
a(I0
I17
tp3286
asg234
g5
(g6
g7
(lp3287
g2986
ag3048
ag3054
ag3065
ag3070
ag3075
ag3082
ag3099
ag3106
ag3118
ag3125
atp3288
Rp3289
(dp3290
g16
g245
sbsbsg246
(icmyPackage
pattern
p3291
(dp3292
g249
I23
sg250
I1
sg251
(lp3293
(lp3294
S'since'
p3295
aasg257
(lp3296
I3
aI1
aI1
asg259
(lp3297
S'This is one of the simplest cases since the surface is so thin.'
p3298
aS'He could not answer the question, since he had not made up his mind.'
p3299
aS'That manager has been a basket case here since his wife left him.'
p3300
asg262
I79
sg263
(lp3301
(lp3302
S'&R@NCTime@'
p3303
aS'(,)'
p3304
aa(lp3305
S'&C@NCTime@'
p3306
aasbsg269
(lp3307
g3270
asba(icmyPackage
CELink
p3308
(dp3309
g3
(lp3310
g3289
asg227
(icmyPackage
CorE
p3311
(dp3312
g230
(lp3313
(I0
I16
tp3314
a(I0
I17
tp3315
asg234
g5
(g6
g7
(lp3316
g3118
ag3125
atp3317
Rp3318
(dp3319
g16
g245
sbsbsg235
(icmyPackage
CorE
p3320
(dp3321
g230
(lp3322
(I0
I0
tp3323
a(I0
I14
tp3324
asg234
g5
(g6
g7
(lp3325
g2986
ag3048
ag3054
ag3065
ag3070
ag3075
ag3082
ag3099
atp3326
Rp3327
(dp3328
g16
g245
sbsbsg246
g1717
sg269
(lp3329
g3270
asba(icmyPackage
CELink
p3330
(dp3331
g3
(lp3332
g5
(g6
g7
(lp3333
g5
(g6
g7
(lp3334
g5
(g6
g7
(lp3335
g5
(g6
g7
(lp3336
VQuestion
p3337
atp3338
Rp3339
(dp3340
g16
VNNP
p3341
sbag5
(g6
g7
(lp3342
V3
p3343
atp3344
Rp3345
(dp3346
g16
VCD
p3347
sbatp3348
Rp3349
(dp3350
g16
VNP
p3351
sbag5
(g6
g7
(lp3352
g5
(g6
g7
(lp3353
Vis
p3354
atp3355
Rp3356
(dp3357
g16
VVBZ
p3358
sbag5
(g6
g7
(lp3359
g5
(g6
g7
(lp3360
Vfrom
p3361
atp3362
Rp3363
(dp3364
g16
VIN
p3365
sbag5
(g6
g7
(lp3366
g5
(g6
g7
(lp3367
g5
(g6
g7
(lp3368
g5
(g6
g7
(lp3369
Vthe
p3370
atp3371
Rp3372
(dp3373
g16
VDT
p3374
sbag5
(g6
g7
(lp3375
Vsource
p3376
atp3377
Rp3378
(dp3379
g16
VNN
p3380
sbag5
(g6
g7
(lp3381
Vsentence
p3382
atp3383
Rp3384
(dp3385
g16
VNN
p3386
sbag5
(g6
g7
(lp3387
Vu
p3388
atp3389
Rp3390
(dp3391
g16
VNN
p3392
sbag5
(g6
g7
(lp3393
V'
p3394
atp3395
Rp3396
(dp3397
g16
VPOS
p3398
sbatp3399
Rp3400
(dp3401
g16
VNP
p3402
sbag5
(g6
g7
(lp3403
V\u005c
p3404
atp3405
Rp3406
(dp3407
g16
VJJ
p3408
sbag5
(g6
g7
(lp3409
g5
(g6
g7
(lp3410
Vu2019
p3411
atp3412
Rp3413
(dp3414
g16
VNNP
p3415
sbag5
(g6
g7
(lp3416
g3394
atp3417
Rp3418
(dp3419
g16
VPOS
p3420
sbatp3421
Rp3422
(dp3423
g16
VNP
p3424
sbag5
(g6
g7
(lp3425
Vs
p3426
atp3427
Rp3428
(dp3429
g16
VJJ
p3430
sbag5
(g6
g7
(lp3431
V3rd
p3432
atp3433
Rp3434
(dp3435
g16
VJJ
p3436
sbag5
(g6
g7
(lp3437
Vpredicate-argument
p3438
atp3439
Rp3440
(dp3441
g16
VNN
p3442
sbatp3443
Rp3444
(dp3445
g16
VNP
p3446
sbag5
(g6
g7
(lp3447
g5
(g6
g7
(lp3448
Vset
p3449
atp3450
Rp3451
(dp3452
g16
VVBN
p3453
sbag5
(g6
g7
(lp3454
g5
(g6
g7
(lp3455
Vbecause
p3456
atp3457
Rp3458
(dp3459
g16
VIN
p3460
sbag5
(g6
g7
(lp3461
g5
(g6
g7
(lp3462
g5
(g6
g7
(lp3463
Vthis
p3464
atp3465
Rp3466
(dp3467
g16
VDT
p3468
sbatp3469
Rp3470
(dp3471
g16
VNP
p3472
sbag5
(g6
g7
(lp3473
g5
(g6
g7
(lp3474
Vmatched
p3475
atp3476
Rp3477
(dp3478
g16
VVBD
p3479
sbag5
(g6
g7
(lp3480
g5
(g6
g7
(lp3481
Vthe
p3482
atp3483
Rp3484
(dp3485
g16
VDT
p3486
sbag5
(g6
g7
(lp3487
Vpattern
p3488
atp3489
Rp3490
(dp3491
g16
VNN
p3492
sbag5
(g6
g7
(lp3493
Vrequirements
p3494
atp3495
Rp3496
(dp3497
g16
VNNS
p3498
sbatp3499
Rp3500
(dp3501
g16
VNP
p3502
sbatp3503
Rp3504
(dp3505
g16
VVP
p3506
sbatp3507
Rp3508
(dp3509
g16
g61
sbatp3510
Rp3511
(dp3512
g16
VSBAR
p3513
sbatp3514
Rp3515
(dp3516
g16
VVP
p3517
sbatp3518
Rp3519
(dp3520
g16
VNP
p3521
sbatp3522
Rp3523
(dp3524
g16
VPP
p3525
sbatp3526
Rp3527
(dp3528
g16
VVP
p3529
sbatp3530
Rp3531
(dp3532
g16
g61
sbatp3533
Rp3534
(dp3535
g16
VROOT
p3536
sbasg227
(icmyPackage
CorE
p3537
(dp3538
g230
(lp3539
(I0
I17
tp3540
a(I0
I21
tp3541
asg234
g3508
sbsg235
(icmyPackage
CorE
p3542
(dp3543
g230
(lp3544
(I0
I0
tp3545
a(I0
I15
tp3546
asg234
g5
(g6
g7
(lp3547
g3349
ag3356
ag3363
ag3444
ag3451
atp3548
Rp3549
(dp3550
g16
g245
sbsbsg246
(icmyPackage
pattern
p3551
(dp3552
g249
I407
sg250
I1
sg251
(lp3553
(lp3554
S'because'
p3555
aasg257
(lp3556
I3
aI1
aI1
asg259
(lp3557
S'It ends up in burnout and less production, because we inevitably run out of energy.'
p3558
asg262
I76
sg263
(lp3559
(lp3560
S'&R'
p3561
aS'(,)'
p3562
aS'(&ADV)'
p3563
aa(lp3564
S'&C'
p3565
aasbsg269
(lp3566
(isxpPackage
sxpSent
p3567
(dp3568
g273
(lp3569
I13
asg275
VQuestion 3 is from the source sentence u'\u005cu2019' s 3rd predicate-argument set because this matched the pattern requirements
p3570
sg277
I7
sg262
I66
sg278
I13
sbasba(icmyPackage
CELink
p3571
(dp3572
g3
(lp3573
g5
(g6
g7
(lp3574
g5
(g6
g7
(lp3575
g5
(g6
g7
(lp3576
g5
(g6
g7
(lp3577
VAnnotators
p3578
atp3579
Rp3580
(dp3581
g16
VNNS
p3582
sbatp3583
Rp3584
(dp3585
g16
VNP
p3586
sbag5
(g6
g7
(lp3587
g5
(g6
g7
(lp3588
Vwere
p3589
atp3590
Rp3591
(dp3592
g16
VVBD
p3593
sbag5
(g6
g7
(lp3594
g5
(g6
g7
(lp3595
Vgiven
p3596
atp3597
Rp3598
(dp3599
g16
VVBN
p3600
sbag5
(g6
g7
(lp3601
g5
(g6
g7
(lp3602
Vinstructions
p3603
atp3604
Rp3605
(dp3606
g16
VNNS
p3607
sbatp3608
Rp3609
(dp3610
g16
VNP
p3611
sbag5
(g6
g7
(lp3612
g5
(g6
g7
(lp3613
g5
(g6
g7
(lp3614
Vto
p3615
atp3616
Rp3617
(dp3618
g16
VTO
p3619
sbag5
(g6
g7
(lp3620
g5
(g6
g7
(lp3621
Vread
p3622
atp3623
Rp3624
(dp3625
g16
VVB
p3626
sbag5
(g6
g7
(lp3627
g5
(g6
g7
(lp3628
g5
(g6
g7
(lp3629
g395
atp3630
Rp3631
(dp3632
g16
VDT
p3633
sbag5
(g6
g7
(lp3634
Vparagraph
p3635
atp3636
Rp3637
(dp3638
g16
VNN
p3639
sbatp3640
Rp3641
(dp3642
g16
VNP
p3643
sbag5
(g6
g7
(lp3644
g67
atp3645
Rp3646
(dp3647
g16
g67
sbag5
(g6
g7
(lp3648
Vthen
p3649
atp3650
Rp3651
(dp3652
g16
VRB
p3653
sbag5
(g6
g7
(lp3654
g5
(g6
g7
(lp3655
Vthe
p3656
atp3657
Rp3658
(dp3659
g16
VDT
p3660
sbag5
(g6
g7
(lp3661
Vquestions
p3662
atp3663
Rp3664
(dp3665
g16
VNNS
p3666
sbatp3667
Rp3668
(dp3669
g16
VNP
p3670
sbatp3671
Rp3672
(dp3673
g16
VNP
p3674
sbag5
(g6
g7
(lp3675
g5
(g6
g7
(lp3676
Vbased
p3677
atp3678
Rp3679
(dp3680
g16
VVBN
p3681
sbag5
(g6
g7
(lp3682
g5
(g6
g7
(lp3683
Von
p3684
atp3685
Rp3686
(dp3687
g16
VIN
p3688
sbag5
(g6
g7
(lp3689
g5
(g6
g7
(lp3690
Vthat
p3691
atp3692
Rp3693
(dp3694
g16
VDT
p3695
sbag5
(g6
g7
(lp3696
Vparagraph
p3697
atp3698
Rp3699
(dp3700
g16
VNN
p3701
sbatp3702
Rp3703
(dp3704
g16
VNP
p3705
sbatp3706
Rp3707
(dp3708
g16
VPP
p3709
sbatp3710
Rp3711
(dp3712
g16
VPP
p3713
sbatp3714
Rp3715
(dp3716
g16
VVP
p3717
sbatp3718
Rp3719
(dp3720
g16
VVP
p3721
sbatp3722
Rp3723
(dp3724
g16
g61
sbatp3725
Rp3726
(dp3727
g16
VVP
p3728
sbatp3729
Rp3730
(dp3731
g16
VVP
p3732
sbatp3733
Rp3734
(dp3735
g16
g61
sbatp3736
Rp3737
(dp3738
g16
VROOT
p3739
sbasg227
(icmyPackage
CorE
p3740
(dp3741
g230
(lp3742
(I0
I14
tp3743
a(I0
I15
tp3744
asg234
g3703
sbsg235
(icmyPackage
CorE
p3745
(dp3746
g230
(lp3747
(I0
I0
tp3748
a(I0
I11
tp3749
asg234
g5
(g6
g7
(lp3750
g3584
ag3591
ag3598
ag3609
ag3617
ag3624
ag3672
atp3751
Rp3752
(dp3753
g16
g245
sbsbsg246
(icmyPackage
pattern
p3754
(dp3755
g249
I0
sg250
I0
sg251
(lp3756
(lp3757
S'based'
p3758
aS'on'
p3759
aasg257
(lp3760
I2
aI1
aI1
asg259
(lp3761
S'He said he planned to announce details of legislation on Sunday based on a Republican plan that would provide a short-term solution'
p3762
asg262
I48
sg263
(lp3763
(lp3764
S'&R'
p3765
aS'(,)'
p3766
aS'(&ADV)'
p3767
aa(lp3768
S'&V-ing/&NP@C@'
p3769
aS'(&Clause@C@)'
p3770
aasbsg269
(lp3771
(isxpPackage
sxpSent
p3772
(dp3773
g273
(lp3774
I14
asg275
VAnnotators were given instructions to read a paragraph, then the questions based on that paragraph
p3775
sg277
I8
sg262
I79
sg278
I15
sbasba(icmyPackage
CELink
p3776
(dp3777
g3
(lp3778
g5
(g6
g7
(lp3779
g5
(g6
g7
(lp3780
g5
(g6
g7
(lp3781
g5
(g6
g7
(lp3782
VWe
p3783
atp3784
Rp3785
(dp3786
g16
VPRP
p3787
sbatp3788
Rp3789
(dp3790
g16
VNP
p3791
sbag5
(g6
g7
(lp3792
g5
(g6
g7
(lp3793
Vcompared
p3794
atp3795
Rp3796
(dp3797
g16
VVBD
p3798
sbag5
(g6
g7
(lp3799
g5
(g6
g7
(lp3800
Vour
p3801
atp3802
Rp3803
(dp3804
g16
VPRP$
p3805
sbag5
(g6
g7
(lp3806
Vsystem
p3807
atp3808
Rp3809
(dp3810
g16
VNN
p3811
sbatp3812
Rp3813
(dp3814
g16
VNP
p3815
sbag5
(g6
g7
(lp3816
g5
(g6
g7
(lp3817
Vto
p3818
atp3819
Rp3820
(dp3821
g16
VTO
p3822
sbag5
(g6
g7
(lp3823
g5
(g6
g7
(lp3824
Vthe
p3825
atp3826
Rp3827
(dp3828
g16
VDT
p3829
sbag5
(g6
g7
(lp3830
VH
p3831
atp3832
Rp3833
(dp3834
g16
VNNP
p3835
sbag5
(g6
g7
(lp3836
g61
atp3837
Rp3838
(dp3839
g16
VNNP
p3840
sbag5
(g6
g7
(lp3841
Vand
p3842
atp3843
Rp3844
(dp3845
g16
VCC
p3846
sbag5
(g6
g7
(lp3847
VLPN
p3848
atp3849
Rp3850
(dp3851
g16
VNNP
p3852
sbag5
(g6
g7
(lp3853
VW
p3854
atp3855
Rp3856
(dp3857
g16
VNNP
p3858
sbag5
(g6
g7
(lp3859
Vsystems
p3860
atp3861
Rp3862
(dp3863
g16
VNNS
p3864
sbatp3865
Rp3866
(dp3867
g16
VNP
p3868
sbatp3869
Rp3870
(dp3871
g16
VPP
p3872
sbag5
(g6
g7
(lp3873
g5
(g6
g7
(lp3874
Vbecause
p3875
atp3876
Rp3877
(dp3878
g16
VIN
p3879
sbag5
(g6
g7
(lp3880
g5
(g6
g7
(lp3881
g5
(g6
g7
(lp3882
Vthey
p3883
atp3884
Rp3885
(dp3886
g16
VPRP
p3887
sbatp3888
Rp3889
(dp3890
g16
VNP
p3891
sbag5
(g6
g7
(lp3892
g5
(g6
g7
(lp3893
Vproduce
p3894
atp3895
Rp3896
(dp3897
g16
VVBP
p3898
sbag5
(g6
g7
(lp3899
g5
(g6
g7
(lp3900
g5
(g6
g7
(lp3901
Vquestions
p3902
atp3903
Rp3904
(dp3905
g16
VNNS
p3906
sbatp3907
Rp3908
(dp3909
g16
VNP
p3910
sbag5
(g6
g7
(lp3911
g5
(g6
g7
(lp3912
g5
(g6
g7
(lp3913
Vthat
p3914
atp3915
Rp3916
(dp3917
g16
VWDT
p3918
sbatp3919
Rp3920
(dp3921
g16
VWHNP
p3922
sbag5
(g6
g7
(lp3923
g5
(g6
g7
(lp3924
g5
(g6
g7
(lp3925
Vare
p3926
atp3927
Rp3928
(dp3929
g16
VVBP
p3930
sbag5
(g6
g7
(lp3931
g5
(g6
g7
(lp3932
Vthe
p3933
atp3934
Rp3935
(dp3936
g16
VDT
p3937
sbag5
(g6
g7
(lp3938
g5
(g6
g7
(lp3939
g5
(g6
g7
(lp3940
Vmost
p3941
atp3942
Rp3943
(dp3944
g16
VRBS
p3945
sbag5
(g6
g7
(lp3946
Vsimilar
p3947
atp3948
Rp3949
(dp3950
g16
VJJ
p3951
sbag5
(g6
g7
(lp3952
g5
(g6
g7
(lp3953
Vto
p3954
atp3955
Rp3956
(dp3957
g16
VTO
p3958
sbag5
(g6
g7
(lp3959
g5
(g6
g7
(lp3960
Vours
p3961
atp3962
Rp3963
(dp3964
g16
VPRP
p3965
sbatp3966
Rp3967
(dp3968
g16
VNP
p3969
sbatp3970
Rp3971
(dp3972
g16
VPP
p3973
sbatp3974
Rp3975
(dp3976
g16
VADJP
p3977
sbag5
(g6
g7
(lp3978
g67
atp3979
Rp3980
(dp3981
g16
g67
sbag5
(g6
g7
(lp3982
Vand
p3983
atp3984
Rp3985
(dp3986
g16
VCC
p3987
sbag5
(g6
g7
(lp3988
g5
(g6
g7
(lp3989
Vfor
p3990
atp3991
Rp3992
(dp3993
g16
VIN
p3994
sbag5
(g6
g7
(lp3995
g5
(g6
g7
(lp3996
Vthe
p3997
atp3998
Rp3999
(dp4000
g16
VDT
p4001
sbag5
(g6
g7
(lp4002
Vsame
p4003
atp4004
Rp4005
(dp4006
g16
VJJ
p4007
sbag5
(g6
g7
(lp4008
Vpurpose
p4009
atp4010
Rp4011
(dp4012
g16
VNN
p4013
sbag5
(g6
g7
(lp4014
Vreading
p4015
atp4016
Rp4017
(dp4018
g16
VNN
p4019
sbatp4020
Rp4021
(dp4022
g16
VNP
p4023
sbatp4024
Rp4025
(dp4026
g16
VPP
p4027
sbatp4028
Rp4029
(dp4030
g16
VUCP
p4031
sbag5
(g6
g7
(lp4032
Vcomprehension
p4033
atp4034
Rp4035
(dp4036
g16
VNN
p4037
sbag5
(g6
g7
(lp4038
Vreinforcement
p4039
atp4040
Rp4041
(dp4042
g16
VNN
p4043
sbatp4044
Rp4045
(dp4046
g16
VNP
p4047
sbatp4048
Rp4049
(dp4050
g16
VVP
p4051
sbatp4052
Rp4053
(dp4054
g16
g61
sbatp4055
Rp4056
(dp4057
g16
VSBAR
p4058
sbatp4059
Rp4060
(dp4061
g16
VNP
p4062
sbatp4063
Rp4064
(dp4065
g16
VVP
p4066
sbatp4067
Rp4068
(dp4069
g16
g61
sbatp4070
Rp4071
(dp4072
g16
VSBAR
p4073
sbatp4074
Rp4075
(dp4076
g16
VVP
p4077
sbatp4078
Rp4079
(dp4080
g16
g61
sbatp4081
Rp4082
(dp4083
g16
VROOT
p4084
sbasg227
(icmyPackage
CorE
p4085
(dp4086
g230
(lp4087
(I0
I13
tp4088
a(I0
I31
tp4089
asg234
g4068
sbsg235
(icmyPackage
CorE
p4090
(dp4091
g230
(lp4092
(I0
I0
tp4093
a(I0
I11
tp4094
asg234
g5
(g6
g7
(lp4095
g3789
ag3796
ag3813
ag3870
atp4096
Rp4097
(dp4098
g16
g245
sbsbsg246
g3551
sg269
(lp4099
(isxpPackage
sxpSent
p4100
(dp4101
g273
(lp4102
I15
asg275
VWe compared our system to the H S and LPN W systems because they produce questions that are the most similar to ours, and for the same purpose reading comprehension reinforcement
p4103
sg277
I8
sg262
I85
sg278
I16
sbasba(icmyPackage
CELink
p4104
(dp4105
g3
(lp4106
g5
(g6
g7
(lp4107
g5
(g6
g7
(lp4108
g5
(g6
g7
(lp4109
g5
(g6
g7
(lp4110
g5
(g6
g7
(lp4111
VThe
p4112
atp4113
Rp4114
(dp4115
g16
VDT
p4116
sbag5
(g6
g7
(lp4117
Vpurpose
p4118
atp4119
Rp4120
(dp4121
g16
VNN
p4122
sbatp4123
Rp4124
(dp4125
g16
VNP
p4126
sbag5
(g6
g7
(lp4127
g5
(g6
g7
(lp4128
Vof
p4129
atp4130
Rp4131
(dp4132
g16
VIN
p4133
sbag5
(g6
g7
(lp4134
g5
(g6
g7
(lp4135
Vthis
p4136
atp4137
Rp4138
(dp4139
g16
VDT
p4140
sbag5
(g6
g7
(lp4141
Vevaluation
p4142
atp4143
Rp4144
(dp4145
g16
VNN
p4146
sbatp4147
Rp4148
(dp4149
g16
VNP
p4150
sbatp4151
Rp4152
(dp4153
g16
VPP
p4154
sbatp4155
Rp4156
(dp4157
g16
VNP
p4158
sbag5
(g6
g7
(lp4159
g5
(g6
g7
(lp4160
Vwas
p4161
atp4162
Rp4163
(dp4164
g16
VVBD
p4165
sbag5
(g6
g7
(lp4166
g5
(g6
g7
(lp4167
g5
(g6
g7
(lp4168
Vto
p4169
atp4170
Rp4171
(dp4172
g16
VTO
p4173
sbag5
(g6
g7
(lp4174
g5
(g6
g7
(lp4175
Vdetermine
p4176
atp4177
Rp4178
(dp4179
g16
VVB
p4180
sbag5
(g6
g7
(lp4181
g5
(g6
g7
(lp4182
Vif
p4183
atp4184
Rp4185
(dp4186
g16
VIN
p4187
sbag5
(g6
g7
(lp4188
g5
(g6
g7
(lp4189
g5
(g6
g7
(lp4190
Vany
p4191
atp4192
Rp4193
(dp4194
g16
VDT
p4195
sbag5
(g6
g7
(lp4196
Vpatterns
p4197
atp4198
Rp4199
(dp4200
g16
VNNS
p4201
sbatp4202
Rp4203
(dp4204
g16
VNP
p4205
sbag5
(g6
g7
(lp4206
g5
(g6
g7
(lp4207
Vconsistently
p4208
atp4209
Rp4210
(dp4211
g16
VRB
p4212
sbatp4213
Rp4214
(dp4215
g16
VADVP
p4216
sbag5
(g6
g7
(lp4217
g5
(g6
g7
(lp4218
Vproduce
p4219
atp4220
Rp4221
(dp4222
g16
VVB
p4223
sbag5
(g6
g7
(lp4224
g5
(g6
g7
(lp4225
Vpoor
p4226
atp4227
Rp4228
(dp4229
g16
VJJ
p4230
sbag5
(g6
g7
(lp4231
Vquestions
p4232
atp4233
Rp4234
(dp4235
g16
VNNS
p4236
sbatp4237
Rp4238
(dp4239
g16
VNP
p4240
sbatp4241
Rp4242
(dp4243
g16
VVP
p4244
sbatp4245
Rp4246
(dp4247
g16
g61
sbatp4248
Rp4249
(dp4250
g16
VSBAR
p4251
sbatp4252
Rp4253
(dp4254
g16
VVP
p4255
sbatp4256
Rp4257
(dp4258
g16
VVP
p4259
sbatp4260
Rp4261
(dp4262
g16
g61
sbatp4263
Rp4264
(dp4265
g16
VVP
p4266
sbatp4267
Rp4268
(dp4269
g16
g61
sbatp4270
Rp4271
(dp4272
g16
VROOT
p4273
sbasg227
(icmyPackage
CorE
p4274
(dp4275
g230
(lp4276
(I0
I9
tp4277
a(I0
I14
tp4278
asg234
g4246
sbsg235
(icmyPackage
CorE
p4279
(dp4280
g230
(lp4281
(I0
I0
tp4282
a(I0
I7
tp4283
asg234
g5
(g6
g7
(lp4284
g4156
ag4163
ag4171
ag4178
atp4285
Rp4286
(dp4287
g16
g245
sbsbsg246
(icmyPackage
pattern
p4288
(dp4289
g249
I0
sg250
I0
sg251
(lp4290
(lp4291
S'if'
p4292
aasg257
(lp4293
I1
aI1
aI1
asg259
(lp4294
S'An effective knowledge flow network enables a research team to be very powerful in generating new knowledge if every node can innovate and output new knowledge to appropriate members.'
p4295
asg262
I14
sg263
(lp4296
(lp4297
S'&R@Complete@'
p4298
aa(lp4299
S'&C@Complete@'
p4300
aasbsg269
(lp4301
(isxpPackage
sxpSent
p4302
(dp4303
g273
(lp4304
I16
asg275
VThe purpose of this evaluation was to determine if any patterns consistently produce poor questions
p4305
sg277
I9
sg262
I89
sg278
I17
sbasba(icmyPackage
CELink
p4306
(dp4307
g3
(lp4308
g5
(g6
g7
(lp4309
g5
(g6
g7
(lp4310
g5
(g6
g7
(lp4311
g5
(g6
g7
(lp4312
VWe
p4313
atp4314
Rp4315
(dp4316
g16
VPRP
p4317
sbatp4318
Rp4319
(dp4320
g16
VNP
p4321
sbag5
(g6
g7
(lp4322
g5
(g6
g7
(lp4323
Vwere
p4324
atp4325
Rp4326
(dp4327
g16
VVBD
p4328
sbag5
(g6
g7
(lp4329
g5
(g6
g7
(lp4330
Valso
p4331
atp4332
Rp4333
(dp4334
g16
VRB
p4335
sbatp4336
Rp4337
(dp4338
g16
VADVP
p4339
sbag5
(g6
g7
(lp4340
g5
(g6
g7
(lp4341
Vinterested
p4342
atp4343
Rp4344
(dp4345
g16
VJJ
p4346
sbag5
(g6
g7
(lp4347
g5
(g6
g7
(lp4348
g5
(g6
g7
(lp4349
Vto
p4350
atp4351
Rp4352
(dp4353
g16
VTO
p4354
sbag5
(g6
g7
(lp4355
g5
(g6
g7
(lp4356
Vknow
p4357
atp4358
Rp4359
(dp4360
g16
VVB
p4361
sbag5
(g6
g7
(lp4362
g5
(g6
g7
(lp4363
Vif
p4364
atp4365
Rp4366
(dp4367
g16
VIN
p4368
sbag5
(g6
g7
(lp4369
g5
(g6
g7
(lp4370
g5
(g6
g7
(lp4371
Vfirst
p4372
atp4373
Rp4374
(dp4375
g16
VJJ
p4376
sbag5
(g6
g7
(lp4377
Vpredicates
p4378
atp4379
Rp4380
(dp4381
g16
VNNS
p4382
sbatp4383
Rp4384
(dp4385
g16
VNP
p4386
sbag5
(g6
g7
(lp4387
g5
(g6
g7
(lp4388
Vmake
p4389
atp4390
Rp4391
(dp4392
g16
VVBP
p4393
sbag5
(g6
g7
(lp4394
g5
(g6
g7
(lp4395
Vbetter
p4396
atp4397
Rp4398
(dp4399
g16
VJJR
p4400
sbag5
(g6
g7
(lp4401
Vquestions
p4402
atp4403
Rp4404
(dp4405
g16
VNNS
p4406
sbatp4407
Rp4408
(dp4409
g16
VNP
p4410
sbag5
(g6
g7
(lp4411
g5
(g6
g7
(lp4412
Vthan
p4413
atp4414
Rp4415
(dp4416
g16
VIN
p4417
sbag5
(g6
g7
(lp4418
g5
(g6
g7
(lp4419
Vlater
p4420
atp4421
Rp4422
(dp4423
g16
VJJ
p4424
sbag5
(g6
g7
(lp4425
Vones
p4426
atp4427
Rp4428
(dp4429
g16
VNNS
p4430
sbatp4431
Rp4432
(dp4433
g16
VNP
p4434
sbatp4435
Rp4436
(dp4437
g16
VPP
p4438
sbatp4439
Rp4440
(dp4441
g16
VVP
p4442
sbatp4443
Rp4444
(dp4445
g16
g61
sbatp4446
Rp4447
(dp4448
g16
VSBAR
p4449
sbatp4450
Rp4451
(dp4452
g16
VVP
p4453
sbatp4454
Rp4455
(dp4456
g16
VVP
p4457
sbatp4458
Rp4459
(dp4460
g16
g61
sbatp4461
Rp4462
(dp4463
g16
VADJP
p4464
sbatp4465
Rp4466
(dp4467
g16
VVP
p4468
sbatp4469
Rp4470
(dp4471
g16
g61
sbatp4472
Rp4473
(dp4474
g16
VROOT
p4475
sbasg227
(icmyPackage
CorE
p4476
(dp4477
g230
(lp4478
(I0
I7
tp4479
a(I0
I14
tp4480
asg234
g4444
sbsg235
(icmyPackage
CorE
p4481
(dp4482
g230
(lp4483
(I0
I0
tp4484
a(I0
I5
tp4485
asg234
g5
(g6
g7
(lp4486
g4319
ag4326
ag4337
ag4344
ag4352
ag4359
atp4487
Rp4488
(dp4489
g16
g245
sbsbsg246
g4288
sg269
(lp4490
(isxpPackage
sxpSent
p4491
(dp4492
g273
(lp4493
I17
asg275
VWe were also interested to know if first predicates make better questions than later ones
p4494
sg277
I9
sg262
I91
sg278
I17
sbasba(icmyPackage
CELink
p4495
(dp4496
g3
(lp4497
g5
(g6
g7
(lp4498
g5
(g6
g7
(lp4499
g5
(g6
g7
(lp4500
g5
(g6
g7
(lp4501
VThis
p4502
atp4503
Rp4504
(dp4505
g16
VDT
p4506
sbag5
(g6
g7
(lp4507
Vtask
p4508
atp4509
Rp4510
(dp4511
g16
VNN
p4512
sbatp4513
Rp4514
(dp4515
g16
VNP
p4516
sbag5
(g6
g7
(lp4517
g5
(g6
g7
(lp4518
Vutilized
p4519
atp4520
Rp4521
(dp4522
g16
VVBD
p4523
sbag5
(g6
g7
(lp4524
g5
(g6
g7
(lp4525
g5
(g6
g7
(lp4526
g5
(g6
g7
(lp4527
g395
atp4528
Rp4529
(dp4530
g16
VDT
p4531
sbag5
(g6
g7
(lp4532
Vfile
p4533
atp4534
Rp4535
(dp4536
g16
VNN
p4537
sbatp4538
Rp4539
(dp4540
g16
VNP
p4541
sbag5
(g6
g7
(lp4542
g5
(g6
g7
(lp4543
V-LRB-
p4544
atp4545
Rp4546
(dp4547
g16
V-LRB-
p4548
sbag5
(g6
g7
(lp4549
g5
(g6
g7
(lp4550
g5
(g6
g7
(lp4551
VBiology
p4552
atp4553
Rp4554
(dp4555
g16
VNNP
p4556
sbatp4557
Rp4558
(dp4559
g16
VNP
p4560
sbag5
(g6
g7
(lp4561
g5
(g6
g7
(lp4562
Vthe
p4563
atp4564
Rp4565
(dp4566
g16
VDT
p4567
sbag5
(g6
g7
(lp4568
Vbody
p4569
atp4570
Rp4571
(dp4572
g16
VNN
p4573
sbatp4574
Rp4575
(dp4576
g16
VNP
p4577
sbatp4578
Rp4579
(dp4580
g16
VNP
p4581
sbag5
(g6
g7
(lp4582
V-RRB-
p4583
atp4584
Rp4585
(dp4586
g16
V-RRB-
p4587
sbatp4588
Rp4589
(dp4590
g16
VPRN
p4591
sbatp4592
Rp4593
(dp4594
g16
VNP
p4595
sbag5
(g6
g7
(lp4596
g5
(g6
g7
(lp4597
Vwith
p4598
atp4599
Rp4600
(dp4601
g16
VIN
p4602
sbag5
(g6
g7
(lp4603
g5
(g6
g7
(lp4604
V56
p4605
atp4606
Rp4607
(dp4608
g16
VCD
p4609
sbag5
(g6
g7
(lp4610
Vsource
p4611
atp4612
Rp4613
(dp4614
g16
VNN
p4615
sbag5
(g6
g7
(lp4616
Vsentences
p4617
atp4618
Rp4619
(dp4620
g16
VNNS
p4621
sbatp4622
Rp4623
(dp4624
g16
VNP
p4625
sbatp4626
Rp4627
(dp4628
g16
VPP
p4629
sbatp4630
Rp4631
(dp4632
g16
VNP
p4633
sbag5
(g6
g7
(lp4634
g5
(g6
g7
(lp4635
Vfrom
p4636
atp4637
Rp4638
(dp4639
g16
VIN
p4640
sbag5
(g6
g7
(lp4641
g5
(g6
g7
(lp4642
g5
(g6
g7
(lp4643
Vwhich
p4644
atp4645
Rp4646
(dp4647
g16
VWDT
p4648
sbatp4649
Rp4650
(dp4651
g16
VWHNP
p4652
sbag5
(g6
g7
(lp4653
g5
(g6
g7
(lp4654
g5
(g6
g7
(lp4655
Vour
p4656
atp4657
Rp4658
(dp4659
g16
VPRP$
p4660
sbag5
(g6
g7
(lp4661
Vsystem
p4662
atp4663
Rp4664
(dp4665
g16
VNN
p4666
sbatp4667
Rp4668
(dp4669
g16
VNP
p4670
sbag5
(g6
g7
(lp4671
g5
(g6
g7
(lp4672
Vgenerated
p4673
atp4674
Rp4675
(dp4676
g16
VVBD
p4677
sbag5
(g6
g7
(lp4678
g5
(g6
g7
(lp4679
V102
p4680
atp4681
Rp4682
(dp4683
g16
VCD
p4684
sbag5
(g6
g7
(lp4685
Vquestions
p4686
atp4687
Rp4688
(dp4689
g16
VNNS
p4690
sbatp4691
Rp4692
(dp4693
g16
VNP
p4694
sbatp4695
Rp4696
(dp4697
g16
VVP
p4698
sbatp4699
Rp4700
(dp4701
g16
g61
sbatp4702
Rp4703
(dp4704
g16
VSBAR
p4705
sbatp4706
Rp4707
(dp4708
g16
VPP
p4709
sbatp4710
Rp4711
(dp4712
g16
VVP
p4713
sbatp4714
Rp4715
(dp4716
g16
g61
sbatp4717
Rp4718
(dp4719
g16
VROOT
p4720
sbag5
(g6
g7
(lp4721
g5
(g6
g7
(lp4722
g5
(g6
g7
(lp4723
g5
(g6
g7
(lp4724
VThe
p4725
atp4726
Rp4727
(dp4728
g16
VDT
p4729
sbag5
(g6
g7
(lp4730
VHeilman
p4731
atp4732
Rp4733
(dp4734
g16
VNNP
p4735
sbag5
(g6
g7
(lp4736
Vand
p4737
atp4738
Rp4739
(dp4740
g16
VCC
p4741
sbag5
(g6
g7
(lp4742
VSmith
p4743
atp4744
Rp4745
(dp4746
g16
VNNP
p4747
sbag5
(g6
g7
(lp4748
Vsystem
p4749
atp4750
Rp4751
(dp4752
g16
VNN
p4753
sbatp4754
Rp4755
(dp4756
g16
VNP
p4757
sbag5
(g6
g7
(lp4758
g67
atp4759
Rp4760
(dp4761
g16
g67
sbag5
(g6
g7
(lp4762
g5
(g6
g7
(lp4763
Vas
p4764
atp4765
Rp4766
(dp4767
g16
VIN
p4768
sbag5
(g6
g7
(lp4769
g5
(g6
g7
(lp4770
g5
(g6
g7
(lp4771
Vthey
p4772
atp4773
Rp4774
(dp4775
g16
VPRP
p4776
sbatp4777
Rp4778
(dp4779
g16
VNP
p4780
sbag5
(g6
g7
(lp4781
g5
(g6
g7
(lp4782
Vdescribe
p4783
atp4784
Rp4785
(dp4786
g16
VVBP
p4787
sbag5
(g6
g7
(lp4788
g5
(g6
g7
(lp4789
Vit
p4790
atp4791
Rp4792
(dp4793
g16
VPRP
p4794
sbatp4795
Rp4796
(dp4797
g16
VNP
p4798
sbatp4799
Rp4800
(dp4801
g16
VVP
p4802
sbatp4803
Rp4804
(dp4805
g16
g61
sbatp4806
Rp4807
(dp4808
g16
VSBAR
p4809
sbag5
(g6
g7
(lp4810
g67
atp4811
Rp4812
(dp4813
g16
g67
sbag5
(g6
g7
(lp4814
g5
(g6
g7
(lp4815
Vtakes
p4816
atp4817
Rp4818
(dp4819
g16
VVBZ
p4820
sbag5
(g6
g7
(lp4821
g5
(g6
g7
(lp4822
Van
p4823
atp4824
Rp4825
(dp4826
g16
VDT
p4827
sbag5
(g6
g7
(lp4828
Vover-generate
p4829
atp4830
Rp4831
(dp4832
g16
VNN
p4833
sbag5
(g6
g7
(lp4834
Vand
p4835
atp4836
Rp4837
(dp4838
g16
VCC
p4839
sbag5
(g6
g7
(lp4840
Vrank
p4841
atp4842
Rp4843
(dp4844
g16
VNN
p4845
sbag5
(g6
g7
(lp4846
Vapproach
p4847
atp4848
Rp4849
(dp4850
g16
VNN
p4851
sbatp4852
Rp4853
(dp4854
g16
VNP
p4855
sbatp4856
Rp4857
(dp4858
g16
VVP
p4859
sbatp4860
Rp4861
(dp4862
g16
g61
sbatp4863
Rp4864
(dp4865
g16
VROOT
p4866
sbasg227
(icmyPackage
CorE
p4867
(dp4868
g230
(lp4869
(I1
I7
tp4870
a(I1
I16
tp4871
asg234
g5
(g6
g7
(lp4872
g4804
ag4812
ag4857
atp4873
Rp4874
(dp4875
g16
g245
sbsbsg235
(icmyPackage
CorE
p4876
(dp4877
g230
(lp4878
(I0
I1
tp4879
a(I1
I4
tp4880
asg234
g5
(g6
g7
(lp4881
g4510
ag4711
ag4755
atp4882
Rp4883
(dp4884
g16
g245
sbsbsg246
g1717
sg269
(lp4885
(isxpPackage
sxpSent
p4886
(dp4887
g273
(lp4888
I18
asg275
VThis task utilized a file (Biology the body) with 56 source sentences from which our system generated 102 questions
p4889
sg277
I10
sg262
I97
sg278
I19
sba(isxpPackage
sxpSent
p4890
(dp4891
g273
(lp4892
I18
asg275
VThe Heilman and Smith system, as they describe it, takes an over-generate and rank approach
p4893
sg277
I10
sg262
I98
sg278
I19
sbasba(icmyPackage
CELink
p4894
(dp4895
g3
(lp4896
g5
(g6
g7
(lp4897
g5
(g6
g7
(lp4898
g5
(g6
g7
(lp4899
g5
(g6
g7
(lp4900
g5
(g6
g7
(lp4901
g5
(g6
g7
(lp4902
VThe
p4903
atp4904
Rp4905
(dp4906
g16
VDT
p4907
sbag5
(g6
g7
(lp4908
Vfile
p4909
atp4910
Rp4911
(dp4912
g16
VNN
p4913
sbatp4914
Rp4915
(dp4916
g16
VNP
p4917
sbag5
(g6
g7
(lp4918
g5
(g6
g7
(lp4919
Vhas
p4920
atp4921
Rp4922
(dp4923
g16
VVBZ
p4924
sbag5
(g6
g7
(lp4925
g5
(g6
g7
(lp4926
V93
p4927
atp4928
Rp4929
(dp4930
g16
VCD
p4931
sbag5
(g6
g7
(lp4932
Vsentences
p4933
atp4934
Rp4935
(dp4936
g16
VNNS
p4937
sbatp4938
Rp4939
(dp4940
g16
VNP
p4941
sbatp4942
Rp4943
(dp4944
g16
VVP
p4945
sbatp4946
Rp4947
(dp4948
g16
g61
sbag5
(g6
g7
(lp4949
Vand
p4950
atp4951
Rp4952
(dp4953
g16
VCC
p4954
sbag5
(g6
g7
(lp4955
g5
(g6
g7
(lp4956
g5
(g6
g7
(lp4957
Vour
p4958
atp4959
Rp4960
(dp4961
g16
VPRP$
p4962
sbag5
(g6
g7
(lp4963
Vsystem
p4964
atp4965
Rp4966
(dp4967
g16
VNN
p4968
sbatp4969
Rp4970
(dp4971
g16
VNP
p4972
sbag5
(g6
g7
(lp4973
g5
(g6
g7
(lp4974
Vgenerated
p4975
atp4976
Rp4977
(dp4978
g16
VVBD
p4979
sbag5
(g6
g7
(lp4980
g5
(g6
g7
(lp4981
V184
p4982
atp4983
Rp4984
(dp4985
g16
VCD
p4986
sbag5
(g6
g7
(lp4987
Vquestions
p4988
atp4989
Rp4990
(dp4991
g16
VNNS
p4992
sbatp4993
Rp4994
(dp4995
g16
VNP
p4996
sbatp4997
Rp4998
(dp4999
g16
VVP
p5000
sbatp5001
Rp5002
(dp5003
g16
g61
sbatp5004
Rp5005
(dp5006
g16
g61
sbag5
(g6
g7
(lp5007
V;
p5008
atp5009
Rp5010
(dp5011
g16
V:
p5012
sbag5
(g6
g7
(lp5013
g5
(g6
g7
(lp5014
g5
(g6
g7
(lp5015
Vthe
p5016
atp5017
Rp5018
(dp5019
g16
VDT
p5020
sbag5
(g6
g7
(lp5021
VLPN
p5022
atp5023
Rp5024
(dp5025
g16
VNNP
p5026
sbag5
(g6
g7
(lp5027
g3854
atp5028
Rp5029
(dp5030
g16
VNNP
p5031
sbag5
(g6
g7
(lp5032
Vsystem
p5033
atp5034
Rp5035
(dp5036
g16
VNN
p5037
sbatp5038
Rp5039
(dp5040
g16
VNP
p5041
sbag5
(g6
g7
(lp5042
g5
(g6
g7
(lp5043
Vgenerated
p5044
atp5045
Rp5046
(dp5047
g16
VVBD
p5048
sbag5
(g6
g7
(lp5049
g5
(g6
g7
(lp5050
g5
(g6
g7
(lp5051
Vroughly
p5052
atp5053
Rp5054
(dp5055
g16
VRB
p5056
sbag5
(g6
g7
(lp5057
V4
p5058
atp5059
Rp5060
(dp5061
g16
VCD
p5062
sbag5
(g6
g7
(lp5063
Vtimes
p5064
atp5065
Rp5066
(dp5067
g16
VNNS
p5068
sbag5
(g6
g7
(lp5069
Vas
p5070
atp5071
Rp5072
(dp5073
g16
VIN
p5074
sbag5
(g6
g7
(lp5075
Vmany
p5076
atp5077
Rp5078
(dp5079
g16
VJJ
p5080
sbatp5081
Rp5082
(dp5083
g16
VQP
p5084
sbag5
(g6
g7
(lp5085
Vquestions
p5086
atp5087
Rp5088
(dp5089
g16
VNNS
p5090
sbatp5091
Rp5092
(dp5093
g16
VNP
p5094
sbatp5095
Rp5096
(dp5097
g16
VVP
p5098
sbatp5099
Rp5100
(dp5101
g16
g61
sbatp5102
Rp5103
(dp5104
g16
g61
sbatp5105
Rp5106
(dp5107
g16
VROOT
p5108
sbag5
(g6
g7
(lp5109
g5
(g6
g7
(lp5110
g5
(g6
g7
(lp5111
g5
(g6
g7
(lp5112
VFrom
p5113
atp5114
Rp5115
(dp5116
g16
VIN
p5117
sbag5
(g6
g7
(lp5118
g5
(g6
g7
(lp5119
Veach
p5120
atp5121
Rp5122
(dp5123
g16
VDT
p5124
sbag5
(g6
g7
(lp5125
Vsystem
p5126
atp5127
Rp5128
(dp5129
g16
VNN
p5130
sbatp5131
Rp5132
(dp5133
g16
VNP
p5134
sbatp5135
Rp5136
(dp5137
g16
VPP
p5138
sbag5
(g6
g7
(lp5139
g67
atp5140
Rp5141
(dp5142
g16
g67
sbag5
(g6
g7
(lp5143
g5
(g6
g7
(lp5144
V100
p5145
atp5146
Rp5147
(dp5148
g16
VCD
p5149
sbag5
(g6
g7
(lp5150
Vquestions
p5151
atp5152
Rp5153
(dp5154
g16
VNNS
p5155
sbatp5156
Rp5157
(dp5158
g16
VNP
p5159
sbag5
(g6
g7
(lp5160
g5
(g6
g7
(lp5161
Vwere
p5162
atp5163
Rp5164
(dp5165
g16
VVBD
p5166
sbag5
(g6
g7
(lp5167
g5
(g6
g7
(lp5168
g5
(g6
g7
(lp5169
Vrandomly
p5170
atp5171
Rp5172
(dp5173
g16
VRB
p5174
sbatp5175
Rp5176
(dp5177
g16
VADVP
p5178
sbag5
(g6
g7
(lp5179
Vselected
p5180
atp5181
Rp5182
(dp5183
g16
VVBN
p5184
sbag5
(g6
g7
(lp5185
g67
atp5186
Rp5187
(dp5188
g16
g67
sbag5
(g6
g7
(lp5189
g5
(g6
g7
(lp5190
g5
(g6
g7
(lp5191
Vmaking
p5192
atp5193
Rp5194
(dp5195
g16
VVBG
p5196
sbag5
(g6
g7
(lp5197
g5
(g6
g7
(lp5198
Vsure
p5199
atp5200
Rp5201
(dp5202
g16
VJJ
p5203
sbatp5204
Rp5205
(dp5206
g16
VADJP
p5207
sbag5
(g6
g7
(lp5208
g5
(g6
g7
(lp5209
Vthat
p5210
atp5211
Rp5212
(dp5213
g16
VIN
p5214
sbag5
(g6
g7
(lp5215
g5
(g6
g7
(lp5216
g5
(g6
g7
(lp5217
Vthe
p5218
atp5219
Rp5220
(dp5221
g16
VDT
p5222
sbag5
(g6
g7
(lp5223
VLPN
p5224
atp5225
Rp5226
(dp5227
g16
VNNP
p5228
sbag5
(g6
g7
(lp5229
g3854
atp5230
Rp5231
(dp5232
g16
VNNP
p5233
sbag5
(g6
g7
(lp5234
Vquestions
p5235
atp5236
Rp5237
(dp5238
g16
VNNS
p5239
sbatp5240
Rp5241
(dp5242
g16
VNP
p5243
sbag5
(g6
g7
(lp5244
g5
(g6
g7
(lp5245
Vdid
p5246
atp5247
Rp5248
(dp5249
g16
VVBD
p5250
sbag5
(g6
g7
(lp5251
Vnot
p5252
atp5253
Rp5254
(dp5255
g16
VRB
p5256
sbag5
(g6
g7
(lp5257
g5
(g6
g7
(lp5258
Vinclude
p5259
atp5260
Rp5261
(dp5262
g16
VVB
p5263
sbag5
(g6
g7
(lp5264
g5
(g6
g7
(lp5265
g5
(g6
g7
(lp5266
Vquestions
p5267
atp5268
Rp5269
(dp5270
g16
VNNS
p5271
sbatp5272
Rp5273
(dp5274
g16
VNP
p5275
sbag5
(g6
g7
(lp5276
g5
(g6
g7
(lp5277
Vgenerated
p5278
atp5279
Rp5280
(dp5281
g16
VVBN
p5282
sbag5
(g6
g7
(lp5283
g5
(g6
g7
(lp5284
Vfrom
p5285
atp5286
Rp5287
(dp5288
g16
VIN
p5289
sbag5
(g6
g7
(lp5290
g5
(g6
g7
(lp5291
Vdomain-specific
p5292
atp5293
Rp5294
(dp5295
g16
VJJ
p5296
sbag5
(g6
g7
(lp5297
Vtemplates
p5298
atp5299
Rp5300
(dp5301
g16
VNNS
p5302
sbatp5303
Rp5304
(dp5305
g16
VNP
p5306
sbatp5307
Rp5308
(dp5309
g16
VPP
p5310
sbag5
(g6
g7
(lp5311
g5
(g6
g7
(lp5312
Vsuch
p5313
atp5314
Rp5315
(dp5316
g16
VJJ
p5317
sbag5
(g6
g7
(lp5318
g5
(g6
g7
(lp5319
Vas
p5320
atp5321
Rp5322
(dp5323
g16
VIN
p5324
sbatp5325
Rp5326
(dp5327
g16
VPP
p5328
sbatp5329
Rp5330
(dp5331
g16
VPP
p5332
sbatp5333
Rp5334
(dp5335
g16
VVP
p5336
sbatp5337
Rp5338
(dp5339
g16
VNP
p5340
sbatp5341
Rp5342
(dp5343
g16
VVP
p5344
sbatp5345
Rp5346
(dp5347
g16
VVP
p5348
sbatp5349
Rp5350
(dp5351
g16
g61
sbatp5352
Rp5353
(dp5354
g16
VSBAR
p5355
sbatp5356
Rp5357
(dp5358
g16
VVP
p5359
sbatp5360
Rp5361
(dp5362
g16
g61
sbatp5363
Rp5364
(dp5365
g16
VVP
p5366
sbatp5367
Rp5368
(dp5369
g16
VVP
p5370
sbatp5371
Rp5372
(dp5373
g16
g61
sbatp5374
Rp5375
(dp5376
g16
VROOT
p5377
sbasg227
(icmyPackage
CorE
p5378
(dp5379
g230
(lp5380
(I0
I21
tp5381
a(I1
I25
tp5382
asg234
g5
(g6
g7
(lp5383
g5078
ag5088
ag5136
ag5141
ag5157
ag5164
ag5176
ag5182
ag5187
ag5194
ag5205
ag5212
ag5241
ag5248
ag5254
ag5261
ag5273
ag5280
ag5308
ag5315
atp5384
Rp5385
(dp5386
g16
g245
sbsbsg235
(icmyPackage
CorE
p5387
(dp5388
g230
(lp5389
(I0
I12
tp5390
a(I0
I19
tp5391
asg234
g5
(g6
g7
(lp5392
g5039
ag5046
ag5054
ag5060
ag5066
atp5393
Rp5394
(dp5395
g16
g245
sbsbsg246
g1717
sg269
(lp5396
(isxpPackage
sxpSent
p5397
(dp5398
g273
(lp5399
I19
asg275
VThe file has 93 sentences and our system generated 184 questions; the LPN W system generated roughly 4 times as many questions
p5400
sg277
I11
sg262
I108
sg278
I21
sba(isxpPackage
sxpSent
p5401
(dp5402
g273
(lp5403
I19
asg275
VFrom each system, 100 questions were randomly selected, making sure that the LPN W questions did not include questions generated from domain-specific templates such as
p5404
sg277
I11
sg262
I109
sg278
I21
sbasba(icmyPackage
CELink
p5405
(dp5406
g3
(lp5407
g5
(g6
g7
(lp5408
g5
(g6
g7
(lp5409
g5
(g6
g7
(lp5410
g5
(g6
g7
(lp5411
VInterestingly
p5412
atp5413
Rp5414
(dp5415
g16
VRB
p5416
sbatp5417
Rp5418
(dp5419
g16
VADVP
p5420
sbag5
(g6
g7
(lp5421
g67
atp5422
Rp5423
(dp5424
g16
g67
sbag5
(g6
g7
(lp5425
g5
(g6
g7
(lp5426
Vour
p5427
atp5428
Rp5429
(dp5430
g16
VPRP$
p5431
sbag5
(g6
g7
(lp5432
Vsystem
p5433
atp5434
Rp5435
(dp5436
g16
VNN
p5437
sbatp5438
Rp5439
(dp5440
g16
VNP
p5441
sbag5
(g6
g7
(lp5442
g5
(g6
g7
(lp5443
Vagain
p5444
atp5445
Rp5446
(dp5447
g16
VRB
p5448
sbatp5449
Rp5450
(dp5451
g16
VADVP
p5452
sbag5
(g6
g7
(lp5453
g5
(g6
g7
(lp5454
Vachieved
p5455
atp5456
Rp5457
(dp5458
g16
VVBD
p5459
sbag5
(g6
g7
(lp5460
g5
(g6
g7
(lp5461
g5
(g6
g7
(lp5462
g395
atp5463
Rp5464
(dp5465
g16
VDT
p5466
sbag5
(g6
g7
(lp5467
g5
(g6
g7
(lp5468
V44
p5469
atp5470
Rp5471
(dp5472
g16
VCD
p5473
sbag5
(g6
g7
(lp5474
V%
p5475
atp5476
Rp5477
(dp5478
g16
VNN
p5479
sbatp5480
Rp5481
(dp5482
g16
VADJP
p5483
sbag5
(g6
g7
(lp5484
Vreduction
p5485
atp5486
Rp5487
(dp5488
g16
VNN
p5489
sbatp5490
Rp5491
(dp5492
g16
VNP
p5493
sbag5
(g6
g7
(lp5494
g5
(g6
g7
(lp5495
Vin
p5496
atp5497
Rp5498
(dp5499
g16
VIN
p5500
sbag5
(g6
g7
(lp5501
g5
(g6
g7
(lp5502
Vthe
p5503
atp5504
Rp5505
(dp5506
g16
VDT
p5507
sbag5
(g6
g7
(lp5508
Verror
p5509
atp5510
Rp5511
(dp5512
g16
VNN
p5513
sbag5
(g6
g7
(lp5514
Vrate
p5515
atp5516
Rp5517
(dp5518
g16
VNN
p5519
sbatp5520
Rp5521
(dp5522
g16
VNP
p5523
sbatp5524
Rp5525
(dp5526
g16
VPP
p5527
sbatp5528
Rp5529
(dp5530
g16
VNP
p5531
sbag5
(g6
g7
(lp5532
g5
(g6
g7
(lp5533
g5
(g6
g7
(lp5534
Vwhen
p5535
atp5536
Rp5537
(dp5538
g16
VWRB
p5539
sbatp5540
Rp5541
(dp5542
g16
VWHADVP
p5543
sbag5
(g6
g7
(lp5544
g5
(g6
g7
(lp5545
g5
(g6
g7
(lp5546
Vaveraging
p5547
atp5548
Rp5549
(dp5550
g16
VVBG
p5551
sbag5
(g6
g7
(lp5552
g5
(g6
g7
(lp5553
Vover
p5554
atp5555
Rp5556
(dp5557
g16
VRP
p5558
sbatp5559
Rp5560
(dp5561
g16
VPRT
p5562
sbag5
(g6
g7
(lp5563
g5
(g6
g7
(lp5564
Vall
p5565
atp5566
Rp5567
(dp5568
g16
VDT
p5569
sbag5
(g6
g7
(lp5570
Vmetrics
p5571
atp5572
Rp5573
(dp5574
g16
VNNS
p5575
sbatp5576
Rp5577
(dp5578
g16
VNP
p5579
sbag5
(g6
g7
(lp5580
g67
atp5581
Rp5582
(dp5583
g16
g67
sbag5
(g6
g7
(lp5584
g5
(g6
g7
(lp5585
Vjust
p5586
atp5587
Rp5588
(dp5589
g16
VRB
p5590
sbag5
(g6
g7
(lp5591
Vas
p5592
atp5593
Rp5594
(dp5595
g16
VIN
p5596
sbag5
(g6
g7
(lp5597
g5
(g6
g7
(lp5598
g5
(g6
g7
(lp5599
Vit
p5600
atp5601
Rp5602
(dp5603
g16
VPRP
p5604
sbatp5605
Rp5606
(dp5607
g16
VNP
p5608
sbag5
(g6
g7
(lp5609
g5
(g6
g7
(lp5610
Vdid
p5611
atp5612
Rp5613
(dp5614
g16
VVBD
p5615
sbag5
(g6
g7
(lp5616
g5
(g6
g7
(lp5617
Vin
p5618
atp5619
Rp5620
(dp5621
g16
VIN
p5622
sbag5
(g6
g7
(lp5623
g5
(g6
g7
(lp5624
Vthe
p5625
atp5626
Rp5627
(dp5628
g16
VDT
p5629
sbag5
(g6
g7
(lp5630
VHeilman
p5631
atp5632
Rp5633
(dp5634
g16
VNNP
p5635
sbag5
(g6
g7
(lp5636
Vand
p5637
atp5638
Rp5639
(dp5640
g16
VCC
p5641
sbag5
(g6
g7
(lp5642
VSmith
p5643
atp5644
Rp5645
(dp5646
g16
VNNP
p5647
sbag5
(g6
g7
(lp5648
Vcomparison
p5649
atp5650
Rp5651
(dp5652
g16
VNNP
p5653
sbatp5654
Rp5655
(dp5656
g16
VNP
p5657
sbatp5658
Rp5659
(dp5660
g16
VPP
p5661
sbatp5662
Rp5663
(dp5664
g16
VVP
p5665
sbatp5666
Rp5667
(dp5668
g16
g61
sbatp5669
Rp5670
(dp5671
g16
VSBAR
p5672
sbatp5673
Rp5674
(dp5675
g16
VVP
p5676
sbatp5677
Rp5678
(dp5679
g16
g61
sbatp5680
Rp5681
(dp5682
g16
VSBAR
p5683
sbatp5684
Rp5685
(dp5686
g16
VVP
p5687
sbatp5688
Rp5689
(dp5690
g16
g61
sbatp5691
Rp5692
(dp5693
g16
VROOT
p5694
sbasg227
(icmyPackage
CorE
p5695
(dp5696
g230
(lp5697
(I0
I22
tp5698
a(I0
I29
tp5699
asg234
g5667
sbsg235
(icmyPackage
CorE
p5700
(dp5701
g230
(lp5702
(I0
I0
tp5703
a(I0
I20
tp5704
asg234
g5
(g6
g7
(lp5705
g5418
ag5423
ag5439
ag5450
ag5457
ag5529
ag5541
ag5549
ag5560
ag5577
ag5582
ag5588
atp5706
Rp5707
(dp5708
g16
g245
sbsbsg246
g1717
sg269
(lp5709
(isxpPackage
sxpSent
p5710
(dp5711
g273
(lp5712
I20
asg275
VInterestingly, our system again achieved a 44% reduction in the error rate when averaging over all metrics, just as it did in the Heilman and Smith comparison
p5713
sg277
I11
sg262
I113
sg278
I21
sbasba(icmyPackage
CELink
p5714
(dp5715
g3
(lp5716
g5
(g6
g7
(lp5717
g5
(g6
g7
(lp5718
g5
(g6
g7
(lp5719
g5
(g6
g7
(lp5720
VNegation
p5721
atp5722
Rp5723
(dp5724
g16
VNNP
p5725
sbag5
(g6
g7
(lp5726
Vdetection
p5727
atp5728
Rp5729
(dp5730
g16
VNNP
p5731
sbatp5732
Rp5733
(dp5734
g16
VNP
p5735
sbag5
(g6
g7
(lp5736
g5
(g6
g7
(lp5737
Vis
p5738
atp5739
Rp5740
(dp5741
g16
VVBZ
p5742
sbag5
(g6
g7
(lp5743
g5
(g6
g7
(lp5744
g5
(g6
g7
(lp5745
g395
atp5746
Rp5747
(dp5748
g16
VDT
p5749
sbag5
(g6
g7
(lp5750
Vcomplicated
p5751
atp5752
Rp5753
(dp5754
g16
VJJ
p5755
sbag5
(g6
g7
(lp5756
Vtask
p5757
atp5758
Rp5759
(dp5760
g16
VNN
p5761
sbatp5762
Rp5763
(dp5764
g16
VNP
p5765
sbag5
(g6
g7
(lp5766
g5
(g6
g7
(lp5767
g5
(g6
g7
(lp5768
Vbecause
p5769
atp5770
Rp5771
(dp5772
g16
VIN
p5773
sbag5
(g6
g7
(lp5774
g5
(g6
g7
(lp5775
g5
(g6
g7
(lp5776
Vnegation
p5777
atp5778
Rp5779
(dp5780
g16
VNN
p5781
sbatp5782
Rp5783
(dp5784
g16
VNP
p5785
sbag5
(g6
g7
(lp5786
g5
(g6
g7
(lp5787
Vcan
p5788
atp5789
Rp5790
(dp5791
g16
VMD
p5792
sbag5
(g6
g7
(lp5793
g5
(g6
g7
(lp5794
Voccur
p5795
atp5796
Rp5797
(dp5798
g16
VVB
p5799
sbag5
(g6
g7
(lp5800
g5
(g6
g7
(lp5801
Vat
p5802
atp5803
Rp5804
(dp5805
g16
VIN
p5806
sbag5
(g6
g7
(lp5807
g5
(g6
g7
(lp5808
g5
(g6
g7
(lp5809
Vthe
p5810
atp5811
Rp5812
(dp5813
g16
VDT
p5814
sbag5
(g6
g7
(lp5815
Vword
p5816
atp5817
Rp5818
(dp5819
g16
VNN
p5820
sbatp5821
Rp5822
(dp5823
g16
VNP
p5824
sbag5
(g6
g7
(lp5825
g67
atp5826
Rp5827
(dp5828
g16
g67
sbag5
(g6
g7
(lp5829
g5
(g6
g7
(lp5830
Vphrase
p5831
atp5832
Rp5833
(dp5834
g16
VNN
p5835
sbatp5836
Rp5837
(dp5838
g16
VNP
p5839
sbag5
(g6
g7
(lp5840
Vor
p5841
atp5842
Rp5843
(dp5844
g16
VCC
p5845
sbag5
(g6
g7
(lp5846
g5
(g6
g7
(lp5847
Vclause
p5848
atp5849
Rp5850
(dp5851
g16
VNN
p5852
sbag5
(g6
g7
(lp5853
Vlevel
p5854
atp5855
Rp5856
(dp5857
g16
VNN
p5858
sbatp5859
Rp5860
(dp5861
g16
VNP
p5862
sbatp5863
Rp5864
(dp5865
g16
VNP
p5866
sbatp5867
Rp5868
(dp5869
g16
VPP
p5870
sbatp5871
Rp5872
(dp5873
g16
VVP
p5874
sbatp5875
Rp5876
(dp5877
g16
VVP
p5878
sbatp5879
Rp5880
(dp5881
g16
g61
sbatp5882
Rp5883
(dp5884
g16
VSBAR
p5885
sbag5
(g6
g7
(lp5886
g67
atp5887
Rp5888
(dp5889
g16
g67
sbag5
(g6
g7
(lp5890
Vand
p5891
atp5892
Rp5893
(dp5894
g16
VCC
p5895
sbag5
(g6
g7
(lp5896
g5
(g6
g7
(lp5897
Vbecause
p5898
atp5899
Rp5900
(dp5901
g16
VIN
p5902
sbag5
(g6
g7
(lp5903
g5
(g6
g7
(lp5904
g5
(g6
g7
(lp5905
Vthere
p5906
atp5907
Rp5908
(dp5909
g16
VEX
p5910
sbatp5911
Rp5912
(dp5913
g16
VNP
p5914
sbag5
(g6
g7
(lp5915
g5
(g6
g7
(lp5916
Vare
p5917
atp5918
Rp5919
(dp5920
g16
VVBP
p5921
sbag5
(g6
g7
(lp5922
g5
(g6
g7
(lp5923
g5
(g6
g7
(lp5924
Vsubtle
p5925
atp5926
Rp5927
(dp5928
g16
VJJ
p5929
sbag5
(g6
g7
(lp5930
Vshades
p5931
atp5932
Rp5933
(dp5934
g16
VNNS
p5935
sbatp5936
Rp5937
(dp5938
g16
VNP
p5939
sbag5
(g6
g7
(lp5940
g5
(g6
g7
(lp5941
Vof
p5942
atp5943
Rp5944
(dp5945
g16
VIN
p5946
sbag5
(g6
g7
(lp5947
g5
(g6
g7
(lp5948
g5
(g6
g7
(lp5949
Vnegation
p5950
atp5951
Rp5952
(dp5953
g16
VNN
p5954
sbatp5955
Rp5956
(dp5957
g16
VNP
p5958
sbag5
(g6
g7
(lp5959
g5
(g6
g7
(lp5960
Vbetween
p5961
atp5962
Rp5963
(dp5964
g16
VIN
p5965
sbag5
(g6
g7
(lp5966
g5
(g6
g7
(lp5967
g5
(g6
g7
(lp5968
Vdefinite
p5969
atp5970
Rp5971
(dp5972
g16
VJJ
p5973
sbag5
(g6
g7
(lp5974
g5
(g6
g7
(lp5975
Vpositive
p5976
atp5977
Rp5978
(dp5979
g16
VJJ
p5980
sbag5
(g6
g7
(lp5981
Vand
p5982
atp5983
Rp5984
(dp5985
g16
VCC
p5986
sbag5
(g6
g7
(lp5987
Vnegative
p5988
atp5989
Rp5990
(dp5991
g16
VJJ
p5992
sbatp5993
Rp5994
(dp5995
g16
VADJP
p5996
sbag5
(g6
g7
(lp5997
Vpolarities
p5998
atp5999
Rp6000
(dp6001
g16
VNNS
p6002
sbatp6003
Rp6004
(dp6005
g16
VNP
p6006
sbag5
(g6
g7
(lp6007
g5
(g6
g7
(lp6008
V-LRB-
p6009
atp6010
Rp6011
(dp6012
g16
V-LRB-
p6013
sbag5
(g6
g7
(lp6014
g5
(g6
g7
(lp6015
VBlanco
p6016
atp6017
Rp6018
(dp6019
g16
VNNP
p6020
sbag5
(g6
g7
(lp6021
Vand
p6022
atp6023
Rp6024
(dp6025
g16
VCC
p6026
sbag5
(g6
g7
(lp6027
VMoldovan
p6028
atp6029
Rp6030
(dp6031
g16
VNNP
p6032
sbatp6033
Rp6034
(dp6035
g16
VNP
p6036
sbag5
(g6
g7
(lp6037
g67
atp6038
Rp6039
(dp6040
g16
g67
sbag5
(g6
g7
(lp6041
g5
(g6
g7
(lp6042
V2011
p6043
atp6044
Rp6045
(dp6046
g16
VCD
p6047
sbatp6048
Rp6049
(dp6050
g16
VNP
p6051
sbatp6052
Rp6053
(dp6054
g16
VPRN
p6055
sbatp6056
Rp6057
(dp6058
g16
VNP
p6059
sbatp6060
Rp6061
(dp6062
g16
VPP
p6063
sbatp6064
Rp6065
(dp6066
g16
VNP
p6067
sbatp6068
Rp6069
(dp6070
g16
VPP
p6071
sbatp6072
Rp6073
(dp6074
g16
VNP
p6075
sbatp6076
Rp6077
(dp6078
g16
VVP
p6079
sbatp6080
Rp6081
(dp6082
g16
g61
sbatp6083
Rp6084
(dp6085
g16
VSBAR
p6086
sbatp6087
Rp6088
(dp6089
g16
VSBAR
p6090
sbatp6091
Rp6092
(dp6093
g16
VNP
p6094
sbatp6095
Rp6096
(dp6097
g16
VVP
p6098
sbatp6099
Rp6100
(dp6101
g16
g61
sbatp6102
Rp6103
(dp6104
g16
VROOT
p6105
sbasg227
(icmyPackage
CorE
p6106
(dp6107
g230
(lp6108
(I0
I7
tp6109
a(I0
I38
tp6110
asg234
g5
(g6
g7
(lp6111
g5880
ag5888
ag5893
ag6084
atp6112
Rp6113
(dp6114
g16
g245
sbsbsg235
(icmyPackage
CorE
p6115
(dp6116
g230
(lp6117
(I0
I0
tp6118
a(I0
I5
tp6119
asg234
g5
(g6
g7
(lp6120
g5733
ag5740
ag5763
atp6121
Rp6122
(dp6123
g16
g245
sbsbsg246
g3551
sg269
(lp6124
(isxpPackage
sxpSent
p6125
(dp6126
g273
(lp6127
I21
aI22
asg275
VNegation detection is a complicated task because negation can occur at the word, phrase or clause level, and because there are subtle shades of negation between definite positive and negative polarities (Blanco and Moldovan, 2011
p6128
sg277
I13
sg262
I116
sg278
I23
sbasba(icmyPackage
CELink
p6129
(dp6130
g3
(lp6131
g6113
asg227
(icmyPackage
CorE
p6132
(dp6133
g230
(lp6134
(I0
I14
tp6135
a(I0
I31
tp6136
asg234
g6081
sbsg235
(icmyPackage
CorE
p6137
(dp6138
g230
(lp6139
(I0
I0
tp6140
a(I0
I12
tp6141
asg234
g5
(g6
g7
(lp6142
g5880
ag5888
ag5893
atp6143
Rp6144
(dp6145
g16
g245
sbsbsg246
g3551
sg269
(lp6146
g6125
asba(icmyPackage
CELink
p6147
(dp6148
g3
(lp6149
g5
(g6
g7
(lp6150
g5
(g6
g7
(lp6151
g5
(g6
g7
(lp6152
g5
(g6
g7
(lp6153
VNot
p6154
atp6155
Rp6156
(dp6157
g16
VRB
p6158
sbag5
(g6
g7
(lp6159
g5
(g6
g7
(lp6160
Vhaving
p6161
atp6162
Rp6163
(dp6164
g16
VVBG
p6165
sbag5
(g6
g7
(lp6166
g5
(g6
g7
(lp6167
Vcoreference
p6168
atp6169
Rp6170
(dp6171
g16
VJJ
p6172
sbag5
(g6
g7
(lp6173
Vresolution
p6174
atp6175
Rp6176
(dp6177
g16
VNN
p6178
sbag5
(g6
g7
(lp6179
Vleads
p6180
atp6181
Rp6182
(dp6183
g16
VNNS
p6184
sbatp6185
Rp6186
(dp6187
g16
VNP
p6188
sbag5
(g6
g7
(lp6189
g5
(g6
g7
(lp6190
Vto
p6191
atp6192
Rp6193
(dp6194
g16
VTO
p6195
sbag5
(g6
g7
(lp6196
g5
(g6
g7
(lp6197
g5
(g6
g7
(lp6198
Vvague
p6199
atp6200
Rp6201
(dp6202
g16
VJJ
p6203
sbag5
(g6
g7
(lp6204
Vquestions
p6205
atp6206
Rp6207
(dp6208
g16
VNNS
p6209
sbatp6210
Rp6211
(dp6212
g16
VNP
p6213
sbag5
(g6
g7
(lp6214
g67
atp6215
Rp6216
(dp6217
g16
g67
sbag5
(g6
g7
(lp6218
g5
(g6
g7
(lp6219
g5
(g6
g7
(lp6220
g5
(g6
g7
(lp6221
Vsome
p6222
atp6223
Rp6224
(dp6225
g16
VDT
p6226
sbatp6227
Rp6228
(dp6229
g16
VNP
p6230
sbag5
(g6
g7
(lp6231
g5
(g6
g7
(lp6232
Vof
p6233
atp6234
Rp6235
(dp6236
g16
VIN
p6237
sbag5
(g6
g7
(lp6238
g5
(g6
g7
(lp6239
Vwhich
p6240
atp6241
Rp6242
(dp6243
g16
VWDT
p6244
sbatp6245
Rp6246
(dp6247
g16
VWHNP
p6248
sbatp6249
Rp6250
(dp6251
g16
VWHPP
p6252
sbatp6253
Rp6254
(dp6255
g16
VWHNP
p6256
sbag5
(g6
g7
(lp6257
g5
(g6
g7
(lp6258
g5
(g6
g7
(lp6259
Vcan
p6260
atp6261
Rp6262
(dp6263
g16
VMD
p6264
sbag5
(g6
g7
(lp6265
g5
(g6
g7
(lp6266
Vbe
p6267
atp6268
Rp6269
(dp6270
g16
VVB
p6271
sbag5
(g6
g7
(lp6272
g5
(g6
g7
(lp6273
Vfiltered
p6274
atp6275
Rp6276
(dp6277
g16
VVBN
p6278
sbag5
(g6
g7
(lp6279
g5
(g6
g7
(lp6280
Vas
p6281
atp6282
Rp6283
(dp6284
g16
VIN
p6285
sbag5
(g6
g7
(lp6286
g5
(g6
g7
(lp6287
g5
(g6
g7
(lp6288
Vdiscussed
p6289
atp6290
Rp6291
(dp6292
g16
VVBD
p6293
sbag5
(g6
g7
(lp6294
g5
(g6
g7
(lp6295
Vpreviously
p6296
atp6297
Rp6298
(dp6299
g16
VRB
p6300
sbatp6301
Rp6302
(dp6303
g16
VADVP
p6304
sbatp6305
Rp6306
(dp6307
g16
VVP
p6308
sbatp6309
Rp6310
(dp6311
g16
g61
sbatp6312
Rp6313
(dp6314
g16
VSBAR
p6315
sbatp6316
Rp6317
(dp6318
g16
VVP
p6319
sbatp6320
Rp6321
(dp6322
g16
VVP
p6323
sbatp6324
Rp6325
(dp6326
g16
VVP
p6327
sbatp6328
Rp6329
(dp6330
g16
g61
sbatp6331
Rp6332
(dp6333
g16
VSBAR
p6334
sbatp6335
Rp6336
(dp6337
g16
VNP
p6338
sbatp6339
Rp6340
(dp6341
g16
VPP
p6342
sbatp6343
Rp6344
(dp6345
g16
VVP
p6346
sbatp6347
Rp6348
(dp6349
g16
g61
sbatp6350
Rp6351
(dp6352
g16
VFRAG
p6353
sbatp6354
Rp6355
(dp6356
g16
VROOT
p6357
sbasg227
(icmyPackage
CorE
p6358
(dp6359
g230
(lp6360
(I0
I3
tp6361
ag6361
asg234
g6176
sbsg235
(icmyPackage
CorE
p6362
(dp6363
g230
(lp6364
(I0
I6
tp6365
a(I0
I17
tp6366
asg234
g6336
sbsg246
(icmyPackage
pattern
p6367
(dp6368
g249
I0
sg250
I0
sg251
(lp6369
(lp6370
(lp6371
S'lead'
p6372
aS'leads'
p6373
aS'led'
p6374
aaS'to'
p6375
aasg257
(lp6376
I4
aI1
aI1
asg259
(lp6377
S'Multi-disciplinary study will lead to breakthrough in sciences, technologies, engineering and philosophy.'
p6378
asg262
I86
sg263
(lp6379
(lp6380
S'&V-ing/&NP@C@'
p6381
aS'(&CAN/have/has/had)'
p6382
aa(lp6383
S'&NP@R@'
p6384
aS'(&Clause@R@)'
p6385
aasbsg269
(lp6386
(isxpPackage
sxpSent
p6387
(dp6388
g273
(lp6389
I23
asg275
VNot having coreference resolution leads to vague questions, some of which can be filtered as discussed previously
p6390
sg277
I14
sg262
I127
sg278
I28
sbasba(icmyPackage
CELink
p6391
(dp6392
g3
(lp6393
g5
(g6
g7
(lp6394
g5
(g6
g7
(lp6395
g5
(g6
g7
(lp6396
g5
(g6
g7
(lp6397
VSince
p6398
atp6399
Rp6400
(dp6401
g16
VIN
p6402
sbag5
(g6
g7
(lp6403
g5
(g6
g7
(lp6404
g5
(g6
g7
(lp6405
Vcurrent
p6406
atp6407
Rp6408
(dp6409
g16
VJJ
p6410
sbag5
(g6
g7
(lp6411
Vstate-of-the-art
p6412
atp6413
Rp6414
(dp6415
g16
VJJ
p6416
sbag5
(g6
g7
(lp6417
Vsystems
p6418
atp6419
Rp6420
(dp6421
g16
VNNS
p6422
sbatp6423
Rp6424
(dp6425
g16
VNP
p6426
sbag5
(g6
g7
(lp6427
g5
(g6
g7
(lp6428
Vdo
p6429
atp6430
Rp6431
(dp6432
g16
VVBP
p6433
sbag5
(g6
g7
(lp6434
Vnot
p6435
atp6436
Rp6437
(dp6438
g16
VRB
p6439
sbag5
(g6
g7
(lp6440
g5
(g6
g7
(lp6441
Vdeal
p6442
atp6443
Rp6444
(dp6445
g16
VVB
p6446
sbag5
(g6
g7
(lp6447
g5
(g6
g7
(lp6448
Vwell
p6449
atp6450
Rp6451
(dp6452
g16
VRB
p6453
sbatp6454
Rp6455
(dp6456
g16
VADVP
p6457
sbag5
(g6
g7
(lp6458
g5
(g6
g7
(lp6459
Vwith
p6460
atp6461
Rp6462
(dp6463
g16
VIN
p6464
sbag5
(g6
g7
(lp6465
g5
(g6
g7
(lp6466
g5
(g6
g7
(lp6467
Vrelative
p6468
atp6469
Rp6470
(dp6471
g16
VJJ
p6472
sbag5
(g6
g7
(lp6473
Vand
p6474
atp6475
Rp6476
(dp6477
g16
VCC
p6478
sbag5
(g6
g7
(lp6479
Vpossessive
p6480
atp6481
Rp6482
(dp6483
g16
VJJ
p6484
sbatp6485
Rp6486
(dp6487
g16
VADJP
p6488
sbag5
(g6
g7
(lp6489
Vpronouns
p6490
atp6491
Rp6492
(dp6493
g16
VNNS
p6494
sbatp6495
Rp6496
(dp6497
g16
VNP
p6498
sbatp6499
Rp6500
(dp6501
g16
VPP
p6502
sbatp6503
Rp6504
(dp6505
g16
VVP
p6506
sbatp6507
Rp6508
(dp6509
g16
VVP
p6510
sbatp6511
Rp6512
(dp6513
g16
g61
sbatp6514
Rp6515
(dp6516
g16
VSBAR
p6517
sbag5
(g6
g7
(lp6518
g67
atp6519
Rp6520
(dp6521
g16
g67
sbag5
(g6
g7
(lp6522
g5
(g6
g7
(lp6523
Vthis
p6524
atp6525
Rp6526
(dp6527
g16
VDT
p6528
sbatp6529
Rp6530
(dp6531
g16
VNP
p6532
sbag5
(g6
g7
(lp6533
g5
(g6
g7
(lp6534
Vwill
p6535
atp6536
Rp6537
(dp6538
g16
VMD
p6539
sbag5
(g6
g7
(lp6540
g5
(g6
g7
(lp6541
Vcontinue
p6542
atp6543
Rp6544
(dp6545
g16
VVB
p6546
sbag5
(g6
g7
(lp6547
g5
(g6
g7
(lp6548
g5
(g6
g7
(lp6549
Vto
p6550
atp6551
Rp6552
(dp6553
g16
VTO
p6554
sbag5
(g6
g7
(lp6555
g5
(g6
g7
(lp6556
Vbe
p6557
atp6558
Rp6559
(dp6560
g16
VVB
p6561
sbag5
(g6
g7
(lp6562
g5
(g6
g7
(lp6563
g5
(g6
g7
(lp6564
g395
atp6565
Rp6566
(dp6567
g16
VDT
p6568
sbag5
(g6
g7
(lp6569
Vlimitation
p6570
atp6571
Rp6572
(dp6573
g16
VNN
p6574
sbatp6575
Rp6576
(dp6577
g16
VNP
p6578
sbag5
(g6
g7
(lp6579
g5
(g6
g7
(lp6580
Vof
p6581
atp6582
Rp6583
(dp6584
g16
VIN
p6585
sbag5
(g6
g7
(lp6586
g5
(g6
g7
(lp6587
g5
(g6
g7
(lp6588
Vnatural
p6589
atp6590
Rp6591
(dp6592
g16
VJJ
p6593
sbag5
(g6
g7
(lp6594
Vlanguage
p6595
atp6596
Rp6597
(dp6598
g16
VNN
p6599
sbag5
(g6
g7
(lp6600
Vgeneration
p6601
atp6602
Rp6603
(dp6604
g16
VNN
p6605
sbag5
(g6
g7
(lp6606
Vsystems
p6607
atp6608
Rp6609
(dp6610
g16
VNNS
p6611
sbatp6612
Rp6613
(dp6614
g16
VNP
p6615
sbag5
(g6
g7
(lp6616
g5
(g6
g7
(lp6617
Vfor
p6618
atp6619
Rp6620
(dp6621
g16
VIN
p6622
sbag5
(g6
g7
(lp6623
g5
(g6
g7
(lp6624
Vthe
p6625
atp6626
Rp6627
(dp6628
g16
VDT
p6629
sbag5
(g6
g7
(lp6630
Vtime
p6631
atp6632
Rp6633
(dp6634
g16
VNN
p6635
sbag5
(g6
g7
(lp6636
Vbeing
p6637
atp6638
Rp6639
(dp6640
g16
VVBG
p6641
sbatp6642
Rp6643
(dp6644
g16
VNP
p6645
sbatp6646
Rp6647
(dp6648
g16
VPP
p6649
sbatp6650
Rp6651
(dp6652
g16
VNP
p6653
sbatp6654
Rp6655
(dp6656
g16
VPP
p6657
sbatp6658
Rp6659
(dp6660
g16
VNP
p6661
sbatp6662
Rp6663
(dp6664
g16
VVP
p6665
sbatp6666
Rp6667
(dp6668
g16
VVP
p6669
sbatp6670
Rp6671
(dp6672
g16
g61
sbatp6673
Rp6674
(dp6675
g16
VVP
p6676
sbatp6677
Rp6678
(dp6679
g16
VVP
p6680
sbatp6681
Rp6682
(dp6683
g16
g61
sbatp6684
Rp6685
(dp6686
g16
VROOT
p6687
sbasg227
(icmyPackage
CorE
p6688
(dp6689
g230
(lp6690
(I0
I1
tp6691
a(I0
I12
tp6692
asg234
g6512
sbsg235
(icmyPackage
CorE
p6693
(dp6694
g230
(lp6695
(I0
I14
tp6696
a(I0
I19
tp6697
asg234
g5
(g6
g7
(lp6698
g6530
ag6537
ag6544
ag6552
ag6559
ag6566
atp6699
Rp6700
(dp6701
g16
g245
sbsbsg246
(icmyPackage
pattern
p6702
(dp6703
g249
I15
sg250
I0
sg251
(lp6704
(lp6705
S'since'
p6706
aa(lp6707
S','
p6708
aasg257
(lp6709
I3
aI1
aI1
asg259
(lp6710
S'But, since the herpes virus does not always show its symptoms, prevention is not fool proof.'
p6711
asg262
I78
sg263
(lp6712
(lp6713
a(lp6714
S'&C@NCTime@'
p6715
aa(lp6716
S'&R@NCTime@'
p6717
aasbsg269
(lp6718
(isxpPackage
sxpSent
p6719
(dp6720
g273
(lp6721
I24
asg275
VSince current state-of-the-art systems do not deal well with relative and possessive pronouns, this will continue to be a limitation of natural language generation systems for the time being
p6722
sg277
I14
sg262
I135
sg278
I31
sbasba(icmyPackage
CELink
p6723
(dp6724
g3
(lp6725
g5
(g6
g7
(lp6726
g5
(g6
g7
(lp6727
g5
(g6
g7
(lp6728
g5
(g6
g7
(lp6729
VSince
p6730
atp6731
Rp6732
(dp6733
g16
VIN
p6734
sbag5
(g6
g7
(lp6735
g5
(g6
g7
(lp6736
g5
(g6
g7
(lp6737
Vour
p6738
atp6739
Rp6740
(dp6741
g16
VPRP$
p6742
sbag5
(g6
g7
(lp6743
Vfocus
p6744
atp6745
Rp6746
(dp6747
g16
VNN
p6748
sbatp6749
Rp6750
(dp6751
g16
VNP
p6752
sbag5
(g6
g7
(lp6753
g5
(g6
g7
(lp6754
Vis
p6755
atp6756
Rp6757
(dp6758
g16
VVBZ
p6759
sbag5
(g6
g7
(lp6760
g5
(g6
g7
(lp6761
Von
p6762
atp6763
Rp6764
(dp6765
g16
VIN
p6766
sbag5
(g6
g7
(lp6767
g5
(g6
g7
(lp6768
Vexpository
p6769
atp6770
Rp6771
(dp6772
g16
VJJ
p6773
sbag5
(g6
g7
(lp6774
Vtext
p6775
atp6776
Rp6777
(dp6778
g16
VNN
p6779
sbatp6780
Rp6781
(dp6782
g16
VNP
p6783
sbatp6784
Rp6785
(dp6786
g16
VPP
p6787
sbatp6788
Rp6789
(dp6790
g16
VVP
p6791
sbatp6792
Rp6793
(dp6794
g16
g61
sbatp6795
Rp6796
(dp6797
g16
VSBAR
p6798
sbag5
(g6
g7
(lp6799
g67
atp6800
Rp6801
(dp6802
g16
g67
sbag5
(g6
g7
(lp6803
g5
(g6
g7
(lp6804
Vsystem
p6805
atp6806
Rp6807
(dp6808
g16
VNN
p6809
sbag5
(g6
g7
(lp6810
Vpatterns
p6811
atp6812
Rp6813
(dp6814
g16
VNNS
p6815
sbatp6816
Rp6817
(dp6818
g16
VNP
p6819
sbag5
(g6
g7
(lp6820
g5
(g6
g7
(lp6821
Vdeal
p6822
atp6823
Rp6824
(dp6825
g16
VVBP
p6826
sbag5
(g6
g7
(lp6827
g5
(g6
g7
(lp6828
Vprimarily
p6829
atp6830
Rp6831
(dp6832
g16
VRB
p6833
sbatp6834
Rp6835
(dp6836
g16
VADVP
p6837
sbag5
(g6
g7
(lp6838
g5
(g6
g7
(lp6839
Vwith
p6840
atp6841
Rp6842
(dp6843
g16
VIN
p6844
sbag5
(g6
g7
(lp6845
g5
(g6
g7
(lp6846
Vthe
p6847
atp6848
Rp6849
(dp6850
g16
VDT
p6851
sbag5
(g6
g7
(lp6852
g5
(g6
g7
(lp6853
Vpresent
p6854
atp6855
Rp6856
(dp6857
g16
VJJ
p6858
sbag5
(g6
g7
(lp6859
Vand
p6860
atp6861
Rp6862
(dp6863
g16
VCC
p6864
sbag5
(g6
g7
(lp6865
Vsimple
p6866
atp6867
Rp6868
(dp6869
g16
VJJ
p6870
sbatp6871
Rp6872
(dp6873
g16
VADJP
p6874
sbag5
(g6
g7
(lp6875
Vpast
p6876
atp6877
Rp6878
(dp6879
g16
VJJ
p6880
sbag5
(g6
g7
(lp6881
Vtenses
p6882
atp6883
Rp6884
(dp6885
g16
VNNS
p6886
sbatp6887
Rp6888
(dp6889
g16
VNP
p6890
sbatp6891
Rp6892
(dp6893
g16
VPP
p6894
sbatp6895
Rp6896
(dp6897
g16
VVP
p6898
sbatp6899
Rp6900
(dp6901
g16
g61
sbatp6902
Rp6903
(dp6904
g16
VROOT
p6905
sbasg227
(icmyPackage
CorE
p6906
(dp6907
g230
(lp6908
(I0
I1
tp6909
a(I0
I6
tp6910
asg234
g6793
sbsg235
(icmyPackage
CorE
p6911
(dp6912
g230
(lp6913
(I0
I8
tp6914
a(I0
I18
tp6915
asg234
g5
(g6
g7
(lp6916
g6817
ag6896
atp6917
Rp6918
(dp6919
g16
g245
sbsbsg246
g6702
sg269
(lp6920
(isxpPackage
sxpSent
p6921
(dp6922
g273
(lp6923
I25
asg275
VSince our focus is on expository text, system patterns deal primarily with the present and simple past tenses
p6924
sg277
I15
sg262
I136
sg278
I32
sbasba(icmyPackage
CELink
p6925
(dp6926
g3
(lp6927
g5
(g6
g7
(lp6928
g5
(g6
g7
(lp6929
g5
(g6
g7
(lp6930
g5
(g6
g7
(lp6931
VSome
p6932
atp6933
Rp6934
(dp6935
g16
VDT
p6936
sbag5
(g6
g7
(lp6937
Vpatterns
p6938
atp6939
Rp6940
(dp6941
g16
VNNS
p6942
sbatp6943
Rp6944
(dp6945
g16
VNP
p6946
sbag5
(g6
g7
(lp6947
g5
(g6
g7
(lp6948
g5
(g6
g7
(lp6949
Vlook
p6950
atp6951
Rp6952
(dp6953
g16
VVBP
p6954
sbag5
(g6
g7
(lp6955
g5
(g6
g7
(lp6956
Vfor
p6957
atp6958
Rp6959
(dp6960
g16
VIN
p6961
sbag5
(g6
g7
(lp6962
g5
(g6
g7
(lp6963
Vmodals
p6964
atp6965
Rp6966
(dp6967
g16
VNNS
p6968
sbatp6969
Rp6970
(dp6971
g16
VNP
p6972
sbatp6973
Rp6974
(dp6975
g16
VPP
p6976
sbatp6977
Rp6978
(dp6979
g16
VVP
p6980
sbag5
(g6
g7
(lp6981
Vand
p6982
atp6983
Rp6984
(dp6985
g16
VCC
p6986
sbag5
(g6
g7
(lp6987
g5
(g6
g7
(lp6988
g5
(g6
g7
(lp6989
Vso
p6990
atp6991
Rp6992
(dp6993
g16
VRB
p6994
sbatp6995
Rp6996
(dp6997
g16
VADVP
p6998
sbag5
(g6
g7
(lp6999
Vcan
p7000
atp7001
Rp7002
(dp7003
g16
VMD
p7004
sbag5
(g6
g7
(lp7005
g5
(g6
g7
(lp7006
Vhandle
p7007
atp7008
Rp7009
(dp7010
g16
VVB
p7011
sbag5
(g6
g7
(lp7012
g5
(g6
g7
(lp7013
Vfuture
p7014
atp7015
Rp7016
(dp7017
g16
VJJ
p7018
sbag5
(g6
g7
(lp7019
Vtense
p7020
atp7021
Rp7022
(dp7023
g16
VNNS
p7024
sbatp7025
Rp7026
(dp7027
g16
VNP
p7028
sbatp7029
Rp7030
(dp7031
g16
VVP
p7032
sbatp7033
Rp7034
(dp7035
g16
VVP
p7036
sbatp7037
Rp7038
(dp7039
g16
VVP
p7040
sbatp7041
Rp7042
(dp7043
g16
g61
sbatp7044
Rp7045
(dp7046
g16
VROOT
p7047
sbasg227
(icmyPackage
CorE
p7048
(dp7049
g230
(lp7050
(I0
I0
tp7051
a(I0
I4
tp7052
asg234
g5
(g6
g7
(lp7053
g6944
ag6978
atp7054
Rp7055
(dp7056
g16
g245
sbsbsg235
(icmyPackage
CorE
p7057
(dp7058
g230
(lp7059
(I0
I7
tp7060
a(I0
I10
tp7061
asg234
g5
(g6
g7
(lp7062
g7002
ag7030
atp7063
Rp7064
(dp7065
g16
g245
sbsbsg246
(icmyPackage
pattern
p7066
(dp7067
g249
I265
sg250
I1
sg251
(lp7068
(lp7069
S'so'
p7070
aasg257
(lp7071
I1
aI1
aI1
asg259
(lp7072
S'It was not long before he saw me looking at him, and so he began to move.'
p7073
asg262
I0
sg263
(lp7074
(lp7075
S'&C'
p7076
aS'(,/;/./--)'
p7077
aS'(&AND)'
p7078
aa(lp7079
S'(-far)'
p7080
aS'(,)'
p7081
aS'&R'
p7082
aasbsg269
(lp7083
(isxpPackage
sxpSent
p7084
(dp7085
g273
(lp7086
I26
asg275
VSome patterns look for modals and so can handle future tense
p7087
sg277
I15
sg262
I137
sg278
I32
sbasba(icmyPackage
CELink
p7088
(dp7089
g3
(lp7090
g5
(g6
g7
(lp7091
g5
(g6
g7
(lp7092
g5
(g6
g7
(lp7093
g5
(g6
g7
(lp7094
VLight
p7095
atp7096
Rp7097
(dp7098
g16
VJJ
p7099
sbag5
(g6
g7
(lp7100
Vverbs
p7101
atp7102
Rp7103
(dp7104
g16
VNNS
p7105
sbatp7106
Rp7107
(dp7108
g16
VNP
p7109
sbag5
(g6
g7
(lp7110
g5
(g6
g7
(lp7111
Vpose
p7112
atp7113
Rp7114
(dp7115
g16
VVBP
p7116
sbag5
(g6
g7
(lp7117
g5
(g6
g7
(lp7118
Vcomplications
p7119
atp7120
Rp7121
(dp7122
g16
VNNS
p7123
sbatp7124
Rp7125
(dp7126
g16
VNP
p7127
sbag5
(g6
g7
(lp7128
g5
(g6
g7
(lp7129
Vin
p7130
atp7131
Rp7132
(dp7133
g16
VIN
p7134
sbag5
(g6
g7
(lp7135
g5
(g6
g7
(lp7136
VNLG
p7137
atp7138
Rp7139
(dp7140
g16
VNNP
p7141
sbatp7142
Rp7143
(dp7144
g16
VNP
p7145
sbatp7146
Rp7147
(dp7148
g16
VPP
p7149
sbag5
(g6
g7
(lp7150
g5
(g6
g7
(lp7151
Vbecause
p7152
atp7153
Rp7154
(dp7155
g16
VIN
p7156
sbag5
(g6
g7
(lp7157
g5
(g6
g7
(lp7158
g5
(g6
g7
(lp7159
Vthey
p7160
atp7161
Rp7162
(dp7163
g16
VPRP
p7164
sbatp7165
Rp7166
(dp7167
g16
VNP
p7168
sbag5
(g6
g7
(lp7169
g5
(g6
g7
(lp7170
Vare
p7171
atp7172
Rp7173
(dp7174
g16
VVBP
p7175
sbag5
(g6
g7
(lp7176
g5
(g6
g7
(lp7177
g5
(g6
g7
(lp7178
Vhighly
p7179
atp7180
Rp7181
(dp7182
g16
VRB
p7183
sbag5
(g6
g7
(lp7184
Vidiosyncratic
p7185
atp7186
Rp7187
(dp7188
g16
VJJ
p7189
sbag5
(g6
g7
(lp7190
Vand
p7191
atp7192
Rp7193
(dp7194
g16
VCC
p7195
sbag5
(g6
g7
(lp7196
Vsubject
p7197
atp7198
Rp7199
(dp7200
g16
VJJ
p7201
sbatp7202
Rp7203
(dp7204
g16
VADJP
p7205
sbag5
(g6
g7
(lp7206
g5
(g6
g7
(lp7207
Vto
p7208
atp7209
Rp7210
(dp7211
g16
VTO
p7212
sbag5
(g6
g7
(lp7213
g5
(g6
g7
(lp7214
Vsyntactic
p7215
atp7216
Rp7217
(dp7218
g16
VJJ
p7219
sbag5
(g6
g7
(lp7220
Vvariability
p7221
atp7222
Rp7223
(dp7224
g16
VJJ
p7225
sbag5
(g6
g7
(lp7226
V-LRB-
p7227
atp7228
Rp7229
(dp7230
g16
V-LRB-
p7231
sbag5
(g6
g7
(lp7232
VSag
p7233
atp7234
Rp7235
(dp7236
g16
VNNP
p7237
sbag5
(g6
g7
(lp7238
Vet
p7239
atp7240
Rp7241
(dp7242
g16
VFW
p7243
sbag5
(g6
g7
(lp7244
Val.
p7245
atp7246
Rp7247
(dp7248
g16
VNN
p7249
sbatp7250
Rp7251
(dp7252
g16
VNP
p7253
sbatp7254
Rp7255
(dp7256
g16
VPP
p7257
sbatp7258
Rp7259
(dp7260
g16
VADJP
p7261
sbag5
(g6
g7
(lp7262
g67
atp7263
Rp7264
(dp7265
g16
g67
sbag5
(g6
g7
(lp7266
g5
(g6
g7
(lp7267
V2002
p7268
atp7269
Rp7270
(dp7271
g16
VCD
p7272
sbatp7273
Rp7274
(dp7275
g16
VNP
p7276
sbatp7277
Rp7278
(dp7279
g16
VVP
p7280
sbatp7281
Rp7282
(dp7283
g16
g61
sbatp7284
Rp7285
(dp7286
g16
VSBAR
p7287
sbatp7288
Rp7289
(dp7290
g16
VVP
p7291
sbatp7292
Rp7293
(dp7294
g16
g61
sbatp7295
Rp7296
(dp7297
g16
VROOT
p7298
sbasg227
(icmyPackage
CorE
p7299
(dp7300
g230
(lp7301
(I0
I7
tp7302
a(I0
I21
tp7303
asg234
g7282
sbsg235
(icmyPackage
CorE
p7304
(dp7305
g230
(lp7306
(I0
I0
tp7307
a(I0
I5
tp7308
asg234
g5
(g6
g7
(lp7309
g7107
ag7114
ag7125
ag7147
atp7310
Rp7311
(dp7312
g16
g245
sbsbsg246
g3551
sg269
(lp7313
(isxpPackage
sxpSent
p7314
(dp7315
g273
(lp7316
I27
asg275
VLight verbs pose complications in NLG because they are highly idiosyncratic and subject to syntactic variability (Sag et al., 2002
p7317
sg277
I15
sg262
I142
sg278
I35
sbasba(icmyPackage
CELink
p7318
(dp7319
g3
(lp7320
g5
(g6
g7
(lp7321
g5
(g6
g7
(lp7322
g5
(g6
g7
(lp7323
g5
(g6
g7
(lp7324
g5
(g6
g7
(lp7325
VThe
p7326
atp7327
Rp7328
(dp7329
g16
VDT
p7330
sbag5
(g6
g7
(lp7331
Vcatenative
p7332
atp7333
Rp7334
(dp7335
g16
VJJ
p7336
sbag5
(g6
g7
(lp7337
Vconstruction
p7338
atp7339
Rp7340
(dp7341
g16
VNN
p7342
sbatp7343
Rp7344
(dp7345
g16
VNP
p7346
sbag5
(g6
g7
(lp7347
g5
(g6
g7
(lp7348
Valso
p7349
atp7350
Rp7351
(dp7352
g16
VRB
p7353
sbatp7354
Rp7355
(dp7356
g16
VADVP
p7357
sbatp7358
Rp7359
(dp7360
g16
VNP
p7361
sbag5
(g6
g7
(lp7362
g5
(g6
g7
(lp7363
g5
(g6
g7
(lp7364
Vpotentially
p7365
atp7366
Rp7367
(dp7368
g16
VRB
p7369
sbatp7370
Rp7371
(dp7372
g16
VADVP
p7373
sbag5
(g6
g7
(lp7374
Vadds
p7375
atp7376
Rp7377
(dp7378
g16
VVBZ
p7379
sbag5
(g6
g7
(lp7380
g5
(g6
g7
(lp7381
g5
(g6
g7
(lp7382
Vcomplexity
p7383
atp7384
Rp7385
(dp7386
g16
VNN
p7387
sbatp7388
Rp7389
(dp7390
g16
VNP
p7391
sbag5
(g6
g7
(lp7392
g5
(g6
g7
(lp7393
V-LRB-
p7394
atp7395
Rp7396
(dp7397
g16
V-LRB-
p7398
sbag5
(g6
g7
(lp7399
g5
(g6
g7
(lp7400
VHuddleston
p7401
atp7402
Rp7403
(dp7404
g16
VNNP
p7405
sbag5
(g6
g7
(lp7406
Vand
p7407
atp7408
Rp7409
(dp7410
g16
VCC
p7411
sbag5
(g6
g7
(lp7412
VPullum
p7413
atp7414
Rp7415
(dp7416
g16
VNNP
p7417
sbatp7418
Rp7419
(dp7420
g16
VNP
p7421
sbag5
(g6
g7
(lp7422
g67
atp7423
Rp7424
(dp7425
g16
g67
sbag5
(g6
g7
(lp7426
g5
(g6
g7
(lp7427
V2005
p7428
atp7429
Rp7430
(dp7431
g16
VCD
p7432
sbatp7433
Rp7434
(dp7435
g16
VNP
p7436
sbag5
(g6
g7
(lp7437
V-RRB-
p7438
atp7439
Rp7440
(dp7441
g16
V-RRB-
p7442
sbatp7443
Rp7444
(dp7445
g16
VPRN
p7446
sbatp7447
Rp7448
(dp7449
g16
VNP
p7450
sbag5
(g6
g7
(lp7451
g67
atp7452
Rp7453
(dp7454
g16
g67
sbag5
(g6
g7
(lp7455
g5
(g6
g7
(lp7456
Vas
p7457
atp7458
Rp7459
(dp7460
g16
VIN
p7461
sbag5
(g6
g7
(lp7462
g5
(g6
g7
(lp7463
g5
(g6
g7
(lp7464
Vshown
p7465
atp7466
Rp7467
(dp7468
g16
VVBN
p7469
sbag5
(g6
g7
(lp7470
g5
(g6
g7
(lp7471
Vin
p7472
atp7473
Rp7474
(dp7475
g16
VIN
p7476
sbag5
(g6
g7
(lp7477
g5
(g6
g7
(lp7478
Vthis
p7479
atp7480
Rp7481
(dp7482
g16
VDT
p7483
sbag5
(g6
g7
(lp7484
Vexample
p7485
atp7486
Rp7487
(dp7488
g16
VNN
p7489
sbatp7490
Rp7491
(dp7492
g16
VNP
p7493
sbatp7494
Rp7495
(dp7496
g16
VPP
p7497
sbatp7498
Rp7499
(dp7500
g16
VVP
p7501
sbatp7502
Rp7503
(dp7504
g16
g61
sbatp7505
Rp7506
(dp7507
g16
VSBAR
p7508
sbatp7509
Rp7510
(dp7511
g16
VVP
p7512
sbatp7513
Rp7514
(dp7515
g16
g61
sbatp7516
Rp7517
(dp7518
g16
VROOT
p7519
sbag5
(g6
g7
(lp7520
g5
(g6
g7
(lp7521
g5
(g6
g7
(lp7522
g5
(g6
g7
(lp7523
VAs
p7524
atp7525
Rp7526
(dp7527
g16
VIN
p7528
sbag5
(g6
g7
(lp7529
g5
(g6
g7
(lp7530
g5
(g6
g7
(lp7531
Vthe
p7532
atp7533
Rp7534
(dp7535
g16
VDT
p7536
sbag5
(g6
g7
(lp7537
Vuniverse
p7538
atp7539
Rp7540
(dp7541
g16
VNN
p7542
sbatp7543
Rp7544
(dp7545
g16
VNP
p7546
sbag5
(g6
g7
(lp7547
g5
(g6
g7
(lp7548
Vexpanded
p7549
atp7550
Rp7551
(dp7552
g16
VVBD
p7553
sbatp7554
Rp7555
(dp7556
g16
VVP
p7557
sbatp7558
Rp7559
(dp7560
g16
g61
sbatp7561
Rp7562
(dp7563
g16
VSBAR
p7564
sbag5
(g6
g7
(lp7565
g67
atp7566
Rp7567
(dp7568
g16
g67
sbag5
(g6
g7
(lp7569
g5
(g6
g7
(lp7570
Vit
p7571
atp7572
Rp7573
(dp7574
g16
VPRP
p7575
sbatp7576
Rp7577
(dp7578
g16
VNP
p7579
sbag5
(g6
g7
(lp7580
g5
(g6
g7
(lp7581
g5
(g6
g7
(lp7582
Vbecame
p7583
atp7584
Rp7585
(dp7586
g16
VVBD
p7587
sbag5
(g6
g7
(lp7588
g5
(g6
g7
(lp7589
g5
(g6
g7
(lp7590
Vless
p7591
atp7592
Rp7593
(dp7594
g16
VRBR
p7595
sbag5
(g6
g7
(lp7596
Vdense
p7597
atp7598
Rp7599
(dp7600
g16
VJJ
p7601
sbatp7602
Rp7603
(dp7604
g16
VADJP
p7605
sbatp7606
Rp7607
(dp7608
g16
g61
sbatp7609
Rp7610
(dp7611
g16
VVP
p7612
sbag5
(g6
g7
(lp7613
Vand
p7614
atp7615
Rp7616
(dp7617
g16
VCC
p7618
sbag5
(g6
g7
(lp7619
g5
(g6
g7
(lp7620
Vbegan
p7621
atp7622
Rp7623
(dp7624
g16
VVBD
p7625
sbag5
(g6
g7
(lp7626
g5
(g6
g7
(lp7627
g5
(g6
g7
(lp7628
Vto
p7629
atp7630
Rp7631
(dp7632
g16
VTO
p7633
sbag5
(g6
g7
(lp7634
g5
(g6
g7
(lp7635
Vcool
p7636
atp7637
Rp7638
(dp7639
g16
VVB
p7640
sbatp7641
Rp7642
(dp7643
g16
VVP
p7644
sbatp7645
Rp7646
(dp7647
g16
VVP
p7648
sbatp7649
Rp7650
(dp7651
g16
g61
sbatp7652
Rp7653
(dp7654
g16
VVP
p7655
sbatp7656
Rp7657
(dp7658
g16
VVP
p7659
sbatp7660
Rp7661
(dp7662
g16
g61
sbatp7663
Rp7664
(dp7665
g16
VROOT
p7666
sbasg227
(icmyPackage
CorE
p7667
(dp7668
g230
(lp7669
(I1
I1
tp7670
a(I1
I12
tp7671
asg234
g5
(g6
g7
(lp7672
g7559
ag7567
ag7577
ag7657
atp7673
Rp7674
(dp7675
g16
g245
sbsbsg235
(icmyPackage
CorE
p7676
(dp7677
g230
(lp7678
(I0
I0
tp7679
a(I0
I19
tp7680
asg234
g7517
sbsg246
g1717
sg269
(lp7681
(isxpPackage
sxpSent
p7682
(dp7683
g273
(lp7684
I28
asg275
VThe catenative construction also potentially adds complexity (Huddleston and Pullum, 2005), as shown in this example
p7685
sg277
I15
sg262
I146
sg278
I35
sba(isxpPackage
sxpSent
p7686
(dp7687
g273
(lp7688
I28
asg275
VAs the universe expanded, it became less dense and began to cool
p7689
sg277
I15
sg262
I147
sg278
I35
sbasba(icmyPackage
CELink
p7690
(dp7691
g3
(lp7692
g5
(g6
g7
(lp7693
g5
(g6
g7
(lp7694
g5
(g6
g7
(lp7695
g5
(g6
g7
(lp7696
VCare
p7697
atp7698
Rp7699
(dp7700
g16
VNNP
p7701
sbatp7702
Rp7703
(dp7704
g16
VNP
p7705
sbag5
(g6
g7
(lp7706
g5
(g6
g7
(lp7707
Vmust
p7708
atp7709
Rp7710
(dp7711
g16
VMD
p7712
sbag5
(g6
g7
(lp7713
g5
(g6
g7
(lp7714
Vbe
p7715
atp7716
Rp7717
(dp7718
g16
VVB
p7719
sbag5
(g6
g7
(lp7720
g5
(g6
g7
(lp7721
Vtaken
p7722
atp7723
Rp7724
(dp7725
g16
VVBN
p7726
sbag5
(g6
g7
(lp7727
g5
(g6
g7
(lp7728
Vnot
p7729
atp7730
Rp7731
(dp7732
g16
VRB
p7733
sbag5
(g6
g7
(lp7734
g5
(g6
g7
(lp7735
Vto
p7736
atp7737
Rp7738
(dp7739
g16
VTO
p7740
sbag5
(g6
g7
(lp7741
g5
(g6
g7
(lp7742
Vgenerate
p7743
atp7744
Rp7745
(dp7746
g16
VVB
p7747
sbag5
(g6
g7
(lp7748
g5
(g6
g7
(lp7749
Vquestions
p7750
atp7751
Rp7752
(dp7753
g16
VNNS
p7754
sbatp7755
Rp7756
(dp7757
g16
VNP
p7758
sbag5
(g6
g7
(lp7759
g5
(g6
g7
(lp7760
Vbased
p7761
atp7762
Rp7763
(dp7764
g16
VVBN
p7765
sbag5
(g6
g7
(lp7766
g5
(g6
g7
(lp7767
Von
p7768
atp7769
Rp7770
(dp7771
g16
VIN
p7772
sbag5
(g6
g7
(lp7773
g5
(g6
g7
(lp7774
g5
(g6
g7
(lp7775
Vone
p7776
atp7777
Rp7778
(dp7779
g16
VCD
p7780
sbag5
(g6
g7
(lp7781
Vpredicate
p7782
atp7783
Rp7784
(dp7785
g16
VNN
p7786
sbatp7787
Rp7788
(dp7789
g16
VNP
p7790
sbag5
(g6
g7
(lp7791
g5
(g6
g7
(lp7792
Vin
p7793
atp7794
Rp7795
(dp7796
g16
VIN
p7797
sbag5
(g6
g7
(lp7798
g5
(g6
g7
(lp7799
Vthe
p7800
atp7801
Rp7802
(dp7803
g16
VDT
p7804
sbag5
(g6
g7
(lp7805
Vcatenative
p7806
atp7807
Rp7808
(dp7809
g16
VJJ
p7810
sbag5
(g6
g7
(lp7811
Vconstruction
p7812
atp7813
Rp7814
(dp7815
g16
VNN
p7816
sbatp7817
Rp7818
(dp7819
g16
VNP
p7820
sbatp7821
Rp7822
(dp7823
g16
VPP
p7824
sbatp7825
Rp7826
(dp7827
g16
VNP
p7828
sbatp7829
Rp7830
(dp7831
g16
VPP
p7832
sbatp7833
Rp7834
(dp7835
g16
VPP
p7836
sbatp7837
Rp7838
(dp7839
g16
VVP
p7840
sbatp7841
Rp7842
(dp7843
g16
VVP
p7844
sbatp7845
Rp7846
(dp7847
g16
g61
sbatp7848
Rp7849
(dp7850
g16
VVP
p7851
sbatp7852
Rp7853
(dp7854
g16
VVP
p7855
sbatp7856
Rp7857
(dp7858
g16
VVP
p7859
sbatp7860
Rp7861
(dp7862
g16
g61
sbatp7863
Rp7864
(dp7865
g16
VROOT
p7866
sbasg227
(icmyPackage
CorE
p7867
(dp7868
g230
(lp7869
(I0
I10
tp7870
a(I0
I15
tp7871
asg234
g7826
sbsg235
(icmyPackage
CorE
p7872
(dp7873
g230
(lp7874
(I0
I0
tp7875
a(I0
I7
tp7876
asg234
g5
(g6
g7
(lp7877
g7703
ag7710
ag7717
ag7724
ag7731
ag7738
ag7745
ag7756
atp7878
Rp7879
(dp7880
g16
g245
sbsbsg246
g3754
sg269
(lp7881
(isxpPackage
sxpSent
p7882
(dp7883
g273
(lp7884
I29
asg275
VCare must be taken not to generate questions based on one predicate in the catenative construction
p7885
sg277
I15
sg262
I148
sg278
I35
sbasba(icmyPackage
CELink
p7886
(dp7887
g3
(lp7888
g5
(g6
g7
(lp7889
g5
(g6
g7
(lp7890
g5
(g6
g7
(lp7891
g5
(g6
g7
(lp7892
g5
(g6
g7
(lp7893
g5
(g6
g7
(lp7894
VPlant
p7895
atp7896
Rp7897
(dp7898
g16
VNN
p7899
sbag5
(g6
g7
(lp7900
Vroots
p7901
atp7902
Rp7903
(dp7904
g16
VNNS
p7905
sbatp7906
Rp7907
(dp7908
g16
VNP
p7909
sbag5
(g6
g7
(lp7910
Vand
p7911
atp7912
Rp7913
(dp7914
g16
VCC
p7915
sbag5
(g6
g7
(lp7916
g5
(g6
g7
(lp7917
Vbacterial
p7918
atp7919
Rp7920
(dp7921
g16
VJJ
p7922
sbag5
(g6
g7
(lp7923
Vdecay
p7924
atp7925
Rp7926
(dp7927
g16
VNN
p7928
sbatp7929
Rp7930
(dp7931
g16
VNP
p7932
sbatp7933
Rp7934
(dp7935
g16
VNP
p7936
sbag5
(g6
g7
(lp7937
g5
(g6
g7
(lp7938
Vuse
p7939
atp7940
Rp7941
(dp7942
g16
VVBP
p7943
sbag5
(g6
g7
(lp7944
g5
(g6
g7
(lp7945
Vcarbon
p7946
atp7947
Rp7948
(dp7949
g16
VNN
p7950
sbag5
(g6
g7
(lp7951
Vdioxide
p7952
atp7953
Rp7954
(dp7955
g16
VNN
p7956
sbatp7957
Rp7958
(dp7959
g16
VNP
p7960
sbag5
(g6
g7
(lp7961
g5
(g6
g7
(lp7962
Vin
p7963
atp7964
Rp7965
(dp7966
g16
VIN
p7967
sbag5
(g6
g7
(lp7968
g5
(g6
g7
(lp7969
g5
(g6
g7
(lp7970
Vthe
p7971
atp7972
Rp7973
(dp7974
g16
VDT
p7975
sbag5
(g6
g7
(lp7976
Vprocess
p7977
atp7978
Rp7979
(dp7980
g16
VNN
p7981
sbatp7982
Rp7983
(dp7984
g16
VNP
p7985
sbag5
(g6
g7
(lp7986
g5
(g6
g7
(lp7987
Vof
p7988
atp7989
Rp7990
(dp7991
g16
VIN
p7992
sbag5
(g6
g7
(lp7993
g5
(g6
g7
(lp7994
Vrespiration
p7995
atp7996
Rp7997
(dp7998
g16
VNN
p7999
sbatp8000
Rp8001
(dp8002
g16
VNP
p8003
sbatp8004
Rp8005
(dp8006
g16
VPP
p8007
sbatp8008
Rp8009
(dp8010
g16
VNP
p8011
sbatp8012
Rp8013
(dp8014
g16
VPP
p8015
sbatp8016
Rp8017
(dp8018
g16
VVP
p8019
sbatp8020
Rp8021
(dp8022
g16
g61
sbag5
(g6
g7
(lp8023
g67
atp8024
Rp8025
(dp8026
g16
g67
sbag5
(g6
g7
(lp8027
g5
(g6
g7
(lp8028
g5
(g6
g7
(lp8029
Vthe
p8030
atp8031
Rp8032
(dp8033
g16
VDT
p8034
sbag5
(g6
g7
(lp8035
Vword
p8036
atp8037
Rp8038
(dp8039
g16
VNN
p8040
sbag5
(g6
g7
(lp8041
Vuse
p8042
atp8043
Rp8044
(dp8045
g16
VNN
p8046
sbatp8047
Rp8048
(dp8049
g16
VNP
p8050
sbag5
(g6
g7
(lp8051
g5
(g6
g7
(lp8052
Vwas
p8053
atp8054
Rp8055
(dp8056
g16
VVBD
p8057
sbag5
(g6
g7
(lp8058
g5
(g6
g7
(lp8059
Vclassified
p8060
atp8061
Rp8062
(dp8063
g16
VVBN
p8064
sbag5
(g6
g7
(lp8065
g5
(g6
g7
(lp8066
Vas
p8067
atp8068
Rp8069
(dp8070
g16
VIN
p8071
sbag5
(g6
g7
(lp8072
g5
(g6
g7
(lp8073
VNN
p8074
atp8075
Rp8076
(dp8077
g16
VNNP
p8078
sbatp8079
Rp8080
(dp8081
g16
VNP
p8082
sbatp8083
Rp8084
(dp8085
g16
VPP
p8086
sbag5
(g6
g7
(lp8087
g67
atp8088
Rp8089
(dp8090
g16
g67
sbag5
(g6
g7
(lp8091
g5
(g6
g7
(lp8092
g5
(g6
g7
(lp8093
Vleaving
p8094
atp8095
Rp8096
(dp8097
g16
VVBG
p8098
sbag5
(g6
g7
(lp8099
g5
(g6
g7
(lp8100
Vno
p8101
atp8102
Rp8103
(dp8104
g16
VDT
p8105
sbag5
(g6
g7
(lp8106
Vpredicate
p8107
atp8108
Rp8109
(dp8110
g16
VNN
p8111
sbatp8112
Rp8113
(dp8114
g16
VNP
p8115
sbatp8116
Rp8117
(dp8118
g16
VVP
p8119
sbatp8120
Rp8121
(dp8122
g16
g61
sbatp8123
Rp8124
(dp8125
g16
VVP
p8126
sbatp8127
Rp8128
(dp8129
g16
VVP
p8130
sbatp8131
Rp8132
(dp8133
g16
g61
sbag5
(g6
g7
(lp8134
Vand
p8135
atp8136
Rp8137
(dp8138
g16
VCC
p8139
sbag5
(g6
g7
(lp8140
g5
(g6
g7
(lp8141
g5
(g6
g7
(lp8142
Vno
p8143
atp8144
Rp8145
(dp8146
g16
VDT
p8147
sbag5
(g6
g7
(lp8148
Vsemantic
p8149
atp8150
Rp8151
(dp8152
g16
VJJ
p8153
sbag5
(g6
g7
(lp8154
Vrole
p8155
atp8156
Rp8157
(dp8158
g16
VNN
p8159
sbatp8160
Rp8161
(dp8162
g16
VNP
p8163
sbag5
(g6
g7
(lp8164
g5
(g6
g7
(lp8165
Vlabels
p8166
atp8167
Rp8168
(dp8169
g16
VVBZ
p8170
sbag5
(g6
g7
(lp8171
g5
(g6
g7
(lp8172
Vin
p8173
atp8174
Rp8175
(dp8176
g16
VIN
p8177
sbag5
(g6
g7
(lp8178
g5
(g6
g7
(lp8179
Vthis
p8180
atp8181
Rp8182
(dp8183
g16
VDT
p8184
sbag5
(g6
g7
(lp8185
Vsentence
p8186
atp8187
Rp8188
(dp8189
g16
VNN
p8190
sbatp8191
Rp8192
(dp8193
g16
VNP
p8194
sbatp8195
Rp8196
(dp8197
g16
VPP
p8198
sbatp8199
Rp8200
(dp8201
g16
VVP
p8202
sbatp8203
Rp8204
(dp8205
g16
g61
sbatp8206
Rp8207
(dp8208
g16
g61
sbatp8209
Rp8210
(dp8211
g16
VROOT
p8212
sbasg227
(icmyPackage
CorE
p8213
(dp8214
g230
(lp8215
(I0
I20
tp8216
a(I0
I30
tp8217
asg234
g5
(g6
g7
(lp8218
g8080
ag8089
ag8121
ag8137
ag8161
ag8168
ag8175
atp8219
Rp8220
(dp8221
g16
g245
sbsbsg235
(icmyPackage
CorE
p8222
(dp8223
g230
(lp8224
(I0
I0
tp8225
a(I0
I18
tp8226
asg234
g5
(g6
g7
(lp8227
g8021
ag8025
ag8048
ag8055
ag8062
atp8228
Rp8229
(dp8230
g16
g245
sbsbsg246
g1717
sg269
(lp8231
(isxpPackage
sxpSent
p8232
(dp8233
g273
(lp8234
I30
asg275
VPlant roots and bacterial decay use carbon dioxide in the process of respiration, the word use was classified as NN, leaving no predicate and no semantic role labels in this sentence
p8235
sg277
I15
sg262
I152
sg278
I36
sbasba(icmyPackage
CELink
p8236
(dp8237
g3
(lp8238
g5
(g6
g7
(lp8239
g5
(g6
g7
(lp8240
g5
(g6
g7
(lp8241
g5
(g6
g7
(lp8242
g5
(g6
g7
(lp8243
VRoediger
p8244
atp8245
Rp8246
(dp8247
g16
VNNP
p8248
sbag5
(g6
g7
(lp8249
Vand
p8250
atp8251
Rp8252
(dp8253
g16
VCC
p8254
sbag5
(g6
g7
(lp8255
VPyc
p8256
atp8257
Rp8258
(dp8259
g16
VNNP
p8260
sbatp8261
Rp8262
(dp8263
g16
VNP
p8264
sbag5
(g6
g7
(lp8265
g5
(g6
g7
(lp8266
V-LRB-
p8267
atp8268
Rp8269
(dp8270
g16
V-LRB-
p8271
sbag5
(g6
g7
(lp8272
g5
(g6
g7
(lp8273
V2012
p8274
atp8275
Rp8276
(dp8277
g16
VCD
p8278
sbatp8279
Rp8280
(dp8281
g16
VNP
p8282
sbag5
(g6
g7
(lp8283
V-RRB-
p8284
atp8285
Rp8286
(dp8287
g16
V-RRB-
p8288
sbatp8289
Rp8290
(dp8291
g16
VPRN
p8292
sbatp8293
Rp8294
(dp8295
g16
VNP
p8296
sbag5
(g6
g7
(lp8297
g5
(g6
g7
(lp8298
Vadvocate
p8299
atp8300
Rp8301
(dp8302
g16
VVBP
p8303
sbag5
(g6
g7
(lp8304
g5
(g6
g7
(lp8305
g5
(g6
g7
(lp8306
Vassisting
p8307
atp8308
Rp8309
(dp8310
g16
VVBG
p8311
sbag5
(g6
g7
(lp8312
g5
(g6
g7
(lp8313
Vstudents
p8314
atp8315
Rp8316
(dp8317
g16
VNNS
p8318
sbatp8319
Rp8320
(dp8321
g16
VNP
p8322
sbag5
(g6
g7
(lp8323
g5
(g6
g7
(lp8324
Vin
p8325
atp8326
Rp8327
(dp8328
g16
VIN
p8329
sbag5
(g6
g7
(lp8330
g5
(g6
g7
(lp8331
g5
(g6
g7
(lp8332
Vbuilding
p8333
atp8334
Rp8335
(dp8336
g16
VVBG
p8337
sbag5
(g6
g7
(lp8338
g5
(g6
g7
(lp8339
g395
atp8340
Rp8341
(dp8342
g16
VDT
p8343
sbag5
(g6
g7
(lp8344
Vstrong
p8345
atp8346
Rp8347
(dp8348
g16
VJJ
p8349
sbag5
(g6
g7
(lp8350
Vknowledge
p8351
atp8352
Rp8353
(dp8354
g16
VNN
p8355
sbag5
(g6
g7
(lp8356
Vbase
p8357
atp8358
Rp8359
(dp8360
g16
VNN
p8361
sbatp8362
Rp8363
(dp8364
g16
VNP
p8365
sbag5
(g6
g7
(lp8366
g5
(g6
g7
(lp8367
Vbecause
p8368
atp8369
Rp8370
(dp8371
g16
VIN
p8372
sbag5
(g6
g7
(lp8373
g5
(g6
g7
(lp8374
g5
(g6
g7
(lp8375
Vcreative
p8376
atp8377
Rp8378
(dp8379
g16
VJJ
p8380
sbag5
(g6
g7
(lp8381
Vdiscoveries
p8382
atp8383
Rp8384
(dp8385
g16
VNNS
p8386
sbatp8387
Rp8388
(dp8389
g16
VNP
p8390
sbag5
(g6
g7
(lp8391
g5
(g6
g7
(lp8392
Vare
p8393
atp8394
Rp8395
(dp8396
g16
VVBP
p8397
sbag5
(g6
g7
(lp8398
g5
(g6
g7
(lp8399
Vunlikely
p8400
atp8401
Rp8402
(dp8403
g16
VJJ
p8404
sbag5
(g6
g7
(lp8405
g5
(g6
g7
(lp8406
g5
(g6
g7
(lp8407
Vto
p8408
atp8409
Rp8410
(dp8411
g16
VTO
p8412
sbag5
(g6
g7
(lp8413
g5
(g6
g7
(lp8414
Voccur
p8415
atp8416
Rp8417
(dp8418
g16
VVB
p8419
sbag5
(g6
g7
(lp8420
g5
(g6
g7
(lp8421
g5
(g6
g7
(lp8422
Vwhen
p8423
atp8424
Rp8425
(dp8426
g16
VWRB
p8427
sbatp8428
Rp8429
(dp8430
g16
VWHADVP
p8431
sbag5
(g6
g7
(lp8432
g5
(g6
g7
(lp8433
g5
(g6
g7
(lp8434
Vstudents
p8435
atp8436
Rp8437
(dp8438
g16
VNNS
p8439
sbatp8440
Rp8441
(dp8442
g16
VNP
p8443
sbag5
(g6
g7
(lp8444
g5
(g6
g7
(lp8445
Vdo
p8446
atp8447
Rp8448
(dp8449
g16
VVBP
p8450
sbag5
(g6
g7
(lp8451
Vnot
p8452
atp8453
Rp8454
(dp8455
g16
VRB
p8456
sbag5
(g6
g7
(lp8457
g5
(g6
g7
(lp8458
Vhave
p8459
atp8460
Rp8461
(dp8462
g16
VVB
p8463
sbag5
(g6
g7
(lp8464
g5
(g6
g7
(lp8465
g5
(g6
g7
(lp8466
g395
atp8467
Rp8468
(dp8469
g16
VDT
p8470
sbag5
(g6
g7
(lp8471
Vsound
p8472
atp8473
Rp8474
(dp8475
g16
VJJ
p8476
sbag5
(g6
g7
(lp8477
Vset
p8478
atp8479
Rp8480
(dp8481
g16
VNN
p8482
sbatp8483
Rp8484
(dp8485
g16
VNP
p8486
sbag5
(g6
g7
(lp8487
g5
(g6
g7
(lp8488
Vof
p8489
atp8490
Rp8491
(dp8492
g16
VIN
p8493
sbag5
(g6
g7
(lp8494
g5
(g6
g7
(lp8495
Vfacts
p8496
atp8497
Rp8498
(dp8499
g16
VNNS
p8500
sbag5
(g6
g7
(lp8501
Vand
p8502
atp8503
Rp8504
(dp8505
g16
VCC
p8506
sbag5
(g6
g7
(lp8507
Vprinciples
p8508
atp8509
Rp8510
(dp8511
g16
VNNS
p8512
sbatp8513
Rp8514
(dp8515
g16
VNP
p8516
sbatp8517
Rp8518
(dp8519
g16
VPP
p8520
sbatp8521
Rp8522
(dp8523
g16
VNP
p8524
sbag5
(g6
g7
(lp8525
g5
(g6
g7
(lp8526
Vat
p8527
atp8528
Rp8529
(dp8530
g16
VIN
p8531
sbag5
(g6
g7
(lp8532
g5
(g6
g7
(lp8533
Vtheir
p8534
atp8535
Rp8536
(dp8537
g16
VPRP$
p8538
sbag5
(g6
g7
(lp8539
Vcommand
p8540
atp8541
Rp8542
(dp8543
g16
VNN
p8544
sbatp8545
Rp8546
(dp8547
g16
VNP
p8548
sbatp8549
Rp8550
(dp8551
g16
VPP
p8552
sbatp8553
Rp8554
(dp8555
g16
VVP
p8556
sbatp8557
Rp8558
(dp8559
g16
VVP
p8560
sbatp8561
Rp8562
(dp8563
g16
g61
sbatp8564
Rp8565
(dp8566
g16
VSBAR
p8567
sbatp8568
Rp8569
(dp8570
g16
VVP
p8571
sbatp8572
Rp8573
(dp8574
g16
VVP
p8575
sbatp8576
Rp8577
(dp8578
g16
g61
sbatp8579
Rp8580
(dp8581
g16
VADJP
p8582
sbatp8583
Rp8584
(dp8585
g16
VVP
p8586
sbatp8587
Rp8588
(dp8589
g16
g61
sbatp8590
Rp8591
(dp8592
g16
VSBAR
p8593
sbatp8594
Rp8595
(dp8596
g16
VVP
p8597
sbatp8598
Rp8599
(dp8600
g16
g61
sbatp8601
Rp8602
(dp8603
g16
VPP
p8604
sbatp8605
Rp8606
(dp8607
g16
VVP
p8608
sbatp8609
Rp8610
(dp8611
g16
g61
sbatp8612
Rp8613
(dp8614
g16
VVP
p8615
sbatp8616
Rp8617
(dp8618
g16
g61
sbatp8619
Rp8620
(dp8621
g16
VROOT
p8622
sbasg227
(icmyPackage
CorE
p8623
(dp8624
g230
(lp8625
(I0
I16
tp8626
a(I0
I36
tp8627
asg234
g8588
sbsg235
(icmyPackage
CorE
p8628
(dp8629
g230
(lp8630
(I0
I0
tp8631
a(I0
I14
tp8632
asg234
g5
(g6
g7
(lp8633
g8294
ag8301
ag8309
ag8320
ag8327
ag8335
ag8363
atp8634
Rp8635
(dp8636
g16
g245
sbsbsg246
g3551
sg269
(lp8637
(isxpPackage
sxpSent
p8638
(dp8639
g273
(lp8640
I31
asg275
VRoediger and Pyc (2012) advocate assisting students in building a strong knowledge base because creative discoveries are unlikely to occur when students do not have a sound set of facts and principles at their command
p8641
sg277
I16
sg262
I153
sg278
I37
sbasba(icmyPackage
CELink
p8642
(dp8643
g3
(lp8644
g5
(g6
g7
(lp8645
g5
(g6
g7
(lp8646
g5
(g6
g7
(lp8647
g5
(g6
g7
(lp8648
VTo
p8649
atp8650
Rp8651
(dp8652
g16
VTO
p8653
sbag5
(g6
g7
(lp8654
g5
(g6
g7
(lp8655
Vthat
p8656
atp8657
Rp8658
(dp8659
g16
VDT
p8660
sbag5
(g6
g7
(lp8661
Vend
p8662
atp8663
Rp8664
(dp8665
g16
VNN
p8666
sbatp8667
Rp8668
(dp8669
g16
VNP
p8670
sbatp8671
Rp8672
(dp8673
g16
VPP
p8674
sbag5
(g6
g7
(lp8675
g67
atp8676
Rp8677
(dp8678
g16
g67
sbag5
(g6
g7
(lp8679
g5
(g6
g7
(lp8680
Vautomatic
p8681
atp8682
Rp8683
(dp8684
g16
VJJ
p8685
sbag5
(g6
g7
(lp8686
Vquestion
p8687
atp8688
Rp8689
(dp8690
g16
VNN
p8691
sbag5
(g6
g7
(lp8692
Vgeneration
p8693
atp8694
Rp8695
(dp8696
g16
VNN
p8697
sbag5
(g6
g7
(lp8698
Vsystems
p8699
atp8700
Rp8701
(dp8702
g16
VNNS
p8703
sbatp8704
Rp8705
(dp8706
g16
VNP
p8707
sbag5
(g6
g7
(lp8708
g5
(g6
g7
(lp8709
Vcan
p8710
atp8711
Rp8712
(dp8713
g16
VMD
p8714
sbag5
(g6
g7
(lp8715
g5
(g6
g7
(lp8716
Vfacilitate
p8717
atp8718
Rp8719
(dp8720
g16
VVB
p8721
sbag5
(g6
g7
(lp8722
g5
(g6
g7
(lp8723
Vthe
p8724
atp8725
Rp8726
(dp8727
g16
VDT
p8728
sbag5
(g6
g7
(lp8729
Vlearning
p8730
atp8731
Rp8732
(dp8733
g16
VNN
p8734
sbag5
(g6
g7
(lp8735
Vprocess
p8736
atp8737
Rp8738
(dp8739
g16
VNN
p8740
sbatp8741
Rp8742
(dp8743
g16
VNP
p8744
sbag5
(g6
g7
(lp8745
g5
(g6
g7
(lp8746
Vby
p8747
atp8748
Rp8749
(dp8750
g16
VIN
p8751
sbag5
(g6
g7
(lp8752
g5
(g6
g7
(lp8753
g5
(g6
g7
(lp8754
Valternating
p8755
atp8756
Rp8757
(dp8758
g16
VVBG
p8759
sbag5
(g6
g7
(lp8760
g5
(g6
g7
(lp8761
g5
(g6
g7
(lp8762
Vpassages
p8763
atp8764
Rp8765
(dp8766
g16
VNNS
p8767
sbatp8768
Rp8769
(dp8770
g16
VNP
p8771
sbag5
(g6
g7
(lp8772
g5
(g6
g7
(lp8773
Vof
p8774
atp8775
Rp8776
(dp8777
g16
VIN
p8778
sbag5
(g6
g7
(lp8779
g5
(g6
g7
(lp8780
Vtext
p8781
atp8782
Rp8783
(dp8784
g16
VNN
p8785
sbatp8786
Rp8787
(dp8788
g16
VNP
p8789
sbatp8790
Rp8791
(dp8792
g16
VPP
p8793
sbatp8794
Rp8795
(dp8796
g16
VNP
p8797
sbag5
(g6
g7
(lp8798
g5
(g6
g7
(lp8799
Vwith
p8800
atp8801
Rp8802
(dp8803
g16
VIN
p8804
sbag5
(g6
g7
(lp8805
g5
(g6
g7
(lp8806
g5
(g6
g7
(lp8807
Vquestions
p8808
atp8809
Rp8810
(dp8811
g16
VNNS
p8812
sbatp8813
Rp8814
(dp8815
g16
VNP
p8816
sbag5
(g6
g7
(lp8817
g5
(g6
g7
(lp8818
g5
(g6
g7
(lp8819
Vthat
p8820
atp8821
Rp8822
(dp8823
g16
VWDT
p8824
sbatp8825
Rp8826
(dp8827
g16
VWHNP
p8828
sbag5
(g6
g7
(lp8829
g5
(g6
g7
(lp8830
g5
(g6
g7
(lp8831
Vreinforce
p8832
atp8833
Rp8834
(dp8835
g16
VVBP
p8836
sbag5
(g6
g7
(lp8837
g5
(g6
g7
(lp8838
g5
(g6
g7
(lp8839
g5
(g6
g7
(lp8840
Vthe
p8841
atp8842
Rp8843
(dp8844
g16
VDT
p8845
sbag5
(g6
g7
(lp8846
Vmaterial
p8847
atp8848
Rp8849
(dp8850
g16
VNN
p8851
sbatp8852
Rp8853
(dp8854
g16
VNP
p8855
sbag5
(g6
g7
(lp8856
g5
(g6
g7
(lp8857
Vlearned
p8858
atp8859
Rp8860
(dp8861
g16
VVBD
p8862
sbatp8863
Rp8864
(dp8865
g16
VVP
p8866
sbatp8867
Rp8868
(dp8869
g16
g61
sbatp8870
Rp8871
(dp8872
g16
VSBAR
p8873
sbatp8874
Rp8875
(dp8876
g16
VVP
p8877
sbatp8878
Rp8879
(dp8880
g16
g61
sbatp8881
Rp8882
(dp8883
g16
VSBAR
p8884
sbatp8885
Rp8886
(dp8887
g16
VNP
p8888
sbatp8889
Rp8890
(dp8891
g16
VPP
p8892
sbatp8893
Rp8894
(dp8895
g16
VVP
p8896
sbatp8897
Rp8898
(dp8899
g16
g61
sbatp8900
Rp8901
(dp8902
g16
VPP
p8903
sbatp8904
Rp8905
(dp8906
g16
VVP
p8907
sbatp8908
Rp8909
(dp8910
g16
VVP
p8911
sbatp8912
Rp8913
(dp8914
g16
g61
sbatp8915
Rp8916
(dp8917
g16
VROOT
p8918
sbasg227
(icmyPackage
CorE
p8919
(dp8920
g230
(lp8921
(I0
I14
tp8922
a(I0
I24
tp8923
asg234
g8898
sbsg235
(icmyPackage
CorE
p8924
(dp8925
g230
(lp8926
(I0
I0
tp8927
a(I0
I12
tp8928
asg234
g5
(g6
g7
(lp8929
g8672
ag8677
ag8705
ag8712
ag8719
ag8742
atp8930
Rp8931
(dp8932
g16
g245
sbsbsg246
g247
sg269
(lp8933
(isxpPackage
sxpSent
p8934
(dp8935
g273
(lp8936
I32
asg275
VTo that end, automatic question generation systems can facilitate the learning process by alternating passages of text with questions that reinforce the material learned
p8937
sg277
I16
sg262
I154
sg278
I37
sbasba.