(lp0
(icmyPackage
CELink
p1
(dp2
S'PTreelst'
p3
(lp4
ccopy_reg
_reconstructor
p5
(cnltk.tree
Tree
p6
c__builtin__
list
p7
(lp8
g5
(g6
g7
(lp9
g5
(g6
g7
(lp10
g5
(g6
g7
(lp11
VAs
p12
atp13
Rp14
(dp15
S'_label'
p16
VIN
p17
sbag5
(g6
g7
(lp18
g5
(g6
g7
(lp19
Vfor
p20
atp21
Rp22
(dp23
g16
VIN
p24
sbag5
(g6
g7
(lp25
g5
(g6
g7
(lp26
Vtraining
p27
atp28
Rp29
(dp30
g16
VNN
p31
sbag5
(g6
g7
(lp32
Vdata
p33
atp34
Rp35
(dp36
g16
VNNS
p37
sbatp38
Rp39
(dp40
g16
VNP
p41
sbatp42
Rp43
(dp44
g16
VPP
p45
sbatp46
Rp47
(dp48
g16
VPP
p49
sbag5
(g6
g7
(lp50
V,
p51
atp52
Rp53
(dp54
g16
g51
sbag5
(g6
g7
(lp55
g5
(g6
g7
(lp56
Vsince
p57
atp58
Rp59
(dp60
g16
VIN
p61
sbag5
(g6
g7
(lp62
g5
(g6
g7
(lp63
g5
(g6
g7
(lp64
g5
(g6
g7
(lp65
Vany
p66
atp67
Rp68
(dp69
g16
VDT
p70
sbag5
(g6
g7
(lp71
Vdirect
p72
atp73
Rp74
(dp75
g16
VJJ
p76
sbag5
(g6
g7
(lp77
Vjudgment
p78
atp79
Rp80
(dp81
g16
VNN
p82
sbatp83
Rp84
(dp85
g16
VNP
p86
sbag5
(g6
g7
(lp87
g5
(g6
g7
(lp88
Vof
p89
atp90
Rp91
(dp92
g16
VIN
p93
sbag5
(g6
g7
(lp94
g5
(g6
g7
(lp95
g5
(g6
g7
(lp96
Vcomplexity
p97
atp98
Rp99
(dp100
g16
VNN
p101
sbatp102
Rp103
(dp104
g16
VNP
p105
sbag5
(g6
g7
(lp106
g5
(g6
g7
(lp107
Vby
p108
atp109
Rp110
(dp111
g16
VIN
p112
sbag5
(g6
g7
(lp113
g5
(g6
g7
(lp114
Va
p115
atp116
Rp117
(dp118
g16
VDT
p119
sbag5
(g6
g7
(lp120
Vhuman
p121
atp122
Rp123
(dp124
g16
VJJ
p125
sbag5
(g6
g7
(lp126
Vannotator
p127
atp128
Rp129
(dp130
g16
VNN
p131
sbatp132
Rp133
(dp134
g16
VNP
p135
sbatp136
Rp137
(dp138
g16
VPP
p139
sbatp140
Rp141
(dp142
g16
VNP
p143
sbatp144
Rp145
(dp146
g16
VPP
p147
sbatp148
Rp149
(dp150
g16
VNP
p151
sbag5
(g6
g7
(lp152
g5
(g6
g7
(lp153
Vis
p154
atp155
Rp156
(dp157
g16
VVBZ
p158
sbag5
(g6
g7
(lp159
g5
(g6
g7
(lp160
Vfraught
p161
atp162
Rp163
(dp164
g16
VJJ
p165
sbag5
(g6
g7
(lp166
g5
(g6
g7
(lp167
Vwith
p168
atp169
Rp170
(dp171
g16
VIN
p172
sbag5
(g6
g7
(lp173
g5
(g6
g7
(lp174
Vsubjectivity
p175
atp176
Rp177
(dp178
g16
VNN
p179
sbatp180
Rp181
(dp182
g16
VNP
p183
sbatp184
Rp185
(dp186
g16
VPP
p187
sbatp188
Rp189
(dp190
g16
VADJP
p191
sbatp192
Rp193
(dp194
g16
VVP
p195
sbatp196
Rp197
(dp198
g16
VS
p199
sbatp200
Rp201
(dp202
g16
VSBAR
p203
sbag5
(g6
g7
(lp204
g51
atp205
Rp206
(dp207
g16
g51
sbag5
(g6
g7
(lp208
g5
(g6
g7
(lp209
Vwe
p210
atp211
Rp212
(dp213
g16
VPRP
p214
sbatp215
Rp216
(dp217
g16
VNP
p218
sbag5
(g6
g7
(lp219
g5
(g6
g7
(lp220
Vrely
p221
atp222
Rp223
(dp224
g16
VVBP
p225
sbag5
(g6
g7
(lp226
g5
(g6
g7
(lp227
Von
p228
atp229
Rp230
(dp231
g16
VIN
p232
sbag5
(g6
g7
(lp233
g5
(g6
g7
(lp234
Vcognitive
p235
atp236
Rp237
(dp238
g16
VJJ
p239
sbag5
(g6
g7
(lp240
Vevidence
p241
atp242
Rp243
(dp244
g16
VNN
p245
sbatp246
Rp247
(dp248
g16
VNP
p249
sbatp250
Rp251
(dp252
g16
VPP
p253
sbag5
(g6
g7
(lp254
g5
(g6
g7
(lp255
Vfrom
p256
atp257
Rp258
(dp259
g16
VIN
p260
sbag5
(g6
g7
(lp261
g5
(g6
g7
(lp262
Veye-tracking
p263
atp264
Rp265
(dp266
g16
VNN
p267
sbatp268
Rp269
(dp270
g16
VNP
p271
sbatp272
Rp273
(dp274
g16
VPP
p275
sbatp276
Rp277
(dp278
g16
VVP
p279
sbatp280
Rp281
(dp282
g16
g199
sbatp283
Rp284
(dp285
g16
VROOT
p286
sbasS'cause'
p287
(icmyPackage
CorE
p288
(dp289
S'span'
p290
(lp291
(I0
I6
tp292
a(I0
I18
tp293
asS'PTree'
p294
g197
sbsS'effect'
p295
(icmyPackage
CorE
p296
(dp297
g290
(lp298
(I0
I20
tp299
a(I0
I26
tp300
asg294
g5
(g6
g7
(lp301
g216
ag277
atp302
Rp303
(dp304
g16
S'ROOT'
p305
sbsbsS'pt'
p306
(icmyPackage
pattern
p307
(dp308
S'pfreq'
p309
I15
sS'moresent'
p310
I0
sS'main_token'
p311
(lp312
(lp313
S'since'
p314
aa(lp315
S','
p316
aasS'ptype'
p317
(lp318
I3
aI1
aI1
asS'cases'
p319
(lp320
S'But, since the herpes virus does not always show its symptoms, prevention is not fool proof.'
p321
asS'id'
p322
I78
sS'constraints'
p323
(lp324
(lp325
a(lp326
S'&C@NCTime@'
p327
aa(lp328
S'&R@NCTime@'
p329
aasbsS'sInfo'
p330
(lp331
(isxpPackage
sxpSent
p332
(dp333
S'sysCEidlst'
p334
(lp335
I0
asS'sentence_text'
p336
VAs for training data, since any direct judgment of complexity by a human annotator is fraught with subjectivity, we rely on cognitive evidence from eye-tracking
p337
sS'id_sec'
p338
I1
sg322
I3
sS'id_para'
p339
I0
sbasba(icmyPackage
CELink
p340
(dp341
g3
(lp342
g5
(g6
g7
(lp343
g5
(g6
g7
(lp344
g5
(g6
g7
(lp345
g5
(g6
g7
(lp346
g5
(g6
g7
(lp347
VUsing
p348
atp349
Rp350
(dp351
g16
VVBG
p352
sbag5
(g6
g7
(lp353
g5
(g6
g7
(lp354
g5
(g6
g7
(lp355
Vlinguistic
p356
atp357
Rp358
(dp359
g16
VJJ
p360
sbag5
(g6
g7
(lp361
Vfeatures
p362
atp363
Rp364
(dp365
g16
VNNS
p366
sbatp367
Rp368
(dp369
g16
VNP
p370
sbag5
(g6
g7
(lp371
Vand
p372
atp373
Rp374
(dp375
g16
VCC
p376
sbag5
(g6
g7
(lp377
g5
(g6
g7
(lp378
Vannotated
p379
atp380
Rp381
(dp382
g16
VJJ
p383
sbag5
(g6
g7
(lp384
VSACs
p385
atp386
Rp387
(dp388
g16
VNNS
p389
sbatp390
Rp391
(dp392
g16
VNP
p393
sbatp394
Rp395
(dp396
g16
VNP
p397
sbatp398
Rp399
(dp400
g16
VVP
p401
sbatp402
Rp403
(dp404
g16
g199
sbag5
(g6
g7
(lp405
g51
atp406
Rp407
(dp408
g16
g51
sbag5
(g6
g7
(lp409
g5
(g6
g7
(lp410
Vwe
p411
atp412
Rp413
(dp414
g16
VPRP
p415
sbatp416
Rp417
(dp418
g16
VNP
p419
sbag5
(g6
g7
(lp420
g5
(g6
g7
(lp421
Vtrain
p422
atp423
Rp424
(dp425
g16
VVBP
p426
sbag5
(g6
g7
(lp427
g5
(g6
g7
(lp428
g5
(g6
g7
(lp429
g115
atp430
Rp431
(dp432
g16
VDT
p433
sbag5
(g6
g7
(lp434
Vregressor
p435
atp436
Rp437
(dp438
g16
VNN
p439
sbatp440
Rp441
(dp442
g16
VNP
p443
sbag5
(g6
g7
(lp444
g5
(g6
g7
(lp445
g5
(g6
g7
(lp446
Vthat
p447
atp448
Rp449
(dp450
g16
VWDT
p451
sbatp452
Rp453
(dp454
g16
VWHNP
p455
sbag5
(g6
g7
(lp456
g5
(g6
g7
(lp457
g5
(g6
g7
(lp458
Vpredicts
p459
atp460
Rp461
(dp462
g16
VVBZ
p463
sbag5
(g6
g7
(lp464
g5
(g6
g7
(lp465
Vthe
p466
atp467
Rp468
(dp469
g16
VDT
p470
sbag5
(g6
g7
(lp471
VSAC
p472
atp473
Rp474
(dp475
g16
VNNP
p476
sbatp477
Rp478
(dp479
g16
VNP
p480
sbag5
(g6
g7
(lp481
g5
(g6
g7
(lp482
Vwith
p483
atp484
Rp485
(dp486
g16
VIN
p487
sbag5
(g6
g7
(lp488
g5
(g6
g7
(lp489
g5
(g6
g7
(lp490
g115
atp491
Rp492
(dp493
g16
VDT
p494
sbag5
(g6
g7
(lp495
Vbest
p496
atp497
Rp498
(dp499
g16
VJJS
p500
sbag5
(g6
g7
(lp501
Vmean
p502
atp503
Rp504
(dp505
g16
VJJ
p506
sbag5
(g6
g7
(lp507
Verror
p508
atp509
Rp510
(dp511
g16
VNN
p512
sbag5
(g6
g7
(lp513
Vrate
p514
atp515
Rp516
(dp517
g16
VNN
p518
sbatp519
Rp520
(dp521
g16
VNP
p522
sbag5
(g6
g7
(lp523
g5
(g6
g7
(lp524
Vof
p525
atp526
Rp527
(dp528
g16
VIN
p529
sbag5
(g6
g7
(lp530
g5
(g6
g7
(lp531
g5
(g6
g7
(lp532
V22.02
p533
atp534
Rp535
(dp536
g16
VCD
p537
sbag5
(g6
g7
(lp538
V%
p539
atp540
Rp541
(dp542
g16
VNN
p543
sbatp544
Rp545
(dp546
g16
VNP
p547
sbag5
(g6
g7
(lp548
g5
(g6
g7
(lp549
Vfor
p550
atp551
Rp552
(dp553
g16
VIN
p554
sbag5
(g6
g7
(lp555
g5
(g6
g7
(lp556
Vfive-fold
p557
atp558
Rp559
(dp560
g16
VJJ
p561
sbag5
(g6
g7
(lp562
Vcross-validation
p563
atp564
Rp565
(dp566
g16
VNN
p567
sbatp568
Rp569
(dp570
g16
VNP
p571
sbatp572
Rp573
(dp574
g16
VPP
p575
sbatp576
Rp577
(dp578
g16
VNP
p579
sbatp580
Rp581
(dp582
g16
VPP
p583
sbatp584
Rp585
(dp586
g16
VNP
p587
sbatp588
Rp589
(dp590
g16
VPP
p591
sbatp592
Rp593
(dp594
g16
VVP
p595
sbatp596
Rp597
(dp598
g16
g199
sbatp599
Rp600
(dp601
g16
VSBAR
p602
sbatp603
Rp604
(dp605
g16
VNP
p606
sbatp607
Rp608
(dp609
g16
VVP
p610
sbatp611
Rp612
(dp613
g16
g199
sbatp614
Rp615
(dp616
g16
VROOT
p617
sbasg287
(icmyPackage
CorE
p618
(dp619
g290
(lp620
(I0
I0
tp621
a(I0
I5
tp622
asg294
g403
sbsg295
(icmyPackage
CorE
p623
(dp624
g290
(lp625
(I0
I7
tp626
a(I0
I26
tp627
asg294
g5
(g6
g7
(lp628
g417
ag608
atp629
Rp630
(dp631
g16
g305
sbsbsg306
(icmyPackage
pattern
p632
(dp633
g309
I30
sg310
I0
sg311
(lp634
sg317
(lp635
I3
aI2
aI1
asg319
(lp636
S'Being over here we tend to be a bit isolated.'
p637
aS'Not being sure of the word, he turned it up in the dictionary.'
p638
asg322
I81
sg323
(lp639
(lp640
S'&V-ing@C@'
p641
aS'(,)'
p642
aS'&R@Complete@'
p643
aasbsg330
(lp644
(isxpPackage
sxpSent
p645
(dp646
g334
(lp647
I1
asg336
VUsing linguistic features and annotated SACs, we train a regressor that predicts the SAC with a best mean error rate of 22.02% for five-fold cross-validation
p648
sg338
I1
sg322
I5
sg339
I0
sbasba(icmyPackage
CELink
p649
(dp650
g3
(lp651
g5
(g6
g7
(lp652
g5
(g6
g7
(lp653
g5
(g6
g7
(lp654
g5
(g6
g7
(lp655
VThe
p656
atp657
Rp658
(dp659
g16
VDT
p660
sbag5
(g6
g7
(lp661
Vtwo
p662
atp663
Rp664
(dp665
g16
VCD
p666
sbatp667
Rp668
(dp669
g16
VNP
p670
sbag5
(g6
g7
(lp671
g5
(g6
g7
(lp672
Vare
p673
atp674
Rp675
(dp676
g16
VVBP
p677
sbag5
(g6
g7
(lp678
g5
(g6
g7
(lp679
g5
(g6
g7
(lp680
Vlexically
p681
atp682
Rp683
(dp684
g16
VJJ
p685
sbatp686
Rp687
(dp688
g16
VADJP
p689
sbag5
(g6
g7
(lp690
Vand
p691
atp692
Rp693
(dp694
g16
VCC
p695
sbag5
(g6
g7
(lp696
g5
(g6
g7
(lp697
Vstructurally
p698
atp699
Rp700
(dp701
g16
VRB
p702
sbag5
(g6
g7
(lp703
Vsimilar
p704
atp705
Rp706
(dp707
g16
VJJ
p708
sbatp709
Rp710
(dp711
g16
VADJP
p712
sbatp713
Rp714
(dp715
g16
VADJP
p716
sbatp717
Rp718
(dp719
g16
VVP
p720
sbatp721
Rp722
(dp723
g16
g199
sbatp724
Rp725
(dp726
g16
VROOT
p727
sbag5
(g6
g7
(lp728
g5
(g6
g7
(lp729
g5
(g6
g7
(lp730
g5
(g6
g7
(lp731
VHowever
p732
atp733
Rp734
(dp735
g16
VRB
p736
sbatp737
Rp738
(dp739
g16
VADVP
p740
sbag5
(g6
g7
(lp741
g51
atp742
Rp743
(dp744
g16
g51
sbag5
(g6
g7
(lp745
g5
(g6
g7
(lp746
Vbecause
p747
atp748
Rp749
(dp750
g16
VRB
p751
sbag5
(g6
g7
(lp752
Vof
p753
atp754
Rp755
(dp756
g16
VIN
p757
sbag5
(g6
g7
(lp758
g5
(g6
g7
(lp759
g5
(g6
g7
(lp760
Vthe
p761
atp762
Rp763
(dp764
g16
VDT
p765
sbag5
(g6
g7
(lp766
Vsarcasm
p767
atp768
Rp769
(dp770
g16
VNN
p771
sbatp772
Rp773
(dp774
g16
VNP
p775
sbag5
(g6
g7
(lp776
g5
(g6
g7
(lp777
Vin
p778
atp779
Rp780
(dp781
g16
VIN
p782
sbag5
(g6
g7
(lp783
g5
(g6
g7
(lp784
Vthe
p785
atp786
Rp787
(dp788
g16
VDT
p789
sbag5
(g6
g7
(lp790
Vsecond
p791
atp792
Rp793
(dp794
g16
VJJ
p795
sbag5
(g6
g7
(lp796
Vtweet
p797
atp798
Rp799
(dp800
g16
VNN
p801
sbatp802
Rp803
(dp804
g16
VNP
p805
sbatp806
Rp807
(dp808
g16
VPP
p809
sbag5
(g6
g7
(lp810
g5
(g6
g7
(lp811
V-LRB-
p812
atp813
Rp814
(dp815
g16
V-LRB-
p816
sbag5
(g6
g7
(lp817
g5
(g6
g7
(lp818
Vin
p819
atp820
Rp821
(dp822
g16
VIN
p823
sbag5
(g6
g7
(lp824
g5
(g6
g7
(lp825
g5
(g6
g7
(lp826
g5
(g6
g7
(lp827
Vu
p828
atp829
Rp830
(dp831
g16
VNNP
p832
sbag5
(g6
g7
(lp833
V'
p834
atp835
Rp836
(dp837
g16
VPOS
p838
sbatp839
Rp840
(dp841
g16
VNP
p842
sbag5
(g6
g7
(lp843
V\u005c
p844
atp845
Rp846
(dp847
g16
VJJ
p848
sbag5
(g6
g7
(lp849
Vu201c
p850
atp851
Rp852
(dp853
g16
VNNS
p854
sbag5
(g6
g7
(lp855
g834
atp856
Rp857
(dp858
g16
VPOS
p859
sbatp860
Rp861
(dp862
g16
VNP
p863
sbag5
(g6
g7
(lp864
g5
(g6
g7
(lp865
Vcold
p866
atp867
Rp868
(dp869
g16
VJJ
p870
sbatp871
Rp872
(dp873
g16
VADJP
p874
sbag5
(g6
g7
(lp875
g828
atp876
Rp877
(dp878
g16
VNNP
p879
sbag5
(g6
g7
(lp880
g834
atp881
Rp882
(dp883
g16
VPOS
p884
sbag5
(g6
g7
(lp885
V\u005c
p886
atp887
Rp888
(dp889
g16
VCD
p890
sbag5
(g6
g7
(lp891
g5
(g6
g7
(lp892
Vu201d
p893
atp894
Rp895
(dp896
g16
VNNP
p897
sbag5
(g6
g7
(lp898
g834
atp899
Rp900
(dp901
g16
VPOS
p902
sbatp903
Rp904
(dp905
g16
VNP
p906
sbag5
(g6
g7
(lp907
Vpizza
p908
atp909
Rp910
(dp911
g16
VNN
p912
sbatp913
Rp914
(dp915
g16
VNP
p916
sbatp917
Rp918
(dp919
g16
VPP
p920
sbag5
(g6
g7
(lp921
g51
atp922
Rp923
(dp924
g16
g51
sbag5
(g6
g7
(lp925
g5
(g6
g7
(lp926
g5
(g6
g7
(lp927
Van
p928
atp929
Rp930
(dp931
g16
VDT
p932
sbag5
(g6
g7
(lp933
Vundesirable
p934
atp935
Rp936
(dp937
g16
VJJ
p938
sbag5
(g6
g7
(lp939
Vsituation
p940
atp941
Rp942
(dp943
g16
VNN
p944
sbatp945
Rp946
(dp947
g16
VNP
p948
sbag5
(g6
g7
(lp949
g5
(g6
g7
(lp950
Vfollowed
p951
atp952
Rp953
(dp954
g16
VVBN
p955
sbag5
(g6
g7
(lp956
g5
(g6
g7
(lp957
Vby
p958
atp959
Rp960
(dp961
g16
VIN
p962
sbag5
(g6
g7
(lp963
g5
(g6
g7
(lp964
g5
(g6
g7
(lp965
g115
atp966
Rp967
(dp968
g16
VDT
p969
sbag5
(g6
g7
(lp970
Vpositive
p971
atp972
Rp973
(dp974
g16
VJJ
p975
sbag5
(g6
g7
(lp976
Vsentiment
p977
atp978
Rp979
(dp980
g16
VNN
p981
sbag5
(g6
g7
(lp982
Vphrase
p983
atp984
Rp985
(dp986
g16
VNN
p987
sbag5
(g6
g7
(lp988
g828
atp989
Rp990
(dp991
g16
VNN
p992
sbag5
(g6
g7
(lp993
g834
atp994
Rp995
(dp996
g16
VPOS
p997
sbatp998
Rp999
(dp1000
g16
VNP
p1001
sbag5
(g6
g7
(lp1002
V\u005c
p1003
atp1004
Rp1005
(dp1006
g16
VJJ
p1007
sbag5
(g6
g7
(lp1008
Vu201c
p1009
atp1010
Rp1011
(dp1012
g16
VNNS
p1013
sbatp1014
Rp1015
(dp1016
g16
VNP
p1017
sbatp1018
Rp1019
(dp1020
g16
VPP
p1021
sbag5
(g6
g7
(lp1022
g834
atp1023
Rp1024
(dp1025
g16
V''
p1026
sbag5
(g6
g7
(lp1027
g5
(g6
g7
(lp1028
g5
(g6
g7
(lp1029
Vjust
p1030
atp1031
Rp1032
(dp1033
g16
VRB
p1034
sbag5
(g6
g7
(lp1035
Vwhat
p1036
atp1037
Rp1038
(dp1039
g16
VWP
p1040
sbatp1041
Rp1042
(dp1043
g16
VWHADJP
p1044
sbag5
(g6
g7
(lp1045
g5
(g6
g7
(lp1046
g5
(g6
g7
(lp1047
VI
p1048
atp1049
Rp1050
(dp1051
g16
VPRP
p1052
sbatp1053
Rp1054
(dp1055
g16
VNP
p1056
sbag5
(g6
g7
(lp1057
g5
(g6
g7
(lp1058
Vwanted
p1059
atp1060
Rp1061
(dp1062
g16
VVBD
p1063
sbag5
(g6
g7
(lp1064
g5
(g6
g7
(lp1065
g5
(g6
g7
(lp1066
g828
atp1067
Rp1068
(dp1069
g16
VNNP
p1070
sbag5
(g6
g7
(lp1071
g834
atp1072
Rp1073
(dp1074
g16
VPOS
p1075
sbatp1076
Rp1077
(dp1078
g16
VNP
p1079
sbag5
(g6
g7
(lp1080
V\u005c
p1081
atp1082
Rp1083
(dp1084
g16
VNNP
p1085
sbag5
(g6
g7
(lp1086
Vu201d
p1087
atp1088
Rp1089
(dp1090
g16
VNNP
p1091
sbag5
(g6
g7
(lp1092
g834
atp1093
Rp1094
(dp1095
g16
V''
p1096
sbatp1097
Rp1098
(dp1099
g16
VNP
p1100
sbatp1101
Rp1102
(dp1103
g16
VVP
p1104
sbatp1105
Rp1106
(dp1107
g16
g199
sbatp1108
Rp1109
(dp1110
g16
VSBAR
p1111
sbag5
(g6
g7
(lp1112
g51
atp1113
Rp1114
(dp1115
g16
g51
sbag5
(g6
g7
(lp1116
g5
(g6
g7
(lp1117
Vas
p1118
atp1119
Rp1120
(dp1121
g16
VIN
p1122
sbag5
(g6
g7
(lp1123
g5
(g6
g7
(lp1124
g5
(g6
g7
(lp1125
Vdiscussed
p1126
atp1127
Rp1128
(dp1129
g16
VVBN
p1130
sbag5
(g6
g7
(lp1131
g5
(g6
g7
(lp1132
Vin
p1133
atp1134
Rp1135
(dp1136
g16
VIN
p1137
sbag5
(g6
g7
(lp1138
g5
(g6
g7
(lp1139
VRiloff
p1140
atp1141
Rp1142
(dp1143
g16
VNNP
p1144
sbag5
(g6
g7
(lp1145
Vet
p1146
atp1147
Rp1148
(dp1149
g16
VCC
p1150
sbag5
(g6
g7
(lp1151
Val.
p1152
atp1153
Rp1154
(dp1155
g16
VNNP
p1156
sbag5
(g6
g7
(lp1157
V2013
p1158
atp1159
Rp1160
(dp1161
g16
VNNP
p1162
sbatp1163
Rp1164
(dp1165
g16
VNP
p1166
sbatp1167
Rp1168
(dp1169
g16
VPP
p1170
sbatp1171
Rp1172
(dp1173
g16
VVP
p1174
sbatp1175
Rp1176
(dp1177
g16
g199
sbatp1178
Rp1179
(dp1180
g16
VSBAR
p1181
sbatp1182
Rp1183
(dp1184
g16
VVP
p1185
sbatp1186
Rp1187
(dp1188
g16
VNP
p1189
sbag5
(g6
g7
(lp1190
V-RRB-
p1191
atp1192
Rp1193
(dp1194
g16
V-RRB-
p1195
sbatp1196
Rp1197
(dp1198
g16
VPRN
p1199
sbatp1200
Rp1201
(dp1202
g16
VNP
p1203
sbatp1204
Rp1205
(dp1206
g16
VPP
p1207
sbag5
(g6
g7
(lp1208
g51
atp1209
Rp1210
(dp1211
g16
g51
sbag5
(g6
g7
(lp1212
g5
(g6
g7
(lp1213
Vit
p1214
atp1215
Rp1216
(dp1217
g16
VPRP
p1218
sbatp1219
Rp1220
(dp1221
g16
VNP
p1222
sbag5
(g6
g7
(lp1223
g5
(g6
g7
(lp1224
Vis
p1225
atp1226
Rp1227
(dp1228
g16
VVBZ
p1229
sbag5
(g6
g7
(lp1230
g5
(g6
g7
(lp1231
Vmore
p1232
atp1233
Rp1234
(dp1235
g16
VRBR
p1236
sbag5
(g6
g7
(lp1237
Vcomplex
p1238
atp1239
Rp1240
(dp1241
g16
VJJ
p1242
sbag5
(g6
g7
(lp1243
g5
(g6
g7
(lp1244
Vthan
p1245
atp1246
Rp1247
(dp1248
g16
VIN
p1249
sbag5
(g6
g7
(lp1250
g5
(g6
g7
(lp1251
g5
(g6
g7
(lp1252
Vthe
p1253
atp1254
Rp1255
(dp1256
g16
VDT
p1257
sbag5
(g6
g7
(lp1258
Vfirst
p1259
atp1260
Rp1261
(dp1262
g16
VJJ
p1263
sbatp1264
Rp1265
(dp1266
g16
VNP
p1267
sbag5
(g6
g7
(lp1268
g5
(g6
g7
(lp1269
Vfor
p1270
atp1271
Rp1272
(dp1273
g16
VIN
p1274
sbag5
(g6
g7
(lp1275
g5
(g6
g7
(lp1276
Vsentiment
p1277
atp1278
Rp1279
(dp1280
g16
VNN
p1281
sbag5
(g6
g7
(lp1282
Vannotation
p1283
atp1284
Rp1285
(dp1286
g16
VNN
p1287
sbatp1288
Rp1289
(dp1290
g16
VNP
p1291
sbatp1292
Rp1293
(dp1294
g16
VPP
p1295
sbatp1296
Rp1297
(dp1298
g16
VNP
p1299
sbatp1300
Rp1301
(dp1302
g16
VPP
p1303
sbatp1304
Rp1305
(dp1306
g16
VADJP
p1307
sbatp1308
Rp1309
(dp1310
g16
VVP
p1311
sbatp1312
Rp1313
(dp1314
g16
g199
sbatp1315
Rp1316
(dp1317
g16
VROOT
p1318
sbasg287
(icmyPackage
CorE
p1319
(dp1320
g290
(lp1321
(I0
I1
tp1322
a(I1
I0
tp1323
asg294
g5
(g6
g7
(lp1324
g664
ag718
ag738
atp1325
Rp1326
(dp1327
g16
g305
sbsbsg295
(icmyPackage
CorE
p1328
(dp1329
g290
(lp1330
(I1
I57
tp1331
a(I1
I67
tp1332
asg294
g5
(g6
g7
(lp1333
g1210
ag1220
ag1309
atp1334
Rp1335
(dp1336
g16
g305
sbsbsg306
(icmyPackage
pattern
p1337
(dp1338
g309
I1
sg310
I1
sg311
(lp1339
(lp1340
S'because'
p1341
aS'of'
p1342
aasg317
(lp1343
I1
aI1
aI3
asg319
(lp1344
sg322
I29
sg323
(lp1345
(lp1346
S'&C'
p1347
aS'(,/;/./--)'
p1348
aS'(&ADV)'
p1349
aa(lp1350
S'(&THIS)'
p1351
aS'&NP'
p1352
aS'&R'
p1353
aasbsg330
(lp1354
(isxpPackage
sxpSent
p1355
(dp1356
g334
(lp1357
I2
asg336
VThe two are lexically and structurally similar
p1358
sg338
I2
sg322
I10
sg339
I1
sba(isxpPackage
sxpSent
p1359
(dp1360
g334
(lp1361
I2
aI3
asg336
VHowever, because of the sarcasm in the second tweet (in u'\u005cu201c' cold u'\u005cu201d' pizza, an undesirable situation followed by a positive sentiment phrase u'\u005cu201c' just what I wanted u'\u005cu201d' , as discussed in Riloff et al.2013 ), it is more complex than the first for sentiment annotation
p1362
sg338
I2
sg322
I11
sg339
I1
sbasba(icmyPackage
CELink
p1363
(dp1364
g3
(lp1365
g1316
ag5
(g6
g7
(lp1366
g5
(g6
g7
(lp1367
g5
(g6
g7
(lp1368
g5
(g6
g7
(lp1369
VThus
p1370
atp1371
Rp1372
(dp1373
g16
VRB
p1374
sbatp1375
Rp1376
(dp1377
g16
VADVP
p1378
sbag5
(g6
g7
(lp1379
g51
atp1380
Rp1381
(dp1382
g16
g51
sbag5
(g6
g7
(lp1383
g5
(g6
g7
(lp1384
g5
(g6
g7
(lp1385
g5
(g6
g7
(lp1386
Vindependent
p1387
atp1388
Rp1389
(dp1390
g16
VJJ
p1391
sbatp1392
Rp1393
(dp1394
g16
VNP
p1395
sbag5
(g6
g7
(lp1396
g5
(g6
g7
(lp1397
Vof
p1398
atp1399
Rp1400
(dp1401
g16
VIN
p1402
sbag5
(g6
g7
(lp1403
g5
(g6
g7
(lp1404
Vhow
p1405
atp1406
Rp1407
(dp1408
g16
VWRB
p1409
sbag5
(g6
g7
(lp1410
Vgood
p1411
atp1412
Rp1413
(dp1414
g16
VJJ
p1415
sbatp1416
Rp1417
(dp1418
g16
VWHNP
p1419
sbatp1420
Rp1421
(dp1422
g16
VWHPP
p1423
sbatp1424
Rp1425
(dp1426
g16
VWHNP
p1427
sbag5
(g6
g7
(lp1428
g5
(g6
g7
(lp1429
g5
(g6
g7
(lp1430
Vthe
p1431
atp1432
Rp1433
(dp1434
g16
VDT
p1435
sbag5
(g6
g7
(lp1436
Vannotator
p1437
atp1438
Rp1439
(dp1440
g16
VNN
p1441
sbatp1442
Rp1443
(dp1444
g16
VNP
p1445
sbag5
(g6
g7
(lp1446
g5
(g6
g7
(lp1447
Vis
p1448
atp1449
Rp1450
(dp1451
g16
VVBZ
p1452
sbatp1453
Rp1454
(dp1455
g16
VVP
p1456
sbatp1457
Rp1458
(dp1459
g16
g199
sbatp1460
Rp1461
(dp1462
g16
VSBAR
p1463
sbag5
(g6
g7
(lp1464
g51
atp1465
Rp1466
(dp1467
g16
g51
sbag5
(g6
g7
(lp1468
g5
(g6
g7
(lp1469
Vthere
p1470
atp1471
Rp1472
(dp1473
g16
VEX
p1474
sbatp1475
Rp1476
(dp1477
g16
VNP
p1478
sbag5
(g6
g7
(lp1479
g5
(g6
g7
(lp1480
Vare
p1481
atp1482
Rp1483
(dp1484
g16
VVBP
p1485
sbag5
(g6
g7
(lp1486
g5
(g6
g7
(lp1487
g5
(g6
g7
(lp1488
Vsentences
p1489
atp1490
Rp1491
(dp1492
g16
VNNS
p1493
sbatp1494
Rp1495
(dp1496
g16
VNP
p1497
sbag5
(g6
g7
(lp1498
g5
(g6
g7
(lp1499
g5
(g6
g7
(lp1500
Vwhich
p1501
atp1502
Rp1503
(dp1504
g16
VWDT
p1505
sbatp1506
Rp1507
(dp1508
g16
VWHNP
p1509
sbag5
(g6
g7
(lp1510
g5
(g6
g7
(lp1511
g5
(g6
g7
(lp1512
Vwill
p1513
atp1514
Rp1515
(dp1516
g16
VMD
p1517
sbag5
(g6
g7
(lp1518
g5
(g6
g7
(lp1519
Vbe
p1520
atp1521
Rp1522
(dp1523
g16
VVB
p1524
sbag5
(g6
g7
(lp1525
g5
(g6
g7
(lp1526
Vperceived
p1527
atp1528
Rp1529
(dp1530
g16
VVBN
p1531
sbag5
(g6
g7
(lp1532
g5
(g6
g7
(lp1533
g5
(g6
g7
(lp1534
Vto
p1535
atp1536
Rp1537
(dp1538
g16
VTO
p1539
sbag5
(g6
g7
(lp1540
g5
(g6
g7
(lp1541
Vbe
p1542
atp1543
Rp1544
(dp1545
g16
VVB
p1546
sbag5
(g6
g7
(lp1547
g5
(g6
g7
(lp1548
Vmore
p1549
atp1550
Rp1551
(dp1552
g16
VRBR
p1553
sbag5
(g6
g7
(lp1554
Vcomplex
p1555
atp1556
Rp1557
(dp1558
g16
VJJ
p1559
sbag5
(g6
g7
(lp1560
g5
(g6
g7
(lp1561
Vthan
p1562
atp1563
Rp1564
(dp1565
g16
VIN
p1566
sbag5
(g6
g7
(lp1567
g5
(g6
g7
(lp1568
Vothers
p1569
atp1570
Rp1571
(dp1572
g16
VNNS
p1573
sbatp1574
Rp1575
(dp1576
g16
VNP
p1577
sbatp1578
Rp1579
(dp1580
g16
VPP
p1581
sbatp1582
Rp1583
(dp1584
g16
VADJP
p1585
sbatp1586
Rp1587
(dp1588
g16
VVP
p1589
sbatp1590
Rp1591
(dp1592
g16
VVP
p1593
sbatp1594
Rp1595
(dp1596
g16
g199
sbatp1597
Rp1598
(dp1599
g16
VVP
p1600
sbatp1601
Rp1602
(dp1603
g16
VVP
p1604
sbatp1605
Rp1606
(dp1607
g16
VVP
p1608
sbatp1609
Rp1610
(dp1611
g16
g199
sbatp1612
Rp1613
(dp1614
g16
VSBAR
p1615
sbatp1616
Rp1617
(dp1618
g16
VNP
p1619
sbatp1620
Rp1621
(dp1622
g16
VVP
p1623
sbatp1624
Rp1625
(dp1626
g16
g199
sbatp1627
Rp1628
(dp1629
g16
VROOT
p1630
sbasg287
(icmyPackage
CorE
p1631
(dp1632
g290
(lp1633
(I0
I0
tp1634
a(I0
I67
tp1635
asg294
g1316
sbsg295
(icmyPackage
CorE
p1636
(dp1637
g290
(lp1638
(I1
I1
tp1639
a(I1
I22
tp1640
asg294
g5
(g6
g7
(lp1641
g1381
ag1461
ag1466
ag1476
ag1621
atp1642
Rp1643
(dp1644
g16
g305
sbsbsg306
(icmyPackage
pattern
p1645
(dp1646
g309
I35
sg310
I1
sg311
(lp1647
(lp1648
S'thus'
p1649
aasg317
(lp1650
I1
aI1
aI1
asg319
(lp1651
S'Japan will be on the dark side of the Earth, and thus will lack the warming influence of the Sun.'
p1652
asg322
I2
sg323
(lp1653
(lp1654
S'&C'
p1655
aS'(,/;/./--)'
p1656
aS'(&AND)'
p1657
aa(lp1658
S'&R'
p1659
aasbsg330
(lp1660
g1359
a(isxpPackage
sxpSent
p1661
(dp1662
g334
(lp1663
I3
asg336
VThus, independent of how good the annotator is, there are sentences which will be perceived to be more complex than others
p1664
sg338
I2
sg322
I12
sg339
I1
sbasba(icmyPackage
CELink
p1665
(dp1666
g3
(lp1667
g5
(g6
g7
(lp1668
g5
(g6
g7
(lp1669
g5
(g6
g7
(lp1670
g5
(g6
g7
(lp1671
VIf
p1672
atp1673
Rp1674
(dp1675
g16
VIN
p1676
sbag5
(g6
g7
(lp1677
g5
(g6
g7
(lp1678
g5
(g6
g7
(lp1679
g5
(g6
g7
(lp1680
Vthe
p1681
atp1682
Rp1683
(dp1684
g16
VDT
p1685
sbag5
(g6
g7
(lp1686
Vcomplexity
p1687
atp1688
Rp1689
(dp1690
g16
VNN
p1691
sbatp1692
Rp1693
(dp1694
g16
VNP
p1695
sbag5
(g6
g7
(lp1696
g5
(g6
g7
(lp1697
Vof
p1698
atp1699
Rp1700
(dp1701
g16
VIN
p1702
sbag5
(g6
g7
(lp1703
g5
(g6
g7
(lp1704
Vthe
p1705
atp1706
Rp1707
(dp1708
g16
VDT
p1709
sbag5
(g6
g7
(lp1710
Vtext
p1711
atp1712
Rp1713
(dp1714
g16
VNN
p1715
sbatp1716
Rp1717
(dp1718
g16
VNP
p1719
sbatp1720
Rp1721
(dp1722
g16
VPP
p1723
sbatp1724
Rp1725
(dp1726
g16
VNP
p1727
sbag5
(g6
g7
(lp1728
g5
(g6
g7
(lp1729
Vcan
p1730
atp1731
Rp1732
(dp1733
g16
VMD
p1734
sbag5
(g6
g7
(lp1735
g5
(g6
g7
(lp1736
Vbe
p1737
atp1738
Rp1739
(dp1740
g16
VVB
p1741
sbag5
(g6
g7
(lp1742
g5
(g6
g7
(lp1743
Vestimated
p1744
atp1745
Rp1746
(dp1747
g16
VVBN
p1748
sbag5
(g6
g7
(lp1749
g5
(g6
g7
(lp1750
Veven
p1751
atp1752
Rp1753
(dp1754
g16
VRB
p1755
sbag5
(g6
g7
(lp1756
Vbefore
p1757
atp1758
Rp1759
(dp1760
g16
VIN
p1761
sbag5
(g6
g7
(lp1762
g5
(g6
g7
(lp1763
g5
(g6
g7
(lp1764
Vthe
p1765
atp1766
Rp1767
(dp1768
g16
VDT
p1769
sbag5
(g6
g7
(lp1770
Vannotation
p1771
atp1772
Rp1773
(dp1774
g16
VNN
p1775
sbatp1776
Rp1777
(dp1778
g16
VNP
p1779
sbag5
(g6
g7
(lp1780
g5
(g6
g7
(lp1781
Vbegins
p1782
atp1783
Rp1784
(dp1785
g16
VVBZ
p1786
sbatp1787
Rp1788
(dp1789
g16
VVP
p1790
sbatp1791
Rp1792
(dp1793
g16
g199
sbatp1794
Rp1795
(dp1796
g16
VSBAR
p1797
sbatp1798
Rp1799
(dp1800
g16
VVP
p1801
sbatp1802
Rp1803
(dp1804
g16
VVP
p1805
sbatp1806
Rp1807
(dp1808
g16
VVP
p1809
sbatp1810
Rp1811
(dp1812
g16
g199
sbatp1813
Rp1814
(dp1815
g16
VSBAR
p1816
sbag5
(g6
g7
(lp1817
g51
atp1818
Rp1819
(dp1820
g16
g51
sbag5
(g6
g7
(lp1821
g5
(g6
g7
(lp1822
Vthe
p1823
atp1824
Rp1825
(dp1826
g16
VDT
p1827
sbag5
(g6
g7
(lp1828
Vpricing
p1829
atp1830
Rp1831
(dp1832
g16
VNN
p1833
sbag5
(g6
g7
(lp1834
Vmodel
p1835
atp1836
Rp1837
(dp1838
g16
VNN
p1839
sbatp1840
Rp1841
(dp1842
g16
VNP
p1843
sbag5
(g6
g7
(lp1844
g5
(g6
g7
(lp1845
Vcan
p1846
atp1847
Rp1848
(dp1849
g16
VMD
p1850
sbag5
(g6
g7
(lp1851
g5
(g6
g7
(lp1852
Vbe
p1853
atp1854
Rp1855
(dp1856
g16
VVB
p1857
sbag5
(g6
g7
(lp1858
g5
(g6
g7
(lp1859
Vfine-tuned
p1860
atp1861
Rp1862
(dp1863
g16
VVBN
p1864
sbag5
(g6
g7
(lp1865
V-LRB-
p1866
atp1867
Rp1868
(dp1869
g16
V-LRB-
p1870
sbag5
(g6
g7
(lp1871
g5
(g6
g7
(lp1872
Vpay
p1873
atp1874
Rp1875
(dp1876
g16
VNN
p1877
sbatp1878
Rp1879
(dp1880
g16
VNP
p1881
sbag5
(g6
g7
(lp1882
g5
(g6
g7
(lp1883
Vless
p1884
atp1885
Rp1886
(dp1887
g16
VCC
p1888
sbag5
(g6
g7
(lp1889
g5
(g6
g7
(lp1890
Vfor
p1891
atp1892
Rp1893
(dp1894
g16
VIN
p1895
sbag5
(g6
g7
(lp1896
g5
(g6
g7
(lp1897
g5
(g6
g7
(lp1898
Vsentences
p1899
atp1900
Rp1901
(dp1902
g16
VNNS
p1903
sbatp1904
Rp1905
(dp1906
g16
VNP
p1907
sbag5
(g6
g7
(lp1908
g5
(g6
g7
(lp1909
g5
(g6
g7
(lp1910
Vthat
p1911
atp1912
Rp1913
(dp1914
g16
VWDT
p1915
sbatp1916
Rp1917
(dp1918
g16
VWHNP
p1919
sbag5
(g6
g7
(lp1920
g5
(g6
g7
(lp1921
g5
(g6
g7
(lp1922
Vare
p1923
atp1924
Rp1925
(dp1926
g16
VVBP
p1927
sbag5
(g6
g7
(lp1928
g5
(g6
g7
(lp1929
Veasy
p1930
atp1931
Rp1932
(dp1933
g16
VJJ
p1934
sbag5
(g6
g7
(lp1935
g5
(g6
g7
(lp1936
g5
(g6
g7
(lp1937
Vto
p1938
atp1939
Rp1940
(dp1941
g16
VTO
p1942
sbag5
(g6
g7
(lp1943
g5
(g6
g7
(lp1944
Vannotate
p1945
atp1946
Rp1947
(dp1948
g16
VVB
p1949
sbatp1950
Rp1951
(dp1952
g16
VVP
p1953
sbatp1954
Rp1955
(dp1956
g16
VVP
p1957
sbatp1958
Rp1959
(dp1960
g16
g199
sbatp1961
Rp1962
(dp1963
g16
VADJP
p1964
sbatp1965
Rp1966
(dp1967
g16
VVP
p1968
sbatp1969
Rp1970
(dp1971
g16
g199
sbatp1972
Rp1973
(dp1974
g16
VSBAR
p1975
sbatp1976
Rp1977
(dp1978
g16
VNP
p1979
sbatp1980
Rp1981
(dp1982
g16
VPP
p1983
sbag5
(g6
g7
(lp1984
g51
atp1985
Rp1986
(dp1987
g16
g51
sbag5
(g6
g7
(lp1988
g5
(g6
g7
(lp1989
Vfor
p1990
atp1991
Rp1992
(dp1993
g16
VIN
p1994
sbag5
(g6
g7
(lp1995
g5
(g6
g7
(lp1996
Vexample
p1997
atp1998
Rp1999
(dp2000
g16
VNN
p2001
sbatp2002
Rp2003
(dp2004
g16
VNP
p2005
sbatp2006
Rp2007
(dp2008
g16
VPP
p2009
sbatp2010
Rp2011
(dp2012
g16
VPP
p2013
sbatp2014
Rp2015
(dp2016
g16
VVP
p2017
sbatp2018
Rp2019
(dp2020
g16
VVP
p2021
sbatp2022
Rp2023
(dp2024
g16
VVP
p2025
sbatp2026
Rp2027
(dp2028
g16
g199
sbatp2029
Rp2030
(dp2031
g16
VROOT
p2032
sbasg287
(icmyPackage
CorE
p2033
(dp2034
g290
(lp2035
(I0
I1
tp2036
a(I0
I13
tp2037
asg294
g1811
sbsg295
(icmyPackage
CorE
p2038
(dp2039
g290
(lp2040
(I0
I15
tp2041
a(I0
I33
tp2042
asg294
g5
(g6
g7
(lp2043
g1841
ag2023
atp2044
Rp2045
(dp2046
g16
g305
sbsbsg306
(icmyPackage
pattern
p2047
(dp2048
g309
I0
sg310
I0
sg311
(lp2049
(lp2050
(lp2051
S'if'
p2052
aS'once'
p2053
aaa(lp2054
g316
aasg317
(lp2055
I1
aI1
aI1
asg319
(lp2056
S'If some light and mobile detection devices can be invented in the future, many new applications can be imagined, for example, people can get some services while thinking.'
p2057
asg322
I15
sg323
(lp2058
(lp2059
a(lp2060
S'&C@Complete@'
p2061
aa(lp2062
S'&R@Complete@'
p2063
aasbsg330
(lp2064
(isxpPackage
sxpSent
p2065
(dp2066
g334
(lp2067
I4
asg336
VIf the complexity of the text can be estimated even before the annotation begins , the pricing model can be fine-tuned (pay less for sentences that are easy to annotate, for example
p2068
sg338
I2
sg322
I18
sg339
I2
sbasba(icmyPackage
CELink
p2069
(dp2070
g3
(lp2071
g5
(g6
g7
(lp2072
g5
(g6
g7
(lp2073
g5
(g6
g7
(lp2074
g5
(g6
g7
(lp2075
VAlso
p2076
atp2077
Rp2078
(dp2079
g16
VRB
p2080
sbatp2081
Rp2082
(dp2083
g16
VADVP
p2084
sbag5
(g6
g7
(lp2085
g51
atp2086
Rp2087
(dp2088
g16
g51
sbag5
(g6
g7
(lp2089
g5
(g6
g7
(lp2090
Vin
p2091
atp2092
Rp2093
(dp2094
g16
VIN
p2095
sbag5
(g6
g7
(lp2096
g5
(g6
g7
(lp2097
g5
(g6
g7
(lp2098
Vterms
p2099
atp2100
Rp2101
(dp2102
g16
VNNS
p2103
sbatp2104
Rp2105
(dp2106
g16
VNP
p2107
sbag5
(g6
g7
(lp2108
g5
(g6
g7
(lp2109
Vof
p2110
atp2111
Rp2112
(dp2113
g16
VIN
p2114
sbag5
(g6
g7
(lp2115
g5
(g6
g7
(lp2116
g5
(g6
g7
(lp2117
Van
p2118
atp2119
Rp2120
(dp2121
g16
VDT
p2122
sbag5
(g6
g7
(lp2123
Vautomatic
p2124
atp2125
Rp2126
(dp2127
g16
VJJ
p2128
sbag5
(g6
g7
(lp2129
VSA
p2130
atp2131
Rp2132
(dp2133
g16
VNNP
p2134
sbag5
(g6
g7
(lp2135
Vengine
p2136
atp2137
Rp2138
(dp2139
g16
VNN
p2140
sbatp2141
Rp2142
(dp2143
g16
VNP
p2144
sbag5
(g6
g7
(lp2145
g5
(g6
g7
(lp2146
g5
(g6
g7
(lp2147
Vwhich
p2148
atp2149
Rp2150
(dp2151
g16
VWDT
p2152
sbatp2153
Rp2154
(dp2155
g16
VWHNP
p2156
sbag5
(g6
g7
(lp2157
g5
(g6
g7
(lp2158
g5
(g6
g7
(lp2159
Vhas
p2160
atp2161
Rp2162
(dp2163
g16
VVBZ
p2164
sbag5
(g6
g7
(lp2165
g5
(g6
g7
(lp2166
g5
(g6
g7
(lp2167
Vmultiple
p2168
atp2169
Rp2170
(dp2171
g16
VJJ
p2172
sbag5
(g6
g7
(lp2173
Vclassifiers
p2174
atp2175
Rp2176
(dp2177
g16
VNNS
p2178
sbatp2179
Rp2180
(dp2181
g16
VNP
p2182
sbag5
(g6
g7
(lp2183
g5
(g6
g7
(lp2184
Vin
p2185
atp2186
Rp2187
(dp2188
g16
VIN
p2189
sbag5
(g6
g7
(lp2190
g5
(g6
g7
(lp2191
Vits
p2192
atp2193
Rp2194
(dp2195
g16
VPRP$
p2196
sbag5
(g6
g7
(lp2197
Vensemble
p2198
atp2199
Rp2200
(dp2201
g16
VNN
p2202
sbatp2203
Rp2204
(dp2205
g16
VNP
p2206
sbatp2207
Rp2208
(dp2209
g16
VPP
p2210
sbatp2211
Rp2212
(dp2213
g16
VNP
p2214
sbatp2215
Rp2216
(dp2217
g16
VVP
p2218
sbatp2219
Rp2220
(dp2221
g16
g199
sbatp2222
Rp2223
(dp2224
g16
VSBAR
p2225
sbatp2226
Rp2227
(dp2228
g16
VNP
p2229
sbatp2230
Rp2231
(dp2232
g16
VPP
p2233
sbatp2234
Rp2235
(dp2236
g16
VNP
p2237
sbatp2238
Rp2239
(dp2240
g16
VPP
p2241
sbag5
(g6
g7
(lp2242
g51
atp2243
Rp2244
(dp2245
g16
g51
sbag5
(g6
g7
(lp2246
g5
(g6
g7
(lp2247
g115
atp2248
Rp2249
(dp2250
g16
VDT
p2251
sbag5
(g6
g7
(lp2252
Vclassifier
p2253
atp2254
Rp2255
(dp2256
g16
VNN
p2257
sbatp2258
Rp2259
(dp2260
g16
VNP
p2261
sbag5
(g6
g7
(lp2262
g5
(g6
g7
(lp2263
Vmay
p2264
atp2265
Rp2266
(dp2267
g16
VMD
p2268
sbag5
(g6
g7
(lp2269
g5
(g6
g7
(lp2270
Vbe
p2271
atp2272
Rp2273
(dp2274
g16
VVB
p2275
sbag5
(g6
g7
(lp2276
g5
(g6
g7
(lp2277
Vchosen
p2278
atp2279
Rp2280
(dp2281
g16
VVBN
p2282
sbag5
(g6
g7
(lp2283
g5
(g6
g7
(lp2284
Vbased
p2285
atp2286
Rp2287
(dp2288
g16
VVBN
p2289
sbag5
(g6
g7
(lp2290
g5
(g6
g7
(lp2291
Von
p2292
atp2293
Rp2294
(dp2295
g16
VIN
p2296
sbag5
(g6
g7
(lp2297
g5
(g6
g7
(lp2298
g5
(g6
g7
(lp2299
Vthe
p2300
atp2301
Rp2302
(dp2303
g16
VDT
p2304
sbag5
(g6
g7
(lp2305
Vcomplexity
p2306
atp2307
Rp2308
(dp2309
g16
VNN
p2310
sbatp2311
Rp2312
(dp2313
g16
VNP
p2314
sbag5
(g6
g7
(lp2315
g5
(g6
g7
(lp2316
Vof
p2317
atp2318
Rp2319
(dp2320
g16
VIN
p2321
sbag5
(g6
g7
(lp2322
g5
(g6
g7
(lp2323
Vsentiment
p2324
atp2325
Rp2326
(dp2327
g16
VNN
p2328
sbag5
(g6
g7
(lp2329
Vannotation
p2330
atp2331
Rp2332
(dp2333
g16
VNN
p2334
sbatp2335
Rp2336
(dp2337
g16
VNP
p2338
sbatp2339
Rp2340
(dp2341
g16
VPP
p2342
sbag5
(g6
g7
(lp2343
g5
(g6
g7
(lp2344
V-LRB-
p2345
atp2346
Rp2347
(dp2348
g16
V-LRB-
p2349
sbag5
(g6
g7
(lp2350
g5
(g6
g7
(lp2351
Vfor
p2352
atp2353
Rp2354
(dp2355
g16
VIN
p2356
sbag5
(g6
g7
(lp2357
g5
(g6
g7
(lp2358
Vexample
p2359
atp2360
Rp2361
(dp2362
g16
VNN
p2363
sbatp2364
Rp2365
(dp2366
g16
VNP
p2367
sbatp2368
Rp2369
(dp2370
g16
VPP
p2371
sbag5
(g6
g7
(lp2372
g51
atp2373
Rp2374
(dp2375
g16
g51
sbag5
(g6
g7
(lp2376
g5
(g6
g7
(lp2377
g5
(g6
g7
(lp2378
g5
(g6
g7
(lp2379
Vuse
p2380
atp2381
Rp2382
(dp2383
g16
VVB
p2384
sbag5
(g6
g7
(lp2385
g5
(g6
g7
(lp2386
g115
atp2387
Rp2388
(dp2389
g16
VDT
p2390
sbag5
(g6
g7
(lp2391
Vrule-based
p2392
atp2393
Rp2394
(dp2395
g16
VJJ
p2396
sbag5
(g6
g7
(lp2397
Vclassifier
p2398
atp2399
Rp2400
(dp2401
g16
VNN
p2402
sbatp2403
Rp2404
(dp2405
g16
VNP
p2406
sbatp2407
Rp2408
(dp2409
g16
VVP
p2410
sbag5
(g6
g7
(lp2411
g5
(g6
g7
(lp2412
Vfor
p2413
atp2414
Rp2415
(dp2416
g16
VIN
p2417
sbag5
(g6
g7
(lp2418
g5
(g6
g7
(lp2419
Vsimple
p2420
atp2421
Rp2422
(dp2423
g16
VJJ
p2424
sbag5
(g6
g7
(lp2425
Vsentences
p2426
atp2427
Rp2428
(dp2429
g16
VNNS
p2430
sbatp2431
Rp2432
(dp2433
g16
VNP
p2434
sbatp2435
Rp2436
(dp2437
g16
VPP
p2438
sbatp2439
Rp2440
(dp2441
g16
VNP
p2442
sbag5
(g6
g7
(lp2443
Vand
p2444
atp2445
Rp2446
(dp2447
g16
VCC
p2448
sbag5
(g6
g7
(lp2449
g5
(g6
g7
(lp2450
g5
(g6
g7
(lp2451
g115
atp2452
Rp2453
(dp2454
g16
VDT
p2455
sbag5
(g6
g7
(lp2456
g5
(g6
g7
(lp2457
Vmore
p2458
atp2459
Rp2460
(dp2461
g16
VRBR
p2462
sbag5
(g6
g7
(lp2463
Vcomplex
p2464
atp2465
Rp2466
(dp2467
g16
VJJ
p2468
sbatp2469
Rp2470
(dp2471
g16
VADJP
p2472
sbag5
(g6
g7
(lp2473
Vclassifier
p2474
atp2475
Rp2476
(dp2477
g16
VNN
p2478
sbatp2479
Rp2480
(dp2481
g16
VNP
p2482
sbag5
(g6
g7
(lp2483
g5
(g6
g7
(lp2484
Vfor
p2485
atp2486
Rp2487
(dp2488
g16
VIN
p2489
sbag5
(g6
g7
(lp2490
g5
(g6
g7
(lp2491
Vother
p2492
atp2493
Rp2494
(dp2495
g16
VJJ
p2496
sbag5
(g6
g7
(lp2497
Vsentences
p2498
atp2499
Rp2500
(dp2501
g16
VNNS
p2502
sbatp2503
Rp2504
(dp2505
g16
VNP
p2506
sbatp2507
Rp2508
(dp2509
g16
VPP
p2510
sbatp2511
Rp2512
(dp2513
g16
VNP
p2514
sbatp2515
Rp2516
(dp2517
g16
VNP
p2518
sbatp2519
Rp2520
(dp2521
g16
VPRN
p2522
sbatp2523
Rp2524
(dp2525
g16
VNP
p2526
sbatp2527
Rp2528
(dp2529
g16
VPP
p2530
sbatp2531
Rp2532
(dp2533
g16
VPP
p2534
sbatp2535
Rp2536
(dp2537
g16
VVP
p2538
sbatp2539
Rp2540
(dp2541
g16
VVP
p2542
sbatp2543
Rp2544
(dp2545
g16
VVP
p2546
sbatp2547
Rp2548
(dp2549
g16
g199
sbatp2550
Rp2551
(dp2552
g16
VROOT
p2553
sbasg287
(icmyPackage
CorE
p2554
(dp2555
g290
(lp2556
(I0
I24
tp2557
a(I0
I28
tp2558
asg294
g5
(g6
g7
(lp2559
g2312
ag2340
atp2560
Rp2561
(dp2562
g16
g305
sbsbsg295
(icmyPackage
CorE
p2563
(dp2564
g290
(lp2565
(I0
I33
tp2566
a(I0
I38
tp2567
asg294
g5
(g6
g7
(lp2568
g2408
ag2415
ag2422
atp2569
Rp2570
(dp2571
g16
g305
sbsbsg306
(icmyPackage
pattern
p2572
(dp2573
g309
I0
sg310
I0
sg311
(lp2574
(lp2575
S'based'
p2576
aS'on'
p2577
aa(lp2578
g316
aasg317
(lp2579
I2
aI1
aI1
asg319
(lp2580
S"He said that, based on his own experience, more students have been going back in recent years as their home countries' economies heat up."
p2581
asg322
I47
sg323
(lp2582
(lp2583
a(lp2584
S'&V-ing/&NP@C@'
p2585
aS'(&Clause@C@)'
p2586
aa(lp2587
S'&R'
p2588
aasbsg330
(lp2589
(isxpPackage
sxpSent
p2590
(dp2591
g334
(lp2592
I5
asg336
VAlso, in terms of an automatic SA engine which has multiple classifiers in its ensemble, a classifier may be chosen based on the complexity of sentiment annotation (for example, use a rule-based classifier for simple sentences and a more complex classifier for other sentences
p2593
sg338
I2
sg322
I19
sg339
I2
sbasba(icmyPackage
CELink
p2594
(dp2595
g3
(lp2596
g5
(g6
g7
(lp2597
g5
(g6
g7
(lp2598
g5
(g6
g7
(lp2599
g5
(g6
g7
(lp2600
g5
(g6
g7
(lp2601
VThe
p2602
atp2603
Rp2604
(dp2605
g16
VDT
p2606
sbag5
(g6
g7
(lp2607
Vnext
p2608
atp2609
Rp2610
(dp2611
g16
VJJ
p2612
sbag5
(g6
g7
(lp2613
Vlevel
p2614
atp2615
Rp2616
(dp2617
g16
VNN
p2618
sbatp2619
Rp2620
(dp2621
g16
VNP
p2622
sbag5
(g6
g7
(lp2623
g5
(g6
g7
(lp2624
Vof
p2625
atp2626
Rp2627
(dp2628
g16
VIN
p2629
sbag5
(g6
g7
(lp2630
g5
(g6
g7
(lp2631
Vsentiment
p2632
atp2633
Rp2634
(dp2635
g16
VNN
p2636
sbag5
(g6
g7
(lp2637
Vannotation
p2638
atp2639
Rp2640
(dp2641
g16
VNN
p2642
sbag5
(g6
g7
(lp2643
Vcomplexity
p2644
atp2645
Rp2646
(dp2647
g16
VNN
p2648
sbatp2649
Rp2650
(dp2651
g16
VNP
p2652
sbatp2653
Rp2654
(dp2655
g16
VPP
p2656
sbatp2657
Rp2658
(dp2659
g16
VNP
p2660
sbag5
(g6
g7
(lp2661
g5
(g6
g7
(lp2662
Varises
p2663
atp2664
Rp2665
(dp2666
g16
VVBZ
p2667
sbag5
(g6
g7
(lp2668
g5
(g6
g7
(lp2669
Vdue
p2670
atp2671
Rp2672
(dp2673
g16
VJJ
p2674
sbag5
(g6
g7
(lp2675
g5
(g6
g7
(lp2676
Vto
p2677
atp2678
Rp2679
(dp2680
g16
VTO
p2681
sbag5
(g6
g7
(lp2682
g5
(g6
g7
(lp2683
Vsyntactic
p2684
atp2685
Rp2686
(dp2687
g16
VJJ
p2688
sbag5
(g6
g7
(lp2689
Vcomplexity
p2690
atp2691
Rp2692
(dp2693
g16
VNN
p2694
sbatp2695
Rp2696
(dp2697
g16
VNP
p2698
sbatp2699
Rp2700
(dp2701
g16
VPP
p2702
sbatp2703
Rp2704
(dp2705
g16
VADJP
p2706
sbatp2707
Rp2708
(dp2709
g16
VVP
p2710
sbatp2711
Rp2712
(dp2713
g16
g199
sbatp2714
Rp2715
(dp2716
g16
VROOT
p2717
sbasg287
(icmyPackage
CorE
p2718
(dp2719
g290
(lp2720
(I0
I10
tp2721
a(I0
I11
tp2722
asg294
g2696
sbsg295
(icmyPackage
CorE
p2723
(dp2724
g290
(lp2725
(I0
I0
tp2726
a(I0
I7
tp2727
asg294
g5
(g6
g7
(lp2728
g2658
ag2665
atp2729
Rp2730
(dp2731
g16
g305
sbsbsg306
(icmyPackage
pattern
p2732
(dp2733
g309
I0
sg310
I0
sg311
(lp2734
(lp2735
S'due'
p2736
aS'to'
p2737
aasg317
(lp2738
I2
aI1
aI1
asg319
(lp2739
S'Data stored on hard disks is at higher risk due to the mechanical nature of the device.'
p2740
asg322
I72
sg323
(lp2741
(lp2742
S'&R'
p2743
aa(lp2744
S'&NP@C@'
p2745
aasbsg330
(lp2746
(isxpPackage
sxpSent
p2747
(dp2748
g334
(lp2749
I6
asg336
VThe next level of sentiment annotation complexity arises due to syntactic complexity
p2750
sg338
I3
sg322
I35
sg339
I7
sbasba(icmyPackage
CELink
p2751
(dp2752
g3
(lp2753
g5
(g6
g7
(lp2754
g5
(g6
g7
(lp2755
g5
(g6
g7
(lp2756
g5
(g6
g7
(lp2757
g5
(g6
g7
(lp2758
VConsider
p2759
atp2760
Rp2761
(dp2762
g16
VVB
p2763
sbag5
(g6
g7
(lp2764
g5
(g6
g7
(lp2765
g5
(g6
g7
(lp2766
g5
(g6
g7
(lp2767
g5
(g6
g7
(lp2768
Vthe
p2769
atp2770
Rp2771
(dp2772
g16
VDT
p2773
sbag5
(g6
g7
(lp2774
Vreview
p2775
atp2776
Rp2777
(dp2778
g16
VNN
p2779
sbag5
(g6
g7
(lp2780
g828
atp2781
Rp2782
(dp2783
g16
VNN
p2784
sbag5
(g6
g7
(lp2785
g834
atp2786
Rp2787
(dp2788
g16
VPOS
p2789
sbatp2790
Rp2791
(dp2792
g16
VNP
p2793
sbag5
(g6
g7
(lp2794
V\u005c
p2795
atp2796
Rp2797
(dp2798
g16
VJJ
p2799
sbag5
(g6
g7
(lp2800
Vu201c
p2801
atp2802
Rp2803
(dp2804
g16
VNNS
p2805
sbag5
(g6
g7
(lp2806
g834
atp2807
Rp2808
(dp2809
g16
VPOS
p2810
sbatp2811
Rp2812
(dp2813
g16
VNP
p2814
sbag5
(g6
g7
(lp2815
g5
(g6
g7
(lp2816
VA
p2817
atp2818
Rp2819
(dp2820
g16
VDT
p2821
sbag5
(g6
g7
(lp2822
g5
(g6
g7
(lp2823
g5
(g6
g7
(lp2824
Vsomewhat
p2825
atp2826
Rp2827
(dp2828
g16
VRB
p2829
sbag5
(g6
g7
(lp2830
Vcrudely
p2831
atp2832
Rp2833
(dp2834
g16
VRB
p2835
sbag5
(g6
g7
(lp2836
Vconstructed
p2837
atp2838
Rp2839
(dp2840
g16
VJJ
p2841
sbatp2842
Rp2843
(dp2844
g16
VADJP
p2845
sbag5
(g6
g7
(lp2846
Vbut
p2847
atp2848
Rp2849
(dp2850
g16
VCC
p2851
sbag5
(g6
g7
(lp2852
g5
(g6
g7
(lp2853
Vgripping
p2854
atp2855
Rp2856
(dp2857
g16
VJJ
p2858
sbatp2859
Rp2860
(dp2861
g16
VADJP
p2862
sbatp2863
Rp2864
(dp2865
g16
VADJP
p2866
sbag5
(g6
g7
(lp2867
g51
atp2868
Rp2869
(dp2870
g16
g51
sbag5
(g6
g7
(lp2871
g5
(g6
g7
(lp2872
Vquesting
p2873
atp2874
Rp2875
(dp2876
g16
VJJ
p2877
sbatp2878
Rp2879
(dp2880
g16
VADJP
p2881
sbatp2882
Rp2883
(dp2884
g16
VADJP
p2885
sbag5
(g6
g7
(lp2886
Vlook
p2887
atp2888
Rp2889
(dp2890
g16
VNN
p2891
sbatp2892
Rp2893
(dp2894
g16
VNP
p2895
sbag5
(g6
g7
(lp2896
g5
(g6
g7
(lp2897
Vat
p2898
atp2899
Rp2900
(dp2901
g16
VIN
p2902
sbag5
(g6
g7
(lp2903
g5
(g6
g7
(lp2904
g5
(g6
g7
(lp2905
g115
atp2906
Rp2907
(dp2908
g16
VDT
p2909
sbag5
(g6
g7
(lp2910
Vperson
p2911
atp2912
Rp2913
(dp2914
g16
VNN
p2915
sbatp2916
Rp2917
(dp2918
g16
VNP
p2919
sbag5
(g6
g7
(lp2920
g5
(g6
g7
(lp2921
g5
(g6
g7
(lp2922
Vso
p2923
atp2924
Rp2925
(dp2926
g16
VRB
p2927
sbatp2928
Rp2929
(dp2930
g16
VADVP
p2931
sbag5
(g6
g7
(lp2932
Vracked
p2933
atp2934
Rp2935
(dp2936
g16
VVBN
p2937
sbag5
(g6
g7
(lp2938
g5
(g6
g7
(lp2939
Vwith
p2940
atp2941
Rp2942
(dp2943
g16
VIN
p2944
sbag5
(g6
g7
(lp2945
g5
(g6
g7
(lp2946
Vself-loathing
p2947
atp2948
Rp2949
(dp2950
g16
VNN
p2951
sbatp2952
Rp2953
(dp2954
g16
VNP
p2955
sbatp2956
Rp2957
(dp2958
g16
VPP
p2959
sbatp2960
Rp2961
(dp2962
g16
VVP
p2963
sbatp2964
Rp2965
(dp2966
g16
VNP
p2967
sbatp2968
Rp2969
(dp2970
g16
VPP
p2971
sbatp2972
Rp2973
(dp2974
g16
VNP
p2975
sbatp2976
Rp2977
(dp2978
g16
VVP
p2979
sbatp2980
Rp2981
(dp2982
g16
g199
sbag5
(g6
g7
(lp2983
g51
atp2984
Rp2985
(dp2986
g16
g51
sbag5
(g6
g7
(lp2987
g5
(g6
g7
(lp2988
Vhe
p2989
atp2990
Rp2991
(dp2992
g16
VPRP
p2993
sbatp2994
Rp2995
(dp2996
g16
VNP
p2997
sbag5
(g6
g7
(lp2998
g5
(g6
g7
(lp2999
Vbecomes
p3000
atp3001
Rp3002
(dp3003
g16
VVBZ
p3004
sbag5
(g6
g7
(lp3005
g5
(g6
g7
(lp3006
g5
(g6
g7
(lp3007
g5
(g6
g7
(lp3008
Van
p3009
atp3010
Rp3011
(dp3012
g16
VDT
p3013
sbag5
(g6
g7
(lp3014
Venemy
p3015
atp3016
Rp3017
(dp3018
g16
VNN
p3019
sbatp3020
Rp3021
(dp3022
g16
VNP
p3023
sbag5
(g6
g7
(lp3024
g5
(g6
g7
(lp3025
Vto
p3026
atp3027
Rp3028
(dp3029
g16
VTO
p3030
sbag5
(g6
g7
(lp3031
g5
(g6
g7
(lp3032
Vhis
p3033
atp3034
Rp3035
(dp3036
g16
VPRP$
p3037
sbag5
(g6
g7
(lp3038
Vown
p3039
atp3040
Rp3041
(dp3042
g16
VJJ
p3043
sbag5
(g6
g7
(lp3044
Vrace
p3045
atp3046
Rp3047
(dp3048
g16
VNN
p3049
sbag5
(g6
g7
(lp3050
g828
atp3051
Rp3052
(dp3053
g16
VNN
p3054
sbatp3055
Rp3056
(dp3057
g16
VNP
p3058
sbatp3059
Rp3060
(dp3061
g16
VPP
p3062
sbag5
(g6
g7
(lp3063
g834
atp3064
Rp3065
(dp3066
g16
VPOS
p3067
sbatp3068
Rp3069
(dp3070
g16
VNP
p3071
sbag5
(g6
g7
(lp3072
V\u005c
p3073
atp3074
Rp3075
(dp3076
g16
VJJ
p3077
sbag5
(g6
g7
(lp3078
Vu201d
p3079
atp3080
Rp3081
(dp3082
g16
VNN
p3083
sbatp3084
Rp3085
(dp3086
g16
VNP
p3087
sbatp3088
Rp3089
(dp3090
g16
VVP
p3091
sbag5
(g6
g7
(lp3092
g834
atp3093
Rp3094
(dp3095
g16
V''
p3096
sbatp3097
Rp3098
(dp3099
g16
g199
sbatp3100
Rp3101
(dp3102
g16
VROOT
p3103
sbasg287
(icmyPackage
CorE
p3104
(dp3105
g290
(lp3106
(I0
I0
tp3107
a(I0
I19
tp3108
asg294
g5
(g6
g7
(lp3109
g2761
ag2893
ag2900
ag2917
atp3110
Rp3111
(dp3112
g16
g305
sbsbsg295
(icmyPackage
CorE
p3113
(dp3114
g290
(lp3115
(I0
I21
tp3116
a(I0
I37
tp3117
asg294
g5
(g6
g7
(lp3118
g2935
ag2957
ag2985
ag2995
ag3089
ag3094
atp3119
Rp3120
(dp3121
g16
g305
sbsbsg306
(icmyPackage
pattern
p3122
(dp3123
g309
I265
sg310
I1
sg311
(lp3124
(lp3125
S'so'
p3126
aasg317
(lp3127
I1
aI1
aI1
asg319
(lp3128
S'It was not long before he saw me looking at him, and so he began to move.'
p3129
asg322
I0
sg323
(lp3130
(lp3131
S'&C'
p3132
aS'(,/;/./--)'
p3133
aS'(&AND)'
p3134
aa(lp3135
S'(-far)'
p3136
aS'(,)'
p3137
aS'&R'
p3138
aasbsg330
(lp3139
(isxpPackage
sxpSent
p3140
(dp3141
g334
(lp3142
I7
asg336
VConsider the review u'\u005cu201c' A somewhat crudely constructed but gripping, questing look at a person so racked with self-loathing, he becomes an enemy to his own race u'\u005cu201d'
p3143
sg338
I3
sg322
I36
sg339
I7
sbasba(icmyPackage
CELink
p3144
(dp3145
g3
(lp3146
g5
(g6
g7
(lp3147
g5
(g6
g7
(lp3148
g5
(g6
g7
(lp3149
g5
(g6
g7
(lp3150
VAn
p3151
atp3152
Rp3153
(dp3154
g16
VDT
p3155
sbag5
(g6
g7
(lp3156
Vannotator
p3157
atp3158
Rp3159
(dp3160
g16
VNN
p3161
sbatp3162
Rp3163
(dp3164
g16
VNP
p3165
sbag5
(g6
g7
(lp3166
g5
(g6
g7
(lp3167
Vwill
p3168
atp3169
Rp3170
(dp3171
g16
VMD
p3172
sbag5
(g6
g7
(lp3173
g5
(g6
g7
(lp3174
Vface
p3175
atp3176
Rp3177
(dp3178
g16
VVB
p3179
sbag5
(g6
g7
(lp3180
g5
(g6
g7
(lp3181
g5
(g6
g7
(lp3182
g5
(g6
g7
(lp3183
Vdifficulty
p3184
atp3185
Rp3186
(dp3187
g16
VNN
p3188
sbatp3189
Rp3190
(dp3191
g16
VNP
p3192
sbag5
(g6
g7
(lp3193
g5
(g6
g7
(lp3194
Vin
p3195
atp3196
Rp3197
(dp3198
g16
VIN
p3199
sbag5
(g6
g7
(lp3200
g5
(g6
g7
(lp3201
Vcomprehension
p3202
atp3203
Rp3204
(dp3205
g16
VNN
p3206
sbatp3207
Rp3208
(dp3209
g16
VNP
p3210
sbatp3211
Rp3212
(dp3213
g16
VPP
p3214
sbatp3215
Rp3216
(dp3217
g16
VNP
p3218
sbag5
(g6
g7
(lp3219
g5
(g6
g7
(lp3220
Vas
p3221
atp3222
Rp3223
(dp3224
g16
VRB
p3225
sbag5
(g6
g7
(lp3226
Vwell
p3227
atp3228
Rp3229
(dp3230
g16
VRB
p3231
sbag5
(g6
g7
(lp3232
Vas
p3233
atp3234
Rp3235
(dp3236
g16
VIN
p3237
sbatp3238
Rp3239
(dp3240
g16
VCONJP
p3241
sbag5
(g6
g7
(lp3242
g5
(g6
g7
(lp3243
Vsentiment
p3244
atp3245
Rp3246
(dp3247
g16
VNN
p3248
sbag5
(g6
g7
(lp3249
Vjudgment
p3250
atp3251
Rp3252
(dp3253
g16
VNN
p3254
sbatp3255
Rp3256
(dp3257
g16
VNP
p3258
sbatp3259
Rp3260
(dp3261
g16
VNP
p3262
sbag5
(g6
g7
(lp3263
g5
(g6
g7
(lp3264
Vdue
p3265
atp3266
Rp3267
(dp3268
g16
VJJ
p3269
sbag5
(g6
g7
(lp3270
Vto
p3271
atp3272
Rp3273
(dp3274
g16
VTO
p3275
sbag5
(g6
g7
(lp3276
g5
(g6
g7
(lp3277
g5
(g6
g7
(lp3278
Vthe
p3279
atp3280
Rp3281
(dp3282
g16
VDT
p3283
sbag5
(g6
g7
(lp3284
Vcomplicated
p3285
atp3286
Rp3287
(dp3288
g16
VVBN
p3289
sbag5
(g6
g7
(lp3290
Vphrasal
p3291
atp3292
Rp3293
(dp3294
g16
VJJ
p3295
sbag5
(g6
g7
(lp3296
Vstructure
p3297
atp3298
Rp3299
(dp3300
g16
VNN
p3301
sbatp3302
Rp3303
(dp3304
g16
VNP
p3305
sbag5
(g6
g7
(lp3306
g5
(g6
g7
(lp3307
Vin
p3308
atp3309
Rp3310
(dp3311
g16
VIN
p3312
sbag5
(g6
g7
(lp3313
g5
(g6
g7
(lp3314
Vthis
p3315
atp3316
Rp3317
(dp3318
g16
VDT
p3319
sbag5
(g6
g7
(lp3320
Vreview
p3321
atp3322
Rp3323
(dp3324
g16
VNN
p3325
sbatp3326
Rp3327
(dp3328
g16
VNP
p3329
sbatp3330
Rp3331
(dp3332
g16
VPP
p3333
sbatp3334
Rp3335
(dp3336
g16
VNP
p3337
sbatp3338
Rp3339
(dp3340
g16
VPP
p3341
sbatp3342
Rp3343
(dp3344
g16
VVP
p3345
sbatp3346
Rp3347
(dp3348
g16
VVP
p3349
sbatp3350
Rp3351
(dp3352
g16
g199
sbatp3353
Rp3354
(dp3355
g16
VROOT
p3356
sbasg287
(icmyPackage
CorE
p3357
(dp3358
g290
(lp3359
(I0
I14
tp3360
a(I0
I20
tp3361
asg294
g3335
sbsg295
(icmyPackage
CorE
p3362
(dp3363
g290
(lp3364
(I0
I0
tp3365
a(I0
I11
tp3366
asg294
g5
(g6
g7
(lp3367
g3163
ag3170
ag3177
ag3260
atp3368
Rp3369
(dp3370
g16
g305
sbsbsg306
g2732
sg330
(lp3371
(isxpPackage
sxpSent
p3372
(dp3373
g334
(lp3374
I8
asg336
VAn annotator will face difficulty in comprehension as well as sentiment judgment due to the complicated phrasal structure in this review
p3375
sg338
I3
sg322
I37
sg339
I7
sbasba(icmyPackage
CELink
p3376
(dp3377
g3
(lp3378
g5
(g6
g7
(lp3379
g5
(g6
g7
(lp3380
g5
(g6
g7
(lp3381
g5
(g6
g7
(lp3382
g5
(g6
g7
(lp3383
VSarcasm
p3384
atp3385
Rp3386
(dp3387
g16
VRB
p3388
sbatp3389
Rp3390
(dp3391
g16
VADVP
p3392
sbag5
(g6
g7
(lp3393
Vexpressed
p3394
atp3395
Rp3396
(dp3397
g16
VVBN
p3398
sbag5
(g6
g7
(lp3399
g5
(g6
g7
(lp3400
Vin
p3401
atp3402
Rp3403
(dp3404
g16
VIN
p3405
sbag5
(g6
g7
(lp3406
g5
(g6
g7
(lp3407
g5
(g6
g7
(lp3408
g5
(g6
g7
(lp3409
g828
atp3410
Rp3411
(dp3412
g16
VNNP
p3413
sbag5
(g6
g7
(lp3414
g834
atp3415
Rp3416
(dp3417
g16
VPOS
p3418
sbatp3419
Rp3420
(dp3421
g16
VNP
p3422
sbag5
(g6
g7
(lp3423
V\u005c
p3424
atp3425
Rp3426
(dp3427
g16
VNN
p3428
sbag5
(g6
g7
(lp3429
Vu201c
p3430
atp3431
Rp3432
(dp3433
g16
VNN
p3434
sbag5
(g6
g7
(lp3435
g834
atp3436
Rp3437
(dp3438
g16
V''
p3439
sbatp3440
Rp3441
(dp3442
g16
VNP
p3443
sbag5
(g6
g7
(lp3444
g5
(g6
g7
(lp3445
g5
(g6
g7
(lp3446
g5
(g6
g7
(lp3447
VIt
p3448
atp3449
Rp3450
(dp3451
g16
VPRP
p3452
sbatp3453
Rp3454
(dp3455
g16
VNP
p3456
sbag5
(g6
g7
(lp3457
g5
(g6
g7
(lp3458
g828
atp3459
Rp3460
(dp3461
g16
VVBP
p3462
sbag5
(g6
g7
(lp3463
g834
atp3464
Rp3465
(dp3466
g16
V''
p3467
sbag5
(g6
g7
(lp3468
g5
(g6
g7
(lp3469
V\u005c
p3470
atp3471
Rp3472
(dp3473
g16
VJJ
p3474
sbag5
(g6
g7
(lp3475
Vu2019
p3476
atp3477
Rp3478
(dp3479
g16
VNNS
p3480
sbatp3481
Rp3482
(dp3483
g16
VNP
p3484
sbag5
(g6
g7
(lp3485
g834
atp3486
Rp3487
(dp3488
g16
V''
p3489
sbatp3490
Rp3491
(dp3492
g16
VVP
p3493
sbatp3494
Rp3495
(dp3496
g16
g199
sbatp3497
Rp3498
(dp3499
g16
VSBAR
p3500
sbatp3501
Rp3502
(dp3503
g16
VNP
p3504
sbatp3505
Rp3506
(dp3507
g16
VPP
p3508
sbatp3509
Rp3510
(dp3511
g16
VVP
p3512
sbag5
(g6
g7
(lp3513
g5
(g6
g7
(lp3514
Vs
p3515
atp3516
Rp3517
(dp3518
g16
VVBZ
p3519
sbag5
(g6
g7
(lp3520
g5
(g6
g7
(lp3521
Vlike
p3522
atp3523
Rp3524
(dp3525
g16
VIN
p3526
sbag5
(g6
g7
(lp3527
g5
(g6
g7
(lp3528
g5
(g6
g7
(lp3529
Van
p3530
atp3531
Rp3532
(dp3533
g16
VDT
p3534
sbag5
(g6
g7
(lp3535
Vall-star
p3536
atp3537
Rp3538
(dp3539
g16
VJJ
p3540
sbag5
(g6
g7
(lp3541
Vsalute
p3542
atp3543
Rp3544
(dp3545
g16
VNN
p3546
sbatp3547
Rp3548
(dp3549
g16
VNP
p3550
sbag5
(g6
g7
(lp3551
g5
(g6
g7
(lp3552
Vto
p3553
atp3554
Rp3555
(dp3556
g16
VTO
p3557
sbag5
(g6
g7
(lp3558
g5
(g6
g7
(lp3559
g5
(g6
g7
(lp3560
g5
(g6
g7
(lp3561
Vdisney
p3562
atp3563
Rp3564
(dp3565
g16
VJJ
p3566
sbag5
(g6
g7
(lp3567
g828
atp3568
Rp3569
(dp3570
g16
VNN
p3571
sbag5
(g6
g7
(lp3572
g834
atp3573
Rp3574
(dp3575
g16
VPOS
p3576
sbatp3577
Rp3578
(dp3579
g16
VNP
p3580
sbag5
(g6
g7
(lp3581
V\u005c
p3582
atp3583
Rp3584
(dp3585
g16
VJJ
p3586
sbag5
(g6
g7
(lp3587
Vu2019
p3588
atp3589
Rp3590
(dp3591
g16
VNNS
p3592
sbag5
(g6
g7
(lp3593
g834
atp3594
Rp3595
(dp3596
g16
VPOS
p3597
sbatp3598
Rp3599
(dp3600
g16
VNP
p3601
sbag5
(g6
g7
(lp3602
g5
(g6
g7
(lp3603
g3515
atp3604
Rp3605
(dp3606
g16
VRB
p3607
sbag5
(g6
g7
(lp3608
Vcheesy
p3609
atp3610
Rp3611
(dp3612
g16
VJJ
p3613
sbatp3614
Rp3615
(dp3616
g16
VADJP
p3617
sbag5
(g6
g7
(lp3618
Vcommercialism
p3619
atp3620
Rp3621
(dp3622
g16
VNN
p3623
sbag5
(g6
g7
(lp3624
g828
atp3625
Rp3626
(dp3627
g16
VNN
p3628
sbag5
(g6
g7
(lp3629
g834
atp3630
Rp3631
(dp3632
g16
V''
p3633
sbatp3634
Rp3635
(dp3636
g16
VNP
p3637
sbatp3638
Rp3639
(dp3640
g16
VPP
p3641
sbatp3642
Rp3643
(dp3644
g16
VNP
p3645
sbatp3646
Rp3647
(dp3648
g16
VPP
p3649
sbatp3650
Rp3651
(dp3652
g16
VVP
p3653
sbag5
(g6
g7
(lp3654
g5
(g6
g7
(lp3655
g5
(g6
g7
(lp3656
V\u005c
p3657
atp3658
Rp3659
(dp3660
g16
VNNP
p3661
sbag5
(g6
g7
(lp3662
Vu201d
p3663
atp3664
Rp3665
(dp3666
g16
VNNP
p3667
sbag5
(g6
g7
(lp3668
g834
atp3669
Rp3670
(dp3671
g16
VPOS
p3672
sbatp3673
Rp3674
(dp3675
g16
VNP
p3676
sbag5
(g6
g7
(lp3677
Vleads
p3678
atp3679
Rp3680
(dp3681
g16
VNNS
p3682
sbatp3683
Rp3684
(dp3685
g16
VNP
p3686
sbag5
(g6
g7
(lp3687
g5
(g6
g7
(lp3688
Vto
p3689
atp3690
Rp3691
(dp3692
g16
VTO
p3693
sbag5
(g6
g7
(lp3694
g5
(g6
g7
(lp3695
g5
(g6
g7
(lp3696
Vdifficulty
p3697
atp3698
Rp3699
(dp3700
g16
VNN
p3701
sbatp3702
Rp3703
(dp3704
g16
VNP
p3705
sbag5
(g6
g7
(lp3706
g5
(g6
g7
(lp3707
Vin
p3708
atp3709
Rp3710
(dp3711
g16
VIN
p3712
sbag5
(g6
g7
(lp3713
g5
(g6
g7
(lp3714
g5
(g6
g7
(lp3715
Vsentiment
p3716
atp3717
Rp3718
(dp3719
g16
VNN
p3720
sbag5
(g6
g7
(lp3721
Vannotation
p3722
atp3723
Rp3724
(dp3725
g16
VNN
p3726
sbatp3727
Rp3728
(dp3729
g16
VNP
p3730
sbag5
(g6
g7
(lp3731
g5
(g6
g7
(lp3732
Vbecause
p3733
atp3734
Rp3735
(dp3736
g16
VRB
p3737
sbag5
(g6
g7
(lp3738
Vof
p3739
atp3740
Rp3741
(dp3742
g16
VIN
p3743
sbag5
(g6
g7
(lp3744
g5
(g6
g7
(lp3745
Vpositive
p3746
atp3747
Rp3748
(dp3749
g16
VJJ
p3750
sbag5
(g6
g7
(lp3751
Vwords
p3752
atp3753
Rp3754
(dp3755
g16
VNNS
p3756
sbatp3757
Rp3758
(dp3759
g16
VNP
p3760
sbatp3761
Rp3762
(dp3763
g16
VPP
p3764
sbatp3765
Rp3766
(dp3767
g16
VNP
p3768
sbatp3769
Rp3770
(dp3771
g16
VPP
p3772
sbatp3773
Rp3774
(dp3775
g16
VNP
p3776
sbatp3777
Rp3778
(dp3779
g16
VPP
p3780
sbag5
(g6
g7
(lp3781
g5
(g6
g7
(lp3782
Vlike
p3783
atp3784
Rp3785
(dp3786
g16
VIN
p3787
sbag5
(g6
g7
(lp3788
g5
(g6
g7
(lp3789
g5
(g6
g7
(lp3790
g5
(g6
g7
(lp3791
g828
atp3792
Rp3793
(dp3794
g16
VNNP
p3795
sbag5
(g6
g7
(lp3796
g834
atp3797
Rp3798
(dp3799
g16
VPOS
p3800
sbatp3801
Rp3802
(dp3803
g16
VNP
p3804
sbag5
(g6
g7
(lp3805
V\u005c
p3806
atp3807
Rp3808
(dp3809
g16
VNN
p3810
sbag5
(g6
g7
(lp3811
Vu201c
p3812
atp3813
Rp3814
(dp3815
g16
VNN
p3816
sbag5
(g6
g7
(lp3817
g834
atp3818
Rp3819
(dp3820
g16
V''
p3821
sbatp3822
Rp3823
(dp3824
g16
VNP
p3825
sbag5
(g6
g7
(lp3826
g5
(g6
g7
(lp3827
g5
(g6
g7
(lp3828
Van
p3829
atp3830
Rp3831
(dp3832
g16
VDT
p3833
sbag5
(g6
g7
(lp3834
Vall-star
p3835
atp3836
Rp3837
(dp3838
g16
VJJ
p3839
sbag5
(g6
g7
(lp3840
Vsalute
p3841
atp3842
Rp3843
(dp3844
g16
VNN
p3845
sbag5
(g6
g7
(lp3846
g828
atp3847
Rp3848
(dp3849
g16
VNN
p3850
sbag5
(g6
g7
(lp3851
g834
atp3852
Rp3853
(dp3854
g16
VPOS
p3855
sbatp3856
Rp3857
(dp3858
g16
VNP
p3859
sbag5
(g6
g7
(lp3860
V\u005c
p3861
atp3862
Rp3863
(dp3864
g16
VNN
p3865
sbag5
(g6
g7
(lp3866
Vu201d
p3867
atp3868
Rp3869
(dp3870
g16
VNN
p3871
sbag5
(g6
g7
(lp3872
g834
atp3873
Rp3874
(dp3875
g16
V''
p3876
sbatp3877
Rp3878
(dp3879
g16
VNP
p3880
sbatp3881
Rp3882
(dp3883
g16
VNP
p3884
sbatp3885
Rp3886
(dp3887
g16
VPP
p3888
sbatp3889
Rp3890
(dp3891
g16
VSINV
p3892
sbatp3893
Rp3894
(dp3895
g16
VROOT
p3896
sbag5
(g6
g7
(lp3897
g5
(g6
g7
(lp3898
g5
(g6
g7
(lp3899
g5
(g6
g7
(lp3900
g5
(g6
g7
(lp3901
VManual
p3902
atp3903
Rp3904
(dp3905
g16
VJJ
p3906
sbag5
(g6
g7
(lp3907
Vannotation
p3908
atp3909
Rp3910
(dp3911
g16
VNN
p3912
sbatp3913
Rp3914
(dp3915
g16
VNP
p3916
sbag5
(g6
g7
(lp3917
g5
(g6
g7
(lp3918
Vof
p3919
atp3920
Rp3921
(dp3922
g16
VIN
p3923
sbag5
(g6
g7
(lp3924
g5
(g6
g7
(lp3925
Vcomplexity
p3926
atp3927
Rp3928
(dp3929
g16
VNN
p3930
sbag5
(g6
g7
(lp3931
Vscores
p3932
atp3933
Rp3934
(dp3935
g16
VNNS
p3936
sbatp3937
Rp3938
(dp3939
g16
VNP
p3940
sbatp3941
Rp3942
(dp3943
g16
VPP
p3944
sbatp3945
Rp3946
(dp3947
g16
VNP
p3948
sbag5
(g6
g7
(lp3949
g5
(g6
g7
(lp3950
Vmay
p3951
atp3952
Rp3953
(dp3954
g16
VMD
p3955
sbag5
(g6
g7
(lp3956
Vnot
p3957
atp3958
Rp3959
(dp3960
g16
VRB
p3961
sbag5
(g6
g7
(lp3962
g5
(g6
g7
(lp3963
Vbe
p3964
atp3965
Rp3966
(dp3967
g16
VVB
p3968
sbag5
(g6
g7
(lp3969
g5
(g6
g7
(lp3970
Vintuitive
p3971
atp3972
Rp3973
(dp3974
g16
VJJ
p3975
sbag5
(g6
g7
(lp3976
Vand
p3977
atp3978
Rp3979
(dp3980
g16
VCC
p3981
sbag5
(g6
g7
(lp3982
Vreliable
p3983
atp3984
Rp3985
(dp3986
g16
VJJ
p3987
sbatp3988
Rp3989
(dp3990
g16
VADJP
p3991
sbatp3992
Rp3993
(dp3994
g16
VVP
p3995
sbatp3996
Rp3997
(dp3998
g16
VVP
p3999
sbatp4000
Rp4001
(dp4002
g16
g199
sbatp4003
Rp4004
(dp4005
g16
VROOT
p4006
sbasg287
(icmyPackage
CorE
p4007
(dp4008
g290
(lp4009
(I0
I0
tp4010
a(I0
I39
tp4011
asg294
g5
(g6
g7
(lp4012
g3510
ag3651
ag3684
ag3691
ag3703
ag3710
ag3728
atp4013
Rp4014
(dp4015
g16
g305
sbsbsg295
(icmyPackage
CorE
p4016
(dp4017
g290
(lp4018
(I1
I5
tp4019
a(I1
I10
tp4020
asg294
g3997
sbsg306
g1337
sg330
(lp4021
(isxpPackage
sxpSent
p4022
(dp4023
g334
(lp4024
I9
asg336
VSarcasm expressed in u'\u005cu201c' It u'\u005cu2019' s like an all-star salute to disney u'\u005cu2019' s cheesy commercialism u'\u005cu201d' leads to difficulty in sentiment annotation because of positive words like u'\u005cu201c' an all-star salute u'\u005cu201d'
p4025
sg338
I3
sg322
I39
sg339
I7
sba(isxpPackage
sxpSent
p4026
(dp4027
g334
(lp4028
I9
aI10
asg336
VManual annotation of complexity scores may not be intuitive and reliable
p4029
sg338
I3
sg322
I40
sg339
I8
sbasba(icmyPackage
CELink
p4030
(dp4031
g3
(lp4032
g4004
ag5
(g6
g7
(lp4033
g5
(g6
g7
(lp4034
g5
(g6
g7
(lp4035
g5
(g6
g7
(lp4036
VHence
p4037
atp4038
Rp4039
(dp4040
g16
VRB
p4041
sbatp4042
Rp4043
(dp4044
g16
VADVP
p4045
sbag5
(g6
g7
(lp4046
g51
atp4047
Rp4048
(dp4049
g16
g51
sbag5
(g6
g7
(lp4050
g5
(g6
g7
(lp4051
Vwe
p4052
atp4053
Rp4054
(dp4055
g16
VPRP
p4056
sbatp4057
Rp4058
(dp4059
g16
VNP
p4060
sbag5
(g6
g7
(lp4061
g5
(g6
g7
(lp4062
Vuse
p4063
atp4064
Rp4065
(dp4066
g16
VVBP
p4067
sbag5
(g6
g7
(lp4068
g5
(g6
g7
(lp4069
g115
atp4070
Rp4071
(dp4072
g16
VDT
p4073
sbag5
(g6
g7
(lp4074
Vcognitive
p4075
atp4076
Rp4077
(dp4078
g16
VJJ
p4079
sbag5
(g6
g7
(lp4080
Vtechnique
p4081
atp4082
Rp4083
(dp4084
g16
VNN
p4085
sbag5
(g6
g7
(lp4086
g5
(g6
g7
(lp4087
g5
(g6
g7
(lp4088
Vto
p4089
atp4090
Rp4091
(dp4092
g16
VTO
p4093
sbag5
(g6
g7
(lp4094
g5
(g6
g7
(lp4095
Vcreate
p4096
atp4097
Rp4098
(dp4099
g16
VVB
p4100
sbag5
(g6
g7
(lp4101
g5
(g6
g7
(lp4102
Vour
p4103
atp4104
Rp4105
(dp4106
g16
VPRP$
p4107
sbag5
(g6
g7
(lp4108
Vannotated
p4109
atp4110
Rp4111
(dp4112
g16
VJJ
p4113
sbag5
(g6
g7
(lp4114
Vdataset
p4115
atp4116
Rp4117
(dp4118
g16
VNN
p4119
sbatp4120
Rp4121
(dp4122
g16
VNP
p4123
sbatp4124
Rp4125
(dp4126
g16
VVP
p4127
sbatp4128
Rp4129
(dp4130
g16
VVP
p4131
sbatp4132
Rp4133
(dp4134
g16
g199
sbatp4135
Rp4136
(dp4137
g16
VNP
p4138
sbatp4139
Rp4140
(dp4141
g16
VVP
p4142
sbatp4143
Rp4144
(dp4145
g16
g199
sbatp4146
Rp4147
(dp4148
g16
VROOT
p4149
sbasg287
(icmyPackage
CorE
p4150
(dp4151
g290
(lp4152
(I0
I0
tp4153
a(I0
I10
tp4154
asg294
g4004
sbsg295
(icmyPackage
CorE
p4155
(dp4156
g290
(lp4157
(I1
I2
tp4158
a(I1
I11
tp4159
asg294
g5
(g6
g7
(lp4160
g4058
ag4140
atp4161
Rp4162
(dp4163
g16
g305
sbsbsg306
(icmyPackage
pattern
p4164
(dp4165
g309
I7
sg310
I1
sg311
(lp4166
(lp4167
S'hence'
p4168
aasg317
(lp4169
I1
aI1
aI1
asg319
(lp4170
S'Increase in temperature increases the rate of deposition and hence the heat loss to the surroundings should be prevented.'
p4171
asg322
I4
sg323
(lp4172
(lp4173
S'&C'
p4174
aS'(,/;/./--)'
p4175
aS'(&AND)'
p4176
aa(lp4177
S'(,)'
p4178
aS'&R'
p4179
aasbsg330
(lp4180
g4026
a(isxpPackage
sxpSent
p4181
(dp4182
g334
(lp4183
I10
asg336
VHence, we use a cognitive technique to create our annotated dataset
p4184
sg338
I3
sg322
I41
sg339
I8
sbasba(icmyPackage
CELink
p4185
(dp4186
g3
(lp4187
g5
(g6
g7
(lp4188
g5
(g6
g7
(lp4189
g5
(g6
g7
(lp4190
g5
(g6
g7
(lp4191
VThe
p4192
atp4193
Rp4194
(dp4195
g16
VDT
p4196
sbag5
(g6
g7
(lp4197
Vunderlying
p4198
atp4199
Rp4200
(dp4201
g16
VVBG
p4202
sbag5
(g6
g7
(lp4203
Videa
p4204
atp4205
Rp4206
(dp4207
g16
VNN
p4208
sbatp4209
Rp4210
(dp4211
g16
VNP
p4212
sbag5
(g6
g7
(lp4213
g5
(g6
g7
(lp4214
Vis
p4215
atp4216
Rp4217
(dp4218
g16
VVBZ
p4219
sbag5
(g6
g7
(lp4220
g5
(g6
g7
(lp4221
Vif
p4222
atp4223
Rp4224
(dp4225
g16
VIN
p4226
sbag5
(g6
g7
(lp4227
g5
(g6
g7
(lp4228
g5
(g6
g7
(lp4229
Vwe
p4230
atp4231
Rp4232
(dp4233
g16
VPRP
p4234
sbatp4235
Rp4236
(dp4237
g16
VNP
p4238
sbag5
(g6
g7
(lp4239
g5
(g6
g7
(lp4240
Vmonitor
p4241
atp4242
Rp4243
(dp4244
g16
VVBP
p4245
sbag5
(g6
g7
(lp4246
g5
(g6
g7
(lp4247
g5
(g6
g7
(lp4248
g5
(g6
g7
(lp4249
g5
(g6
g7
(lp4250
Vannotation
p4251
atp4252
Rp4253
(dp4254
g16
VNN
p4255
sbatp4256
Rp4257
(dp4258
g16
VNP
p4259
sbag5
(g6
g7
(lp4260
g5
(g6
g7
(lp4261
Vof
p4262
atp4263
Rp4264
(dp4265
g16
VIN
p4266
sbag5
(g6
g7
(lp4267
g5
(g6
g7
(lp4268
g5
(g6
g7
(lp4269
Vtwo
p4270
atp4271
Rp4272
(dp4273
g16
VCD
p4274
sbag5
(g6
g7
(lp4275
Vtextual
p4276
atp4277
Rp4278
(dp4279
g16
VJJ
p4280
sbag5
(g6
g7
(lp4281
Vunits
p4282
atp4283
Rp4284
(dp4285
g16
VNNS
p4286
sbatp4287
Rp4288
(dp4289
g16
VNP
p4290
sbag5
(g6
g7
(lp4291
g5
(g6
g7
(lp4292
Vof
p4293
atp4294
Rp4295
(dp4296
g16
VIN
p4297
sbag5
(g6
g7
(lp4298
g5
(g6
g7
(lp4299
g5
(g6
g7
(lp4300
Vequal
p4301
atp4302
Rp4303
(dp4304
g16
VJJ
p4305
sbag5
(g6
g7
(lp4306
Vlength
p4307
atp4308
Rp4309
(dp4310
g16
VNN
p4311
sbatp4312
Rp4313
(dp4314
g16
VNP
p4315
sbag5
(g6
g7
(lp4316
g51
atp4317
Rp4318
(dp4319
g16
g51
sbag5
(g6
g7
(lp4320
g5
(g6
g7
(lp4321
Vthe
p4322
atp4323
Rp4324
(dp4325
g16
VDT
p4326
sbag5
(g6
g7
(lp4327
g5
(g6
g7
(lp4328
Vmore
p4329
atp4330
Rp4331
(dp4332
g16
VRBR
p4333
sbag5
(g6
g7
(lp4334
Vcomplex
p4335
atp4336
Rp4337
(dp4338
g16
VJJ
p4339
sbatp4340
Rp4341
(dp4342
g16
VADJP
p4343
sbag5
(g6
g7
(lp4344
Vunit
p4345
atp4346
Rp4347
(dp4348
g16
VNN
p4349
sbatp4350
Rp4351
(dp4352
g16
VNP
p4353
sbatp4354
Rp4355
(dp4356
g16
VNP
p4357
sbatp4358
Rp4359
(dp4360
g16
VPP
p4361
sbatp4362
Rp4363
(dp4364
g16
VNP
p4365
sbatp4366
Rp4367
(dp4368
g16
VPP
p4369
sbatp4370
Rp4371
(dp4372
g16
VNP
p4373
sbag5
(g6
g7
(lp4374
g5
(g6
g7
(lp4375
Vwill
p4376
atp4377
Rp4378
(dp4379
g16
VMD
p4380
sbag5
(g6
g7
(lp4381
g5
(g6
g7
(lp4382
Vtake
p4383
atp4384
Rp4385
(dp4386
g16
VVB
p4387
sbag5
(g6
g7
(lp4388
g5
(g6
g7
(lp4389
g5
(g6
g7
(lp4390
g5
(g6
g7
(lp4391
Vlonger
p4392
atp4393
Rp4394
(dp4395
g16
VRBR
p4396
sbatp4397
Rp4398
(dp4399
g16
VADVP
p4400
sbag5
(g6
g7
(lp4401
g5
(g6
g7
(lp4402
Vto
p4403
atp4404
Rp4405
(dp4406
g16
VTO
p4407
sbag5
(g6
g7
(lp4408
g5
(g6
g7
(lp4409
Vannotate
p4410
atp4411
Rp4412
(dp4413
g16
VVB
p4414
sbatp4415
Rp4416
(dp4417
g16
VVP
p4418
sbatp4419
Rp4420
(dp4421
g16
VVP
p4422
sbatp4423
Rp4424
(dp4425
g16
g199
sbag5
(g6
g7
(lp4426
g51
atp4427
Rp4428
(dp4429
g16
g51
sbag5
(g6
g7
(lp4430
Vand
p4431
atp4432
Rp4433
(dp4434
g16
VCC
p4435
sbag5
(g6
g7
(lp4436
g5
(g6
g7
(lp4437
g5
(g6
g7
(lp4438
Vhence
p4439
atp4440
Rp4441
(dp4442
g16
VRB
p4443
sbatp4444
Rp4445
(dp4446
g16
VADVP
p4447
sbag5
(g6
g7
(lp4448
g51
atp4449
Rp4450
(dp4451
g16
g51
sbag5
(g6
g7
(lp4452
g5
(g6
g7
(lp4453
Vshould
p4454
atp4455
Rp4456
(dp4457
g16
VMD
p4458
sbag5
(g6
g7
(lp4459
g5
(g6
g7
(lp4460
Vhave
p4461
atp4462
Rp4463
(dp4464
g16
VVB
p4465
sbag5
(g6
g7
(lp4466
g5
(g6
g7
(lp4467
g115
atp4468
Rp4469
(dp4470
g16
VDT
p4471
sbag5
(g6
g7
(lp4472
Vhigher
p4473
atp4474
Rp4475
(dp4476
g16
VJJR
p4477
sbag5
(g6
g7
(lp4478
VSAC
p4479
atp4480
Rp4481
(dp4482
g16
VNN
p4483
sbatp4484
Rp4485
(dp4486
g16
VNP
p4487
sbatp4488
Rp4489
(dp4490
g16
VVP
p4491
sbatp4492
Rp4493
(dp4494
g16
VVP
p4495
sbatp4496
Rp4497
(dp4498
g16
g199
sbatp4499
Rp4500
(dp4501
g16
g199
sbatp4502
Rp4503
(dp4504
g16
VVP
p4505
sbatp4506
Rp4507
(dp4508
g16
VVP
p4509
sbatp4510
Rp4511
(dp4512
g16
g199
sbatp4513
Rp4514
(dp4515
g16
VSBAR
p4516
sbatp4517
Rp4518
(dp4519
g16
VVP
p4520
sbatp4521
Rp4522
(dp4523
g16
g199
sbatp4524
Rp4525
(dp4526
g16
VSBAR
p4527
sbatp4528
Rp4529
(dp4530
g16
VVP
p4531
sbatp4532
Rp4533
(dp4534
g16
g199
sbatp4535
Rp4536
(dp4537
g16
VROOT
p4538
sbasg287
(icmyPackage
CorE
p4539
(dp4540
g290
(lp4541
(I0
I0
tp4542
a(I0
I24
tp4543
asg294
g5
(g6
g7
(lp4544
g4210
ag4217
ag4224
ag4236
ag4243
ag4371
ag4378
ag4385
ag4424
atp4545
Rp4546
(dp4547
g16
g305
sbsbsg295
(icmyPackage
CorE
p4548
(dp4549
g290
(lp4550
(I0
I29
tp4551
a(I0
I33
tp4552
asg294
g4493
sbsg306
g4164
sg330
(lp4553
(isxpPackage
sxpSent
p4554
(dp4555
g334
(lp4556
I11
aI12
asg336
VThe underlying idea is if we monitor annotation of two textual units of equal length, the more complex unit will take longer to annotate, and hence, should have a higher SAC
p4557
sg338
I3
sg322
I42
sg339
I8
sbasba(icmyPackage
CELink
p4558
(dp4559
g3
(lp4560
g4546
asg287
(icmyPackage
CorE
p4561
(dp4562
g290
(lp4563
(I0
I5
tp4564
a(I0
I14
tp4565
asg294
g5
(g6
g7
(lp4566
g4236
ag4243
ag4257
ag4264
ag4288
ag4295
ag4313
atp4567
Rp4568
(dp4569
g16
g305
sbsbsg295
(icmyPackage
CorE
p4570
(dp4571
g290
(lp4572
(I0
I16
tp4573
a(I0
I24
tp4574
asg294
g5
(g6
g7
(lp4575
g4351
ag4378
ag4385
ag4424
atp4576
Rp4577
(dp4578
g16
g305
sbsbsg306
g2047
sg330
(lp4579
g4554
asba(icmyPackage
CELink
p4580
(dp4581
g3
(lp4582
g5
(g6
g7
(lp4583
g5
(g6
g7
(lp4584
g5
(g6
g7
(lp4585
g5
(g6
g7
(lp4586
g5
(g6
g7
(lp4587
VUsing
p4588
atp4589
Rp4590
(dp4591
g16
VVBG
p4592
sbag5
(g6
g7
(lp4593
g5
(g6
g7
(lp4594
g5
(g6
g7
(lp4595
g5
(g6
g7
(lp4596
g5
(g6
g7
(lp4597
Vthe
p4598
atp4599
Rp4600
(dp4601
g16
VDT
p4602
sbag5
(g6
g7
(lp4603
Videa
p4604
atp4605
Rp4606
(dp4607
g16
VNN
p4608
sbatp4609
Rp4610
(dp4611
g16
VNP
p4612
sbag5
(g6
g7
(lp4613
g5
(g6
g7
(lp4614
Vof
p4615
atp4616
Rp4617
(dp4618
g16
VIN
p4619
sbag5
(g6
g7
(lp4620
g5
(g6
g7
(lp4621
g5
(g6
g7
(lp4622
g828
atp4623
Rp4624
(dp4625
g16
VNNP
p4626
sbag5
(g6
g7
(lp4627
g834
atp4628
Rp4629
(dp4630
g16
VPOS
p4631
sbatp4632
Rp4633
(dp4634
g16
VNP
p4635
sbag5
(g6
g7
(lp4636
V\u005c
p4637
atp4638
Rp4639
(dp4640
g16
VNNP
p4641
sbag5
(g6
g7
(lp4642
Vu201c
p4643
atp4644
Rp4645
(dp4646
g16
VNNP
p4647
sbag5
(g6
g7
(lp4648
g834
atp4649
Rp4650
(dp4651
g16
VPOS
p4652
sbag5
(g6
g7
(lp4653
Vannotation
p4654
atp4655
Rp4656
(dp4657
g16
VCD
p4658
sbag5
(g6
g7
(lp4659
Vtime
p4660
atp4661
Rp4662
(dp4663
g16
VNN
p4664
sbag5
(g6
g7
(lp4665
g828
atp4666
Rp4667
(dp4668
g16
VNN
p4669
sbatp4670
Rp4671
(dp4672
g16
VNP
p4673
sbatp4674
Rp4675
(dp4676
g16
VPP
p4677
sbag5
(g6
g7
(lp4678
g834
atp4679
Rp4680
(dp4681
g16
VPOS
p4682
sbatp4683
Rp4684
(dp4685
g16
VNP
p4686
sbag5
(g6
g7
(lp4687
V\u005c
p4688
atp4689
Rp4690
(dp4691
g16
VNNP
p4692
sbag5
(g6
g7
(lp4693
Vu201d
p4694
atp4695
Rp4696
(dp4697
g16
VNNP
p4698
sbag5
(g6
g7
(lp4699
g834
atp4700
Rp4701
(dp4702
g16
V''
p4703
sbatp4704
Rp4705
(dp4706
g16
VNP
p4707
sbag5
(g6
g7
(lp4708
g5
(g6
g7
(lp4709
Vlinked
p4710
atp4711
Rp4712
(dp4713
g16
VVBN
p4714
sbag5
(g6
g7
(lp4715
g5
(g6
g7
(lp4716
Vwith
p4717
atp4718
Rp4719
(dp4720
g16
VIN
p4721
sbag5
(g6
g7
(lp4722
g5
(g6
g7
(lp4723
Vcomplexity
p4724
atp4725
Rp4726
(dp4727
g16
VNN
p4728
sbatp4729
Rp4730
(dp4731
g16
VNP
p4732
sbatp4733
Rp4734
(dp4735
g16
VPP
p4736
sbatp4737
Rp4738
(dp4739
g16
VVP
p4740
sbatp4741
Rp4742
(dp4743
g16
VNP
p4744
sbatp4745
Rp4746
(dp4747
g16
VVP
p4748
sbatp4749
Rp4750
(dp4751
g16
g199
sbag5
(g6
g7
(lp4752
g51
atp4753
Rp4754
(dp4755
g16
g51
sbag5
(g6
g7
(lp4756
g5
(g6
g7
(lp4757
Vwe
p4758
atp4759
Rp4760
(dp4761
g16
VPRP
p4762
sbatp4763
Rp4764
(dp4765
g16
VNP
p4766
sbag5
(g6
g7
(lp4767
g5
(g6
g7
(lp4768
Vdevise
p4769
atp4770
Rp4771
(dp4772
g16
VVBP
p4773
sbag5
(g6
g7
(lp4774
g5
(g6
g7
(lp4775
g5
(g6
g7
(lp4776
g115
atp4777
Rp4778
(dp4779
g16
VDT
p4780
sbag5
(g6
g7
(lp4781
Vtechnique
p4782
atp4783
Rp4784
(dp4785
g16
VNN
p4786
sbatp4787
Rp4788
(dp4789
g16
VNP
p4790
sbag5
(g6
g7
(lp4791
g5
(g6
g7
(lp4792
Vto
p4793
atp4794
Rp4795
(dp4796
g16
VTO
p4797
sbag5
(g6
g7
(lp4798
g5
(g6
g7
(lp4799
Vcreate
p4800
atp4801
Rp4802
(dp4803
g16
VVB
p4804
sbag5
(g6
g7
(lp4805
g5
(g6
g7
(lp4806
g115
atp4807
Rp4808
(dp4809
g16
VDT
p4810
sbag5
(g6
g7
(lp4811
Vdataset
p4812
atp4813
Rp4814
(dp4815
g16
VJJ
p4816
sbag5
(g6
g7
(lp4817
Vannotated
p4818
atp4819
Rp4820
(dp4821
g16
VNN
p4822
sbatp4823
Rp4824
(dp4825
g16
VNP
p4826
sbag5
(g6
g7
(lp4827
g5
(g6
g7
(lp4828
Vwith
p4829
atp4830
Rp4831
(dp4832
g16
VIN
p4833
sbag5
(g6
g7
(lp4834
g5
(g6
g7
(lp4835
VSAC
p4836
atp4837
Rp4838
(dp4839
g16
VNNP
p4840
sbatp4841
Rp4842
(dp4843
g16
VNP
p4844
sbatp4845
Rp4846
(dp4847
g16
VPP
p4848
sbatp4849
Rp4850
(dp4851
g16
VVP
p4852
sbatp4853
Rp4854
(dp4855
g16
VVP
p4856
sbatp4857
Rp4858
(dp4859
g16
g199
sbatp4860
Rp4861
(dp4862
g16
VVP
p4863
sbatp4864
Rp4865
(dp4866
g16
g199
sbatp4867
Rp4868
(dp4869
g16
VROOT
p4870
sbasg287
(icmyPackage
CorE
p4871
(dp4872
g290
(lp4873
(I0
I0
tp4874
a(I0
I18
tp4875
asg294
g4750
sbsg295
(icmyPackage
CorE
p4876
(dp4877
g290
(lp4878
(I0
I20
tp4879
a(I0
I30
tp4880
asg294
g5
(g6
g7
(lp4881
g4764
ag4861
atp4882
Rp4883
(dp4884
g16
g305
sbsbsg306
g632
sg330
(lp4885
(isxpPackage
sxpSent
p4886
(dp4887
g334
(lp4888
I13
asg336
VUsing the idea of u'\u005cu201c' annotation time u'\u005cu201d' linked with complexity, we devise a technique to create a dataset annotated with SAC
p4889
sg338
I3
sg322
I43
sg339
I8
sbasba(icmyPackage
CELink
p4890
(dp4891
g3
(lp4892
g5
(g6
g7
(lp4893
g5
(g6
g7
(lp4894
g5
(g6
g7
(lp4895
g5
(g6
g7
(lp4896
VHowever
p4897
atp4898
Rp4899
(dp4900
g16
VRB
p4901
sbatp4902
Rp4903
(dp4904
g16
VADVP
p4905
sbag5
(g6
g7
(lp4906
g51
atp4907
Rp4908
(dp4909
g16
g51
sbag5
(g6
g7
(lp4910
g5
(g6
g7
(lp4911
Vin
p4912
atp4913
Rp4914
(dp4915
g16
VIN
p4916
sbag5
(g6
g7
(lp4917
g5
(g6
g7
(lp4918
g5
(g6
g7
(lp4919
Vcase
p4920
atp4921
Rp4922
(dp4923
g16
VNN
p4924
sbatp4925
Rp4926
(dp4927
g16
VNP
p4928
sbag5
(g6
g7
(lp4929
g5
(g6
g7
(lp4930
Vof
p4931
atp4932
Rp4933
(dp4934
g16
VIN
p4935
sbag5
(g6
g7
(lp4936
g5
(g6
g7
(lp4937
Vmultiple
p4938
atp4939
Rp4940
(dp4941
g16
VJJ
p4942
sbag5
(g6
g7
(lp4943
Vexpert
p4944
atp4945
Rp4946
(dp4947
g16
VNN
p4948
sbag5
(g6
g7
(lp4949
Vannotators
p4950
atp4951
Rp4952
(dp4953
g16
VNNS
p4954
sbatp4955
Rp4956
(dp4957
g16
VNP
p4958
sbatp4959
Rp4960
(dp4961
g16
VPP
p4962
sbatp4963
Rp4964
(dp4965
g16
VNP
p4966
sbatp4967
Rp4968
(dp4969
g16
VPP
p4970
sbag5
(g6
g7
(lp4971
g51
atp4972
Rp4973
(dp4974
g16
g51
sbag5
(g6
g7
(lp4975
g5
(g6
g7
(lp4976
Vthis
p4977
atp4978
Rp4979
(dp4980
g16
VDT
p4981
sbag5
(g6
g7
(lp4982
Vagreement
p4983
atp4984
Rp4985
(dp4986
g16
VNN
p4987
sbatp4988
Rp4989
(dp4990
g16
VNP
p4991
sbag5
(g6
g7
(lp4992
g5
(g6
g7
(lp4993
Vis
p4994
atp4995
Rp4996
(dp4997
g16
VVBZ
p4998
sbag5
(g6
g7
(lp4999
g5
(g6
g7
(lp5000
Vexpected
p5001
atp5002
Rp5003
(dp5004
g16
VVBN
p5005
sbag5
(g6
g7
(lp5006
g5
(g6
g7
(lp5007
g5
(g6
g7
(lp5008
Vto
p5009
atp5010
Rp5011
(dp5012
g16
VTO
p5013
sbag5
(g6
g7
(lp5014
g5
(g6
g7
(lp5015
Vbe
p5016
atp5017
Rp5018
(dp5019
g16
VVB
p5020
sbag5
(g6
g7
(lp5021
g5
(g6
g7
(lp5022
Vhigh
p5023
atp5024
Rp5025
(dp5026
g16
VJJ
p5027
sbatp5028
Rp5029
(dp5030
g16
VADJP
p5031
sbag5
(g6
g7
(lp5032
g5
(g6
g7
(lp5033
g5
(g6
g7
(lp5034
Vfor
p5035
atp5036
Rp5037
(dp5038
g16
VIN
p5039
sbag5
(g6
g7
(lp5040
g5
(g6
g7
(lp5041
Vmost
p5042
atp5043
Rp5044
(dp5045
g16
VJJS
p5046
sbag5
(g6
g7
(lp5047
Vsentences
p5048
atp5049
Rp5050
(dp5051
g16
VNNS
p5052
sbatp5053
Rp5054
(dp5055
g16
VNP
p5056
sbatp5057
Rp5058
(dp5059
g16
VPP
p5060
sbag5
(g6
g7
(lp5061
g51
atp5062
Rp5063
(dp5064
g16
g51
sbag5
(g6
g7
(lp5065
Vdue
p5066
atp5067
Rp5068
(dp5069
g16
VRB
p5070
sbag5
(g6
g7
(lp5071
g5
(g6
g7
(lp5072
Vto
p5073
atp5074
Rp5075
(dp5076
g16
VTO
p5077
sbag5
(g6
g7
(lp5078
g5
(g6
g7
(lp5079
Vthe
p5080
atp5081
Rp5082
(dp5083
g16
VDT
p5084
sbag5
(g6
g7
(lp5085
Vexpertise
p5086
atp5087
Rp5088
(dp5089
g16
VNN
p5090
sbatp5091
Rp5092
(dp5093
g16
VNP
p5094
sbatp5095
Rp5096
(dp5097
g16
VPP
p5098
sbatp5099
Rp5100
(dp5101
g16
VPP
p5102
sbatp5103
Rp5104
(dp5105
g16
VVP
p5106
sbatp5107
Rp5108
(dp5109
g16
VVP
p5110
sbatp5111
Rp5112
(dp5113
g16
g199
sbatp5114
Rp5115
(dp5116
g16
VVP
p5117
sbatp5118
Rp5119
(dp5120
g16
VVP
p5121
sbatp5122
Rp5123
(dp5124
g16
g199
sbatp5125
Rp5126
(dp5127
g16
VROOT
p5128
sbasg287
(icmyPackage
CorE
p5129
(dp5130
g290
(lp5131
(I0
I22
tp5132
a(I0
I23
tp5133
asg294
g5092
sbsg295
(icmyPackage
CorE
p5134
(dp5135
g290
(lp5136
(I0
I0
tp5137
a(I0
I19
tp5138
asg294
g5
(g6
g7
(lp5139
g4903
ag4908
ag4968
ag4973
ag4989
ag4996
ag5003
ag5011
ag5018
ag5029
ag5058
ag5063
atp5140
Rp5141
(dp5142
g16
g305
sbsbsg306
g2732
sg330
(lp5143
(isxpPackage
sxpSent
p5144
(dp5145
g334
(lp5146
I14
asg336
VHowever, in case of multiple expert annotators, this agreement is expected to be high for most sentences, due to the expertise
p5147
sg338
I3
sg322
I45
sg339
I9
sbasba(icmyPackage
CELink
p5148
(dp5149
g3
(lp5150
g5
(g6
g7
(lp5151
g5
(g6
g7
(lp5152
g5
(g6
g7
(lp5153
g5
(g6
g7
(lp5154
VHowever
p5155
atp5156
Rp5157
(dp5158
g16
VRB
p5159
sbatp5160
Rp5161
(dp5162
g16
VADVP
p5163
sbag5
(g6
g7
(lp5164
g51
atp5165
Rp5166
(dp5167
g16
g51
sbag5
(g6
g7
(lp5168
g5
(g6
g7
(lp5169
g5
(g6
g7
(lp5170
Vthe
p5171
atp5172
Rp5173
(dp5174
g16
VDT
p5175
sbag5
(g6
g7
(lp5176
Vduration
p5177
atp5178
Rp5179
(dp5180
g16
VNN
p5181
sbatp5182
Rp5183
(dp5184
g16
VNP
p5185
sbag5
(g6
g7
(lp5186
g5
(g6
g7
(lp5187
Vfor
p5188
atp5189
Rp5190
(dp5191
g16
VIN
p5192
sbag5
(g6
g7
(lp5193
g5
(g6
g7
(lp5194
Vthese
p5195
atp5196
Rp5197
(dp5198
g16
VDT
p5199
sbag5
(g6
g7
(lp5200
Vsentences
p5201
atp5202
Rp5203
(dp5204
g16
VNNS
p5205
sbatp5206
Rp5207
(dp5208
g16
VNP
p5209
sbatp5210
Rp5211
(dp5212
g16
VPP
p5213
sbatp5214
Rp5215
(dp5216
g16
VNP
p5217
sbag5
(g6
g7
(lp5218
g5
(g6
g7
(lp5219
Vhas
p5220
atp5221
Rp5222
(dp5223
g16
VVBZ
p5224
sbag5
(g6
g7
(lp5225
g5
(g6
g7
(lp5226
g5
(g6
g7
(lp5227
g5
(g6
g7
(lp5228
g115
atp5229
Rp5230
(dp5231
g16
VDT
p5232
sbag5
(g6
g7
(lp5233
Vmean
p5234
atp5235
Rp5236
(dp5237
g16
VNN
p5238
sbatp5239
Rp5240
(dp5241
g16
VNP
p5242
sbag5
(g6
g7
(lp5243
g5
(g6
g7
(lp5244
Vof
p5245
atp5246
Rp5247
(dp5248
g16
VIN
p5249
sbag5
(g6
g7
(lp5250
g5
(g6
g7
(lp5251
V0.38
p5252
atp5253
Rp5254
(dp5255
g16
VCD
p5256
sbag5
(g6
g7
(lp5257
Vseconds
p5258
atp5259
Rp5260
(dp5261
g16
VNNS
p5262
sbatp5263
Rp5264
(dp5265
g16
VNP
p5266
sbatp5267
Rp5268
(dp5269
g16
VPP
p5270
sbatp5271
Rp5272
(dp5273
g16
VNP
p5274
sbag5
(g6
g7
(lp5275
Vand
p5276
atp5277
Rp5278
(dp5279
g16
VCC
p5280
sbag5
(g6
g7
(lp5281
g5
(g6
g7
(lp5282
g5
(g6
g7
(lp5283
g115
atp5284
Rp5285
(dp5286
g16
VDT
p5287
sbag5
(g6
g7
(lp5288
Vstandard
p5289
atp5290
Rp5291
(dp5292
g16
VJJ
p5293
sbag5
(g6
g7
(lp5294
Vdeviation
p5295
atp5296
Rp5297
(dp5298
g16
VNN
p5299
sbatp5300
Rp5301
(dp5302
g16
VNP
p5303
sbag5
(g6
g7
(lp5304
g5
(g6
g7
(lp5305
Vof
p5306
atp5307
Rp5308
(dp5309
g16
VIN
p5310
sbag5
(g6
g7
(lp5311
g5
(g6
g7
(lp5312
V0.27
p5313
atp5314
Rp5315
(dp5316
g16
VCD
p5317
sbag5
(g6
g7
(lp5318
Vseconds
p5319
atp5320
Rp5321
(dp5322
g16
VNNS
p5323
sbatp5324
Rp5325
(dp5326
g16
VNP
p5327
sbatp5328
Rp5329
(dp5330
g16
VPP
p5331
sbatp5332
Rp5333
(dp5334
g16
VNP
p5335
sbatp5336
Rp5337
(dp5338
g16
VNP
p5339
sbatp5340
Rp5341
(dp5342
g16
VVP
p5343
sbatp5344
Rp5345
(dp5346
g16
g199
sbatp5347
Rp5348
(dp5349
g16
VROOT
p5350
sbag5
(g6
g7
(lp5351
g5
(g6
g7
(lp5352
g5
(g6
g7
(lp5353
g5
(g6
g7
(lp5354
VThis
p5355
atp5356
Rp5357
(dp5358
g16
VDT
p5359
sbatp5360
Rp5361
(dp5362
g16
VNP
p5363
sbag5
(g6
g7
(lp5364
g5
(g6
g7
(lp5365
Vindicates
p5366
atp5367
Rp5368
(dp5369
g16
VVBZ
p5370
sbag5
(g6
g7
(lp5371
g5
(g6
g7
(lp5372
Vthat
p5373
atp5374
Rp5375
(dp5376
g16
VIN
p5377
sbag5
(g6
g7
(lp5378
g5
(g6
g7
(lp5379
g5
(g6
g7
(lp5380
Valthough
p5381
atp5382
Rp5383
(dp5384
g16
VIN
p5385
sbag5
(g6
g7
(lp5386
g5
(g6
g7
(lp5387
g5
(g6
g7
(lp5388
VIAA
p5389
atp5390
Rp5391
(dp5392
g16
VNNP
p5393
sbatp5394
Rp5395
(dp5396
g16
VNP
p5397
sbag5
(g6
g7
(lp5398
g5
(g6
g7
(lp5399
Vis
p5400
atp5401
Rp5402
(dp5403
g16
VVBZ
p5404
sbag5
(g6
g7
(lp5405
g5
(g6
g7
(lp5406
Veasy
p5407
atp5408
Rp5409
(dp5410
g16
VJJ
p5411
sbag5
(g6
g7
(lp5412
g5
(g6
g7
(lp5413
g5
(g6
g7
(lp5414
Vto
p5415
atp5416
Rp5417
(dp5418
g16
VTO
p5419
sbag5
(g6
g7
(lp5420
g5
(g6
g7
(lp5421
Vcompute
p5422
atp5423
Rp5424
(dp5425
g16
VVB
p5426
sbatp5427
Rp5428
(dp5429
g16
VVP
p5430
sbatp5431
Rp5432
(dp5433
g16
VVP
p5434
sbatp5435
Rp5436
(dp5437
g16
g199
sbatp5438
Rp5439
(dp5440
g16
VADJP
p5441
sbatp5442
Rp5443
(dp5444
g16
VVP
p5445
sbatp5446
Rp5447
(dp5448
g16
g199
sbatp5449
Rp5450
(dp5451
g16
VSBAR
p5452
sbag5
(g6
g7
(lp5453
g51
atp5454
Rp5455
(dp5456
g16
g51
sbag5
(g6
g7
(lp5457
g5
(g6
g7
(lp5458
Vit
p5459
atp5460
Rp5461
(dp5462
g16
VPRP
p5463
sbatp5464
Rp5465
(dp5466
g16
VNP
p5467
sbag5
(g6
g7
(lp5468
g5
(g6
g7
(lp5469
Vdoes
p5470
atp5471
Rp5472
(dp5473
g16
VVBZ
p5474
sbag5
(g6
g7
(lp5475
Vnot
p5476
atp5477
Rp5478
(dp5479
g16
VRB
p5480
sbag5
(g6
g7
(lp5481
g5
(g6
g7
(lp5482
Vdetermine
p5483
atp5484
Rp5485
(dp5486
g16
VVB
p5487
sbag5
(g6
g7
(lp5488
g5
(g6
g7
(lp5489
g5
(g6
g7
(lp5490
Vsentiment
p5491
atp5492
Rp5493
(dp5494
g16
VNN
p5495
sbag5
(g6
g7
(lp5496
Vannotation
p5497
atp5498
Rp5499
(dp5500
g16
VNN
p5501
sbag5
(g6
g7
(lp5502
Vcomplexity
p5503
atp5504
Rp5505
(dp5506
g16
VNN
p5507
sbatp5508
Rp5509
(dp5510
g16
VNP
p5511
sbag5
(g6
g7
(lp5512
g5
(g6
g7
(lp5513
Vof
p5514
atp5515
Rp5516
(dp5517
g16
VIN
p5518
sbag5
(g6
g7
(lp5519
g5
(g6
g7
(lp5520
Vtext
p5521
atp5522
Rp5523
(dp5524
g16
VNN
p5525
sbatp5526
Rp5527
(dp5528
g16
VNP
p5529
sbatp5530
Rp5531
(dp5532
g16
VPP
p5533
sbatp5534
Rp5535
(dp5536
g16
VNP
p5537
sbag5
(g6
g7
(lp5538
g5
(g6
g7
(lp5539
Vin
p5540
atp5541
Rp5542
(dp5543
g16
VIN
p5544
sbag5
(g6
g7
(lp5545
g5
(g6
g7
(lp5546
Vitself
p5547
atp5548
Rp5549
(dp5550
g16
VPRP
p5551
sbatp5552
Rp5553
(dp5554
g16
VNP
p5555
sbatp5556
Rp5557
(dp5558
g16
VPP
p5559
sbatp5560
Rp5561
(dp5562
g16
VVP
p5563
sbatp5564
Rp5565
(dp5566
g16
VVP
p5567
sbatp5568
Rp5569
(dp5570
g16
g199
sbatp5571
Rp5572
(dp5573
g16
VSBAR
p5574
sbatp5575
Rp5576
(dp5577
g16
VVP
p5578
sbatp5579
Rp5580
(dp5581
g16
g199
sbatp5582
Rp5583
(dp5584
g16
VROOT
p5585
sbasg287
(icmyPackage
CorE
p5586
(dp5587
g290
(lp5588
(I0
I0
tp5589
a(I0
I19
tp5590
asg294
g5348
sbsg295
(icmyPackage
CorE
p5591
(dp5592
g290
(lp5593
(I1
I3
tp5594
a(I1
I20
tp5595
asg294
g5569
sbsg306
(icmyPackage
pattern
p5596
(dp5597
g309
I0
sg310
I1
sg311
(lp5598
(lp5599
(lp5600
S'imply'
p5601
aS'implies'
p5602
aS'implied'
p5603
aS'indicate'
p5604
aS'indicates'
p5605
aS'indicated'
p5606
aaasg317
(lp5607
I4
aI1
aI1
asg319
(lp5608
S'The epistemology has been emphasized in the effort to solve the semantics problem. This implies that the current approaches to the semantic web, machine translation, and text understanding through processing symbols in the cyber space is questionable in essence.'
p5609
asg322
I93
sg323
(lp5610
(lp5611
S'&C'
p5612
aS'(,/./;/--)'
p5613
aS'&this'
p5614
aS'(&adj)'
p5615
aS'(&N)'
p5616
aS'(&CAN/have/has/had)'
p5617
aS'(&ADV)'
p5618
aa(lp5619
S'(that)'
p5620
aS'&R@Complete@'
p5621
aasbsg330
(lp5622
(isxpPackage
sxpSent
p5623
(dp5624
g334
(lp5625
I15
asg336
VHowever, the duration for these sentences has a mean of 0.38 seconds and a standard deviation of 0.27 seconds
p5626
sg338
I3
sg322
I47
sg339
I9
sba(isxpPackage
sxpSent
p5627
(dp5628
g334
(lp5629
I15
asg336
VThis indicates that although IAA is easy to compute, it does not determine sentiment annotation complexity of text in itself
p5630
sg338
I3
sg322
I48
sg339
I9
sbasba(icmyPackage
CELink
p5631
(dp5632
g3
(lp5633
g5
(g6
g7
(lp5634
g5
(g6
g7
(lp5635
g5
(g6
g7
(lp5636
g5
(g6
g7
(lp5637
VWe
p5638
atp5639
Rp5640
(dp5641
g16
VPRP
p5642
sbatp5643
Rp5644
(dp5645
g16
VNP
p5646
sbag5
(g6
g7
(lp5647
g5
(g6
g7
(lp5648
Vwish
p5649
atp5650
Rp5651
(dp5652
g16
VVBP
p5653
sbag5
(g6
g7
(lp5654
g5
(g6
g7
(lp5655
g5
(g6
g7
(lp5656
Vto
p5657
atp5658
Rp5659
(dp5660
g16
VTO
p5661
sbag5
(g6
g7
(lp5662
g5
(g6
g7
(lp5663
Vpredict
p5664
atp5665
Rp5666
(dp5667
g16
VVB
p5668
sbag5
(g6
g7
(lp5669
g5
(g6
g7
(lp5670
g5
(g6
g7
(lp5671
Vsentiment
p5672
atp5673
Rp5674
(dp5675
g16
VNN
p5676
sbag5
(g6
g7
(lp5677
Vannotation
p5678
atp5679
Rp5680
(dp5681
g16
VNN
p5682
sbag5
(g6
g7
(lp5683
Vcomplexity
p5684
atp5685
Rp5686
(dp5687
g16
VNN
p5688
sbatp5689
Rp5690
(dp5691
g16
VNP
p5692
sbag5
(g6
g7
(lp5693
g5
(g6
g7
(lp5694
Vof
p5695
atp5696
Rp5697
(dp5698
g16
VIN
p5699
sbag5
(g6
g7
(lp5700
g5
(g6
g7
(lp5701
g5
(g6
g7
(lp5702
Vthe
p5703
atp5704
Rp5705
(dp5706
g16
VDT
p5707
sbag5
(g6
g7
(lp5708
Vtext
p5709
atp5710
Rp5711
(dp5712
g16
VNN
p5713
sbatp5714
Rp5715
(dp5716
g16
VNP
p5717
sbag5
(g6
g7
(lp5718
g5
(g6
g7
(lp5719
Vusing
p5720
atp5721
Rp5722
(dp5723
g16
VVBG
p5724
sbag5
(g6
g7
(lp5725
g5
(g6
g7
(lp5726
g115
atp5727
Rp5728
(dp5729
g16
VDT
p5730
sbag5
(g6
g7
(lp5731
Vsupervised
p5732
atp5733
Rp5734
(dp5735
g16
VJJ
p5736
sbag5
(g6
g7
(lp5737
Vtechnique
p5738
atp5739
Rp5740
(dp5741
g16
VNN
p5742
sbatp5743
Rp5744
(dp5745
g16
VNP
p5746
sbatp5747
Rp5748
(dp5749
g16
VVP
p5750
sbatp5751
Rp5752
(dp5753
g16
VNP
p5754
sbatp5755
Rp5756
(dp5757
g16
VPP
p5758
sbatp5759
Rp5760
(dp5761
g16
VNP
p5762
sbatp5763
Rp5764
(dp5765
g16
VVP
p5766
sbatp5767
Rp5768
(dp5769
g16
VVP
p5770
sbatp5771
Rp5772
(dp5773
g16
g199
sbatp5774
Rp5775
(dp5776
g16
VVP
p5777
sbatp5778
Rp5779
(dp5780
g16
g199
sbatp5781
Rp5782
(dp5783
g16
VROOT
p5784
sbag5
(g6
g7
(lp5785
g5
(g6
g7
(lp5786
g5
(g6
g7
(lp5787
g5
(g6
g7
(lp5788
VAs
p5789
atp5790
Rp5791
(dp5792
g16
VIN
p5793
sbag5
(g6
g7
(lp5794
g5
(g6
g7
(lp5795
g5
(g6
g7
(lp5796
Vstated
p5797
atp5798
Rp5799
(dp5800
g16
VVBN
p5801
sbag5
(g6
g7
(lp5802
g5
(g6
g7
(lp5803
Vabove
p5804
atp5805
Rp5806
(dp5807
g16
VIN
p5808
sbatp5809
Rp5810
(dp5811
g16
VPP
p5812
sbatp5813
Rp5814
(dp5815
g16
VVP
p5816
sbatp5817
Rp5818
(dp5819
g16
g199
sbatp5820
Rp5821
(dp5822
g16
VSBAR
p5823
sbag5
(g6
g7
(lp5824
g51
atp5825
Rp5826
(dp5827
g16
g51
sbag5
(g6
g7
(lp5828
g5
(g6
g7
(lp5829
Vthe
p5830
atp5831
Rp5832
(dp5833
g16
VDT
p5834
sbag5
(g6
g7
(lp5835
Vtime-to-annotate
p5836
atp5837
Rp5838
(dp5839
g16
VNN
p5840
sbatp5841
Rp5842
(dp5843
g16
VNP
p5844
sbag5
(g6
g7
(lp5845
g5
(g6
g7
(lp5846
Vis
p5847
atp5848
Rp5849
(dp5850
g16
VVBZ
p5851
sbag5
(g6
g7
(lp5852
g5
(g6
g7
(lp5853
Vone
p5854
atp5855
Rp5856
(dp5857
g16
VCD
p5858
sbag5
(g6
g7
(lp5859
Vgood
p5860
atp5861
Rp5862
(dp5863
g16
VJJ
p5864
sbag5
(g6
g7
(lp5865
Vcandidate
p5866
atp5867
Rp5868
(dp5869
g16
VNN
p5870
sbatp5871
Rp5872
(dp5873
g16
VNP
p5874
sbatp5875
Rp5876
(dp5877
g16
VVP
p5878
sbatp5879
Rp5880
(dp5881
g16
g199
sbatp5882
Rp5883
(dp5884
g16
VROOT
p5885
sbasg287
(icmyPackage
CorE
p5886
(dp5887
g290
(lp5888
(I1
I1
tp5889
a(I1
I9
tp5890
asg294
g5
(g6
g7
(lp5891
g5818
ag5826
ag5842
ag5876
atp5892
Rp5893
(dp5894
g16
g305
sbsbsg295
(icmyPackage
CorE
p5895
(dp5896
g290
(lp5897
(I0
I0
tp5898
a(I0
I13
tp5899
asg294
g5782
sbsg306
(icmyPackage
pattern
p5900
(dp5901
g309
I26
sg310
I1
sg311
(lp5902
(lp5903
S'as'
p5904
aasg317
(lp5905
I3
aI1
aI1
asg319
(lp5906
S'You do not need to worry about the operation, as the software is very easy to use.'
p5907
asg322
I80
sg323
(lp5908
(lp5909
S'&R@Complete@'
p5910
aS'(,)'
p5911
aS'(-such/-same/-seem/-regard/-regards/-regarded/-view/-views/-viewed/-denote/-denoted/-denotes)'
p5912
aa(lp5913
S'(-if/-follow/-follows/-&adv)'
p5914
aS'&C@Complete@'
p5915
aasbsg330
(lp5916
(isxpPackage
sxpSent
p5917
(dp5918
g334
(lp5919
I16
asg336
VWe wish to predict sentiment annotation complexity of the text using a supervised technique
p5920
sg338
I4
sg322
I49
sg339
I10
sba(isxpPackage
sxpSent
p5921
(dp5922
g334
(lp5923
I16
asg336
VAs stated above, the time-to-annotate is one good candidate
p5924
sg338
I4
sg322
I50
sg339
I10
sbasba(icmyPackage
CELink
p5925
(dp5926
g3
(lp5927
g5
(g6
g7
(lp5928
g5
(g6
g7
(lp5929
g5
(g6
g7
(lp5930
g5
(g6
g7
(lp5931
VHowever
p5932
atp5933
Rp5934
(dp5935
g16
VRB
p5936
sbatp5937
Rp5938
(dp5939
g16
VADVP
p5940
sbag5
(g6
g7
(lp5941
g51
atp5942
Rp5943
(dp5944
g16
g51
sbag5
(g6
g7
(lp5945
g5
(g6
g7
(lp5946
g5
(g6
g7
(lp5947
g5
(g6
g7
(lp5948
g828
atp5949
Rp5950
(dp5951
g16
VNNP
p5952
sbag5
(g6
g7
(lp5953
g834
atp5954
Rp5955
(dp5956
g16
VPOS
p5957
sbatp5958
Rp5959
(dp5960
g16
VNP
p5961
sbag5
(g6
g7
(lp5962
V\u005c
p5963
atp5964
Rp5965
(dp5966
g16
VNN
p5967
sbatp5968
Rp5969
(dp5970
g16
VNP
p5971
sbag5
(g6
g7
(lp5972
g5
(g6
g7
(lp5973
g5
(g6
g7
(lp5974
g5
(g6
g7
(lp5975
g5
(g6
g7
(lp5976
Vu201c
p5977
atp5978
Rp5979
(dp5980
g16
VNNP
p5981
sbag5
(g6
g7
(lp5982
g834
atp5983
Rp5984
(dp5985
g16
VPOS
p5986
sbatp5987
Rp5988
(dp5989
g16
VNP
p5990
sbag5
(g6
g7
(lp5991
Vsimple
p5992
atp5993
Rp5994
(dp5995
g16
VJJ
p5996
sbag5
(g6
g7
(lp5997
Vtime
p5998
atp5999
Rp6000
(dp6001
g16
VNN
p6002
sbag5
(g6
g7
(lp6003
Vmeasurement
p6004
atp6005
Rp6006
(dp6007
g16
VNN
p6008
sbatp6009
Rp6010
(dp6011
g16
VNP
p6012
sbag5
(g6
g7
(lp6013
g5
(g6
g7
(lp6014
g828
atp6015
Rp6016
(dp6017
g16
VVBP
p6018
sbag5
(g6
g7
(lp6019
g834
atp6020
Rp6021
(dp6022
g16
V''
p6023
sbag5
(g6
g7
(lp6024
g5
(g6
g7
(lp6025
V\u005c
p6026
atp6027
Rp6028
(dp6029
g16
VJJ
p6030
sbag5
(g6
g7
(lp6031
Vu201d
p6032
atp6033
Rp6034
(dp6035
g16
VNNS
p6036
sbatp6037
Rp6038
(dp6039
g16
VNP
p6040
sbag5
(g6
g7
(lp6041
g834
atp6042
Rp6043
(dp6044
g16
V''
p6045
sbatp6046
Rp6047
(dp6048
g16
VVP
p6049
sbatp6050
Rp6051
(dp6052
g16
g199
sbatp6053
Rp6054
(dp6055
g16
VSBAR
p6056
sbatp6057
Rp6058
(dp6059
g16
VNP
p6060
sbag5
(g6
g7
(lp6061
g5
(g6
g7
(lp6062
Vis
p6063
atp6064
Rp6065
(dp6066
g16
VVBZ
p6067
sbag5
(g6
g7
(lp6068
Vnot
p6069
atp6070
Rp6071
(dp6072
g16
VRB
p6073
sbag5
(g6
g7
(lp6074
g5
(g6
g7
(lp6075
Vreliable
p6076
atp6077
Rp6078
(dp6079
g16
VJJ
p6080
sbatp6081
Rp6082
(dp6083
g16
VADJP
p6084
sbag5
(g6
g7
(lp6085
g5
(g6
g7
(lp6086
Vbecause
p6087
atp6088
Rp6089
(dp6090
g16
VIN
p6091
sbag5
(g6
g7
(lp6092
g5
(g6
g7
(lp6093
g5
(g6
g7
(lp6094
Vthe
p6095
atp6096
Rp6097
(dp6098
g16
VDT
p6099
sbag5
(g6
g7
(lp6100
Vannotator
p6101
atp6102
Rp6103
(dp6104
g16
VNN
p6105
sbatp6106
Rp6107
(dp6108
g16
VNP
p6109
sbag5
(g6
g7
(lp6110
g5
(g6
g7
(lp6111
Vmay
p6112
atp6113
Rp6114
(dp6115
g16
VMD
p6116
sbag5
(g6
g7
(lp6117
g5
(g6
g7
(lp6118
Vspend
p6119
atp6120
Rp6121
(dp6122
g16
VVB
p6123
sbag5
(g6
g7
(lp6124
g5
(g6
g7
(lp6125
Vtime
p6126
atp6127
Rp6128
(dp6129
g16
VNN
p6130
sbatp6131
Rp6132
(dp6133
g16
VNP
p6134
sbag5
(g6
g7
(lp6135
g5
(g6
g7
(lp6136
Vnot
p6137
atp6138
Rp6139
(dp6140
g16
VRB
p6141
sbag5
(g6
g7
(lp6142
g5
(g6
g7
(lp6143
Vdoing
p6144
atp6145
Rp6146
(dp6147
g16
VVBG
p6148
sbag5
(g6
g7
(lp6149
g5
(g6
g7
(lp6150
g5
(g6
g7
(lp6151
Vany
p6152
atp6153
Rp6154
(dp6155
g16
VDT
p6156
sbag5
(g6
g7
(lp6157
Vannotation
p6158
atp6159
Rp6160
(dp6161
g16
VNN
p6162
sbatp6163
Rp6164
(dp6165
g16
VNP
p6166
sbag5
(g6
g7
(lp6167
g5
(g6
g7
(lp6168
Vdue
p6169
atp6170
Rp6171
(dp6172
g16
VJJ
p6173
sbag5
(g6
g7
(lp6174
g5
(g6
g7
(lp6175
Vto
p6176
atp6177
Rp6178
(dp6179
g16
VTO
p6180
sbag5
(g6
g7
(lp6181
g5
(g6
g7
(lp6182
Vfatigue
p6183
atp6184
Rp6185
(dp6186
g16
VNN
p6187
sbag5
(g6
g7
(lp6188
Vor
p6189
atp6190
Rp6191
(dp6192
g16
VCC
p6193
sbag5
(g6
g7
(lp6194
Vdistraction
p6195
atp6196
Rp6197
(dp6198
g16
VNN
p6199
sbatp6200
Rp6201
(dp6202
g16
VNP
p6203
sbatp6204
Rp6205
(dp6206
g16
VPP
p6207
sbatp6208
Rp6209
(dp6210
g16
VADJP
p6211
sbatp6212
Rp6213
(dp6214
g16
g199
sbatp6215
Rp6216
(dp6217
g16
VVP
p6218
sbatp6219
Rp6220
(dp6221
g16
g199
sbatp6222
Rp6223
(dp6224
g16
VVP
p6225
sbatp6226
Rp6227
(dp6228
g16
VVP
p6229
sbatp6230
Rp6231
(dp6232
g16
g199
sbatp6233
Rp6234
(dp6235
g16
VSBAR
p6236
sbatp6237
Rp6238
(dp6239
g16
VVP
p6240
sbatp6241
Rp6242
(dp6243
g16
g199
sbatp6244
Rp6245
(dp6246
g16
VROOT
p6247
sbasg287
(icmyPackage
CorE
p6248
(dp6249
g290
(lp6250
(I0
I19
tp6251
a(I0
I32
tp6252
asg294
g6231
sbsg295
(icmyPackage
CorE
p6253
(dp6254
g290
(lp6255
(I0
I0
tp6256
a(I0
I17
tp6257
asg294
g5
(g6
g7
(lp6258
g5938
ag5943
ag6058
ag6065
ag6071
ag6082
atp6259
Rp6260
(dp6261
g16
g305
sbsbsg306
(icmyPackage
pattern
p6262
(dp6263
g309
I407
sg310
I1
sg311
(lp6264
(lp6265
S'because'
p6266
aasg317
(lp6267
I3
aI1
aI1
asg319
(lp6268
S'It ends up in burnout and less production, because we inevitably run out of energy.'
p6269
asg322
I76
sg323
(lp6270
(lp6271
S'&R'
p6272
aS'(,)'
p6273
aS'(&ADV)'
p6274
aa(lp6275
S'&C'
p6276
aasbsg330
(lp6277
(isxpPackage
sxpSent
p6278
(dp6279
g334
(lp6280
I17
aI18
asg336
VHowever, u'\u005cu201c' simple time measurement u'\u005cu201d' is not reliable because the annotator may spend time not doing any annotation due to fatigue or distraction
p6281
sg338
I4
sg322
I51
sg339
I10
sbasba(icmyPackage
CELink
p6282
(dp6283
g3
(lp6284
g6231
asg287
(icmyPackage
CorE
p6285
(dp6286
g290
(lp6287
(I0
I11
tp6288
a(I0
I13
tp6289
asg294
g6201
sbsg295
(icmyPackage
CorE
p6290
(dp6291
g290
(lp6292
(I0
I0
tp6293
a(I0
I8
tp6294
asg294
g5
(g6
g7
(lp6295
g6107
ag6114
ag6121
ag6132
ag6139
ag6146
ag6164
atp6296
Rp6297
(dp6298
g16
g305
sbsbsg306
g2732
sg330
(lp6299
g6278
asba(icmyPackage
CELink
p6300
(dp6301
g3
(lp6302
g5
(g6
g7
(lp6303
g5
(g6
g7
(lp6304
g5
(g6
g7
(lp6305
g5
(g6
g7
(lp6306
VHowever
p6307
atp6308
Rp6309
(dp6310
g16
VRB
p6311
sbatp6312
Rp6313
(dp6314
g16
VADVP
p6315
sbag5
(g6
g7
(lp6316
g51
atp6317
Rp6318
(dp6319
g16
g51
sbag5
(g6
g7
(lp6320
g5
(g6
g7
(lp6321
Vsaccade
p6322
atp6323
Rp6324
(dp6325
g16
VJJ
p6326
sbag5
(g6
g7
(lp6327
Vduration
p6328
atp6329
Rp6330
(dp6331
g16
VNN
p6332
sbatp6333
Rp6334
(dp6335
g16
VNP
p6336
sbag5
(g6
g7
(lp6337
g5
(g6
g7
(lp6338
Vis
p6339
atp6340
Rp6341
(dp6342
g16
VVBZ
p6343
sbag5
(g6
g7
(lp6344
Vnot
p6345
atp6346
Rp6347
(dp6348
g16
VRB
p6349
sbag5
(g6
g7
(lp6350
g5
(g6
g7
(lp6351
Vsignificant
p6352
atp6353
Rp6354
(dp6355
g16
VJJ
p6356
sbag5
(g6
g7
(lp6357
g5
(g6
g7
(lp6358
Vfor
p6359
atp6360
Rp6361
(dp6362
g16
VIN
p6363
sbag5
(g6
g7
(lp6364
g5
(g6
g7
(lp6365
g5
(g6
g7
(lp6366
Vannotation
p6367
atp6368
Rp6369
(dp6370
g16
VNN
p6371
sbatp6372
Rp6373
(dp6374
g16
VNP
p6375
sbag5
(g6
g7
(lp6376
g5
(g6
g7
(lp6377
Vof
p6378
atp6379
Rp6380
(dp6381
g16
VIN
p6382
sbag5
(g6
g7
(lp6383
g5
(g6
g7
(lp6384
Vshort
p6385
atp6386
Rp6387
(dp6388
g16
VJJ
p6389
sbag5
(g6
g7
(lp6390
Vtext
p6391
atp6392
Rp6393
(dp6394
g16
VNN
p6395
sbatp6396
Rp6397
(dp6398
g16
VNP
p6399
sbatp6400
Rp6401
(dp6402
g16
VPP
p6403
sbatp6404
Rp6405
(dp6406
g16
VNP
p6407
sbatp6408
Rp6409
(dp6410
g16
VPP
p6411
sbatp6412
Rp6413
(dp6414
g16
VADJP
p6415
sbag5
(g6
g7
(lp6416
g51
atp6417
Rp6418
(dp6419
g16
g51
sbag5
(g6
g7
(lp6420
g5
(g6
g7
(lp6421
Vas
p6422
atp6423
Rp6424
(dp6425
g16
VRB
p6426
sbag5
(g6
g7
(lp6427
g5
(g6
g7
(lp6428
Vin
p6429
atp6430
Rp6431
(dp6432
g16
VIN
p6433
sbag5
(g6
g7
(lp6434
g5
(g6
g7
(lp6435
Vour
p6436
atp6437
Rp6438
(dp6439
g16
VPRP$
p6440
sbag5
(g6
g7
(lp6441
Vcase
p6442
atp6443
Rp6444
(dp6445
g16
VNN
p6446
sbatp6447
Rp6448
(dp6449
g16
VNP
p6450
sbatp6451
Rp6452
(dp6453
g16
VPP
p6454
sbatp6455
Rp6456
(dp6457
g16
VADVP
p6458
sbatp6459
Rp6460
(dp6461
g16
VVP
p6462
sbatp6463
Rp6464
(dp6465
g16
g199
sbatp6466
Rp6467
(dp6468
g16
VROOT
p6469
sbag5
(g6
g7
(lp6470
g5
(g6
g7
(lp6471
g5
(g6
g7
(lp6472
g5
(g6
g7
(lp6473
VHence
p6474
atp6475
Rp6476
(dp6477
g16
VRB
p6478
sbatp6479
Rp6480
(dp6481
g16
VADVP
p6482
sbag5
(g6
g7
(lp6483
g51
atp6484
Rp6485
(dp6486
g16
g51
sbag5
(g6
g7
(lp6487
g5
(g6
g7
(lp6488
g5
(g6
g7
(lp6489
Vthe
p6490
atp6491
Rp6492
(dp6493
g16
VDT
p6494
sbag5
(g6
g7
(lp6495
VSAC
p6496
atp6497
Rp6498
(dp6499
g16
VNNP
p6500
sbag5
(g6
g7
(lp6501
Vlabels
p6502
atp6503
Rp6504
(dp6505
g16
VNNS
p6506
sbatp6507
Rp6508
(dp6509
g16
VNP
p6510
sbag5
(g6
g7
(lp6511
g5
(g6
g7
(lp6512
Vof
p6513
atp6514
Rp6515
(dp6516
g16
VIN
p6517
sbag5
(g6
g7
(lp6518
g5
(g6
g7
(lp6519
Vour
p6520
atp6521
Rp6522
(dp6523
g16
VPRP$
p6524
sbag5
(g6
g7
(lp6525
Vdataset
p6526
atp6527
Rp6528
(dp6529
g16
VNN
p6530
sbatp6531
Rp6532
(dp6533
g16
VNP
p6534
sbatp6535
Rp6536
(dp6537
g16
VPP
p6538
sbatp6539
Rp6540
(dp6541
g16
VNP
p6542
sbag5
(g6
g7
(lp6543
g5
(g6
g7
(lp6544
Vare
p6545
atp6546
Rp6547
(dp6548
g16
VVBP
p6549
sbag5
(g6
g7
(lp6550
g5
(g6
g7
(lp6551
g5
(g6
g7
(lp6552
Vfixation
p6553
atp6554
Rp6555
(dp6556
g16
VNN
p6557
sbag5
(g6
g7
(lp6558
Vdurations
p6559
atp6560
Rp6561
(dp6562
g16
VNNS
p6563
sbatp6564
Rp6565
(dp6566
g16
VNP
p6567
sbag5
(g6
g7
(lp6568
g5
(g6
g7
(lp6569
Vwith
p6570
atp6571
Rp6572
(dp6573
g16
VIN
p6574
sbag5
(g6
g7
(lp6575
g5
(g6
g7
(lp6576
Vappropriate
p6577
atp6578
Rp6579
(dp6580
g16
VJJ
p6581
sbag5
(g6
g7
(lp6582
Vnormalization
p6583
atp6584
Rp6585
(dp6586
g16
VNN
p6587
sbatp6588
Rp6589
(dp6590
g16
VNP
p6591
sbatp6592
Rp6593
(dp6594
g16
VPP
p6595
sbatp6596
Rp6597
(dp6598
g16
VNP
p6599
sbatp6600
Rp6601
(dp6602
g16
VVP
p6603
sbatp6604
Rp6605
(dp6606
g16
g199
sbatp6607
Rp6608
(dp6609
g16
VROOT
p6610
sbasg287
(icmyPackage
CorE
p6611
(dp6612
g290
(lp6613
(I0
I14
tp6614
a(I1
I12
tp6615
asg294
g5
(g6
g7
(lp6616
g6452
ag6480
ag6485
ag6540
ag6547
ag6565
ag6572
ag6579
atp6617
Rp6618
(dp6619
g16
g305
sbsbsg295
(icmyPackage
CorE
p6620
(dp6621
g290
(lp6622
(I0
I0
tp6623
a(I0
I11
tp6624
asg294
g5
(g6
g7
(lp6625
g6313
ag6318
ag6334
ag6341
ag6347
ag6413
atp6626
Rp6627
(dp6628
g16
g305
sbsbsg306
g5900
sg330
(lp6629
(isxpPackage
sxpSent
p6630
(dp6631
g334
(lp6632
I19
aI20
asg336
VHowever, saccade duration is not significant for annotation of short text, as in our case
p6633
sg338
I4
sg322
I54
sg339
I10
sba(isxpPackage
sxpSent
p6634
(dp6635
g334
(lp6636
I19
aI20
asg336
VHence, the SAC labels of our dataset are fixation durations with appropriate normalization
p6637
sg338
I4
sg322
I55
sg339
I10
sbasba(icmyPackage
CELink
p6638
(dp6639
g3
(lp6640
g6467
ag6608
asg287
(icmyPackage
CorE
p6641
(dp6642
g290
(lp6643
(I0
I0
tp6644
a(I0
I16
tp6645
asg294
g6467
sbsg295
(icmyPackage
CorE
p6646
(dp6647
g290
(lp6648
(I1
I2
tp6649
a(I1
I13
tp6650
asg294
g5
(g6
g7
(lp6651
g6540
ag6601
atp6652
Rp6653
(dp6654
g16
g305
sbsbsg306
g4164
sg330
(lp6655
g6630
ag6634
asba(icmyPackage
CELink
p6656
(dp6657
g3
(lp6658
g5
(g6
g7
(lp6659
g5
(g6
g7
(lp6660
g5
(g6
g7
(lp6661
g5
(g6
g7
(lp6662
VThis
p6663
atp6664
Rp6665
(dp6666
g16
VDT
p6667
sbatp6668
Rp6669
(dp6670
g16
VNP
p6671
sbag5
(g6
g7
(lp6672
g5
(g6
g7
(lp6673
Vis
p6674
atp6675
Rp6676
(dp6677
g16
VVBZ
p6678
sbag5
(g6
g7
(lp6679
g5
(g6
g7
(lp6680
g5
(g6
g7
(lp6681
Vto
p6682
atp6683
Rp6684
(dp6685
g16
VTO
p6686
sbag5
(g6
g7
(lp6687
g5
(g6
g7
(lp6688
Vprevent
p6689
atp6690
Rp6691
(dp6692
g16
VVB
p6693
sbag5
(g6
g7
(lp6694
g5
(g6
g7
(lp6695
Vfatigue
p6696
atp6697
Rp6698
(dp6699
g16
VNN
p6700
sbatp6701
Rp6702
(dp6703
g16
VNP
p6704
sbag5
(g6
g7
(lp6705
g5
(g6
g7
(lp6706
Vover
p6707
atp6708
Rp6709
(dp6710
g16
VIN
p6711
sbag5
(g6
g7
(lp6712
g5
(g6
g7
(lp6713
g5
(g6
g7
(lp6714
g115
atp6715
Rp6716
(dp6717
g16
VDT
p6718
sbag5
(g6
g7
(lp6719
Vperiod
p6720
atp6721
Rp6722
(dp6723
g16
VNN
p6724
sbatp6725
Rp6726
(dp6727
g16
VNP
p6728
sbag5
(g6
g7
(lp6729
g5
(g6
g7
(lp6730
Vof
p6731
atp6732
Rp6733
(dp6734
g16
VIN
p6735
sbag5
(g6
g7
(lp6736
g5
(g6
g7
(lp6737
Vtime
p6738
atp6739
Rp6740
(dp6741
g16
VNN
p6742
sbatp6743
Rp6744
(dp6745
g16
VNP
p6746
sbatp6747
Rp6748
(dp6749
g16
VPP
p6750
sbatp6751
Rp6752
(dp6753
g16
VNP
p6754
sbatp6755
Rp6756
(dp6757
g16
VPP
p6758
sbatp6759
Rp6760
(dp6761
g16
VVP
p6762
sbatp6763
Rp6764
(dp6765
g16
VVP
p6766
sbatp6767
Rp6768
(dp6769
g16
g199
sbatp6770
Rp6771
(dp6772
g16
VVP
p6773
sbatp6774
Rp6775
(dp6776
g16
g199
sbatp6777
Rp6778
(dp6779
g16
VROOT
p6780
sbag5
(g6
g7
(lp6781
g5
(g6
g7
(lp6782
g5
(g6
g7
(lp6783
g5
(g6
g7
(lp6784
VThus
p6785
atp6786
Rp6787
(dp6788
g16
VRB
p6789
sbatp6790
Rp6791
(dp6792
g16
VADVP
p6793
sbag5
(g6
g7
(lp6794
g51
atp6795
Rp6796
(dp6797
g16
g51
sbag5
(g6
g7
(lp6798
g5
(g6
g7
(lp6799
Veach
p6800
atp6801
Rp6802
(dp6803
g16
VDT
p6804
sbag5
(g6
g7
(lp6805
Vannotator
p6806
atp6807
Rp6808
(dp6809
g16
VNN
p6810
sbatp6811
Rp6812
(dp6813
g16
VNP
p6814
sbag5
(g6
g7
(lp6815
g5
(g6
g7
(lp6816
Vparticipates
p6817
atp6818
Rp6819
(dp6820
g16
VVBZ
p6821
sbag5
(g6
g7
(lp6822
g5
(g6
g7
(lp6823
Vin
p6824
atp6825
Rp6826
(dp6827
g16
VIN
p6828
sbag5
(g6
g7
(lp6829
g5
(g6
g7
(lp6830
g5
(g6
g7
(lp6831
Vthis
p6832
atp6833
Rp6834
(dp6835
g16
VDT
p6836
sbag5
(g6
g7
(lp6837
Vexperiment
p6838
atp6839
Rp6840
(dp6841
g16
VNN
p6842
sbatp6843
Rp6844
(dp6845
g16
VNP
p6846
sbag5
(g6
g7
(lp6847
g5
(g6
g7
(lp6848
Vover
p6849
atp6850
Rp6851
(dp6852
g16
VIN
p6853
sbag5
(g6
g7
(lp6854
g5
(g6
g7
(lp6855
g5
(g6
g7
(lp6856
g115
atp6857
Rp6858
(dp6859
g16
VDT
p6860
sbag5
(g6
g7
(lp6861
Vnumber
p6862
atp6863
Rp6864
(dp6865
g16
VNN
p6866
sbatp6867
Rp6868
(dp6869
g16
VNP
p6870
sbag5
(g6
g7
(lp6871
g5
(g6
g7
(lp6872
Vof
p6873
atp6874
Rp6875
(dp6876
g16
VIN
p6877
sbag5
(g6
g7
(lp6878
g5
(g6
g7
(lp6879
Vsittings
p6880
atp6881
Rp6882
(dp6883
g16
VNNS
p6884
sbatp6885
Rp6886
(dp6887
g16
VNP
p6888
sbatp6889
Rp6890
(dp6891
g16
VPP
p6892
sbatp6893
Rp6894
(dp6895
g16
VNP
p6896
sbatp6897
Rp6898
(dp6899
g16
VPP
p6900
sbatp6901
Rp6902
(dp6903
g16
VNP
p6904
sbatp6905
Rp6906
(dp6907
g16
VPP
p6908
sbatp6909
Rp6910
(dp6911
g16
VVP
p6912
sbatp6913
Rp6914
(dp6915
g16
g199
sbatp6916
Rp6917
(dp6918
g16
VROOT
p6919
sbasg287
(icmyPackage
CorE
p6920
(dp6921
g290
(lp6922
(I0
I0
tp6923
a(I0
I9
tp6924
asg294
g6778
sbsg295
(icmyPackage
CorE
p6925
(dp6926
g290
(lp6927
(I1
I1
tp6928
a(I1
I12
tp6929
asg294
g5
(g6
g7
(lp6930
g6796
ag6812
ag6910
atp6931
Rp6932
(dp6933
g16
g305
sbsbsg306
g1645
sg330
(lp6934
(isxpPackage
sxpSent
p6935
(dp6936
g334
(lp6937
I21
asg336
VThis is to prevent fatigue over a period of time
p6938
sg338
I5
sg322
I72
sg339
I16
sba(isxpPackage
sxpSent
p6939
(dp6940
g334
(lp6941
I21
asg336
VThus, each annotator participates in this experiment over a number of sittings
p6942
sg338
I5
sg322
I73
sg339
I16
sbasba(icmyPackage
CELink
p6943
(dp6944
g3
(lp6945
g5
(g6
g7
(lp6946
g5
(g6
g7
(lp6947
g5
(g6
g7
(lp6948
g5
(g6
g7
(lp6949
VWe
p6950
atp6951
Rp6952
(dp6953
g16
VPRP
p6954
sbatp6955
Rp6956
(dp6957
g16
VNP
p6958
sbag5
(g6
g7
(lp6959
g5
(g6
g7
(lp6960
g5
(g6
g7
(lp6961
Vensure
p6962
atp6963
Rp6964
(dp6965
g16
VVB
p6966
sbag5
(g6
g7
(lp6967
g5
(g6
g7
(lp6968
g5
(g6
g7
(lp6969
Vthe
p6970
atp6971
Rp6972
(dp6973
g16
VDT
p6974
sbag5
(g6
g7
(lp6975
Vquality
p6976
atp6977
Rp6978
(dp6979
g16
VNN
p6980
sbatp6981
Rp6982
(dp6983
g16
VNP
p6984
sbag5
(g6
g7
(lp6985
g5
(g6
g7
(lp6986
Vof
p6987
atp6988
Rp6989
(dp6990
g16
VIN
p6991
sbag5
(g6
g7
(lp6992
g5
(g6
g7
(lp6993
g5
(g6
g7
(lp6994
Vour
p6995
atp6996
Rp6997
(dp6998
g16
VPRP$
p6999
sbag5
(g6
g7
(lp7000
Vdataset
p7001
atp7002
Rp7003
(dp7004
g16
VNN
p7005
sbatp7006
Rp7007
(dp7008
g16
VNP
p7009
sbag5
(g6
g7
(lp7010
g5
(g6
g7
(lp7011
Vin
p7012
atp7013
Rp7014
(dp7015
g16
VIN
p7016
sbag5
(g6
g7
(lp7017
g5
(g6
g7
(lp7018
Vdifferent
p7019
atp7020
Rp7021
(dp7022
g16
VJJ
p7023
sbag5
(g6
g7
(lp7024
Vways
p7025
atp7026
Rp7027
(dp7028
g16
VNNS
p7029
sbatp7030
Rp7031
(dp7032
g16
VNP
p7033
sbatp7034
Rp7035
(dp7036
g16
VPP
p7037
sbatp7038
Rp7039
(dp7040
g16
VNP
p7041
sbatp7042
Rp7043
(dp7044
g16
VPP
p7045
sbag5
(g6
g7
(lp7046
g5
(g6
g7
(lp7047
g5
(g6
g7
(lp7048
g5
(g6
g7
(lp7049
g5
(g6
g7
(lp7050
g115
atp7051
Rp7052
(dp7053
g16
VLS
p7054
sbag5
(g6
g7
(lp7055
V-RRB-
p7056
atp7057
Rp7058
(dp7059
g16
V-RRB-
p7060
sbatp7061
Rp7062
(dp7063
g16
VLST
p7064
sbag5
(g6
g7
(lp7065
g5
(g6
g7
(lp7066
VOur
p7067
atp7068
Rp7069
(dp7070
g16
VPRP$
p7071
sbag5
(g6
g7
(lp7072
Vannotators
p7073
atp7074
Rp7075
(dp7076
g16
VNNS
p7077
sbatp7078
Rp7079
(dp7080
g16
VNP
p7081
sbag5
(g6
g7
(lp7082
g5
(g6
g7
(lp7083
Vare
p7084
atp7085
Rp7086
(dp7087
g16
VVBP
p7088
sbag5
(g6
g7
(lp7089
g5
(g6
g7
(lp7090
Vinstructed
p7091
atp7092
Rp7093
(dp7094
g16
VVBN
p7095
sbag5
(g6
g7
(lp7096
g5
(g6
g7
(lp7097
g5
(g6
g7
(lp7098
Vto
p7099
atp7100
Rp7101
(dp7102
g16
VTO
p7103
sbag5
(g6
g7
(lp7104
g5
(g6
g7
(lp7105
Vavoid
p7106
atp7107
Rp7108
(dp7109
g16
VVB
p7110
sbag5
(g6
g7
(lp7111
g5
(g6
g7
(lp7112
g5
(g6
g7
(lp7113
Vunnecessary
p7114
atp7115
Rp7116
(dp7117
g16
VJJ
p7118
sbag5
(g6
g7
(lp7119
Vhead
p7120
atp7121
Rp7122
(dp7123
g16
VNN
p7124
sbag5
(g6
g7
(lp7125
Vmovements
p7126
atp7127
Rp7128
(dp7129
g16
VNNS
p7130
sbag5
(g6
g7
(lp7131
Vand
p7132
atp7133
Rp7134
(dp7135
g16
VCC
p7136
sbag5
(g6
g7
(lp7137
Veye-movements
p7138
atp7139
Rp7140
(dp7141
g16
VNNS
p7142
sbatp7143
Rp7144
(dp7145
g16
VNP
p7146
sbag5
(g6
g7
(lp7147
g5
(g6
g7
(lp7148
Voutside
p7149
atp7150
Rp7151
(dp7152
g16
VIN
p7153
sbag5
(g6
g7
(lp7154
g5
(g6
g7
(lp7155
Vthe
p7156
atp7157
Rp7158
(dp7159
g16
VDT
p7160
sbag5
(g6
g7
(lp7161
Vexperiment
p7162
atp7163
Rp7164
(dp7165
g16
VNN
p7166
sbag5
(g6
g7
(lp7167
Venvironment
p7168
atp7169
Rp7170
(dp7171
g16
VNN
p7172
sbatp7173
Rp7174
(dp7175
g16
VNP
p7176
sbatp7177
Rp7178
(dp7179
g16
VPP
p7180
sbag5
(g6
g7
(lp7181
g5
(g6
g7
(lp7182
g5
(g6
g7
(lp7183
g5
(g6
g7
(lp7184
Vb
p7185
atp7186
Rp7187
(dp7188
g16
VSYM
p7189
sbatp7190
Rp7191
(dp7192
g16
VNP
p7193
sbag5
(g6
g7
(lp7194
V-RRB-
p7195
atp7196
Rp7197
(dp7198
g16
V-RRB-
p7199
sbag5
(g6
g7
(lp7200
g5
(g6
g7
(lp7201
VTo
p7202
atp7203
Rp7204
(dp7205
g16
VTO
p7206
sbag5
(g6
g7
(lp7207
g5
(g6
g7
(lp7208
Vminimize
p7209
atp7210
Rp7211
(dp7212
g16
VVB
p7213
sbag5
(g6
g7
(lp7214
g5
(g6
g7
(lp7215
g5
(g6
g7
(lp7216
Vnoise
p7217
atp7218
Rp7219
(dp7220
g16
VNN
p7221
sbatp7222
Rp7223
(dp7224
g16
VNP
p7225
sbag5
(g6
g7
(lp7226
g5
(g6
g7
(lp7227
Vdue
p7228
atp7229
Rp7230
(dp7231
g16
VJJ
p7232
sbag5
(g6
g7
(lp7233
g5
(g6
g7
(lp7234
g5
(g6
g7
(lp7235
Vto
p7236
atp7237
Rp7238
(dp7239
g16
VTO
p7240
sbag5
(g6
g7
(lp7241
g5
(g6
g7
(lp7242
Vhead
p7243
atp7244
Rp7245
(dp7246
g16
VVB
p7247
sbag5
(g6
g7
(lp7248
g5
(g6
g7
(lp7249
Vmovements
p7250
atp7251
Rp7252
(dp7253
g16
VNNS
p7254
sbatp7255
Rp7256
(dp7257
g16
VNP
p7258
sbag5
(g6
g7
(lp7259
g5
(g6
g7
(lp7260
Vfurther
p7261
atp7262
Rp7263
(dp7264
g16
VRBR
p7265
sbatp7266
Rp7267
(dp7268
g16
VADVP
p7269
sbatp7270
Rp7271
(dp7272
g16
VVP
p7273
sbatp7274
Rp7275
(dp7276
g16
VVP
p7277
sbatp7278
Rp7279
(dp7280
g16
g199
sbatp7281
Rp7282
(dp7283
g16
VADJP
p7284
sbatp7285
Rp7286
(dp7287
g16
g199
sbatp7288
Rp7289
(dp7290
g16
VVP
p7291
sbatp7292
Rp7293
(dp7294
g16
VVP
p7295
sbatp7296
Rp7297
(dp7298
g16
g199
sbatp7299
Rp7300
(dp7301
g16
VSBAR
p7302
sbatp7303
Rp7304
(dp7305
g16
VNP
p7306
sbatp7307
Rp7308
(dp7309
g16
VVP
p7310
sbatp7311
Rp7312
(dp7313
g16
VVP
p7314
sbatp7315
Rp7316
(dp7317
g16
g199
sbatp7318
Rp7319
(dp7320
g16
VVP
p7321
sbatp7322
Rp7323
(dp7324
g16
VVP
p7325
sbatp7326
Rp7327
(dp7328
g16
g199
sbag5
(g6
g7
(lp7329
g51
atp7330
Rp7331
(dp7332
g16
g51
sbag5
(g6
g7
(lp7333
g5
(g6
g7
(lp7334
g5
(g6
g7
(lp7335
Vthey
p7336
atp7337
Rp7338
(dp7339
g16
VPRP
p7340
sbatp7341
Rp7342
(dp7343
g16
VNP
p7344
sbag5
(g6
g7
(lp7345
g5
(g6
g7
(lp7346
Vare
p7347
atp7348
Rp7349
(dp7350
g16
VVBP
p7351
sbag5
(g6
g7
(lp7352
g5
(g6
g7
(lp7353
Valso
p7354
atp7355
Rp7356
(dp7357
g16
VRB
p7358
sbatp7359
Rp7360
(dp7361
g16
VADVP
p7362
sbag5
(g6
g7
(lp7363
g5
(g6
g7
(lp7364
Vasked
p7365
atp7366
Rp7367
(dp7368
g16
VVBN
p7369
sbag5
(g6
g7
(lp7370
g5
(g6
g7
(lp7371
g5
(g6
g7
(lp7372
Vto
p7373
atp7374
Rp7375
(dp7376
g16
VTO
p7377
sbag5
(g6
g7
(lp7378
g5
(g6
g7
(lp7379
Vstate
p7380
atp7381
Rp7382
(dp7383
g16
VVB
p7384
sbag5
(g6
g7
(lp7385
g5
(g6
g7
(lp7386
Vthe
p7387
atp7388
Rp7389
(dp7390
g16
VDT
p7391
sbag5
(g6
g7
(lp7392
Vannotation
p7393
atp7394
Rp7395
(dp7396
g16
VNN
p7397
sbatp7398
Rp7399
(dp7400
g16
VNP
p7401
sbag5
(g6
g7
(lp7402
g5
(g6
g7
(lp7403
Vverbally
p7404
atp7405
Rp7406
(dp7407
g16
VRB
p7408
sbatp7409
Rp7410
(dp7411
g16
VADVP
p7412
sbag5
(g6
g7
(lp7413
g51
atp7414
Rp7415
(dp7416
g16
g51
sbag5
(g6
g7
(lp7417
g5
(g6
g7
(lp7418
g5
(g6
g7
(lp7419
Vwhich
p7420
atp7421
Rp7422
(dp7423
g16
VWDT
p7424
sbatp7425
Rp7426
(dp7427
g16
VWHNP
p7428
sbag5
(g6
g7
(lp7429
g5
(g6
g7
(lp7430
g5
(g6
g7
(lp7431
Vwas
p7432
atp7433
Rp7434
(dp7435
g16
VVBD
p7436
sbag5
(g6
g7
(lp7437
g5
(g6
g7
(lp7438
Vthen
p7439
atp7440
Rp7441
(dp7442
g16
VRB
p7443
sbatp7444
Rp7445
(dp7446
g16
VADVP
p7447
sbag5
(g6
g7
(lp7448
g5
(g6
g7
(lp7449
g5
(g6
g7
(lp7450
Vmanually
p7451
atp7452
Rp7453
(dp7454
g16
VRB
p7455
sbatp7456
Rp7457
(dp7458
g16
VADVP
p7459
sbag5
(g6
g7
(lp7460
Vrecorded
p7461
atp7462
Rp7463
(dp7464
g16
VVBN
p7465
sbatp7466
Rp7467
(dp7468
g16
VVP
p7469
sbatp7470
Rp7471
(dp7472
g16
VVP
p7473
sbatp7474
Rp7475
(dp7476
g16
g199
sbatp7477
Rp7478
(dp7479
g16
VSBAR
p7480
sbatp7481
Rp7482
(dp7483
g16
VVP
p7484
sbatp7485
Rp7486
(dp7487
g16
VVP
p7488
sbatp7489
Rp7490
(dp7491
g16
g199
sbatp7492
Rp7493
(dp7494
g16
VVP
p7495
sbatp7496
Rp7497
(dp7498
g16
VVP
p7499
sbatp7500
Rp7501
(dp7502
g16
g199
sbag5
(g6
g7
(lp7503
g51
atp7504
Rp7505
(dp7506
g16
g51
sbag5
(g6
g7
(lp7507
g5
(g6
g7
(lp7508
g5
(g6
g7
(lp7509
V-LRB-
p7510
atp7511
Rp7512
(dp7513
g16
V-LRB-
p7514
sbag5
(g6
g7
(lp7515
Vc
p7516
atp7517
Rp7518
(dp7519
g16
VNN
p7520
sbag5
(g6
g7
(lp7521
V-RRB-
p7522
atp7523
Rp7524
(dp7525
g16
V-RRB-
p7526
sbatp7527
Rp7528
(dp7529
g16
VLST
p7530
sbag5
(g6
g7
(lp7531
g5
(g6
g7
(lp7532
VOur
p7533
atp7534
Rp7535
(dp7536
g16
VPRP$
p7537
sbag5
(g6
g7
(lp7538
Vannotators
p7539
atp7540
Rp7541
(dp7542
g16
VNNS
p7543
sbatp7544
Rp7545
(dp7546
g16
VNP
p7547
sbag5
(g6
g7
(lp7548
g5
(g6
g7
(lp7549
Vare
p7550
atp7551
Rp7552
(dp7553
g16
VVBP
p7554
sbag5
(g6
g7
(lp7555
g5
(g6
g7
(lp7556
g5
(g6
g7
(lp7557
Vstudents
p7558
atp7559
Rp7560
(dp7561
g16
VNNS
p7562
sbatp7563
Rp7564
(dp7565
g16
VNP
p7566
sbag5
(g6
g7
(lp7567
g5
(g6
g7
(lp7568
Vbetween
p7569
atp7570
Rp7571
(dp7572
g16
VIN
p7573
sbag5
(g6
g7
(lp7574
g5
(g6
g7
(lp7575
Vthe
p7576
atp7577
Rp7578
(dp7579
g16
VDT
p7580
sbag5
(g6
g7
(lp7581
Vages
p7582
atp7583
Rp7584
(dp7585
g16
VNNS
p7586
sbag5
(g6
g7
(lp7587
V20-24
p7588
atp7589
Rp7590
(dp7591
g16
VNN
p7592
sbatp7593
Rp7594
(dp7595
g16
VNP
p7596
sbatp7597
Rp7598
(dp7599
g16
VPP
p7600
sbatp7601
Rp7602
(dp7603
g16
VNP
p7604
sbatp7605
Rp7606
(dp7607
g16
VVP
p7608
sbatp7609
Rp7610
(dp7611
g16
g199
sbatp7612
Rp7613
(dp7614
g16
g199
sbatp7615
Rp7616
(dp7617
g16
VSBAR
p7618
sbatp7619
Rp7620
(dp7621
g16
VNP
p7622
sbag5
(g6
g7
(lp7623
g5
(g6
g7
(lp7624
Vwith
p7625
atp7626
Rp7627
(dp7628
g16
VIN
p7629
sbag5
(g6
g7
(lp7630
g5
(g6
g7
(lp7631
VEnglish
p7632
atp7633
Rp7634
(dp7635
g16
VNNP
p7636
sbatp7637
Rp7638
(dp7639
g16
VNP
p7640
sbatp7641
Rp7642
(dp7643
g16
VPP
p7644
sbag5
(g6
g7
(lp7645
g5
(g6
g7
(lp7646
Vas
p7647
atp7648
Rp7649
(dp7650
g16
VIN
p7651
sbag5
(g6
g7
(lp7652
g5
(g6
g7
(lp7653
g5
(g6
g7
(lp7654
Vthe
p7655
atp7656
Rp7657
(dp7658
g16
VDT
p7659
sbag5
(g6
g7
(lp7660
Vprimary
p7661
atp7662
Rp7663
(dp7664
g16
VJJ
p7665
sbag5
(g6
g7
(lp7666
Vlanguage
p7667
atp7668
Rp7669
(dp7670
g16
VNN
p7671
sbatp7672
Rp7673
(dp7674
g16
VNP
p7675
sbag5
(g6
g7
(lp7676
g5
(g6
g7
(lp7677
Vof
p7678
atp7679
Rp7680
(dp7681
g16
VIN
p7682
sbag5
(g6
g7
(lp7683
g5
(g6
g7
(lp7684
Vacademic
p7685
atp7686
Rp7687
(dp7688
g16
VJJ
p7689
sbag5
(g6
g7
(lp7690
Vinstruction
p7691
atp7692
Rp7693
(dp7694
g16
VNN
p7695
sbatp7696
Rp7697
(dp7698
g16
VNP
p7699
sbatp7700
Rp7701
(dp7702
g16
VPP
p7703
sbatp7704
Rp7705
(dp7706
g16
VNP
p7707
sbatp7708
Rp7709
(dp7710
g16
VPP
p7711
sbatp7712
Rp7713
(dp7714
g16
VVP
p7715
sbag5
(g6
g7
(lp7716
Vand
p7717
atp7718
Rp7719
(dp7720
g16
VCC
p7721
sbag5
(g6
g7
(lp7722
g5
(g6
g7
(lp7723
Vhave
p7724
atp7725
Rp7726
(dp7727
g16
VVB
p7728
sbag5
(g6
g7
(lp7729
g5
(g6
g7
(lp7730
g5
(g6
g7
(lp7731
Vsecured
p7732
atp7733
Rp7734
(dp7735
g16
VVBN
p7736
sbag5
(g6
g7
(lp7737
g5
(g6
g7
(lp7738
g5
(g6
g7
(lp7739
g115
atp7740
Rp7741
(dp7742
g16
VDT
p7743
sbag5
(g6
g7
(lp7744
VTOEFL
p7745
atp7746
Rp7747
(dp7748
g16
VJJ
p7749
sbag5
(g6
g7
(lp7750
ViBT
p7751
atp7752
Rp7753
(dp7754
g16
VNN
p7755
sbag5
(g6
g7
(lp7756
Vscore
p7757
atp7758
Rp7759
(dp7760
g16
VNN
p7761
sbatp7762
Rp7763
(dp7764
g16
VNP
p7765
sbag5
(g6
g7
(lp7766
g5
(g6
g7
(lp7767
Vof
p7768
atp7769
Rp7770
(dp7771
g16
VIN
p7772
sbag5
(g6
g7
(lp7773
g5
(g6
g7
(lp7774
V110
p7775
atp7776
Rp7777
(dp7778
g16
VCD
p7779
sbatp7780
Rp7781
(dp7782
g16
VNP
p7783
sbatp7784
Rp7785
(dp7786
g16
VPP
p7787
sbatp7788
Rp7789
(dp7790
g16
VNP
p7791
sbatp7792
Rp7793
(dp7794
g16
VVP
p7795
sbag5
(g6
g7
(lp7796
Vor
p7797
atp7798
Rp7799
(dp7800
g16
VCC
p7801
sbag5
(g6
g7
(lp7802
g5
(g6
g7
(lp7803
Vabove
p7804
atp7805
Rp7806
(dp7807
g16
VJJ
p7808
sbatp7809
Rp7810
(dp7811
g16
VADJP
p7812
sbatp7813
Rp7814
(dp7815
g16
VUCP
p7816
sbatp7817
Rp7818
(dp7819
g16
VVP
p7820
sbatp7821
Rp7822
(dp7823
g16
VVP
p7824
sbatp7825
Rp7826
(dp7827
g16
VFRAG
p7828
sbatp7829
Rp7830
(dp7831
g16
VROOT
p7832
sbasg287
(icmyPackage
CorE
p7833
(dp7834
g290
(lp7835
(I0
I0
tp7836
ag7836
asg294
g6956
sbsg295
(icmyPackage
CorE
p7837
(dp7838
g290
(lp7839
(I0
I2
tp7840
a(I0
I84
tp7841
asg294
g5
(g6
g7
(lp7842
g7620
ag7642
ag7709
ag7719
ag7818
atp7843
Rp7844
(dp7845
g16
g305
sbsbsg306
(icmyPackage
pattern
p7846
(dp7847
g309
I0
sg310
I0
sg311
(lp7848
(lp7849
(lp7850
S'indicate'
p7851
aS'indicates'
p7852
aS'indicated'
p7853
aS'realize'
p7854
aS'realizes'
p7855
aS'realized'
p7856
aS'ensure'
p7857
aS'ensures'
p7858
aS'ensured'
p7859
aS'imply'
p7860
aS'implies'
p7861
aS'implied'
p7862
aaasg317
(lp7863
I4
aI1
aI1
asg319
(lp7864
S'The basic characteristics and principles of language use and understanding indicate the following dimensions for evaluating a summarization'
p7865
asg322
I88
sg323
(lp7866
(lp7867
S'&NP@C@'
p7868
aS'(&Clause@C@)'
p7869
aa(lp7870
S'&NP@R@'
p7871
aS'(&Clause@R@)'
p7872
aasbsg330
(lp7873
(isxpPackage
sxpSent
p7874
(dp7875
g334
(lp7876
I22
aI23
asg336
VWe ensure the quality of our dataset in different ways a) Our annotators are instructed to avoid unnecessary head movements and eye-movements outside the experiment environment b) To minimize noise due to head movements further, they are also asked to state the annotation verbally, which was then manually recorded, (c) Our annotators are students between the ages 20-24 with English as the primary language of academic instruction and have secured a TOEFL iBT score of 110 or above
p7877
sg338
I5
sg322
I74
sg339
I17
sbasba(icmyPackage
CELink
p7878
(dp7879
g3
(lp7880
g7844
asg287
(icmyPackage
CorE
p7881
(dp7882
g290
(lp7883
(I0
I66
tp7884
a(I0
I82
tp7885
asg294
g5
(g6
g7
(lp7886
g7705
ag7719
ag7818
atp7887
Rp7888
(dp7889
g16
g305
sbsbsg295
(icmyPackage
CorE
p7890
(dp7891
g290
(lp7892
(I0
I10
tp7893
a(I0
I64
tp7894
asg294
g5
(g6
g7
(lp7895
g7079
ag7323
ag7331
ag7501
ag7505
ag7610
ag7642
atp7896
Rp7897
(dp7898
g16
g305
sbsbsg306
g5900
sg330
(lp7899
g7874
asba(icmyPackage
CELink
p7900
(dp7901
g3
(lp7902
g5
(g6
g7
(lp7903
g5
(g6
g7
(lp7904
g5
(g6
g7
(lp7905
g5
(g6
g7
(lp7906
VHowever
p7907
atp7908
Rp7909
(dp7910
g16
VRB
p7911
sbatp7912
Rp7913
(dp7914
g16
VADVP
p7915
sbag5
(g6
g7
(lp7916
g51
atp7917
Rp7918
(dp7919
g16
g51
sbag5
(g6
g7
(lp7920
g5
(g6
g7
(lp7921
Vwe
p7922
atp7923
Rp7924
(dp7925
g16
VPRP
p7926
sbatp7927
Rp7928
(dp7929
g16
VNP
p7930
sbag5
(g6
g7
(lp7931
g5
(g6
g7
(lp7932
Vwant
p7933
atp7934
Rp7935
(dp7936
g16
VVBP
p7937
sbag5
(g6
g7
(lp7938
g5
(g6
g7
(lp7939
g5
(g6
g7
(lp7940
Vto
p7941
atp7942
Rp7943
(dp7944
g16
VTO
p7945
sbag5
(g6
g7
(lp7946
g5
(g6
g7
(lp7947
Vcapture
p7948
atp7949
Rp7950
(dp7951
g16
VVB
p7952
sbag5
(g6
g7
(lp7953
g5
(g6
g7
(lp7954
g5
(g6
g7
(lp7955
Vthe
p7956
atp7957
Rp7958
(dp7959
g16
VDT
p7960
sbag5
(g6
g7
(lp7961
g5
(g6
g7
(lp7962
Vmost
p7963
atp7964
Rp7965
(dp7966
g16
VRBS
p7967
sbag5
(g6
g7
(lp7968
Vnatural
p7969
atp7970
Rp7971
(dp7972
g16
VJJ
p7973
sbatp7974
Rp7975
(dp7976
g16
VADJP
p7977
sbag5
(g6
g7
(lp7978
Vform
p7979
atp7980
Rp7981
(dp7982
g16
VNN
p7983
sbatp7984
Rp7985
(dp7986
g16
VNP
p7987
sbag5
(g6
g7
(lp7988
g5
(g6
g7
(lp7989
Vof
p7990
atp7991
Rp7992
(dp7993
g16
VIN
p7994
sbag5
(g6
g7
(lp7995
g5
(g6
g7
(lp7996
Vsentiment
p7997
atp7998
Rp7999
(dp8000
g16
VNN
p8001
sbag5
(g6
g7
(lp8002
Vannotation
p8003
atp8004
Rp8005
(dp8006
g16
VNN
p8007
sbatp8008
Rp8009
(dp8010
g16
VNP
p8011
sbatp8012
Rp8013
(dp8014
g16
VPP
p8015
sbatp8016
Rp8017
(dp8018
g16
VNP
p8019
sbatp8020
Rp8021
(dp8022
g16
VVP
p8023
sbatp8024
Rp8025
(dp8026
g16
VVP
p8027
sbatp8028
Rp8029
(dp8030
g16
g199
sbatp8031
Rp8032
(dp8033
g16
VVP
p8034
sbatp8035
Rp8036
(dp8037
g16
g199
sbatp8038
Rp8039
(dp8040
g16
VROOT
p8041
sbag5
(g6
g7
(lp8042
g5
(g6
g7
(lp8043
g5
(g6
g7
(lp8044
g5
(g6
g7
(lp8045
VSo
p8046
atp8047
Rp8048
(dp8049
g16
VRB
p8050
sbatp8051
Rp8052
(dp8053
g16
VADVP
p8054
sbag5
(g6
g7
(lp8055
g51
atp8056
Rp8057
(dp8058
g16
g51
sbag5
(g6
g7
(lp8059
g5
(g6
g7
(lp8060
Vthe
p8061
atp8062
Rp8063
(dp8064
g16
VDT
p8065
sbag5
(g6
g7
(lp8066
Vguidelines
p8067
atp8068
Rp8069
(dp8070
g16
VNNS
p8071
sbatp8072
Rp8073
(dp8074
g16
VNP
p8075
sbag5
(g6
g7
(lp8076
g5
(g6
g7
(lp8077
Vare
p8078
atp8079
Rp8080
(dp8081
g16
VVBP
p8082
sbag5
(g6
g7
(lp8083
g5
(g6
g7
(lp8084
Vkept
p8085
atp8086
Rp8087
(dp8088
g16
VVBN
p8089
sbag5
(g6
g7
(lp8090
g5
(g6
g7
(lp8091
Vto
p8092
atp8093
Rp8094
(dp8095
g16
VTO
p8096
sbag5
(g6
g7
(lp8097
g5
(g6
g7
(lp8098
g5
(g6
g7
(lp8099
g115
atp8100
Rp8101
(dp8102
g16
VDT
p8103
sbag5
(g6
g7
(lp8104
Vbare
p8105
atp8106
Rp8107
(dp8108
g16
VJJ
p8109
sbag5
(g6
g7
(lp8110
Vminimum
p8111
atp8112
Rp8113
(dp8114
g16
VNN
p8115
sbatp8116
Rp8117
(dp8118
g16
VNP
p8119
sbag5
(g6
g7
(lp8120
g5
(g6
g7
(lp8121
Vof
p8122
atp8123
Rp8124
(dp8125
g16
VIN
p8126
sbag5
(g6
g7
(lp8127
g5
(g6
g7
(lp8128
g5
(g6
g7
(lp8129
g5
(g6
g7
(lp8130
g828
atp8131
Rp8132
(dp8133
g16
VNNP
p8134
sbag5
(g6
g7
(lp8135
g834
atp8136
Rp8137
(dp8138
g16
VPOS
p8139
sbatp8140
Rp8141
(dp8142
g16
VNP
p8143
sbag5
(g6
g7
(lp8144
V\u005c
p8145
atp8146
Rp8147
(dp8148
g16
VJJ
p8149
sbag5
(g6
g7
(lp8150
Vu201c
p8151
atp8152
Rp8153
(dp8154
g16
VNNS
p8155
sbatp8156
Rp8157
(dp8158
g16
VNP
p8159
sbag5
(g6
g7
(lp8160
g834
atp8161
Rp8162
(dp8163
g16
V''
p8164
sbag5
(g6
g7
(lp8165
g5
(g6
g7
(lp8166
Vannotating
p8167
atp8168
Rp8169
(dp8170
g16
VVBG
p8171
sbag5
(g6
g7
(lp8172
g5
(g6
g7
(lp8173
g5
(g6
g7
(lp8174
g115
atp8175
Rp8176
(dp8177
g16
VDT
p8178
sbag5
(g6
g7
(lp8179
Vsentence
p8180
atp8181
Rp8182
(dp8183
g16
VNN
p8184
sbatp8185
Rp8186
(dp8187
g16
VNP
p8188
sbag5
(g6
g7
(lp8189
g5
(g6
g7
(lp8190
g5
(g6
g7
(lp8191
Vas
p8192
atp8193
Rp8194
(dp8195
g16
VIN
p8196
sbag5
(g6
g7
(lp8197
Vpositive
p8198
atp8199
Rp8200
(dp8201
g16
VJJ
p8202
sbag5
(g6
g7
(lp8203
g51
atp8204
Rp8205
(dp8206
g16
g51
sbag5
(g6
g7
(lp8207
Vnegative
p8208
atp8209
Rp8210
(dp8211
g16
VJJ
p8212
sbag5
(g6
g7
(lp8213
Vand
p8214
atp8215
Rp8216
(dp8217
g16
VCC
p8218
sbag5
(g6
g7
(lp8219
Vobjective
p8220
atp8221
Rp8222
(dp8223
g16
VJJ
p8224
sbatp8225
Rp8226
(dp8227
g16
VADJP
p8228
sbag5
(g6
g7
(lp8229
g5
(g6
g7
(lp8230
Vas
p8231
atp8232
Rp8233
(dp8234
g16
VRB
p8235
sbag5
(g6
g7
(lp8236
Vper
p8237
atp8238
Rp8239
(dp8240
g16
VIN
p8241
sbag5
(g6
g7
(lp8242
g5
(g6
g7
(lp8243
g5
(g6
g7
(lp8244
Vthe
p8245
atp8246
Rp8247
(dp8248
g16
VDT
p8249
sbag5
(g6
g7
(lp8250
Vspeaker
p8251
atp8252
Rp8253
(dp8254
g16
VNN
p8255
sbag5
(g6
g7
(lp8256
g828
atp8257
Rp8258
(dp8259
g16
VNN
p8260
sbag5
(g6
g7
(lp8261
g834
atp8262
Rp8263
(dp8264
g16
VPOS
p8265
sbatp8266
Rp8267
(dp8268
g16
VNP
p8269
sbag5
(g6
g7
(lp8270
V\u005c
p8271
atp8272
Rp8273
(dp8274
g16
VJJ
p8275
sbag5
(g6
g7
(lp8276
Vu201d
p8277
atp8278
Rp8279
(dp8280
g16
VNNS
p8281
sbatp8282
Rp8283
(dp8284
g16
VNP
p8285
sbatp8286
Rp8287
(dp8288
g16
VPP
p8289
sbatp8290
Rp8291
(dp8292
g16
VADJP
p8293
sbatp8294
Rp8295
(dp8296
g16
g199
sbatp8297
Rp8298
(dp8299
g16
VVP
p8300
sbatp8301
Rp8302
(dp8303
g16
VNP
p8304
sbatp8305
Rp8306
(dp8307
g16
VPP
p8308
sbatp8309
Rp8310
(dp8311
g16
VNP
p8312
sbatp8313
Rp8314
(dp8315
g16
VPP
p8316
sbatp8317
Rp8318
(dp8319
g16
VVP
p8320
sbatp8321
Rp8322
(dp8323
g16
VVP
p8324
sbag5
(g6
g7
(lp8325
g834
atp8326
Rp8327
(dp8328
g16
V''
p8329
sbatp8330
Rp8331
(dp8332
g16
g199
sbatp8333
Rp8334
(dp8335
g16
VROOT
p8336
sbasg287
(icmyPackage
CorE
p8337
(dp8338
g290
(lp8339
(I0
I0
tp8340
a(I0
I12
tp8341
asg294
g8039
sbsg295
(icmyPackage
CorE
p8342
(dp8343
g290
(lp8344
(I1
I2
tp8345
a(I1
I33
tp8346
asg294
g5
(g6
g7
(lp8347
g8073
ag8322
ag8327
atp8348
Rp8349
(dp8350
g16
g305
sbsbsg306
g3122
sg330
(lp8351
(isxpPackage
sxpSent
p8352
(dp8353
g334
(lp8354
I24
asg336
VHowever, we want to capture the most natural form of sentiment annotation
p8355
sg338
I5
sg322
I76
sg339
I18
sba(isxpPackage
sxpSent
p8356
(dp8357
g334
(lp8358
I24
asg336
VSo, the guidelines are kept to a bare minimum of u'\u005cu201c' annotating a sentence as positive, negative and objective as per the speaker u'\u005cu201d'
p8359
sg338
I5
sg322
I77
sg339
I18
sbasba(icmyPackage
CELink
p8360
(dp8361
g3
(lp8362
g5
(g6
g7
(lp8363
g5
(g6
g7
(lp8364
g5
(g6
g7
(lp8365
g5
(g6
g7
(lp8366
VSince
p8367
atp8368
Rp8369
(dp8370
g16
VIN
p8371
sbag5
(g6
g7
(lp8372
g5
(g6
g7
(lp8373
g5
(g6
g7
(lp8374
Vwe
p8375
atp8376
Rp8377
(dp8378
g16
VPRP
p8379
sbatp8380
Rp8381
(dp8382
g16
VNP
p8383
sbag5
(g6
g7
(lp8384
g5
(g6
g7
(lp8385
Vdo
p8386
atp8387
Rp8388
(dp8389
g16
VVBP
p8390
sbag5
(g6
g7
(lp8391
Vnot
p8392
atp8393
Rp8394
(dp8395
g16
VRB
p8396
sbag5
(g6
g7
(lp8397
g5
(g6
g7
(lp8398
Vhave
p8399
atp8400
Rp8401
(dp8402
g16
VVB
p8403
sbag5
(g6
g7
(lp8404
g5
(g6
g7
(lp8405
g5
(g6
g7
(lp8406
Vany
p8407
atp8408
Rp8409
(dp8410
g16
VDT
p8411
sbag5
(g6
g7
(lp8412
Vinformation
p8413
atp8414
Rp8415
(dp8416
g16
VNN
p8417
sbatp8418
Rp8419
(dp8420
g16
VNP
p8421
sbag5
(g6
g7
(lp8422
g5
(g6
g7
(lp8423
Vabout
p8424
atp8425
Rp8426
(dp8427
g16
VIN
p8428
sbag5
(g6
g7
(lp8429
g5
(g6
g7
(lp8430
g5
(g6
g7
(lp8431
Vthe
p8432
atp8433
Rp8434
(dp8435
g16
VDT
p8436
sbag5
(g6
g7
(lp8437
Vnature
p8438
atp8439
Rp8440
(dp8441
g16
VNN
p8442
sbatp8443
Rp8444
(dp8445
g16
VNP
p8446
sbag5
(g6
g7
(lp8447
g5
(g6
g7
(lp8448
Vof
p8449
atp8450
Rp8451
(dp8452
g16
VIN
p8453
sbag5
(g6
g7
(lp8454
g5
(g6
g7
(lp8455
g5
(g6
g7
(lp8456
Vthe
p8457
atp8458
Rp8459
(dp8460
g16
VDT
p8461
sbag5
(g6
g7
(lp8462
Vrelationship
p8463
atp8464
Rp8465
(dp8466
g16
VNN
p8467
sbatp8468
Rp8469
(dp8470
g16
VNP
p8471
sbag5
(g6
g7
(lp8472
g5
(g6
g7
(lp8473
Vbetween
p8474
atp8475
Rp8476
(dp8477
g16
VIN
p8478
sbag5
(g6
g7
(lp8479
g5
(g6
g7
(lp8480
g5
(g6
g7
(lp8481
Vthe
p8482
atp8483
Rp8484
(dp8485
g16
VDT
p8486
sbag5
(g6
g7
(lp8487
Vfeatures
p8488
atp8489
Rp8490
(dp8491
g16
VNNS
p8492
sbatp8493
Rp8494
(dp8495
g16
VNP
p8496
sbag5
(g6
g7
(lp8497
Vand
p8498
atp8499
Rp8500
(dp8501
g16
VCC
p8502
sbag5
(g6
g7
(lp8503
g5
(g6
g7
(lp8504
VSAC
p8505
atp8506
Rp8507
(dp8508
g16
VNNP
p8509
sbatp8510
Rp8511
(dp8512
g16
VNP
p8513
sbatp8514
Rp8515
(dp8516
g16
VNP
p8517
sbatp8518
Rp8519
(dp8520
g16
VPP
p8521
sbatp8522
Rp8523
(dp8524
g16
VNP
p8525
sbatp8526
Rp8527
(dp8528
g16
VPP
p8529
sbatp8530
Rp8531
(dp8532
g16
VNP
p8533
sbatp8534
Rp8535
(dp8536
g16
VPP
p8537
sbatp8538
Rp8539
(dp8540
g16
VNP
p8541
sbatp8542
Rp8543
(dp8544
g16
VVP
p8545
sbatp8546
Rp8547
(dp8548
g16
VVP
p8549
sbatp8550
Rp8551
(dp8552
g16
g199
sbatp8553
Rp8554
(dp8555
g16
VSBAR
p8556
sbag5
(g6
g7
(lp8557
g51
atp8558
Rp8559
(dp8560
g16
g51
sbag5
(g6
g7
(lp8561
g5
(g6
g7
(lp8562
Vchoosing
p8563
atp8564
Rp8565
(dp8566
g16
VNNP
p8567
sbag5
(g6
g7
(lp8568
VSVR
p8569
atp8570
Rp8571
(dp8572
g16
VNNP
p8573
sbatp8574
Rp8575
(dp8576
g16
VNP
p8577
sbag5
(g6
g7
(lp8578
g5
(g6
g7
(lp8579
Vallows
p8580
atp8581
Rp8582
(dp8583
g16
VVBZ
p8584
sbag5
(g6
g7
(lp8585
g5
(g6
g7
(lp8586
g5
(g6
g7
(lp8587
Vus
p8588
atp8589
Rp8590
(dp8591
g16
VPRP
p8592
sbatp8593
Rp8594
(dp8595
g16
VNP
p8596
sbag5
(g6
g7
(lp8597
g5
(g6
g7
(lp8598
Vto
p8599
atp8600
Rp8601
(dp8602
g16
VTO
p8603
sbag5
(g6
g7
(lp8604
g5
(g6
g7
(lp8605
Vtry
p8606
atp8607
Rp8608
(dp8609
g16
VVB
p8610
sbag5
(g6
g7
(lp8611
g5
(g6
g7
(lp8612
Vmultiple
p8613
atp8614
Rp8615
(dp8616
g16
VJJ
p8617
sbag5
(g6
g7
(lp8618
Vkernels
p8619
atp8620
Rp8621
(dp8622
g16
VNNS
p8623
sbatp8624
Rp8625
(dp8626
g16
VNP
p8627
sbatp8628
Rp8629
(dp8630
g16
VVP
p8631
sbatp8632
Rp8633
(dp8634
g16
VVP
p8635
sbatp8636
Rp8637
(dp8638
g16
g199
sbatp8639
Rp8640
(dp8641
g16
VVP
p8642
sbatp8643
Rp8644
(dp8645
g16
g199
sbatp8646
Rp8647
(dp8648
g16
VROOT
p8649
sbasg287
(icmyPackage
CorE
p8650
(dp8651
g290
(lp8652
(I0
I1
tp8653
a(I0
I17
tp8654
asg294
g8551
sbsg295
(icmyPackage
CorE
p8655
(dp8656
g290
(lp8657
(I0
I19
tp8658
a(I0
I26
tp8659
asg294
g5
(g6
g7
(lp8660
g8575
ag8640
atp8661
Rp8662
(dp8663
g16
g305
sbsbsg306
g307
sg330
(lp8664
(isxpPackage
sxpSent
p8665
(dp8666
g334
(lp8667
I25
asg336
VSince we do not have any information about the nature of the relationship between the features and SAC, choosing SVR allows us to try multiple kernels
p8668
sg338
I8
sg322
I96
sg339
I24
sbasba(icmyPackage
CELink
p8669
(dp8670
g3
(lp8671
g5
(g6
g7
(lp8672
g5
(g6
g7
(lp8673
g5
(g6
g7
(lp8674
g5
(g6
g7
(lp8675
VWe
p8676
atp8677
Rp8678
(dp8679
g16
VPRP
p8680
sbatp8681
Rp8682
(dp8683
g16
VNP
p8684
sbag5
(g6
g7
(lp8685
g5
(g6
g7
(lp8686
Vcarry
p8687
atp8688
Rp8689
(dp8690
g16
VVBP
p8691
sbag5
(g6
g7
(lp8692
g5
(g6
g7
(lp8693
Vout
p8694
atp8695
Rp8696
(dp8697
g16
VRP
p8698
sbatp8699
Rp8700
(dp8701
g16
VPRT
p8702
sbag5
(g6
g7
(lp8703
g5
(g6
g7
(lp8704
g5
(g6
g7
(lp8705
g115
atp8706
Rp8707
(dp8708
g16
VDT
p8709
sbag5
(g6
g7
(lp8710
V5-fold
p8711
atp8712
Rp8713
(dp8714
g16
VJJ
p8715
sbag5
(g6
g7
(lp8716
Vcross
p8717
atp8718
Rp8719
(dp8720
g16
VNN
p8721
sbag5
(g6
g7
(lp8722
Vvalidation
p8723
atp8724
Rp8725
(dp8726
g16
VNN
p8727
sbatp8728
Rp8729
(dp8730
g16
VNP
p8731
sbag5
(g6
g7
(lp8732
g5
(g6
g7
(lp8733
Vfor
p8734
atp8735
Rp8736
(dp8737
g16
VIN
p8738
sbag5
(g6
g7
(lp8739
g5
(g6
g7
(lp8740
Vboth
p8741
atp8742
Rp8743
(dp8744
g16
VDT
p8745
sbag5
(g6
g7
(lp8746
Vin-domain
p8747
atp8748
Rp8749
(dp8750
g16
VJJ
p8751
sbag5
(g6
g7
(lp8752
Vand
p8753
atp8754
Rp8755
(dp8756
g16
VCC
p8757
sbag5
(g6
g7
(lp8758
Vcross-domain
p8759
atp8760
Rp8761
(dp8762
g16
VJJ
p8763
sbag5
(g6
g7
(lp8764
Vsettings
p8765
atp8766
Rp8767
(dp8768
g16
VNNS
p8769
sbatp8770
Rp8771
(dp8772
g16
VNP
p8773
sbatp8774
Rp8775
(dp8776
g16
VPP
p8777
sbatp8778
Rp8779
(dp8780
g16
VNP
p8781
sbag5
(g6
g7
(lp8782
g51
atp8783
Rp8784
(dp8785
g16
g51
sbag5
(g6
g7
(lp8786
g5
(g6
g7
(lp8787
g5
(g6
g7
(lp8788
Vto
p8789
atp8790
Rp8791
(dp8792
g16
VTO
p8793
sbag5
(g6
g7
(lp8794
g5
(g6
g7
(lp8795
Vvalidate
p8796
atp8797
Rp8798
(dp8799
g16
VVB
p8800
sbag5
(g6
g7
(lp8801
g5
(g6
g7
(lp8802
Vthat
p8803
atp8804
Rp8805
(dp8806
g16
VIN
p8807
sbag5
(g6
g7
(lp8808
g5
(g6
g7
(lp8809
g5
(g6
g7
(lp8810
Vthe
p8811
atp8812
Rp8813
(dp8814
g16
VDT
p8815
sbag5
(g6
g7
(lp8816
Vregressor
p8817
atp8818
Rp8819
(dp8820
g16
VNN
p8821
sbatp8822
Rp8823
(dp8824
g16
VNP
p8825
sbag5
(g6
g7
(lp8826
g5
(g6
g7
(lp8827
Vdoes
p8828
atp8829
Rp8830
(dp8831
g16
VVBZ
p8832
sbag5
(g6
g7
(lp8833
Vnot
p8834
atp8835
Rp8836
(dp8837
g16
VRB
p8838
sbag5
(g6
g7
(lp8839
g5
(g6
g7
(lp8840
Voverfit
p8841
atp8842
Rp8843
(dp8844
g16
VVB
p8845
sbatp8846
Rp8847
(dp8848
g16
VVP
p8849
sbatp8850
Rp8851
(dp8852
g16
VVP
p8853
sbatp8854
Rp8855
(dp8856
g16
g199
sbatp8857
Rp8858
(dp8859
g16
VSBAR
p8860
sbatp8861
Rp8862
(dp8863
g16
VVP
p8864
sbatp8865
Rp8866
(dp8867
g16
VVP
p8868
sbatp8869
Rp8870
(dp8871
g16
g199
sbatp8872
Rp8873
(dp8874
g16
VVP
p8875
sbatp8876
Rp8877
(dp8878
g16
g199
sbatp8879
Rp8880
(dp8881
g16
VROOT
p8882
sbag5
(g6
g7
(lp8883
g5
(g6
g7
(lp8884
g5
(g6
g7
(lp8885
g5
(g6
g7
(lp8886
g5
(g6
g7
(lp8887
VThe
p8888
atp8889
Rp8890
(dp8891
g16
VDT
p8892
sbag5
(g6
g7
(lp8893
Vmodel
p8894
atp8895
Rp8896
(dp8897
g16
VNN
p8898
sbatp8899
Rp8900
(dp8901
g16
VNP
p8902
sbag5
(g6
g7
(lp8903
g5
(g6
g7
(lp8904
g5
(g6
g7
(lp8905
Vthus
p8906
atp8907
Rp8908
(dp8909
g16
VRB
p8910
sbatp8911
Rp8912
(dp8913
g16
VADVP
p8914
sbag5
(g6
g7
(lp8915
Vlearned
p8916
atp8917
Rp8918
(dp8919
g16
VVBN
p8920
sbatp8921
Rp8922
(dp8923
g16
VVP
p8924
sbatp8925
Rp8926
(dp8927
g16
VNP
p8928
sbag5
(g6
g7
(lp8929
g5
(g6
g7
(lp8930
g5
(g6
g7
(lp8931
Vis
p8932
atp8933
Rp8934
(dp8935
g16
VVBZ
p8936
sbag5
(g6
g7
(lp8937
g5
(g6
g7
(lp8938
Vevaluated
p8939
atp8940
Rp8941
(dp8942
g16
VVBN
p8943
sbag5
(g6
g7
(lp8944
g5
(g6
g7
(lp8945
g5
(g6
g7
(lp8946
Vusing
p8947
atp8948
Rp8949
(dp8950
g16
VVBG
p8951
sbag5
(g6
g7
(lp8952
g5
(g6
g7
(lp8953
g5
(g6
g7
(lp8954
g5
(g6
g7
(lp8955
g5
(g6
g7
(lp8956
g115
atp8957
Rp8958
(dp8959
g16
VLS
p8960
sbag5
(g6
g7
(lp8961
V-RRB-
p8962
atp8963
Rp8964
(dp8965
g16
V-RRB-
p8966
sbatp8967
Rp8968
(dp8969
g16
VLST
p8970
sbag5
(g6
g7
(lp8971
g5
(g6
g7
(lp8972
VError
p8973
atp8974
Rp8975
(dp8976
g16
VNNP
p8977
sbatp8978
Rp8979
(dp8980
g16
VNP
p8981
sbag5
(g6
g7
(lp8982
g5
(g6
g7
(lp8983
Vmetrics
p8984
atp8985
Rp8986
(dp8987
g16
VVBZ
p8988
sbag5
(g6
g7
(lp8989
g5
(g6
g7
(lp8990
Vnamely
p8991
atp8992
Rp8993
(dp8994
g16
VRB
p8995
sbatp8996
Rp8997
(dp8998
g16
VADVP
p8999
sbatp9000
Rp9001
(dp9002
g16
VVP
p9003
sbatp9004
Rp9005
(dp9006
g16
g199
sbag5
(g6
g7
(lp9007
g51
atp9008
Rp9009
(dp9010
g16
g51
sbag5
(g6
g7
(lp9011
g5
(g6
g7
(lp9012
g5
(g6
g7
(lp9013
VMean
p9014
atp9015
Rp9016
(dp9017
g16
VNNP
p9018
sbag5
(g6
g7
(lp9019
VSquared
p9020
atp9021
Rp9022
(dp9023
g16
VNNP
p9024
sbag5
(g6
g7
(lp9025
VError
p9026
atp9027
Rp9028
(dp9029
g16
VNNP
p9030
sbatp9031
Rp9032
(dp9033
g16
VNP
p9034
sbag5
(g6
g7
(lp9035
g5
(g6
g7
(lp9036
Vestimate
p9037
atp9038
Rp9039
(dp9040
g16
VVBP
p9041
sbatp9042
Rp9043
(dp9044
g16
VVP
p9045
sbatp9046
Rp9047
(dp9048
g16
g199
sbag5
(g6
g7
(lp9049
g51
atp9050
Rp9051
(dp9052
g16
g51
sbag5
(g6
g7
(lp9053
g5
(g6
g7
(lp9054
g5
(g6
g7
(lp9055
VMean
p9056
atp9057
Rp9058
(dp9059
g16
VNNP
p9060
sbag5
(g6
g7
(lp9061
VAbsolute
p9062
atp9063
Rp9064
(dp9065
g16
VNNP
p9066
sbag5
(g6
g7
(lp9067
VError
p9068
atp9069
Rp9070
(dp9071
g16
VNNP
p9072
sbatp9073
Rp9074
(dp9075
g16
VNP
p9076
sbag5
(g6
g7
(lp9077
g5
(g6
g7
(lp9078
Vestimate
p9079
atp9080
Rp9081
(dp9082
g16
VVBP
p9083
sbatp9084
Rp9085
(dp9086
g16
VVP
p9087
sbatp9088
Rp9089
(dp9090
g16
g199
sbag5
(g6
g7
(lp9091
Vand
p9092
atp9093
Rp9094
(dp9095
g16
VCC
p9096
sbag5
(g6
g7
(lp9097
g5
(g6
g7
(lp9098
g5
(g6
g7
(lp9099
VMean
p9100
atp9101
Rp9102
(dp9103
g16
VNNP
p9104
sbag5
(g6
g7
(lp9105
VPercentage
p9106
atp9107
Rp9108
(dp9109
g16
VNNP
p9110
sbag5
(g6
g7
(lp9111
VError
p9112
atp9113
Rp9114
(dp9115
g16
VNNP
p9116
sbatp9117
Rp9118
(dp9119
g16
VNP
p9120
sbag5
(g6
g7
(lp9121
g5
(g6
g7
(lp9122
g5
(g6
g7
(lp9123
g5
(g6
g7
(lp9124
g7185
atp9125
Rp9126
(dp9127
g16
VLS
p9128
sbag5
(g6
g7
(lp9129
V-RRB-
p9130
atp9131
Rp9132
(dp9133
g16
V-RRB-
p9134
sbatp9135
Rp9136
(dp9137
g16
VLST
p9138
sbag5
(g6
g7
(lp9139
Vthe
p9140
atp9141
Rp9142
(dp9143
g16
VDT
p9144
sbag5
(g6
g7
(lp9145
VPearson
p9146
atp9147
Rp9148
(dp9149
g16
VJJ
p9150
sbag5
(g6
g7
(lp9151
Vcorrelation
p9152
atp9153
Rp9154
(dp9155
g16
VNN
p9156
sbag5
(g6
g7
(lp9157
Vcoefficient
p9158
atp9159
Rp9160
(dp9161
g16
VNN
p9162
sbatp9163
Rp9164
(dp9165
g16
VNP
p9166
sbag5
(g6
g7
(lp9167
g5
(g6
g7
(lp9168
Vbetween
p9169
atp9170
Rp9171
(dp9172
g16
VIN
p9173
sbag5
(g6
g7
(lp9174
g5
(g6
g7
(lp9175
Vthe
p9176
atp9177
Rp9178
(dp9179
g16
VDT
p9180
sbag5
(g6
g7
(lp9181
Vgold
p9182
atp9183
Rp9184
(dp9185
g16
VNN
p9186
sbatp9187
Rp9188
(dp9189
g16
VNP
p9190
sbatp9191
Rp9192
(dp9193
g16
VPP
p9194
sbatp9195
Rp9196
(dp9197
g16
VNP
p9198
sbatp9199
Rp9200
(dp9201
g16
g199
sbatp9202
Rp9203
(dp9204
g16
g199
sbatp9205
Rp9206
(dp9207
g16
VSBAR
p9208
sbatp9209
Rp9210
(dp9211
g16
VVP
p9212
sbatp9213
Rp9214
(dp9215
g16
g199
sbatp9216
Rp9217
(dp9218
g16
VVP
p9219
sbatp9220
Rp9221
(dp9222
g16
VVP
p9223
sbag5
(g6
g7
(lp9224
Vand
p9225
atp9226
Rp9227
(dp9228
g16
VCC
p9229
sbag5
(g6
g7
(lp9230
g5
(g6
g7
(lp9231
Vpredicted
p9232
atp9233
Rp9234
(dp9235
g16
VVBD
p9236
sbag5
(g6
g7
(lp9237
g5
(g6
g7
(lp9238
VSAC
p9239
atp9240
Rp9241
(dp9242
g16
VNNP
p9243
sbatp9244
Rp9245
(dp9246
g16
VNP
p9247
sbatp9248
Rp9249
(dp9250
g16
VVP
p9251
sbatp9252
Rp9253
(dp9254
g16
VVP
p9255
sbatp9256
Rp9257
(dp9258
g16
g199
sbatp9259
Rp9260
(dp9261
g16
VROOT
p9262
sbasg287
(icmyPackage
CorE
p9263
(dp9264
g290
(lp9265
(I0
I1
tp9266
a(I1
I1
tp9267
asg294
g5
(g6
g7
(lp9268
g8873
ag8900
atp9269
Rp9270
(dp9271
g16
g305
sbsbsg295
(icmyPackage
CorE
p9272
(dp9273
g290
(lp9274
(I1
I3
tp9275
a(I1
I37
tp9276
asg294
g5
(g6
g7
(lp9277
g8918
ag9253
atp9278
Rp9279
(dp9280
g16
g305
sbsbsg306
g1645
sg330
(lp9281
(isxpPackage
sxpSent
p9282
(dp9283
g334
(lp9284
I26
asg336
VWe carry out a 5-fold cross validation for both in-domain and cross-domain settings, to validate that the regressor does not overfit
p9285
sg338
I8
sg322
I97
sg339
I24
sba(isxpPackage
sxpSent
p9286
(dp9287
g334
(lp9288
I26
asg336
VThe model thus learned is evaluated using a) Error metrics namely, Mean Squared Error estimate, Mean Absolute Error estimate and Mean Percentage Error b) the Pearson correlation coefficient between the gold and predicted SAC
p9289
sg338
I8
sg322
I98
sg339
I24
sbasba(icmyPackage
CELink
p9290
(dp9291
g3
(lp9292
g5
(g6
g7
(lp9293
g5
(g6
g7
(lp9294
g5
(g6
g7
(lp9295
g5
(g6
g7
(lp9296
VThe
p9297
atp9298
Rp9299
(dp9300
g16
VDT
p9301
sbag5
(g6
g7
(lp9302
Vcorrelation
p9303
atp9304
Rp9305
(dp9306
g16
VNN
p9307
sbag5
(g6
g7
(lp9308
Vvalues
p9309
atp9310
Rp9311
(dp9312
g16
VNNS
p9313
sbatp9314
Rp9315
(dp9316
g16
VNP
p9317
sbag5
(g6
g7
(lp9318
g5
(g6
g7
(lp9319
g5
(g6
g7
(lp9320
Vare
p9321
atp9322
Rp9323
(dp9324
g16
VVBP
p9325
sbag5
(g6
g7
(lp9326
g5
(g6
g7
(lp9327
Vpositive
p9328
atp9329
Rp9330
(dp9331
g16
VJJ
p9332
sbatp9333
Rp9334
(dp9335
g16
VADJP
p9336
sbatp9337
Rp9338
(dp9339
g16
VVP
p9340
sbag5
(g6
g7
(lp9341
Vand
p9342
atp9343
Rp9344
(dp9345
g16
VCC
p9346
sbag5
(g6
g7
(lp9347
g5
(g6
g7
(lp9348
Vindicate
p9349
atp9350
Rp9351
(dp9352
g16
VVBP
p9353
sbag5
(g6
g7
(lp9354
g5
(g6
g7
(lp9355
Vthat
p9356
atp9357
Rp9358
(dp9359
g16
VIN
p9360
sbag5
(g6
g7
(lp9361
g5
(g6
g7
(lp9362
g5
(g6
g7
(lp9363
Veven
p9364
atp9365
Rp9366
(dp9367
g16
VRB
p9368
sbag5
(g6
g7
(lp9369
Vif
p9370
atp9371
Rp9372
(dp9373
g16
VIN
p9374
sbag5
(g6
g7
(lp9375
g5
(g6
g7
(lp9376
g5
(g6
g7
(lp9377
Vthe
p9378
atp9379
Rp9380
(dp9381
g16
VDT
p9382
sbag5
(g6
g7
(lp9383
Vpredicted
p9384
atp9385
Rp9386
(dp9387
g16
VJJ
p9388
sbag5
(g6
g7
(lp9389
Vscores
p9390
atp9391
Rp9392
(dp9393
g16
VNNS
p9394
sbatp9395
Rp9396
(dp9397
g16
VNP
p9398
sbag5
(g6
g7
(lp9399
g5
(g6
g7
(lp9400
Vare
p9401
atp9402
Rp9403
(dp9404
g16
VVBP
p9405
sbag5
(g6
g7
(lp9406
Vnot
p9407
atp9408
Rp9409
(dp9410
g16
VRB
p9411
sbag5
(g6
g7
(lp9412
g5
(g6
g7
(lp9413
Vas
p9414
atp9415
Rp9416
(dp9417
g16
VRB
p9418
sbag5
(g6
g7
(lp9419
Vaccurate
p9420
atp9421
Rp9422
(dp9423
g16
VJJ
p9424
sbag5
(g6
g7
(lp9425
g5
(g6
g7
(lp9426
Vas
p9427
atp9428
Rp9429
(dp9430
g16
VIN
p9431
sbag5
(g6
g7
(lp9432
g5
(g6
g7
(lp9433
Vdesired
p9434
atp9435
Rp9436
(dp9437
g16
VJJ
p9438
sbatp9439
Rp9440
(dp9441
g16
VADJP
p9442
sbatp9443
Rp9444
(dp9445
g16
VPP
p9446
sbatp9447
Rp9448
(dp9449
g16
VADJP
p9450
sbatp9451
Rp9452
(dp9453
g16
VVP
p9454
sbatp9455
Rp9456
(dp9457
g16
g199
sbatp9458
Rp9459
(dp9460
g16
VSBAR
p9461
sbag5
(g6
g7
(lp9462
g51
atp9463
Rp9464
(dp9465
g16
g51
sbag5
(g6
g7
(lp9466
g5
(g6
g7
(lp9467
Vthe
p9468
atp9469
Rp9470
(dp9471
g16
VDT
p9472
sbag5
(g6
g7
(lp9473
Vsystem
p9474
atp9475
Rp9476
(dp9477
g16
VNN
p9478
sbatp9479
Rp9480
(dp9481
g16
VNP
p9482
sbag5
(g6
g7
(lp9483
g5
(g6
g7
(lp9484
Vis
p9485
atp9486
Rp9487
(dp9488
g16
VVBZ
p9489
sbag5
(g6
g7
(lp9490
g5
(g6
g7
(lp9491
Vcapable
p9492
atp9493
Rp9494
(dp9495
g16
VJJ
p9496
sbag5
(g6
g7
(lp9497
g5
(g6
g7
(lp9498
Vof
p9499
atp9500
Rp9501
(dp9502
g16
VIN
p9503
sbag5
(g6
g7
(lp9504
g5
(g6
g7
(lp9505
g5
(g6
g7
(lp9506
Vranking
p9507
atp9508
Rp9509
(dp9510
g16
VJJ
p9511
sbag5
(g6
g7
(lp9512
Vsentences
p9513
atp9514
Rp9515
(dp9516
g16
VNNS
p9517
sbatp9518
Rp9519
(dp9520
g16
VNP
p9521
sbag5
(g6
g7
(lp9522
g5
(g6
g7
(lp9523
Vin
p9524
atp9525
Rp9526
(dp9527
g16
VIN
p9528
sbag5
(g6
g7
(lp9529
g5
(g6
g7
(lp9530
g5
(g6
g7
(lp9531
Vthe
p9532
atp9533
Rp9534
(dp9535
g16
VDT
p9536
sbag5
(g6
g7
(lp9537
Vcorrect
p9538
atp9539
Rp9540
(dp9541
g16
VJJ
p9542
sbag5
(g6
g7
(lp9543
Vorder
p9544
atp9545
Rp9546
(dp9547
g16
VNN
p9548
sbatp9549
Rp9550
(dp9551
g16
VNP
p9552
sbag5
(g6
g7
(lp9553
g5
(g6
g7
(lp9554
Vbased
p9555
atp9556
Rp9557
(dp9558
g16
VVBN
p9559
sbag5
(g6
g7
(lp9560
g5
(g6
g7
(lp9561
Von
p9562
atp9563
Rp9564
(dp9565
g16
VIN
p9566
sbag5
(g6
g7
(lp9567
g5
(g6
g7
(lp9568
Vtheir
p9569
atp9570
Rp9571
(dp9572
g16
VPRP$
p9573
sbag5
(g6
g7
(lp9574
Vsentiment
p9575
atp9576
Rp9577
(dp9578
g16
VNN
p9579
sbag5
(g6
g7
(lp9580
Vcomplexity
p9581
atp9582
Rp9583
(dp9584
g16
VNN
p9585
sbatp9586
Rp9587
(dp9588
g16
VNP
p9589
sbatp9590
Rp9591
(dp9592
g16
VPP
p9593
sbatp9594
Rp9595
(dp9596
g16
VVP
p9597
sbatp9598
Rp9599
(dp9600
g16
VNP
p9601
sbatp9602
Rp9603
(dp9604
g16
VPP
p9605
sbatp9606
Rp9607
(dp9608
g16
VNP
p9609
sbatp9610
Rp9611
(dp9612
g16
VPP
p9613
sbatp9614
Rp9615
(dp9616
g16
VADJP
p9617
sbatp9618
Rp9619
(dp9620
g16
VVP
p9621
sbatp9622
Rp9623
(dp9624
g16
g199
sbatp9625
Rp9626
(dp9627
g16
VSBAR
p9628
sbatp9629
Rp9630
(dp9631
g16
VVP
p9632
sbatp9633
Rp9634
(dp9635
g16
VVP
p9636
sbatp9637
Rp9638
(dp9639
g16
g199
sbatp9640
Rp9641
(dp9642
g16
VROOT
p9643
sbasg287
(icmyPackage
CorE
p9644
(dp9645
g290
(lp9646
(I0
I16
tp9647
a(I0
I35
tp9648
asg294
g5
(g6
g7
(lp9649
g9422
ag9444
ag9464
ag9480
ag9619
atp9650
Rp9651
(dp9652
g16
g305
sbsbsg295
(icmyPackage
CorE
p9653
(dp9654
g290
(lp9655
(I0
I0
tp9656
a(I0
I14
tp9657
asg294
g5
(g6
g7
(lp9658
g9315
ag9338
ag9344
ag9351
ag9358
ag9366
ag9372
ag9396
ag9403
ag9409
atp9659
Rp9660
(dp9661
g16
g305
sbsbsg306
g5900
sg330
(lp9662
(isxpPackage
sxpSent
p9663
(dp9664
g334
(lp9665
I27
aI28
aI29
asg336
VThe correlation values are positive and indicate that even if the predicted scores are not as accurate as desired, the system is capable of ranking sentences in the correct order based on their sentiment complexity
p9666
sg338
I9
sg322
I101
sg339
I25
sbasba(icmyPackage
CELink
p9667
(dp9668
g3
(lp9669
g9651
asg287
(icmyPackage
CorE
p9670
(dp9671
g290
(lp9672
(I0
I17
tp9673
a(I0
I19
tp9674
asg294
g9587
sbsg295
(icmyPackage
CorE
p9675
(dp9676
g290
(lp9677
(I0
I0
tp9678
a(I0
I14
tp9679
asg294
g5
(g6
g7
(lp9680
g9422
ag9444
ag9464
ag9480
ag9487
ag9494
ag9501
ag9519
ag9526
ag9550
atp9681
Rp9682
(dp9683
g16
g305
sbsbsg306
(icmyPackage
pattern
p9684
(dp9685
g309
I0
sg310
I0
sg311
(lp9686
(lp9687
S'based'
p9688
aS'on'
p9689
aasg317
(lp9690
I2
aI1
aI1
asg319
(lp9691
S'He said he planned to announce details of legislation on Sunday based on a Republican plan that would provide a short-term solution'
p9692
asg322
I48
sg323
(lp9693
(lp9694
S'&R'
p9695
aS'(,)'
p9696
aS'(&ADV)'
p9697
aa(lp9698
S'&V-ing/&NP@C@'
p9699
aS'(&Clause@C@)'
p9700
aasbsg330
(lp9701
g9663
asba(icmyPackage
CELink
p9702
(dp9703
g3
(lp9704
g9660
asg287
(icmyPackage
CorE
p9705
(dp9706
g290
(lp9707
(I0
I10
tp9708
a(I0
I14
tp9709
asg294
g5
(g6
g7
(lp9710
g9396
ag9403
ag9409
atp9711
Rp9712
(dp9713
g16
g305
sbsbsg295
(icmyPackage
CorE
p9714
(dp9715
g290
(lp9716
(I0
I0
tp9717
a(I0
I8
tp9718
asg294
g5
(g6
g7
(lp9719
g9315
ag9338
ag9344
ag9351
ag9358
ag9366
atp9720
Rp9721
(dp9722
g16
g305
sbsbsg306
(icmyPackage
pattern
p9723
(dp9724
g309
I0
sg310
I0
sg311
(lp9725
(lp9726
S'if'
p9727
aasg317
(lp9728
I1
aI1
aI1
asg319
(lp9729
S'An effective knowledge flow network enables a research team to be very powerful in generating new knowledge if every node can innovate and output new knowledge to appropriate members.'
p9730
asg322
I14
sg323
(lp9731
(lp9732
S'&R@Complete@'
p9733
aa(lp9734
S'&C@Complete@'
p9735
aasbsg330
(lp9736
g9663
asba(icmyPackage
CELink
p9737
(dp9738
g3
(lp9739
g5
(g6
g7
(lp9740
g5
(g6
g7
(lp9741
g5
(g6
g7
(lp9742
g5
(g6
g7
(lp9743
VThe
p9744
atp9745
Rp9746
(dp9747
g16
VDT
p9748
sbag5
(g6
g7
(lp9749
Vcross-domain
p9750
atp9751
Rp9752
(dp9753
g16
VJJ
p9754
sbag5
(g6
g7
(lp9755
VMPE
p9756
atp9757
Rp9758
(dp9759
g16
VNN
p9760
sbatp9761
Rp9762
(dp9763
g16
VNP
p9764
sbag5
(g6
g7
(lp9765
g5
(g6
g7
(lp9766
Vis
p9767
atp9768
Rp9769
(dp9770
g16
VVBZ
p9771
sbag5
(g6
g7
(lp9772
g5
(g6
g7
(lp9773
g5
(g6
g7
(lp9774
Vhigher
p9775
atp9776
Rp9777
(dp9778
g16
VJJR
p9779
sbatp9780
Rp9781
(dp9782
g16
VADJP
p9783
sbag5
(g6
g7
(lp9784
g5
(g6
g7
(lp9785
Vthan
p9786
atp9787
Rp9788
(dp9789
g16
VIN
p9790
sbag5
(g6
g7
(lp9791
g5
(g6
g7
(lp9792
g5
(g6
g7
(lp9793
Vthe
p9794
atp9795
Rp9796
(dp9797
g16
VDT
p9798
sbag5
(g6
g7
(lp9799
Vrest
p9800
atp9801
Rp9802
(dp9803
g16
VNN
p9804
sbatp9805
Rp9806
(dp9807
g16
VNP
p9808
sbag5
(g6
g7
(lp9809
g51
atp9810
Rp9811
(dp9812
g16
g51
sbag5
(g6
g7
(lp9813
g5
(g6
g7
(lp9814
Vas
p9815
atp9816
Rp9817
(dp9818
g16
VRB
p9819
sbag5
(g6
g7
(lp9820
Vexpected
p9821
atp9822
Rp9823
(dp9824
g16
VVBN
p9825
sbatp9826
Rp9827
(dp9828
g16
VADJP
p9829
sbatp9830
Rp9831
(dp9832
g16
VNP
p9833
sbatp9834
Rp9835
(dp9836
g16
VPP
p9837
sbatp9838
Rp9839
(dp9840
g16
VADJP
p9841
sbatp9842
Rp9843
(dp9844
g16
VVP
p9845
sbatp9846
Rp9847
(dp9848
g16
g199
sbatp9849
Rp9850
(dp9851
g16
VROOT
p9852
sbag5
(g6
g7
(lp9853
g5
(g6
g7
(lp9854
g5
(g6
g7
(lp9855
g5
(g6
g7
(lp9856
g5
(g6
g7
(lp9857
VTo
p9858
atp9859
Rp9860
(dp9861
g16
VTO
p9862
sbag5
(g6
g7
(lp9863
g5
(g6
g7
(lp9864
Vunderstand
p9865
atp9866
Rp9867
(dp9868
g16
VVB
p9869
sbag5
(g6
g7
(lp9870
g5
(g6
g7
(lp9871
g5
(g6
g7
(lp9872
Vhow
p9873
atp9874
Rp9875
(dp9876
g16
VWRB
p9877
sbatp9878
Rp9879
(dp9880
g16
VWHADVP
p9881
sbag5
(g6
g7
(lp9882
g5
(g6
g7
(lp9883
g5
(g6
g7
(lp9884
g5
(g6
g7
(lp9885
Veach
p9886
atp9887
Rp9888
(dp9889
g16
VDT
p9890
sbatp9891
Rp9892
(dp9893
g16
VNP
p9894
sbag5
(g6
g7
(lp9895
g5
(g6
g7
(lp9896
Vof
p9897
atp9898
Rp9899
(dp9900
g16
VIN
p9901
sbag5
(g6
g7
(lp9902
g5
(g6
g7
(lp9903
Vthe
p9904
atp9905
Rp9906
(dp9907
g16
VDT
p9908
sbag5
(g6
g7
(lp9909
Vfeatures
p9910
atp9911
Rp9912
(dp9913
g16
VNNS
p9914
sbatp9915
Rp9916
(dp9917
g16
VNP
p9918
sbatp9919
Rp9920
(dp9921
g16
VPP
p9922
sbatp9923
Rp9924
(dp9925
g16
VNP
p9926
sbag5
(g6
g7
(lp9927
g5
(g6
g7
(lp9928
Vperforms
p9929
atp9930
Rp9931
(dp9932
g16
VVBZ
p9933
sbatp9934
Rp9935
(dp9936
g16
VVP
p9937
sbatp9938
Rp9939
(dp9940
g16
g199
sbatp9941
Rp9942
(dp9943
g16
VSBAR
p9944
sbatp9945
Rp9946
(dp9947
g16
VVP
p9948
sbatp9949
Rp9950
(dp9951
g16
VVP
p9952
sbatp9953
Rp9954
(dp9955
g16
g199
sbag5
(g6
g7
(lp9956
g51
atp9957
Rp9958
(dp9959
g16
g51
sbag5
(g6
g7
(lp9960
g5
(g6
g7
(lp9961
Vwe
p9962
atp9963
Rp9964
(dp9965
g16
VPRP
p9966
sbatp9967
Rp9968
(dp9969
g16
VNP
p9970
sbag5
(g6
g7
(lp9971
g5
(g6
g7
(lp9972
Vconducted
p9973
atp9974
Rp9975
(dp9976
g16
VVBD
p9977
sbag5
(g6
g7
(lp9978
g5
(g6
g7
(lp9979
Vablation
p9980
atp9981
Rp9982
(dp9983
g16
VNN
p9984
sbag5
(g6
g7
(lp9985
Vtests
p9986
atp9987
Rp9988
(dp9989
g16
VNNS
p9990
sbatp9991
Rp9992
(dp9993
g16
VNP
p9994
sbag5
(g6
g7
(lp9995
g5
(g6
g7
(lp9996
Vby
p9997
atp9998
Rp9999
(dp10000
g16
VIN
p10001
sbag5
(g6
g7
(lp10002
g5
(g6
g7
(lp10003
g5
(g6
g7
(lp10004
Vconsidering
p10005
atp10006
Rp10007
(dp10008
g16
VVBG
p10009
sbag5
(g6
g7
(lp10010
g5
(g6
g7
(lp10011
Vone
p10012
atp10013
Rp10014
(dp10015
g16
VCD
p10016
sbag5
(g6
g7
(lp10017
Vfeature
p10018
atp10019
Rp10020
(dp10021
g16
VNN
p10022
sbatp10023
Rp10024
(dp10025
g16
VNP
p10026
sbag5
(g6
g7
(lp10027
g5
(g6
g7
(lp10028
Vat
p10029
atp10030
Rp10031
(dp10032
g16
VIN
p10033
sbag5
(g6
g7
(lp10034
g5
(g6
g7
(lp10035
g115
atp10036
Rp10037
(dp10038
g16
VDT
p10039
sbag5
(g6
g7
(lp10040
Vtime
p10041
atp10042
Rp10043
(dp10044
g16
VNN
p10045
sbatp10046
Rp10047
(dp10048
g16
VNP
p10049
sbatp10050
Rp10051
(dp10052
g16
VPP
p10053
sbatp10054
Rp10055
(dp10056
g16
VVP
p10057
sbatp10058
Rp10059
(dp10060
g16
g199
sbatp10061
Rp10062
(dp10063
g16
VPP
p10064
sbatp10065
Rp10066
(dp10067
g16
VVP
p10068
sbatp10069
Rp10070
(dp10071
g16
g199
sbatp10072
Rp10073
(dp10074
g16
VROOT
p10075
sbasg287
(icmyPackage
CorE
p10076
(dp10077
g290
(lp10078
(I0
I10
tp10079
a(I1
I19
tp10080
asg294
g5
(g6
g7
(lp10081
g9823
ag10073
atp10082
Rp10083
(dp10084
g16
g305
sbsbsg295
(icmyPackage
CorE
p10085
(dp10086
g290
(lp10087
(I0
I0
tp10088
a(I0
I7
tp10089
asg294
g5
(g6
g7
(lp10090
g9762
ag9769
ag9781
ag9788
ag9806
atp10091
Rp10092
(dp10093
g16
g305
sbsbsg306
g5900
sg330
(lp10094
(isxpPackage
sxpSent
p10095
(dp10096
g334
(lp10097
I30
asg336
VThe cross-domain MPE is higher than the rest, as expected
p10098
sg338
I9
sg322
I103
sg339
I25
sba(isxpPackage
sxpSent
p10099
(dp10100
g334
(lp10101
I30
aI31
asg336
VTo understand how each of the features performs, we conducted ablation tests by considering one feature at a time
p10102
sg338
I9
sg322
I104
sg339
I26
sbasba(icmyPackage
CELink
p10103
(dp10104
g3
(lp10105
g10073
asg287
(icmyPackage
CorE
p10106
(dp10107
g290
(lp10108
(I0
I14
tp10109
a(I0
I19
tp10110
asg294
g10059
sbsg295
(icmyPackage
CorE
p10111
(dp10112
g290
(lp10113
(I0
I0
tp10114
a(I0
I12
tp10115
asg294
g5
(g6
g7
(lp10116
g9954
ag9958
ag9968
ag9975
ag9992
atp10117
Rp10118
(dp10119
g16
g305
sbsbsg306
(icmyPackage
pattern
p10120
(dp10121
g309
I0
sg310
I0
sg311
(lp10122
(lp10123
(lp10124
S'by'
p10125
aS'through'
p10126
aaasg317
(lp10127
I2
aI1
aI1
asg319
(lp10128
S'The similar relation can be detected by analyzing the contents of nodes based on such approaches as the Latent Semantic Analysis (LSA) and the Vector Space Model (VSM)'
p10129
asg322
I68
sg323
(lp10130
(lp10131
S'&R@Complete@'
p10132
aa(lp10133
S'&V-ing@C@'
p10134
aasbsg330
(lp10135
g10099
asba(icmyPackage
CELink
p10136
(dp10137
g3
(lp10138
g5
(g6
g7
(lp10139
g5
(g6
g7
(lp10140
g5
(g6
g7
(lp10141
g5
(g6
g7
(lp10142
VBased
p10143
atp10144
Rp10145
(dp10146
g16
VVBN
p10147
sbag5
(g6
g7
(lp10148
g5
(g6
g7
(lp10149
Von
p10150
atp10151
Rp10152
(dp10153
g16
VIN
p10154
sbag5
(g6
g7
(lp10155
g5
(g6
g7
(lp10156
Vthe
p10157
atp10158
Rp10159
(dp10160
g16
VDT
p10161
sbag5
(g6
g7
(lp10162
VMPE
p10163
atp10164
Rp10165
(dp10166
g16
VNNP
p10167
sbag5
(g6
g7
(lp10168
Vvalues
p10169
atp10170
Rp10171
(dp10172
g16
VNNS
p10173
sbatp10174
Rp10175
(dp10176
g16
VNP
p10177
sbatp10178
Rp10179
(dp10180
g16
VPP
p10181
sbatp10182
Rp10183
(dp10184
g16
VPP
p10185
sbag5
(g6
g7
(lp10186
g51
atp10187
Rp10188
(dp10189
g16
g51
sbag5
(g6
g7
(lp10190
g5
(g6
g7
(lp10191
Vthe
p10192
atp10193
Rp10194
(dp10195
g16
VDT
p10196
sbag5
(g6
g7
(lp10197
Vbest
p10198
atp10199
Rp10200
(dp10201
g16
VJJS
p10202
sbag5
(g6
g7
(lp10203
Vfeatures
p10204
atp10205
Rp10206
(dp10207
g16
VNNS
p10208
sbatp10209
Rp10210
(dp10211
g16
VNP
p10212
sbag5
(g6
g7
(lp10213
g5
(g6
g7
(lp10214
Vare
p10215
atp10216
Rp10217
(dp10218
g16
VVBP
p10219
sbatp10220
Rp10221
(dp10222
g16
VVP
p10223
sbatp10224
Rp10225
(dp10226
g16
g199
sbatp10227
Rp10228
(dp10229
g16
VROOT
p10230
sbasg287
(icmyPackage
CorE
p10231
(dp10232
g290
(lp10233
(I0
I2
tp10234
a(I0
I4
tp10235
asg294
g10175
sbsg295
(icmyPackage
CorE
p10236
(dp10237
g290
(lp10238
(I0
I6
tp10239
a(I0
I9
tp10240
asg294
g5
(g6
g7
(lp10241
g10210
ag10221
atp10242
Rp10243
(dp10244
g16
g305
sbsbsg306
g2572
sg330
(lp10245
(isxpPackage
sxpSent
p10246
(dp10247
g334
(lp10248
I32
asg336
VBased on the MPE values, the best features are
p10249
sg338
I9
sg322
I105
sg339
I26
sbasba(icmyPackage
CELink
p10250
(dp10251
g3
(lp10252
g5
(g6
g7
(lp10253
g5
(g6
g7
(lp10254
g5
(g6
g7
(lp10255
g5
(g6
g7
(lp10256
VNote
p10257
atp10258
Rp10259
(dp10260
g16
VVB
p10261
sbag5
(g6
g7
(lp10262
g5
(g6
g7
(lp10263
Vthat
p10264
atp10265
Rp10266
(dp10267
g16
VIN
p10268
sbag5
(g6
g7
(lp10269
g5
(g6
g7
(lp10270
g5
(g6
g7
(lp10271
Vsome
p10272
atp10273
Rp10274
(dp10275
g16
VDT
p10276
sbag5
(g6
g7
(lp10277
Verrors
p10278
atp10279
Rp10280
(dp10281
g16
VNNS
p10282
sbatp10283
Rp10284
(dp10285
g16
VNP
p10286
sbag5
(g6
g7
(lp10287
g5
(g6
g7
(lp10288
Vmay
p10289
atp10290
Rp10291
(dp10292
g16
VMD
p10293
sbag5
(g6
g7
(lp10294
g5
(g6
g7
(lp10295
Vbe
p10296
atp10297
Rp10298
(dp10299
g16
VVB
p10300
sbag5
(g6
g7
(lp10301
g5
(g6
g7
(lp10302
Vintroduced
p10303
atp10304
Rp10305
(dp10306
g16
VVBN
p10307
sbag5
(g6
g7
(lp10308
g5
(g6
g7
(lp10309
Vin
p10310
atp10311
Rp10312
(dp10313
g16
VIN
p10314
sbag5
(g6
g7
(lp10315
g5
(g6
g7
(lp10316
Vfeature
p10317
atp10318
Rp10319
(dp10320
g16
VNN
p10321
sbag5
(g6
g7
(lp10322
Vextraction
p10323
atp10324
Rp10325
(dp10326
g16
VNN
p10327
sbatp10328
Rp10329
(dp10330
g16
VNP
p10331
sbatp10332
Rp10333
(dp10334
g16
VPP
p10335
sbag5
(g6
g7
(lp10336
g5
(g6
g7
(lp10337
Vdue
p10338
atp10339
Rp10340
(dp10341
g16
VJJ
p10342
sbag5
(g6
g7
(lp10343
Vto
p10344
atp10345
Rp10346
(dp10347
g16
VTO
p10348
sbag5
(g6
g7
(lp10349
g5
(g6
g7
(lp10350
g5
(g6
g7
(lp10351
Vlimitations
p10352
atp10353
Rp10354
(dp10355
g16
VNNS
p10356
sbatp10357
Rp10358
(dp10359
g16
VNP
p10360
sbag5
(g6
g7
(lp10361
g5
(g6
g7
(lp10362
Vof
p10363
atp10364
Rp10365
(dp10366
g16
VIN
p10367
sbag5
(g6
g7
(lp10368
g5
(g6
g7
(lp10369
Vthe
p10370
atp10371
Rp10372
(dp10373
g16
VDT
p10374
sbag5
(g6
g7
(lp10375
VNLP
p10376
atp10377
Rp10378
(dp10379
g16
VNNP
p10380
sbag5
(g6
g7
(lp10381
Vtools
p10382
atp10383
Rp10384
(dp10385
g16
VNNS
p10386
sbatp10387
Rp10388
(dp10389
g16
VNP
p10390
sbatp10391
Rp10392
(dp10393
g16
VPP
p10394
sbatp10395
Rp10396
(dp10397
g16
VNP
p10398
sbatp10399
Rp10400
(dp10401
g16
VPP
p10402
sbatp10403
Rp10404
(dp10405
g16
VVP
p10406
sbatp10407
Rp10408
(dp10409
g16
VVP
p10410
sbatp10411
Rp10412
(dp10413
g16
VVP
p10414
sbatp10415
Rp10416
(dp10417
g16
g199
sbatp10418
Rp10419
(dp10420
g16
VSBAR
p10421
sbatp10422
Rp10423
(dp10424
g16
VVP
p10425
sbatp10426
Rp10427
(dp10428
g16
g199
sbatp10429
Rp10430
(dp10431
g16
VROOT
p10432
sbasg287
(icmyPackage
CorE
p10433
(dp10434
g290
(lp10435
(I0
I12
tp10436
a(I0
I16
tp10437
asg294
g10396
sbsg295
(icmyPackage
CorE
p10438
(dp10439
g290
(lp10440
(I0
I0
tp10441
a(I0
I9
tp10442
asg294
g5
(g6
g7
(lp10443
g10259
ag10266
ag10284
ag10291
ag10298
ag10305
ag10333
atp10444
Rp10445
(dp10446
g16
g305
sbsbsg306
g2732
sg330
(lp10447
(isxpPackage
sxpSent
p10448
(dp10449
g334
(lp10450
I33
asg336
VNote that some errors may be introduced in feature extraction due to limitations of the NLP tools
p10451
sg338
I9
sg322
I110
sg339
I26
sbasba(icmyPackage
CELink
p10452
(dp10453
g3
(lp10454
g5
(g6
g7
(lp10455
g5
(g6
g7
(lp10456
g5
(g6
g7
(lp10457
g5
(g6
g7
(lp10458
g5
(g6
g7
(lp10459
VUsing
p10460
atp10461
Rp10462
(dp10463
g16
VVBG
p10464
sbag5
(g6
g7
(lp10465
g5
(g6
g7
(lp10466
g5
(g6
g7
(lp10467
VNLTK
p10468
atp10469
Rp10470
(dp10471
g16
VNNP
p10472
sbag5
(g6
g7
(lp10473
Vand
p10474
atp10475
Rp10476
(dp10477
g16
VCC
p10478
sbag5
(g6
g7
(lp10479
VScikit-learn
p10480
atp10481
Rp10482
(dp10483
g16
VNNP
p10484
sbatp10485
Rp10486
(dp10487
g16
VNP
p10488
sbag5
(g6
g7
(lp10489
g5
(g6
g7
(lp10490
g5
(g6
g7
(lp10491
g5
(g6
g7
(lp10492
V7
p10493
atp10494
Rp10495
(dp10496
g16
VCD
p10497
sbag5
(g6
g7
(lp10498
g10493
atp10499
Rp10500
(dp10501
g16
VCD
p10502
sbatp10503
Rp10504
(dp10505
g16
VQP
p10506
sbag5
(g6
g7
(lp10507
Vhttp://scikit-learn.org/stable/
p10508
atp10509
Rp10510
(dp10511
g16
VNNS
p10512
sbatp10513
Rp10514
(dp10515
g16
VNP
p10516
sbag5
(g6
g7
(lp10517
g5
(g6
g7
(lp10518
Vwith
p10519
atp10520
Rp10521
(dp10522
g16
VIN
p10523
sbag5
(g6
g7
(lp10524
g5
(g6
g7
(lp10525
Vdefault
p10526
atp10527
Rp10528
(dp10529
g16
VNN
p10530
sbag5
(g6
g7
(lp10531
Vsettings
p10532
atp10533
Rp10534
(dp10535
g16
VNNS
p10536
sbatp10537
Rp10538
(dp10539
g16
VNP
p10540
sbatp10541
Rp10542
(dp10543
g16
VPP
p10544
sbatp10545
Rp10546
(dp10547
g16
VNP
p10548
sbatp10549
Rp10550
(dp10551
g16
g199
sbatp10552
Rp10553
(dp10554
g16
VVP
p10555
sbatp10556
Rp10557
(dp10558
g16
g199
sbag5
(g6
g7
(lp10559
g51
atp10560
Rp10561
(dp10562
g16
g51
sbag5
(g6
g7
(lp10563
g5
(g6
g7
(lp10564
Vwe
p10565
atp10566
Rp10567
(dp10568
g16
VPRP
p10569
sbatp10570
Rp10571
(dp10572
g16
VNP
p10573
sbag5
(g6
g7
(lp10574
g5
(g6
g7
(lp10575
Vgenerate
p10576
atp10577
Rp10578
(dp10579
g16
VVBP
p10580
sbag5
(g6
g7
(lp10581
g5
(g6
g7
(lp10582
Vsix
p10583
atp10584
Rp10585
(dp10586
g16
VCD
p10587
sbag5
(g6
g7
(lp10588
Vpositive/negative
p10589
atp10590
Rp10591
(dp10592
g16
VJJ
p10593
sbag5
(g6
g7
(lp10594
Vclassifiers
p10595
atp10596
Rp10597
(dp10598
g16
VNNS
p10599
sbatp10600
Rp10601
(dp10602
g16
VNP
p10603
sbag5
(g6
g7
(lp10604
g51
atp10605
Rp10606
(dp10607
g16
g51
sbag5
(g6
g7
(lp10608
g5
(g6
g7
(lp10609
Vfor
p10610
atp10611
Rp10612
(dp10613
g16
VIN
p10614
sbag5
(g6
g7
(lp10615
g5
(g6
g7
(lp10616
g5
(g6
g7
(lp10617
Vall
p10618
atp10619
Rp10620
(dp10621
g16
VDT
p10622
sbag5
(g6
g7
(lp10623
Vpossible
p10624
atp10625
Rp10626
(dp10627
g16
VJJ
p10628
sbag5
(g6
g7
(lp10629
Vcombinations
p10630
atp10631
Rp10632
(dp10633
g16
VNNS
p10634
sbatp10635
Rp10636
(dp10637
g16
VNP
p10638
sbag5
(g6
g7
(lp10639
g5
(g6
g7
(lp10640
Vof
p10641
atp10642
Rp10643
(dp10644
g16
VIN
p10645
sbag5
(g6
g7
(lp10646
g5
(g6
g7
(lp10647
g5
(g6
g7
(lp10648
Vthe
p10649
atp10650
Rp10651
(dp10652
g16
VDT
p10653
sbag5
(g6
g7
(lp10654
Vthree
p10655
atp10656
Rp10657
(dp10658
g16
VCD
p10659
sbag5
(g6
g7
(lp10660
Vmodels
p10661
atp10662
Rp10663
(dp10664
g16
VNNS
p10665
sbatp10666
Rp10667
(dp10668
g16
VNP
p10669
sbag5
(g6
g7
(lp10670
Vand
p10671
atp10672
Rp10673
(dp10674
g16
VCC
p10675
sbag5
(g6
g7
(lp10676
g5
(g6
g7
(lp10677
Vtwo
p10678
atp10679
Rp10680
(dp10681
g16
VCD
p10682
sbag5
(g6
g7
(lp10683
Vdatasets
p10684
atp10685
Rp10686
(dp10687
g16
VNNS
p10688
sbatp10689
Rp10690
(dp10691
g16
VNP
p10692
sbatp10693
Rp10694
(dp10695
g16
VNP
p10696
sbatp10697
Rp10698
(dp10699
g16
VPP
p10700
sbatp10701
Rp10702
(dp10703
g16
VNP
p10704
sbatp10705
Rp10706
(dp10707
g16
VPP
p10708
sbatp10709
Rp10710
(dp10711
g16
VVP
p10712
sbatp10713
Rp10714
(dp10715
g16
g199
sbatp10716
Rp10717
(dp10718
g16
VROOT
p10719
sbasg287
(icmyPackage
CorE
p10720
(dp10721
g290
(lp10722
(I0
I0
tp10723
a(I0
I9
tp10724
asg294
g10557
sbsg295
(icmyPackage
CorE
p10725
(dp10726
g290
(lp10727
(I0
I11
tp10728
a(I0
I27
tp10729
asg294
g5
(g6
g7
(lp10730
g10571
ag10710
atp10731
Rp10732
(dp10733
g16
g305
sbsbsg306
g632
sg330
(lp10734
(isxpPackage
sxpSent
p10735
(dp10736
g334
(lp10737
I34
asg336
VUsing NLTK and Scikit-learn 7 7 http://scikit-learn.org/stable/ with default settings, we generate six positive/negative classifiers, for all possible combinations of the three models and two datasets
p10738
sg338
I10
sg322
I117
sg339
I28
sbasba(icmyPackage
CELink
p10739
(dp10740
g3
(lp10741
g5
(g6
g7
(lp10742
g5
(g6
g7
(lp10743
g5
(g6
g7
(lp10744
g5
(g6
g7
(lp10745
g5
(g6
g7
(lp10746
VUsing
p10747
atp10748
Rp10749
(dp10750
g16
VVBG
p10751
sbag5
(g6
g7
(lp10752
g5
(g6
g7
(lp10753
g5
(g6
g7
(lp10754
Vthis
p10755
atp10756
Rp10757
(dp10758
g16
VDT
p10759
sbag5
(g6
g7
(lp10760
Vdata
p10761
atp10762
Rp10763
(dp10764
g16
VNN
p10765
sbag5
(g6
g7
(lp10766
Vset
p10767
atp10768
Rp10769
(dp10770
g16
VNN
p10771
sbatp10772
Rp10773
(dp10774
g16
VNP
p10775
sbag5
(g6
g7
(lp10776
Vand
p10777
atp10778
Rp10779
(dp10780
g16
VCC
p10781
sbag5
(g6
g7
(lp10782
g5
(g6
g7
(lp10783
g5
(g6
g7
(lp10784
g115
atp10785
Rp10786
(dp10787
g16
VDT
p10788
sbag5
(g6
g7
(lp10789
Vset
p10790
atp10791
Rp10792
(dp10793
g16
VNN
p10794
sbatp10795
Rp10796
(dp10797
g16
VNP
p10798
sbag5
(g6
g7
(lp10799
g5
(g6
g7
(lp10800
Vof
p10801
atp10802
Rp10803
(dp10804
g16
VIN
p10805
sbag5
(g6
g7
(lp10806
g5
(g6
g7
(lp10807
Vlinguistic
p10808
atp10809
Rp10810
(dp10811
g16
VJJ
p10812
sbag5
(g6
g7
(lp10813
Vfeatures
p10814
atp10815
Rp10816
(dp10817
g16
VNNS
p10818
sbatp10819
Rp10820
(dp10821
g16
VNP
p10822
sbatp10823
Rp10824
(dp10825
g16
VPP
p10826
sbatp10827
Rp10828
(dp10829
g16
VNP
p10830
sbatp10831
Rp10832
(dp10833
g16
VNP
p10834
sbatp10835
Rp10836
(dp10837
g16
VVP
p10838
sbatp10839
Rp10840
(dp10841
g16
g199
sbag5
(g6
g7
(lp10842
g51
atp10843
Rp10844
(dp10845
g16
g51
sbag5
(g6
g7
(lp10846
g5
(g6
g7
(lp10847
Vwe
p10848
atp10849
Rp10850
(dp10851
g16
VPRP
p10852
sbatp10853
Rp10854
(dp10855
g16
VNP
p10856
sbag5
(g6
g7
(lp10857
g5
(g6
g7
(lp10858
Vtrained
p10859
atp10860
Rp10861
(dp10862
g16
VVBD
p10863
sbag5
(g6
g7
(lp10864
g5
(g6
g7
(lp10865
g115
atp10866
Rp10867
(dp10868
g16
VDT
p10869
sbag5
(g6
g7
(lp10870
Vregression
p10871
atp10872
Rp10873
(dp10874
g16
VNN
p10875
sbag5
(g6
g7
(lp10876
Vmodel
p10877
atp10878
Rp10879
(dp10880
g16
VNN
p10881
sbatp10882
Rp10883
(dp10884
g16
VNP
p10885
sbag5
(g6
g7
(lp10886
g5
(g6
g7
(lp10887
g5
(g6
g7
(lp10888
Vto
p10889
atp10890
Rp10891
(dp10892
g16
VTO
p10893
sbag5
(g6
g7
(lp10894
g5
(g6
g7
(lp10895
Vpredict
p10896
atp10897
Rp10898
(dp10899
g16
VVB
p10900
sbag5
(g6
g7
(lp10901
g5
(g6
g7
(lp10902
VSAC
p10903
atp10904
Rp10905
(dp10906
g16
VNNP
p10907
sbatp10908
Rp10909
(dp10910
g16
VNP
p10911
sbatp10912
Rp10913
(dp10914
g16
VVP
p10915
sbatp10916
Rp10917
(dp10918
g16
VVP
p10919
sbatp10920
Rp10921
(dp10922
g16
g199
sbatp10923
Rp10924
(dp10925
g16
VVP
p10926
sbatp10927
Rp10928
(dp10929
g16
g199
sbatp10930
Rp10931
(dp10932
g16
VROOT
p10933
sbasg287
(icmyPackage
CorE
p10934
(dp10935
g290
(lp10936
(I0
I0
tp10937
a(I0
I9
tp10938
asg294
g10840
sbsg295
(icmyPackage
CorE
p10939
(dp10940
g290
(lp10941
(I0
I11
tp10942
a(I0
I18
tp10943
asg294
g5
(g6
g7
(lp10944
g10854
ag10924
atp10945
Rp10946
(dp10947
g16
g305
sbsbsg306
g632
sg330
(lp10948
(isxpPackage
sxpSent
p10949
(dp10950
g334
(lp10951
I35
asg336
VUsing this data set and a set of linguistic features, we trained a regression model to predict SAC
p10952
sg338
I11
sg322
I124
sg339
I31
sbasba(icmyPackage
CELink
p10953
(dp10954
g3
(lp10955
g5
(g6
g7
(lp10956
g5
(g6
g7
(lp10957
g5
(g6
g7
(lp10958
g5
(g6
g7
(lp10959
VFinally
p10960
atp10961
Rp10962
(dp10963
g16
VRB
p10964
sbatp10965
Rp10966
(dp10967
g16
VADVP
p10968
sbag5
(g6
g7
(lp10969
g51
atp10970
Rp10971
(dp10972
g16
g51
sbag5
(g6
g7
(lp10973
g5
(g6
g7
(lp10974
Vwe
p10975
atp10976
Rp10977
(dp10978
g16
VPRP
p10979
sbatp10980
Rp10981
(dp10982
g16
VNP
p10983
sbag5
(g6
g7
(lp10984
g5
(g6
g7
(lp10985
Vobserve
p10986
atp10987
Rp10988
(dp10989
g16
VVBP
p10990
sbag5
(g6
g7
(lp10991
g5
(g6
g7
(lp10992
g5
(g6
g7
(lp10993
g115
atp10994
Rp10995
(dp10996
g16
VDT
p10997
sbag5
(g6
g7
(lp10998
g5
(g6
g7
(lp10999
Vnegative
p11000
atp11001
Rp11002
(dp11003
g16
VJJ
p11004
sbatp11005
Rp11006
(dp11007
g16
VADJP
p11008
sbag5
(g6
g7
(lp11009
Vcorrelation
p11010
atp11011
Rp11012
(dp11013
g16
VNN
p11014
sbatp11015
Rp11016
(dp11017
g16
VNP
p11018
sbag5
(g6
g7
(lp11019
g5
(g6
g7
(lp11020
Vbetween
p11021
atp11022
Rp11023
(dp11024
g16
VIN
p11025
sbag5
(g6
g7
(lp11026
g5
(g6
g7
(lp11027
g5
(g6
g7
(lp11028
Vthe
p11029
atp11030
Rp11031
(dp11032
g16
VDT
p11033
sbag5
(g6
g7
(lp11034
Vclassifier
p11035
atp11036
Rp11037
(dp11038
g16
VJJ
p11039
sbag5
(g6
g7
(lp11040
Vconfidence
p11041
atp11042
Rp11043
(dp11044
g16
VNN
p11045
sbag5
(g6
g7
(lp11046
Vscores
p11047
atp11048
Rp11049
(dp11050
g16
VNNS
p11051
sbatp11052
Rp11053
(dp11054
g16
VNP
p11055
sbag5
(g6
g7
(lp11056
Vand
p11057
atp11058
Rp11059
(dp11060
g16
VCC
p11061
sbag5
(g6
g7
(lp11062
g5
(g6
g7
(lp11063
g115
atp11064
Rp11065
(dp11066
g16
VDT
p11067
sbag5
(g6
g7
(lp11068
VSAC
p11069
atp11070
Rp11071
(dp11072
g16
VNNP
p11073
sbatp11074
Rp11075
(dp11076
g16
VNP
p11077
sbatp11078
Rp11079
(dp11080
g16
VNP
p11081
sbatp11082
Rp11083
(dp11084
g16
VPP
p11085
sbag5
(g6
g7
(lp11086
g51
atp11087
Rp11088
(dp11089
g16
g51
sbag5
(g6
g7
(lp11090
g5
(g6
g7
(lp11091
Vas
p11092
atp11093
Rp11094
(dp11095
g16
VRB
p11096
sbag5
(g6
g7
(lp11097
Vexpected
p11098
atp11099
Rp11100
(dp11101
g16
VVBN
p11102
sbatp11103
Rp11104
(dp11105
g16
VADJP
p11106
sbatp11107
Rp11108
(dp11109
g16
VNP
p11110
sbatp11111
Rp11112
(dp11113
g16
VVP
p11114
sbatp11115
Rp11116
(dp11117
g16
g199
sbatp11118
Rp11119
(dp11120
g16
VROOT
p11121
sbag5
(g6
g7
(lp11122
g5
(g6
g7
(lp11123
g5
(g6
g7
(lp11124
g5
(g6
g7
(lp11125
VAs
p11126
atp11127
Rp11128
(dp11129
g16
VIN
p11130
sbag5
(g6
g7
(lp11131
g5
(g6
g7
(lp11132
g115
atp11133
Rp11134
(dp11135
g16
VDT
p11136
sbag5
(g6
g7
(lp11137
Vfuture
p11138
atp11139
Rp11140
(dp11141
g16
VJJ
p11142
sbag5
(g6
g7
(lp11143
Vwork
p11144
atp11145
Rp11146
(dp11147
g16
VNN
p11148
sbatp11149
Rp11150
(dp11151
g16
VNP
p11152
sbatp11153
Rp11154
(dp11155
g16
VPP
p11156
sbag5
(g6
g7
(lp11157
g51
atp11158
Rp11159
(dp11160
g16
g51
sbag5
(g6
g7
(lp11161
g5
(g6
g7
(lp11162
Vwe
p11163
atp11164
Rp11165
(dp11166
g16
VPRP
p11167
sbatp11168
Rp11169
(dp11170
g16
VNP
p11171
sbag5
(g6
g7
(lp11172
g5
(g6
g7
(lp11173
Vwould
p11174
atp11175
Rp11176
(dp11177
g16
VMD
p11178
sbag5
(g6
g7
(lp11179
g5
(g6
g7
(lp11180
Vlike
p11181
atp11182
Rp11183
(dp11184
g16
VVB
p11185
sbag5
(g6
g7
(lp11186
g5
(g6
g7
(lp11187
g5
(g6
g7
(lp11188
Vto
p11189
atp11190
Rp11191
(dp11192
g16
VTO
p11193
sbag5
(g6
g7
(lp11194
g5
(g6
g7
(lp11195
Vinvestigate
p11196
atp11197
Rp11198
(dp11199
g16
VVB
p11200
sbag5
(g6
g7
(lp11201
g5
(g6
g7
(lp11202
g5
(g6
g7
(lp11203
Vhow
p11204
atp11205
Rp11206
(dp11207
g16
VWRB
p11208
sbatp11209
Rp11210
(dp11211
g16
VWHADVP
p11212
sbag5
(g6
g7
(lp11213
g5
(g6
g7
(lp11214
g5
(g6
g7
(lp11215
g5
(g6
g7
(lp11216
VSAC
p11217
atp11218
Rp11219
(dp11220
g16
VNNP
p11221
sbatp11222
Rp11223
(dp11224
g16
VNP
p11225
sbag5
(g6
g7
(lp11226
g5
(g6
g7
(lp11227
Vof
p11228
atp11229
Rp11230
(dp11231
g16
VIN
p11232
sbag5
(g6
g7
(lp11233
g5
(g6
g7
(lp11234
g115
atp11235
Rp11236
(dp11237
g16
VDT
p11238
sbag5
(g6
g7
(lp11239
Vtest
p11240
atp11241
Rp11242
(dp11243
g16
VNN
p11244
sbag5
(g6
g7
(lp11245
Vsentence
p11246
atp11247
Rp11248
(dp11249
g16
VNN
p11250
sbatp11251
Rp11252
(dp11253
g16
VNP
p11254
sbatp11255
Rp11256
(dp11257
g16
VPP
p11258
sbatp11259
Rp11260
(dp11261
g16
VNP
p11262
sbag5
(g6
g7
(lp11263
g5
(g6
g7
(lp11264
Vcan
p11265
atp11266
Rp11267
(dp11268
g16
VMD
p11269
sbag5
(g6
g7
(lp11270
g5
(g6
g7
(lp11271
Vbe
p11272
atp11273
Rp11274
(dp11275
g16
VVB
p11276
sbag5
(g6
g7
(lp11277
g5
(g6
g7
(lp11278
Vused
p11279
atp11280
Rp11281
(dp11282
g16
VVBN
p11283
sbag5
(g6
g7
(lp11284
g5
(g6
g7
(lp11285
g5
(g6
g7
(lp11286
g5
(g6
g7
(lp11287
Vto
p11288
atp11289
Rp11290
(dp11291
g16
VTO
p11292
sbag5
(g6
g7
(lp11293
g5
(g6
g7
(lp11294
Vchoose
p11295
atp11296
Rp11297
(dp11298
g16
VVB
p11299
sbag5
(g6
g7
(lp11300
g5
(g6
g7
(lp11301
g115
atp11302
Rp11303
(dp11304
g16
VDT
p11305
sbag5
(g6
g7
(lp11306
Vclassifier
p11307
atp11308
Rp11309
(dp11310
g16
VNN
p11311
sbatp11312
Rp11313
(dp11314
g16
VNP
p11315
sbag5
(g6
g7
(lp11316
g5
(g6
g7
(lp11317
Vfrom
p11318
atp11319
Rp11320
(dp11321
g16
VIN
p11322
sbag5
(g6
g7
(lp11323
g5
(g6
g7
(lp11324
Van
p11325
atp11326
Rp11327
(dp11328
g16
VDT
p11329
sbag5
(g6
g7
(lp11330
Vensemble
p11331
atp11332
Rp11333
(dp11334
g16
VNN
p11335
sbatp11336
Rp11337
(dp11338
g16
VNP
p11339
sbatp11340
Rp11341
(dp11342
g16
VPP
p11343
sbatp11344
Rp11345
(dp11346
g16
VVP
p11347
sbatp11348
Rp11349
(dp11350
g16
VVP
p11351
sbag5
(g6
g7
(lp11352
g51
atp11353
Rp11354
(dp11355
g16
g51
sbag5
(g6
g7
(lp11356
Vand
p11357
atp11358
Rp11359
(dp11360
g16
VCC
p11361
sbag5
(g6
g7
(lp11362
g5
(g6
g7
(lp11363
Vto
p11364
atp11365
Rp11366
(dp11367
g16
VTO
p11368
sbag5
(g6
g7
(lp11369
g5
(g6
g7
(lp11370
Vdetermine
p11371
atp11372
Rp11373
(dp11374
g16
VVB
p11375
sbag5
(g6
g7
(lp11376
g5
(g6
g7
(lp11377
g5
(g6
g7
(lp11378
g5
(g6
g7
(lp11379
g5
(g6
g7
(lp11380
Vthe
p11381
atp11382
Rp11383
(dp11384
g16
VDT
p11385
sbag5
(g6
g7
(lp11386
Vpre-processing
p11387
atp11388
Rp11389
(dp11390
g16
VNN
p11391
sbatp11392
Rp11393
(dp11394
g16
VNP
p11395
sbag5
(g6
g7
(lp11396
g5
(g6
g7
(lp11397
Vsteps
p11398
atp11399
Rp11400
(dp11401
g16
VNNS
p11402
sbatp11403
Rp11404
(dp11405
g16
VNP
p11406
sbatp11407
Rp11408
(dp11409
g16
VNP
p11410
sbag5
(g6
g7
(lp11411
V-LRB-
p11412
atp11413
Rp11414
(dp11415
g16
V-LRB-
p11416
sbag5
(g6
g7
(lp11417
g5
(g6
g7
(lp11418
Ventity-relationship
p11419
atp11420
Rp11421
(dp11422
g16
VJJ
p11423
sbag5
(g6
g7
(lp11424
Vextraction
p11425
atp11426
Rp11427
(dp11428
g16
VNN
p11429
sbatp11430
Rp11431
(dp11432
g16
VNP
p11433
sbag5
(g6
g7
(lp11434
g51
atp11435
Rp11436
(dp11437
g16
g51
sbatp11438
Rp11439
(dp11440
g16
VNP
p11441
sbag5
(g6
g7
(lp11442
g5
(g6
g7
(lp11443
Vfor
p11444
atp11445
Rp11446
(dp11447
g16
VIN
p11448
sbag5
(g6
g7
(lp11449
g5
(g6
g7
(lp11450
Vexample
p11451
atp11452
Rp11453
(dp11454
g16
VNN
p11455
sbatp11456
Rp11457
(dp11458
g16
VNP
p11459
sbatp11460
Rp11461
(dp11462
g16
VPP
p11463
sbatp11464
Rp11465
(dp11466
g16
VNP
p11467
sbatp11468
Rp11469
(dp11470
g16
VVP
p11471
sbatp11472
Rp11473
(dp11474
g16
VVP
p11475
sbatp11476
Rp11477
(dp11478
g16
VVP
p11479
sbatp11480
Rp11481
(dp11482
g16
g199
sbatp11483
Rp11484
(dp11485
g16
VVP
p11486
sbatp11487
Rp11488
(dp11489
g16
VVP
p11490
sbatp11491
Rp11492
(dp11493
g16
VVP
p11494
sbatp11495
Rp11496
(dp11497
g16
g199
sbatp11498
Rp11499
(dp11500
g16
VSBAR
p11501
sbatp11502
Rp11503
(dp11504
g16
VVP
p11505
sbatp11506
Rp11507
(dp11508
g16
VVP
p11509
sbatp11510
Rp11511
(dp11512
g16
g199
sbatp11513
Rp11514
(dp11515
g16
VVP
p11516
sbatp11517
Rp11518
(dp11519
g16
VVP
p11520
sbatp11521
Rp11522
(dp11523
g16
g199
sbatp11524
Rp11525
(dp11526
g16
VROOT
p11527
sbasg287
(icmyPackage
CorE
p11528
(dp11529
g290
(lp11530
(I0
I17
tp11531
a(I1
I35
tp11532
asg294
g5
(g6
g7
(lp11533
g11100
ag11154
ag11159
ag11169
ag11176
ag11183
ag11191
ag11198
ag11210
ag11260
ag11267
ag11274
ag11281
ag11349
ag11354
ag11359
ag11366
ag11373
ag11408
ag11414
ag11431
atp11534
Rp11535
(dp11536
g16
g305
sbsbsg295
(icmyPackage
CorE
p11537
(dp11538
g290
(lp11539
(I0
I0
tp11540
a(I0
I14
tp11541
asg294
g5
(g6
g7
(lp11542
g10966
ag10971
ag10981
ag10988
ag11016
ag11083
atp11543
Rp11544
(dp11545
g16
g305
sbsbsg306
g5900
sg330
(lp11546
(isxpPackage
sxpSent
p11547
(dp11548
g334
(lp11549
I36
aI37
asg336
VFinally, we observe a negative correlation between the classifier confidence scores and a SAC, as expected
p11550
sg338
I11
sg322
I126
sg339
I31
sba(isxpPackage
sxpSent
p11551
(dp11552
g334
(lp11553
I36
aI37
asg336
VAs a future work, we would like to investigate how SAC of a test sentence can be used to choose a classifier from an ensemble, and to determine the pre-processing steps (entity-relationship extraction, for example
p11554
sg338
I11
sg322
I127
sg339
I31
sbasba(icmyPackage
CELink
p11555
(dp11556
g3
(lp11557
g11119
ag11525
asg287
(icmyPackage
CorE
p11558
(dp11559
g290
(lp11560
(I1
I1
tp11561
a(I1
I36
tp11562
asg294
g5
(g6
g7
(lp11563
g11150
ag11159
ag11169
ag11176
ag11183
ag11191
ag11198
ag11210
ag11260
ag11267
ag11274
ag11281
ag11349
ag11354
ag11359
ag11366
ag11373
ag11439
atp11564
Rp11565
(dp11566
g16
g305
sbsbsg295
(icmyPackage
CorE
p11567
(dp11568
g290
(lp11569
(I0
I0
tp11570
a(I0
I17
tp11571
asg294
g11119
sbsg306
g5900
sg330
(lp11572
g11547
ag11551
asba.