(dp0
V59
p1
(dp2
VROUGE-L
p3
(lp4
(lp5
VAverage_R
p6
a(lp7
V0.33677
p8
aV0.32675
p9
aV0.34645
p10
aaa(lp11
VAverage_P
p12
a(lp13
V0.33924
p14
aV0.32837
p15
aV0.34911
p16
aaa(lp17
VAverage_F
p18
a(lp19
V0.33763
p20
aV0.32722
p21
aV0.34737
p22
aaasVROUGE-4
p23
(lp24
(lp25
VAverage_R
p26
a(lp27
V0.01404
p28
aV0.01046
p29
aV0.01763
p30
aaa(lp31
VAverage_P
p32
a(lp33
V0.01431
p34
aV0.01064
p35
aV0.01799
p36
aaa(lp37
VAverage_F
p38
a(lp39
V0.01417
p40
aV0.01052
p41
aV0.01780
p42
aaasVROUGE-2
p43
(lp44
(lp45
VAverage_R
p46
a(lp47
V0.08716
p48
aV0.07969
p49
aV0.09455
p50
aaa(lp51
VAverage_P
p52
a(lp53
V0.08813
p54
aV0.08019
p55
aV0.09564
p56
aaa(lp57
VAverage_F
p58
a(lp59
V0.08757
p60
aV0.07997
p61
aV0.09497
p62
aaasVROUGE-3
p63
(lp64
(lp65
VAverage_R
p66
a(lp67
V0.02860
p68
aV0.02364
p69
aV0.03346
p70
aaa(lp71
VAverage_P
p72
a(lp73
V0.02905
p74
aV0.02392
p75
aV0.03395
p76
aaa(lp77
VAverage_F
p78
a(lp79
V0.02880
p80
aV0.02377
p81
aV0.03373
p82
aaasVROUGE-1
p83
(lp84
(lp85
VAverage_R
p86
a(lp87
V0.37510
p88
aV0.36458
p89
aV0.38529
p90
aaa(lp91
VAverage_P
p92
a(lp93
V0.37776
p94
aV0.36628
p95
aV0.38832
p96
aaa(lp97
VAverage_F
p98
a(lp99
V0.37600
p100
aV0.36491
p101
aV0.38629
p102
aaassV58
p103
(dp104
VROUGE-L
p105
(lp106
(lp107
VAverage_R
p108
a(lp109
V0.35278
p110
aV0.34336
p111
aV0.36217
p112
aaa(lp113
VAverage_P
p114
a(lp115
V0.35718
p116
aV0.34687
p117
aV0.36741
p118
aaa(lp119
VAverage_F
p120
a(lp121
V0.35454
p122
aV0.34485
p123
aV0.36438
p124
aaasVROUGE-4
p125
(lp126
(lp127
VAverage_R
p128
a(lp129
V0.01615
p130
aV0.01296
p131
aV0.01963
p132
aaa(lp133
VAverage_P
p134
a(lp135
V0.01654
p136
aV0.01317
p137
aV0.02019
p138
aaa(lp139
VAverage_F
p140
a(lp141
V0.01633
p142
aV0.01305
p143
aV0.01986
p144
aaasVROUGE-2
p145
(lp146
(lp147
VAverage_R
p148
a(lp149
V0.09618
p150
aV0.08924
p151
aV0.10326
p152
aaa(lp153
VAverage_P
p154
a(lp155
V0.09761
p156
aV0.09058
p157
aV0.10514
p158
aaa(lp159
VAverage_F
p160
a(lp161
V0.09678
p162
aV0.08985
p163
aV0.10411
p164
aaasVROUGE-3
p165
(lp166
(lp167
VAverage_R
p168
a(lp169
V0.03322
p170
aV0.02867
p171
aV0.03827
p172
aaa(lp173
VAverage_P
p174
a(lp175
V0.03382
p176
aV0.02907
p177
aV0.03900
p178
aaa(lp179
VAverage_F
p180
a(lp181
V0.03348
p182
aV0.02891
p183
aV0.03855
p184
aaasVROUGE-1
p185
(lp186
(lp187
VAverage_R
p188
a(lp189
V0.39194
p190
aV0.38178
p191
aV0.40151
p192
aaa(lp193
VAverage_P
p194
a(lp195
V0.39681
p196
aV0.38570
p197
aV0.40741
p198
aaa(lp199
VAverage_F
p200
a(lp201
V0.39388
p202
aV0.38371
p203
aV0.40413
p204
aaassV55
p205
(dp206
VROUGE-L
p207
(lp208
(lp209
VAverage_R
p210
a(lp211
V0.35005
p212
aV0.34030
p213
aV0.35988
p214
aaa(lp215
VAverage_P
p216
a(lp217
V0.35393
p218
aV0.34367
p219
aV0.36450
p220
aaa(lp221
VAverage_F
p222
a(lp223
V0.35153
p224
aV0.34184
p225
aV0.36150
p226
aaasVROUGE-4
p227
(lp228
(lp229
VAverage_R
p230
a(lp231
V0.01571
p232
aV0.01242
p233
aV0.01918
p234
aaa(lp235
VAverage_P
p236
a(lp237
V0.01601
p238
aV0.01263
p239
aV0.01949
p240
aaa(lp241
VAverage_F
p242
a(lp243
V0.01584
p244
aV0.01252
p245
aV0.01930
p246
aaasVROUGE-2
p247
(lp248
(lp249
VAverage_R
p250
a(lp251
V0.09430
p252
aV0.08728
p253
aV0.10154
p254
aaa(lp255
VAverage_P
p256
a(lp257
V0.09544
p258
aV0.08830
p259
aV0.10304
p260
aaa(lp261
VAverage_F
p262
a(lp263
V0.09474
p264
aV0.08778
p265
aV0.10207
p266
aaasVROUGE-3
p267
(lp268
(lp269
VAverage_R
p270
a(lp271
V0.03232
p272
aV0.02767
p273
aV0.03697
p274
aaa(lp275
VAverage_P
p276
a(lp277
V0.03277
p278
aV0.02814
p279
aV0.03764
p280
aaa(lp281
VAverage_F
p282
a(lp283
V0.03250
p284
aV0.02788
p285
aV0.03724
p286
aaasVROUGE-1
p287
(lp288
(lp289
VAverage_R
p290
a(lp291
V0.38935
p292
aV0.37926
p293
aV0.39942
p294
aaa(lp295
VAverage_P
p296
a(lp297
V0.39361
p298
aV0.38292
p299
aV0.40431
p300
aaa(lp301
VAverage_F
p302
a(lp303
V0.39096
p304
aV0.38051
p305
aV0.40121
p306
aaassV54
p307
(dp308
VROUGE-L
p309
(lp310
(lp311
VAverage_R
p312
a(lp313
V0.32829
p314
aV0.31850
p315
aV0.33812
p316
aaa(lp317
VAverage_P
p318
a(lp319
V0.33108
p320
aV0.32064
p321
aV0.34154
p322
aaa(lp323
VAverage_F
p324
a(lp325
V0.32923
p326
aV0.31935
p327
aV0.33934
p328
aaasVROUGE-4
p329
(lp330
(lp331
VAverage_R
p332
a(lp333
V0.01417
p334
aV0.01077
p335
aV0.01790
p336
aaa(lp337
VAverage_P
p338
a(lp339
V0.01425
p340
aV0.01078
p341
aV0.01800
p342
aaa(lp343
VAverage_F
p344
a(lp345
V0.01418
p346
aV0.01078
p347
aV0.01788
p348
aaasVROUGE-2
p349
(lp350
(lp351
VAverage_R
p352
a(lp353
V0.08478
p354
aV0.07748
p355
aV0.09223
p356
aaa(lp357
VAverage_P
p358
a(lp359
V0.08547
p360
aV0.07802
p361
aV0.09310
p362
aaa(lp363
VAverage_F
p364
a(lp365
V0.08499
p366
aV0.07776
p367
aV0.09246
p368
aaasVROUGE-3
p369
(lp370
(lp371
VAverage_R
p372
a(lp373
V0.02863
p374
aV0.02379
p375
aV0.03374
p376
aaa(lp377
VAverage_P
p378
a(lp379
V0.02878
p380
aV0.02397
p381
aV0.03401
p382
aaa(lp383
VAverage_F
p384
a(lp385
V0.02865
p386
aV0.02381
p387
aV0.03380
p388
aaasVROUGE-1
p389
(lp390
(lp391
VAverage_R
p392
a(lp393
V0.36910
p394
aV0.35891
p395
aV0.37930
p396
aaa(lp397
VAverage_P
p398
a(lp399
V0.37222
p400
aV0.36129
p401
aV0.38305
p402
aaa(lp403
VAverage_F
p404
a(lp405
V0.37014
p406
aV0.35969
p407
aV0.38038
p408
aaassV57
p409
(dp410
VROUGE-L
p411
(lp412
(lp413
VAverage_R
p414
a(lp415
V0.34858
p416
aV0.33900
p417
aV0.35791
p418
aaa(lp419
VAverage_P
p420
a(lp421
V0.35336
p422
aV0.34293
p423
aV0.36351
p424
aaa(lp425
VAverage_F
p426
a(lp427
V0.35059
p428
aV0.34054
p429
aV0.36019
p430
aaasVROUGE-4
p431
(lp432
(lp433
VAverage_R
p434
a(lp435
V0.01516
p436
aV0.01181
p437
aV0.01884
p438
aaa(lp439
VAverage_P
p440
a(lp441
V0.01552
p442
aV0.01205
p443
aV0.01925
p444
aaa(lp445
VAverage_F
p446
a(lp447
V0.01533
p448
aV0.01195
p449
aV0.01904
p450
aaasVROUGE-2
p451
(lp452
(lp453
VAverage_R
p454
a(lp455
V0.09370
p456
aV0.08637
p457
aV0.10091
p458
aaa(lp459
VAverage_P
p460
a(lp461
V0.09531
p462
aV0.08755
p463
aV0.10269
p464
aaa(lp465
VAverage_F
p466
a(lp467
V0.09443
p468
aV0.08682
p469
aV0.10170
p470
aaasVROUGE-3
p471
(lp472
(lp473
VAverage_R
p474
a(lp475
V0.03162
p476
aV0.02678
p477
aV0.03678
p478
aaa(lp479
VAverage_P
p480
a(lp481
V0.03228
p482
aV0.02725
p483
aV0.03744
p484
aaa(lp485
VAverage_F
p486
a(lp487
V0.03193
p488
aV0.02706
p489
aV0.03708
p490
aaasVROUGE-1
p491
(lp492
(lp493
VAverage_R
p494
a(lp495
V0.38824
p496
aV0.37820
p497
aV0.39814
p498
aaa(lp499
VAverage_P
p500
a(lp501
V0.39347
p502
aV0.38265
p503
aV0.40375
p504
aaa(lp505
VAverage_F
p506
a(lp507
V0.39041
p508
aV0.38008
p509
aV0.40059
p510
aaassV56
p511
(dp512
VROUGE-L
p513
(lp514
(lp515
VAverage_R
p516
a(lp517
V0.34761
p518
aV0.33816
p519
aV0.35685
p520
aaa(lp521
VAverage_P
p522
a(lp523
V0.35256
p524
aV0.34229
p525
aV0.36250
p526
aaa(lp527
VAverage_F
p528
a(lp529
V0.34971
p530
aV0.33987
p531
aV0.35954
p532
aaasVROUGE-4
p533
(lp534
(lp535
VAverage_R
p536
a(lp537
V0.01544
p538
aV0.01201
p539
aV0.01957
p540
aaa(lp541
VAverage_P
p542
a(lp543
V0.01582
p544
aV0.01227
p545
aV0.01999
p546
aaa(lp547
VAverage_F
p548
a(lp549
V0.01562
p550
aV0.01212
p551
aV0.01974
p552
aaasVROUGE-2
p553
(lp554
(lp555
VAverage_R
p556
a(lp557
V0.09341
p558
aV0.08576
p559
aV0.10064
p560
aaa(lp561
VAverage_P
p562
a(lp563
V0.09506
p564
aV0.08715
p565
aV0.10236
p566
aaa(lp567
VAverage_F
p568
a(lp569
V0.09416
p570
aV0.08639
p571
aV0.10142
p572
aaasVROUGE-3
p573
(lp574
(lp575
VAverage_R
p576
a(lp577
V0.03156
p578
aV0.02684
p579
aV0.03698
p580
aaa(lp581
VAverage_P
p582
a(lp583
V0.03223
p584
aV0.02739
p585
aV0.03770
p586
aaa(lp587
VAverage_F
p588
a(lp589
V0.03187
p590
aV0.02711
p591
aV0.03731
p592
aaasVROUGE-1
p593
(lp594
(lp595
VAverage_R
p596
a(lp597
V0.38700
p598
aV0.37692
p599
aV0.39663
p600
aaa(lp601
VAverage_P
p602
a(lp603
V0.39244
p604
aV0.38163
p605
aV0.40323
p606
aaa(lp607
VAverage_F
p608
a(lp609
V0.38929
p610
aV0.37900
p611
aV0.39921
p612
aaassV51
p613
(dp614
VROUGE-L
p615
(lp616
(lp617
VAverage_R
p618
a(lp619
V0.35259
p620
aV0.34267
p621
aV0.36222
p622
aaa(lp623
VAverage_P
p624
a(lp625
V0.35676
p626
aV0.34623
p627
aV0.36705
p628
aaa(lp629
VAverage_F
p630
a(lp631
V0.35422
p632
aV0.34430
p633
aV0.36446
p634
aaasVROUGE-4
p635
(lp636
(lp637
VAverage_R
p638
a(lp639
V0.01647
p640
aV0.01309
p641
aV0.02010
p642
aaa(lp643
VAverage_P
p644
a(lp645
V0.01682
p646
aV0.01332
p647
aV0.02060
p648
aaa(lp649
VAverage_F
p650
a(lp651
V0.01663
p652
aV0.01315
p653
aV0.02033
p654
aaasVROUGE-2
p655
(lp656
(lp657
VAverage_R
p658
a(lp659
V0.09626
p660
aV0.08905
p661
aV0.10369
p662
aaa(lp663
VAverage_P
p664
a(lp665
V0.09755
p666
aV0.09041
p667
aV0.10513
p668
aaa(lp669
VAverage_F
p670
a(lp671
V0.09678
p672
aV0.08964
p673
aV0.10423
p674
aaasVROUGE-3
p675
(lp676
(lp677
VAverage_R
p678
a(lp679
V0.03335
p680
aV0.02871
p681
aV0.03828
p682
aaa(lp683
VAverage_P
p684
a(lp685
V0.03386
p686
aV0.02910
p687
aV0.03891
p688
aaa(lp689
VAverage_F
p690
a(lp691
V0.03356
p692
aV0.02877
p693
aV0.03854
p694
aaasVROUGE-1
p695
(lp696
(lp697
VAverage_R
p698
a(lp699
V0.39235
p700
aV0.38230
p701
aV0.40212
p702
aaa(lp703
VAverage_P
p704
a(lp705
V0.39696
p706
aV0.38613
p707
aV0.40788
p708
aaa(lp709
VAverage_F
p710
a(lp711
V0.39414
p712
aV0.38404
p713
aV0.40441
p714
aaassV53
p715
(dp716
VROUGE-L
p717
(lp718
(lp719
VAverage_R
p720
a(lp721
V0.33203
p722
aV0.32153
p723
aV0.34262
p724
aaa(lp725
VAverage_P
p726
a(lp727
V0.33212
p728
aV0.32107
p729
aV0.34324
p730
aaa(lp731
VAverage_F
p732
a(lp733
V0.33154
p734
aV0.32082
p735
aV0.34215
p736
aaasVROUGE-4
p737
(lp738
(lp739
VAverage_R
p740
a(lp741
V0.01323
p742
aV0.01017
p743
aV0.01681
p744
aaa(lp745
VAverage_P
p746
a(lp747
V0.01321
p748
aV0.01008
p749
aV0.01673
p750
aaa(lp751
VAverage_F
p752
a(lp753
V0.01319
p754
aV0.01010
p755
aV0.01675
p756
aaasVROUGE-2
p757
(lp758
(lp759
VAverage_R
p760
a(lp761
V0.08875
p762
aV0.08200
p763
aV0.09585
p764
aaa(lp765
VAverage_P
p766
a(lp767
V0.08868
p768
aV0.08173
p769
aV0.09591
p770
aaa(lp771
VAverage_F
p772
a(lp773
V0.08854
p774
aV0.08179
p775
aV0.09569
p776
aaasVROUGE-3
p777
(lp778
(lp779
VAverage_R
p780
a(lp781
V0.02884
p782
aV0.02434
p783
aV0.03365
p784
aaa(lp785
VAverage_P
p786
a(lp787
V0.02878
p788
aV0.02443
p789
aV0.03355
p790
aaa(lp791
VAverage_F
p792
a(lp793
V0.02875
p794
aV0.02438
p795
aV0.03352
p796
aaasVROUGE-1
p797
(lp798
(lp799
VAverage_R
p800
a(lp801
V0.37010
p802
aV0.35833
p803
aV0.38093
p804
aaa(lp805
VAverage_P
p806
a(lp807
V0.37012
p808
aV0.35805
p809
aV0.38224
p810
aaa(lp811
VAverage_F
p812
a(lp813
V0.36950
p814
aV0.35790
p815
aV0.38078
p816
aaassV52
p817
(dp818
VROUGE-L
p819
(lp820
(lp821
VAverage_R
p822
a(lp823
V0.31897
p824
aV0.30891
p825
aV0.32940
p826
aaa(lp827
VAverage_P
p828
a(lp829
V0.32596
p830
aV0.31601
p831
aV0.33652
p832
aaa(lp833
VAverage_F
p834
a(lp835
V0.32203
p836
aV0.31203
p837
aV0.33258
p838
aaasVROUGE-4
p839
(lp840
(lp841
VAverage_R
p842
a(lp843
V0.01253
p844
aV0.00989
p845
aV0.01545
p846
aaa(lp847
VAverage_P
p848
a(lp849
V0.01285
p850
aV0.01012
p851
aV0.01583
p852
aaa(lp853
VAverage_F
p854
a(lp855
V0.01267
p856
aV0.01000
p857
aV0.01560
p858
aaasVROUGE-2
p859
(lp860
(lp861
VAverage_R
p862
a(lp863
V0.07765
p864
aV0.07148
p865
aV0.08384
p866
aaa(lp867
VAverage_P
p868
a(lp869
V0.07925
p870
aV0.07310
p871
aV0.08572
p872
aaa(lp873
VAverage_F
p874
a(lp875
V0.07834
p876
aV0.07226
p877
aV0.08466
p878
aaasVROUGE-3
p879
(lp880
(lp881
VAverage_R
p882
a(lp883
V0.02583
p884
aV0.02192
p885
aV0.02991
p886
aaa(lp887
VAverage_P
p888
a(lp889
V0.02640
p890
aV0.02241
p891
aV0.03062
p892
aaa(lp893
VAverage_F
p894
a(lp895
V0.02608
p896
aV0.02209
p897
aV0.03021
p898
aaasVROUGE-1
p899
(lp900
(lp901
VAverage_R
p902
a(lp903
V0.36300
p904
aV0.35293
p905
aV0.37321
p906
aaa(lp907
VAverage_P
p908
a(lp909
V0.37080
p910
aV0.36003
p911
aV0.38147
p912
aaa(lp913
VAverage_F
p914
a(lp915
V0.36639
p916
aV0.35629
p917
aV0.37693
p918
aaass.