(dp0
V99
p1
(dp2
VROUGE-L
p3
(lp4
(lp5
VAverage_R
p6
a(lp7
V0.33366
p8
aV0.32247
p9
aV0.34363
p10
aaa(lp11
VAverage_P
p12
a(lp13
V0.33548
p14
aV0.32385
p15
aV0.34610
p16
aaa(lp17
VAverage_F
p18
a(lp19
V0.33422
p20
aV0.32300
p21
aV0.34473
p22
aaasVROUGE-4
p23
(lp24
(lp25
VAverage_R
p26
a(lp27
V0.01344
p28
aV0.00995
p29
aV0.01717
p30
aaa(lp31
VAverage_P
p32
a(lp33
V0.01365
p34
aV0.01005
p35
aV0.01748
p36
aaa(lp37
VAverage_F
p38
a(lp39
V0.01354
p40
aV0.01000
p41
aV0.01733
p42
aaasVROUGE-2
p43
(lp44
(lp45
VAverage_R
p46
a(lp47
V0.08471
p48
aV0.07700
p49
aV0.09221
p50
aaa(lp51
VAverage_P
p52
a(lp53
V0.08541
p54
aV0.07740
p55
aV0.09308
p56
aaa(lp57
VAverage_F
p58
a(lp59
V0.08499
p60
aV0.07716
p61
aV0.09248
p62
aaasVROUGE-3
p63
(lp64
(lp65
VAverage_R
p66
a(lp67
V0.02745
p68
aV0.02254
p69
aV0.03242
p70
aaa(lp71
VAverage_P
p72
a(lp73
V0.02781
p74
aV0.02275
p75
aV0.03286
p76
aaa(lp77
VAverage_F
p78
a(lp79
V0.02762
p80
aV0.02266
p81
aV0.03264
p82
aaasVROUGE-1
p83
(lp84
(lp85
VAverage_R
p86
a(lp87
V0.36970
p88
aV0.35810
p89
aV0.38047
p90
aaa(lp91
VAverage_P
p92
a(lp93
V0.37163
p94
aV0.35924
p95
aV0.38314
p96
aaa(lp97
VAverage_F
p98
a(lp99
V0.37026
p100
aV0.35833
p101
aV0.38105
p102
aaassV98
p103
(dp104
VROUGE-L
p105
(lp106
(lp107
VAverage_R
p108
a(lp109
V0.32322
p110
aV0.31309
p111
aV0.33385
p112
aaa(lp113
VAverage_P
p114
a(lp115
V0.32782
p116
aV0.31759
p117
aV0.33854
p118
aaa(lp119
VAverage_F
p120
a(lp121
V0.32510
p122
aV0.31519
p123
aV0.33553
p124
aaasVROUGE-4
p125
(lp126
(lp127
VAverage_R
p128
a(lp129
V0.01053
p130
aV0.00761
p131
aV0.01400
p132
aaa(lp133
VAverage_P
p134
a(lp135
V0.01076
p136
aV0.00772
p137
aV0.01433
p138
aaa(lp139
VAverage_F
p140
a(lp141
V0.01064
p142
aV0.00766
p143
aV0.01417
p144
aaasVROUGE-2
p145
(lp146
(lp147
VAverage_R
p148
a(lp149
V0.07568
p150
aV0.06875
p151
aV0.08245
p152
aaa(lp153
VAverage_P
p154
a(lp155
V0.07676
p156
aV0.06967
p157
aV0.08389
p158
aaa(lp159
VAverage_F
p160
a(lp161
V0.07613
p162
aV0.06904
p163
aV0.08307
p164
aaasVROUGE-3
p165
(lp166
(lp167
VAverage_R
p168
a(lp169
V0.02325
p170
aV0.01914
p171
aV0.02786
p172
aaa(lp173
VAverage_P
p174
a(lp175
V0.02365
p176
aV0.01935
p177
aV0.02826
p178
aaa(lp179
VAverage_F
p180
a(lp181
V0.02343
p182
aV0.01921
p183
aV0.02805
p184
aaasVROUGE-1
p185
(lp186
(lp187
VAverage_R
p188
a(lp189
V0.35727
p190
aV0.34637
p191
aV0.36822
p192
aaa(lp193
VAverage_P
p194
a(lp195
V0.36243
p196
aV0.35151
p197
aV0.37396
p198
aaa(lp199
VAverage_F
p200
a(lp201
V0.35938
p202
aV0.34867
p203
aV0.37054
p204
aaassV91
p205
(dp206
VROUGE-L
p207
(lp208
(lp209
VAverage_R
p210
a(lp211
V0.34408
p212
aV0.33366
p213
aV0.35459
p214
aaa(lp215
VAverage_P
p216
a(lp217
V0.34898
p218
aV0.33799
p219
aV0.35983
p220
aaa(lp221
VAverage_F
p222
a(lp223
V0.34607
p224
aV0.33561
p225
aV0.35641
p226
aaasVROUGE-4
p227
(lp228
(lp229
VAverage_R
p230
a(lp231
V0.01466
p232
aV0.01151
p233
aV0.01794
p234
aaa(lp235
VAverage_P
p236
a(lp237
V0.01507
p238
aV0.01178
p239
aV0.01839
p240
aaa(lp241
VAverage_F
p242
a(lp243
V0.01486
p244
aV0.01164
p245
aV0.01813
p246
aaasVROUGE-2
p247
(lp248
(lp249
VAverage_R
p250
a(lp251
V0.09150
p252
aV0.08396
p253
aV0.09882
p254
aaa(lp255
VAverage_P
p256
a(lp257
V0.09308
p258
aV0.08523
p259
aV0.10080
p260
aaa(lp261
VAverage_F
p262
a(lp263
V0.09218
p264
aV0.08444
p265
aV0.09970
p266
aaasVROUGE-3
p267
(lp268
(lp269
VAverage_R
p270
a(lp271
V0.03088
p272
aV0.02621
p273
aV0.03560
p274
aaa(lp275
VAverage_P
p276
a(lp277
V0.03158
p278
aV0.02669
p279
aV0.03642
p280
aaa(lp281
VAverage_F
p282
a(lp283
V0.03120
p284
aV0.02635
p285
aV0.03595
p286
aaasVROUGE-1
p287
(lp288
(lp289
VAverage_R
p290
a(lp291
V0.38269
p292
aV0.37135
p293
aV0.39376
p294
aaa(lp295
VAverage_P
p296
a(lp297
V0.38819
p298
aV0.37639
p299
aV0.39948
p300
aaa(lp301
VAverage_F
p302
a(lp303
V0.38492
p304
aV0.37340
p305
aV0.39613
p306
aaassV95
p307
(dp308
VROUGE-L
p309
(lp310
(lp311
VAverage_R
p312
a(lp313
V0.33989
p314
aV0.32929
p315
aV0.35015
p316
aaa(lp317
VAverage_P
p318
a(lp319
V0.34459
p320
aV0.33356
p321
aV0.35502
p322
aaa(lp323
VAverage_F
p324
a(lp325
V0.34180
p326
aV0.33131
p327
aV0.35211
p328
aaasVROUGE-4
p329
(lp330
(lp331
VAverage_R
p332
a(lp333
V0.01394
p334
aV0.01071
p335
aV0.01729
p336
aaa(lp337
VAverage_P
p338
a(lp339
V0.01434
p340
aV0.01103
p341
aV0.01787
p342
aaa(lp343
VAverage_F
p344
a(lp345
V0.01413
p346
aV0.01087
p347
aV0.01757
p348
aaasVROUGE-2
p349
(lp350
(lp351
VAverage_R
p352
a(lp353
V0.08791
p354
aV0.08043
p355
aV0.09544
p356
aaa(lp357
VAverage_P
p358
a(lp359
V0.08936
p360
aV0.08172
p361
aV0.09690
p362
aaa(lp363
VAverage_F
p364
a(lp365
V0.08854
p366
aV0.08096
p367
aV0.09610
p368
aaasVROUGE-3
p369
(lp370
(lp371
VAverage_R
p372
a(lp373
V0.02962
p374
aV0.02493
p375
aV0.03429
p376
aaa(lp377
VAverage_P
p378
a(lp379
V0.03027
p380
aV0.02536
p381
aV0.03515
p382
aaa(lp383
VAverage_F
p384
a(lp385
V0.02992
p386
aV0.02504
p387
aV0.03469
p388
aaasVROUGE-1
p389
(lp390
(lp391
VAverage_R
p392
a(lp393
V0.37763
p394
aV0.36691
p395
aV0.38840
p396
aaa(lp397
VAverage_P
p398
a(lp399
V0.38281
p400
aV0.37107
p401
aV0.39396
p402
aaa(lp403
VAverage_F
p404
a(lp405
V0.37972
p406
aV0.36845
p407
aV0.39064
p408
aaassV97
p409
(dp410
VROUGE-L
p411
(lp412
(lp413
VAverage_R
p414
a(lp415
V0.34181
p416
aV0.33144
p417
aV0.35156
p418
aaa(lp419
VAverage_P
p420
a(lp421
V0.34693
p422
aV0.33580
p423
aV0.35703
p424
aaa(lp425
VAverage_F
p426
a(lp427
V0.34400
p428
aV0.33313
p429
aV0.35393
p430
aaasVROUGE-4
p431
(lp432
(lp433
VAverage_R
p434
a(lp435
V0.01467
p436
aV0.01133
p437
aV0.01821
p438
aaa(lp439
VAverage_P
p440
a(lp441
V0.01504
p442
aV0.01159
p443
aV0.01866
p444
aaa(lp445
VAverage_F
p446
a(lp447
V0.01485
p448
aV0.01144
p449
aV0.01842
p450
aaasVROUGE-2
p451
(lp452
(lp453
VAverage_R
p454
a(lp455
V0.08992
p456
aV0.08237
p457
aV0.09713
p458
aaa(lp459
VAverage_P
p460
a(lp461
V0.09151
p462
aV0.08390
p463
aV0.09897
p464
aaa(lp465
VAverage_F
p466
a(lp467
V0.09064
p468
aV0.08313
p469
aV0.09793
p470
aaasVROUGE-3
p471
(lp472
(lp473
VAverage_R
p474
a(lp475
V0.03044
p476
aV0.02565
p477
aV0.03534
p478
aaa(lp479
VAverage_P
p480
a(lp481
V0.03111
p482
aV0.02604
p483
aV0.03622
p484
aaa(lp485
VAverage_F
p486
a(lp487
V0.03075
p488
aV0.02579
p489
aV0.03577
p490
aaasVROUGE-1
p491
(lp492
(lp493
VAverage_R
p494
a(lp495
V0.37942
p496
aV0.36897
p497
aV0.38960
p498
aaa(lp499
VAverage_P
p500
a(lp501
V0.38497
p502
aV0.37322
p503
aV0.39556
p504
aaa(lp505
VAverage_F
p506
a(lp507
V0.38177
p508
aV0.37051
p509
aV0.39215
p510
aaassV96
p511
(dp512
VROUGE-L
p513
(lp514
(lp515
VAverage_R
p516
a(lp517
V0.34148
p518
aV0.33122
p519
aV0.35117
p520
aaa(lp521
VAverage_P
p522
a(lp523
V0.34679
p524
aV0.33579
p525
aV0.35687
p526
aaa(lp527
VAverage_F
p528
a(lp529
V0.34376
p530
aV0.33333
p531
aV0.35371
p532
aaasVROUGE-4
p533
(lp534
(lp535
VAverage_R
p536
a(lp537
V0.01517
p538
aV0.01199
p539
aV0.01873
p540
aaa(lp541
VAverage_P
p542
a(lp543
V0.01550
p544
aV0.01226
p545
aV0.01912
p546
aaa(lp547
VAverage_F
p548
a(lp549
V0.01532
p550
aV0.01212
p551
aV0.01889
p552
aaasVROUGE-2
p553
(lp554
(lp555
VAverage_R
p556
a(lp557
V0.09070
p558
aV0.08358
p559
aV0.09815
p560
aaa(lp561
VAverage_P
p562
a(lp563
V0.09229
p564
aV0.08491
p565
aV0.09988
p566
aaa(lp567
VAverage_F
p568
a(lp569
V0.09142
p570
aV0.08410
p571
aV0.09895
p572
aaasVROUGE-3
p573
(lp574
(lp575
VAverage_R
p576
a(lp577
V0.03120
p578
aV0.02662
p579
aV0.03622
p580
aaa(lp581
VAverage_P
p582
a(lp583
V0.03185
p584
aV0.02721
p585
aV0.03694
p586
aaa(lp587
VAverage_F
p588
a(lp589
V0.03151
p590
aV0.02692
p591
aV0.03654
p592
aaasVROUGE-1
p593
(lp594
(lp595
VAverage_R
p596
a(lp597
V0.37939
p598
aV0.36876
p599
aV0.38961
p600
aaa(lp601
VAverage_P
p602
a(lp603
V0.38512
p604
aV0.37366
p605
aV0.39570
p606
aaa(lp607
VAverage_F
p608
a(lp609
V0.38182
p610
aV0.37107
p611
aV0.39208
p612
aaass.