(lp0
VWe create alignments by classifying each LDA topic by language using the KL-divergence between the topic u'\u005cu2019' s words distribution and a word distribution for the English/foreign language inferred from the monolingual documents
p1
aVA good candidate for multi-lingual topic analyses are polylingual topic models [] , which learn topics for multiple languages, creating tuples of language specific distributions over monolingual vocabularies for each topic
p2
aVFor each topic, a language specific word distribution
p3
a.