(lp0
VThe first two goals are achieved by incorporating new hidden variables in the traditional polylingual topic model
p1
aVPolylingual topic models enable cross language analysis by grouping documents by topic regardless of language
p2
aVWhile our goal is to learn polylingual topics, we cannot compare to previous polylingual models since they require comparable data, which we lack
p3
aVTopic models [] have become standard tools for analyzing document collections, and topic analyses are quite common
p4
a.