(lp0
VTo train a polylingual topic model on social media, we make two modifications to the model of add a token specific language variable, and a process for identifying aligned topics
p1
aVIn this case, a polylingual topic model, which necessarily infers a topic-specific word distribution for each topic in each language, would learn two unrelated word distributions in two languages for a single topic
p2
aVWe learn from code-switched social media by extending the
p3
a.