(lp0
VIn the third section, we describe experiments regarding the detection of machine translation and in the fourth section we discuss the use of detection techniques as a machine translation quality estimation method
p1
aVWe first use 3000 reference sentences from the WMT13 u'\u005cu2019' English reference translations, against the matching 3000 output sentences from one MT system at a time, resulting in 6000 sentence instances per experiment
p2
aVFor data, we use 20,000 random, non reference sentences
p3
a.