(lp0
VThese approaches try to model the interdependence between the different candidate entities for different NE mentions in the query document, and reformulate the problem of NED as a global optimization problem whose aim is to find the best set of entities
p1
aVThe cosine similarity between the sentence containing the NE mention in the query document and the textual description of the candidate NE in the KB (we use the first section of the Wikipedia article as the candidate entity description
p2
aVCoherence is represented as an edge between nodes in the solution graph
p3
aVThis function considers all terms found in the candidate entity KB entry title, but not in the textual mention as disambiguation terms
p4
aVOur approach first ranks all nodes in the
p5
a.