(lp0
VUsing this smaller high-precision set of attribute terms, we collected tweets from the Twitter Firehose over the period 2011-2013
p1
aVFrom the remaining attribute terms, we identified users with tweets scoring 4.0 or better as positive examples of the associated roles
p2
aVWe identify typical attributes of a given social role by collecting terms in the Google n-gram corpus that occur frequently in a possessive construction with that role
p3
aVThese tweets served as representative content for that role, with any tweet matching the self-reporting patterns filtered
p4
aVBergsma and Van Durme ( 2013 ) showed that the task of mining attributes for conceptual classes can relate straightforwardly to author attribute prediction
p5
aVTo identify users of a particular role, we performed a case-agnostic search of variants of a single pattern
p6
aVFirst, we counted all terms matching a target social role u'\u005cu2019' s possessive pattern (e.g.,, doctor u'\u005cu2019' s ) in the web-scale n-gram corpus Google V2 [ 13 ] 5 5 In
p7
a.