(lp0
V1) u'\u005cu201c' basic u'\u005cu201d' features include feature productions read off from the feature graph (Figure 1 ); 2) u'\u005cu201c' + word overlap u'\u005cu201d' adds additional features on whether sub-relations have overlap with the question; and 3) u'\u005cu201c' + CluewebMapping u'\u005cu201d' adds the ranking of relation prediction given the question according to CluewebMapping
p1
aVWe define answer node as the node that is the answer and answer relation as the relation from the answer node to its direct parent
p2
aVWe instead attack the problem of QA from a KB from an IE perspective we learn directly the pattern of QA pairs, represented by the dependency parse of questions and the Freebase structure of answer candidates, without the use of intermediate, general purpose meaning representations
p3
aVTable 4 shows that the additional CluewebMapping features improved overall F 1 by 5 u'\u005cu2062' % , a 13 u'\u005cu2062' % relative improvement a remarkable gain
p4
a.