(lp0
VBut if the IBM mention co-occurs with a Thomas Watson, Jr mention in the document, there will probably be more links between the International Business Machine and Thomas Watson, Jr related Wikipedia pages than between the International Brotherhood of Magicians and Thomas Watson, Jr related Wikipedia pages
p1
aVSimilarly, dsr_score(URI 2 1 ) is equal to the number of times the International Business Machines Corporation is cited in the Thomas Watson, Jr page csr_score(URI 1 1 ) sums up the number of common URIs and categories between S 1 1 and S 2 1 , i.e., the number of URIs and categories appearing in both International Brotherhood of Magicians and Thomas
p2
a.