(lp0
VWe evaluate the annotations in several ways a) by testing their accuracy with respect to a gold standard, (b) by evaluating the performance of POS models trained on the annotations across several existing data sets, as well as (c) by applying our models in downstream tasks
p1
aVIn order to evaluate how much each aggregation scheme influences tagging performance of the resulting model, we train separate models on each scheme u'\u005cu2019' s annotations and test on the same four data sets
p2
aVIn this paper, we investigate how well lay annotators can produce POS labels for Twitter data
p3
aVWe use the models to annotate the training data portion of each task with
p4
a.