(lp0
VTKT includes RPG game elements commonly found in game series such as Diablo and the Legend of Zelda players begin with a specific character class that has class-specific skills, such as Warrior or Thief, but will unlock the ability to play as other classes by successfully completing the towers
p1
aVBy constructing N c directly from the knowledge base, play actions may be validated based on recognition of true negatives, removing the heavy burden for ever manually creating a gold standard test set
p2
aVFirst, Herda u'\u005cu011e' delen and Baroni ( 2012 ) validate automatically acquired common sense relations using a slot machine game where players must identify valid relations and arguments from randomly aligned data within a time limit
p3
aVNotably, all of these linguistic games focus on users interacting with text, in contrast to other highly successful games with a purpose in other domains, such as Foldit [ 7 ] , in which players fold protein sequences, and the ESP game [ 41 ] , where players label images with words
p4
aVFirst, both games intentionally uniformly sample between V and N to increase player engagement, 4 4 Earlier versions that used mostly items from V proved less engaging due to players frequently performing the same action, e.g.,, saving most humans or collecting most pictures which generates a larger number
p5
a.