(lp0
VTo select good turkers and to block spammers, we carried out a pilot study on a small portion of manually confirmed corresponding and non-corresponding pairs, and required turkers to pass a qualification test
p1
aVWe therefore define an edit-turn-pair as corresponding, if i) The turn is an explicit suggestion, recommendation or request and the edit performs this suggestion, recommendation or request, ii) the turn is an explicit reference or pointer and the edit adds or modifies this reference or pointer, iii) the turn is a commitment to an action in the future and the edit performs this action, and iv) the turn is a report of a performed action and the edit performs this action
p2
aVRoughly five hours after that turn was issued on the discussion page, user Sbharris added a wikilink to the u'\u005cu201c' History and etymology u'\u005cu201d' section of the article by performing the following edit
p3
aVWikipedia, as one of the most prominent collaboratively created resources, offers its users a platform to coordinate their writing, the so
p4
a.