(lp0
VInspired by [ 36 ] and [ 14 ] , we adopt the graph model for Chinese spell checking for pinyin segmentation and typo correction, which is based on the shortest path word segmentation algorithm [ 1 ]
p1
aVCorresponding Chinese words are fetched from a PTC dictionary u'\u005cud835' u'\u005cudd3b' c , which is a dictionary maps pinyin words to Chinese words, and added as vertices
p2
aVA Chinese word may contain from 1 to over 10 characters due to different word segmentation conventions
p3
aVHowever, using pinyin words instead of syllables is not a wise choice because pinyin word segmentation
p4
a.