(lp0
VThe F-s score roughly corresponds to the evalb score
p1
aVTherefore our analysis results in an attachment score for every regex
p2
aVTable 2 lists the most frequent categories in the three datasets, with their percentage of the overall number of brackets (%gold), their score based just on the head identification (F-h), their score based on head identification and (left and right) span (F-s), and the attachment (att) and span-right (spanR) scores for those that match based on the head
p3
a.