(lp0
VWhile Arase and Zhou [] considered MT detection at sentence level, as we do in this paper, they did not study the correlation between the translation quality of the machine translated text and the ability to detect it
p1
aVWhile applying the same classification method as with the reference sentences, the detection accuracy rises, while the correlation with the translation quality yields R 2 = 0.556 , as can be seen in Figure 4
p2
aVAs
p3
a.