(lp0
Vu'\u005cud835' u'\u005cudc31' i , u'\u005cu0391' or u'\u005cud835' u'\u005cudc31' i , u'\u005cu0392' if one feature is unchanged and the other one is chosen as the noise feature, which happens with probability p u'\u005cu2062' ( 1 - p ) u'\u005cu2062' q u'\u005cu0392' or p u'\u005cu2062' ( 1 - p ) u'\u005cu2062' q u'\u005cu0391'
p1
aV1 if both features are chosen as noise features, which happens with probability p 2 u'\u005cu2062' q u'\u005cu0391' u'\u005cu2062' q u'\u005cu0392'
p2
aVWith probability ( 1 - p ) , the original features are preserved, and we add the outer-product u'\u005cud835' u'\u005cudc31' i u'\u005cu2062' u'\u005cud835' u'\u005cudc31' i u'\u005cu22a4' ; with probability p , we add the outer-product u'\u005cud835' u'\u005cudc31' i u'\u005cu2062' q u'\u005cu22a4'
p3
aVFor E u'\u005cu2062' [ u'\u005cud835'
p4
a.