(lp0
VThe validation section consists of the four files beginning with u'\u005cu201c' a u'\u005cu201d' or u'\u005cu201c' v u'\u005cu201d' (spanning the years 1711-1860), the development section consists of the four files beginning with u'\u005cu201c' l u'\u005cu201d' (1753-1866), the test section consists of the five files beginning with u'\u005cu201c' f u'\u005cu201d' (1749-1900), and the training section consists of the remaining 81 files (1712-1913
p1
aVThe major difference in the clausal structure as compared to the PTB is the absence of a VP level 6 6 This is due to the changing headedness of VP in the overall series of English historical corpora yielding flatter trees than in the PTB
p2
aVAs mentioned earlier, the PPCMBE u'\u005cu2019' s relatively large POS tag set aims to maximize annotation consistency across the entire time period covered by the historical corpora, beginning with Middle English
p3
aVIt might be thought that the parser is having trouble with the flat-IP annotation style, but the parser posits incorrect structures that are
p4
a.