(lp0
VBut if the IBM mention co-occurs with a Thomas Watson, Jr mention in the document, there will probably be more links between the International Business Machine and Thomas Watson, Jr related Wikipedia pages than between the International Brotherhood of Magicians and Thomas Watson, Jr related Wikipedia pages
p1
aVDocuments are processed by an annotator capable of producing POS tags for each word, as well as spans, NE surface forms, NE labels and ranked candidate Wikipedia URIs for each candidate NE
p2
aVWe propose a mutual disambiguation algorithm that improves the accuracy of entity links in a document by using successive corrections applied to an annotation object representing this document
p3
aVFor example, if
p4
a.