(lp0
VInspired by [ 36 ] and [ 14 ] , we adopt the graph model for Chinese spell checking for pinyin segmentation and typo correction, which is based on the shortest path word segmentation algorithm [ 1 ]
p1
aVP ) of Chinese character sequence H given pinyin sequence P into a language model P ( w i w i - 1 ) and a typing model P ( p i w i
p2
aVThe joint graph model aims to find the global optimal for both PTC conversion and typo correction on the entire input pinyin sequence
p3
aVPTC conversion is
p4
a.