(lp0
VFollowing Plank and Moschitti [ Plank and Moschitti2013 ] , we assume that we only have labeled data in a single source domain but no labeled as well as unlabeled target data
p1
aVTherefore, following the settings of Plank and Moschitti [ Plank and Moschitti2013 ] , we will only assume entity boundaries and not rely on the gold standard information in the experiments
p2
aVUnfortunately, these methods require unlabeled target domain data which are unavailable in our
p3
a.