(lp0
VOur proposed model requires two parameters to be set the context window size when connecting neighbouring words in the graph and the number of the search results considered when constructing the graph
p1
aVThe main reason is that news topics are more fine grained and the candidate labels of better quality [ 14 ] which has direct impact in good performance of ranking methods
p2
aVThe data set consists of 228 topics generated using text documents from four domains, i.e., blog posts ( BLOGS ), books ( BOOKS ), news articles ( NEWS ) and scientific articles from the biomedical domain ( PUBMED
p3
aVThe
p4
a.