(lp0
VNodes are represented as ordered pairs of textual mentions and candidate entities, since the same entity may be found multiple times as a candidate for different textual mentions and each occurrence must be evaluated independently
p1
aVThe cosine similarity between the sentence containing the NE mention in the query document and the textual description of the candidate NE in the KB (we use the first section of the Wikipedia article as the candidate entity description
p2
aVThis function considers all terms found in the candidate entity KB entry title, but not in the textual mention as disambiguation terms
p3
aVInitial confidence is used as an initial rank for the graph nodes, while entities u'\u005cu2019' coherence measures are used as link weights which play a role
p4
a.