(lp0
V{algorithm} \u005cKwData noisy data D ^ \u005cKwResult cleaned data D , classifier C Initialize training set T = D ^ u'\u005cu2004' Initialize re-annotated data sets S r = u'\u005cu2205' ; S = u'\u005cu2205' u'\u005cu2004' \u005cRepeat for I iterations Train classifier C using T u'\u005cu2004' Use C to select a set S of m suspected mislabeled instances from T u'\u005cu2004' Experts re-annotate the instances in S - ( S r u'\u005cu2229' S ) u'\u005cu2004' Update T with the new labels in S u'\u005cu2004' S r = S r u'\u005cu222a' S ; S = u'\u005cu2205' u'\u005cu2004' D = T u'\u005cu2004' Active Learning Approach for Label Correction
p1
aVWhile these feature weighting models can be used to score and rank instances for data cleaning, better classification and regression models can be built by using the feature weights generated by these models as a pre-weight on the data points for other machine learning algorithms
p2
aVSpecifically, we propose a novel non-linear distribution spreading algorithm, which first uses Delta IDF technique [ 11
p3
a.