(lp0
VAfter translating the sentences, we take 20,000 sentences from each engine output and conduct the detection experiment by labeling those sentences as MT sentences, and another 20,000 sentences, which are the human reference translations, labeled as reference sentences
p1
aVWe first use 3000 reference sentences from the WMT13 u'\u005cu2019' English reference translations, against the matching 3000 output sentences from one MT system at a time, resulting in 6000 sentence instances per experiment
p2
aVFor data, we
p3
a.