(lp0
Vagainst a synthetic dataset, whereby we injected bilingual dictionaries into a collection of web documents, and evaluated the ability of the method to return multilingual dictionaries for individual languages; in this, we naively assume that all web documents in the background collection are not multilingual dictionaries, and as such, the results are potentially an underestimate of the true retrieval effectiveness
p1
aVThe results in Table 4 are based on manual evaluation of all documents returned for the first 50 queries, and determination of whether they were multilingual dictionaries containing the indicated languages
p2
aVWhile all of these lines
p3
a.