(lp0
VMore formally, we denote the connotation graph G Word+Sense by G = ( V , E ) , in which a total of n word and synset nodes V = { v 1 , u'\u005cu2026' , v n } are connected with typed edges e u'\u005cu2062' ( v i , v j , t ) u'\u005cu2208' E , where edge types t u'\u005cu2208' { p r e d - a u'\u005cu2062' r u'\u005cu2062' g , a u'\u005cu2062' r u'\u005cu2062' g - a u'\u005cu2062' r u'\u005cu2062' g , s u'\u005cu2062' y u'\u005cu2062' n - a u'\u005cu2062' r u'\u005cu2062' g , s u'\u005cu2062' y u'\u005cu2062' n - s y n } depict the four edge types as described in Section 2
p1
aVIn what follows, we will first describe the network of words and senses (Section 2 ), then introduce the representation of the network structure as
p2
a.