(lp0
VFor the test data , we randomly sampled 23,650 examples of u'\u005cu27e8' event causality candidate, original sentence u'\u005cu27e9' among which 3,645 were positive from 2,451,254 event causality candidates extracted from our web corpus (Section 3.1
p1
aVWe applied our event causality extraction method to 2,451,254 candidates (Section 3.1 ) and culled the top 1,200,000 phrase pairs from them (See Section LABEL:A-sec:examples-of-event-causality in the supplementary notes for examples
p2
aVHowever, as described in Section 1 , our event causality criteria are different; since they regarded phrase pairs that were not self-contained as event causality (their annotators checked the original sentences of phrase pairs to see if they were event causality), their judgments tended to be more lenient than ours, which explains the performance difference
p3
aVNote that some
p4
a.