(lp0
VMotivated by the problem of measuring how well the distribution of one word w 1 captures the distribution of another w 2 , Weeds and Weir [ 21 ] also explore asymmetric models, expressing similarity calculations as weighted combinations of several variants of what they call precision and recall
p1
aVAll the systems show degraded nearest neighbor quality as target words grow rare, but at lower ranks, the u'\u005cu0391' = .04 nearest neighbor system fares considerably better than the symmetric u'\u005cu0391' = .50 system; the line across
p2
a.