(lp0
V1) A fierce cyclone packing extreme winds and torrential rain smashed into Bangladesh u'\u005cu2019' s southwestern coast Thursday, wiping out homes and trees in what officials described as the worst storm in years
p1
aVu'\u005cu211d' 2) A top Army general vowed to personally oversee the upgrading of Walter Reed Army Medical Center u'\u005cu2019' s Building 18, a dilapidated former hotel that houses wounded soldiers as outpatients
p2
aVThe timelines built in the earlier temporal processing can be incorporated into this pipeline by deriving a set of features used to score sentences in Sentence Scoring , and as input to the MMR algorithm when computing similarity in Sentence Re-ordering
p3
aVSWING is a supervised, extractive summarization system which ranks sentences based on scores computed using a set of features in the Sentence Scoring phase
p4
aVIn this case time span importance is able to correctly guide summary generation by favoring time spans containing events related to the actual toppling
p5
aVRecall that TimeMMR seeks to eliminate redundancy based on time span similarities and not lexical likeness
p6
aVIn this work, we have simplified this idea by dropping the need for event co-referencing (removing a source of propagated error), and augmented it with two additional features derived from timelines
p7
aVGeneralizing, we refer to the time period an event takes place in as its time span (vertical dotted lines
p8
aV1) An official in Barisal, 120 kilometres south
p9
a.