(lp0
VTo predict whether two basic-edits address the same writing problem more discriminatively, we train a Maximum Entropy binary classifier based on features extracted from relevant contexts for the basic edits
p1
aVAlso, as suggested by the experimental result, among the four corpora, FCE corpus is a comparably good resource for training correction detection models with our current feature set
p2
aVComputer aided language learning tools offer a solution for providing more detailed feedback
p3
aVWe considered four corpora with different ESL populations and annotation standards, including FCE corpus [ 17 ] , NUCLE corpus [ 2 ] , UIUC
p4
a.