(lp0
VSince identifying political bias is a relatively difficult and subjective task, we include all sentences where at least two workers agree on a label for the root node in our final dataset, except when that label is u'\u005cu201c' Not neutral, but I u'\u005cu2019' m unsure of which direction u'\u005cu201d'
p1
aVWe say a sentence contains ideological bias if its author u'\u005cu2019' s political position (here liberal or conservative , in the sense of U.S politics) is evident from the text
p2
aVFirst, Convote has twice as many sentences as ibc , and the extra training data might help the model more than ibc u'\u005cu2019' s better-quality labels
p3
aVThere are over a million sentences in the ibc
p4
a.