(lp0
VIf a word undergoes sense change, this can be detected by comparing the sense clusters obtained from two different time periods by the algorithm outlined above
p1
aVIf a word undergoes a sense change, this can be detected by comparing its senses obtained from two different time periods
p2
aVk = m + 1 , 1 u'\u005cu2264' l u'\u005cu2264' n denotes the fraction of words in the sense cluster s j u'\u005cu2062' l , that were not present in any of the m clusters in t u'\u005cu2062' v i
p3
aVTable 1 gives a lot of candidate words for sense change
p4
aV1 u'\u005cu2264' k u'\u005cu2264' m , l = n + 1 denotes the fraction of words in the sense cluster s i u'\u005cu2062' k , that did not show up in any of the n clusters in t u'\u005cu2062' v j
p5
aVLet C i = { s i u'\u005cu2062' 1 , s i u'\u005cu2062' 2 , u'\u005cu2026' , s i u'\u005cu2062' m } and C j = { s j u'\u005cu2062' 1 , s j u'\u005cu2062' 2 , u'\u005cu2026' , s j u'\u005cu2062' n } , where s k u'\u005cu2062' z denotes z t u'\u005cu2062' h sense cluster for word w during time interval t u'\u005cu2062' v k
p6
aVColumns correspond to the candidate words, words obtained in the cluster of each candidate word (we will use the term u'\u005cu2018' birth cluster u'\u005cu2019' for these words, henceforth), which indicated a new sense, the results of manual evaluation as well as the possible sense this birth cluster denotes
p7
aVWe did this evaluation for the candidate birth, join and split sense clusters obtained by comparing 1909-1953 time period with respect to 2002-2005
p8
aVWe hypothesize that word w can undergo sense change from one time interval ( t u'\u005cu2062' v i ) to another ( t u'\u005cu2062' v j ) as per one of the following scenarios
p9
aVA sense cluster s i u'\u005cu2062' z in t u'\u005cu2062' v i splits into two (or more) sense clusters, s j u'\u005cu2062' p 1 and s j u'\u005cu2062' p 2 in t u'\u005cu2062' v j
p10
aVFormally, we consider a sense change from t u'\u005cu2062' v i to t u'\u005cu2062' v j stable if it was also detected while comparing t u'\u005cu2062' v i with the following time periods t u'\u005cu2062' v k s
p11
aVSimilarly, for a candidate sense change from t u'\u005cu2062' v i to t u'\u005cu2062' v j
p12
a.