(lp0
VEach sentence S i , after being segmented into EDUs (not shown in the figure), goes through an intra-sentential bottom-up tree-building model M i u'\u005cu2062' n u'\u005cu2062' t u'\u005cu2062' r u'\u005cu2062' a , to form a sentence-level discourse tree T S i , with the EDUs as leaf nodes
p1
aVBy including a constant number k of discourse units in each chain, and considering a constant number l of such chains for computing each adjacent pair of discourse constituents ( k = 4 for M m u'\u005cu2062' u u'\u005cu2062' l u'\u005cu2062' t u'\u005cu2062' i s u'\u005cu2062' t u'\u005cu2062' r u'\u005cu2062' u u'\u005cu2062' c u'\u005cu2062' t and k = 3 for M m u'\u005cu2062' u u'\u005cu2062' l u'\u005cu2062' t u'\u005cu2062' i r u'\u005cu2062' e u'\u005cu2062' l ; l = 3 ), we have an overall time complexity of O u'\u005cu2062' ( n
p2
aVIf modifications have been proposed in the previous step, we build a new tree T p using P s u'\u005cu2062' t u'\u005cu2062' r u'\u005cu2062' u u'\u005cu2062' c u'\u005cu2062' t as the structure model, and P r u'\u005cu2062' e u'\u005cu2062' l as the relation model, from the constituents on which modifications are proposed
p3
aVStarting from the EDUs on the bottom level, we need to perform inference for one chain on each level during the bottom-up tree-building, and thus the total time complexity is u'\u005cu03a3' i = 1 m k u'\u005cu2062' O u'\u005cu2062' ( m k - i )
p4
a.