(lp0
VCompared to our final Convote dataset, an even larger percentage of the ibc sentences exhibit no noticeable political bias
p1
aVOur final balanced ibc dataset consists of 3,412 sentences (4,062 before balancing and removing neutral sentences) with a total of 13,640 annotated nodes
p2
aVWe had workers annotate 7,000 randomly selected paths from the filtered ibc dataset, with half of the paths coming from conservative authors and the other half from liberal authors, as annotated by Gross et al
p3
aVSince identifying political bias is a relatively difficult and subjective task, we include all sentences where at least two workers agree on a label for the root node in our final dataset, except when that label is
p4
a.