(lp0
VWe would like to thank Jey Han Lau for providing us with the labels selected by Lau et al
p1
aVThe results obtained by applying PageRank over the unweighted graph (2.05, 1.98, 2.04 and 1.88) are consistently better than the supervised and unsupervised methods reported by Lau et al
p2
aV2009 ) introduced an approach for labelling topics that relied on two hierarchical knowledge resources labelled by humans, while Lau et al
p3
aVA set of candidate labels is generated from Wikipedia article titles by querying using topic terms
p4
aVThe 10 terms with the highest marginal probabilities in the topic are used to query Wikipedia
p5
a.