(lp0
VAfter translating the sentences, we take 20,000 sentences from each engine output and conduct the detection experiment by labeling those sentences as MT sentences, and another 20,000 sentences, which are the human reference translations, labeled as reference sentences
p1
aVFor data, we use 20,000 random, non reference sentences from the Hansard corpus, against 20,000 sentences from one MT system per experiment, again resulting in 40,000 sentence instances per experiment
p2
aVUsing simple linear regression, we also
p3
a.