(lp0
VFor each verb phrase, we create a composite vector by matrix-multiplying the verb matrix with the vector of the specific object
p1
aVThe union of all object sets is used for training a single unambiguous tensor for the verb
p2
aVIn order to create a matrix for, say, the intransitive verb u'\u005cu2018' play u'\u005cu2019' , we first collect all instances of the verb occurring with some subject in the training corpus, and then we create non-compositional holistic vectors for these elementary sentences following exactly the same methodology as if they were words
p3
aVThe next step is to classify every noun that has been used as
p4
a.