(lp0
VOur composite kernel consists of two different kernels a history sequence kernel and a domain context tree kernel
p1
aVAfter computing this relatedness between the current dialog context and every paragraph in the Wikipedia collection, two kernel structures are constructed using the information obtained from the highly-ranked paragraphs in the Wikipedia
p2
aVBoth represent the current dialog context at a given turn with a set of relevant Wikipedia paragraphs which are selected based on the cosine similarity between the term vectors of the recently mentioned utterances and each paragraph in the Wikipedia collection as
p3
a.