(lp0
VPrior work on the Tycho Brahe corpus applied supervised learning to a random split of test and training data [ 17 , 7 ] ; they did not consider the domain adaptation problem of training on recent data and testing on older historical text
p1
aV1) feature scrambling , which randomly chooses a feature template and randomly selects an alternative value within the template, and (2) structured dropout , which randomly eliminates all but a single feature template
p2
aVWe can exploit this structure by using an alternative dropout scheme for each token, choose exactly one feature template to keep, and zero out all other features that consider this token (transition feature templates such as u'\u005cu27e8' y t , y
p3
a.