(lp0
Vwhere ( n w i l , z ) - i is the number of times the type for word w i assigned to topic z and language l (excluding current word w i ), m - i z , d is the number of tokens assigned to topic z in document d (excluding current word w i ), o - i l , d is the number of tokens assigned to
p1
a.