(lp0
VSun et al
p1
aVWe apply the same feature set as Sun et al
p2
aVWhile Sun et al
p3
aVThe application of word representations such as word clusters in domain adaptation of RE [ Plank and Moschitti2013 ] is motivated by its successes in semi-supervised methods [ Chan and Roth2010 , Sun et al.2011 ] where word representations help to reduce data-sparseness of lexical information in the training data
p4
aVRegarding domain adaptation, in representation learning, Blitzer et al
p5
a.