(lp0
VThe binary result is based on a DCNN that has a wide convolutional layer followed by a folding layer, a dynamic k -max pooling layer and a non-linearity; it has a second wide convolutional layer followed by a folding layer, a k -max pooling layer and a non-linearity
p1
aVFor instance, in a network with three convolutional layers and k t u'\u005cu2062' o u'\u005cu2062' p = 3 , for an input sentence of length s = 18 , the pooling parameter at the first layer is k 1 = 12 and the pooling parameter at the second layer is k 2 = 6 ; the third layer has the fixed pooling parameter k 3 = k t u'\u005cu2062' o u'\u005cu2062' p = 3
p2
aVwhere l is the number of the current convolutional layer
p3
a.