(lp0
VWe experimentally tested alternative feature sets by building supervised Maximum Entropy (MaxEnt) models using the hand-labeled data (Table 3 ), and selected an effective combination of three features from the full feature set used by Surdeanu et al., []
p1
aVOn top of that, researchers further improved performance by explicitly adding preprocessing steps [] or additional layers inside the model [] to reduce the effect of training noise
p2
aVThe official KBP evaluation is performed by pooling the system responses and manually reviewing each response, producing a hand-checked assessment data
p3
aVThis dataset is generated by mapping Wikipedia infoboxes into a large unlabeled corpus that consists of 1.5M documents from KBP source corpus and a
p4
a.