(lp0
VThe proposed BLANC is applied to the CoNLL 2011 and 2012 shared task participants, and the scores and its correlations with existing metrics are shown in Section 5
p1
aVWhen T k = T r , Rand Index can be applied directly since coreference resolution reduces to a clustering problem where mentions are partitioned into clusters (entities
p2
aVHowever, the CoNLL data sets come from OntoNotes [ 2 ] , where singleton entities are not annotated, and BLANC has a wider dynamic range on data sets with singletons [ 7 ]
p3
aVFigure 1 shows how the proposed BLANC measure works when compared with existing
p4
a.