(lp0
VPrivacy policy documents are verbose, often esoteric legal documents that many people encounter as clients of companies that provide services on the web
p1
aVDeveloping a gold-standard alignment of privacy policies would either require an interface that allows each annotator to interact with the entire corpus of previously aligned documents while reading the one she is annotating, or the definition (and likely iterative refinement) of a set of categories for manually labeling policy sections
p2
aVMcDonald and Cranor ( 2008 ) showed that, if users were to read the privacy policies of every website they access
p3
a.