(lp0
VThe results of Table 3 confirm this using just the holistic vectors of the corresponding verb phrases (no composition is involved here) returns the best correlation with human annotations (0.403), providing a proof that the holistic vectors of the verb phrases are indeed reliable representations of each verb phrase u'\u005cu2019' s meaning
p1
aVFor the disambiguated version, we first detect the most probable sense of the verb given the noun, again by comparing the vector of the noun with the centroids of the verb clusters; then, we matrix-multiply the corresponding unambiguous tensor created exclusively from objects that have been classified as closer to this
p2
a.