(lp0
VIWSLT04 is used as development set in MaxForce training, and as tuning set for n -best Mert , Hypergraph Mert , and Pro
p1
aVThe max-violation method is more than 15 Bleu points better than the standard perceptron (also known as u'\u005cu201c' bold-update u'\u005cu201d' in \u005cnewcite liang+:2006) which updates at the root of the derivation tree
p2
aVSo we run a binary search for the length penalty weight after each training iteration to tune the length ratio to u'\u005cu223c' 0.97 on dev set
p3
aVNIST06 newswire is used as development set for MaxForce training, and as tuning set for all other tuning methods
p4
a.