(lp0
VAccordingly, we generated a scenario deforestation continues u'\u005cu2192' global warming worsens u'\u005cu2192' sea temperatures rise u'\u005cu2192' vibrio parahaemolyticus fouls (water) , which is written in no document in our input web corpus that was crawled in 2007, but the vibrio risk due to global warming has actually been observed in the Baltic sea and reported in Baker-Austin et al
p1
aVTo increase the number of acceptable scenarios, our method identifies compatibility w.r.t causality between two phrases by a recently proposed semantic polarity, excitation [ 12 ] , which properly relaxes the chaining condition (Section 3.1 describes it
p2
aVWe restricted the argument positions (represented by Japanese postpositions) of the A slot to either ha (topic marker), ga (nominative), or de (instrumental) and those of the B
p3
a.