(lp0
Vu'\u005cud835' u'\u005cudc31' i , u'\u005cu0391' or u'\u005cud835' u'\u005cudc31' i , u'\u005cu0392' if one feature is unchanged and the other one is chosen as the noise feature, which happens with probability p u'\u005cu2062' ( 1 - p ) u'\u005cu2062' q u'\u005cu0392' or p u'\u005cu2062' ( 1 - p ) u'\u005cu2062' q u'\u005cu0391'
p1
aVu'\u005cud835' u'\u005cudc31' i , u'\u005cu0391' u'\u005cu2062' u'\u005cud835' u'\u005cudc31' i , u'\u005cu0392' if both features are unchanged, which happens with probability ( 1 - p ) 2
p2
aV1 if both features are chosen as noise features, which happens with probability p 2 u'\u005cu2062' q u'\u005cu0391' u'\u005cu2062' q u'\u005cu0392'
p3
aVwhere E u'\u005cu2062' [ u'\u005cud835' u'\u005cudc0f' ] = u'\u005cu2211' i = 1 n E u'\u005cu2062' [ u'\u005cud835' u'\u005cudc31' i u'\u005cu2062'
p4
a.