(lp0
VAll the systems show degraded nearest neighbor quality as target words grow rare, but at lower ranks, the u'\u005cu0391' = .04 nearest neighbor system fares considerably better than the symmetric u'\u005cu0391' = .50 system; the line across the bottom tracks the score of a system with randomly generated nearest neighbors
p1
aVGoldstone [ 8 ] summarizes the results succinctly u'\u005cu201c' Asymmetrical similarity occurs when an object with many features is judged as less similar to a sparser object than vice versa; for example, North Korea is judged
p2
a.