(lp0
VFor example, a topic which has keywords school, student, university, college, teacher, class, education, learn, high, program , could be labelled as Education and a suitable label for the topic shown above would be Global Financial Crisis
p1
aVIn addition, performance improvement gained from using the weighted graph is modest, suggesting that the computation of association scores over a large reference corpus could be omitted if resources are limited
p2
aVAn interesting finding is that, although limited in length, the textual information in the search result u'\u005cu2019' s metadata contain enough salient terms relevant to the topic to provide reliable estimates of term importance
p3
a.