(lp0
V1) the ontology used to evaluate the relatedness of candidates is replaced by internal links and categories from the Wikipedia corpus; 2) the coherence of entities is improved prior to the calculation of semantic relatedness using a co-reference resolution algorithm, and a NE label correction method; 3) the proposed method is robust enough to improve the performance of existing entity linking annotation engines, which are capable of providing a set of ranked candidates for each annotation in a document
p1
aVThis is usually done using similarity measures (such as cosine similarity, weighted Jaccard distance, KL divergence u'\u005cu2026' ) that evaluate the distance between a bag of words related to a candidate
p2
a.