(lp0
V2 2 http://sinosphere.blogs.nytimes.com/2014/03/03/u-n-security-council-condemns-terrorist-attack-in-kunming/ In particular, regarding the statement by the US embassy that referred to this incident as the u'\u005cu201c' terrible and senseless act of violence in Kunming u'\u005cu201d' , a Weibo user posted u'\u005cu201c' If you say that the Kunming attack is a u'\u005cu2018' terrible and senseless act of violence u'\u005cu2019' , then the 9/11 attack can be called a u'\u005cu2018' regrettable traffic incident u'\u005cu201d' u'\u005cu2019'
p1
aVSince the strength and scope of an argument can be a crucial factor in its success, it is important to understand the effects of statement strength in communication
p2
aVTo create the pool of pairs for labeling, we randomly sampled 1000 pairs and then removed pairs that we thought were processing errors
p3
aVThe main contribution of this work is to provide the first large-scale
p4
a.