(lp0
VFor each website, we created a HIT in which a worker was asked to copy and paste the following privacy policy-related information into text boxes i) privacy policy URL; (ii) last updated date (or effective date) of the current privacy policy; (iii) privacy policy full text; and (iv) the section subtitles in the top-most layer of the privacy policy
p1
aVAlternatively, they could form a search query using the website name and u'\u005cu201c' privacy policy u'\u005cu201d' (e.g.,, u'\u005cu201c' Amazon.com privacy policy u'\u005cu201d' ) and search in the returned results for the most appropriate privacy policy
p2
a.