(lp0
VSince this constructed tree structure represents semantic, discourse, and structural information extracted from the similar Wikipedia paragraphs to each given instance, we can explore these more enriched features to build the topic tracking model using a subset tree kernel [ 5 ] which computes the similarity between each pair of trees in the feature space as follows
p1
aVTo demonstrate the effectiveness of our proposed kernel method for dialog topic tracking, we performed experiments on the Singapore tour guide dialogs which consists of 35 dialog sessions collected from real human-human mixed initiative conversations
p2
a.