(lp0
VThe only assumption on the method is that we have access to a selection of dictionaries D (mono- or multilingual) and a corpus of conventional (non-dictionary) documents C , and knowledge of the language(s) contained in each dictionary and document
p1
aVThe results in Table 4 are based on manual evaluation of all documents returned for the first 50 queries, and determination of whether they were multilingual dictionaries containing the indicated languages
p2
aVThe next step is to identify combinations of words that are likely to be found in multilingual dictionaries and not standard documents for a given
p3
a.