(lp0
VAlthough some fundamental features extracted from the utterances mentioned at a given turn or in a certain number of previous turns can be used for training the model, this information obtained solely from an ongoing dialog is not sufficient to identify not only user-initiative, but also system-initiative topic transitions
p1
aVBoth represent the current dialog context at a given turn with a set of relevant Wikipedia paragraphs which are selected based on the cosine similarity between the term vectors of the recently mentioned utterances and each paragraph in the Wikipedia collection as follows
p2
a.