(lp0
VTo predict whether two basic-edits address the same writing problem more discriminatively, we train a Maximum Entropy binary classifier based on features extracted from relevant contexts for the basic edits
p1
aVWe thank the anonymous reviewers for their suggestions; we also thank Homa Hashemi, Wencan Luo, Fan Zhang, Lingjia Deng, Wenting Xiong and Yafei Wei for helpful discussions
p2
aVAlso, as suggested by the experimental result, among the four corpora, FCE corpus is a comparably good resource for training correction detection models with our current feature set
p3
aVUnlike evaluating grammar error correction systems [ 3 ] , correction
p4
a.