(lp0
VGeneration patterns specify the text, verb forms and semantic arguments from the source sentence to form the question
p1
aVQuestion
p2
aVQuestion
p3
aVQuestion
p4
aVThen questions are generated and stored by question type in a question hash table
p5
aVSource sentence
p6
aVSource sentence
p7
aVSource sentence
p8
aVThe vast majority of systems generate questions by selecting one sentence at a time, extracting portions of the source sentence, then applying transformation rules or patterns in order to construct a question
p9
aV2013), which used semantic role labeling to identify patterns in the source text from which questions can be generated
p10
aV1) evaluation of our generated questions, (2) comparison of our generated questions with those from Heilman and Smith u'\u005cu2019' s question generator, and (3) comparison of our generated questions with those from Lindberg, Popowich, Nesbit and Winne
p11
aVThe pattern that generated Question 1 requires argument A1 (underlined in Table 2) and a causation ArgM (italicized
p12
aVThe patterns are designed to match only the arguments used as part of the question or the answer, in order to prevent over generation of questions
p13
aVAdditionally, patterns indicate the semantic arguments
p14
a.