(lp0
VWe create English, Pinyin training pairs from our phrasebook simply by pronouncing the Chinglish with FST D
p1
aVFor example, when we decode English u'\u005cu2018' u'\u005cu2018' grandmother u'\u005cu2019' u'\u005cu2019' , we get
p2
aVHere, we start with reference English and measure the accuracy of Pinyin syllable production, since the choice of Chinglish character does not affect the Chinglish pronunciation
p3
aVTo do this, we first take our phrasebook triples and construct sample string pairs Epron, Pinyin-split by pronouncing the phrasebook English with FST A, and by pronouncing the phrasebook Chinglish with FSTs D
p4
a.