(lp0
VIn particular, MUC measures the degree of agreement between key coreference links (i.e.,, links among mentions within entities) and response coreference links, while non-coreference links (i.e.,, links formed by mentions from different entities) are not explicitly taken into account
p1
aVFor example, R c is the ratio of the number of correct coreference links over the number of key coreference links; P c is the ratio of the number of correct coreference links over the number of response coreference links, and so on
p2
aVRand Index is defined as the ratio between the number of correct within-cluster links plus the number of correct cross-cluster
p3
a.