(lp0
VFor the disambiguated version, we first detect the most probable sense of the verb given the noun, again by comparing the vector of the noun with the centroids of the verb clusters; then, we matrix-multiply the corresponding unambiguous tensor created exclusively from objects that have been classified as closer to this specific sense of the verb with the noun
p1
aVHere, the model does not fully exploit the space provided by the theoretical framework (i.e., an order-3 tensor), which has two disadvantages firstly, we lose space that could hold valuable information about the verb in this case and relational words in general; secondly, the
p2
a.