(lp0
VSimply taking the union of the hand-labeled data and the corpus labeled by distant supervision is not effective since hand-labeled data will be swamped by a larger amount of distantly labeled data
p1
aVInstead we propose to perform feature selection to generalize human labeled data into training guidelines , and integrate them into latent variable model
p2
aVIn this paper, we present the first effective approach, u'\u005cud835' u'\u005cudc06' u'\u005cu2062' u'\u005cud835' u'\u005cuddce' u'\u005cud835' u'\u005cuddc2' u'\u005cud835' u'\u005cuddbd' u'\u005cud835' u'\u005cuddbe' u'\u005cud835' u'\u005cuddbd' u'\u005cu2062' u'\u005cud835' u'\u005cudda3' u'\u005cud835' u'\u005cuddb2' (distant supervision), to incorporate labeled data into distant supervision for extracting relations from sentences
p3
aV[] , we generalize the labeled data through feature selection and model this additional information directly
p4
a.