(lp0
VIn row 5, we see that the addition of both word cluster and word embedding features improves the system further and results in the best performance over all target domains (this is significant with confidence level u'\u005cu2265' 95% in domains bc and wl
p1
aVBesides, the baseline performance is improved over all target domains when the system is enriched with word cluster features of the 10 prefix length only (row 2
p2
aVHowever, in domain cts, the improvement
p3
a.