(lp0
VWe have annotated semantic roles by following the PropBank annotation guideline [ 3 ] and by using frame files of the Penn Korean PropBank built by Palmer et al
p1
aVKorean SRL research has been limited to domestically published Korean research on small corpora
p2
aVBesides these morphological features, we also employ latent continuous and discrete morpheme representations induced from a larger body of unannotated Korean text
p3
aVEver since Gildea and Jurafsky [ 9 ] , SRL has become an important technology used in applications requiring semantic interpretation, ranging from information extraction [ 8 ] and question answering [ 14 ] , to practical problems including textual entailment [ 4 ] and pictorial communication systems [
p4
a.