(lp0
VIn this paper, we present the first effective approach, u'\u005cud835' u'\u005cudc06' u'\u005cu2062' u'\u005cud835' u'\u005cuddce' u'\u005cud835' u'\u005cuddc2' u'\u005cud835' u'\u005cuddbd' u'\u005cud835' u'\u005cuddbe' u'\u005cud835' u'\u005cuddbd' u'\u005cu2062' u'\u005cud835' u'\u005cudda3' u'\u005cud835' u'\u005cuddb2' (distant supervision), to incorporate labeled data into distant supervision for extracting relations from sentences
p1
aVGiven a bag of sentences, u'\u005cud835' u'\u005cudc31' u'\u005cud835' u'\u005cudc22' , which mention an i th entity pair ( e 1 , e 2 ), our goal is to correctly predict which relation is mentioned in each sentence, or N u'\u005cu2062' R if none of the relations under consideration are mentioned
p2
aVu'\u005cud835' u'\u005cudc31' i u'\u005cu2062' j is the feature representation of the j th relation mention in the i th bag
p3
aVThe
p4
a.