(lp0
VWe learn from code-switched social media by extending the polylingual topic model framework to infer the language of each token and then automatically processing the learned topics to identify aligned topics
p1
aVTo train a polylingual topic model on social media, we make two modifications to the model of add a token specific language variable, and a process for identifying aligned topics
p2
aVPolylingual topic models enable cross language analysis by grouping documents by
p3
a.