(lp0
VWe reinforced words related to a topic with low frequencies by collecting documents from the corpus, and applied Latent Dirichlet Allocation (LDA) [ 4 ] to these documents in order to extract topic candidates
p1
aVAfter a sufficient number of sampling iterations, the approximated posterior can be used to estimate u'\u005cu03a6' and u'\u005cu0398' by examining the counts of word assignments to topics and topic occurrences in documents
p2
aVHe and Parket attempted to find bursts, periods of elevated occurrence of events as a dynamic phenomenon instead of focusing on arrival rates [ 11 ]
p3
aVIt shows the relationship between two moving averages of prices
p4
a.