(lp0
VTherefore, named entities mentioned in tweets are likely to appear in news articles as well
p1
aVNamed entities from tweets are extracted by looking up the dictionary through fuzzy matching
p2
aVNamed entity recognition (NER) is a crucial step since the results would directly impact the final extracted 4-tuple u'\u005cu27e8' y , d , l , k u'\u005cu27e9'
p3
aVApproaches to event extraction from Twitter make use of a graphical model to extract canonical entertainment events from tweets by aggregating information across multiple messages [ 1 ]
p4
aVIt is not easy to accurately identify named entities in the Twitter data since tweets contain a lot of misspellings and abbreviations
p5
aVHowever, it is often observed that events mentioned in tweets are also reported in news articles in the same period [ 10 ]
p6
aVWe propose an unsupervised latent variable model, called the Latent Event Model (LEM), to extract events from tweets
p7
aVAfter the pre-processing step, non-location entities y , locations l , dates d and candidate keywords of the tweets are collected as the input to the LEM model for
p8
a.