(lp0
VBecause our goal is to distinguish between liberal and conservative bias, instead of the more general task of classifying sentences as u'\u005cu201c' neutral u'\u005cu201d' or u'\u005cu201c' biased u'\u005cu201d' , we filter the dataset further using dualist [ 23 ] , an active learning tool, to reduce the proportion of neutral sentences in our dataset
p1
aVSince identifying political bias is a relatively difficult and subjective task, we include all sentences where at least two workers agree on a label for the root node in our final dataset, except when that label is u'\u005cu201c' Not neutral, but I u'\u005cu2019' m unsure of which direction u'\u005cu201d'
p2
aVThere are over a million sentences in the ibc , most
p3
a.