(lp0
VDocuments are processed by an annotator capable of producing POS tags for each word, as well as spans, NE surface forms, NE labels and ranked candidate Wikipedia URIs for each candidate NE
p1
aVSimilarly, dsr_score(URI 2 1 ) is equal to the number of times the International Business Machines Corporation is cited in the Thomas Watson, Jr page csr_score(URI 1 1 ) sums up the number of common URIs and categories between S 1 1 and S 2 1 , i.e., the number of URIs and categories appearing in both International Brotherhood of Magicians and Thomas Watson, Jr pages csr_score(URI 2 1 ) counts the number of URIs and categories appearing
p2
a.