(lp0
VDiffering from step (a), the method used for topic inference for microblogs is not directly running LDA estimation on microblog collection but following the topics from external knowledge to ensure topic consistence
p1
aVWith the above two distributions, we then add a number of words from news as additional information to microblogs by evaluating the relatedness of between each word and microblog, since words not appearing in the microblog may still be highly relevant
p2
aVCompared with our method, the topic model based methods mentioned above remain in finding latent space representation of short text and ignore that relevant words from external knowledge are informative as well
p3
aVThe word distribution of every microblog is based on topic analysis and its accuracy relies heavily on the
p4
a.