(lp0
VAfter computing this relatedness between the current dialog context and every paragraph in the Wikipedia collection, two kernel structures are constructed using the information obtained from the highly-ranked paragraphs in the Wikipedia
p1
aVBoth represent the current dialog context at a given turn with a set of relevant Wikipedia paragraphs which are selected based on the cosine similarity between the term vectors of the recently mentioned utterances and each paragraph in the Wikipedia collection as follows
p2
aVSince this constructed tree structure represents semantic, discourse, and structural information extracted from the similar Wikipedia paragraphs
p3
a.