(lp0
VThe cosine similarity between the sentence containing the NE mention in the query document and the textual description of the candidate NE in the KB (we use the first section of the Wikipedia article as the candidate entity description
p1
aVThis function considers all terms found in the candidate entity KB entry title, but not in the textual mention as disambiguation terms
p2
aVThese approaches try to model the interdependence between the different candidate entities for different NE mentions in the query document, and reformulate the problem of NED as a global optimization problem whose aim is to find the best set of entities
p3
aVThe percentage of disambiguation terms found in the query document is used to boost in the initial j u'\u005cu2062' w
p4
a.