(lp0
Vu'\u005cud835' u'\u005cudc31' i , u'\u005cu0391' or u'\u005cud835' u'\u005cudc31' i , u'\u005cu0392' if one feature is unchanged and the other one is chosen as the noise feature, which happens with probability p u'\u005cu2062' ( 1 - p ) u'\u005cu2062' q u'\u005cu0392' or p u'\u005cu2062' ( 1 - p ) u'\u005cu2062' q u'\u005cu0391'
p1
aV1 if both features are chosen as noise features, which happens with probability p 2 u'\u005cu2062' q u'\u005cu0391' u'\u005cu2062' q u'\u005cu0392'
p2
aVFor E u'\u005cu2062' [ u'\u005cud835' u'\u005cudc0f' ] , we obtain a scaled version of the scatter matrix, because in each instance u'\u005cud835' u'\u005cudc31' ~ , there is exactly a 1 / K chance that each individual feature survives dropout
p3
aVWith probability ( 1 - p )
p4
a.