(lp0
VWe reinforced words related to a topic with low frequencies by collecting documents from the corpus, and applied Latent Dirichlet Allocation (LDA) [ 4 ] to these documents in order to extract topic candidates
p1
aVTopic candidates include surplus words that are not related to the topic because the results obtained by u'\u005cu201c' LDA u'\u005cu201d' were worse than those obtained by u'\u005cu201c' LDA MACD u'\u005cu201d' , and even worse than u'\u005cu201c' Event u'\u005cu201d' in both short and long summary
p2
aVWe used documents prepared by summarization tasks, NTCIR and DUC data as each task consists of series of documents with the same topic
p3
aVAfter
p4
a.