(lp0
VWe apply the same feature set as Sun et al
p1
aVHowever, in domain cts, the improvement that word embeddings provide for word clusters is modest
p2
aVWe consider two types of word representations and use them as additional features in our DA system, namely Brown word clustering [ Brown et al.1992 ] and word embeddings [ Bengio et al.2001 ]
p3
aVFor Brown word clusters, we directly apply the clustering trained by Plank and Moschitti [ Plank and
p4
a.