(lp0
VWe view our work as building on the efforts of the Penn Korean PropBank (PKPB
p1
aV2 2 http://catalog.ldc.upenn.edu/LDC2006T03 Our corpus is roughly similar in size to the PKPB, and taken together, the two Korean corpora now total about half the size of the Penn English PropBank
p2
aVWe have annotated semantic roles by following the PropBank annotation guideline [ 3 ] and by using frame files of the Penn Korean PropBank built by Palmer et al
p3
aVThe PropBank and our corpus are not exactly compatible, because the former is built on constituency-based parse trees, whereas our corpus uses dependency parses
p4
aVUsing coarser suffix tags can seriously degrade SRL performance, as we show in Section 6
p5
a.