(lp0
VOur composite kernel consists of a history sequence and a domain context tree kernels, both of which are composed based on similar textual units in Wikipedia articles to a given dialog context
p1
aVOur composite kernel consists of two different kernels a history sequence kernel and a domain context tree kernel
p2
aVAlthough some fundamental features extracted from the utterances mentioned at a given turn or in a certain number of previous turns can be used for training the model, this information obtained solely from an ongoing dialog is not sufficient to identify not
p3
a.