(lp0
VIf l candidate URIs are provided for each NE, then u'\u005cud835' u'\u005cudc9c' u'\u005cud835' u'\u005cudc9f' has ( l + 4 ) columns c u , u u'\u005cu2208' { 1 , l + 4 }
p1
aVFor all i u'\u005cu2208' [ [ 1 , n ] ] , k u'\u005cu2208' [ [ 1 , l ] ] , we build the set S i k , composed of the Wikipedia URIs and categories contained in the source Wikipedia document related to the URI stored in u'\u005cud835' u'\u005cudc9c' u'\u005cud835' u'\u005cudc9f' [ i ] u'\u005cu2062' [ k ] that we will refer to as URI k i to ease the reading
p2
aVS 1 2 is
p3
a.