(lp0
VA good candidate for multi-lingual topic analyses are polylingual topic models [] , which learn topics for multiple languages, creating tuples of language specific distributions over monolingual vocabularies for each topic
p1
aVWe learn from code-switched social media by extending the polylingual topic model framework to infer the language of each token and then automatically processing the learned topics to identify aligned topics
p2
aVTo ensure a fair comparison, we select the same number
p3
a.