(lp0
VRow 4 shows that word embedding itself is also very useful for domain adaptation in RE since it improves the baseline system for all the target domains
p1
aVBesides, the baseline performance is improved over all target domains when the system is enriched with word cluster features of the 10 prefix length only (row 2
p2
aVIn row 5, we see that the addition of both word cluster and word embedding features improves the system further and results
p3
a.