(lp0
VSince identifying political bias is a relatively difficult and subjective task, we include all sentences where at least two workers agree on a label for the root node in our final dataset, except when that label is u'\u005cu201c' Not neutral, but I u'\u005cu2019' m unsure of which direction u'\u005cu201d'
p1
aVIn particular, the phrase annotations allow our best model to detect bias accurately in complex sentences that the baseline models cannot handle
p2
aVWith this new dataset we show that rnn s not only label sentences well but also improve further when given additional phrase-level annotations rnn s are quantitatively more effective than existing methods that use syntactic and semantic features separately, and we also illustrate
p3
a.