(lp0
VThe F-s score roughly corresponds to the evalb score
p1
aVTherefore our analysis results in an attachment score for every regex
p2
aVWe call the match just for the head the u'\u005cu201c' F-h u'\u005cu201d' score and the match that also includes the span information the u'\u005cu201c' F-s u'\u005cu201d' score
p3
aVTable 2 lists the most frequent categories in the three datasets, with their percentage of the overall number of brackets (%gold), their score based just on the head identification (F-h), their
p4
a.