(lp0
VThe word distribution of every microblog is based on topic analysis and its accuracy relies heavily on the accuracy of topic inference in step (b
p1
aVWe first infer the topic distribution of each microblog based on the topic-word distribution of news corpus obtained by the LDA estimation
p2
aVWith the above two distributions, we then add a number of words from news as additional information to microblogs by evaluating the relatedness of between each word and microblog, since words not appearing in the microblog may still be highly relevant
p3
aVOur task is to enrich each microblog with additional information so as to improve microblog u'\u005cu2019' s representation
p4
aVWe enrich the content of microblogs by inferring the association between microblogs and external words in a
p5
a.