(lp0
VAs compared to prior research that required actively polling users for ground truth in order to construct predictive models for demographic information [ 11 ] , we demonstrate that some users specify such properties publicly through direct natural language
p1
aVWe manually selected a set of roles for further exploration, aiming for a diverse sample across occupation (e.g.,, doctor , teacher ), family ( mother ), disposition ( pessimist ), religion ( christian ), and u'\u005cu201c' followers u'\u005cu201d' ( belieber , directioner
p2
aVIf one views a role, in their case gender, as two conceptual classes, male and female , then existing attribute extraction methods for third-person content (e.g.,, news articles) can be cheaply used to create a set of bootstrapping features for building classifiers over first-person content (e.g.,, tweets
p3
aVTo explore whether language provides signal for future work in fine-grain social role prediction, we constructed a set of experiments, one per role, where training and test sets were balanced
p4
a.