(lp0
VThe title of each English article is translated into Chinese and represented as a vector
p1
aVIn query translation, we translate the title of every English article into Chinese and then use these translated titles as queries to retrieve articles from the Chinese encyclopedia
p2
aVWe can calculate the entropy of the distribution as a value for SVM
p3
aVNext, we check if there is a Chinese article in Baidu Baike with exactly the same title as the one in Chinese Wikipedia
p4
aVBecause of the large difference in title lengths, the value of the title similarity feature between the English article u'\u005cu201c' Nero u'\u005cu201d' and the corresponding Chinese article is low
p5
aVIf so, the corresponding English Wikipedia article and the Baidu Baike article are paired in the gold standard
p6
aVEach topic is represented by a distribution of words, and each word has a probability score used to measure its contribution to the topic
p7
aVWe regard the appearance of the English title in the first sentence of a Baidu Baike article as a binary feature
p8
aVIn the title similarity method, every Chinese article title is represented as a vector, and each distinct character in all these titles is a dimension
p9
a.