(lp0
VA good candidate for multi-lingual topic analyses are polylingual topic models [] , which learn topics for multiple languages, creating tuples of language specific distributions over monolingual vocabularies for each topic
p1
aVWe create alignments by classifying each LDA topic by language using the KL-divergence between the topic u'\u005cu2019' s words distribution and a word distribution for the English/foreign language inferred from the monolingual documents
p2
aVWe learn from code-switched social media by extending
p3
a.