(lp0
VWe create English, Pinyin training pairs from our phrasebook simply by pronouncing the Chinglish with FST D
p1
aVTo do this, we first take our phrasebook triples and construct sample string pairs Epron, Pinyin-split by pronouncing the phrasebook English with FST A, and by pronouncing the phrasebook Chinglish with FSTs D and C
p2
aVFor example, when we decode English u'\u005cu2018' u'\u005cu2018' grandmother u'\u005cu2019' u'\u005cu2019' , we get
p3
aVThe word-based model can only decode 29 of the 65 test utterances, because wFST E fails if an utterance contains a new English word
p4
a.