(lp0
VTo illustrate the detailed effects of the corpus latent features, Table 4 shows the ranks of correct Chinese translations for English relations by methods using selected features for the challenges
p1
aVThis research was supported by the MSIP (The Ministry of Science, ICT and Future Planning), Korea and Microsoft Research, under IT/SW Creative research program supervised by the NIPA(National IT Industry Promotion Agency
p2
aVTo address this challenge, current state-of-the-art approaches build an entity graph for each language corpus, and align the two graphs
p3
a.