(lp0
VWith the above two distributions, we then add a number of words from news as additional information to microblogs by evaluating the relatedness of between each word and microblog, since words not appearing in the microblog may still be highly relevant
p1
aVSo far, we can add these L words and their revised term frequency as additional information to microblog d j m
p2
aVThe word distribution of every microblog is based on topic analysis and its accuracy relies heavily on the accuracy of topic inference in step (b
p3
aVHaving known the top L relevant words according to the result of sorting, we redefine the u'\u005cu201c' term frequency u'\u005cu201d' of every word after adding these L words to microblog d j m as additional content
p4
a.