(lp0
VFor clarity reasons we will describe Hiero decoding as a two-pass process, first without a language model, and then integrating the LM
p1
aVHowever, in the following experiments, due to efficiency considerations, we use the u'\u005cu201c' tight u'\u005cu201d' rule extraction in cdec that is more strict than the standard u'\u005cu201c' loose u'\u005cu201d' rule extraction, which generates a reduced rule set and, thus, a reduced reachability
p2
aVNIST08 newswire is used as test set
p3
aVSo in the following experiments we only use Word-Edges features consisting of combinations of English and Chinese words, and Chinese characters, and do not use word clusters nor word
p4
a.