(lp0
VIn the third section, we describe experiments regarding the detection of machine translation and in the fourth section we discuss the use of detection techniques as a machine translation quality estimation method
p1
aVAfter translating the sentences, we take 20,000 sentences from each engine output and conduct the detection experiment by labeling those sentences as MT sentences, and another 20,000 sentences, which are the human reference translations, labeled as reference sentences
p2
aVUsing simple linear regression,
p3
a.