(lp0
VIf the last sentiment word found in the tweet is positive (or negative), this feature is set to 1 (or -1
p1
aVCluster data in D based on the topic distributions from Step 5 and train a separate sentiment model for each cluster
p2
aVIf none of the words in the tweet is sentiment word, it is set to 0 by default
p3
aVThe first row shows the performance of the universal sentiment model as a baseline
p4
aVAs shown in the third column in Table 3 , surprisingly, the model with topic information inferred from the newswire data works well on the Twitter domain
p5
aVSimilar to the universal model,
p6
a.