(lp0
VThese approaches try to model the interdependence between the different candidate entities for different NE mentions in the query document, and reformulate the problem of NED as a global optimization problem whose aim is to find the best set of entities
p1
aVThe cosine similarity between the sentence containing the NE mention in the query document and the textual description of the candidate NE in the KB (we use the first section of the Wikipedia article as the candidate entity description
p2
aVCoherence is represented as an edge between nodes in the solution graph
p3
aVNodes are represented as ordered pairs of textual mentions and candidate entities, since the same entity may be found multiple times as a candidate for different textual mentions and each
p4
a.