(lp0
VAn evaluation error occurs when a system outputs a candidate that is semantically equivalent to a gold keyphrase, but is considered erroneous by a scoring program because of its failure to recognize that the predicted phrase and the corresponding gold keyphrase are semantically equivalent
p1
aVHence, an evaluation error occurs if a system predicts Olympic games but not Olympics as a keyphrase and the scoring program fails to identify them as semantically equivalent
p2
aVOvergeneration errors occur when a system correctly predicts a candidate as a keyphrase because it contains a word that appears frequently in the associated document, but at the same time erroneously outputs other candidates as keyphrases because they contain the same word
p3
aVIn the Ben Johnson example, many keyphrase extractors fail to identify 100-meter dash and gold medal as keyphrases, resulting in infrequency errors
p4
aVNoting that candidate keyphrases that are not semantically related to the predicted keyphrases are unlikely to be keyphrases in technical reports,
p5
a.