(lp0
VAll the systems show degraded nearest neighbor quality as target words grow rare, but at lower ranks, the u'\u005cu0391' = .04 nearest neighbor system fares considerably better than the symmetric u'\u005cu0391' = .50 system; the line across the bottom tracks the score of a system with randomly generated nearest neighbors
p1
aVSuppose we want to measure the semantic similarity of boat , rank 682 among the nouns in the BNC corpus studied below, which has 1057 nonzero dependency features based on 50 million words of data, with
p2
a.