(lp0
Vagainst a synthetic dataset, whereby we injected bilingual dictionaries into a collection of web documents, and evaluated the ability of the method to return multilingual dictionaries for individual languages; in this, we naively assume that all web documents in the background collection are not multilingual dictionaries, and as such, the results are potentially an underestimate of the true retrieval effectiveness
p1
aVFactors which impact on this include the lexical prior of the word in the language (e.g., P ( u'\u005cud835' u'\u005cudc5d' u'\u005cud835' u'\u005cudc4e' u'\u005cud835' u'\u005cudc5d' u'\u005cud835' u'\u005cudc52' u'\u005cud835' u'\u005cudc5f' en ) P ( u'\u005cud835' u'\u005cudc5d' u'\u005cud835' u'\u005cudc4e'
p2
a.