(lp0
VIt may initially seem surprising to have annotations of technical statements not done by domain experts; we did this intentionally because it is common to communicate unfamiliar topics to the public in political and science communication (we comment on non-expert rationales later
p1
aVFor pair 1, while one turker pointed out the decline in number of experiments, most turkers simply labeled it as stronger because it was more specific u'\u005cu201c' Specific u'\u005cu201d' turned out to be a common reason used in the comments, even though we said in the instructions that only additional justification and evidence matter
p2
aVThis could be because a single author enjoys greater freedom and has stronger motivation to make changes, or because multiple authors tend to submit a more polished initial version
p3
aV2 2 http://sinosphere.blogs.nytimes.com/2014/03/03/u-n-security-council-condemns-terrorist-attack-in-kunming/ In particular,
p4
a.