(lp0
V0.48 {algorithmic} \u005cREQUIRE \u005cSTATE Tensor order D , tensor volume V , mode size n d , d = 1 , u'\u005cu2026' , D , surrogate weight vector u'\u005cud835' u'\u005cudc97' \u005cSTATE Let \u005cSTATE u'\u005cud835' u'\u005cudc97' + = [ v 1 + , u'\u005cu2026' , v p + ] be the non-negative part of u'\u005cud835' u'\u005cudc97' \u005cSTATE u'\u005cud835' u'\u005cudc97' - = [ v 1 - , u'\u005cu2026' , v q - ] be the negative part of u'\u005cud835' u'\u005cudc97' \u005cREQUIRE \u005cSTATE u'\u005cud835' u'\u005cudc97' ~ + = sort ( u'\u005cud835' u'\u005cudc97' + ) in descending order \u005cSTATE u'\u005cud835' u'\u005cudc97' ~ - = sort ( u'\u005cud835' u'\u005cudc97' - ) in ascending order \u005cSTATE u = V / n D \u005cSTATE e = p - m u'\u005cu2062' o u'\u005cu2062' d u'\u005cu2062' ( p , u ) , f = q - m u'\u005cu2062' o u'\u005cu2062' d u'\u005cu2062' ( q , u ) \u005cSTATE Construct vector \u005cSTATE u'\u005cud835' u'\u005cudc17' = [ v ~ 1 + , u'\u005cu2026' , v ~ e + , v ~ 1 - , u'\u005cu2026' , v ~ f - , v ~ e + 1 + , u'\u005cu2026' , v ~ p + , v ~ f + 1 - , u'\u005cu2026' , v ~ q - ] \u005cSTATE Map X a
p1
a.