(lp0
VDeveloping a gold-standard alignment of privacy policies would either require an interface that allows each annotator to interact with the entire corpus of previously aligned documents while reading the one she is annotating, or the definition (and likely iterative refinement) of a set of categories for manually labeling policy sections
p1
aVThough our model (particularly the restricted variants) treats the problem as one of alignment , our evaluations consider groupings of policy sections
p2
aVExperts were allowed to select as many sections for each question as they saw fit, since answering some questions may require synthesizing
p3
a.