(lp0
VThroughout this paper, English is used as the source language and we evaluate our approach on ten target languages u'\u005cu2014' Danish (da), Dutch (nl), French (fr), German (de), Greek (el), Italian (it), Korean (ko), Portuguese (pt), Spanish (es) and Swedish (sv
p1
aVHowever, previous studies [ 34 , 31 ] have demonstrated that a homogeneous representation is critical for multilingual language technologies that require consistent cross-lingual analysis for downstream components, and the heterogenous representations used in CoNLL shared-tasks treebanks weaken any conclusion that can be drawn
p2
aVIn recent years, dependency parsing has gained universal interest due to its usefulness in a wide range of applications such as synonym generation [ 43 ] , relation extraction [ 37 ] and machine translation [ 21 , 51 ]
p3
aVPrepare parallel text by running
p4
a.