(lp0
VThis section describes our event causality extraction method
p1
aVFor the test data , we randomly sampled 23,650 examples of u'\u005cu27e8' event causality candidate, original sentence u'\u005cu27e9' among which 3,645 were positive from 2,451,254 event causality candidates extracted from our web corpus (Section 3.1
p2
aVSection 3.3 shows how to rank event causality candidates
p3
aVWe acquired 43,697 excitation templates by Hashimoto et al u'\u005cu2019' s method and the manual annotation of excitation template candidates
p4
aVNote that some event causality candidates were not given excitation values for their templates, since some templates were acquired by manual annotation without Hashimoto et al u'\u005cu2019' s method
p5
aVWe applied our event causality extraction method to 2,451,254 candidates (Section 3.1 ) and culled the top 1,200,000 phrase pairs from them (See
p6
a.