(lp0
VThis function considers all terms found in the candidate entity KB entry title, but not in the textual mention as disambiguation terms
p1
aVThe cosine similarity between the sentence containing the NE mention in the query document and the textual description of the candidate NE in the KB (we use the first section of the Wikipedia article as the candidate entity description
p2
aVThe percentage of disambiguation terms found in the query document is used to boost in the initial j u'\u005cu2062' w u'\u005cu2062' S u'\u005cu2062' i u'\u005cu2062' m value, in addition to an acronym check (whether the NE textual mention could be an acronym for a specific candidate entity title
p3
aVOur approach first ranks all nodes in the solution graph using the Page-Rank
p4
a.