(lp0
V1) the well-documented difficulties of sense tagging with fine-grained \u005csmaller WordNet senses [] ; (2) the regular update cycle of \u005csmaller Macmillan (meaning it contains many recently-emerged senses); and (3) the finding in a preliminary sense-tagging task that it better captured Twitter usages than \u005csmaller WordNet (and also \u005csmaller OntoNotes
p1
aVWe first notice that, despite the coarser-grained senses of \u005csmaller Macmillan as compared to \u005csmaller WordNet , the upper bound wsd accuracy using \u005csmaller Macmillan is comparable to that of the \u005csmaller WordNet -based datasets over the balanced BNC, and quite a bit lower than that of the two domain corpora of
p2
aVIn our second set of experiments, we move to a new dataset [ 9 ] based on text from ukWaC [ 8 ] and Twitter, and annotated using the \u005csmaller Macmillan English Dictionary 10
p3
a.