(lp0
VSince identifying political bias is a relatively difficult and subjective task, we include all sentences where at least two workers agree on a label for the root node in our final dataset, except when that label is u'\u005cu201c' Not neutral, but I u'\u005cu2019' m unsure of which direction u'\u005cu201d'
p1
aVThere are over a million sentences in the ibc , most of which have no noticeable political bias
p2
aVFor purposes of annotation, we define the task of political ideology detection as identifying, if possible, the political position of a given sentence u'\u005cu2019' s author, where position is either liberal or conservative
p3
aVThis model requires richer data than currently available, so we develop a new political
p4
a.