(lp0
VEL is a similar but broader task than NED because NED is concerned with disambiguating a textual NE mention where the correct entity is known to be one of the KB entries, while EL also requires systems to deal with the case where there is no entry for the NE in the reference KB
p1
aVThese approaches try to model the interdependence between the different candidate entities for different NE mentions in the query document, and reformulate the problem of NED as a global optimization problem whose aim is to find the best set of entities
p2
aVNamed entities (NEs) have received much attention over the last two decades [ 14 ] , mostly focused on recognizing the boundaries of textual NE mentions and
p3
a.