(lp0
VA set of candidate labels is generated from Wikipedia article titles by querying using topic terms
p1
aVThe 10 terms with the highest marginal probabilities in the topic are used to query Wikipedia and the titles of the articles retrieved used as candidate labels
p2
aVFurther candidate labels are generated by processing the titles of these articles to identify noun chunks and n-grams within the noun chunks that are themselves the titles of Wikipedia articles
p3
aVThe most important keywords can be used to generate keyphrases for labelling the topic or weight pre-existing candidate labels
p4
aVConsequently, it is not necessary to measure semantic similarity between
p5
a.