(lp0
VThis approach to filler-gap comprehension is supported by findings that show people do not actually link fillers to gap positions but instead link the filler to a verb with missing arguments [] Further, the model presented here is also shown to initially reflect an idiosyncratic role assignment error observed in development (e.g., A and B kradded interpreted as A kradded B ; Gertner and Fisher, 2012 ), though after training, the model is able to avoid the error
p1
aVFurther, similar to real children (see Figure 1 ) the model presented in this paper develops beyond this error by the end of its training, 12 12 It is important to note that the unique argument constraint prevents the current model from actually getting the correct, conjoined-subject parse, but it no longer exhibits agent-first bias, an important step for acquiring passives, which
p2
a.