(lp0
VWe reinforced words related to a topic with low frequencies by collecting documents from the corpus, and applied Latent Dirichlet Allocation (LDA) [ 4 ] to these documents in order to extract topic candidates
p1
aVWe note that the result obtained by LDA can be regarded as the two types of clustering result shown in Figure 1 i) each cluster corresponds to each lda_topic (topic id0, topic id1 u'\u005cu22ef' in Figure 1 ), and each element of the clusters is the document in the summarization tasks (task1, task2, u'\u005cu22ef' in Figure 1 ) or from the corpus (doc in Figure 1 ), and
p2
a.