(lp0
VWhile all of these lines of research are relevant to this work, as far as we are aware, there has not been work which has proposed a direct method for identifying pre-existing multilingual dictionaries in document collections
p1
aVThe only assumption on the method is that we have access to a selection of dictionaries D (mono- or multilingual) and a corpus of conventional (non-dictionary) documents C , and knowledge of the language(s) contained in each dictionary and document
p2
aVNote that the first evaluation with the synthetic dataset is based on monolingual dictionary retrieval effectiveness because we have
p3
a.