(lp0
VRun sentiment classification on the un-annotated data D u with the current sentiment model and generate probabilities of sentiment classes for each tweet, P ( c x i ) ;
p1
aV1) sum of sentiment score; (2) total number of positive words (with score s 1 ); (3) total number of negative words ( s - 1 ); (4) maximal positive score; (5) minimal negative score; (6) score of the last positive words; (7) score of the last negative words
p2
aVAdditionally, we also experiment with a smoothing technique through linear interpolation between the universal sentiment model and topic-based sentiment mixture model
p3
aVFor any sentiment words within a
p4
a.