(lp0
VCode-switching specifically in social media has also received some recent attention trained a supervised token level language identification system for Spanish and English code-switched social media to study code-switching behaviors mined translation spans for Chinese and English in code-switched documents to improve a translation system, relying on an existing translation model to aid in the identification and extraction task
p1
aVSeveral tasks have focused on identification and analysis, including mining translations in code-switched
p2
a.