(lp0
VThese topics should not diminish the essay u'\u005cu2019' s prompt adherence score because they are at least related to prompt concepts
p1
aVTo obtain feature values of the first type, we take the RI similarities between the whole essay and each set of prompt adherence keywords from the prompt u'\u005cu2019' s components
p2
aVSince the latter topic is discussed so much in the essay and does not appear to have much to do with the military prompt, this essay should probably get a bad prompt adherence score
p3
aVWe cast the problem of predicting an essay u'\u005cu2019' s prompt adherence score as 13 regression problems, one
p4
a.