(lp0
VWe examined tweets with a first person possessive pattern for each attribute term from a small corpus of tweets collected over a single month in 2013, discarding those attribute terms with no positive matches
p1
aVWe ranked the collected terms by computing PMI between classes and attribute terms
p2
aVUsing this smaller high-precision set of attribute terms, we collected tweets from the Twitter Firehose over the period 2011-2013
p3
aVTo explore whether language provides signal for future work in fine-grain social role prediction, we constructed a set of experiments, one per role, where training and test sets were balanced between users from a random background sample and self-reported users
p4
aVFrom the remaining attribute terms, we identified users with tweets scoring 4.0 or better as positive examples of the associated roles
p5
aVThe attribute term chart , for example, had high PMI with doctor ; but a precision test on the phrase my chart yielded a single tweet which referred not to a
p6
a.