(lp0
VWe show that for both domains, patents and Wikipedia, jointly learning bilingual sparse word associations and dense knowledge-based similarities directly on relevance ranked data improves significantly over approaches that use either only sparse or only dense features, and over approaches that combine query translation by SMT with standard retrieval in the target language
p1
aVBorda denotes model combination by Borda Count voting where the linear interpolation parameter is adjusted for MAP on the respective development sets with grid search
p2
aVSince patent applicants and lawyers are required to list relevant prior work explicitly in the patent application, patent citations can be used to automatically extract large amounts of relevance judgments across
p3
a.