(lp0
VEver since Gildea and Jurafsky [ 9 ] , SRL has become an important technology used in applications requiring semantic interpretation, ranging from information extraction [ 8 ] and question answering [ 14 ] , to practical problems including textual entailment [ 4 ] and pictorial communication systems [ 10 ]
p1
aVThese 14 classes are adverbial, determinative, coordinate, exclamatory, future tense, honorific, imperative, interrogative, modesty, nominal, normal, past tense, petitionary, and subordinate
p2
aVTo alleviate the sparsity, a lingering problem in NLP, we employ three kinds of latent morpheme representations induced from a larger body of unsupervised text data
p3
aVAgglutinative languages such as Japanese, Korean, and Turkish are computationally difficult due to word-form sparsity, variable
p4
a.