(lp0
VWe chose the default feature set of the NiuTrans.Phrase engine for building the baseline, including phrase translation probabilities, lexical weights, a 5-gram language model, word and phrase bonuses, a ME-based lexicalized reordering model
p1
aVCurrent Statistical Machine Translation (SMT) approaches model the translation problem as a process of generating a derivation of atomic translation units, assuming that every unit is drawn out of the same model
p2
aVHere we choose a simple and straightforward method a skeleton is obtained by dropping all unimportant words in the original sentence, while preserving the grammaticality
p3
aVHowever, using different skeleton identification results for training and inference (row 3) does not show big
p4
a.