(lp0
VFor each website, we created a HIT in which a worker was asked to copy and paste the following privacy policy-related information into text boxes i) privacy policy URL; (ii) last updated date (or effective date) of the current privacy policy; (iii) privacy policy full text; and (iv) the section subtitles in the top-most layer of the privacy policy
p1
aVWe created a separate gold standard of judgments of pairs of privacy policy sections
p2
aVDeveloping a gold-standard alignment of privacy policies would either require an interface that allows each annotator to interact with the entire
p3
a.