(lp0
VCluster data in D based on the topic distributions from Step 5 and train a separate sentiment model for each cluster
p1
aVWe generate two features based on the lexicons total number of positive words or negative words found in each tweet
p2
aVFor the topic-based mixture model and semi-supervised training, based on the experiments on the development set, we set the parameter u'\u005cu03a4' used in soft clustering to 0.4, the data selection parameter p to 0.96, and the interpolation parameter for smoothing u'\u005cu0398' to 0.3
p3
aVAs shown in the third column in Table 3 , surprisingly, the model with topic information inferred from the newswire data works
p4
a.