(lp0
V{algorithmic} [1] \u005cREQUIRE Number of simulations n u'\u005cu2062' u u'\u005cu2062' m u'\u005cu2062' T u'\u005cu2062' r u'\u005cu2062' i u'\u005cu2062' a u'\u005cu2062' l u'\u005cu2062' s , Depth of lookahead m u'\u005cu2062' a u'\u005cu2062' x u'\u005cu2062' D u'\u005cu2062' e u'\u005cu2062' p u'\u005cu2062' t u'\u005cu2062' h , time limit T \u005cENSURE Generated sentence tree \u005cSTATE b u'\u005cu2062' e u'\u005cu2062' s u'\u005cu2062' t u'\u005cu2062' S u'\u005cu2062' e u'\u005cu2062' n u'\u005cu2062' t u'\u005cu2062' e u'\u005cu2062' n u'\u005cu2062' c u'\u005cu2062' e u'\u005cu2190' nil \u005cWHILE time limit not reached \u005cSTATE s u'\u005cu2062' t u'\u005cu2062' a u'\u005cu2062' t u'\u005cu2062' e u'\u005cu2190' empty sentence tree \u005cWHILE s u'\u005cu2062' t u'\u005cu2062' a u'\u005cu2062' t u'\u005cu2062' e not terminal \u005cFOR n u'\u005cu2062' u u'\u005cu2062' m u'\u005cu2062' T u'\u005cu2062' r u'\u005cu2062' i u'\u005cu2062' a u'\u005cu2062' l u'\u005cu2062' s \u005cSTATE t u'\u005cu2062' e u'\u005cu2062' s u'\u005cu2062' t u'\u005cu2062' S u'\u005cu2062' t u'\u005cu2062' a u'\u005cu2062' t u'\u005cu2062' e u'\u005cu2190' s u'\u005cu2062' t u'\u005cu2062' a u'\u005cu2062' t u'\u005cu2062' e \u005cSTATE c u'\u005cu2062' u u'\u005cu2062' r u'\u005cu2062' r u'\u005cu2062' e u'\u005cu2062' n u'\u005cu2062' t u'\u005cu2062' D u'\u005cu2062' e u'\u005cu2062' p u'\u005cu2062' t u'\u005cu2062' h u'\u005cu2190' 0 \u005cIF t u'\u005cu2062' e u'\u005cu2062' s u'\u005cu2062' t u'\u005cu2062' S u'\u005cu2062' t u'\u005cu2062' a u'\u005cu2062' t u'\u005cu2062' e has unexplored actions \u005cSTATE Apply one unexplored PLTAG production
p1
a.