(lp0
VPoor chunker perfomance is likely due to a mismatch in chunker training and testing domains (Wall Street Journal text vs transcribed speech), but chunking noise may be a good estimation of learner uncertainty, so the remaining text is left uncorrected
p1
aVThis approach to filler-gap comprehension is supported by findings that show people do not actually link fillers to gap positions but instead link the filler to a verb with missing arguments [] Further, the model presented here is also shown to initially reflect an idiosyncratic role assignment error observed in development (e.g., A and B kradded interpreted as A kradded B ; Gertner and Fisher, 2012 ), though after training, the model is able to avoid the error
p2
aVFurther, similar to real children (see Figure 1 ) the model presented in this paper develops beyond this error by the end
p3
a.