(lp0
VThe cosine similarity between the sentence containing the NE mention in the query document and the textual description of the candidate NE in the KB (we use the first section of the Wikipedia article as the candidate entity description
p1
aVThis function considers all terms found in the candidate entity KB entry title, but not in the textual mention as disambiguation terms
p2
aVNodes are represented as ordered pairs of textual mentions and candidate entities, since the same entity may be found multiple times as a candidate for different textual mentions and each occurrence must be evaluated independently
p3
aVThe percentage of disambiguation terms found in the query document is used to boost in the initial j u'\u005cu2062' w u'\u005cu2062' S u'\u005cu2062' i u'\u005cu2062' m
p4
a.