(lp0
VThen, the history sequence and tree context structures for our composite kernel were constructed based on 3,155 articles related to Singapore collected from Wikipedia database dump as of February 2013
p1
aVOur composite kernel consists of a history sequence and a domain context tree kernels, both of which are composed based on similar textual units in Wikipedia articles to a given dialog context
p2
aVAfter computing this relatedness between the current dialog context and every paragraph in the Wikipedia collection, two kernel structures are constructed using the information obtained from the highly-ranked paragraphs in
p3
a.