(lp0
VParticipants were given a sentence and asked to identify it as u'\u005cu201c' Literal u'\u005cu201d' or u'\u005cu201c' Metaphoric u'\u005cu201d' The second task tested speakers u'\u005cu2019' ability to consistently label a given sentence as u'\u005cu201c' Not Metaphoric u'\u005cu201d' , u'\u005cu201c' Slightly Metaphoric u'\u005cu201d' , and u'\u005cu201c' Very Metaphoric u'\u005cu201d' The additional label was added in order to provide participants with a middle ground between metaphoric and literal
p1
aVThis paper introduces a system for producing a scalar measurement of metaphoricity which places sentences anywhere between 0 (literal) and 1 (highly metaphoric
p2
aVFor the first task, the binary identification task, the metaphoricity of a sentence was computed by taking the percentage of participants who
p3
a.