(lp0
VIn DA terms, since the vocabularies of the source and target domains are usually different, word representations would mitigate the lexical sparsity by providing general features of words that are shared across domains, hence bridge the gap between domains
p1
aVFollowing Plank and Moschitti [ Plank and Moschitti2013 ] , we assume that we only have labeled data in a single source domain but no labeled as well as unlabeled target data
p2
aV+ It is unclear if
p3
a.