(lp0
VAn example accounting for the basic but practical assumption is illustrated in Figure 1, in which we know that the two entities ( Barack Obama, U.S are not only involved in the relation instances 8 8 According to convention, we regard a structured triple r u'\u005cu2062' ( e i , e j ) as a relation instance which is composed of a pair of entities e i , e j and a relation name r with respect to them coming from knowledge bases ( President-of(Barack Obama, U.S.) and Born-in(Barack Obama, U.S.) ), but also co-occur in several relation mentions 9 9 The sentences that contain the given entity pair are called relation mentions appearing in free texts ( Barack Obama is the 44th and current President of the U.S and Barack Obama was born in Honolulu, Hawaii, U.S etc
p1
aVIn such a way, relation classification is transformed into a problem of completing the unknown labels for testing items in the sparse matrix that concatenates training and testing textual features with training labels, based on the assumption that the item-by-feature and item-by-label joint matrix is of low rank
p2
aVDue to the noisy features and incomplete labels, the underlying low-rank data matrix with truly effective information tends to be corrupted and the rank of observed data matrix can be extremely high
p3
a.