(lp0
VWe compare the translation quality obtained on segments with reference translation containing no discourse connective, exactly one discourse connective and more than one discourse connective
p1
aVThen we consider the following mutually exclusive possibilities i) there are no discourse connectives in either the system output or the edit; (ii) the system output and its edited version contain exactly the same discourse connectives with the same senses; (iii) there is a discourse connective present in the system output but not in the edit or vice versa
p2
aVTo investigate the prevalence of sentences in the source language (Chinese and Arabic in our case) that do not confirm to the notion of sentence in the target language (English for the purposes of this study), we separate the translation segments in the source language into two classes a source sentence is considered 1-1 if the reference translation consists of exactly one sentence, and 1-many if the reference contains more than one sentence
p3
aVThere are a number of possible complications in translating these connectives they may be ambiguous between possible senses, e.g.,, English while is
p4
a.