(lp0
V1) Keywords with a smaller orthographic/phonetic distance are preferred; 2) Keywords consisting of a single word are preferred over two words (e.g.,, for the target word lavagna , which means blackboard , lasagna takes precedence over love and onion ); 3) Keywords that do not contain stop words are preferred (e.g.,, for the target word pettine , which means comb , the keyword pair pet and inn is ranked higher than pet and in , since in is a stop word); 4) Keyword pairs obtained with orthographic similarity are preferred over those obtained with phonetic similarity, as learners might be unfamiliar with the phonetic rules of the target language
p1
aVBased on the results obtained by , who showed that the keyword method results in better long-term word retention than rote memorization, we would expect the error rate reduction to be even higher in a delayed post-test
p2
aVIn this step, our goal was to generate, for each Italian word,
p3
a.