(lp0
VIf l candidate URIs are provided for each NE, then u'\u005cud835' u'\u005cudc9c' u'\u005cud835' u'\u005cudc9f' has ( l + 4 ) columns c u , u u'\u005cu2208' { 1 , l + 4 }
p1
aVIn MDP, for each Wikipedia URI candidate annotation, all the internal links and categories contained in the source Wikipedia document related to this URI are collected
p2
aVThe system makes use of all the semantic content stored in u'\u005cud835' u'\u005cudc9c' u'\u005cud835' u'\u005cudc9f' to locally improve the precision of each URI annotation in the document
p3
aVFor all i u'\u005cu2208' [ [ 1 , n ] ] , k u'\u005cu2208' [ [ 1 , l ] ] , we build
p4
a.