(lp0
VThe goal is to create composite vectors for a number of elementary verb phrases of the form verb-object with and without an explicit disambiguation step, and evaluate which model approximates better the holistic vectors of these verb phrases
p1
aVFor each verb phrase, we create a composite vector by matrix-multiplying the verb matrix with the vector of the specific object
p2
aVWe now have a dataset with instances of the form u'\u005cu27e8' s u'\u005cu2062' u u'\u005cu2062' b u'\u005cu2062' j i u'\u005cu2192' , s u'\u005cu2062' u u'\u005cu2062' b u'\u005cu2062' j i u'\u005cu2062' p u'\u005cu2062' l u'\u005cu2062' a u'\u005cu2062' y u'\u005cu2192' u'\u005cu27e9' (e.g., the vector of u'\u005cu2018'
p3
a.