(lp0
Vagainst a synthetic dataset, whereby we injected bilingual dictionaries into a collection of web documents, and evaluated the ability of the method to return multilingual dictionaries for individual languages; in this, we naively assume that all web documents in the background collection are not multilingual dictionaries, and as such, the results are potentially an underestimate of the true retrieval effectiveness
p1
aVFinally, document genre classification is relevant in that it is theoretically possible to develop a document categorisation method which classifies documents as multilingual dictionaries or not, with the obvious downside that it would need to be
p2
a.