(lp0
VIn particular, MUC measures the degree of agreement between key coreference links (i.e.,, links among mentions within entities) and response coreference links, while non-coreference links (i.e.,, links formed by mentions from different entities) are not explicitly taken into account
p1
aVThe BLANC-gold metric was developed with the assumption that response mentions and key mentions are identical
p2
aVFor instance, if the key entities are { a,b,c } { d,e }; and the response entities are { b,c } { e,f,g }, then the key coreference link (a,b) is not seen on the response side; similarly, it is possible that a response link does not
p3
a.