(lp0
VWe believe it is reasonable to assume that the author of document d knows enough about the contents of each document R i to choose the most appropriate citation from the collection R for every citation context in the document
p1
aVWe tested three different approaches to generating a document u'\u005cu2019' s VSM representation internal representations , which are based on the contents of the document, external representations , which are built using a document u'\u005cu2019' s incoming link citation contexts (following Ritchie ( 2009 ) and He et al
p2
aVWe use these judgements for evaluation our task is to match every citation context in the document (i.e., the surrounding context of a citation token) with the right reference from the list of references cited by that paper
p3
aVThis representation can be based on any information found in the document collection, excluding the document d itself e.g., the text of the referenced document and the text of documents that cite it
p4
aVWhether this is because the descriptions of these papers in the contexts of incoming link citations capture the essence or key relevance of the paper, or whether this effect is due to authors reusing their work or to these descriptions originating in a seed paper and being then propagated through the literature, remain interesting research questions that we intend to
p5
a.