(lp0
VAlthough some fundamental features extracted from the utterances mentioned at a given turn or in a certain number of previous turns can be used for training the model, this information obtained solely from an ongoing dialog is not sufficient to identify not only user-initiative, but also system-initiative topic transitions
p1
aVTo analyze and maintain dialog topics from a more systematic perspective in a given dialog flow, some researchers [ 12 , 8 , 1 ] have considered this dialog topic identification as a separate sub-problem of dialog management and attempted to solve it
p2
a.