(lp0
VBut if the IBM mention co-occurs with a Thomas Watson, Jr mention in the document, there will probably be more links between the International Business Machine and Thomas Watson, Jr related Wikipedia pages than between the International Brotherhood of Magicians and Thomas Watson, Jr related Wikipedia pages
p1
aVIn MDP, for each Wikipedia URI candidate annotation, all the internal links and categories contained in the source Wikipedia document related to this URI are collected
p2
aV] URI 1 2 u'\u005cu2261' Thomas Watson, Jr
p3
aVSimilarly, dsr_score(URI 2 1 ) is equal to the number of times the International Business Machines Corporation is cited in the Thomas Watson, Jr page csr_score(URI 1 1 )
p4
a.