(lp0
VThere is a strong correlation between the detection accuracy that can be obtained and the BLEU score or the human evaluation score of the machine translation itself
p1
aVWhile Arase and Zhou [] considered MT detection at sentence level, as we do in this paper, they did not study the correlation between the translation quality of the machine translated text and the ability to detect it
p2
aVWhile applying the same classification method as with the
p3
a.