(lp0
V2) We wouldn u'\u005cu2019' t expect the test-on-training evalb score to be 100%, since it has to back off from the training data, but the results for the different categories vary widely, with e.g.,, the NP-modr F-h score much lower than other frequent regexes
p1
aVTable 2 lists the most frequent categories in the three datasets, with their percentage of the overall number of brackets (%gold), their score based just on the head identification (F-h), their score based on
p2
a.