(lp0
VThis model requires richer data than currently available, so we develop a new political ideology dataset annotated at the phrase level
p1
aV2 2 Many sentences in Convote are variations on u'\u005cu201c' I think this is a good/bad bill u'\u005cu201d' , and there is also substantial parliamentary boilerplate language
p2
aVSince identifying political bias is a relatively difficult and subjective task, we include all sentences where at least two workers agree on a label for the root node in our final dataset, except when that label is u'\u005cu201c' Not neutral, but I u'\u005cu2019' m unsure of which direction u'\u005cu201d'
p3
aVThere are over a million sentences in the ibc , most of which have no noticeable political
p4
a.