(lp0
VDecide on u u'\u005cu2062' ( u'\u005cud835' u'\u005cudc99' ) u'\u005cu2208' u'\u005cud835' u'\u005cudcb0' , the undirected latent tree that u'\u005cud835' u'\u005cudc99' maps to
p1
aVLet u u'\u005cu2062' ( u'\u005cud835' u'\u005cudc99' ) be the true undirected tree of sentence u'\u005cud835' u'\u005cudc99' and assume the nodes u'\u005cud835' u'\u005cudcb1' to be indexed by [ M ] = { 1 , u'\u005cu2026' , M } such that M u'\u005cud835' u'\u005cudcb1'
p2
aVIn order to estimate d from data, we need to estimate the covariance matrices u'\u005cud835' u'\u005cudeba' u'\u005cud835' u'\u005cudc99' u'\u005cu2062' ( i , j ) (for i , j u'\u005cu2208' { 1 , u'\u005cu2026' , u'\u005cu2113' u'\u005cu2062' ( u'\u005cud835' u'\u005cudc99' ) } ) from Eq
p3
aVCompute d ^ spectral u'\u005cu2062' ( j , k ) u'\u005cu2062' u'\u005cu2200' j , k u'\u005cu2208' u'\u005cu2113'
p4
a.