(lp0
VWe show that for both domains, patents and Wikipedia, jointly learning bilingual sparse word associations and dense knowledge-based similarities directly on relevance ranked data improves significantly over approaches that use either only sparse or only dense features, and over approaches that combine query translation by SMT with standard retrieval in the target language
p1
aVLinLearn denotes model combination by overloading the vector representation of queries u'\u005cud835' u'\u005cudc2a' and documents u'\u005cud835' u'\u005cudc1d' in the VW linear learner by incorporating arbitrary ranking models as dense features
p2
aVFor example, in patent prior art search, patents granted at any patent office worldwide are considered relevant if they constitute prior art with respect to the
p3
a.