(lp0
VAs strength is inherently relative, it is natural to look at revisions that change statement strength, which we refer to as u'\u005cu201c' strength changes u'\u005cu201d'
p1
aVMany differences between these versions constitute a source of valid and motivated strength differences, as can be seen from the sentential revisions in Table 1
p2
aVFor pair 1, while one turker pointed out the decline in number of experiments, most turkers simply labeled it as stronger because it was more specific u'\u005cu201c' Specific u'\u005cu201d' turned out to be a common reason used in the comments, even though we said in the instructions that only additional justification and evidence matter
p3
aVParticipants were then asked to choose labels and write mandatory comments for 50 pairs
p4
aVThe main contribution of this work is to provide the first large-scale
p5
a.