(lp0
VWe note that the result obtained by LDA can be regarded as the two types of clustering result shown in Figure 1 i) each cluster corresponds to each lda_topic (topic id0, topic id1 u'\u005cu22ef' in Figure 1 ), and each element of the clusters is the document in the summarization tasks (task1, task2, u'\u005cu22ef' in Figure 1 ) or from the corpus (doc in Figure 1 ), and (ii) each cluster corresponds to the summarization task and each element of the clusters is the document in the summarization tasks or the document from the corpus assigned topic id
p1
aVWe reinforced words related
p2
a.