(lp0
VSuch policies therefore offer an excellent opportunity for NLP tools that summarize or extract key information that (i) helps users understand the implications of agreeing to these policies and (ii) helps legal analysts understand the contents of these policies and make recommendations on how they can be improved or made more clear
p1
aVFor each website, we created a HIT in which a worker was asked to copy and paste the following privacy policy-related information into text boxes i) privacy policy URL; (ii) last updated date (or effective date) of the current privacy policy; (iii)
p2
a.