(lp0
VInspired by [ 36 ] and [ 14 ] , we adopt the graph model for Chinese spell checking for pinyin segmentation and typo correction, which is based on the shortest path word segmentation algorithm [ 1 ]
p1
aVHowever, using pinyin words instead of syllables is not a wise choice because pinyin word segmentation is not so easy a task as syllable segmentation
p2
aVSince pinyin syllable is much shorter than pinyin word, this ratio can be higher for pinyin syllables
p3
aVSince pinyin syllables have a very limited vocabulary and follow a set of regularities strictly, it is convenient
p4
a.