(lp0
VTo do this, we first take our phrasebook triples and construct sample string pairs Epron, Pinyin-split by pronouncing the phrasebook English with FST A, and by pronouncing the phrasebook Chinglish with FSTs D and C
p1
aVHere, we start with reference English and measure the accuracy of Pinyin syllable production, since the choice of Chinglish character does not affect the Chinglish pronunciation
p2
aVIf a Chinese speaker wants to say u'\u005cu2018' u'\u005cu2018' {CJK} UTF8gkai u'\u005cu975e' u'\u005cu5e38' u'\u005cu611f' u'\u005cu8c22' u'\u005cu4f60' u'\u005cu8fd9' u'\u005cu987f' u'\u005cu7f8e' u'\u005cu9910' u'\u005cu2019' u'\u005cu2019' , she need only read off the
p3
a.