(lp0
VThough our model (particularly the restricted variants) treats the problem as one of alignment , our evaluations consider groupings of policy sections
p1
aVPrivacy policy documents are verbose, often esoteric legal documents that many people encounter as clients of companies that provide services on the web
p2
aVWe therefore crowdsourced the privacy policy document collection using Amazon Mechanical Turk
p3
aVDeveloping a gold-standard alignment of privacy policies would either require an interface that allows each annotator to interact with the entire corpus of previously aligned documents while reading the one she is annotating, or the definition (and
p4
a.