(lp0
VSimilarly, dsr_score(URI 2 1 ) is equal to the number of times the International Business Machines Corporation is cited in the Thomas Watson, Jr page csr_score(URI 1 1 ) sums up the number of common URIs and categories between S 1 1 and S 2 1 , i.e., the number of URIs and categories appearing in both International Brotherhood of Magicians and Thomas Watson, Jr pages csr_score(URI 2 1 ) counts the number of URIs and categories appearing in both International Business Machines Corporation and Thomas Watson, Jr pages
p1
aVA strong effort has been conducted recently by the TAC-KBP evaluation task [ 13 ] to create standardized corpus, and annotation
p2
a.