(lp0
Vwhere n t is the number of tweets that have been assigned to the event t ; M is the total number of tweets, n t , y is the number of times named entity y has been associated with event t ; n t , d is the number of times dates d has been associated with event t ; n t , l is the number of times locations l has been assigned with event t ; n t , k is the number of times keyword k has associated with event t , counts with ( m ) notation denote the counts relating to tweet m only
p1
aVThe events extracted in the baseline are represented as a 3-tuple u'\u005cu27e8' y , d , k u'\u005cu27e9' 5 5 TwiCal also groups event instances into event types such as u'\u005cu201d' Sport u'\u005cu201d' or u'\u005cu201d' Politics u'\u005cu201d' using LinkLDA which is not considered here where y stands for a non-location named entity, d for a date and k for an event phrase
p2
aV[ 14 ] presented
p3
a.