(lp0
VDeveloping a gold-standard alignment of privacy policies would either require an interface that allows each annotator to interact with the entire corpus of previously aligned documents while reading the one she is annotating, or the definition (and likely iterative refinement) of a set of categories for manually labeling policy sections
p1
aVSuch policies therefore offer an excellent opportunity for NLP tools that summarize or extract key information that (i) helps users understand the implications of agreeing to these policies and (ii) helps legal analysts understand the contents of these policies and make recommendations on how
p2
a.