(lp0
VFirst, we converted the constituent parse trees in the results of the Berkeley Parser into dependency parse trees by employing a tool in the Stanford Parser [ 2003 ]
p1
aVIn our opinion, the reason for the great decrease was that the dependency parse trees were more concise than the constituent parse trees in describing sentences and they could also describe the reordering at the sentence level in a finer way
p2
aVThe overall accuracy of this rule set is 60.0%, which is almost at the same level as the WR07 rule set (62.1%), according to the similar evaluation (200 sentences and one annotator) conducted in Wang et al
p3
aVFor each kind of structure, we selected some of the sample dependency parse trees that contained it, tried to restructure the parse trees according to the matched rule and judged the
p4
a.