(lp0
VSuch policies therefore offer an excellent opportunity for NLP tools that summarize or extract key information that (i) helps users understand the implications of agreeing to these policies and (ii) helps legal analysts understand the contents of these policies and make recommendations on how they can be improved or made more clear
p1
aVWe are inspired by multiple sequence alignment methods in computational biology [ 8 ] and by Barzilay and Lee ( 2004 ) , who described a hidden Markov model (HMM) for document content where each state corresponds to a distinct topic and
p2
a.