(lp0
VThe next step is to classify every noun that has been used as an object with that verb to the most probable verb sense, and then use these sets of nouns as before for training tensors for the various verb senses
p1
aVBeing equipped with a number of sense clusters created as above for every verb, the classification of each object to a relevant sense is based on the cosine distance of the object vector from the centroids of the clusters
p2
aVFor the disambiguated version, we first detect the most probable sense of the verb given the noun, again by comparing the vector of
p3
a.