(lp0
VWe create alignments by classifying each LDA topic by language using the KL-divergence between the topic u'\u005cu2019' s words distribution and a word distribution for the English/foreign language inferred from the monolingual documents
p1
aVWe learn from code-switched social media by extending the polylingual topic model framework to infer the language of each token and then automatically processing the learned topics to identify aligned topics
p2
aVTo train a polylingual topic model on social
p3
a.