(lp0
VTable 2 lists the most frequent categories in the three datasets, with their percentage of the overall number of brackets (%gold), their score based just on the head identification (F-h), their score based on head identification and (left and right) span (F-s), and the attachment (att) and span-right (spanR) scores for those that match based on the head
p1
aVFor example, the mediocre performance of the parser on SQ-vp barely affects the score with OntoNotes, but has a larger
p2
a.