(lp0
VMost of these work executed SPARQL queries on interlinked data represented by RDF (Resource Description Framework) triples, or simply performed triple matching
p1
aVWe instead attack the problem of QA from a KB from an IE perspective we learn directly the pattern of QA pairs, represented by the dependency parse of questions and the Freebase structure of answer candidates, without the use of intermediate, general purpose meaning representations
p2
aVWith the recent growth in KBs such as DBPedia [ 1 ] , Freebase [ 4 ] and Yago2 [ 18 ] , it has become more practical to consider answering questions across wider domains, with commercial systems including Google Now , based on Google u'\u005cu2019' s Knowledge Graph , and Facebook Graph Search , based on social network connections
p3
aVWhile making semantic parsing more robust is a laudable goal, here we provide a more rigorous IE baseline against which those
p4
a.