(lp0
V[] divided sequences into chunks of a fixed time duration, and applied the A * alignment algorithm to each chunk independently
p1
aV[] divided the sequences into chunks of a fixed time duration, and applied the A * alignment algorithm to each chunk independently
p2
aVThe A * search algorithm treats each node position n = [ n 1 , u'\u005cu2026' , n K ] as a search state, and estimates the cost function g u'\u005cu2062' ( n ) and the heuristic function h u'\u005cu2062' ( n ) for each state
p3
aVThe problem of minimizing the SOP cost function for K sequences is equivalent to estimating the shortest path between a single source node and a single sink node in a K -dimensional mesh graph, where
p4
a.