(lp0
VHere, the model does not fully exploit the space provided by the theoretical framework (i.e., an order-3 tensor), which has two disadvantages firstly, we lose space that could hold valuable information about the verb in this case and relational words in general; secondly, the generally non-commutative tensor contraction operation is now partly relying on element-wise multiplication, which is commutative, thus forgets (part of the) order of composition
p1
aVCompositional distributional models of meaning vary in sophistication, from simple element-wise operations between vectors such as addition and multiplication [] to deep learning techniques based on neural networks []
p2
aVRecent experimental evidence [] suggests that for
p3
a.