(lp0
VSince identifying political bias is a relatively difficult and subjective task, we include all sentences where at least two workers agree on a label for the root node in our final dataset, except when that label is u'\u005cu201c' Not neutral, but I u'\u005cu2019' m unsure of which direction u'\u005cu201d'
p1
aVThere are over a million sentences in the ibc , most of which have no noticeable political bias
p2
aVBecause our goal is to distinguish between liberal and conservative bias, instead of the more general task of classifying sentences as u'\u005cu201c' neutral u'\u005cu201d' or u'\u005cu201c' biased u'\u005cu201d' , we filter the dataset further using dualist [ 23 ] , an active learning tool, to reduce the
p3
a.