(lp0
VWhile there are syndicated efforts to produce multilingual dictionaries for different pairings of the world u'\u005cu2019' s languages such as freedict.org , more commonly, multilingual dictionaries are developed in isolation for a specific set of languages, with ad hoc formatting, great variability in lexical coverage, and no central indexing of the content or existence of that dictionary [ 2 ]
p1
aVagainst a synthetic dataset, whereby we injected bilingual dictionaries into a collection of web documents, and evaluated the ability of the method to return multilingual dictionaries for individual languages; in this, we naively assume that all
p2
a.