(lp0
VMRR is equivalent to MAP as reported by Minkov and Cohen ( 2012 ) when there is only one correct answer.) Their best number (0.59) is better than our one-synonym result; however, they performed manual postprocessing of results u'\u005cu2013' e.g.,, discarding words that are morphologically or semantically related to other words in the list u'\u005cu2013' so our fully automatic results cannot be directly compared
p1
aVWe tried a number of different ways of modifying it for weighted graphs i) running the random walks with the weighted adjacency matrix as Markov matrix, (ii) storing the weight (product of each edge weight) of a random walk and using it as a factor if two walks meet and (iii) a combination of both
p2
aVMost of the 226 missing word pairs are adverbs, prepositions and plural forms that are not covered by
p3
a.