(lp0
VWe propose a mutual disambiguation algorithm that improves the accuracy of entity links in a document by using successive corrections applied to an annotation object representing this document
p1
aVBut if the IBM mention co-occurs with a Thomas Watson, Jr mention in the document, there will probably be more links between the International Business Machine and Thomas Watson, Jr related Wikipedia pages than between the International Brotherhood of Magicians and Thomas Watson, Jr related Wikipedia pages
p2
aVThe annotation object is composed of information extracted from the document along with linguistic and semantic annotations as described hereafter
p3
aVSimilarly, dsr_score(URI 2 1 ) is equal to the number of times the International Business
p4
a.