(lp0
VFinally, some information is lost at every propagation step, so rnn s are able to model the shorter sentences in Convote more effectively than the longer ibc sentences
p1
aVFirst, Convote has twice as many sentences as ibc , and the extra training data might help the model more than ibc u'\u005cu2019' s better-quality labels
p2
aVSince identifying political bias is a relatively difficult and subjective task, we include all sentences where at least two workers agree on a label for the root node in our final dataset, except when that label is u'\u005cu201c' Not neutral, but I u'\u005cu2019' m unsure of which direction u'\u005cu201d'
p3
aVBecause our goal is to distinguish between liberal and conservative bias,
p4
a.