(lp0
Vagainst a synthetic dataset, whereby we injected bilingual dictionaries into a collection of web documents, and evaluated the ability of the method to return multilingual dictionaries for individual languages; in this, we naively assume that all web documents in the background collection are not multilingual dictionaries, and as such, the results are potentially an underestimate of the true retrieval effectiveness
p1
aVWe perform query construction for each language based on frequent item set mining, using the Apriori algorithm [ 1 ]
p2
aVNote that the first evaluation with the synthetic dataset is based on monolingual dictionary retrieval effectiveness
p3
a.