(lp0
VRow 4 shows that word embedding itself is also very useful for domain adaptation in RE since it improves the baseline system for all the target domains
p1
aVWe consider two types of word representations and use them as additional features in our DA system, namely Brown word clustering [ Brown et al.1992 ] and word embeddings [ Bengio et al.2001 ]
p2
aVIn DA terms, since the vocabularies of the source and target domains are usually different,
p3
a.