(lp0
VWe learn from code-switched social media by extending the polylingual topic model framework to infer the language of each token and then automatically processing the learned topics to identify aligned topics
p1
aVWe use a block Gibbs sampler to jointly sample topic and language variables for each token
p2
aVTo train a polylingual topic model on social media, we make two modifications to the model of add a token specific language variable, and a
p3
a.