(lp0
VAlthough some fundamental features extracted from the utterances mentioned at a given turn or in a certain number of previous turns can be used for training the model, this information obtained solely from an ongoing dialog is not sufficient to identify not only user-initiative, but also system-initiative topic transitions
p1
aVThe most probable pair of topics at just before and after each turn is predicted by the following classifier f u'\u005cu2062' ( x t ) = ( y t - 1 , y t ) , where x t contains the input features
p2
a.