(lp0
VIn this section, we evaluate the proposed approach on the entity translation task and the relation translation task
p1
aVThe focus of this paper is Step 2 , building the translation score T R ( t ) u'\u005cu2062' ( r E , r C ) of English relation r E and Chinese relation r C
p2
aVf F u'\u005cu2062' S u'\u005cu2062' 1 and f F u'\u005cu2062' S u'\u005cu2062' 2
p3
aVM ) , with M = 1 2 u'\u005cu2062' ( P + Q ) and
p4
a.