(lp0
VOur composite kernel consists of a history sequence and a domain context tree kernels, both of which are composed based on similar textual units in Wikipedia articles to a given dialog context
p1
aVAlthough some fundamental features extracted from the utterances mentioned at a given turn or in a certain number of previous turns can be used for training the model, this information obtained solely from an ongoing dialog is not sufficient to identify not only user-initiative, but also system-initiative topic transitions
p2
aVIn this work, a composite kernel is defined by combining the
p3
a.