(lp0
VThe scalar system was evaluated on the VU Amsterdam Metaphor Corpus (Steen, et al., 2010) which consists of 200,000 words from the British National Corpus divided into four genres (academic, news, fiction, and spoken; performance on the spoken genre was not evaluated for this task because it consists of many short fragmentary utterances) and manually annotated for metaphor by five raters
p1
aVMetaphor is a cognitive phenomenon (Lakoff Johnson, 1980, 1999) which has a significant impact on human reasoning abilities (Casasanto Jasmin, 2012; Johansson Falk Gibbs, 2012) and which, as a result, commonly appears in language in the form of metaphoric expressions (e.g.,, Deignan, 2005
p2
aVStarting with Wilks (1978), the problem
p3
a.