(lp0
VWe therefore define an edit-turn-pair as corresponding, if i) The turn is an explicit suggestion, recommendation or request and the edit performs this suggestion, recommendation or request, ii) the turn is an explicit reference or pointer and the edit adds or modifies this reference or pointer, iii) the turn is a commitment to an action in the future and the edit performs this action, and iv) the turn is a report of a performed action and the edit performs this action
p1
aVAn edit-turn-pair is defined as a pair of an edit from a Wikipedia article u'\u005cu2019' s revision history and a turn from the discussion page bound to the same article
p2
aVThe search space for corresponding edit-turn-pairs is quite big, as any edit to an article may correspond to any turn from the article u'\u005cu2019' s discussion page
p3
aVSimilarity has been calculated between i) the plain edit text and the turn text, ii) the edit and turn text after any wiki markup has been removed, iii) the plain
p4
a.