(lp0
VWe chose the default feature set of the NiuTrans.Phrase engine for building the baseline, including phrase translation probabilities, lexical weights, a 5-gram language model, word and phrase bonuses, a ME-based lexicalized reordering model
p1
aVCurrent Statistical Machine Translation (SMT) approaches model the translation problem as a process of generating a derivation of atomic translation units, assuming that every unit is drawn out of the same model
p2
aVTo learn the skeletal language model, we replace non-skeleton parts of the target sentences in the bilingual corpus to Xs using the source sentence skeletons and word alignments
p3
aVWe apply the proposed model to Chinese-English phrase-based MT and demonstrate promising BLEU
p4
a.