(lp0
VInspired by [ 36 ] and [ 14 ] , we adopt the graph model for Chinese spell checking for pinyin segmentation and typo correction, which is based on the shortest path word segmentation algorithm [ 1 ]
p1
aVSince pinyin syllables have a very limited vocabulary and follow a set of regularities strictly, it is convenient to perform pinyin syllable segmentation by using rules
p2
aVCorresponding Chinese words are fetched from a PTC dictionary u'\u005cud835' u'\u005cudd3b' c , which is a dictionary maps pinyin words to Chinese words, and added as vertices
p3
aVHowever, using pinyin words instead of syllables
p4
a.