(lp0
VWe apply the same feature set as Sun et al
p1
aVFollowing Plank and Moschitti [ Plank and Moschitti2013 ] , we assume that we only have labeled data in a single source domain but no labeled as well as unlabeled target data
p2
aVTherefore, following the settings of Plank and Moschitti [ Plank and Moschitti2013 ] , we will only assume entity boundaries and not rely on the gold standard information in the experiments
p3
aVThis issue becomes
p4
a.