(lp0
VWhile previous state-of-the-art models for opinion classification have been successfully applied to traditional corpora [ 15 ] , YouTube comments pose additional challenges i) polarity words can refer to either video or product while expressing contrasting sentiments; (ii) many comments are unrelated or contain spam; and (iii) learning supervised models requires training data for each different YouTube domain, e.g.,, tablets , automobiles , etc
p1
aVWhile a few successful attempts have been made to use more involved linguistic analysis for opinion mining, such as dependency trees with latent nodes [ 26 ] and syntactic parse trees with vectorized nodes [ 24 ] , recently, a comprehensive study by Wang and Manning ( 2012 ) showed that a simple model using bigrams and SVMs performs on par with more complex models
p2
aVTo address the specifics of OM tasks on YouTube comments, we enrich syntactic trees with semantic tags to encode i) central concepts of the video, (ii) sentiment-bearing words expressing positive or negative sentiment and (iii) negation words
p3
aVThis section reports i) experiments on individual subtasks of
p4
a.