(lp0
VNote that T si is just the special case of Tversky u'\u005cu2019' s ratio model ( 5 ) in which u'\u005cu0391' = 0.5 and the similarity measure is symmetric
p1
aVBelow, we investigate asymmetric versions of all three, which we write as T u'\u005cu0391' , si u'\u005cu2062' ( w 1 , w 2 ) , defined as
p2
aVNote that sim u'\u005cu2062' ( w 1 , w 2 ) is symmetric if and only if u'\u005cu0391' = 0.5
p3
aVThus, if u'\u005cu0391' + u'\u005cu0392' = 1 , Tversky u'\u005cu2019'
p4
a.