(lp0
VWhile all of these lines of research are relevant to this work, as far as we are aware, there has not been work which has proposed a direct method for identifying pre-existing multilingual dictionaries in document collections
p1
aVIn all experiments in this paper, we assume that we have access to at least one multilingual dictionary containing each of our target languages, but in absence of such a dictionary, sdict u'\u005cu2062' ( w i , l ) could be set to 1 for all words w i , l in the language
p2
aVThe only assumption on the
p3
a.