(lp0
VWe use a block Gibbs sampler to jointly sample topic and language variables for each token
p1
aVWe learn from code-switched social media by extending the polylingual topic model framework to infer the language of each token and then automatically processing the learned topics to identify aligned topics
p2
aVTopics appearing in at least one code-switched document with probability greater than a threshold p are selected as candidates for true cross-language topics
p3
aVIn this
p4
a.