(lp0
VAs we describe below, given the tree structure, the additive tree metric property allows us to compute u'\u005cu201c' backwards u'\u005cu201d' the distances among the latent variables as a function of the distances among the observed variables
p1
aVDecide on u u'\u005cu2062' ( u'\u005cud835' u'\u005cudc99' ) u'\u005cu2208' u'\u005cud835' u'\u005cudcb0' , the undirected latent tree that u'\u005cud835' u'\u005cudc99' maps to
p2
aVGiven the fact that the distance between a pair of nodes is a function of the random variables they represent (according to the true model), only u'\u005cud835' u'\u005cudc6b' W u'\u005cu2062' W can be empirically estimated from data
p3
aVFollowing this intuition, we propose to model the distribution over the latent bracketing states and words for each tag sequence u'\u005cud835' u'\u005cudc99' as a latent tree graphical model, which encodes
p4
a.