(lp0
VWe employ Amazon u'\u005cu2019' s Mechanical Turk (AMT) to label the emotions of Twitter data, and apply the proposed methods to the AMT dataset with the goals of improving the annotation quality at low cost, as well as learning accurate emotion classifiers
p1
aVDifferent from the commonly used TF (term frequency) or TF.IDF (term frequency.inverse document frequency) weighting schemes, Delta IDF treats the positive and negative training instances as two separate corpora, and weighs the terms by how biased they are to one corpus
p2
aVThe model u'\u005cu2019' s ability to discriminate at the feature level can be further enhanced by leveraging the distribution of feature weights across multiple classes, e.g.,, multiple emotion categories funny , happy , sad , exciting , boring , etc
p3
aVSince in real world applications people are primarily concerned with how well the algorithm will work for new TV shows or movies that may not be included in the training data, we defined a test fold for each TV show or movie in
p4
a.