(lp0
VOne advantage of our corpus is that it is built on top of the ETRI Korean corpus, which uses a richer Korean morphological tagging scheme than the Penn Korean Treebank
p1
aVThese feature functions include transition features that identify the tag bigram ( y i - 1 , y i ) , and emission features that combine the current semantic tag ( y i ) with instantiated feature templates extracted from the sentence x and its underlying morphological and dependency analysis
p2
aVThis research was supported by the Basic Science Research Program of the Korean National Research Foundation (NRF), and funded by the Korean Ministry of Education, Science and Technology (2010-0010612
p3
aVWe have annotated semantic roles
p4
a.