(lp0
VFor each verb phrase, we create a composite vector by matrix-multiplying the verb matrix with the vector of the specific object
p1
aVThe goal is to create composite vectors for a number of elementary verb phrases of the form verb-object with and without an explicit disambiguation step, and evaluate which model approximates better the holistic vectors of these verb phrases
p2
aVThe next step is to classify every noun that has been used as an object with that verb to the most probable verb sense, and then use these sets of nouns as before for training tensors for the various verb senses
p3
aVThe union of
p4
a.