(lp0
VWe decompose both the gold and parser output trees into derivation trees with spinal etrees, and score based on the regexes projected by each word
p1
aVThe benefit of the approach described here is that now we can see the contribution to the evalb score of the particular types of constructions, and within those constructions, how well the parser is doing at getting the same head projection, but failing or not on the spans
p2
aVThe word u'\u005cu201c' make u'\u005cu201d'
p3
a.