(lp0
VWe decompose both the gold and parser output trees into derivation trees with spinal etrees, and score based on the regexes projected by each word
p1
aVThe word u'\u005cu201c' make u'\u005cu201d' has a match for the regexes VP-t, VP-aux, and S-vp, and so on
p2
aV2) Since the derivation tree is really a dependency tree with more complex nodes [] , we can also score each regex for attachment
p3
aVTable 2 lists the most frequent categories in the three datasets,
p4
a.