(lp0
VIn the third section, we describe experiments regarding the detection of machine translation and in the fourth section we discuss the use of detection techniques as a machine translation quality estimation method
p1
aVRegarding the detection of machine translated text, Carter and Inkpen [] translated the Hansards of the 36th Parliament of Canada using the Microsoft Bing MT web service, and conducted three detection experiments at document level, using unigrams, average token length, and type-token
p2
a.