(lp0
VEach relation translation method translates an English relation r E into a list of Chinese relations, and we check whether a Chinese relation r C with the highest translation score is the correct translation
p1
aVIn this section, we evaluate the proposed approach on the entity translation task and the relation translation task
p2
aVThis section considers the relation translation task
p3
aVOut of 158 randomly chosen correct relation translation pairs we labeled, 64% has only one co-occurring entity pair, which makes EF not very
p4
a.