(lp0
VFor each website, we created a HIT in which a worker was asked to copy and paste the following privacy policy-related information into text boxes i) privacy policy URL; (ii) last updated date (or effective date) of the current privacy policy; (iii) privacy policy full text; and (iv) the section subtitles in the top-most layer of the privacy policy
p1
aVGiven the privacy policy full text and the section subtitles, we partition the full privacy document into different sections, delimited by the section subtitles
p2
aVWe created a separate gold standard of judgments of pairs of
p3
a.