(lp0
VFor each verb phrase, we create a composite vector by matrix-multiplying the verb matrix with the vector of the specific object
p1
aVThe next step is to classify every noun that has been used as an object with that verb to the most probable verb sense, and then use these sets of nouns as before for training tensors for the various verb senses
p2
aVThe union of all object sets is used for training a single unambiguous tensor for the verb
p3
aVFor the disambiguated version, we first detect the most probable sense of the verb given the noun, again by comparing the vector of the
p4
a.