(lp0
VAn excerpt of the final Matrix M W u'\u005cu2062' E is presented in Table 3 , and it can be interpreted as a list of words with scores that represent how much weight a given word has in the affective dimensions we consider
p1
aVIn this respect, compositional approaches represent a new promising trend, since all other approaches, either using semantic similarity or Bag-of-Words (BOW) based machine-learning, cannot handle, for example, cases of texts with same wording but different words order u'\u005cu201c' The dangerous killer escaped one month ago, but recently he was arrested u'\u005cu201d' ( relief , happyness ) vs u'\u005cu201c' The dangerous killer was arrested one month ago, but recently he escaped u'\u005cu201d' ( fear
p2
aVTo build our emotion lexicon we harvested all the news articles from rappler.com , as of June 3rd 2013 the final dataset consists of 13.5 M words over 25.3 K documents, with an average of 530 words per document
p3
aVThis method allows us to u'\u005cu2018' merge u'\u005cu2019' words with emotions by summing the products of the weight
p4
a.