(lp0
VOur composite kernel consists of a history sequence and a domain context tree kernels, both of which are composed based on similar textual units in Wikipedia articles to a given dialog context
p1
aVIn this work, a composite kernel is defined by combining the individual kernels including history sequence and domain context tree kernels, as well as the linear kernel between the vectors representing fundamental features extracted from the utterances themselves and the results of linguistic preprocessors
p2
aVThen, the history sequence and tree context structures for our composite kernel were constructed based on
p3
a.