(lp0
VWe generalize the latent variable violation-fixing perceptron framework to inexact search over hypergraphs, which subsumes previous algorithms for PBMT and bottom-up parsing as special cases (see Fig
p1
aVTo alleviate this problem, their work adopts the theoretically-motivated framework of violation-fixing perceptron [ 12 ] tailed for inexact search, yielding great results on phrase-based MT (outperforming small-scale Mert / Pro by a large margin for the first time
p2
aVAfter numerous attempts by various researchers [ 17 , 20 , 1 , 2 , 5 , 9 , 10 ] , the recent work of \u005cnewcite yu+:2013 finally reveals a major reason it
p3
a.