(lp0
VFor example, the mediocre performance of the parser on SQ-vp barely affects the score with OntoNotes, but has a larger negative effect with Answers, due to its increased frequency in the latter
p1
aVThe F-s score roughly corresponds to the evalb score
p2
aVTable 2 lists the most frequent categories in the three datasets, with their percentage of the overall number of brackets (%gold), their score based just on the head identification (F-h), their score based on head identification and
p3
a.