(lp0
VThe proposed method does not simply use MACD to find bursts, but instead determines topic words in series of documents
p1
aVWe used documents prepared by summarization tasks, NTCIR and DUC data as each task consists of series of documents with the same topic
p2
aVAn event word refers to the t u'\u005cu2062' h u'\u005cu2062' e u'\u005cu2062' m u'\u005cu2062' e of the document itself, and frequently appears in the document but not frequently appear in other documents
p3
aVTopic candidates include surplus words that are not related to the topic because the results obtained by u'\u005cu201c' LDA u'\u005cu201d' were worse than those obtained by u'\u005cu201c'
p4
a.