(lp0
VOut of 158 randomly chosen correct relation translation pairs we labeled, 64% has only one co-occurring entity pair, which makes EF not very effective to identify these relation translations
p1
aVUnfortunately, this approach suffers from sparsity of the common entity pairs due to the incomparability of the corpora and those entities that cannot be translated by T N
p2
aVWe measure precision, recall, and F1-score based on the returned translation pairs for each English entity as it is done in [ 11 ]
p3
aVTherefore,
p4
a.