(lp0
VTable 2 lists the most frequent categories in the three datasets, with their percentage of the overall number of brackets (%gold), their score based just on the head identification (F-h), their score based on head identification and (left and right) span (F-s), and the attachment (att) and span-right (spanR) scores for those that match based on the head
p1
aV1) For each regex match, we score whether it matches based on the span as well
p2
aV2) Since the derivation
p3
a.