(lp0
VAn excerpt of the final Matrix M W u'\u005cu2062' E is presented in Table 3 , and it can be interpreted as a list of words with scores that represent how much weight a given word has in the affective dimensions we consider
p1
aVSo, for example, awe#n has a predominant weight in inspired (0.38), comical#a has a predominant weight in amused (0.51), while kill#v has a predominant weight in afraid , angry and sad (0.23, 0.21 and 0.27 respectively
p2
aVThus, emotion analysis represents a natural evolution of sentiment analysis
p3
aVThis method allows us to u'\u005cu2018' merge u'\u005cu2019' words with emotions by summing the products of the weight of a word with the weight of the emotions in each document
p4
aVTo build our emotion lexicon we harvested all the news articles from rappler.com , as of June 3rd 2013 the final dataset consists of 13.5 M words over 25.3 K documents, with an average of 530 words per document
p5
aVWhile both texts express a negative sentiment, the latter, connected to anger, is more relevant
p6
a.